L251 LINKER/LOCATER V4.66.93.0                                                          05/06/2026  19:47:11  PAGE 1


L251 LINKER/LOCATER V4.66.93.0, INVOKED BY:
E:\KEIL_V5\C251\BIN\L251.EXE .\out_file\START251.obj, .\out_file\stc32g_isr.obj, .\out_file\zf_common_clock.obj, .\out_f
>> ile\zf_common_debug.obj, .\out_file\zf_common_fifo.obj, .\out_file\zf_common_font.obj, .\out_file\zf_common_function.
>> obj, .\out_file\zf_common_typedef.obj, .\out_file\zf_common_interrupt.obj, .\out_file\zf_driver_adc.obj, .\out_file\z
>> f_driver_delay.obj, .\out_file\zf_driver_eeprom.obj, .\out_file\zf_driver_encoder.obj, .\out_file\zf_driver_exti.obj,
>>  .\out_file\zf_driver_gpio.obj, .\out_file\zf_driver_pit.obj, .\out_file\zf_driver_pwm.obj, .\out_file\zf_driver_soft
>> _iic.obj, .\out_file\zf_driver_soft_spi.obj, .\out_file\zf_driver_spi.obj, .\out_file\zf_driver_timer.obj, .\out_file
>> \zf_driver_uart.obj, .\out_file\eeprom.obj, .\out_file\voltage_warning.obj, .\out_file\zf_device_ble6a20.obj, .\out_f
>> ile\zf_device_config.obj, .\out_file\zf_device_dl1a.obj, .\out_file\zf_device_dl1b.obj, .\out_file\zf_device_gps_tau1
>> 201.obj, .\out_file\zf_device_icm20602.obj, .\out_file\zf_device_imu660ra.obj, .\out_file\zf_device_imu660rb.obj, .\o
>> ut_file\zf_device_imu963ra.obj, .\out_file\zf_device_ips114.obj, .\out_file\zf_device_ips200.obj, .\out_file\zf_devic
>> e_ips200pro.obj, .\out_file\zf_device_tft180.obj, .\out_file\zf_device_tsl1401.obj, .\out_file\zf_device_type.obj, .\
>> out_file\zf_device_wireless_uart.obj, .\out_file\imu.obj, .\out_file\seekfree_assistant.obj, .\out_file\seekfree_assi
>> stant_interface.obj, .\out_file\isr.obj, .\out_file\main.obj, .\out_file\all_init.obj, .\out_file\encoder.obj, .\out_
>> file\moto.obj, .\out_file\led.obj, .\out_file\trank.obj, .\out_file\inductance.obj, .\out_file\menu.obj, .\out_file\e
>> lement.obj TO .\out_file\SEEKFREE PRINT (.\out_file\SEEKFREE.map) CASE DISABLEWARNING (57, 16) REMOVEUNUSED CLASSES (
>> EDATA (0X0-0XFFF), HDATA (0X0-0XFFF))


CPU MODE:     251 SOURCE MODE
INTR FRAME:   4 BYTES SAVED ON INTERRUPT
MEMORY MODEL: LARGE WITH FLOATING POINT ARITHMETIC


INPUT MODULES INCLUDED:
  .\out_file\START251.obj (?C_START)
         COMMENT TYPE 0: A251 V4.69.13.0
  .\out_file\stc32g_isr.obj (stc32g_isr)
         COMMENT TYPE 0: A251 V4.69.13.0
  .\out_file\zf_common_clock.obj (zf_common_clock)
         COMMENT TYPE 0: C251 V5.60.0
  .\out_file\zf_common_debug.obj (zf_common_debug)
         COMMENT TYPE 0: C251 V5.60.0
  .\out_file\zf_common_fifo.obj (zf_common_fifo)
         COMMENT TYPE 0: C251 V5.60.0
  .\out_file\zf_common_font.obj (zf_common_font)
         COMMENT TYPE 0: C251 V5.60.0
  .\out_file\zf_common_function.obj (zf_common_function)
         COMMENT TYPE 0: C251 V5.60.0
  .\out_file\zf_common_typedef.obj (zf_common_typedef)
         COMMENT TYPE 0: C251 V5.60.0
  .\out_file\zf_common_interrupt.obj (zf_common_interrupt)
         COMMENT TYPE 0: C251 V5.60.0
  .\out_file\zf_driver_adc.obj (zf_driver_adc)
         COMMENT TYPE 0: C251 V5.60.0
  .\out_file\zf_driver_delay.obj (zf_driver_delay)
         COMMENT TYPE 0: C251 V5.60.0
  .\out_file\zf_driver_eeprom.obj (zf_driver_eeprom)
         COMMENT TYPE 0: C251 V5.60.0
  .\out_file\zf_driver_encoder.obj (zf_driver_encoder)
         COMMENT TYPE 0: C251 V5.60.0
  .\out_file\zf_driver_exti.obj (zf_driver_exti)
         COMMENT TYPE 0: C251 V5.60.0
  .\out_file\zf_driver_gpio.obj (zf_driver_gpio)
         COMMENT TYPE 0: C251 V5.60.0
  .\out_file\zf_driver_pit.obj (zf_driver_pit)
         COMMENT TYPE 0: C251 V5.60.0
  .\out_file\zf_driver_pwm.obj (zf_driver_pwm)
         COMMENT TYPE 0: C251 V5.60.0
  .\out_file\zf_driver_soft_iic.obj (zf_driver_soft_iic)
         COMMENT TYPE 0: C251 V5.60.0
  .\out_file\zf_driver_soft_spi.obj (zf_driver_soft_spi)
         COMMENT TYPE 0: C251 V5.60.0
  .\out_file\zf_driver_spi.obj (zf_driver_spi)
         COMMENT TYPE 0: C251 V5.60.0
  .\out_file\zf_driver_timer.obj (zf_driver_timer)
L251 LINKER/LOCATER V4.66.93.0                                                        05/06/2026  19:47:11  PAGE 2


         COMMENT TYPE 0: C251 V5.60.0
  .\out_file\zf_driver_uart.obj (zf_driver_uart)
         COMMENT TYPE 0: C251 V5.60.0
  .\out_file\eeprom.obj (eeprom)
         COMMENT TYPE 0: C251 V5.60.0
  .\out_file\voltage_warning.obj (voltage_warning)
         COMMENT TYPE 0: C251 V5.60.0
  .\out_file\zf_device_ble6a20.obj (zf_device_ble6a20)
         COMMENT TYPE 0: C251 V5.60.0
  .\out_file\zf_device_config.obj (zf_device_config)
         COMMENT TYPE 0: C251 V5.60.0
  .\out_file\zf_device_dl1a.obj (zf_device_dl1a)
         COMMENT TYPE 0: C251 V5.60.0
  .\out_file\zf_device_dl1b.obj (zf_device_dl1b)
         COMMENT TYPE 0: C251 V5.60.0
  .\out_file\zf_device_gps_tau1201.obj (zf_device_gps_tau1201)
         COMMENT TYPE 0: C251 V5.60.0
  .\out_file\zf_device_icm20602.obj (zf_device_icm20602)
         COMMENT TYPE 0: C251 V5.60.0
  .\out_file\zf_device_imu660ra.obj (zf_device_imu660ra)
         COMMENT TYPE 0: C251 V5.60.0
  .\out_file\zf_device_imu660rb.obj (zf_device_imu660rb)
         COMMENT TYPE 0: C251 V5.60.0
  .\out_file\zf_device_imu963ra.obj (zf_device_imu963ra)
         COMMENT TYPE 0: C251 V5.60.0
  .\out_file\zf_device_ips114.obj (zf_device_ips114)
         COMMENT TYPE 0: C251 V5.60.0
  .\out_file\zf_device_ips200.obj (zf_device_ips200)
         COMMENT TYPE 0: C251 V5.60.0
  .\out_file\zf_device_ips200pro.obj (zf_device_ips200pro)
         COMMENT TYPE 0: C251 V5.60.0
  .\out_file\zf_device_tft180.obj (zf_device_tft180)
         COMMENT TYPE 0: C251 V5.60.0
  .\out_file\zf_device_tsl1401.obj (zf_device_tsl1401)
         COMMENT TYPE 0: C251 V5.60.0
  .\out_file\zf_device_type.obj (zf_device_type)
         COMMENT TYPE 0: C251 V5.60.0
  .\out_file\zf_device_wireless_uart.obj (zf_device_wireless_uart)
         COMMENT TYPE 0: C251 V5.60.0
  .\out_file\imu.obj (imu)
         COMMENT TYPE 0: C251 V5.60.0
  .\out_file\seekfree_assistant.obj (seekfree_assistant)
         COMMENT TYPE 0: C251 V5.60.0
  .\out_file\seekfree_assistant_interface.obj (seekfree_assistant_interface)
         COMMENT TYPE 0: C251 V5.60.0
  .\out_file\isr.obj (isr)
         COMMENT TYPE 0: C251 V5.60.0
  .\out_file\main.obj (main)
         COMMENT TYPE 0: C251 V5.60.0
  .\out_file\all_init.obj (all_init)
         COMMENT TYPE 0: C251 V5.60.0
  .\out_file\encoder.obj (encoder)
         COMMENT TYPE 0: C251 V5.60.0
  .\out_file\moto.obj (moto)
         COMMENT TYPE 0: C251 V5.60.0
  .\out_file\led.obj (led)
         COMMENT TYPE 0: C251 V5.60.0
  .\out_file\trank.obj (trank)
         COMMENT TYPE 0: C251 V5.60.0
  .\out_file\inductance.obj (inductance)
         COMMENT TYPE 0: C251 V5.60.0
  .\out_file\menu.obj (menu)
         COMMENT TYPE 0: C251 V5.60.0
  .\out_file\element.obj (element)
         COMMENT TYPE 0: C251 V5.60.0
L251 LINKER/LOCATER V4.66.93.0                                                        05/06/2026  19:47:11  PAGE 3


  E:\KEIL_V5\C251\LIB\C2SFPL.LIB (?C?FPADD)
         COMMENT TYPE 0: A251 V4.69.6.0
  E:\KEIL_V5\C251\LIB\C2SFPL.LIB (?C?FPMUL)
         COMMENT TYPE 0: A251 V4.69.6.0
  E:\KEIL_V5\C251\LIB\C2SFPL.LIB (?C?FPDIV)
         COMMENT TYPE 0: A251 V4.69.6.0
  E:\KEIL_V5\C251\LIB\C2SFPL.LIB (?C?FPCMP)
         COMMENT TYPE 0: A251 V4.69.6.0
  E:\KEIL_V5\C251\LIB\C2SFPL.LIB (?C?FPNEG)
         COMMENT TYPE 0: A251 V4.69.6.0
  E:\KEIL_V5\C251\LIB\C2SFPL.LIB (?C?FCAST)
         COMMENT TYPE 0: A251 V4.69.6.0
  E:\KEIL_V5\C251\LIB\C2SFPL.LIB (?C?CASTF)
         COMMENT TYPE 0: A251 V4.69.6.0
  E:\KEIL_V5\C251\LIB\C2SFPL.LIB (PRINTF)
         COMMENT TYPE 0: A251 V4.69.6.0
  E:\KEIL_V5\C251\LIB\C2SFPL.LIB (SPRINTF)
         COMMENT TYPE 0: A251 V4.69.6.0
  E:\KEIL_V5\C251\LIB\C2SFPL.LIB (SQRT?_)
         COMMENT TYPE 0: A251 V4.69.6.0
  E:\KEIL_V5\C251\LIB\C2SFPL.LIB (pow)
         COMMENT TYPE 0: C251 V5.58.7
  E:\KEIL_V5\C251\LIB\C2SFPL.LIB (SIN?_)
         COMMENT TYPE 0: A251 V4.69.6.0
  E:\KEIL_V5\C251\LIB\C2SFPL.LIB (ATAN?_)
         COMMENT TYPE 0: A251 V4.69.6.0
  E:\KEIL_V5\C251\LIB\C2SFPL.LIB (ASIN?_)
         COMMENT TYPE 0: A251 V4.69.6.0
  E:\KEIL_V5\C251\LIB\C2SFPL.LIB (?C?FPGETOPN)
         COMMENT TYPE 0: A251 V4.69.6.0
  E:\KEIL_V5\C251\LIB\C2SFPL.LIB (_CHKFLOAT_?_)
         COMMENT TYPE 0: A251 V4.69.6.0
  E:\KEIL_V5\C251\LIB\C2SFPL.LIB (?C?PRNFMT)
         COMMENT TYPE 0: A251 V4.69.6.0
  E:\KEIL_V5\C251\LIB\C2SFPL.LIB (?C?FPSERIES)
         COMMENT TYPE 0: A251 V4.69.6.0
  E:\KEIL_V5\C251\LIB\C2SFPL.LIB (EXP?_)
         COMMENT TYPE 0: A251 V4.69.6.0
  E:\KEIL_V5\C251\LIB\C2SFPL.LIB (LOG?_)
         COMMENT TYPE 0: A251 V4.69.6.0
  E:\KEIL_V5\C251\LIB\C2SFPL.LIB (?C?FPCONVERT)
         COMMENT TYPE 0: A251 V4.69.6.0
  E:\KEIL_V5\C251\LIB\C2SFPL.LIB (?C?FTNPWR)
         COMMENT TYPE 0: A251 V4.69.6.0
  E:\KEIL_V5\C251\LIB\C2SL.LIB (?C?INITHDATA)
         COMMENT TYPE 0: A251 V4.69.6.0
  E:\KEIL_V5\C251\LIB\C2SL.LIB (?C?SIDIV)
         COMMENT TYPE 0: A251 V4.69.6.0
  E:\KEIL_V5\C251\LIB\C2SL.LIB (?C?LMUL)
         COMMENT TYPE 0: A251 V4.69.6.0
  E:\KEIL_V5\C251\LIB\C2SL.LIB (?C?LIMUL)
         COMMENT TYPE 0: A251 V4.69.6.0
  E:\KEIL_V5\C251\LIB\C2SL.LIB (?C?ULDIV)
         COMMENT TYPE 0: A251 V4.69.6.0
  E:\KEIL_V5\C251\LIB\C2SL.LIB (?C?SLDIV)
         COMMENT TYPE 0: A251 V4.69.6.0
  E:\KEIL_V5\C251\LIB\C2SL.LIB (?C?BMOVEPP)
         COMMENT TYPE 0: A251 V4.69.6.0
  E:\KEIL_V5\C251\LIB\C2SL.LIB (STRNCMP)
         COMMENT TYPE 0: C251 V5.58.7
  E:\KEIL_V5\C251\LIB\C2SL.LIB (STRNCPY)
         COMMENT TYPE 0: C251 V5.58.7
  E:\KEIL_V5\C251\LIB\C2SL.LIB (STRLEN)
         COMMENT TYPE 0: C251 V5.58.7
  E:\KEIL_V5\C251\LIB\C2SL.LIB (STRCHR)
L251 LINKER/LOCATER V4.66.93.0                                                        05/06/2026  19:47:11  PAGE 4


         COMMENT TYPE 0: C251 V5.58.7
  E:\KEIL_V5\C251\LIB\C2SL.LIB (memcpy)
         COMMENT TYPE 0: C251 V5.58.7
  E:\KEIL_V5\C251\LIB\C2SL.LIB (memset)
         COMMENT TYPE 0: C251 V5.58.7
  E:\KEIL_V5\C251\LIB\C2SL.LIB (?C?INITHDATA_END)
         COMMENT TYPE 0: A251 V4.69.6.0


ACTIVE MEMORY CLASSES OF MODULE:  .\out_file\SEEKFREE (?C_START)

BASE        START       END         USED      MEMORY CLASS
==========================================================
000000H     000000H     000FFFH     00080CH   EDATA
000000H     000000H     000FFFH               HDATA
FF0000H     FF0000H     FFFFFFH     009B1CH   CODE
010000H     010000H     01FFFFH     002017H   XDATA
000000H     FF0000H     FFFFFFH     000FD7H   HCONST
000020H.0   000020H.0   00002FH.7   000000H.4 BIT
FF0000H     FF0000H     FFFFFFH     000004H   CONST
000000H     000000H     00007FH     000008H   DATA


MEMORY MAP OF MODULE:  .\out_file\SEEKFREE (?C_START)


START     STOP      LENGTH    ALIGN  RELOC    MEMORY CLASS   SEGMENT NAME
=========================================================================
000000H   000007H   000008H   ---    AT..     DATA           "REG BANK 0"
000008H   00000FH   000008H   BYTE   UNIT     EDATA          ?ED?DL1A_ENCODE_TIMEOUT?ZF_DEVICE_DL1A
000010H   000013H   000004H   BYTE   UNIT     EDATA          ?ED?ICM20602_SIMSPI_R_REG_BYTES?ZF_DEVICE_ICM20602
000014H.0 00001FH.7 00000CH.0 ---    ---      **GAP**
000020H.0 000020H.0 000000H.1 BIT    UNIT     BIT            ?BI?IAP_READ_BYTE?ZF_DRIVER_EEPROM
000020H.1 000020H.1 000000H.1 BIT    UNIT     BIT            ?BI?IAP_WRITE_BYTE?ZF_DRIVER_EEPROM
000020H.2 000020H.2 000000H.1 BIT    UNIT     BIT            ?BI?IAP_ERASE_PAGE?ZF_DRIVER_EEPROM
000020H.3 000020H.3 000000H.1 BIT    UNIT     BIT            ?BI?SEEKFREE_ASSISTANT_DATA_ANALYSIS?SEEKFREE_ASSISTANT
000020H.4 000020H   000000H.4 ---    ---      **GAP**
000021H   000820H   000800H   BYTE   UNIT     EDATA          ?STACK
000821H   00FFFFH   00F7DFH   ---    ---      **GAP**
010000H   010209H   00020AH   BYTE   UNIT     XDATA          ?XD?EXTERN_IAP_WRITE_BUFF?ZF_DRIVER_EEPROM
01020AH   01040BH   000202H   BYTE   INSEG    XDATA          ?XD?ZF_DEVICE_TSL1401
01040CH   0105D3H   0001C8H   BYTE   INSEG    XDATA          ?XD?ZF_DEVICE_GPS_TAU1201
0105D4H   010710H   00013DH   BYTE   INSEG    XDATA          ?XD?SEEKFREE_ASSISTANT
010711H   01083EH   00012EH   BYTE   INSEG    XDATA          ?XD?TRANK
01083FH   01095DH   00011FH   BYTE   INSEG    XDATA          ?XD?IMU
01095EH   010A5DH   000100H   BYTE   INSEG    XDATA          ?XD?MENU
010A5EH   010B2BH   0000CEH   BYTE   UNIT     XDATA          ?XD?DL1A_INIT?ZF_DEVICE_DL1A
010B2CH   010BC0H   000095H   BYTE   UNIT     XDATA          ?XD?GPS_INIT?ZF_DEVICE_GPS_TAU1201
010BC1H   010C4FH   00008FH   BYTE   UNIT     XDATA          ?XD?SEEKFREE_ASSISTANT_DATA_ANALYSIS?SEEKFREE_ASSISTANT
010C50H   010CAEH   00005FH   BYTE   UNIT     XDATA          ?XD?ZF_SPRINTF?ZF_COMMON_FUNCTION
010CAFH   010D07H   000059H   BYTE   INSEG    XDATA          ?XD?ZF_COMMON_DEBUG
010D08H   010D5FH   000058H   BYTE   INSEG    XDATA          ?XD?INDUCTANCE
010D60H   010DB6H   000057H   BYTE   INSEG    XDATA          ?XD?ZF_DEVICE_BLE6A20
010DB7H   010E0DH   000057H   BYTE   INSEG    XDATA          ?XD?ZF_DEVICE_WIRELESS_UART
010E0EH   010E60H   000053H   BYTE   UNIT     XDATA          ?XD?VSNPRINTF?ZF_COMMON_FUNCTION
010E61H   010EADH   00004DH   BYTE   INSEG    XDATA          ?XD?ZF_DEVICE_IPS200PRO
010EAEH   010EF7H   00004AH   BYTE   UNIT     XDATA          ?XD?UART_WRITE_BUFFER?ZF_DRIVER_UART
010EF8H   010F3CH   000045H   BYTE   UNIT     XDATA          ?XD?IPS200PRO_TABLE_CELL_PRINTF?ZF_DEVICE_IPS200PRO
010F3DH   010F7BH   00003FH   BYTE   UNIT     XDATA          ?XD?IPS200PRO_LABEL_PRINTF?ZF_DEVICE_IPS200PRO
010F7CH   010FB3H   000038H   BYTE   UNIT     XDATA          ?XD?FUNC_DOUBLE_TO_STR?ZF_COMMON_FUNCTION
010FB4H   010FE3H   000030H   BYTE   UNIT     XDATA          ?XD?GET_TWO_POINTS_DISTANCE?ZF_DEVICE_GPS_TAU1201
010FE4H   011013H   000030H   BYTE   UNIT     XDATA          ?XD?IPS114_SHOW_FLOAT?ZF_DEVICE_IPS114
011014H   011043H   000030H   BYTE   UNIT     XDATA          ?XD?IPS200_SHOW_FLOAT?ZF_DEVICE_IPS200
011044H   011073H   000030H   BYTE   UNIT     XDATA          ?XD?TFT180_SHOW_FLOAT?ZF_DEVICE_TFT180
011074H   0110A2H   00002FH   BYTE   UNIT     XDATA          ?XD?DL1A_SET_MEASUREMENT_TIMING_BUDGET?ZF_DEVICE_DL1A
L251 LINKER/LOCATER V4.66.93.0                                                        05/06/2026  19:47:11  PAGE 5


0110A3H   0110CEH   00002CH   BYTE   UNIT     XDATA          ?XD?IPS114_SHOW_INT32?ZF_DEVICE_IPS114
0110CFH   0110FAH   00002CH   BYTE   UNIT     XDATA          ?XD?IPS200_SHOW_INT32?ZF_DEVICE_IPS200
0110FBH   011126H   00002CH   BYTE   UNIT     XDATA          ?XD?TFT180_SHOW_INT32?ZF_DEVICE_TFT180
011127H   011151H   00002BH   BYTE   UNIT     XDATA          ?XD?GPS_GNRMC_PARSE?ZF_DEVICE_GPS_TAU1201
011152H   01117BH   00002AH   BYTE   UNIT     XDATA          ?XD?FUNC_FLOAT_TO_STR?ZF_COMMON_FUNCTION
01117CH   0111A5H   00002AH   BYTE   UNIT     XDATA          ?XD?SEEKFREE_ASSISTANT_OSCILLOSCOPE_SEND?SEEKFREE_ASSISTAN
                                                             -T
0111A6H   0111CDH   000028H   BYTE   UNIT     XDATA          ?XD?IPS200PRO_IMAGE_DISPLAY?ZF_DEVICE_IPS200PRO
0111CEH   0111F5H   000028H   BYTE   UNIT     XDATA          _XDATA_GROUP_
0111F6H   01121AH   000025H   BYTE   UNIT     XDATA          ?XD?FUNC_HEX_TO_STR?ZF_COMMON_FUNCTION
01121BH   01123CH   000022H   BYTE   UNIT     XDATA          ?XD?IPS200PRO_IMAGE_DRAW_RECTANGLE?ZF_DEVICE_IPS200PRO
01123DH   01125CH   000020H   BYTE   UNIT     XDATA          ?XD?IPS114_SHOW_WAVE?ZF_DEVICE_IPS114
01125DH   01127CH   000020H   BYTE   UNIT     XDATA          ?XD?IPS200_SHOW_WAVE?ZF_DEVICE_IPS200
01127DH   01129CH   000020H   BYTE   UNIT     XDATA          ?XD?TFT180_SHOW_WAVE?ZF_DEVICE_TFT180
01129DH   0112BBH   00001FH   BYTE   UNIT     XDATA          ?XD?DL1A_GET_MEASUREMENT_TIMING_BUDGET?ZF_DEVICE_DL1A
0112BCH   0112DAH   00001FH   BYTE   UNIT     XDATA          ?XD?IPS200PRO_WRITE_PACKET?ZF_DEVICE_IPS200PRO
0112DBH   0112F9H   00001FH   BYTE   UNIT     XDATA          ?XD?SEEKFREE_ASSISTANT_CAMERA_BOUNDARY_CONFIG?SEEKFREE_ASS
                                                             -ISTANT
0112FAH   011317H   00001EH   BYTE   INSEG    XDATA          ?XD?ZF_COMMON_TYPEDEF
011318H   011335H   00001EH   BYTE   INSEG    XDATA          ?XD?ZF_DEVICE_IMU963RA
011336H   011352H   00001DH   BYTE   UNIT     XDATA          ?XD?FUNC_INT_TO_STR?ZF_COMMON_FUNCTION
011353H   01136EH   00001CH   BYTE   UNIT     XDATA          ?XD?GET_TWO_POINTS_AZIMUTH?ZF_DEVICE_GPS_TAU1201
01136FH   01138AH   00001CH   BYTE   UNIT     XDATA          ?XD?PID_INIT?TRANK
01138BH   0113A5H   00001BH   BYTE   UNIT     XDATA          ?XD?IPS200PRO_CREATE_WIDGETS?ZF_DEVICE_IPS200PRO
0113A6H   0113BFH   00001AH   BYTE   UNIT     XDATA          ?XD?IPS200PRO_WAVEFORM_ADD_VALUE?ZF_DEVICE_IPS200PRO
0113C0H   0113D9H   00001AH   BYTE   UNIT     XDATA          ?XD?IPS200PRO_IMAGE_DRAW_LINE?ZF_DEVICE_IPS200PRO
0113DAH   0113F3H   00001AH   BYTE   UNIT     XDATA          ?XD?OSCILLOSCOPE_DISPLAY?MENU
0113F4H   01140CH   000019H   BYTE   UNIT     XDATA          ?XD?FUNC_UINT_TO_STR?ZF_COMMON_FUNCTION
01140DH   011425H   000019H   BYTE   UNIT     XDATA          ?XD?IPS114_SHOW_CHINESE?ZF_DEVICE_IPS114
011426H   01143EH   000019H   BYTE   UNIT     XDATA          ?XD?IPS200_SHOW_CHINESE?ZF_DEVICE_IPS200
01143FH   011457H   000019H   BYTE   UNIT     XDATA          ?XD?PARAMETER_DEBUG?MENU
011458H   01146FH   000018H   BYTE   UNIT     XDATA          ?XD?FIFO_READ_BUFFER?ZF_COMMON_FIFO
011470H   011487H   000018H   BYTE   UNIT     XDATA          ?XD?GET_FLOAT_NUMBER?ZF_DEVICE_GPS_TAU1201
011488H   01149FH   000018H   BYTE   UNIT     XDATA          ?XD?GET_DOUBLE_NUMBER?ZF_DEVICE_GPS_TAU1201
0114A0H   0114B4H   000015H   BYTE   UNIT     XDATA          ?XD?SOFT_SPI_INIT?ZF_DRIVER_SOFT_SPI
0114B5H   0114C9H   000015H   BYTE   UNIT     XDATA          ?XD?IPS200PRO_GET_INFORMATION?ZF_DEVICE_IPS200PRO
0114CAH   0114DDH   000014H   BYTE   UNIT     XDATA          ?XD?DEBUG_ASSERT_HANDLER?ZF_COMMON_DEBUG
0114DEH   0114F1H   000014H   BYTE   UNIT     XDATA          ?XD?NUMBER_CONVERSION_ASCII?ZF_COMMON_FUNCTION
0114F2H   011505H   000014H   BYTE   UNIT     XDATA          ?XD?PWM_SET_FREQ?ZF_DRIVER_PWM
011506H   011519H   000014H   BYTE   UNIT     XDATA          ?XD?SOFT_IIC_TRANSFER_8BIT_ARRAY?ZF_DRIVER_SOFT_IIC
01151AH   01152DH   000014H   BYTE   UNIT     XDATA          ?XD?SOFT_IIC_TRANSFER_16BIT_ARRAY?ZF_DRIVER_SOFT_IIC
01152EH   011541H   000014H   BYTE   UNIT     XDATA          ?XD?SPI_INIT?ZF_DRIVER_SPI
011542H   011555H   000014H   BYTE   INSEG    XDATA          ?XD?ZF_DEVICE_ICM20602
011556H   011569H   000014H   BYTE   INSEG    XDATA          ?XD?ZF_DEVICE_IMU660RA
01156AH   01157DH   000014H   BYTE   UNIT     XDATA          ?XD?INDUCTANCE_COUNT_ERR?INDUCTANCE
01157EH   011591H   000014H   BYTE   UNIT     XDATA          ?XD?INDUCTANCE_COUNT_ERR2?INDUCTANCE
011592H   0115A4H   000013H   BYTE   UNIT     XDATA          ?XD?IMU660RA_READ_REGISTERS?ZF_DEVICE_IMU660RA
0115A5H   0115B7H   000013H   BYTE   UNIT     XDATA          ?XD?IPS200PRO_SET_COLOR?ZF_DEVICE_IPS200PRO
0115B8H   0115CAH   000013H   BYTE   UNIT     XDATA          ?XD?IPS200PRO_SET_POSITION?ZF_DEVICE_IPS200PRO
0115CBH   0115DDH   000013H   BYTE   UNIT     XDATA          ?XD?IPS200PRO_WAVEFORM_LINE_STATE?ZF_DEVICE_IPS200PRO
0115DEH   0115F0H   000013H   BYTE   UNIT     XDATA          ?XD?IPS200PRO_CONTAINER_RADIUS?ZF_DEVICE_IPS200PRO
0115F1H   011602H   000012H   BYTE   UNIT     XDATA          ?XD?FIFO_WRITE_BUFFER?ZF_COMMON_FIFO
011603H   011614H   000012H   BYTE   UNIT     XDATA          ?XD?PWM_INIT?ZF_DRIVER_PWM
011615H   011626H   000012H   BYTE   UNIT     XDATA          ?XD?IPS200PRO_TABLE_SET_COL_WIDTH?ZF_DEVICE_IPS200PRO
011627H   011638H   000012H   BYTE   UNIT     XDATA          ?XD?IPS200PRO_CALENDAR_DISPLAY?ZF_DEVICE_IPS200PRO
011639H   011649H   000011H   BYTE   UNIT     XDATA          ?XD?FUNC_STR_TO_FLOAT?ZF_COMMON_FUNCTION
01164AH   01165AH   000011H   BYTE   UNIT     XDATA          ?XD?FUNC_STR_TO_DOUBLE?ZF_COMMON_FUNCTION
01165BH   01166BH   000011H   BYTE   UNIT     XDATA          ?XD?GET_INT_NUMBER?ZF_DEVICE_GPS_TAU1201
01166CH   01167CH   000011H   BYTE   UNIT     XDATA          ?XD?IPS200PRO_SET_DATE?ZF_DEVICE_IPS200PRO
01167DH   01168DH   000011H   BYTE   UNIT     XDATA          ?XD?IPS200PRO_SET_PARENT?ZF_DEVICE_IPS200PRO
01168EH   01169EH   000011H   BYTE   UNIT     XDATA          ?XD?IPS200PRO_GET_DATE?ZF_DEVICE_IPS200PRO
01169FH   0116AFH   000011H   BYTE   UNIT     XDATA          ?XD?IPS200PRO_GET_TIME?ZF_DEVICE_IPS200PRO
0116B0H   0116C0H   000011H   BYTE   UNIT     XDATA          ?XD?IPS200PRO_GET_FREE_STACK_SIZE?ZF_DEVICE_IPS200PRO
0116C1H   0116D1H   000011H   BYTE   UNIT     XDATA          ?XD?IPS200PRO_TABLE_SELECT?ZF_DEVICE_IPS200PRO
0116D2H   0116E2H   000011H   BYTE   UNIT     XDATA          ?XD?IPS200PRO_PROGRESS_BAR_SET_VALUE?ZF_DEVICE_IPS200PRO
L251 LINKER/LOCATER V4.66.93.0                                                        05/06/2026  19:47:11  PAGE 6


0116E3H   0116F2H   000010H   BYTE   UNIT     XDATA          ?XD?SOFT_SPI_TRANSFER_8BIT?ZF_DRIVER_SOFT_SPI
0116F3H   011702H   000010H   BYTE   UNIT     XDATA          ?XD?SOFT_SPI_TRANSFER_16BIT?ZF_DRIVER_SOFT_SPI
011703H   011712H   000010H   BYTE   UNIT     XDATA          ?XD?IPS200PRO_SET_TIME?ZF_DEVICE_IPS200PRO
011713H   011722H   000010H   BYTE   UNIT     XDATA          ?XD?IPS200PRO_PAGE_SET_TITLE_POSITION_WIDTH?ZF_DEVICE_IPS2
                                                             -00PRO
011723H   011732H   000010H   BYTE   UNIT     XDATA          ?XD?FAST_SQRT?IMU
011733H   011741H   00000FH   BYTE   UNIT     XDATA          ?XD?IPS200PRO_SET_FONT?ZF_DEVICE_IPS200PRO
011742H   011750H   00000FH   BYTE   UNIT     XDATA          ?XD?IPS200PRO_PAGE_SWITCH?ZF_DEVICE_IPS200PRO
011751H   01175FH   00000FH   BYTE   UNIT     XDATA          ?XD?IPS200PRO_PAGE_SET_TITLE_NAME?ZF_DEVICE_IPS200PRO
011760H   01176EH   00000FH   BYTE   UNIT     XDATA          ?XD?IPS200PRO_LABEL_SHOW_STRING?ZF_DEVICE_IPS200PRO
01176FH   01177DH   00000FH   BYTE   UNIT     XDATA          ?XD?IPS200PRO_LABEL_MODE?ZF_DEVICE_IPS200PRO
01177EH   01178CH   00000FH   BYTE   UNIT     XDATA          ?XD?IPS200PRO_METER_SET_VALUE?ZF_DEVICE_IPS200PRO
01178DH   01179BH   00000FH   BYTE   UNIT     XDATA          ?XD?SEEKFREE_ASSISTANT_CAMERA_DATA_SEND?SEEKFREE_ASSISTANT
01179CH   0117A9H   00000EH   BYTE   UNIT     XDATA          ?XD?FIFO_INIT?ZF_COMMON_FIFO
0117AAH   0117B7H   00000EH   BYTE   UNIT     XDATA          ?XD?FUNC_STR_TO_HEX?ZF_COMMON_FUNCTION
0117B8H   0117C5H   00000EH   BYTE   UNIT     XDATA          ?XD?PWM_SET_DUTY?ZF_DRIVER_PWM
0117C6H   0117D3H   00000EH   BYTE   UNIT     XDATA          ?XD?SOFT_IIC_WRITE_16BIT_REGISTERS?ZF_DRIVER_SOFT_IIC
0117D4H   0117E1H   00000EH   BYTE   UNIT     XDATA          ?XD?SOFT_IIC_READ_16BIT_REGISTERS?ZF_DRIVER_SOFT_IIC
0117E2H   0117EFH   00000EH   BYTE   UNIT     XDATA          ?XD?SOFT_SPI_WRITE_16BIT_REGISTERS?ZF_DRIVER_SOFT_SPI
0117F0H   0117FDH   00000EH   BYTE   UNIT     XDATA          ?XD?SOFT_SPI_READ_16BIT_REGISTERS?ZF_DRIVER_SOFT_SPI
0117FEH   01180BH   00000EH   BYTE   UNIT     XDATA          ?XD?SPI_TRANSFER_8BIT?ZF_DRIVER_SPI
01180CH   011819H   00000EH   BYTE   UNIT     XDATA          ?XD?SPI_TRANSFER_16BIT?ZF_DRIVER_SPI
01181AH   011827H   00000EH   BYTE   UNIT     XDATA          ?XD?GPS_GNGGA_PARSE?ZF_DEVICE_GPS_TAU1201
011828H   011835H   00000EH   BYTE   UNIT     XDATA          ?XD?IPS200PRO_SEND_BUFFER?ZF_DEVICE_IPS200PRO
011836H   011843H   00000EH   BYTE   UNIT     XDATA          ?XD?IPS200PRO_SET_HIDDEN?ZF_DEVICE_IPS200PRO
011844H   011851H   00000EH   BYTE   UNIT     XDATA          ?XD?IPS200PRO_WAVEFORM_LINE_TYPE?ZF_DEVICE_IPS200PRO
011852H   01185FH   00000EH   BYTE   INSEG    XDATA          ?XD?ENCODER
011860H   01186DH   00000EH   BYTE   UNIT     XDATA          ?XD?MEDIAN_AVERAGE_FILTER?INDUCTANCE
01186EH   01187AH   00000DH   BYTE   UNIT     XDATA          ?XD?PRINTF_REVERSE_ORDER?ZF_COMMON_FUNCTION
01187BH   011887H   00000DH   BYTE   UNIT     XDATA          ?XD?SOFT_IIC_WRITE_8BIT_REGISTERS?ZF_DRIVER_SOFT_IIC
011888H   011894H   00000DH   BYTE   UNIT     XDATA          ?XD?SOFT_IIC_READ_8BIT_REGISTERS?ZF_DRIVER_SOFT_IIC
011895H   0118A1H   00000DH   BYTE   UNIT     XDATA          ?XD?SOFT_IIC_INIT?ZF_DRIVER_SOFT_IIC
0118A2H   0118AEH   00000DH   BYTE   UNIT     XDATA          ?XD?SOFT_SPI_WRITE_8BIT_REGISTERS?ZF_DRIVER_SOFT_SPI
0118AFH   0118BBH   00000DH   BYTE   UNIT     XDATA          ?XD?SOFT_SPI_READ_8BIT_REGISTERS?ZF_DRIVER_SOFT_SPI
0118BCH   0118C8H   00000DH   BYTE   INSEG    XDATA          ?XD?ZF_DEVICE_DL1A
0118C9H   0118D5H   00000DH   BYTE   INSEG    XDATA          ?XD?ZF_DEVICE_DL1B
0118D6H   0118E2H   00000DH   BYTE   UNIT     XDATA          ?XD?GET_PARAMETER_INDEX?ZF_DEVICE_GPS_TAU1201
0118E3H   0118EFH   00000DH   BYTE   UNIT     XDATA          ?XD?IPS200PRO_RECEIVE_BUFFER?ZF_DEVICE_IPS200PRO
0118F0H   0118FCH   00000DH   BYTE   UNIT     XDATA          ?XD?IPS200PRO_SET_FORMAT?ZF_DEVICE_IPS200PRO
0118FDH   011909H   00000DH   BYTE   UNIT     XDATA          ?XD?IPS200PRO_SET_DIRECTION?ZF_DEVICE_IPS200PRO
01190AH   011916H   00000DH   BYTE   UNIT     XDATA          ?XD?IPS200PRO_SET_DEFAULT_FONT?ZF_DEVICE_IPS200PRO
011917H   011922H   00000CH   BYTE   UNIT     XDATA          ?XD?SOFT_IIC_WRITE_8BIT_ARRAY?ZF_DRIVER_SOFT_IIC
011923H   01192EH   00000CH   BYTE   UNIT     XDATA          ?XD?SOFT_IIC_WRITE_16BIT_ARRAY?ZF_DRIVER_SOFT_IIC
01192FH   01193AH   00000CH   BYTE   UNIT     XDATA          ?XD?SOFT_IIC_READ_8BIT_ARRAY?ZF_DRIVER_SOFT_IIC
01193BH   011946H   00000CH   BYTE   UNIT     XDATA          ?XD?SOFT_IIC_READ_16BIT_ARRAY?ZF_DRIVER_SOFT_IIC
011947H   011952H   00000CH   BYTE   UNIT     XDATA          ?XD?SOFT_SPI_WRITE_8BIT_ARRAY?ZF_DRIVER_SOFT_SPI
011953H   01195EH   00000CH   BYTE   UNIT     XDATA          ?XD?SOFT_SPI_WRITE_16BIT_ARRAY?ZF_DRIVER_SOFT_SPI
01195FH   01196AH   00000CH   BYTE   UNIT     XDATA          ?XD?SOFT_SPI_READ_8BIT_ARRAY?ZF_DRIVER_SOFT_SPI
01196BH   011976H   00000CH   BYTE   UNIT     XDATA          ?XD?SOFT_SPI_READ_16BIT_ARRAY?ZF_DRIVER_SOFT_SPI
011977H   011982H   00000CH   BYTE   UNIT     XDATA          ?XD?SPI_WRITE_16BIT_REGISTERS?ZF_DRIVER_SPI
011983H   01198EH   00000CH   BYTE   UNIT     XDATA          ?XD?SPI_READ_16BIT_REGISTERS?ZF_DRIVER_SPI
01198FH   01199AH   00000CH   BYTE   INSEG    XDATA          ?XD?ZF_DRIVER_TIMER
01199BH   0119A6H   00000CH   BYTE   INSEG    XDATA          ?XD?ZF_DRIVER_UART
0119A7H   0119B2H   00000CH   BYTE   UNIT     XDATA          ?XD?UART_INIT?ZF_DRIVER_UART
0119B3H   0119BEH   00000CH   BYTE   UNIT     XDATA          ?XD?EEPROM_READ_VALUE?EEPROM
0119BFH   0119CAH   00000CH   BYTE   UNIT     XDATA          ?XD?BLE6A20_SEND_BUFFER?ZF_DEVICE_BLE6A20
0119CBH   0119D6H   00000CH   BYTE   UNIT     XDATA          ?XD?BLE6A20_READ_BUFFER?ZF_DEVICE_BLE6A20
0119D7H   0119E2H   00000CH   BYTE   UNIT     XDATA          ?XD?DL1A_GET_SPAD_INFO?ZF_DEVICE_DL1A
0119E3H   0119EEH   00000CH   BYTE   UNIT     XDATA          ?XD?DL1A_GET_SEQUENCE_STEP_TIMEOUTS?ZF_DEVICE_DL1A
0119EFH   0119FAH   00000CH   BYTE   UNIT     XDATA          ?XD?GPS_DATA_PARSE?ZF_DEVICE_GPS_TAU1201
0119FBH   011A06H   00000CH   BYTE   INSEG    XDATA          ?XD?ZF_DEVICE_IMU660RB
011A07H   011A12H   00000CH   BYTE   UNIT     XDATA          ?XD?IPS114_SHOW_INT16?ZF_DEVICE_IPS114
011A13H   011A1EH   00000CH   BYTE   UNIT     XDATA          ?XD?IPS114_SHOW_UINT16?ZF_DEVICE_IPS114
011A1FH   011A2AH   00000CH   BYTE   UNIT     XDATA          ?XD?IPS200_SHOW_INT16?ZF_DEVICE_IPS200
011A2BH   011A36H   00000CH   BYTE   UNIT     XDATA          ?XD?IPS200_SHOW_UINT16?ZF_DEVICE_IPS200
L251 LINKER/LOCATER V4.66.93.0                                                        05/06/2026  19:47:11  PAGE 7


011A37H   011A42H   00000CH   BYTE   UNIT     XDATA          ?XD?IPS200PRO_SET_BACKLIGHT?ZF_DEVICE_IPS200PRO
011A43H   011A4EH   00000CH   BYTE   UNIT     XDATA          ?XD?IPS200PRO_SET_CRC_STATE?ZF_DEVICE_IPS200PRO
011A4FH   011A5AH   00000CH   BYTE   UNIT     XDATA          ?XD?IPS200PRO_SET_OPTIMIZE?ZF_DEVICE_IPS200PRO
011A5BH   011A66H   00000CH   BYTE   UNIT     XDATA          ?XD?TFT180_SHOW_INT16?ZF_DEVICE_TFT180
011A67H   011A72H   00000CH   BYTE   UNIT     XDATA          ?XD?TFT180_SHOW_UINT16?ZF_DEVICE_TFT180
011A73H   011A7EH   00000CH   BYTE   UNIT     XDATA          ?XD?WIRELESS_UART_SEND_BUFFER?ZF_DEVICE_WIRELESS_UART
011A7FH   011A8AH   00000CH   BYTE   UNIT     XDATA          ?XD?WIRELESS_UART_READ_BUFFER?ZF_DEVICE_WIRELESS_UART
011A8BH   011A96H   00000CH   BYTE   UNIT     XDATA          ?XD?KALMANCREATE?IMU
011A97H   011AA2H   00000CH   BYTE   UNIT     XDATA          ?XD?PID_CALC?TRANK
011AA3H   011AAEH   00000CH   BYTE   UNIT     XDATA          ?XD?RANGE_PROTECT_FLOAT?INDUCTANCE
011AAFH   011AB9H   00000BH   BYTE   INSEG    XDATA          ?XD?ZF_DRIVER_ADC
011ABAH   011AC4H   00000BH   BYTE   UNIT     XDATA          ?XD?PIT_INIT?ZF_DRIVER_PIT
011AC5H   011ACFH   00000BH   BYTE   UNIT     XDATA          ?XD?SOFT_SPI_16BIT_DATA_HANDLER?ZF_DRIVER_SOFT_SPI
011AD0H   011ADAH   00000BH   BYTE   UNIT     XDATA          ?XD?SPI_WRITE_8BIT_REGISTERS?ZF_DRIVER_SPI
011ADBH   011AE5H   00000BH   BYTE   UNIT     XDATA          ?XD?SPI_READ_8BIT_REGISTERS?ZF_DRIVER_SPI
011AE6H   011AF0H   00000BH   BYTE   UNIT     XDATA          ?XD?GPS_UART_CALLBACK?ZF_DEVICE_GPS_TAU1201
011AF1H   011AFBH   00000BH   BYTE   UNIT     XDATA          ?XD?IPS200PRO_DELETE_WIDGETS?ZF_DEVICE_IPS200PRO
011AFCH   011B06H   00000BH   BYTE   UNIT     XDATA          ?XD?IPS200PRO_WAVEFORM_CLEAR?ZF_DEVICE_IPS200PRO
011B07H   011B10H   00000AH   BYTE   UNIT     XDATA          ?XD?ADC_MEAN_FILTER_CONVERT?ZF_DRIVER_ADC
011B11H   011B1AH   00000AH   BYTE   UNIT     XDATA          ?XD?IAP_READ_BUFF?ZF_DRIVER_EEPROM
011B1BH   011B24H   00000AH   BYTE   UNIT     XDATA          ?XD?IAP_WRITE_BUFF?ZF_DRIVER_EEPROM
011B25H   011B2EH   00000AH   BYTE   UNIT     XDATA          ?XD?SPI_WRITE_8BIT_ARRAY?ZF_DRIVER_SPI
011B2FH   011B38H   00000AH   BYTE   UNIT     XDATA          ?XD?SPI_WRITE_16BIT_ARRAY?ZF_DRIVER_SPI
011B39H   011B42H   00000AH   BYTE   UNIT     XDATA          ?XD?SPI_READ_8BIT_ARRAY?ZF_DRIVER_SPI
011B43H   011B4CH   00000AH   BYTE   UNIT     XDATA          ?XD?SPI_READ_16BIT_ARRAY?ZF_DRIVER_SPI
011B4DH   011B56H   00000AH   BYTE   UNIT     XDATA          ?XD?EEPROM_READ?EEPROM
011B57H   011B60H   00000AH   BYTE   UNIT     XDATA          ?XD?IPS114_SHOW_STRING?ZF_DEVICE_IPS114
011B61H   011B6AH   00000AH   BYTE   INSEG    XDATA          ?XD?ZF_DEVICE_IPS200
011B6BH   011B74H   00000AH   BYTE   UNIT     XDATA          ?XD?IPS200_SHOW_STRING?ZF_DEVICE_IPS200
011B75H   011B7EH   00000AH   BYTE   UNIT     XDATA          ?XD?TFT180_SHOW_STRING?ZF_DEVICE_TFT180
011B7FH   011B88H   00000AH   BYTE   UNIT     XDATA          ?XD?SEEKFREE_ASSISTANT_CAMERA_INFORMATION_CONFIG?SEEKFREE_
                                                             -ASSISTANT
011B89H   011B91H   000009H   BYTE   UNIT     XDATA          ?XD?FUNC_STR_TO_INT?ZF_COMMON_FUNCTION
011B92H   011B9AH   000009H   BYTE   UNIT     XDATA          ?XD?DL1A_TIMEOUT_MICROSECONDS_TO_MCLKS?ZF_DEVICE_DL1A
011B9BH   011BA3H   000009H   BYTE   UNIT     XDATA          ?XD?DL1A_SET_SIGNAL_RATE_LIMIT?ZF_DEVICE_DL1A
011BA4H   011BACH   000009H   BYTE   UNIT     XDATA          ?XD?ICM20602_SIMSPI_R_REG_BYTES?ZF_DEVICE_ICM20602
011BADH   011BB5H   000009H   BYTE   UNIT     XDATA          ?XD?ICM20602_READ_REGISTERS?ZF_DEVICE_ICM20602
011BB6H   011BBEH   000009H   BYTE   UNIT     XDATA          ?XD?IMU660RA_SIMSPI_W_REG_BYTES?ZF_DEVICE_IMU660RA
011BBFH   011BC7H   000009H   BYTE   UNIT     XDATA          ?XD?IMU660RA_SIMSPI_R_REG_BYTES?ZF_DEVICE_IMU660RA
011BC8H   011BD0H   000009H   BYTE   UNIT     XDATA          ?XD?IMU660RA_WRITE_REGISTERS?ZF_DEVICE_IMU660RA
011BD1H   011BD9H   000009H   BYTE   UNIT     XDATA          ?XD?IMU660RB_SIMSPI_R_REG_BYTES?ZF_DEVICE_IMU660RB
011BDAH   011BE2H   000009H   BYTE   UNIT     XDATA          ?XD?IMU660RB_READ_REGISTERS?ZF_DEVICE_IMU660RB
011BE3H   011BEBH   000009H   BYTE   UNIT     XDATA          ?XD?IMU963RA_READ_ACC_GYRO_REGISTERS?ZF_DEVICE_IMU963RA
011BECH   011BF4H   000009H   BYTE   UNIT     XDATA          ?XD?IPS114_SHOW_INT8?ZF_DEVICE_IPS114
011BF5H   011BFDH   000009H   BYTE   UNIT     XDATA          ?XD?IPS114_SHOW_UINT8?ZF_DEVICE_IPS114
011BFEH   011C06H   000009H   BYTE   UNIT     XDATA          ?XD?IPS200_SHOW_INT8?ZF_DEVICE_IPS200
011C07H   011C0FH   000009H   BYTE   UNIT     XDATA          ?XD?IPS200_SHOW_UINT8?ZF_DEVICE_IPS200
011C10H   011C18H   000009H   BYTE   UNIT     XDATA          ?XD?IPS200PRO_LABEL_CREATE?ZF_DEVICE_IPS200PRO
011C19H   011C21H   000009H   BYTE   UNIT     XDATA          ?XD?IPS200PRO_TABLE_CREATE?ZF_DEVICE_IPS200PRO
011C22H   011C2AH   000009H   BYTE   UNIT     XDATA          ?XD?IPS200PRO_METER_CREATE?ZF_DEVICE_IPS200PRO
011C2BH   011C33H   000009H   BYTE   UNIT     XDATA          ?XD?IPS200PRO_CLOCK_CREATE?ZF_DEVICE_IPS200PRO
011C34H   011C3CH   000009H   BYTE   UNIT     XDATA          ?XD?IPS200PRO_PROGRESS_BAR_CREATE?ZF_DEVICE_IPS200PRO
011C3DH   011C45H   000009H   BYTE   UNIT     XDATA          ?XD?IPS200PRO_CALENDAR_CREATE?ZF_DEVICE_IPS200PRO
011C46H   011C4EH   000009H   BYTE   UNIT     XDATA          ?XD?IPS200PRO_WAVEFORM_CREATE?ZF_DEVICE_IPS200PRO
011C4FH   011C57H   000009H   BYTE   UNIT     XDATA          ?XD?IPS200PRO_IMAGE_CREATE?ZF_DEVICE_IPS200PRO
011C58H   011C60H   000009H   BYTE   UNIT     XDATA          ?XD?IPS200PRO_CONTAINER_CREATE?ZF_DEVICE_IPS200PRO
011C61H   011C69H   000009H   BYTE   UNIT     XDATA          ?XD?IPS200PRO_INIT?ZF_DEVICE_IPS200PRO
011C6AH   011C72H   000009H   BYTE   UNIT     XDATA          ?XD?TFT180_SHOW_INT8?ZF_DEVICE_TFT180
011C73H   011C7BH   000009H   BYTE   UNIT     XDATA          ?XD?TFT180_SHOW_UINT8?ZF_DEVICE_TFT180
011C7CH   011C84H   000009H   BYTE   UNIT     XDATA          ?XD?SEEKFREE_ASSISTANT_SUM?SEEKFREE_ASSISTANT
011C85H   011C8CH   000008H   BYTE   UNIT     XDATA          ?XD?DEBUG_SEND_BUFFER?ZF_COMMON_DEBUG
011C8DH   011C94H   000008H   BYTE   UNIT     XDATA          ?XD?DEBUG_READ_BUFFER?ZF_COMMON_DEBUG
011C95H   011C9CH   000008H   BYTE   UNIT     XDATA          ?XD?FIFO_HEAD_OFFSET?ZF_COMMON_FIFO
011C9DH   011CA4H   000008H   BYTE   UNIT     XDATA          ?XD?FIFO_END_OFFSET?ZF_COMMON_FIFO
011CA5H   011CACH   000008H   BYTE   UNIT     XDATA          ?XD?FUNC_GET_GREATEST_COMMON_DIVISOR?ZF_COMMON_FUNCTION
L251 LINKER/LOCATER V4.66.93.0                                                        05/06/2026  19:47:11  PAGE 8


011CADH   011CB4H   000008H   BYTE   UNIT     XDATA          ?XD?FUNC_STR_TO_UINT?ZF_COMMON_FUNCTION
011CB5H   011CBCH   000008H   BYTE   UNIT     XDATA          ?XD?SOFT_IIC_DELAY?ZF_DRIVER_SOFT_IIC
011CBDH   011CC4H   000008H   BYTE   UNIT     XDATA          ?XD?SOFT_IIC_WRITE_16BIT_REGISTER?ZF_DRIVER_SOFT_IIC
011CC5H   011CCCH   000008H   BYTE   UNIT     XDATA          ?XD?SOFT_IIC_READ_16BIT_REGISTER?ZF_DRIVER_SOFT_IIC
011CCDH   011CD4H   000008H   BYTE   UNIT     XDATA          ?XD?SOFT_SPI_DELAY?ZF_DRIVER_SOFT_SPI
011CD5H   011CDCH   000008H   BYTE   UNIT     XDATA          ?XD?SOFT_SPI_8BIT_DATA_HANDLER?ZF_DRIVER_SOFT_SPI
011CDDH   011CE4H   000008H   BYTE   UNIT     XDATA          ?XD?SOFT_SPI_WRITE_16BIT_REGISTER?ZF_DRIVER_SOFT_SPI
011CE5H   011CECH   000008H   BYTE   UNIT     XDATA          ?XD?SOFT_SPI_READ_16BIT_REGISTER?ZF_DRIVER_SOFT_SPI
011CEDH   011CF4H   000008H   BYTE   UNIT     XDATA          ?XD?UART_WRITE_STRING?ZF_DRIVER_UART
011CF5H   011CFCH   000008H   BYTE   UNIT     XDATA          ?XD?EEPROM_WRITE_VALUE?EEPROM
011CFDH   011D04H   000008H   BYTE   UNIT     XDATA          ?XD?BLE6A20_SEND_STRING?ZF_DEVICE_BLE6A20
011D05H   011D0CH   000008H   BYTE   INSEG    XDATA          ?XD?ZF_DEVICE_IPS114
011D0DH   011D14H   000008H   BYTE   UNIT     XDATA          ?XD?IPS114_SET_REGION?ZF_DEVICE_IPS114
011D15H   011D1CH   000008H   BYTE   UNIT     XDATA          ?XD?IPS114_SHOW_CHAR?ZF_DEVICE_IPS114
011D1DH   011D24H   000008H   BYTE   UNIT     XDATA          ?XD?IPS200_SET_REGION?ZF_DEVICE_IPS200
011D25H   011D2CH   000008H   BYTE   UNIT     XDATA          ?XD?IPS200_SHOW_CHAR?ZF_DEVICE_IPS200
011D2DH   011D34H   000008H   BYTE   UNIT     XDATA          ?XD?IPS200PRO_READ_PARAMETER?ZF_DEVICE_IPS200PRO
011D35H   011D3CH   000008H   BYTE   INSEG    XDATA          ?XD?ZF_DEVICE_TFT180
011D3DH   011D44H   000008H   BYTE   UNIT     XDATA          ?XD?TFT180_SET_REGION?ZF_DEVICE_TFT180
011D45H   011D4CH   000008H   BYTE   UNIT     XDATA          ?XD?TFT180_SHOW_CHAR?ZF_DEVICE_TFT180
011D4DH   011D54H   000008H   BYTE   INSEG    XDATA          ?XD?ZF_DEVICE_TYPE
011D55H   011D5CH   000008H   BYTE   UNIT     XDATA          ?XD?SET_WIRELESS_TYPE?ZF_DEVICE_TYPE
011D5DH   011D64H   000008H   BYTE   UNIT     XDATA          ?XD?SET_GPS_TYPE?ZF_DEVICE_TYPE
011D65H   011D6CH   000008H   BYTE   UNIT     XDATA          ?XD?WIRELESS_UART_SEND_STRING?ZF_DEVICE_WIRELESS_UART
011D6DH   011D74H   000008H   BYTE   UNIT     XDATA          ?XD?KALMANFILTER?IMU
011D75H   011D7CH   000008H   BYTE   UNIT     XDATA          ?XD?ADC_NORMALIZE_0_100?INDUCTANCE
011D7DH   011D84H   000008H   BYTE   INSEG    XDATA          ?XD?ELEMENT
011D85H   011D8BH   000007H   BYTE   UNIT     XDATA          ?XD?GPIO_INIT?ZF_DRIVER_GPIO
011D8CH   011D92H   000007H   BYTE   UNIT     XDATA          ?XD?SOFT_IIC_READ_DATA?ZF_DRIVER_SOFT_IIC
011D93H   011D99H   000007H   BYTE   UNIT     XDATA          ?XD?UART_QUERY_BYTE?ZF_DRIVER_UART
011D9AH   011DA0H   000007H   BYTE   UNIT     XDATA          ?XD?DL1A_TIMEOUT_MCLKS_TO_MICROSECONDS?ZF_DEVICE_DL1A
011DA1H   011DA7H   000007H   BYTE   UNIT     XDATA          ?XD?IMU963RA_GET_MAG?ZF_DEVICE_IMU963RA
011DA8H   011DAEH   000007H   BYTE   UNIT     XDATA          ?XD?SEEKFREE_ASSISTANT_CAMERA_DOT_SEND?SEEKFREE_ASSISTANT
011DAFH   011DB4H   000006H   BYTE   UNIT     XDATA          ?XD?FIFO_CLEAR?ZF_COMMON_FIFO
011DB5H   011DBAH   000006H   BYTE   INSEG    XDATA          ?XD?ZF_DRIVER_ENCODER
011DBBH   011DC0H   000006H   BYTE   UNIT     XDATA          ?XD?ENCODER_DIR_INIT?ZF_DRIVER_ENCODER
011DC1H   011DC6H   000006H   BYTE   UNIT     XDATA          ?XD?GPIO_SET_LEVEL_SPEED?ZF_DRIVER_GPIO
011DC7H   011DCCH   000006H   BYTE   UNIT     XDATA          ?XD?SOFT_IIC_SEND_DATA?ZF_DRIVER_SOFT_IIC
011DCDH   011DD2H   000006H   BYTE   UNIT     XDATA          ?XD?SOFT_IIC_WRITE_16BIT?ZF_DRIVER_SOFT_IIC
011DD3H   011DD8H   000006H   BYTE   UNIT     XDATA          ?XD?SOFT_IIC_WRITE_8BIT_REGISTER?ZF_DRIVER_SOFT_IIC
011DD9H   011DDEH   000006H   BYTE   UNIT     XDATA          ?XD?SOFT_IIC_READ_16BIT?ZF_DRIVER_SOFT_IIC
011DDFH   011DE4H   000006H   BYTE   UNIT     XDATA          ?XD?SOFT_IIC_READ_8BIT_REGISTER?ZF_DRIVER_SOFT_IIC
011DE5H   011DEAH   000006H   BYTE   UNIT     XDATA          ?XD?SOFT_IIC_SCCB_WRITE_REGISTER?ZF_DRIVER_SOFT_IIC
011DEBH   011DF0H   000006H   BYTE   UNIT     XDATA          ?XD?SOFT_IIC_SCCB_READ_REGISTER?ZF_DRIVER_SOFT_IIC
011DF1H   011DF6H   000006H   BYTE   UNIT     XDATA          ?XD?SOFT_SPI_WRITE_16BIT?ZF_DRIVER_SOFT_SPI
011DF7H   011DFCH   000006H   BYTE   UNIT     XDATA          ?XD?SOFT_SPI_WRITE_8BIT_REGISTER?ZF_DRIVER_SOFT_SPI
011DFDH   011E02H   000006H   BYTE   UNIT     XDATA          ?XD?SOFT_SPI_READ_8BIT_REGISTER?ZF_DRIVER_SOFT_SPI
011E03H   011E08H   000006H   BYTE   UNIT     XDATA          ?XD?SPI_WRITE_16BIT_REGISTER?ZF_DRIVER_SPI
011E09H   011E0EH   000006H   BYTE   UNIT     XDATA          ?XD?SPI_READ_16BIT_REGISTER?ZF_DRIVER_SPI
011E0FH   011E14H   000006H   BYTE   UNIT     XDATA          ?XD?ICM20602_GET_ACC?ZF_DEVICE_ICM20602
011E15H   011E1AH   000006H   BYTE   UNIT     XDATA          ?XD?ICM20602_GET_GYRO?ZF_DEVICE_ICM20602
011E1BH   011E20H   000006H   BYTE   UNIT     XDATA          ?XD?IMU660RA_GET_ACC?ZF_DEVICE_IMU660RA
011E21H   011E26H   000006H   BYTE   UNIT     XDATA          ?XD?IMU660RA_GET_GYRO?ZF_DEVICE_IMU660RA
011E27H   011E2CH   000006H   BYTE   UNIT     XDATA          ?XD?IMU660RB_GET_ACC?ZF_DEVICE_IMU660RB
011E2DH   011E32H   000006H   BYTE   UNIT     XDATA          ?XD?IMU660RB_GET_GYRO?ZF_DEVICE_IMU660RB
011E33H   011E38H   000006H   BYTE   UNIT     XDATA          ?XD?IMU660RB_ACC_TRANSITION?ZF_DEVICE_IMU660RB
011E39H   011E3EH   000006H   BYTE   UNIT     XDATA          ?XD?IMU660RB_GYRO_TRANSITION?ZF_DEVICE_IMU660RB
011E3FH   011E44H   000006H   BYTE   UNIT     XDATA          ?XD?IMU963RA_WRITE_MAG_REGISTER?ZF_DEVICE_IMU963RA
011E45H   011E4AH   000006H   BYTE   UNIT     XDATA          ?XD?IMU963RA_GET_ACC?ZF_DEVICE_IMU963RA
011E4BH   011E50H   000006H   BYTE   UNIT     XDATA          ?XD?IMU963RA_GET_GYRO?ZF_DEVICE_IMU963RA
011E51H   011E56H   000006H   BYTE   UNIT     XDATA          ?XD?IPS114_CLEAR?ZF_DEVICE_IPS114
011E57H   011E5CH   000006H   BYTE   UNIT     XDATA          ?XD?IPS114_DRAW_POINT?ZF_DEVICE_IPS114
011E5DH   011E62H   000006H   BYTE   UNIT     XDATA          ?XD?IPS200_CLEAR?ZF_DEVICE_IPS200
011E63H   011E68H   000006H   BYTE   UNIT     XDATA          ?XD?IPS200_DRAW_POINT?ZF_DEVICE_IPS200
011E69H   011E6EH   000006H   BYTE   UNIT     XDATA          ?XD?TFT180_CLEAR?ZF_DEVICE_TFT180
L251 LINKER/LOCATER V4.66.93.0                                                        05/06/2026  19:47:11  PAGE 9


011E6FH   011E74H   000006H   BYTE   UNIT     XDATA          ?XD?TFT180_DRAW_POINT?ZF_DEVICE_TFT180
011E75H   011E7AH   000006H   BYTE   UNIT     XDATA          ?XD?SET_TOF_TYPE?ZF_DEVICE_TYPE
011E7BH   011E80H   000006H   BYTE   UNIT     XDATA          ?XD?MOTOR_PROTECT?MOTO
011E81H   011E86H   000006H   BYTE   UNIT     XDATA          ?XD?INCPID_CALC?TRANK
011E87H   011E8CH   000006H   BYTE   UNIT     XDATA          ?XD?RANGE_PROTECT_INT?INDUCTANCE
011E8DH   011E91H   000005H   BYTE   UNIT     XDATA          ?XD?IAP_READ_BYTE?ZF_DRIVER_EEPROM
011E92H   011E96H   000005H   BYTE   UNIT     XDATA          ?XD?IAP_WRITE_BYTE?ZF_DRIVER_EEPROM
011E97H   011E9BH   000005H   BYTE   UNIT     XDATA          ?XD?GPIO_GET_LEVEL?ZF_DRIVER_GPIO
011E9CH   011EA0H   000005H   BYTE   UNIT     XDATA          ?XD?GPIO_SET_LEVEL?ZF_DRIVER_GPIO
011EA1H   011EA5H   000005H   BYTE   UNIT     XDATA          ?XD?SOFT_IIC_SEND_ACK?ZF_DRIVER_SOFT_IIC
011EA6H   011EAAH   000005H   BYTE   UNIT     XDATA          ?XD?SOFT_IIC_WAIT_ACK?ZF_DRIVER_SOFT_IIC
011EABH   011EAFH   000005H   BYTE   UNIT     XDATA          ?XD?SOFT_IIC_WRITE_8BIT?ZF_DRIVER_SOFT_IIC
011EB0H   011EB4H   000005H   BYTE   UNIT     XDATA          ?XD?SOFT_IIC_READ_8BIT?ZF_DRIVER_SOFT_IIC
011EB5H   011EB9H   000005H   BYTE   UNIT     XDATA          ?XD?SOFT_SPI_WRITE_8BIT?ZF_DRIVER_SOFT_SPI
011EBAH   011EBEH   000005H   BYTE   UNIT     XDATA          ?XD?SOFT_SPI_READ_8BIT?ZF_DRIVER_SOFT_SPI
011EBFH   011EC3H   000005H   BYTE   UNIT     XDATA          ?XD?SOFT_SPI_READ_16BIT?ZF_DRIVER_SOFT_SPI
011EC4H   011EC8H   000005H   BYTE   UNIT     XDATA          ?XD?TIMER_FUNCITON_CHECK?ZF_DRIVER_TIMER
011EC9H   011ECDH   000005H   BYTE   UNIT     XDATA          ?XD?UART_FUNCITON_CHECK?ZF_DRIVER_UART
011ECEH   011ED2H   000005H   BYTE   UNIT     XDATA          ?XD?DL1A_GET_SEQUENCE_STEP_ENABLES?ZF_DEVICE_DL1A
011ED3H   011ED7H   000005H   BYTE   UNIT     XDATA          ?XD?DL1A_PERFORM_SINGLE_REF_CALIBRATION?ZF_DEVICE_DL1A
011ED8H   011EDCH   000005H   BYTE   UNIT     XDATA          ?XD?DL1B_GET_DISTANCE?ZF_DEVICE_DL1B
011EDDH   011EE1H   000005H   BYTE   UNIT     XDATA          ?XD?UTC_TO_BTC?ZF_DEVICE_GPS_TAU1201
011EE2H   011EE6H   000005H   BYTE   UNIT     XDATA          ?XD?ICM20602_SIMSPI_R_REG_BYTE?ZF_DEVICE_ICM20602
011EE7H   011EEBH   000005H   BYTE   UNIT     XDATA          ?XD?IMU660RB_SIMSPI_R_REG_BYTE?ZF_DEVICE_IMU660RB
011EECH   011EF0H   000005H   BYTE   UNIT     XDATA          ?XD?IPS200PRO_PAGE_CREATE?ZF_DEVICE_IPS200PRO
011EF1H   011EF5H   000005H   BYTE   UNIT     XDATA          ?XD?INDUCTANCE_READ?INDUCTANCE
011EF6H   011EF9H   000004H   BYTE   INSEG    XDATA          ?XD?ZF_COMMON_CLOCK
011EFAH   011EFDH   000004H   BYTE   UNIT     XDATA          ?XD?SET_SYS_CLK?ZF_COMMON_CLOCK
011EFEH   011F01H   000004H   BYTE   UNIT     XDATA          ?XD?CLOCK_INIT?ZF_COMMON_CLOCK
011F02H   011F05H   000004H   BYTE   UNIT     XDATA          ?XD?FIFO_USED?ZF_COMMON_FIFO
011F06H   011F09H   000004H   BYTE   UNIT     XDATA          ?XD?FUNC_SOFT_DELAY?ZF_COMMON_FUNCTION
011F0AH   011F0DH   000004H   BYTE   UNIT     XDATA          ?XD?ADC_CONVERT?ZF_DRIVER_ADC
011F0EH   011F11H   000004H   BYTE   UNIT     XDATA          ?XD?ADC_INIT?ZF_DRIVER_ADC
011F12H   011F15H   000004H   BYTE   INSEG    XDATA          ?XD?ZF_DRIVER_DELAY
011F16H   011F19H   000004H   BYTE   UNIT     XDATA          ?XD?IAP_ERASE_PAGE?ZF_DRIVER_EEPROM
011F1AH   011F1DH   000004H   BYTE   UNIT     XDATA          ?XD?ENCODER_GET_COUNT?ZF_DRIVER_ENCODER
011F1EH   011F21H   000004H   BYTE   UNIT     XDATA          ?XD?EXTI_INIT?ZF_DRIVER_EXTI
011F22H   011F25H   000004H   BYTE   UNIT     XDATA          ?XD?GPIO_SET_MODE?ZF_DRIVER_GPIO
011F26H   011F29H   000004H   BYTE   UNIT     XDATA          ?XD?GPIO_SET_DIR?ZF_DRIVER_GPIO
011F2AH   011F2DH   000004H   BYTE   UNIT     XDATA          ?XD?GPIO_SET_IMPEDANCE?ZF_DRIVER_GPIO
011F2EH   011F31H   000004H   BYTE   UNIT     XDATA          ?XD?SOFT_IIC_START?ZF_DRIVER_SOFT_IIC
011F32H   011F35H   000004H   BYTE   UNIT     XDATA          ?XD?SOFT_IIC_STOP?ZF_DRIVER_SOFT_IIC
011F36H   011F39H   000004H   BYTE   UNIT     XDATA          ?XD?SPI_READ_DAT?ZF_DRIVER_SPI
011F3AH   011F3DH   000004H   BYTE   UNIT     XDATA          ?XD?SPI_WRITE_16BIT?ZF_DRIVER_SPI
011F3EH   011F41H   000004H   BYTE   UNIT     XDATA          ?XD?SPI_WRITE_8BIT_REGISTER?ZF_DRIVER_SPI
011F42H   011F45H   000004H   BYTE   UNIT     XDATA          ?XD?SPI_READ_16BIT?ZF_DRIVER_SPI
011F46H   011F49H   000004H   BYTE   UNIT     XDATA          ?XD?VOLTAGE_WARNING_INIT?VOLTAGE_WARNING
011F4AH   011F4DH   000004H   BYTE   UNIT     XDATA          ?XD?ICM20602_SELF_CHECK?ZF_DEVICE_ICM20602
011F4EH   011F51H   000004H   BYTE   UNIT     XDATA          ?XD?ICM20602_INIT?ZF_DEVICE_ICM20602
011F52H   011F55H   000004H   BYTE   UNIT     XDATA          ?XD?IMU660RA_SELF_CHECK?ZF_DEVICE_IMU660RA
011F56H   011F59H   000004H   BYTE   UNIT     XDATA          ?XD?IMU660RB_SELF_CHECK?ZF_DEVICE_IMU660RB
011F5AH   011F5DH   000004H   BYTE   UNIT     XDATA          ?XD?IMU963RA_READ_MAG_REGISTER?ZF_DEVICE_IMU963RA
011F5EH   011F61H   000004H   BYTE   UNIT     XDATA          ?XD?IMU963RA_ACC_GYRO_SELF_CHECK?ZF_DEVICE_IMU963RA
011F62H   011F65H   000004H   BYTE   UNIT     XDATA          ?XD?IMU963RA_MAG_SELF_CHECK?ZF_DEVICE_IMU963RA
011F66H   011F69H   000004H   BYTE   UNIT     XDATA          ?XD?IPS114_SET_COLOR?ZF_DEVICE_IPS114
011F6AH   011F6DH   000004H   BYTE   UNIT     XDATA          ?XD?IPS200_SET_COLOR?ZF_DEVICE_IPS200
011F6EH   011F71H   000004H   BYTE   UNIT     XDATA          ?XD?IPS200PRO_WAIT_IDLE?ZF_DEVICE_IPS200PRO
011F72H   011F75H   000004H   BYTE   UNIT     XDATA          ?XD?IPS200PRO_PAGE_HIDDEN?ZF_DEVICE_IPS200PRO
011F76H   011F79H   000004H   BYTE   UNIT     XDATA          ?XD?TFT180_SET_COLOR?ZF_DEVICE_TFT180
011F7AH   011F7DH   000004H   BYTE   UNIT     XDATA          ?XD?TSL1401_SEND_DATA?ZF_DEVICE_TSL1401
011F7EH   011F81H   000004H   BYTE   UNIT     XDATA          ?XD?FIRST_COMPLEMENT_INIT?IMU
011F82H   011F85H   000004H   BYTE   UNIT     XDATA          ?XD?MY_ABS?IMU
011F86H   011F89H   000004H   BYTE   INSEG    XDATA          ?XD?SEEKFREE_ASSISTANT_INTERFACE
011F8AH   011F8DH   000004H   BYTE   UNIT     XDATA          ?XD?MOTOR_SETSPEED?MOTO
011F8EH   011F91H   000004H   BYTE   UNIT     XDATA          ?XD?CALCULATE_DIFFERENTIAL_DRIVE?TRANK
L251 LINKER/LOCATER V4.66.93.0                                                        05/06/2026  19:47:11  PAGE 10


011F92H   011F95H   000004H   BYTE   UNIT     XDATA          ?XD?MENU_DISPLAY?MENU
011F96H   011F99H   000004H   BYTE   UNIT     XDATA          ?XD?ELEMENT_CONTROL?ELEMENT
011F9AH   011F9CH   000003H   BYTE   UNIT     XDATA          ?XD?INTERRUPT_SET_PRIORITY?ZF_COMMON_INTERRUPT
011F9DH   011F9FH   000003H   BYTE   UNIT     XDATA          ?XD?SPI_WRITE_DAT?ZF_DRIVER_SPI
011FA0H   011FA2H   000003H   BYTE   UNIT     XDATA          ?XD?SPI_WRITE_8BIT?ZF_DRIVER_SPI
011FA3H   011FA5H   000003H   BYTE   UNIT     XDATA          ?XD?SPI_READ_8BIT_REGISTER?ZF_DRIVER_SPI
011FA6H   011FA8H   000003H   BYTE   UNIT     XDATA          ?XD?UART_WRITE_BYTE?ZF_DRIVER_UART
011FA9H   011FABH   000003H   BYTE   UNIT     XDATA          ?XD?UART_RX_INTERRUPT?ZF_DRIVER_UART
011FACH   011FAEH   000003H   BYTE   UNIT     XDATA          ?XD?UART_READ_BYTE?ZF_DRIVER_UART
011FAFH   011FB1H   000003H   BYTE   UNIT     XDATA          ?XD?BLE6A20_SEND_BYTE?ZF_DEVICE_BLE6A20
011FB2H   011FB4H   000003H   BYTE   UNIT     XDATA          ?XD?DL1A_GET_VCSEL_PULSE_PERIOD?ZF_DEVICE_DL1A
011FB5H   011FB7H   000003H   BYTE   UNIT     XDATA          ?XD?DL1A_GET_DISTANCE?ZF_DEVICE_DL1A
011FB8H   011FBAH   000003H   BYTE   UNIT     XDATA          ?XD?IMU660RA_READ_REGISTER?ZF_DEVICE_IMU660RA
011FBBH   011FBDH   000003H   BYTE   UNIT     XDATA          ?XD?WIRELESS_UART_SEND_BYTE?ZF_DEVICE_WIRELESS_UART
011FBEH   011FBFH   000002H   BYTE   UNIT     XDATA          ?XD?DELAY_CYCLES?ZF_DRIVER_DELAY
011FC0H   011FC1H   000002H   BYTE   UNIT     XDATA          ?XD?SYSTEM_DELAY_MS?ZF_DRIVER_DELAY
011FC2H   011FC3H   000002H   BYTE   UNIT     XDATA          ?XD?SYSTEM_DELAY_US?ZF_DRIVER_DELAY
011FC4H   011FC5H   000002H   BYTE   UNIT     XDATA          ?XD?ENCODER_CLEAR_COUNT?ZF_DRIVER_ENCODER
011FC6H   011FC7H   000002H   BYTE   UNIT     XDATA          ?XD?EXTI_ENABLE?ZF_DRIVER_EXTI
011FC8H   011FC9H   000002H   BYTE   UNIT     XDATA          ?XD?EXTI_DISABLE?ZF_DRIVER_EXTI
011FCAH   011FCBH   000002H   BYTE   UNIT     XDATA          ?XD?GPIO_TOGGLE_LEVEL?ZF_DRIVER_GPIO
011FCCH   011FCDH   000002H   BYTE   UNIT     XDATA          ?XD?SPI_READ_8BIT?ZF_DRIVER_SPI
011FCEH   011FCFH   000002H   BYTE   UNIT     XDATA          ?XD?UART_RX_START_BUFF?ZF_DRIVER_UART
011FD0H   011FD1H   000002H   BYTE   UNIT     XDATA          ?XD?UART_DMA_INIT?ZF_DRIVER_UART
011FD2H   011FD3H   000002H   BYTE   INSEG    XDATA          ?XD?EEPROM
011FD4H   011FD5H   000002H   BYTE   UNIT     XDATA          ?XD?DL1A_DECODE_TIMEOUT?ZF_DEVICE_DL1A
011FD6H   011FD7H   000002H   BYTE   UNIT     XDATA          ?XD?DL1A_ENCODE_TIMEOUT?ZF_DEVICE_DL1A
011FD8H   011FD9H   000002H   BYTE   UNIT     XDATA          ?XD?ICM20602_SIMSPI_WR_BYTE?ZF_DEVICE_ICM20602
011FDAH   011FDBH   000002H   BYTE   UNIT     XDATA          ?XD?ICM20602_SIMSPI_W_REG_BYTE?ZF_DEVICE_ICM20602
011FDCH   011FDDH   000002H   BYTE   UNIT     XDATA          ?XD?ICM20602_WRITE_REGISTER?ZF_DEVICE_ICM20602
011FDEH   011FDFH   000002H   BYTE   UNIT     XDATA          ?XD?ICM20602_READ_REGISTER?ZF_DEVICE_ICM20602
011FE0H   011FE1H   000002H   BYTE   UNIT     XDATA          ?XD?IMU660RA_SIMSPI_WR_BYTE?ZF_DEVICE_IMU660RA
011FE2H   011FE3H   000002H   BYTE   UNIT     XDATA          ?XD?IMU660RA_SIMSPI_W_REG_BYTE?ZF_DEVICE_IMU660RA
011FE4H   011FE5H   000002H   BYTE   UNIT     XDATA          ?XD?IMU660RA_WRITE_REGISTER?ZF_DEVICE_IMU660RA
011FE6H   011FE7H   000002H   BYTE   UNIT     XDATA          ?XD?IMU660RB_SIMSPI_WR_BYTE?ZF_DEVICE_IMU660RB
011FE8H   011FE9H   000002H   BYTE   UNIT     XDATA          ?XD?IMU660RB_SIMSPI_W_REG_BYTE?ZF_DEVICE_IMU660RB
011FEAH   011FEBH   000002H   BYTE   UNIT     XDATA          ?XD?IMU660RB_WRITE_REGISTER?ZF_DEVICE_IMU660RB
011FECH   011FEDH   000002H   BYTE   UNIT     XDATA          ?XD?IMU660RB_READ_REGISTER?ZF_DEVICE_IMU660RB
011FEEH   011FEFH   000002H   BYTE   UNIT     XDATA          ?XD?IMU963RA_WRITE_ACC_GYRO_REGISTER?ZF_DEVICE_IMU963RA
011FF0H   011FF1H   000002H   BYTE   UNIT     XDATA          ?XD?IMU963RA_READ_ACC_GYRO_REGISTER?ZF_DEVICE_IMU963RA
011FF2H   011FF3H   000002H   BYTE   UNIT     XDATA          ?XD?IMU963RA_CONNECT_MAG?ZF_DEVICE_IMU963RA
011FF4H   011FF5H   000002H   BYTE   UNIT     XDATA          ?XD?IPS114_SET_DIR?ZF_DEVICE_IPS114
011FF6H   011FF7H   000002H   BYTE   UNIT     XDATA          ?XD?IPS200_SET_DIR?ZF_DEVICE_IPS200
011FF8H   011FF9H   000002H   BYTE   UNIT     XDATA          ?XD?TFT180_SET_DIR?ZF_DEVICE_TFT180
011FFAH   011FFBH   000002H   BYTE   UNIT     XDATA          ?XD?IMU_GYRO_OFFSET_INIT?IMU
011FFCH   011FFDH   000002H   BYTE   UNIT     XDATA          ?XD?SEEKFREE_ASSISTANT_INTERFACE_INIT?SEEKFREE_ASSISTANT_I
                                                             -NTERFACE
011FFEH   011FFFH   000002H   BYTE   UNIT     XDATA          ?XD?ABS?MOTO
012000H   012001H   000002H   BYTE   UNIT     XDATA          ?XD?LED_ON?LED
012002H   012003H   000002H   BYTE   UNIT     XDATA          ?XD?LED_OFF?LED
012004H   012005H   000002H   BYTE   UNIT     XDATA          ?XD?LED_SWITCH?LED
012006H   012006H   000001H   BYTE   UNIT     XDATA          ?XD?DEBUG_INTERRUPR_HANDLER?ZF_COMMON_DEBUG
012007H   012007H   000001H   BYTE   UNIT     XDATA          ?XD?PUTCHAR?ZF_COMMON_DEBUG
012008H   012008H   000001H   BYTE   UNIT     XDATA          ?XD?DEBUG_INIT?ZF_COMMON_DEBUG
012009H   012009H   000001H   BYTE   UNIT     XDATA          ?XD?IAP_SET_TPS?ZF_DRIVER_EEPROM
01200AH   01200AH   000001H   BYTE   UNIT     XDATA          ?XD?BLE6A20_CALLBACK?ZF_DEVICE_BLE6A20
01200BH   01200BH   000001H   BYTE   UNIT     XDATA          ?XD?BLE6A20_INIT?ZF_DEVICE_BLE6A20
01200CH   01200CH   000001H   BYTE   UNIT     XDATA          ?XD?DL1B_INIT?ZF_DEVICE_DL1B
01200DH   01200DH   000001H   BYTE   UNIT     XDATA          ?XD?IMU660RA_INIT?ZF_DEVICE_IMU660RA
01200EH   01200EH   000001H   BYTE   UNIT     XDATA          ?XD?IMU660RB_INIT?ZF_DEVICE_IMU660RB
01200FH   01200FH   000001H   BYTE   UNIT     XDATA          ?XD?IMU963RA_INIT?ZF_DEVICE_IMU963RA
012010H   012010H   000001H   BYTE   UNIT     XDATA          ?XD?IPS114_WRITE_INDEX?ZF_DEVICE_IPS114
012011H   012011H   000001H   BYTE   UNIT     XDATA          ?XD?IPS200_WRITE_INDEX?ZF_DEVICE_IPS200
012012H   012012H   000001H   BYTE   UNIT     XDATA          ?XD?TFT180_WRITE_INDEX?ZF_DEVICE_TFT180
012013H   012013H   000001H   BYTE   UNIT     XDATA          ?XD?TSL1401_COLLECT_PIT_HANDLER?ZF_DEVICE_TSL1401
L251 LINKER/LOCATER V4.66.93.0                                                        05/06/2026  19:47:11  PAGE 11


012014H   012014H   000001H   BYTE   UNIT     XDATA          ?XD?WIRELESS_UART_CALLBACK?ZF_DEVICE_WIRELESS_UART
012015H   012015H   000001H   BYTE   UNIT     XDATA          ?XD?WIRELESS_UART_INIT?ZF_DEVICE_WIRELESS_UART
012016H   012016H   000001H   BYTE   INSEG    XDATA          ?XD?ISR
012017H   FEFFFFH   FDDFE9H   ---    ---      **GAP**
FF0000H   FF0002H   000003H   ---    OFFS..   CODE           ?CO?START251?4
FF0003H   FF0005H   000003H   ---    OFFS..   CODE           ?PR?IV?0
FF0006H   FF0009H   000004H   BYTE   INSEG    CODE           ?PR?INTERRUPT_GLOBAL_DISABLE?ZF_COMMON_INTERRUPT
FF000AH   FF000AH   000001H   ---    ---      **GAP**
FF000BH   FF000DH   000003H   ---    OFFS..   CODE           ?PR?IV?1
FF000EH   FF0011H   000004H   BYTE   INSEG    CODE           ?PR?INTERRUPT_GLOBAL_ENABLE?ZF_COMMON_INTERRUPT
FF0012H   FF0012H   000001H   ---    ---      **GAP**
FF0013H   FF0015H   000003H   ---    OFFS..   CODE           ?PR?IV?2
FF0016H   FF0019H   000004H   BYTE   INSEG    CODE           ?PR?PIT_HANDLER4?ENCODER
FF001AH   FF001AH   000001H   ---    ---      **GAP**
FF001BH   FF001DH   000003H   ---    OFFS..   CODE           ?PR?IV?3
FF001EH   FF0021H   000004H   BYTE   UNIT     CONST          ?CO?PRINTF
FF0022H   FF0022H   000001H   ---    ---      **GAP**
FF0023H   FF0025H   000003H   ---    OFFS..   CODE           ?PR?IV?4
FF0026H   FF0042H   00001DH   BYTE   INSEG    CODE           ?PR?IMU660RA_SIMSPI_W_REG_BYTE?ZF_DEVICE_IMU660RA
FF0043H   FF0045H   000003H   ---    OFFS..   CODE           ?PR?IV?8
FF0046H   FF0050H   00000BH   BYTE   INSEG    CODE           ?PR?OSCILLOSCOPE_INIT?MENU
FF0051H   FF0052H   000002H   BYTE   UNIT     HCONST         ?HC?MAIN
FF0053H   FF0055H   000003H   ---    OFFS..   CODE           ?PR?IV?10
FF0056H   FF005AH   000005H   ---    ---      **GAP**
FF005BH   FF005DH   000003H   ---    OFFS..   CODE           ?PR?IV?11
FF005EH   FF0062H   000005H   ---    ---      **GAP**
FF0063H   FF0065H   000003H   ---    OFFS..   CODE           ?PR?IV?12
FF0066H   FF007DH   000018H   BYTE   INSEG    CODE           ?PR?SPI_WRITE_8BIT?ZF_DRIVER_SPI
FF007EH   FF0082H   000005H   ---    ---      **GAP**
FF0083H   FF0085H   000003H   ---    OFFS..   CODE           ?PR?IV?16
FF0086H   FF008AH   000005H   ---    ---      **GAP**
FF008BH   FF008DH   000003H   ---    OFFS..   CODE           ?PR?IV?17
FF008EH   FF0092H   000005H   ---    ---      **GAP**
FF0093H   FF0095H   000003H   ---    OFFS..   CODE           ?PR?IV?18
FF0096H   FF009AH   000005H   ---    ---      **GAP**
FF009BH   FF009DH   000003H   ---    OFFS..   CODE           ?PR?IV?19
FF009EH   FF00A2H   000005H   ---    ---      **GAP**
FF00A3H   FF00A5H   000003H   ---    OFFS..   CODE           ?PR?IV?20
FF00A6H   FF0199H   0000F4H   BYTE   INSEG    CODE           ?PR?SOFT_IIC_SEND_DATA?ZF_DRIVER_SOFT_IIC
FF019AH   FF019AH   000001H   ---    ---      **GAP**
FF019BH   FF019DH   000003H   ---    OFFS..   CODE           ?CO?stc32g_isr?1
FF019EH   FF01A7H   00000AH   BYTE   INSEG    CODE           ?PR?GYRO_PROC?IMU
FF01A8H   FF01AAH   000003H   ---    ---      **GAP**
FF01ABH   FF01ADH   000003H   ---    OFFS..   CODE           ?CO?stc32g_isr?2
FF01AEH   FF01BAH   00000DH   ---    ---      **GAP**
FF01BBH   FF01BDH   000003H   ---    OFFS..   CODE           ?CO?stc32g_isr?3
FF01BEH   FF01CAH   00000DH   ---    ---      **GAP**
FF01CBH   FF01CDH   000003H   ---    OFFS..   CODE           ?CO?stc32g_isr?4
FF01CEH   FF21CDH   002000H   BYTE   UNIT     CODE           ?CO?ZF_DEVICE_CONFIG
FF21CEH   FF3070H   000EA3H   BYTE   UNIT     CODE           ?C?LIB_CODE
FF3071H   FF36B3H   000643H   BYTE   INSEG    CODE           ?PR?PWM_INIT?ZF_DRIVER_PWM
FF36B4H   FF3CA3H   0005F0H   BYTE   UNIT     CODE           ?CO?ZF_COMMON_FONT
FF3CA4H   FF424BH   0005A8H   BYTE   INSEG    CODE           ?PR?FIFO_WRITE_BUFFER?ZF_COMMON_FIFO
FF424CH   FF47CFH   000584H   BYTE   INSEG    CODE           ?PR?GPIO_SET_DIR?ZF_DRIVER_GPIO
FF47D0H   FF4BA7H   0003D8H   BYTE   INSEG    CODE           ?PR?FIRST_COMPLEMENT_INIT?IMU
FF4BA8H   FF4E98H   0002F1H   BYTE   INSEG    CODE           ?PR?UART_INIT?ZF_DRIVER_UART
FF4E99H   FF5180H   0002E8H   BYTE   INSEG    CODE           ?PR?GPIO_SET_MODE?ZF_DRIVER_GPIO
FF5181H   FF542CH   0002ACH   BYTE   INSEG    CODE           ?PR?ELEMENT_CONTROL?ELEMENT
FF542DH   FF56AFH   000283H   BYTE   INSEG    CODE           ?PR?PIT_INIT?ZF_DRIVER_PIT
FF56B0H   FF58ECH   00023DH   BYTE   INSEG    CODE           ?PR?PID_CALC?TRANK
FF58EDH   FF5B14H   000228H   BYTE   INSEG    CODE           ?PR?KALMANFILTER?IMU
FF5B15H   FF5D3AH   000226H   BYTE   INSEG    CODE           ?PR?INCPID_CALC?TRANK
FF5D3BH   FF5F4FH   000215H   BYTE   INSEG    CODE           ?PR?GPIO_SET_LEVEL?ZF_DRIVER_GPIO
FF5F50H   FF6160H   000211H   BYTE   INSEG    CODE           ?PR?SET_SYS_CLK?ZF_COMMON_CLOCK
FF6161H   FF6354H   0001F4H   BYTE   INSEG    CODE           ?PR?IMU660RA_INIT?ZF_DEVICE_IMU660RA
L251 LINKER/LOCATER V4.66.93.0                                                        05/06/2026  19:47:11  PAGE 12


FF6355H   FF652AH   0001D6H   BYTE   INSEG    CODE           ?PR?UART_WRITE_BUFFER?ZF_DRIVER_UART
FF652BH   FF66FEH   0001D4H   BYTE   INSEG    CODE           ?PR?PWM_SET_DUTY?ZF_DRIVER_PWM
FF66FFH   FF68CBH   0001CDH   BYTE   INSEG    CODE           ?PR?_M?MAIN
FF68CCH   FF6A93H   0001C8H   BYTE   INSEG    CODE           ?PR?PID_INIT?TRANK
FF6A94H   FF6C45H   0001B2H   BYTE   INSEG    CODE           ?PR?GPIO_SET_IMPEDANCE?ZF_DRIVER_GPIO
FF6C46H   FF6DE8H   0001A3H   BYTE   INSEG    CODE           ?PR?UART_DMA_INIT?ZF_DRIVER_UART
FF6DE9H   FF6F82H   00019AH   BYTE   INSEG    CODE           ?PR?INDUCTANCE_READ?INDUCTANCE
FF6F83H   FF7106H   000184H   BYTE   INSEG    CODE           ?PR?IMU_GETVALUES?IMU
FF7107H   FF7259H   000153H   BYTE   INSEG    CODE           ?PR?CALCULATE_DIFFERENTIAL_DRIVE?TRANK
FF725AH   FF739FH   000146H   BYTE   INSEG    CODE           ?PR?GPIO_GET_LEVEL?ZF_DRIVER_GPIO
FF73A0H   FF74E1H   000142H   BYTE   INSEG    CODE           ?PR?SOFT_IIC_READ_DATA?ZF_DRIVER_SOFT_IIC
FF74E2H   FF7618H   000137H   BYTE   INSEG    CODE           ?PR?MEDIAN_AVERAGE_FILTER?INDUCTANCE
FF7619H   FF774EH   000136H   BYTE   INSEG    CODE           ?PR?INDUCTANCE_COUNT_ERR2?INDUCTANCE
FF774FH   FF786DH   00011FH   BYTE   INSEG    CODE           ?PR?IMU_GYRO_OFFSET_INIT?IMU
FF786EH   FF797DH   000110H   BYTE   INSEG    CODE           ?PR?WIRELESS_UART_SEND_BUFFER?ZF_DEVICE_WIRELESS_UART
FF797EH   FF7A8CH   00010FH   BYTE   INSEG    CODE           ?PR?GPIO_INIT?ZF_DRIVER_GPIO
FF7A8DH   FF7B99H   00010DH   BYTE   INSEG    CODE           ?PR?ENCODER_DIR_INIT?ZF_DRIVER_ENCODER
FF7B9AH   FF7CA2H   000109H   BYTE   INSEG    CODE           ?PR?ENCODER_GET_COUNT?ZF_DRIVER_ENCODER
FF7CA3H   FF7D90H   0000EEH   BYTE   INSEG    CODE           ?PR?KALMANCREATE?IMU
FF7D91H   FF7E73H   0000E3H   BYTE   INSEG    CODE           ?PR?FIFO_INIT?ZF_COMMON_FIFO
FF7E74H   FF7F56H   0000E3H   BYTE   INSEG    CODE           ?PR?SOFT_IIC_WAIT_ACK?ZF_DRIVER_SOFT_IIC
FF7F57H   FF8031H   0000DBH   BYTE   INSEG    CODE           ?PR?SOFT_IIC_SEND_ACK?ZF_DRIVER_SOFT_IIC
FF8032H   FF80FAH   0000C9H   BYTE   INSEG    CODE           ?PR?DIR_CONTROL?TRANK
FF80FBH   FF81BFH   0000C5H   BYTE   INSEG    CODE           ?PR?ADC_INIT?ZF_DRIVER_ADC
FF81C0H   FF8281H   0000C2H   BYTE   INSEG    CODE           ?PR?UART_RX_START_BUFF?ZF_DRIVER_UART
FF8282H   FF8340H   0000BFH   BYTE   INSEG    CODE           ?PR?SOFT_IIC_STOP?ZF_DRIVER_SOFT_IIC
FF8341H   FF83F1H   0000B1H   BYTE   INSEG    CODE           ?PR?IMU660RA_READ_REGISTERS?ZF_DEVICE_IMU660RA
FF83F2H   FF84A1H   0000B0H   BYTE   INSEG    CODE           ?PR?DMA_UART1_IRQHANDLER?ISR
FF84A2H   FF8548H   0000A7H   BYTE   INSEG    CODE           ?PR?DEBUG_INIT?ZF_COMMON_DEBUG
FF8549H   FF85EFH   0000A7H   BYTE   INSEG    CODE           ?PR?SOFT_IIC_START?ZF_DRIVER_SOFT_IIC
FF85F0H   FF868FH   0000A0H   BYTE   INSEG    CODE           ?PR?FIFO_HEAD_OFFSET?ZF_COMMON_FIFO
FF8690H   FF872EH   00009FH   BYTE   INSEG    CODE           ?PR?UART_QUERY_BYTE?ZF_DRIVER_UART
FF872FH   FF87CDH   00009FH   BYTE   INSEG    CODE           ?PR?SET_WIRELESS_TYPE?ZF_DEVICE_TYPE
FF87CEH   FF885CH   00008FH   BYTE   INSEG    CODE           ?PR?DMA_UART2_IRQHANDLER?ISR
FF885DH   FF88EBH   00008FH   BYTE   INSEG    CODE           ?PR?DMA_UART3_IRQHANDLER?ISR
FF88ECH   FF897AH   00008FH   BYTE   INSEG    CODE           ?PR?DMA_UART4_IRQHANDLER?ISR
FF897BH   FF8A07H   00008DH   BYTE   INSEG    CODE           ?PR?PIT_HANDLER?ENCODER
FF8A08H   FF8A92H   00008BH   BYTE   INSEG    CODE           ?PR?MOTOR_SETSPEED?MOTO
FF8A93H   FF8B1BH   000089H   BYTE   INSEG    CODE           ?PR?ADC_NORMALIZE_0_100?INDUCTANCE
FF8B1CH   FF8BA3H   000088H   BYTE   INSEG    CODE           ?PR?DUAL_LOOP_CONTROL?TRANK
FF8BA4H   FF8C24H   000081H   BYTE   INSEG    CODE           ?PR?CLOCK_INIT?ZF_COMMON_CLOCK
FF8C25H   FF8CA5H   000081H   BYTE   INSEG    CODE           ?PR?TIMER_FUNCITON_CHECK?ZF_DRIVER_TIMER
FF8CA6H   FF8D26H   000081H   BYTE   INSEG    CODE           ?PR?UART_FUNCITON_CHECK?ZF_DRIVER_UART
FF8D27H   FF8DA7H   000081H   BYTE   INSEG    CODE           ?PR?WIRELESS_UART_INIT?ZF_DEVICE_WIRELESS_UART
FF8DA8H   FF8E23H   00007CH   BYTE   INSEG    CODE           ?PR?SEND_DATA_TO_PC?MENU
FF8E24H   FF8E9CH   000079H   BYTE   INSEG    CODE           ?PR?DEBUG_ASSERT_HANDLER?ZF_COMMON_DEBUG
FF8E9DH   FF8F14H   000078H   BYTE   INSEG    CODE           ?PR?SPI_READ_DAT?ZF_DRIVER_SPI
FF8F15H   FF8F8CH   000078H   BYTE   INSEG    CODE           ?PR?IMU_YAW_INTEGRAL?IMU
FF8F8DH   FF8FFCH   000070H   BYTE   INSEG    CODE           ?PR?IMU660RA_SIMSPI_R_REG_BYTES?ZF_DEVICE_IMU660RA
FF8FFDH   FF906BH   00006FH   BYTE   INSEG    CODE           ?PR?ENCODER_INIT?ENCODER
FF906CH   FF90D4H   000069H   BYTE   INSEG    CODE           ?PR?RANGE_PROTECT_FLOAT?INDUCTANCE
FF90D5H   FF913CH   000068H   BYTE   INSEG    CODE           ?PR?ALL_INIT?ALL_INIT
FF913DH   FF91A2H   000066H   BYTE   INSEG    CODE           ?PR?UART_RX_INTERRUPT?ZF_DRIVER_UART
FF91A3H   FF9208H   000066H   BYTE   INSEG    CODE           ?PR?DIR_CONTROL_GYRO?TRANK
FF9209H   FF926DH   000065H   BYTE   INSEG    CODE           ?PR?ADC_CONVERT?ZF_DRIVER_ADC
FF926EH   FF92D2H   000065H   BYTE   INSEG    CODE           ?PR?ENCODER_CLEAR_COUNT?ZF_DRIVER_ENCODER
FF92D3H   FF9337H   000065H   BYTE   INSEG    CODE           ?PR?IMU660RA_SELF_CHECK?ZF_DEVICE_IMU660RA
FF9338H   FF9394H   00005DH   BYTE   INSEG    CODE           ?PR?WIRELESS_UART_SEND_STRING?ZF_DEVICE_WIRELESS_UART
FF9395H   FF93F0H   00005CH   BYTE   INSEG    CODE           ?PR?SPI_WRITE_DAT?ZF_DRIVER_SPI
FF93F1H   FF944CH   00005CH   BYTE   INSEG    CODE           ?PR?IMU660RA_SIMSPI_W_REG_BYTES?ZF_DEVICE_IMU660RA
FF944DH   FF94A6H   00005AH   BYTE   INSEG    CODE           ?PR?IMU660RA_GET_GYRO?ZF_DEVICE_IMU660RA
FF94A7H   FF9500H   00005AH   BYTE   INSEG    CODE           ?PR?IMU660RA_GET_ACC?ZF_DEVICE_IMU660RA
FF9501H   FF9558H   000058H   BYTE   INSEG    CODE           ?PR?SYSTEM_DELAY_INIT?ZF_DRIVER_DELAY
FF9559H   FF9579H   000021H   BYTE   UNIT     CODE           ?C_C51STARTUP
FF957AH   FF95AAH   000031H   BYTE   UNIT     CODE           ?C_C51STARTUP?2
L251 LINKER/LOCATER V4.66.93.0                                                        05/06/2026  19:47:11  PAGE 13


FF95ABH   FF95ADH   000003H   BYTE   UNIT     CODE           ?C_C51STARTUP?3
FF95AEH   FF9600H   000053H   BYTE   INSEG    CODE           ?PR?IMU660RA_SIMSPI_WR_BYTE?ZF_DEVICE_IMU660RA
FF9601H   FF964EH   00004EH   BYTE   INSEG    CODE           ?PR?GYRO_INIT?IMU
FF964FH   FF968EH   000040H   BYTE   INSEG    CODE           ?PR?INT0_IRQHANDLER?ISR
FF968FH   FF96CEH   000040H   BYTE   INSEG    CODE           ?PR?INT1_IRQHANDLER?ISR
FF96CFH   FF970EH   000040H   BYTE   INSEG    CODE           ?PR?INT2_IRQHANDLER?ISR
FF970FH   FF974EH   000040H   BYTE   INSEG    CODE           ?PR?INT3_IRQHANDLER?ISR
FF974FH   FF978EH   000040H   BYTE   INSEG    CODE           ?PR?INT4_IRQHANDLER?ISR
FF978FH   FF97CEH   000040H   BYTE   INSEG    CODE           ?PR?TM0_IRQHANDLER?ISR
FF97CFH   FF980EH   000040H   BYTE   INSEG    CODE           ?PR?TM1_IRQHANDLER?ISR
FF980FH   FF984EH   000040H   BYTE   INSEG    CODE           ?PR?TM2_IRQHANDLER?ISR
FF984FH   FF988EH   000040H   BYTE   INSEG    CODE           ?PR?TM3_IRQHANDLER?ISR
FF988FH   FF98CEH   000040H   BYTE   INSEG    CODE           ?PR?TM4_IRQHANDLER?ISR
FF98CFH   FF990AH   00003CH   BYTE   INSEG    CODE           ?PR?DEBUG_INTERRUPR_HANDLER?ZF_COMMON_DEBUG
FF990BH   FF9946H   00003CH   BYTE   INSEG    CODE           ?PR?SOFT_IIC_DELAY?ZF_DRIVER_SOFT_IIC
FF9947H   FF9980H   00003AH   BYTE   INSEG    CODE           ?PR?IMU660RA_WRITE_REGISTERS?ZF_DEVICE_IMU660RA
FF9981H   FF99B5H   000035H   BYTE   INSEG    CODE           ?PR?MY_ABS?IMU
FF99B6H   FF99E1H   00002CH   BYTE   INSEG    CODE           ?PR?MAIN?MAIN
FF99E2H   FF9A09H   000028H   BYTE   INSEG    CODE           ?PR?IMU660RA_READ_REGISTER?ZF_DEVICE_IMU660RA
FF9A0AH   FF9A30H   000027H   BYTE   INSEG    CODE           ?PR?ABS?MOTO
FF9A31H   FF9A56H   000026H   BYTE   INSEG    CODE           ?PR?WIRELESS_UART_CALLBACK?ZF_DEVICE_WIRELESS_UART
FF9A57H   FF9A7BH   000025H   BYTE   INSEG    CODE           ?PR?SYSTEM_DELAY_MS?ZF_DRIVER_DELAY
FF9A7CH   FF9AA0H   000025H   BYTE   INSEG    CODE           ?PR?SYSTEM_DELAY_US?ZF_DRIVER_DELAY
FF9AA1H   FF9AC5H   000025H   BYTE   INSEG    CODE           ?PR?INDUCTANCE_INIT?INDUCTANCE
FF9AC6H   FF9AEAH   000025H   BYTE   INSEG    CODE           ?PR?MEMCPY?_?MEMCPY
FF9AEBH   FF9B0AH   000020H   BYTE   INSEG    CODE           ?PR?UART_WRITE_BYTE?ZF_DRIVER_UART
FF9B0BH   FF9B28H   00001EH   BYTE   INSEG    CODE           ?PR?DELAY_CYCLES?ZF_DRIVER_DELAY
FF9B29H   FF9B46H   00001EH   BYTE   INSEG    CODE           ?PR?IMU660RA_WRITE_REGISTER?ZF_DEVICE_IMU660RA
FF9B47H   FF9B58H   000012H   BYTE   INSEG    CODE           ?PR?PUTCHAR?ZF_COMMON_DEBUG
FF9B59H   FF9B66H   00000EH   BYTE   INSEG    CODE           ?PR?STRLEN?_?STRLEN
FF9B67H   FFA0B7H   000551H   BYTE   UNIT     HCONST         ?C_INITHDATA
FFA0B8H   FFA2B7H   000200H   BYTE   UNIT     HCONST         ?HC?ZF_DRIVER_EEPROM
FFA2B8H   FFA3E6H   00012FH   BYTE   UNIT     HCONST         ?HC?ZF_DEVICE_DL1A
FFA3E7H   FFA4B6H   0000D0H   BYTE   UNIT     HCONST         ?HC?ZF_DEVICE_IMU963RA
FFA4B7H   FFA55DH   0000A7H   BYTE   UNIT     HCONST         ?HC?ZF_DEVICE_IMU660RA
FFA55EH   FFA601H   0000A4H   BYTE   UNIT     HCONST         ?HC?SEEKFREE_ASSISTANT
FFA602H   FFA6A3H   0000A2H   BYTE   UNIT     HCONST         ?HC?ZF_DEVICE_GPS_TAU1201
FFA6A4H   FFA72DH   00008AH   BYTE   UNIT     HCONST         ?HC?ZF_DRIVER_PWM
FFA72EH   FFA7B5H   000088H   BYTE   UNIT     HCONST         ?HC?ZF_DEVICE_ICM20602
FFA7B6H   FFA820H   00006BH   BYTE   UNIT     HCONST         ?HC?ZF_DRIVER_UART
FFA821H   FFA877H   000057H   BYTE   UNIT     HCONST         ?HC?ZF_COMMON_FUNCTION
FFA878H   FFA8CAH   000053H   BYTE   UNIT     HCONST         ?HC?MENU
FFA8CBH   FFA8FEH   000034H   BYTE   UNIT     HCONST         ?HC?ZF_DEVICE_WIRELESS_UART
FFA8FFH   FFA931H   000033H   BYTE   UNIT     HCONST         ?HC?ZF_DEVICE_IPS114
FFA932H   FFA964H   000033H   BYTE   UNIT     HCONST         ?HC?ZF_DEVICE_IPS200
FFA965H   FFA997H   000033H   BYTE   UNIT     HCONST         ?HC?ZF_DEVICE_TFT180
FFA998H   FFA9C6H   00002FH   BYTE   UNIT     HCONST         ?HC?ZF_DRIVER_SOFT_IIC
FFA9C7H   FFA9F5H   00002FH   BYTE   UNIT     HCONST         ?HC?ZF_DRIVER_SOFT_SPI
FFA9F6H   FFAA23H   00002EH   BYTE   UNIT     HCONST         ?HC?ZF_DRIVER_ENCODER
FFAA24H   FFAA51H   00002EH   BYTE   UNIT     HCONST         ?HC?ZF_DEVICE_BLE6A20
FFAA52H   FFAA7CH   00002BH   BYTE   UNIT     HCONST         ?HC?ZF_COMMON_FIFO
FFAA7DH   FFAAA7H   00002BH   BYTE   UNIT     HCONST         ?HC?ZF_DRIVER_GPIO
FFAAA8H   FFAAD1H   00002AH   BYTE   UNIT     HCONST         ?HC?ZF_DRIVER_ADC
FFAAD2H   FFAAFBH   00002AH   BYTE   UNIT     HCONST         ?HC?ZF_DRIVER_SPI
FFAAFCH   FFAB20H   000025H   BYTE   UNIT     HCONST         ?HC?ZF_COMMON_DEBUG
FFAB21H   FFAB3BH   00001BH   BYTE   UNIT     HCONST         ?HC?ZF_DEVICE_IMU660RB

* * * * * * * * *   R E M O V E D     S E G M E N T S   * * * * * * * *
   *DEL*:           00004EH   BYTE   INSEG    CODE           ?PR?DEBUG_READ_BUFFER?ZF_COMMON_DEBUG
   *DEL*:           000067H   BYTE   INSEG    CODE           ?PR?DEBUG_SEND_BUFFER?ZF_COMMON_DEBUG
   *DEL*:           0005B1H   BYTE   INSEG    CODE           ?PR?FIFO_READ_BUFFER?ZF_COMMON_FIFO
   *DEL*:           000186H   BYTE   INSEG    CODE           ?PR?FIFO_CLEAR?ZF_COMMON_FIFO
   *DEL*:           0000A0H   BYTE   INSEG    CODE           ?PR?FIFO_END_OFFSET?ZF_COMMON_FIFO
   *DEL*:           000059H   BYTE   INSEG    CODE           ?PR?FIFO_USED?ZF_COMMON_FIFO
   *DEL*:           0003B0H   BYTE   INSEG    CODE           ?PR?FUNC_DOUBLE_TO_STR?ZF_COMMON_FUNCTION
L251 LINKER/LOCATER V4.66.93.0                                                        05/06/2026  19:47:11  PAGE 14


   *DEL*:           000275H   BYTE   INSEG    CODE           ?PR?FUNC_STR_TO_DOUBLE?ZF_COMMON_FUNCTION
   *DEL*:           000197H   BYTE   INSEG    CODE           ?PR?NUMBER_CONVERSION_ASCII?ZF_COMMON_FUNCTION
   *DEL*:           0003B0H   BYTE   INSEG    CODE           ?PR?FUNC_FLOAT_TO_STR?ZF_COMMON_FUNCTION
   *DEL*:           000275H   BYTE   INSEG    CODE           ?PR?FUNC_STR_TO_FLOAT?ZF_COMMON_FUNCTION
   *DEL*:           000028H   BYTE   INSEG    CODE           ?PR?FUNC_SOFT_DELAY?ZF_COMMON_FUNCTION
   *DEL*:           00091FH   BYTE   INSEG    CODE           ?PR?ZF_SPRINTF?ZF_COMMON_FUNCTION
   *DEL*:           00011BH   BYTE   INSEG    CODE           ?PR?FUNC_UINT_TO_STR?ZF_COMMON_FUNCTION
   *DEL*:           0000C0H   BYTE   INSEG    CODE           ?PR?FUNC_STR_TO_UINT?ZF_COMMON_FUNCTION
   *DEL*:           000184H   BYTE   INSEG    CODE           ?PR?FUNC_HEX_TO_STR?ZF_COMMON_FUNCTION
   *DEL*:           0001ECH   BYTE   INSEG    CODE           ?PR?FUNC_STR_TO_HEX?ZF_COMMON_FUNCTION
   *DEL*:           0001B5H   BYTE   INSEG    CODE           ?PR?FUNC_INT_TO_STR?ZF_COMMON_FUNCTION
   *DEL*:           000141H   BYTE   INSEG    CODE           ?PR?FUNC_STR_TO_INT?ZF_COMMON_FUNCTION
   *DEL*:           0000A6H   BYTE   INSEG    CODE           ?PR?FUNC_GET_GREATEST_COMMON_DIVISOR?ZF_COMMON_FUNCTION
   *DEL*:           0006E4H   BYTE   INSEG    CODE           ?PR?VSNPRINTF?ZF_COMMON_FUNCTION
   *DEL*:           0000F9H   BYTE   INSEG    CODE           ?PR?PRINTF_REVERSE_ORDER?ZF_COMMON_FUNCTION
   *DEL*:           0000CDH   BYTE   INSEG    CODE           ?PR?INTERRUPT_SET_PRIORITY?ZF_COMMON_INTERRUPT
   *DEL*:           00015EH   BYTE   INSEG    CODE           ?PR?ADC_MEAN_FILTER_CONVERT?ZF_DRIVER_ADC
   *DEL*:           000001H   BYTE   INSEG    CODE           ?PR?ADC_COLLECT?ZF_DRIVER_ADC
   *DEL*:           00002AH   BYTE   INSEG    CODE           ?PR?IAP_SET_TPS?ZF_DRIVER_EEPROM
   *DEL*:           00000DH   BYTE   INSEG    CODE           ?PR?EEPROM_TRIG?ZF_DRIVER_EEPROM
   *DEL*:           00004FH   BYTE   INSEG    CODE           ?PR?IAP_ERASE_PAGE?ZF_DRIVER_EEPROM
   *DEL*:           000004H   BYTE   INSEG    CODE           ?PR?IAP_IDLE?ZF_DRIVER_EEPROM
   *DEL*:           000075H   BYTE   INSEG    CODE           ?PR?IAP_READ_BUFF?ZF_DRIVER_EEPROM
   *DEL*:           000119H   BYTE   INSEG    CODE           ?PR?EXTERN_IAP_WRITE_BUFF?ZF_DRIVER_EEPROM
   *DEL*:           000072H   BYTE   INSEG    CODE           ?PR?IAP_WRITE_BUFF?ZF_DRIVER_EEPROM
   *DEL*:           000052H   BYTE   INSEG    CODE           ?PR?IAP_READ_BYTE?ZF_DRIVER_EEPROM
   *DEL*:           000008H   BYTE   INSEG    CODE           ?PR?IAP_INIT?ZF_DRIVER_EEPROM
   *DEL*:           000052H   BYTE   INSEG    CODE           ?PR?IAP_WRITE_BYTE?ZF_DRIVER_EEPROM
   *DEL*:           000012H   BYTE   INSEG    CODE           ?PR?IAP_GET_CMD_STATE?ZF_DRIVER_EEPROM
   *DEL*:           000045H   BYTE   INSEG    CODE           ?PR?EXTI_ENABLE?ZF_DRIVER_EXTI
   *DEL*:           000013H   BYTE   INSEG    CODE           ?PR?EXTI_ALL_CLOSE?ZF_DRIVER_EXTI
   *DEL*:           00005BH   BYTE   INSEG    CODE           ?PR?EXTI_INIT?ZF_DRIVER_EXTI
   *DEL*:           000045H   BYTE   INSEG    CODE           ?PR?EXTI_DISABLE?ZF_DRIVER_EXTI
   *DEL*:           000023H   BYTE   INSEG    CODE           ?PR?GPIO_TOGGLE_LEVEL?ZF_DRIVER_GPIO
   *DEL*:           000313H   BYTE   INSEG    CODE           ?PR?GPIO_SET_LEVEL_SPEED?ZF_DRIVER_GPIO
   *DEL*:           0002D5H   BYTE   INSEG    CODE           ?PR?PWM_SET_FREQ?ZF_DRIVER_PWM
   *DEL*:           000091H   BYTE   INSEG    CODE           ?PR?SOFT_IIC_WRITE_8BIT_REGISTER?ZF_DRIVER_SOFT_IIC
   *DEL*:           000186H   BYTE   INSEG    CODE           ?PR?SOFT_IIC_READ_16BIT_REGISTERS?ZF_DRIVER_SOFT_IIC
   *DEL*:           0000D2H   BYTE   INSEG    CODE           ?PR?SOFT_IIC_SCCB_READ_REGISTER?ZF_DRIVER_SOFT_IIC
   *DEL*:           000117H   BYTE   INSEG    CODE           ?PR?SOFT_IIC_READ_16BIT_REGISTER?ZF_DRIVER_SOFT_IIC
   *DEL*:           0001F3H   BYTE   INSEG    CODE           ?PR?SOFT_IIC_TRANSFER_16BIT_ARRAY?ZF_DRIVER_SOFT_IIC
   *DEL*:           00012FH   BYTE   INSEG    CODE           ?PR?SOFT_IIC_WRITE_16BIT_REGISTERS?ZF_DRIVER_SOFT_IIC
   *DEL*:           000091H   BYTE   INSEG    CODE           ?PR?SOFT_IIC_SCCB_WRITE_REGISTER?ZF_DRIVER_SOFT_IIC
   *DEL*:           000085H   BYTE   INSEG    CODE           ?PR?SOFT_IIC_READ_8BIT?ZF_DRIVER_SOFT_IIC
   *DEL*:           0000F7H   BYTE   INSEG    CODE           ?PR?SOFT_IIC_READ_8BIT_ARRAY?ZF_DRIVER_SOFT_IIC
   *DEL*:           0000DDH   BYTE   INSEG    CODE           ?PR?SOFT_IIC_WRITE_16BIT_REGISTER?ZF_DRIVER_SOFT_IIC
   *DEL*:           00007AH   BYTE   INSEG    CODE           ?PR?SOFT_IIC_WRITE_8BIT?ZF_DRIVER_SOFT_IIC
   *DEL*:           0000D3H   BYTE   INSEG    CODE           ?PR?SOFT_IIC_WRITE_8BIT_ARRAY?ZF_DRIVER_SOFT_IIC
   *DEL*:           0000B0H   BYTE   INSEG    CODE           ?PR?SOFT_IIC_READ_16BIT?ZF_DRIVER_SOFT_IIC
   *DEL*:           000129H   BYTE   INSEG    CODE           ?PR?SOFT_IIC_READ_16BIT_ARRAY?ZF_DRIVER_SOFT_IIC
   *DEL*:           0000DFH   BYTE   INSEG    CODE           ?PR?SOFT_IIC_INIT?ZF_DRIVER_SOFT_IIC
   *DEL*:           000137H   BYTE   INSEG    CODE           ?PR?SOFT_IIC_READ_8BIT_REGISTERS?ZF_DRIVER_SOFT_IIC
   *DEL*:           0000A1H   BYTE   INSEG    CODE           ?PR?SOFT_IIC_WRITE_16BIT?ZF_DRIVER_SOFT_IIC
   *DEL*:           0000FDH   BYTE   INSEG    CODE           ?PR?SOFT_IIC_WRITE_16BIT_ARRAY?ZF_DRIVER_SOFT_IIC
   *DEL*:           0000C5H   BYTE   INSEG    CODE           ?PR?SOFT_IIC_READ_8BIT_REGISTER?ZF_DRIVER_SOFT_IIC
   *DEL*:           000197H   BYTE   INSEG    CODE           ?PR?SOFT_IIC_TRANSFER_8BIT_ARRAY?ZF_DRIVER_SOFT_IIC
   *DEL*:           0000E8H   BYTE   INSEG    CODE           ?PR?SOFT_IIC_WRITE_8BIT_REGISTERS?ZF_DRIVER_SOFT_IIC
   *DEL*:           0002EFH   BYTE   INSEG    CODE           ?PR?SOFT_SPI_INIT?ZF_DRIVER_SOFT_SPI
   *DEL*:           000111H   BYTE   INSEG    CODE           ?PR?SOFT_SPI_READ_8BIT_REGISTERS?ZF_DRIVER_SOFT_SPI
   *DEL*:           000099H   BYTE   INSEG    CODE           ?PR?SOFT_SPI_WRITE_16BIT?ZF_DRIVER_SOFT_SPI
   *DEL*:           000216H   BYTE   INSEG    CODE           ?PR?SOFT_SPI_8BIT_DATA_HANDLER?ZF_DRIVER_SOFT_SPI
   *DEL*:           0000EEH   BYTE   INSEG    CODE           ?PR?SOFT_SPI_WRITE_16BIT_ARRAY?ZF_DRIVER_SOFT_SPI
   *DEL*:           0000B0H   BYTE   INSEG    CODE           ?PR?SOFT_SPI_READ_8BIT_REGISTER?ZF_DRIVER_SOFT_SPI
   *DEL*:           000159H   BYTE   INSEG    CODE           ?PR?SOFT_SPI_TRANSFER_8BIT?ZF_DRIVER_SOFT_SPI
   *DEL*:           000103H   BYTE   INSEG    CODE           ?PR?SOFT_SPI_WRITE_8BIT_REGISTERS?ZF_DRIVER_SOFT_SPI
L251 LINKER/LOCATER V4.66.93.0                                                        05/06/2026  19:47:11  PAGE 15


   *DEL*:           0000ACH   BYTE   INSEG    CODE           ?PR?SOFT_SPI_WRITE_8BIT_REGISTER?ZF_DRIVER_SOFT_SPI
   *DEL*:           00010EH   BYTE   INSEG    CODE           ?PR?SOFT_SPI_READ_16BIT_REGISTERS?ZF_DRIVER_SOFT_SPI
   *DEL*:           000250H   BYTE   INSEG    CODE           ?PR?SOFT_SPI_16BIT_DATA_HANDLER?ZF_DRIVER_SOFT_SPI
   *DEL*:           0000BCH   BYTE   INSEG    CODE           ?PR?SOFT_SPI_READ_16BIT_REGISTER?ZF_DRIVER_SOFT_SPI
   *DEL*:           00015BH   BYTE   INSEG    CODE           ?PR?SOFT_SPI_TRANSFER_16BIT?ZF_DRIVER_SOFT_SPI
   *DEL*:           0000FDH   BYTE   INSEG    CODE           ?PR?SOFT_SPI_WRITE_16BIT_REGISTERS?ZF_DRIVER_SOFT_SPI
   *DEL*:           00009BH   BYTE   INSEG    CODE           ?PR?SOFT_SPI_READ_8BIT?ZF_DRIVER_SOFT_SPI
   *DEL*:           0000FCH   BYTE   INSEG    CODE           ?PR?SOFT_SPI_READ_8BIT_ARRAY?ZF_DRIVER_SOFT_SPI
   *DEL*:           0000B2H   BYTE   INSEG    CODE           ?PR?SOFT_SPI_WRITE_16BIT_REGISTER?ZF_DRIVER_SOFT_SPI
   *DEL*:           000095H   BYTE   INSEG    CODE           ?PR?SOFT_SPI_WRITE_8BIT?ZF_DRIVER_SOFT_SPI
   *DEL*:           0000EEH   BYTE   INSEG    CODE           ?PR?SOFT_SPI_WRITE_8BIT_ARRAY?ZF_DRIVER_SOFT_SPI
   *DEL*:           00003CH   BYTE   INSEG    CODE           ?PR?SOFT_SPI_DELAY?ZF_DRIVER_SOFT_SPI
   *DEL*:           0000A0H   BYTE   INSEG    CODE           ?PR?SOFT_SPI_READ_16BIT?ZF_DRIVER_SOFT_SPI
   *DEL*:           0000FFH   BYTE   INSEG    CODE           ?PR?SOFT_SPI_READ_16BIT_ARRAY?ZF_DRIVER_SOFT_SPI
   *DEL*:           00002BH   BYTE   INSEG    CODE           ?PR?SPI_WRITE_8BIT_REGISTER?ZF_DRIVER_SPI
   *DEL*:           0000BCH   BYTE   INSEG    CODE           ?PR?SPI_READ_16BIT_REGISTERS?ZF_DRIVER_SPI
   *DEL*:           000079H   BYTE   INSEG    CODE           ?PR?SPI_READ_16BIT_REGISTER?ZF_DRIVER_SPI
   *DEL*:           00010DH   BYTE   INSEG    CODE           ?PR?SPI_TRANSFER_16BIT?ZF_DRIVER_SPI
   *DEL*:           00008AH   BYTE   INSEG    CODE           ?PR?SPI_WRITE_16BIT_REGISTERS?ZF_DRIVER_SPI
   *DEL*:           000011H   BYTE   INSEG    CODE           ?PR?SPI_READ_8BIT?ZF_DRIVER_SPI
   *DEL*:           00005DH   BYTE   INSEG    CODE           ?PR?SPI_READ_8BIT_ARRAY?ZF_DRIVER_SPI
   *DEL*:           00006FH   BYTE   INSEG    CODE           ?PR?SPI_WRITE_16BIT_REGISTER?ZF_DRIVER_SPI
   *DEL*:           00004FH   BYTE   INSEG    CODE           ?PR?SPI_WRITE_8BIT_ARRAY?ZF_DRIVER_SPI
   *DEL*:           000045H   BYTE   INSEG    CODE           ?PR?SPI_READ_16BIT?ZF_DRIVER_SPI
   *DEL*:           000088H   BYTE   INSEG    CODE           ?PR?SPI_READ_16BIT_ARRAY?ZF_DRIVER_SPI
   *DEL*:           0004D9H   BYTE   INSEG    CODE           ?PR?SPI_INIT?ZF_DRIVER_SPI
   *DEL*:           00006EH   BYTE   INSEG    CODE           ?PR?SPI_READ_8BIT_REGISTERS?ZF_DRIVER_SPI
   *DEL*:           00003BH   BYTE   INSEG    CODE           ?PR?SPI_WRITE_16BIT?ZF_DRIVER_SPI
   *DEL*:           000075H   BYTE   INSEG    CODE           ?PR?SPI_WRITE_16BIT_ARRAY?ZF_DRIVER_SPI
   *DEL*:           000022H   BYTE   INSEG    CODE           ?PR?SPI_READ_8BIT_REGISTER?ZF_DRIVER_SPI
   *DEL*:           0000A4H   BYTE   INSEG    CODE           ?PR?SPI_TRANSFER_8BIT?ZF_DRIVER_SPI
   *DEL*:           000060H   BYTE   INSEG    CODE           ?PR?SPI_WRITE_8BIT_REGISTERS?ZF_DRIVER_SPI
   *DEL*:           00003DH   BYTE   INSEG    CODE           ?PR?UART_WRITE_STRING?ZF_DRIVER_UART
   *DEL*:           000072H   BYTE   INSEG    CODE           ?PR?UART_READ_BYTE?ZF_DRIVER_UART
   *DEL*:           000038H   BYTE   INSEG    CODE           ?PR?EEPROM_READ?EEPROM
   *DEL*:           000074H   BYTE   INSEG    CODE           ?PR?EEPROM_READ_VALUE?EEPROM
   *DEL*:           00007DH   BYTE   INSEG    CODE           ?PR?EEPROM_WRITE_VALUE?EEPROM
   *DEL*:           000032H   BYTE   INSEG    CODE           ?PR?EEPROM_INIT?EEPROM
   *DEL*:           000020H   BYTE   INSEG    CODE           ?PR?VOLTAGE_WARNING_INIT?VOLTAGE_WARNING
   *DEL*:           000084H   BYTE   INSEG    CODE           ?PR?BLE6A20_READ_BUFFER?ZF_DEVICE_BLE6A20
   *DEL*:           000110H   BYTE   INSEG    CODE           ?PR?BLE6A20_SEND_BUFFER?ZF_DEVICE_BLE6A20
   *DEL*:           00005DH   BYTE   INSEG    CODE           ?PR?BLE6A20_SEND_STRING?ZF_DEVICE_BLE6A20
   *DEL*:           000026H   BYTE   INSEG    CODE           ?PR?BLE6A20_CALLBACK?ZF_DEVICE_BLE6A20
   *DEL*:           000088H   BYTE   INSEG    CODE           ?PR?BLE6A20_INIT?ZF_DEVICE_BLE6A20
   *DEL*:           00006DH   BYTE   INSEG    CODE           ?PR?BLE6A20_SEND_BYTE?ZF_DEVICE_BLE6A20
   *DEL*:           00006FH   BYTE   INSEG    CODE           ?PR?DL1A_TIMEOUT_MICROSECONDS_TO_MCLKS?ZF_DEVICE_DL1A
   *DEL*:           000069H   BYTE   INSEG    CODE           ?PR?DL1A_TIMEOUT_MCLKS_TO_MICROSECONDS?ZF_DEVICE_DL1A
   *DEL*:           0000A2H   BYTE   INSEG    CODE           ?PR?DL1A_SET_SIGNAL_RATE_LIMIT?ZF_DEVICE_DL1A
   *DEL*:           000030H   BYTE   INSEG    CODE           ?PR?DL1A_DECODE_TIMEOUT?ZF_DEVICE_DL1A
   *DEL*:           000259H   BYTE   INSEG    CODE           ?PR?DL1A_GET_SPAD_INFO?ZF_DEVICE_DL1A
   *DEL*:           000085H   BYTE   INSEG    CODE           ?PR?DL1A_ENCODE_TIMEOUT?ZF_DEVICE_DL1A
   *DEL*:           0000CBH   BYTE   INSEG    CODE           ?PR?DL1A_GET_SEQUENCE_STEP_ENABLES?ZF_DEVICE_DL1A
   *DEL*:           0000D3H   BYTE   INSEG    CODE           ?PR?DL1A_GET_DISTANCE?ZF_DEVICE_DL1A
   *DEL*:           0000D6H   BYTE   INSEG    CODE           ?PR?DL1A_PERFORM_SINGLE_REF_CALIBRATION?ZF_DEVICE_DL1A
   *DEL*:           00021AH   BYTE   INSEG    CODE           ?PR?DL1A_GET_SEQUENCE_STEP_TIMEOUTS?ZF_DEVICE_DL1A
   *DEL*:           000001H   BYTE   INSEG    CODE           ?PR?DL1A_INT_HANDLER?ZF_DEVICE_DL1A
   *DEL*:           000119H   BYTE   INSEG    CODE           ?PR?DL1A_GET_MEASUREMENT_TIMING_BUDGET?ZF_DEVICE_DL1A
   *DEL*:           000210H   BYTE   INSEG    CODE           ?PR?DL1A_SET_MEASUREMENT_TIMING_BUDGET?ZF_DEVICE_DL1A
   *DEL*:           000602H   BYTE   INSEG    CODE           ?PR?DL1A_INIT?ZF_DEVICE_DL1A
   *DEL*:           00009EH   BYTE   INSEG    CODE           ?PR?DL1A_GET_VCSEL_PULSE_PERIOD?ZF_DEVICE_DL1A
   *DEL*:           0001E4H   BYTE   INSEG    CODE           ?PR?DL1B_GET_DISTANCE?ZF_DEVICE_DL1B
   *DEL*:           000001H   BYTE   INSEG    CODE           ?PR?DL1B_INT_HANDLER?ZF_DEVICE_DL1B
   *DEL*:           00000AH   BYTE   INSEG    CODE           ?PR?DL1B_INIT?ZF_DEVICE_DL1B
   *DEL*:           000094H   BYTE   INSEG    CODE           ?PR?GET_DOUBLE_NUMBER?ZF_DEVICE_GPS_TAU1201
   *DEL*:           000094H   BYTE   INSEG    CODE           ?PR?GET_FLOAT_NUMBER?ZF_DEVICE_GPS_TAU1201
L251 LINKER/LOCATER V4.66.93.0                                                        05/06/2026  19:47:11  PAGE 16


   *DEL*:           0001CEH   BYTE   INSEG    CODE           ?PR?UTC_TO_BTC?ZF_DEVICE_GPS_TAU1201
   *DEL*:           000214H   BYTE   INSEG    CODE           ?PR?GET_TWO_POINTS_DISTANCE?ZF_DEVICE_GPS_TAU1201
   *DEL*:           000102H   BYTE   INSEG    CODE           ?PR?GPS_GNGGA_PARSE?ZF_DEVICE_GPS_TAU1201
   *DEL*:           000668H   BYTE   INSEG    CODE           ?PR?GPS_GNRMC_PARSE?ZF_DEVICE_GPS_TAU1201
   *DEL*:           000212H   BYTE   INSEG    CODE           ?PR?GPS_DATA_PARSE?ZF_DEVICE_GPS_TAU1201
   *DEL*:           000088H   BYTE   INSEG    CODE           ?PR?GET_INT_NUMBER?ZF_DEVICE_GPS_TAU1201
   *DEL*:           0002B0H   BYTE   INSEG    CODE           ?PR?GPS_INIT?ZF_DEVICE_GPS_TAU1201
   *DEL*:           0000D3H   BYTE   INSEG    CODE           ?PR?GET_PARAMETER_INDEX?ZF_DEVICE_GPS_TAU1201
   *DEL*:           00033DH   BYTE   INSEG    CODE           ?PR?GET_TWO_POINTS_AZIMUTH?ZF_DEVICE_GPS_TAU1201
   *DEL*:           000191H   BYTE   INSEG    CODE           ?PR?GPS_UART_CALLBACK?ZF_DEVICE_GPS_TAU1201
   *DEL*:           000024H   BYTE   INSEG    CODE           ?PR?ICM20602_READ_REGISTER?ZF_DEVICE_ICM20602
   *DEL*:           00001EH   BYTE   INSEG    CODE           ?PR?ICM20602_WRITE_REGISTER?ZF_DEVICE_ICM20602
   *DEL*:           000050H   BYTE   INSEG    CODE           ?PR?ICM20602_SIMSPI_WR_BYTE?ZF_DEVICE_ICM20602
   *DEL*:           000051H   BYTE   INSEG    CODE           ?PR?ICM20602_SELF_CHECK?ZF_DEVICE_ICM20602
   *DEL*:           000076H   BYTE   INSEG    CODE           ?PR?ICM20602_SIMSPI_R_REG_BYTES?ZF_DEVICE_ICM20602
   *DEL*:           000031H   BYTE   INSEG    CODE           ?PR?ICM20602_SIMSPI_R_REG_BYTE?ZF_DEVICE_ICM20602
   *DEL*:           00001DH   BYTE   INSEG    CODE           ?PR?ICM20602_SIMSPI_W_REG_BYTE?ZF_DEVICE_ICM20602
   *DEL*:           0001F1H   BYTE   INSEG    CODE           ?PR?ICM20602_INIT?ZF_DEVICE_ICM20602
   *DEL*:           00005AH   BYTE   INSEG    CODE           ?PR?ICM20602_GET_ACC?ZF_DEVICE_ICM20602
   *DEL*:           000040H   BYTE   INSEG    CODE           ?PR?ICM20602_READ_REGISTERS?ZF_DEVICE_ICM20602
   *DEL*:           00005AH   BYTE   INSEG    CODE           ?PR?ICM20602_GET_GYRO?ZF_DEVICE_ICM20602
   *DEL*:           00005AH   BYTE   INSEG    CODE           ?PR?IMU660RB_GET_GYRO?ZF_DEVICE_IMU660RB
   *DEL*:           000024H   BYTE   INSEG    CODE           ?PR?IMU660RB_READ_REGISTER?ZF_DEVICE_IMU660RB
   *DEL*:           000114H   BYTE   INSEG    CODE           ?PR?IMU660RB_GYRO_TRANSITION?ZF_DEVICE_IMU660RB
   *DEL*:           00001EH   BYTE   INSEG    CODE           ?PR?IMU660RB_WRITE_REGISTER?ZF_DEVICE_IMU660RB
   *DEL*:           000053H   BYTE   INSEG    CODE           ?PR?IMU660RB_SIMSPI_WR_BYTE?ZF_DEVICE_IMU660RB
   *DEL*:           00004FH   BYTE   INSEG    CODE           ?PR?IMU660RB_SELF_CHECK?ZF_DEVICE_IMU660RB
   *DEL*:           000070H   BYTE   INSEG    CODE           ?PR?IMU660RB_SIMSPI_R_REG_BYTES?ZF_DEVICE_IMU660RB
   *DEL*:           000037H   BYTE   INSEG    CODE           ?PR?IMU660RB_SIMSPI_R_REG_BYTE?ZF_DEVICE_IMU660RB
   *DEL*:           00001DH   BYTE   INSEG    CODE           ?PR?IMU660RB_SIMSPI_W_REG_BYTE?ZF_DEVICE_IMU660RB
   *DEL*:           000071H   BYTE   INSEG    CODE           ?PR?IMU660RB_INIT?ZF_DEVICE_IMU660RB
   *DEL*:           00005AH   BYTE   INSEG    CODE           ?PR?IMU660RB_GET_ACC?ZF_DEVICE_IMU660RB
   *DEL*:           0000BEH   BYTE   INSEG    CODE           ?PR?IMU660RB_ACC_TRANSITION?ZF_DEVICE_IMU660RB
   *DEL*:           000040H   BYTE   INSEG    CODE           ?PR?IMU660RB_READ_REGISTERS?ZF_DEVICE_IMU660RB
   *DEL*:           00005AH   BYTE   INSEG    CODE           ?PR?IMU963RA_GET_GYRO?ZF_DEVICE_IMU963RA
   *DEL*:           000072H   BYTE   INSEG    CODE           ?PR?IMU963RA_READ_MAG_REGISTER?ZF_DEVICE_IMU963RA
   *DEL*:           00003DH   BYTE   INSEG    CODE           ?PR?IMU963RA_CONNECT_MAG?ZF_DEVICE_IMU963RA
   *DEL*:           00004CH   BYTE   INSEG    CODE           ?PR?IMU963RA_READ_ACC_GYRO_REGISTERS?ZF_DEVICE_IMU963RA
   *DEL*:           000089H   BYTE   INSEG    CODE           ?PR?IMU963RA_WRITE_MAG_REGISTER?ZF_DEVICE_IMU963RA
   *DEL*:           000027H   BYTE   INSEG    CODE           ?PR?IMU963RA_READ_ACC_GYRO_REGISTER?ZF_DEVICE_IMU963RA
   *DEL*:           000054H   BYTE   INSEG    CODE           ?PR?IMU963RA_MAG_SELF_CHECK?ZF_DEVICE_IMU963RA
   *DEL*:           000020H   BYTE   INSEG    CODE           ?PR?IMU963RA_WRITE_ACC_GYRO_REGISTER?ZF_DEVICE_IMU963RA
   *DEL*:           000345H   BYTE   INSEG    CODE           ?PR?IMU963RA_INIT?ZF_DEVICE_IMU963RA
   *DEL*:           000068H   BYTE   INSEG    CODE           ?PR?IMU963RA_ACC_GYRO_SELF_CHECK?ZF_DEVICE_IMU963RA
   *DEL*:           00005AH   BYTE   INSEG    CODE           ?PR?IMU963RA_GET_ACC?ZF_DEVICE_IMU963RA
   *DEL*:           000079H   BYTE   INSEG    CODE           ?PR?IMU963RA_GET_MAG?ZF_DEVICE_IMU963RA
   *DEL*:           0001EBH   BYTE   INSEG    CODE           ?PR?IPS114_SHOW_FLOAT?ZF_DEVICE_IPS114
   *DEL*:           000083H   BYTE   INSEG    CODE           ?PR?IPS114_DRAW_POINT?ZF_DEVICE_IPS114
   *DEL*:           0000C4H   BYTE   INSEG    CODE           ?PR?IPS114_SHOW_STRING?ZF_DEVICE_IPS114
   *DEL*:           00011CH   BYTE   INSEG    CODE           ?PR?IPS114_SHOW_CHAR?ZF_DEVICE_IPS114
   *DEL*:           000119H   BYTE   INSEG    CODE           ?PR?IPS114_SHOW_UINT16?ZF_DEVICE_IPS114
   *DEL*:           000025H   BYTE   INSEG    CODE           ?PR?IPS114_SET_COLOR?ZF_DEVICE_IPS114
   *DEL*:           00015EH   BYTE   INSEG    CODE           ?PR?IPS114_SHOW_INT32?ZF_DEVICE_IPS114
   *DEL*:           00016DH   BYTE   INSEG    CODE           ?PR?IPS114_SHOW_INT16?ZF_DEVICE_IPS114
   *DEL*:           000214H   BYTE   INSEG    CODE           ?PR?IPS114_SHOW_WAVE?ZF_DEVICE_IPS114
   *DEL*:           00003BH   BYTE   INSEG    CODE           ?PR?IPS114_SET_DIR?ZF_DEVICE_IPS114
   *DEL*:           000200H   BYTE   INSEG    CODE           ?PR?IPS114_SHOW_CHINESE?ZF_DEVICE_IPS114
   *DEL*:           000085H   BYTE   INSEG    CODE           ?PR?IPS114_CLEAR?ZF_DEVICE_IPS114
   *DEL*:           0000E9H   BYTE   INSEG    CODE           ?PR?IPS114_SHOW_UINT8?ZF_DEVICE_IPS114
   *DEL*:           00012EH   BYTE   INSEG    CODE           ?PR?IPS114_SHOW_INT8?ZF_DEVICE_IPS114
   *DEL*:           000022H   BYTE   INSEG    CODE           ?PR?IPS114_WRITE_INDEX?ZF_DEVICE_IPS114
   *DEL*:           000245H   BYTE   INSEG    CODE           ?PR?IPS114_SET_REGION?ZF_DEVICE_IPS114
   *DEL*:           0002C2H   BYTE   INSEG    CODE           ?PR?IPS114_INIT?ZF_DEVICE_IPS114
   *DEL*:           0001EBH   BYTE   INSEG    CODE           ?PR?IPS200_SHOW_FLOAT?ZF_DEVICE_IPS200
   *DEL*:           000083H   BYTE   INSEG    CODE           ?PR?IPS200_DRAW_POINT?ZF_DEVICE_IPS200
L251 LINKER/LOCATER V4.66.93.0                                                        05/06/2026  19:47:11  PAGE 17


   *DEL*:           0000C4H   BYTE   INSEG    CODE           ?PR?IPS200_SHOW_STRING?ZF_DEVICE_IPS200
   *DEL*:           00011CH   BYTE   INSEG    CODE           ?PR?IPS200_SHOW_CHAR?ZF_DEVICE_IPS200
   *DEL*:           000119H   BYTE   INSEG    CODE           ?PR?IPS200_SHOW_UINT16?ZF_DEVICE_IPS200
   *DEL*:           000025H   BYTE   INSEG    CODE           ?PR?IPS200_SET_COLOR?ZF_DEVICE_IPS200
   *DEL*:           00015EH   BYTE   INSEG    CODE           ?PR?IPS200_SHOW_INT32?ZF_DEVICE_IPS200
   *DEL*:           00016DH   BYTE   INSEG    CODE           ?PR?IPS200_SHOW_INT16?ZF_DEVICE_IPS200
   *DEL*:           000214H   BYTE   INSEG    CODE           ?PR?IPS200_SHOW_WAVE?ZF_DEVICE_IPS200
   *DEL*:           000013H   BYTE   INSEG    CODE           ?PR?IPS200_SET_DIR?ZF_DEVICE_IPS200
   *DEL*:           000200H   BYTE   INSEG    CODE           ?PR?IPS200_SHOW_CHINESE?ZF_DEVICE_IPS200
   *DEL*:           000085H   BYTE   INSEG    CODE           ?PR?IPS200_CLEAR?ZF_DEVICE_IPS200
   *DEL*:           0000E9H   BYTE   INSEG    CODE           ?PR?IPS200_SHOW_UINT8?ZF_DEVICE_IPS200
   *DEL*:           00012EH   BYTE   INSEG    CODE           ?PR?IPS200_SHOW_INT8?ZF_DEVICE_IPS200
   *DEL*:           000022H   BYTE   INSEG    CODE           ?PR?IPS200_WRITE_INDEX?ZF_DEVICE_IPS200
   *DEL*:           0000ECH   BYTE   INSEG    CODE           ?PR?IPS200_SET_REGION?ZF_DEVICE_IPS200
   *DEL*:           0002C2H   BYTE   INSEG    CODE           ?PR?IPS200_INIT?ZF_DEVICE_IPS200
   *DEL*:           000095H   BYTE   INSEG    CODE           ?PR?IPS200PRO_PROGRESS_BAR_CREATE?ZF_DEVICE_IPS200PRO
   *DEL*:           000053H   BYTE   INSEG    CODE           ?PR?IPS200PRO_SET_CRC_STATE?ZF_DEVICE_IPS200PRO
   *DEL*:           000070H   BYTE   INSEG    CODE           ?PR?IPS200PRO_TABLE_SELECT?ZF_DEVICE_IPS200PRO
   *DEL*:           000036H   BYTE   INSEG    CODE           ?PR?IPS200PRO_PAGE_HIDDEN?ZF_DEVICE_IPS200PRO
   *DEL*:           000055H   BYTE   INSEG    CODE           ?PR?IPS200PRO_SET_DIRECTION?ZF_DEVICE_IPS200PRO
   *DEL*:           00009EH   BYTE   INSEG    CODE           ?PR?IPS200PRO_PAGE_CREATE?ZF_DEVICE_IPS200PRO
   *DEL*:           00010CH   BYTE   INSEG    CODE           ?PR?IPS200PRO_WAVEFORM_ADD_VALUE?ZF_DEVICE_IPS200PRO
   *DEL*:           000095H   BYTE   INSEG    CODE           ?PR?IPS200PRO_METER_CREATE?ZF_DEVICE_IPS200PRO
   *DEL*:           0000E3H   BYTE   INSEG    CODE           ?PR?IPS200PRO_LABEL_PRINTF?ZF_DEVICE_IPS200PRO
   *DEL*:           000072H   BYTE   INSEG    CODE           ?PR?IPS200PRO_WAVEFORM_LINE_STATE?ZF_DEVICE_IPS200PRO
   *DEL*:           000114H   BYTE   INSEG    CODE           ?PR?IPS200PRO_TABLE_CELL_PRINTF?ZF_DEVICE_IPS200PRO
   *DEL*:           000286H   BYTE   INSEG    CODE           ?PR?IPS200PRO_WRITE_PACKET?ZF_DEVICE_IPS200PRO
   *DEL*:           00009AH   BYTE   INSEG    CODE           ?PR?IPS200PRO_SEND_BUFFER?ZF_DEVICE_IPS200PRO
   *DEL*:           000060H   BYTE   INSEG    CODE           ?PR?IPS200PRO_LABEL_MODE?ZF_DEVICE_IPS200PRO
   *DEL*:           000060H   BYTE   INSEG    CODE           ?PR?IPS200PRO_PAGE_SWITCH?ZF_DEVICE_IPS200PRO
   *DEL*:           000053H   BYTE   INSEG    CODE           ?PR?IPS200PRO_CALENDAR_CREATE?ZF_DEVICE_IPS200PRO
   *DEL*:           000087H   BYTE   INSEG    CODE           ?PR?IPS200PRO_CALENDAR_DISPLAY?ZF_DEVICE_IPS200PRO
   *DEL*:           00005EH   BYTE   INSEG    CODE           ?PR?IPS200PRO_WAVEFORM_LINE_TYPE?ZF_DEVICE_IPS200PRO
   *DEL*:           000062H   BYTE   INSEG    CODE           ?PR?IPS200PRO_SET_HIDDEN?ZF_DEVICE_IPS200PRO
   *DEL*:           000095H   BYTE   INSEG    CODE           ?PR?IPS200PRO_CONTAINER_CREATE?ZF_DEVICE_IPS200PRO
   *DEL*:           0000E6H   BYTE   INSEG    CODE           ?PR?IPS200PRO_IMAGE_DRAW_LINE?ZF_DEVICE_IPS200PRO
   *DEL*:           000081H   BYTE   INSEG    CODE           ?PR?IPS200PRO_LABEL_SHOW_STRING?ZF_DEVICE_IPS200PRO
   *DEL*:           000053H   BYTE   INSEG    CODE           ?PR?IPS200PRO_SET_OPTIMIZE?ZF_DEVICE_IPS200PRO
   *DEL*:           000076H   BYTE   INSEG    CODE           ?PR?IPS200PRO_SET_POSITION?ZF_DEVICE_IPS200PRO
   *DEL*:           000055H   BYTE   INSEG    CODE           ?PR?IPS200PRO_SET_DEFAULT_FONT?ZF_DEVICE_IPS200PRO
   *DEL*:           000066H   BYTE   INSEG    CODE           ?PR?IPS200PRO_PAGE_SET_TITLE_POSITION_WIDTH?ZF_DEVICE_IPS2
                                                             -00PRO
   *DEL*:           0000C1H   BYTE   INSEG    CODE           ?PR?IPS200PRO_IMAGE_DRAW_RECTANGLE?ZF_DEVICE_IPS200PRO
   *DEL*:           0000EDH   BYTE   INSEG    CODE           ?PR?IPS200PRO_INIT?ZF_DEVICE_IPS200PRO
   *DEL*:           000072H   BYTE   INSEG    CODE           ?PR?IPS200PRO_CONTAINER_RADIUS?ZF_DEVICE_IPS200PRO
   *DEL*:           00006DH   BYTE   INSEG    CODE           ?PR?IPS200PRO_WAIT_IDLE?ZF_DEVICE_IPS200PRO
   *DEL*:           000055H   BYTE   INSEG    CODE           ?PR?IPS200PRO_SET_FORMAT?ZF_DEVICE_IPS200PRO
   *DEL*:           000067H   BYTE   INSEG    CODE           ?PR?IPS200PRO_SET_PARENT?ZF_DEVICE_IPS200PRO
   *DEL*:           000070H   BYTE   INSEG    CODE           ?PR?IPS200PRO_PROGRESS_BAR_SET_VALUE?ZF_DEVICE_IPS200PRO
   *DEL*:           00004AH   BYTE   INSEG    CODE           ?PR?IPS200PRO_GET_DATE?ZF_DEVICE_IPS200PRO
   *DEL*:           000095H   BYTE   INSEG    CODE           ?PR?IPS200PRO_WAVEFORM_CREATE?ZF_DEVICE_IPS200PRO
   *DEL*:           0000B6H   BYTE   INSEG    CODE           ?PR?IPS200PRO_READ_PARAMETER?ZF_DEVICE_IPS200PRO
   *DEL*:           0000A1H   BYTE   INSEG    CODE           ?PR?IPS200PRO_RECEIVE_BUFFER?ZF_DEVICE_IPS200PRO
   *DEL*:           000086H   BYTE   INSEG    CODE           ?PR?IPS200PRO_SET_DATE?ZF_DEVICE_IPS200PRO
   *DEL*:           000060H   BYTE   INSEG    CODE           ?PR?IPS200PRO_METER_SET_VALUE?ZF_DEVICE_IPS200PRO
   *DEL*:           000076H   BYTE   INSEG    CODE           ?PR?IPS200PRO_SET_COLOR?ZF_DEVICE_IPS200PRO
   *DEL*:           00005FH   BYTE   INSEG    CODE           ?PR?IPS200PRO_GET_INFORMATION?ZF_DEVICE_IPS200PRO
   *DEL*:           000052H   BYTE   INSEG    CODE           ?PR?IPS200PRO_DELETE_WIDGETS?ZF_DEVICE_IPS200PRO
   *DEL*:           00004CH   BYTE   INSEG    CODE           ?PR?IPS200PRO_GET_TIME?ZF_DEVICE_IPS200PRO
   *DEL*:           0000B5H   BYTE   INSEG    CODE           ?PR?IPS200PRO_CREATE_WIDGETS?ZF_DEVICE_IPS200PRO
   *DEL*:           00004EH   BYTE   INSEG    CODE           ?PR?IPS200PRO_WAVEFORM_CLEAR?ZF_DEVICE_IPS200PRO
   *DEL*:           00006FH   BYTE   INSEG    CODE           ?PR?IPS200PRO_PAGE_SET_TITLE_NAME?ZF_DEVICE_IPS200PRO
   *DEL*:           000095H   BYTE   INSEG    CODE           ?PR?IPS200PRO_LABEL_CREATE?ZF_DEVICE_IPS200PRO
   *DEL*:           000070H   BYTE   INSEG    CODE           ?PR?IPS200PRO_TABLE_SET_COL_WIDTH?ZF_DEVICE_IPS200PRO
   *DEL*:           000053H   BYTE   INSEG    CODE           ?PR?IPS200PRO_SET_BACKLIGHT?ZF_DEVICE_IPS200PRO
L251 LINKER/LOCATER V4.66.93.0                                                        05/06/2026  19:47:11  PAGE 18


   *DEL*:           000095H   BYTE   INSEG    CODE           ?PR?IPS200PRO_IMAGE_CREATE?ZF_DEVICE_IPS200PRO
   *DEL*:           00004DH   BYTE   INSEG    CODE           ?PR?IPS200PRO_GET_FREE_STACK_SIZE?ZF_DEVICE_IPS200PRO
   *DEL*:           000091H   BYTE   INSEG    CODE           ?PR?IPS200PRO_SET_TIME?ZF_DEVICE_IPS200PRO
   *DEL*:           0001BFH   BYTE   INSEG    CODE           ?PR?IPS200PRO_IMAGE_DISPLAY?ZF_DEVICE_IPS200PRO
   *DEL*:           000095H   BYTE   INSEG    CODE           ?PR?IPS200PRO_TABLE_CREATE?ZF_DEVICE_IPS200PRO
   *DEL*:           000095H   BYTE   INSEG    CODE           ?PR?IPS200PRO_CLOCK_CREATE?ZF_DEVICE_IPS200PRO
   *DEL*:           000064H   BYTE   INSEG    CODE           ?PR?IPS200PRO_SET_FONT?ZF_DEVICE_IPS200PRO
   *DEL*:           000176H   BYTE   INSEG    CODE           ?PR?TFT180_SET_REGION?ZF_DEVICE_TFT180
   *DEL*:           00036EH   BYTE   INSEG    CODE           ?PR?TFT180_INIT?ZF_DEVICE_TFT180
   *DEL*:           0001EBH   BYTE   INSEG    CODE           ?PR?TFT180_SHOW_FLOAT?ZF_DEVICE_TFT180
   *DEL*:           000083H   BYTE   INSEG    CODE           ?PR?TFT180_DRAW_POINT?ZF_DEVICE_TFT180
   *DEL*:           0000C4H   BYTE   INSEG    CODE           ?PR?TFT180_SHOW_STRING?ZF_DEVICE_TFT180
   *DEL*:           00011CH   BYTE   INSEG    CODE           ?PR?TFT180_SHOW_CHAR?ZF_DEVICE_TFT180
   *DEL*:           000119H   BYTE   INSEG    CODE           ?PR?TFT180_SHOW_UINT16?ZF_DEVICE_TFT180
   *DEL*:           000025H   BYTE   INSEG    CODE           ?PR?TFT180_SET_COLOR?ZF_DEVICE_TFT180
   *DEL*:           00015EH   BYTE   INSEG    CODE           ?PR?TFT180_SHOW_INT32?ZF_DEVICE_TFT180
   *DEL*:           00016DH   BYTE   INSEG    CODE           ?PR?TFT180_SHOW_INT16?ZF_DEVICE_TFT180
   *DEL*:           000214H   BYTE   INSEG    CODE           ?PR?TFT180_SHOW_WAVE?ZF_DEVICE_TFT180
   *DEL*:           00003BH   BYTE   INSEG    CODE           ?PR?TFT180_SET_DIR?ZF_DEVICE_TFT180
   *DEL*:           000079H   BYTE   INSEG    CODE           ?PR?TFT180_CLEAR?ZF_DEVICE_TFT180
   *DEL*:           0000E9H   BYTE   INSEG    CODE           ?PR?TFT180_SHOW_UINT8?ZF_DEVICE_TFT180
   *DEL*:           00012EH   BYTE   INSEG    CODE           ?PR?TFT180_SHOW_INT8?ZF_DEVICE_TFT180
   *DEL*:           000022H   BYTE   INSEG    CODE           ?PR?TFT180_WRITE_INDEX?ZF_DEVICE_TFT180
   *DEL*:           0000C0H   BYTE   INSEG    CODE           ?PR?TSL1401_SEND_DATA?ZF_DEVICE_TSL1401
   *DEL*:           00003DH   BYTE   INSEG    CODE           ?PR?TSL1401_INIT?ZF_DEVICE_TSL1401
   *DEL*:           0000BEH   BYTE   INSEG    CODE           ?PR?TSL1401_COLLECT_PIT_HANDLER?ZF_DEVICE_TSL1401
   *DEL*:           00002DH   BYTE   INSEG    CODE           ?PR?SET_TOF_TYPE?ZF_DEVICE_TYPE
   *DEL*:           00009FH   BYTE   INSEG    CODE           ?PR?SET_GPS_TYPE?ZF_DEVICE_TYPE
   *DEL*:           00006DH   BYTE   INSEG    CODE           ?PR?WIRELESS_UART_SEND_BYTE?ZF_DEVICE_WIRELESS_UART
   *DEL*:           000084H   BYTE   INSEG    CODE           ?PR?WIRELESS_UART_READ_BUFFER?ZF_DEVICE_WIRELESS_UART
   *DEL*:           0001ABH   BYTE   INSEG    CODE           ?PR?IMU_HANDLE_360?IMU
   *DEL*:           000113H   BYTE   INSEG    CODE           ?PR?IMU_HANDLE_180?IMU
   *DEL*:           000037H   BYTE   INSEG    CODE           ?PR?IMU_HANDLE_0?IMU
   *DEL*:           000079H   BYTE   INSEG    CODE           ?PR?MAIN_LOOP?IMU
   *DEL*:           00000DH   BYTE   INSEG    CODE           ?PR?YAW_RESET?IMU
   *DEL*:           000131H   BYTE   INSEG    CODE           ?PR?FAST_SQRT?IMU
   *DEL*:           0004A1H   BYTE   INSEG    CODE           ?PR?SEEKFREE_ASSISTANT_CAMERA_BOUNDARY_CONFIG?SEEKFREE_ASS
                                                             -ISTANT
   *DEL*:           000142H   BYTE   INSEG    CODE           ?PR?SEEKFREE_ASSISTANT_CAMERA_DOT_SEND?SEEKFREE_ASSISTANT
   *DEL*:           0001A3H   BYTE   INSEG    CODE           ?PR?SEEKFREE_ASSISTANT_OSCILLOSCOPE_SEND?SEEKFREE_ASSISTAN
                                                             -T
   *DEL*:           00002EH   BYTE   INSEG    CODE           ?PR?SEEKFREE_ASSISTANT_INIT?SEEKFREE_ASSISTANT
   *DEL*:           00005AH   BYTE   INSEG    CODE           ?PR?SEEKFREE_ASSISTANT_SUM?SEEKFREE_ASSISTANT
   *DEL*:           000061H   BYTE   INSEG    CODE           ?PR?SEEKFREE_ASSISTANT_CAMERA_INFORMATION_CONFIG?SEEKFREE_
                                                             -ASSISTANT
   *DEL*:           0002B2H   BYTE   INSEG    CODE           ?PR?SEEKFREE_ASSISTANT_DATA_ANALYSIS?SEEKFREE_ASSISTANT
   *DEL*:           00015CH   BYTE   INSEG    CODE           ?PR?SEEKFREE_ASSISTANT_CAMERA_DATA_SEND?SEEKFREE_ASSISTANT
   *DEL*:           00004AH   BYTE   INSEG    CODE           ?PR?SEEKFREE_ASSISTANT_CAMERA_SEND?SEEKFREE_ASSISTANT
   *DEL*:           000059H   BYTE   INSEG    CODE           ?PR?SEEKFREE_ASSISTANT_INTERFACE_INIT?SEEKFREE_ASSISTANT_I
                                                             -NTERFACE
   *DEL*:           00006FH   BYTE   INSEG    CODE           ?PR?MOTOR_PROTECT?MOTO
   *DEL*:           000023H   BYTE   INSEG    CODE           ?PR?LED_SWITCH?LED
   *DEL*:           000023H   BYTE   INSEG    CODE           ?PR?LED_INIT?LED
   *DEL*:           000012H   BYTE   INSEG    CODE           ?PR?LED_OFF?LED
   *DEL*:           000011H   BYTE   INSEG    CODE           ?PR?LED_ON?LED
   *DEL*:           000049H   BYTE   INSEG    CODE           ?PR?RANGE_PROTECT_INT?INDUCTANCE
   *DEL*:           000105H   BYTE   INSEG    CODE           ?PR?INDUCTANCE_COUNT_ERR?INDUCTANCE
   *DEL*:           000095H   BYTE   INSEG    CODE           ?PR?MENU_INIT?MENU
   *DEL*:           0000C9H   BYTE   INSEG    CODE           ?PR?OSCILLOSCOPE_DISPLAY?MENU
   *DEL*:           0000FBH   BYTE   INSEG    CODE           ?PR?MENU_DISPLAY?MENU
   *DEL*:           00000EH   BYTE   INSEG    CODE           ?PR?PARAMETER_DEBUG_INIT?MENU
   *DEL*:           000111H   BYTE   INSEG    CODE           ?PR?PARAMETER_DEBUG?MENU
   *DEL*:           0000F2H   BYTE   INSEG    CODE           ?PR?POW?_?POW
   *DEL*:           000037H   BYTE   INSEG    CODE           ?PR?STRNCMP?_?STRNCMP
   *DEL*:           000030H   BYTE   INSEG    CODE           ?PR?STRNCPY?_?STRNCPY
L251 LINKER/LOCATER V4.66.93.0                                                        05/06/2026  19:47:11  PAGE 19


   *DEL*:           00001FH   BYTE   INSEG    CODE           ?PR?STRCHR?_?STRCHR
   *DEL*:           00001AH   BYTE   INSEG    CODE           ?PR?MEMSET?_?MEMSET



OVERLAY MAP OF MODULE:   .\out_file\SEEKFREE (?C_START)


FUNCTION/MODULE                               XDATA_GROUP
--> CALLED FUNCTION/MODULE                    START  STOP
=========================================================
?C_C51STARTUP                                 ----- -----

*** NEW ROOT ********************************

?C_C51STARTUP?3                               ----- -----
  +--> main/main

main/main                                     ----- -----
  +--> _m/main
  +--> SPRINTF/SPRINTF

_m/main                                       ----- -----
  +--> clock_init/zf_common_clock
  +--> debug_init/zf_common_debug
  +--> ALL_init/all_init
  +--> PID_Init/trank
  +--> gpio_init/zf_driver_gpio
  +--> system_delay_ms/zf_driver_delay
  +--> system_delay_us/zf_driver_delay
  +--> Element_Control/element
  +--> Send_Data_To_PC/menu

clock_init/zf_common_clock                    ----- -----
  +--> set_sys_clk/zf_common_clock
  +--> system_delay_init/zf_driver_delay
  +--> interrupt_global_enable/zf_common_interrupt

set_sys_clk/zf_common_clock                   ----- -----

system_delay_init/zf_driver_delay             ----- -----
  +--> ?C?SLDIV/?C?SLDIV

?C?SLDIV/?C?SLDIV                             ----- -----
  +--> ?C?ULIDIV/?C?ULDIV

?C?ULIDIV/?C?ULDIV                            ----- -----

interrupt_global_enable/zf_common_interr+     ----- -----
... upt

debug_init/zf_common_debug                    ----- -----
  +--> uart_init/zf_driver_uart
  +--> fifo_init/zf_common_fifo
  +--> uart_rx_interrupt/zf_driver_uart
  +--> debug_interrupr_handler/zf_common_debug

uart_init/zf_driver_uart                      ----- -----
  +--> uart_funciton_check/zf_driver_uart
  +--> debug_assert_handler/zf_common_debug
  +--> timer_funciton_check/zf_driver_timer
  +--> gpio_init/zf_driver_gpio
  +--> ?C?ULIDIV/?C?ULDIV
  +--> uart_dma_init/zf_driver_uart

L251 LINKER/LOCATER V4.66.93.0                                                        05/06/2026  19:47:11  PAGE 20


uart_funciton_check/zf_driver_uart            ----- -----

debug_assert_handler/zf_common_debug          ----- -----
  +--> PRINTF/PRINTF
  +--> system_delay_ms/zf_driver_delay

PRINTF/PRINTF                                 11CEH 11F5H
  +--> OUT/PRINTF

OUT/PRINTF                                    ----- -----
  +--> PUTCH/PRINTF

PUTCH/PRINTF                                  ----- -----
  +--> putchar/zf_common_debug
  +--> OUT/PRINTF

putchar/zf_common_debug                       ----- -----
  +--> uart_write_byte/zf_driver_uart

uart_write_byte/zf_driver_uart                ----- -----
  +--> uart_write_buffer/zf_driver_uart

uart_write_buffer/zf_driver_uart              ----- -----
  +--> memcpy?_/memcpy

memcpy?_/memcpy                               ----- -----

system_delay_ms/zf_driver_delay               ----- -----
  +--> delay_cycles/zf_driver_delay

delay_cycles/zf_driver_delay                  ----- -----

timer_funciton_check/zf_driver_timer          ----- -----

gpio_init/zf_driver_gpio                      ----- -----
  +--> debug_assert_handler/zf_common_debug
  +--> gpio_set_dir/zf_driver_gpio
  +--> gpio_set_mode/zf_driver_gpio
  +--> gpio_set_impedance/zf_driver_gpio
  +--> gpio_set_level/zf_driver_gpio

gpio_set_dir/zf_driver_gpio                   ----- -----
  +--> debug_assert_handler/zf_common_debug

gpio_set_mode/zf_driver_gpio                  ----- -----

gpio_set_impedance/zf_driver_gpio             ----- -----

gpio_set_level/zf_driver_gpio                 ----- -----

uart_dma_init/zf_driver_uart                  ----- -----

fifo_init/zf_common_fifo                      ----- -----
  +--> debug_assert_handler/zf_common_debug

uart_rx_interrupt/zf_driver_uart              ----- -----

debug_interrupr_handler/zf_common_debug       ----- -----
  +--> uart_query_byte/zf_driver_uart
  +--> fifo_write_buffer/zf_common_fifo

uart_query_byte/zf_driver_uart                ----- -----
  +--> uart_rx_start_buff/zf_driver_uart

uart_rx_start_buff/zf_driver_uart             ----- -----
L251 LINKER/LOCATER V4.66.93.0                                                        05/06/2026  19:47:11  PAGE 21



fifo_write_buffer/zf_common_fifo              ----- -----
  +--> debug_assert_handler/zf_common_debug
  +--> memcpy?_/memcpy
  +--> fifo_head_offset/zf_common_fifo

fifo_head_offset/zf_common_fifo               ----- -----

ALL_init/all_init                             ----- -----
  +--> interrupt_global_disable/zf_common_interrupt
  +--> imu660ra_init/zf_device_imu660ra
  +--> gyro_init/imu
  +--> pwm_init/zf_driver_pwm
  +--> gpio_init/zf_driver_gpio
  +--> wireless_uart_init/zf_device_wireless_uart
  +--> encoder_init/encoder
  +--> Oscilloscope_Init/menu
  +--> Inductance_Init/inductance
  +--> interrupt_global_enable/zf_common_interrupt

interrupt_global_disable/zf_common_inter+     ----- -----
... rupt

imu660ra_init/zf_device_imu660ra              ----- -----
  +--> system_delay_ms/zf_driver_delay
  +--> imu660ra_read_register/zf_device_imu660ra
  +--> imu660ra_self_check/zf_device_imu660ra
  +--> PRINTF/PRINTF
  +--> imu660ra_write_register/zf_device_imu660ra
  +--> imu660ra_write_registers/zf_device_imu660ra

imu660ra_read_register/zf_device_imu660r+     ----- -----
... a
  +--> imu660ra_simspi_r_reg_bytes/zf_device_imu660ra

imu660ra_simspi_r_reg_bytes/zf_device_im+     ----- -----
... u660ra
  +--> imu660ra_simspi_wr_byte/zf_device_imu660ra

imu660ra_simspi_wr_byte/zf_device_imu660+     ----- -----
... ra

imu660ra_self_check/zf_device_imu660ra        ----- -----
  +--> imu660ra_read_register/zf_device_imu660ra
  +--> PRINTF/PRINTF
  +--> system_delay_ms/zf_driver_delay

imu660ra_write_register/zf_device_imu660+     ----- -----
... ra
  +--> imu660ra_simspi_w_reg_byte/zf_device_imu660ra

imu660ra_simspi_w_reg_byte/zf_device_imu+     ----- -----
... 660ra
  +--> imu660ra_simspi_wr_byte/zf_device_imu660ra

imu660ra_write_registers/zf_device_imu66+     ----- -----
... 0ra
  +--> imu660ra_simspi_w_reg_bytes/zf_device_imu660ra

imu660ra_simspi_w_reg_bytes/zf_device_im+     ----- -----
... u660ra
  +--> imu660ra_simspi_wr_byte/zf_device_imu660ra

gyro_init/imu                                 ----- -----
  +--> IMU_gyro_Offset_Init/imu
L251 LINKER/LOCATER V4.66.93.0                                                        05/06/2026  19:47:11  PAGE 22


  +--> KalmanCreate/imu

IMU_gyro_Offset_Init/imu                      ----- -----
  +--> system_delay_ms/zf_driver_delay

KalmanCreate/imu                              ----- -----

pwm_init/zf_driver_pwm                        ----- -----
  +--> debug_assert_handler/zf_common_debug
  +--> gpio_init/zf_driver_gpio
  +--> ?C?ULIDIV/?C?ULDIV

wireless_uart_init/zf_device_wireless_ua+     ----- -----
... rt
  +--> wireless_uart_callback/zf_device_wireless_uart
  +--> set_wireless_type/zf_device_type
  +--> fifo_init/zf_common_fifo
  +--> gpio_init/zf_driver_gpio
  +--> uart_init/zf_driver_uart
  +--> uart_rx_interrupt/zf_driver_uart

wireless_uart_callback/zf_device_wireles+     ----- -----
... s_uart
  +--> fifo_write_buffer/zf_common_fifo

set_wireless_type/zf_device_type              ----- -----

encoder_init/encoder                          ----- -----
  +--> pit_handler/encoder
  +--> pit_handler4/encoder
  +--> ?C?SLDIV/?C?SLDIV
  +--> pit_init/zf_driver_pit
  +--> encoder_dir_init/zf_driver_encoder

pit_handler/encoder                           ----- -----
  +--> imu660ra_get_acc/zf_device_imu660ra
  +--> imu660ra_get_gyro/zf_device_imu660ra
  +--> gyro_proc/imu
  +--> Inductance_Read/inductance
  +--> Inductance_Count_Err2/inductance
  +--> Dir_Control/trank
  +--> Dir_Control_gyro/trank
  +--> Calculate_Differential_Drive/trank

imu660ra_get_acc/zf_device_imu660ra           ----- -----
  +--> imu660ra_read_registers/zf_device_imu660ra

imu660ra_read_registers/zf_device_imu660+     ----- -----
... ra
  +--> imu660ra_simspi_r_reg_bytes/zf_device_imu660ra

imu660ra_get_gyro/zf_device_imu660ra          ----- -----
  +--> imu660ra_read_registers/zf_device_imu660ra

gyro_proc/imu                                 ----- -----
  +--> IMU_GetValues/imu
  +--> IMU_YAW_integral/imu
  +--> First_complement_Init/imu

IMU_GetValues/imu                             ----- -----
  +--> imu660ra_get_gyro/zf_device_imu660ra
  +--> imu660ra_get_acc/zf_device_imu660ra

IMU_YAW_integral/imu                          ----- -----

L251 LINKER/LOCATER V4.66.93.0                                                        05/06/2026  19:47:11  PAGE 23


First_complement_Init/imu                     ----- -----
  +--> KalmanFilter/imu
  +--> My_abs/imu

KalmanFilter/imu                              ----- -----

My_abs/imu                                    ----- -----

Inductance_Read/inductance                    ----- -----
  +--> adc_convert/zf_driver_adc
  +--> Median_Average_Filter/inductance
  +--> ADC_Normalize_0_100/inductance

adc_convert/zf_driver_adc                     ----- -----

Median_Average_Filter/inductance              ----- -----

ADC_Normalize_0_100/inductance                ----- -----

Inductance_Count_Err2/inductance              ----- -----
  +--> My_abs/imu
  +--> range_protect_float/inductance

range_protect_float/inductance                ----- -----

Dir_Control/trank                             ----- -----
  +--> PID_Calc/trank
  +--> range_protect_float/inductance

PID_Calc/trank                                ----- -----
  +--> My_abs/imu

Dir_Control_gyro/trank                        ----- -----
  +--> PID_Calc/trank
  +--> range_protect_float/inductance

Calculate_Differential_Drive/trank            ----- -----
  +--> range_protect_float/inductance

pit_handler4/encoder                          ----- -----
  +--> Dual_Loop_Control/trank

Dual_Loop_Control/trank                       ----- -----
  +--> encoder_get_count/zf_driver_encoder
  +--> encoder_clear_count/zf_driver_encoder
  +--> IncPID_Calc/trank
  +--> Motor_SetSpeed/moto

encoder_get_count/zf_driver_encoder           ----- -----
  +--> gpio_get_level/zf_driver_gpio

gpio_get_level/zf_driver_gpio                 ----- -----

encoder_clear_count/zf_driver_encoder         ----- -----

IncPID_Calc/trank                             ----- -----

Motor_SetSpeed/moto                           ----- -----
  +--> gpio_set_level/zf_driver_gpio
  +--> ABS/moto
  +--> pwm_set_duty/zf_driver_pwm

ABS/moto                                      ----- -----

pwm_set_duty/zf_driver_pwm                    ----- -----
L251 LINKER/LOCATER V4.66.93.0                                                        05/06/2026  19:47:11  PAGE 24


  +--> debug_assert_handler/zf_common_debug

pit_init/zf_driver_pit                        ----- -----
  +--> ?C?ULIDIV/?C?ULDIV

encoder_dir_init/zf_driver_encoder            ----- -----
  +--> timer_funciton_check/zf_driver_timer
  +--> debug_assert_handler/zf_common_debug
  +--> gpio_init/zf_driver_gpio

Oscilloscope_Init/menu                        ----- -----
  +--> wireless_uart_send_buffer/zf_device_wireless_uart

wireless_uart_send_buffer/zf_device_wire+     ----- -----
... less_uart
  +--> debug_assert_handler/zf_common_debug
  +--> gpio_get_level/zf_driver_gpio
  +--> uart_write_buffer/zf_driver_uart
  +--> system_delay_ms/zf_driver_delay

Inductance_Init/inductance                    ----- -----
  +--> adc_init/zf_driver_adc

adc_init/zf_driver_adc                        ----- -----

PID_Init/trank                                ----- -----

system_delay_us/zf_driver_delay               ----- -----
  +--> delay_cycles/zf_driver_delay

Element_Control/element                       ----- -----
  +--> My_abs/imu

Send_Data_To_PC/menu                          ----- -----
  +--> SPRINTF/SPRINTF
  +--> wireless_uart_send_string/zf_device_wireless_uart

SPRINTF/SPRINTF                               11CEH 11F5H
  +--> OUT/SPRINTF

OUT/SPRINTF                                   ----- -----
  +--> PUTCH/SPRINTF

PUTCH/SPRINTF                                 ----- -----

wireless_uart_send_string/zf_device_wire+     ----- -----
... less_uart
  +--> strlen?_/STRLEN
  +--> debug_assert_handler/zf_common_debug
  +--> wireless_uart_send_buffer/zf_device_wireless_uart

strlen?_/STRLEN                               ----- -----

*** NEW ROOT ********************************

INT0_IRQHandler/isr                           ----- -----

*** NEW ROOT ********************************

INT1_IRQHandler/isr                           ----- -----

*** NEW ROOT ********************************

INT2_IRQHandler/isr                           ----- -----

L251 LINKER/LOCATER V4.66.93.0                                                        05/06/2026  19:47:11  PAGE 25


*** NEW ROOT ********************************

INT3_IRQHandler/isr                           ----- -----

*** NEW ROOT ********************************

INT4_IRQHandler/isr                           ----- -----

*** NEW ROOT ********************************

DMA_UART1_IRQHandler/isr                      ----- -----
  +--> uart_rx_start_buff/zf_driver_uart

*** NEW ROOT ********************************

DMA_UART2_IRQHandler/isr                      ----- -----
  +--> uart_rx_start_buff/zf_driver_uart

*** NEW ROOT ********************************

DMA_UART3_IRQHandler/isr                      ----- -----
  +--> uart_rx_start_buff/zf_driver_uart

*** NEW ROOT ********************************

DMA_UART4_IRQHandler/isr                      ----- -----
  +--> uart_rx_start_buff/zf_driver_uart

*** NEW ROOT ********************************

TM0_IRQHandler/isr                            ----- -----

*** NEW ROOT ********************************

TM1_IRQHandler/isr                            ----- -----

*** NEW ROOT ********************************

TM2_IRQHandler/isr                            ----- -----

*** NEW ROOT ********************************

TM3_IRQHandler/isr                            ----- -----

*** NEW ROOT ********************************

TM4_IRQHandler/isr                            ----- -----

*** NEW ROOT ********************************

?C_C51STARTUP?2                               ----- -----



PUBLIC SYMBOLS OF MODULE:  .\out_file\SEEKFREE (?C_START)


      VALUE       CLASS    TYPE      PUBLIC SYMBOL NAME
      =================================================
      00FF304AH   CODE     ---       ?C?BMOVEPP
      00FF3048H   CODE     ---       ?C?BMOVEPP8
      00FF243EH   CODE     NEAR LAB  ?C?CASTF
      000000FFH   NUMBER   ---       ?C?CODESEG
      00FF240BH   CODE     NEAR LAB  ?C?FCASTC
      00FF2406H   CODE     NEAR LAB  ?C?FCASTI
L251 LINKER/LOCATER V4.66.93.0                                                        05/06/2026  19:47:11  PAGE 26


      00FF2401H   CODE     NEAR LAB  ?C?FCASTL
      00FF2C4BH   CODE     ---       ?C?FP2SERIES
      00FF21D4H   CODE     ---       ?C?FPADD
      00FF23AFH   CODE     ---       ?C?FPCMP
      00FF23ADH   CODE     ---       ?C?FPCMP3
      00FF2E13H   CODE     ---       ?C?FPCONVERT
      00FF232CH   CODE     ---       ?C?FPDIV
      00FF27A1H   CODE     ---       ?C?FPGETOPN2
      00FF228CH   CODE     ---       ?C?FPMUL
      00FF27DEH   CODE     ---       ?C?FPNANRESULT
      00FF23F3H   CODE     ---       ?C?FPNEG
      00FF27E6H   CODE     ---       ?C?FPOVERFLOW
      00FF27BAH   CODE     ---       ?C?FPRESULT
      00FF27D0H   CODE     ---       ?C?FPRESULT2
      00FF2ECBH   CODE     ---       ?C?FPROUND
      00FF2C54H   CODE     ---       ?C?FPSERIES
      00FF21D1H   CODE     ---       ?C?FPSUB
      00FF27E3H   CODE     ---       ?C?FPUNDERFLOW
      00FF2F3EH   CODE     ---       ?C?FTNPWR
      00FF957AH   CODE     ---       ?C?INITHDATA
      00FFA0B6H   HCONST   WORD      ?C?INITHDATA_END
      00FF2FB8H   CODE     ---       ?C?LIMUL
      00FF2FA7H   CODE     ---       ?C?LMUL
      00FF283CH   CODE     ---       ?C?PRNFMT
      00FF2F75H   CODE     ---       ?C?SIDIV
      00FF3014H   CODE     NEAR LAB  ?C?SLDIV
      00FF0000H   CODE     ---       ?C?STARTUP
      00FF2FC3H   CODE     NEAR LAB  ?C?ULDIV
      00FF2FC1H   CODE     NEAR LAB  ?C?ULIDIV
      00000001H   NUMBER   ---       ?C?XDATASEG
      00FF0000H   CODE     ---       ?C_STARTUP
      00011B4DH   XDATA    BYTE      ?eeprom_read?BYTE
      0001179CH   XDATA    BYTE      ?fifo_init?BYTE
      00011458H   XDATA    BYTE      ?fifo_read_buffer?BYTE
      000115F1H   XDATA    BYTE      ?fifo_write_buffer?BYTE
      00011353H   XDATA    BYTE      ?get_two_points_azimuth?BYTE
      00010FB4H   XDATA    BYTE      ?get_two_points_distance?BYTE
      00011B11H   XDATA    BYTE      ?iap_read_buff?BYTE
      00011B1BH   XDATA    BYTE      ?iap_write_buff?BYTE
      0001140DH   XDATA    BYTE      ?ips114_show_chinese?BYTE
      00010FE4H   XDATA    BYTE      ?ips114_show_float?BYTE
      0001123DH   XDATA    BYTE      ?ips114_show_wave?BYTE
      00011426H   XDATA    BYTE      ?ips200_show_chinese?BYTE
      00011014H   XDATA    BYTE      ?ips200_show_float?BYTE
      0001125DH   XDATA    BYTE      ?ips200_show_wave?BYTE
      0001138BH   XDATA    BYTE      ?ips200pro_create_widgets?BYTE
      000111A6H   XDATA    BYTE      ?ips200pro_image_display?BYTE
      000113C0H   XDATA    BYTE      ?ips200pro_image_draw_line?BYTE
      0001121BH   XDATA    BYTE      ?ips200pro_image_draw_rectangle?BYTE
      00010F65H   XDATA    BYTE      ?ips200pro_label_printf?BYTE
      000118E3H   XDATA    BYTE      ?ips200pro_receive_buffer?BYTE
      00011828H   XDATA    BYTE      ?ips200pro_send_buffer?BYTE
      00010F20H   XDATA    BYTE      ?ips200pro_table_cell_printf?BYTE
      000113A6H   XDATA    BYTE      ?ips200pro_waveform_add_value?BYTE
      000112BCH   XDATA    BYTE      ?ips200pro_write_packet?BYTE
      00011A8BH   XDATA    BYTE      ?KalmanCreate?BYTE
      000113DAH   XDATA    BYTE      ?Oscilloscope_Display?BYTE
      0001143FH   XDATA    BYTE      ?Parameter_Debug?BYTE
      00011A97H   XDATA    BYTE      ?PID_Calc?BYTE
      0001136FH   XDATA    BYTE      ?PID_Init?BYTE
      000111F6H   XDATA    ---       ?printf?BYTE
      00011603H   XDATA    BYTE      ?pwm_init?BYTE
      000114F2H   XDATA    BYTE      ?pwm_set_freq?BYTE
      00011AA3H   XDATA    BYTE      ?range_protect_float?BYTE
      000112DBH   XDATA    BYTE      ?seekfree_assistant_camera_boundary_config?BYTE
L251 LINKER/LOCATER V4.66.93.0                                                        05/06/2026  19:47:11  PAGE 27


      0001178DH   XDATA    BYTE      ?seekfree_assistant_camera_data_send?BYTE
      00011B7FH   XDATA    BYTE      ?seekfree_assistant_camera_information_config?BYTE
      00011895H   XDATA    BYTE      ?soft_iic_init?BYTE
      0001193BH   XDATA    BYTE      ?soft_iic_read_16bit_array?BYTE
      000117D4H   XDATA    BYTE      ?soft_iic_read_16bit_registers?BYTE
      0001192FH   XDATA    BYTE      ?soft_iic_read_8bit_array?BYTE
      00011888H   XDATA    BYTE      ?soft_iic_read_8bit_registers?BYTE
      0001151AH   XDATA    BYTE      ?soft_iic_transfer_16bit_array?BYTE
      00011506H   XDATA    BYTE      ?soft_iic_transfer_8bit_array?BYTE
      00011923H   XDATA    BYTE      ?soft_iic_write_16bit_array?BYTE
      000117C6H   XDATA    BYTE      ?soft_iic_write_16bit_registers?BYTE
      00011917H   XDATA    BYTE      ?soft_iic_write_8bit_array?BYTE
      0001187BH   XDATA    BYTE      ?soft_iic_write_8bit_registers?BYTE
      000114A0H   XDATA    BYTE      ?soft_spi_init?BYTE
      0001196BH   XDATA    BYTE      ?soft_spi_read_16bit_array?BYTE
      000117F0H   XDATA    BYTE      ?soft_spi_read_16bit_registers?BYTE
      0001195FH   XDATA    BYTE      ?soft_spi_read_8bit_array?BYTE
      000118AFH   XDATA    BYTE      ?soft_spi_read_8bit_registers?BYTE
      000116F3H   XDATA    BYTE      ?soft_spi_transfer_16bit?BYTE
      000116E3H   XDATA    BYTE      ?soft_spi_transfer_8bit?BYTE
      00011953H   XDATA    BYTE      ?soft_spi_write_16bit_array?BYTE
      000117E2H   XDATA    BYTE      ?soft_spi_write_16bit_registers?BYTE
      00011947H   XDATA    BYTE      ?soft_spi_write_8bit_array?BYTE
      000118A2H   XDATA    BYTE      ?soft_spi_write_8bit_registers?BYTE
      0001152EH   XDATA    BYTE      ?spi_init?BYTE
      00011B43H   XDATA    BYTE      ?spi_read_16bit_array?BYTE
      00011983H   XDATA    BYTE      ?spi_read_16bit_registers?BYTE
      00011B39H   XDATA    BYTE      ?spi_read_8bit_array?BYTE
      00011ADBH   XDATA    BYTE      ?spi_read_8bit_registers?BYTE
      0001180CH   XDATA    BYTE      ?spi_transfer_16bit?BYTE
      000117FEH   XDATA    BYTE      ?spi_transfer_8bit?BYTE
      00011B2FH   XDATA    BYTE      ?spi_write_16bit_array?BYTE
      00011977H   XDATA    BYTE      ?spi_write_16bit_registers?BYTE
      00011B25H   XDATA    BYTE      ?spi_write_8bit_array?BYTE
      00011AD0H   XDATA    BYTE      ?spi_write_8bit_registers?BYTE
      000111F6H   XDATA    ---       ?sprintf?BYTE
      00011044H   XDATA    BYTE      ?tft180_show_float?BYTE
      0001127DH   XDATA    BYTE      ?tft180_show_wave?BYTE
      000119A7H   XDATA    BYTE      ?uart_init?BYTE
      00010E0EH   XDATA    BYTE      ?vsnprintf?BYTE
      00010C78H   XDATA    BYTE      ?zf_sprintf?BYTE
      00FF27F2H   CODE     ---       _chkfloat_?_
      00FF66FFH   CODE     ---       _m
      00FF9A0AH   CODE     ---       ABS
*SFR* 000000D0H.6 DATA     BIT       AC
*SFR* 000000E0H   DATA     BYTE      ACC
      00011AB0H   XDATA    ---       adc_average
*DEL*:00000000H   CODE     ---       ADC_Collect
*SFR* 000000BCH   DATA     BYTE      ADC_CONTR
      00FF9209H   CODE     ---       adc_convert
      00011852H   XDATA    ---       adc_inductance
      00FF80FBH   CODE     ---       adc_init
*DEL*:00000000H   CODE     ---       adc_mean_filter_convert
      00FF8A93H   CODE     ---       ADC_Normalize_0_100
*SFR* 000000BDH   DATA     BYTE      ADC_RES
*SFR* 000000BEH   DATA     BYTE      ADC_RESL
*SFR* 000000DEH   DATA     BYTE      ADCCFG
      00FF90D5H   CODE     ---       ALL_init
      00FF36B4H   CODE     ---       ascii_font_8x16
      00FF2781H   CODE     ---       asin?_
      00FF26AFH   CODE     ---       atan?_
*SFR* 000000EFH   DATA     BYTE      AUXINTIF
*SFR* 0000008EH   DATA     BYTE      AUXR
*SFR* 00000097H   DATA     BYTE      AUXR2
*SFR* 000000F0H   DATA     BYTE      B
L251 LINKER/LOCATER V4.66.93.0                                                        05/06/2026  19:47:11  PAGE 28


*DEL*:00000000H   CODE     ---       ble6a20_callback
*DEL*:00000000H   CODE     ---       ble6a20_init
*DEL*:00000000H   CODE     ---       ble6a20_read_buffer
*DEL*:00000000H   CODE     ---       ble6a20_send_buffer
*DEL*:00000000H   CODE     ---       ble6a20_send_byte
*DEL*:00000000H   CODE     ---       ble6a20_send_string
*SFR* 000000C8H.1 DATA     BIT       C_T2
      00FF7107H   CODE     ---       Calculate_Differential_Drive
*SFR* 000000F1H   DATA     BYTE      CANICR
*SFR* 000000FAH   DATA     BYTE      CCAP0H
*SFR* 000000EAH   DATA     BYTE      CCAP0L
*SFR* 000000FBH   DATA     BYTE      CCAP1H
*SFR* 000000EBH   DATA     BYTE      CCAP1L
*SFR* 000000FCH   DATA     BYTE      CCAP2H
*SFR* 000000ECH   DATA     BYTE      CCAP2L
*SFR* 000000FDH   DATA     BYTE      CCAP3H
*SFR* 000000EDH   DATA     BYTE      CCAP3L
*SFR* 000000FEH   DATA     BYTE      CCAP4H
*SFR* 000000EEH   DATA     BYTE      CCAP4L
*SFR* 000000DAH   DATA     BYTE      CCAPM0
*SFR* 000000DBH   DATA     BYTE      CCAPM1
*SFR* 000000DCH   DATA     BYTE      CCAPM2
*SFR* 000000DDH   DATA     BYTE      CCAPM3
*SFR* 000000DEH   DATA     BYTE      CCAPM4
*SFR* 000000D8H.0 DATA     BIT       CCF0
*SFR* 000000D8H.1 DATA     BIT       CCF1
*SFR* 000000D8H.2 DATA     BIT       CCF2
*SFR* 000000D8H.3 DATA     BIT       CCF3
*SFR* 000000D8H.4 DATA     BIT       CCF4
*SFR* 000000D8H   DATA     BYTE      CCON
*SFR* 00000090H.3 DATA     BIT       CEX0
*SFR* 00000090H.4 DATA     BIT       CEX1
*SFR* 00000090H.5 DATA     BIT       CEX2
*SFR* 00000090H.6 DATA     BIT       CEX3
*SFR* 00000090H.7 DATA     BIT       CEX4
*SFR* 000000D8H.7 DATA     BIT       CF
*SFR* 000000F9H   DATA     BYTE      CH
*SFR* 000000EAH   DATA     BYTE      CKCON
*SFR* 000000E9H   DATA     BYTE      CL
      00FF8BA4H   CODE     ---       clock_init
*SFR* 000000D9H   DATA     BYTE      CMOD
*SFR* 000000E6H   DATA     BYTE      CMPCR1
*SFR* 000000E7H   DATA     BYTE      CMPCR2
      00FF259FH   CODE     ---       cos?_
*SFR* 000000C8H.0 DATA     BIT       CP_RL2
*SFR* 000000D8H.6 DATA     BIT       CR
      00010D5CH   XDATA    FLOAT     CUR_PARA
*SFR* 000000D0H.7 DATA     BIT       CY
      00010A3EH   XDATA    ---       data_buffer
      00010924H   XDATA    FLOAT     Daty_X
      00010928H   XDATA    FLOAT     Daty_Y
      0001092CH   XDATA    FLOAT     Daty_Z
      00FF8E24H   CODE     ---       debug_assert_handler
      00FF84A2H   CODE     ---       debug_init
      00FF98CFH   CODE     ---       debug_interrupr_handler
*DEL*:00000000H   CODE     ---       debug_read_buffer
*DEL*:00000000H   CODE     ---       debug_send_buffer
      00010CAFH   XDATA    ---       debug_uart_buffer
      00010CF0H   XDATA    ---       debug_uart_fifo
      00FF8032H   CODE     ---       Dir_Control
      00FF91A3H   CODE     ---       Dir_Control_gyro
      000118C5H   XDATA    WORD      dl1a_distance_mm
      000118C7H   XDATA    BYTE      dl1a_finsh_flag
*DEL*:00000000H   CODE     ---       dl1a_get_distance
*DEL*:00000000H   CODE     ---       dl1a_init
L251 LINKER/LOCATER V4.66.93.0                                                        05/06/2026  19:47:11  PAGE 29


*DEL*:00000000H   CODE     ---       dl1a_int_handler
      000118D2H   XDATA    WORD      dl1b_distance_mm
      000118D4H   XDATA    BYTE      dl1b_finsh_flag
*DEL*:00000000H   CODE     ---       dl1b_get_distance
*DEL*:00000000H   CODE     ---       dl1b_init
*DEL*:00000000H   CODE     ---       dl1b_int_handler
      00FF83F2H   CODE     ---       DMA_UART1_IRQHandler
      00FF87CEH   CODE     ---       DMA_UART2_IRQHandler
      00FF885DH   CODE     ---       DMA_UART3_IRQHandler
      00FF88ECH   CODE     ---       DMA_UART4_IRQHandler
*SFR* 00000083H   DATA     BYTE      DPH
*SFR* 00000082H   DATA     BYTE      DPL
*SFR* 00000084H   DATA     BYTE      DPXL
      00FF8B1CH   CODE     ---       Dual_Loop_Control
*SFR* 000000A8H.7 DATA     BIT       EA
*SFR* 000000BAH.7 DATA     BIT       EAXFR
*SFR* 000000A8H.6 DATA     BIT       EC
*SFR* 00000090H.2 DATA     BIT       ECI
*DEL*:00000000H   CODE     ---       eeprom_init
*DEL*:00000000H   CODE     ---       eeprom_read
*DEL*:00000000H   CODE     ---       eeprom_read_value
*DEL*:00000000H   CODE     ---       eeprom_trig
*DEL*:00000000H   CODE     ---       eeprom_write_value
      00FF5181H   CODE     ---       Element_Control
      0001083BH   XDATA    FLOAT     elemid
      00010711H   XDATA    FLOAT     eleOut_0
      00010715H   XDATA    FLOAT     eleOut_1
      00010769H   XDATA    FLOAT     eleValue
      00FF926EH   CODE     ---       encoder_clear_count
      00FF7A8DH   CODE     ---       encoder_dir_init
      00FF7B9AH   CODE     ---       encoder_get_count
      00FF8FFDH   CODE     ---       encoder_init
*SFR* 000000A8H.4 DATA     BIT       ES
*SFR* 000000A8H.1 DATA     BIT       ET0
*SFR* 000000A8H.3 DATA     BIT       ET1
*SFR* 000000A8H.5 DATA     BIT       ET2
*SFR* 000000A8H.0 DATA     BIT       EX0
*SFR* 000000A8H.2 DATA     BIT       EX1
*SFR* 0000008FH.4 DATA     BIT       EX2
*SFR* 0000008FH.5 DATA     BIT       EX3
*SFR* 0000008FH.6 DATA     BIT       EX4
*SFR* 000000C8H.3 DATA     BIT       EXEN2
*SFR* 000000C8H.6 DATA     BIT       EXF2
      00FF2CB1H   CODE     ---       exp?_
*DEL*:00000000H   CODE     ---       extern_iap_write_buff
*DEL*:00000000H   CODE     ---       exti_all_close
*DEL*:00000000H   CODE     ---       exti_disable
*DEL*:00000000H   CODE     ---       exti_enable
*DEL*:00000000H   CODE     ---       exti_init
*SFR* 000000D0H.5 DATA     BIT       F0
*DEL*:00000000H   CODE     ---       fast_sqrt
*SFR* 00000098H.7 DATA     BIT       FE
*DEL*:00000000H   CODE     ---       fifo_clear
      00FF7D91H   CODE     ---       fifo_init
*DEL*:00000000H   CODE     ---       fifo_read_buffer
*DEL*:00000000H   CODE     ---       fifo_used
      00FF3CA4H   CODE     ---       fifo_write_buffer
      000108F8H   XDATA    ---       first_complement
      00FF47D0H   CODE     ---       First_complement_Init
*DEL*:00000000H   CODE     ---       func_double_to_str
*DEL*:00000000H   CODE     ---       func_float_to_str
*DEL*:00000000H   CODE     ---       func_get_greatest_common_divisor
*DEL*:00000000H   CODE     ---       func_hex_to_str
*DEL*:00000000H   CODE     ---       func_int_to_str
*DEL*:00000000H   CODE     ---       func_soft_delay
L251 LINKER/LOCATER V4.66.93.0                                                        05/06/2026  19:47:11  PAGE 30


*DEL*:00000000H   CODE     ---       func_str_to_double
*DEL*:00000000H   CODE     ---       func_str_to_float
*DEL*:00000000H   CODE     ---       func_str_to_hex
*DEL*:00000000H   CODE     ---       func_str_to_int
*DEL*:00000000H   CODE     ---       func_str_to_uint
*DEL*:00000000H   CODE     ---       func_uint_to_str
*DEL*:00000000H   CODE     ---       get_two_points_azimuth
*DEL*:00000000H   CODE     ---       get_two_points_distance
      00FF725AH   CODE     ---       gpio_get_level
      00FF797EH   CODE     ---       gpio_init
      00FF6A94H   CODE     ---       gpio_set_impedance
      00FF5D3BH   CODE     ---       gpio_set_level
*DEL*:00000000H   CODE     ---       gpio_set_level_speed
*DEL*:00000000H   CODE     ---       gpio_toggle_level
*DEL*:00000000H   CODE     ---       gps_data_parse
      000105D0H   XDATA    INT       gps_gga_state
*DEL*:00000000H   CODE     ---       gps_init
      000105D2H   XDATA    INT       gps_rmc_state
      000104A4H   XDATA    ---       gps_tau1201
      00010423H   XDATA    BYTE      gps_tau1201_flag
      00011D53H   XDATA    INT       gps_type
*DEL*:00000000H   CODE     ---       gps_uart_callback
      0001095EH   XDATA    ---       gyro_buffer
      00FF9601H   CODE     ---       gyro_init
      00010940H   XDATA    ---       Gyro_Offset
      000108A8H   XDATA    FLOAT     gyro_Offset_flag
      000107B3H   XDATA    ---       Gyro_PID
      00FF019EH   CODE     ---       gyro_proc
      000107B1H   XDATA    INT       Gyro_Z
      000108ECH   XDATA    FLOAT     gyrox
      000108F0H   XDATA    FLOAT     gyroy
      000108F4H   XDATA    FLOAT     gyroz
*SFR* 000000F6H   DATA     BYTE      IAP_ADDRE
*SFR* 000000C3H   DATA     BYTE      IAP_ADDRH
*SFR* 000000C4H   DATA     BYTE      IAP_ADDRL
*SFR* 000000C5H   DATA     BYTE      IAP_CMD
*SFR* 000000C7H   DATA     BYTE      IAP_CONTR
*SFR* 000000C2H   DATA     BYTE      IAP_DATA
*DEL*:00000000H   CODE     ---       iap_erase_page
*DEL*:00000000H   CODE     ---       iap_get_cmd_state
*DEL*:00000000H   CODE     ---       iap_idle
*DEL*:00000000H   CODE     ---       iap_init
*DEL*:00000000H   CODE     ---       iap_read_buff
*DEL*:00000000H   CODE     ---       iap_read_byte
*DEL*:00000000H   CODE     ---       iap_set_tps
*SFR* 000000F5H   DATA     BYTE      IAP_TPS
*SFR* 000000C6H   DATA     BYTE      IAP_TRIG
*DEL*:00000000H   CODE     ---       iap_write_buff
*DEL*:00000000H   CODE     ---       iap_write_byte
      00011542H   XDATA    INT       icm20602_acc_x
      00011544H   XDATA    INT       icm20602_acc_y
      00011546H   XDATA    INT       icm20602_acc_z
*DEL*:00000000H   CODE     ---       icm20602_get_acc
*DEL*:00000000H   CODE     ---       icm20602_get_gyro
      00011548H   XDATA    INT       icm20602_gyro_x
      0001154AH   XDATA    INT       icm20602_gyro_y
      0001154CH   XDATA    INT       icm20602_gyro_z
*DEL*:00000000H   CODE     ---       icm20602_init
      0001154EH   XDATA    ---       icm20602_transition_factor
*SFR* 000000A8H   DATA     BYTE      IE
*SFR* 000000A8H   DATA     BYTE      IE0
*SFR* 00000088H.1 DATA     BIT       IE0_
*SFR* 000000B1H   DATA     BYTE      IE1
*SFR* 00000088H.3 DATA     BIT       IE1_
*SFR* 000000AFH   DATA     BYTE      IE2
L251 LINKER/LOCATER V4.66.93.0                                                        05/06/2026  19:47:11  PAGE 31


      00011556H   XDATA    INT       imu660ra_acc_x
      00011558H   XDATA    INT       imu660ra_acc_y
      0001155AH   XDATA    INT       imu660ra_acc_z
      00FF01CEH   CODE     ---       imu660ra_config_file
      00FF94A7H   CODE     ---       imu660ra_get_acc
      00FF944DH   CODE     ---       imu660ra_get_gyro
      0001155CH   XDATA    INT       imu660ra_gyro_x
      0001155EH   XDATA    INT       imu660ra_gyro_y
      00011560H   XDATA    INT       imu660ra_gyro_z
      00FF6161H   CODE     ---       imu660ra_init
      00011562H   XDATA    ---       imu660ra_transition_factor
*DEL*:00000000H   CODE     ---       imu660rb_acc_transition
      000119FBH   XDATA    INT       imu660rb_acc_x
      000119FDH   XDATA    INT       imu660rb_acc_y
      000119FFH   XDATA    INT       imu660rb_acc_z
*DEL*:00000000H   CODE     ---       imu660rb_get_acc
*DEL*:00000000H   CODE     ---       imu660rb_get_gyro
*DEL*:00000000H   CODE     ---       imu660rb_gyro_transition
      00011A01H   XDATA    INT       imu660rb_gyro_x
      00011A03H   XDATA    INT       imu660rb_gyro_y
      00011A05H   XDATA    INT       imu660rb_gyro_z
*DEL*:00000000H   CODE     ---       imu660rb_init
      00011318H   XDATA    INT       imu963ra_acc_x
      0001131AH   XDATA    INT       imu963ra_acc_y
      0001131CH   XDATA    INT       imu963ra_acc_z
*DEL*:00000000H   CODE     ---       imu963ra_get_acc
*DEL*:00000000H   CODE     ---       imu963ra_get_gyro
*DEL*:00000000H   CODE     ---       imu963ra_get_mag
      00011324H   XDATA    INT       imu963ra_gyro_x
      00011326H   XDATA    INT       imu963ra_gyro_y
      00011328H   XDATA    INT       imu963ra_gyro_z
*DEL*:00000000H   CODE     ---       imu963ra_init
      0001131EH   XDATA    INT       imu963ra_mag_x
      00011320H   XDATA    INT       imu963ra_mag_y
      00011322H   XDATA    INT       imu963ra_mag_z
      0001132AH   XDATA    ---       imu963ra_transition_factor
      0001185EH   XDATA    WORD      imu_cnt
      0001090CH   XDATA    ---       IMU_Data
      00FF6F83H   CODE     ---       IMU_GetValues
      00FF774FH   CODE     ---       IMU_gyro_Offset_Init
*DEL*:00000000H   CODE     ---       IMU_Handle_0
*DEL*:00000000H   CODE     ---       IMU_Handle_180
*DEL*:00000000H   CODE     ---       IMU_Handle_360
      00FF8F15H   CODE     ---       IMU_YAW_integral
      00FF5B15H   CODE     ---       IncPID_Calc
*DEL*:00000000H   CODE     ---       Inductance_Count_Err
      00FF7619H   CODE     ---       Inductance_Count_Err2
      00010D0CH   XDATA    ---       inductance_filter_data
      00FF9AA1H   CODE     ---       Inductance_Init
      00010D16H   XDATA    ---       inductance_init_data
      00FF6DE9H   CODE     ---       Inductance_Read
      00011FD2H   XDATA    ---       init_buff
*SFR* 000000B0H.2 DATA     BIT       INT0
      00011306H   XDATA    ---       int0_irq_handler
      00FF964FH   CODE     ---       INT0_IRQHandler
*SFR* 000000B0H.3 DATA     BIT       INT1
      0001130AH   XDATA    ---       int1_irq_handler
      00FF968FH   CODE     ---       INT1_IRQHandler
      0001130EH   XDATA    ---       int2_irq_handler
      00FF96CFH   CODE     ---       INT2_IRQHandler
      00011312H   XDATA    ---       int3_irq_handler
      00FF970FH   CODE     ---       INT3_IRQHandler
      00011316H   XDATA    ---       int4_irq_handler
      00FF974FH   CODE     ---       INT4_IRQHandler
*SFR* 0000008FH   DATA     BYTE      INTCLKO
L251 LINKER/LOCATER V4.66.93.0                                                        05/06/2026  19:47:11  PAGE 32


      00FF0006H   CODE     ---       interrupt_global_disable
      00FF000EH   CODE     ---       interrupt_global_enable
*DEL*:00000000H   CODE     ---       interrupt_set_priority
*SFR* 000000B8H   DATA     BYTE      IP
*SFR* 000000B5H   DATA     BYTE      IP2
*SFR* 000000B6H   DATA     BYTE      IP2H
*SFR* 000000DFH   DATA     BYTE      IP3
*SFR* 000000EEH   DATA     BYTE      IP3H
*SFR* 000000B7H   DATA     BYTE      IPH
*SFR* 000000B7H   DATA     BYTE      IPH0
*SFR* 000000B8H   DATA     BYTE      IPL0
      00011D07H   XDATA    WORD      ips114_bgcolor
*DEL*:00000000H   CODE     ---       ips114_clear
      00011D09H   XDATA    INT       ips114_display_dir
*DEL*:00000000H   CODE     ---       ips114_draw_point
*DEL*:00000000H   CODE     ---       ips114_init
      00011D05H   XDATA    WORD      ips114_pencolor
*DEL*:00000000H   CODE     ---       ips114_set_color
*DEL*:00000000H   CODE     ---       ips114_set_dir
*DEL*:00000000H   CODE     ---       ips114_show_char
*DEL*:00000000H   CODE     ---       ips114_show_chinese
*DEL*:00000000H   CODE     ---       ips114_show_float
*DEL*:00000000H   CODE     ---       ips114_show_int16
*DEL*:00000000H   CODE     ---       ips114_show_int32
*DEL*:00000000H   CODE     ---       ips114_show_int8
*DEL*:00000000H   CODE     ---       ips114_show_string
*DEL*:00000000H   CODE     ---       ips114_show_uint16
*DEL*:00000000H   CODE     ---       ips114_show_uint8
*DEL*:00000000H   CODE     ---       ips114_show_wave
      00011D0BH   XDATA    BYTE      ips114_x_max
      00011D0CH   XDATA    BYTE      ips114_y_max
      00011B63H   XDATA    WORD      ips200_bgcolor
*DEL*:00000000H   CODE     ---       ips200_clear
      00011B65H   XDATA    INT       ips200_display_dir
*DEL*:00000000H   CODE     ---       ips200_draw_point
*DEL*:00000000H   CODE     ---       ips200_init
      00011B61H   XDATA    WORD      ips200_pencolor
*DEL*:00000000H   CODE     ---       ips200_set_color
*DEL*:00000000H   CODE     ---       ips200_set_dir
*DEL*:00000000H   CODE     ---       ips200_show_char
*DEL*:00000000H   CODE     ---       ips200_show_chinese
*DEL*:00000000H   CODE     ---       ips200_show_float
*DEL*:00000000H   CODE     ---       ips200_show_int16
*DEL*:00000000H   CODE     ---       ips200_show_int32
*DEL*:00000000H   CODE     ---       ips200_show_int8
*DEL*:00000000H   CODE     ---       ips200_show_string
*DEL*:00000000H   CODE     ---       ips200_show_uint16
*DEL*:00000000H   CODE     ---       ips200_show_uint8
*DEL*:00000000H   CODE     ---       ips200_show_wave
      00011B67H   XDATA    WORD      ips200_x_max
      00011B69H   XDATA    WORD      ips200_y_max
*DEL*:00000000H   CODE     ---       ips200pro_calendar_create
*DEL*:00000000H   CODE     ---       ips200pro_calendar_display
*DEL*:00000000H   CODE     ---       ips200pro_clock_create
*DEL*:00000000H   CODE     ---       ips200pro_container_create
*DEL*:00000000H   CODE     ---       ips200pro_container_radius
*DEL*:00000000H   CODE     ---       ips200pro_create_widgets
*DEL*:00000000H   CODE     ---       ips200pro_delete_widgets
*DEL*:00000000H   CODE     ---       ips200pro_get_date
*DEL*:00000000H   CODE     ---       ips200pro_get_free_stack_size
*DEL*:00000000H   CODE     ---       ips200pro_get_information
*DEL*:00000000H   CODE     ---       ips200pro_get_time
*DEL*:00000000H   CODE     ---       ips200pro_image_create
*DEL*:00000000H   CODE     ---       ips200pro_image_display
*DEL*:00000000H   CODE     ---       ips200pro_image_draw_line
L251 LINKER/LOCATER V4.66.93.0                                                        05/06/2026  19:47:11  PAGE 33


*DEL*:00000000H   CODE     ---       ips200pro_image_draw_rectangle
      00010E94H   XDATA    ---       ips200pro_information
*DEL*:00000000H   CODE     ---       ips200pro_init
*DEL*:00000000H   CODE     ---       ips200pro_label_create
*DEL*:00000000H   CODE     ---       ips200pro_label_mode
*DEL*:00000000H   CODE     ---       ips200pro_label_printf
*DEL*:00000000H   CODE     ---       ips200pro_label_show_string
*DEL*:00000000H   CODE     ---       ips200pro_meter_create
*DEL*:00000000H   CODE     ---       ips200pro_meter_set_value
*DEL*:00000000H   CODE     ---       ips200pro_page_create
*DEL*:00000000H   CODE     ---       ips200pro_page_hidden
*DEL*:00000000H   CODE     ---       ips200pro_page_set_title_name
*DEL*:00000000H   CODE     ---       ips200pro_page_set_title_position_width
*DEL*:00000000H   CODE     ---       ips200pro_page_switch
*DEL*:00000000H   CODE     ---       ips200pro_progress_bar_create
*DEL*:00000000H   CODE     ---       ips200pro_progress_bar_set_value
*DEL*:00000000H   CODE     ---       ips200pro_read_parameter
*DEL*:00000000H   CODE     ---       ips200pro_receive_buffer
*DEL*:00000000H   CODE     ---       ips200pro_send_buffer
*DEL*:00000000H   CODE     ---       ips200pro_set_backlight
*DEL*:00000000H   CODE     ---       ips200pro_set_color
*DEL*:00000000H   CODE     ---       ips200pro_set_crc_state
*DEL*:00000000H   CODE     ---       ips200pro_set_date
*DEL*:00000000H   CODE     ---       ips200pro_set_default_font
*DEL*:00000000H   CODE     ---       ips200pro_set_direction
*DEL*:00000000H   CODE     ---       ips200pro_set_font
*DEL*:00000000H   CODE     ---       ips200pro_set_format
*DEL*:00000000H   CODE     ---       ips200pro_set_hidden
*DEL*:00000000H   CODE     ---       ips200pro_set_optimize
*DEL*:00000000H   CODE     ---       ips200pro_set_parent
*DEL*:00000000H   CODE     ---       ips200pro_set_position
*DEL*:00000000H   CODE     ---       ips200pro_set_time
*DEL*:00000000H   CODE     ---       ips200pro_table_cell_printf
*DEL*:00000000H   CODE     ---       ips200pro_table_create
*DEL*:00000000H   CODE     ---       ips200pro_table_select
*DEL*:00000000H   CODE     ---       ips200pro_table_set_col_width
      00010E9DH   XDATA    ---       ips200pro_time
*DEL*:00000000H   CODE     ---       ips200pro_waveform_add_value
*DEL*:00000000H   CODE     ---       ips200pro_waveform_clear
*DEL*:00000000H   CODE     ---       ips200pro_waveform_create
*DEL*:00000000H   CODE     ---       ips200pro_waveform_line_state
*DEL*:00000000H   CODE     ---       ips200pro_waveform_line_type
*DEL*:00000000H   CODE     ---       ips200pro_write_packet
*SFR* 0000009DH   DATA     BYTE      IRCBAND
*SFR* 0000009FH   DATA     BYTE      IRTRIM
*SFR* 00000088H.0 DATA     BIT       IT0
*SFR* 00000088H.2 DATA     BIT       IT1
      00010847H   XDATA    ---       Kalman1
      00010877H   XDATA    ---       Kalman2
      00FF7CA3H   CODE     ---       KalmanCreate
      00FF58EDH   CODE     ---       KalmanFilter
*DEL*:00000000H   CODE     ---       LED_Init
*DEL*:00000000H   CODE     ---       LED_Off
*DEL*:00000000H   CODE     ---       LED_On
*DEL*:00000000H   CODE     ---       LED_Switch
      0001076DH   XDATA    ---       left_spid
*SFR* 000000F9H   DATA     BYTE      LINICR
      00FF2D40H   CODE     NEAR LAB  log?_
      00FF99B6H   CODE     ---       MAIN
*DEL*:00000000H   CODE     ---       main_loop
      00010934H   XDATA    FLOAT     Max_Delta_Pitch
      0001094CH   XDATA    FLOAT     Max_Delta_Roll
      00FF74E2H   CODE     ---       Median_Average_Filter
      00FF9AC6H   CODE     ---       memcpy?_
*DEL*:00000000H   CODE     ---       memset?_
L251 LINKER/LOCATER V4.66.93.0                                                        05/06/2026  19:47:11  PAGE 34


*DEL*:00000000H   CODE     ---       Menu_Display
*DEL*:00000000H   CODE     ---       Menu_Init
*DEL*:00000000H   CODE     ---       Motor_Protect
      00FF8A08H   CODE     ---       Motor_SetSpeed
      00FF9981H   CODE     ---       My_abs
      00011D7FH   XDATA    FLOAT     Nowangel
*DEL*:00000000H   CODE     ---       Oscilloscope_Display
      00FF0046H   CODE     ---       Oscilloscope_Init
*SFR* 000000D0H.2 DATA     BIT       OV
*SFR* 000000D0H.0 DATA     BIT       P
*SFR* 00000080H   DATA     BYTE      P0
*SFR* 00000094H   DATA     BYTE      P0M0
*SFR* 00000093H   DATA     BYTE      P0M1
*SFR* 00000090H   DATA     BYTE      P1
*SFR* 00000092H   DATA     BYTE      P1M0
*SFR* 00000091H   DATA     BYTE      P1M1
*SFR* 000000A0H   DATA     BYTE      P2
*SFR* 000000A0H.0 DATA     BIT       P20
*SFR* 000000A0H.1 DATA     BIT       P21
*SFR* 000000A0H.2 DATA     BIT       P22
*SFR* 00000096H   DATA     BYTE      P2M0
*SFR* 00000095H   DATA     BYTE      P2M1
*SFR* 000000B0H   DATA     BYTE      P3
*SFR* 000000B2H   DATA     BYTE      P3M0
*SFR* 000000B1H   DATA     BYTE      P3M1
*SFR* 000000C0H   DATA     BYTE      P4
*SFR* 000000C0H.0 DATA     BIT       P40
*SFR* 000000C0H.1 DATA     BIT       P41
*SFR* 000000C0H.2 DATA     BIT       P42
*SFR* 000000C0H.3 DATA     BIT       P43
*SFR* 000000B4H   DATA     BYTE      P4M0
*SFR* 000000B3H   DATA     BYTE      P4M1
*SFR* 000000C8H   DATA     BYTE      P5
*SFR* 000000CAH   DATA     BYTE      P5M0
*SFR* 000000C9H   DATA     BYTE      P5M1
*SFR* 000000E8H   DATA     BYTE      P6
*SFR* 000000CCH   DATA     BYTE      P6M0
*SFR* 000000CBH   DATA     BYTE      P6M1
*SFR* 000000F8H   DATA     BYTE      P7
*SFR* 000000F8H.7 DATA     BIT       P77
*SFR* 000000E2H   DATA     BYTE      P7M0
*SFR* 000000E1H   DATA     BYTE      P7M1
*SFR* 000000A2H   DATA     BYTE      P_SW1
*SFR* 000000BAH   DATA     BYTE      P_SW2
*SFR* 000000BBH   DATA     BYTE      P_SW3
*DEL*:00000000H   CODE     ---       Parameter_Debug
*DEL*:00000000H   CODE     ---       Parameter_Debug_Init
*SFR* 00000087H   DATA     BYTE      PCON
      00FF56B0H   CODE     ---       PID_Calc
      00FF68CCH   CODE     ---       PID_Init
      00FF897BH   CODE     ---       pit_handler
      00FF0016H   CODE     ---       pit_handler4
      00FF542DH   CODE     ---       pit_init
      000108ACH   XDATA    FLOAT     pitch
      00010843H   XDATA    FLOAT     Pitch_Max
      0001083FH   XDATA    FLOAT     Pitch_Min
*DEL*:00000000H   CODE     ---       pow?_
*SFR* 000000B8H.6 DATA     BIT       PPC
      00FF247BH   CODE     NEAR LAB  printf
*SFR* 000000B8H.4 DATA     BIT       PS
*SFR* 000000D0H   DATA     BYTE      PSW
*SFR* 000000D1H   DATA     BYTE      PSW1
*SFR* 000000B8H.1 DATA     BIT       PT0
*SFR* 000000B8H.3 DATA     BIT       PT1
*SFR* 000000B8H.5 DATA     BIT       PT2
L251 LINKER/LOCATER V4.66.93.0                                                        05/06/2026  19:47:11  PAGE 35


      00FF9B47H   CODE     ---       putchar
      00FFA6F6H   HCONST   ---       PWM_ARR_ADDR
      00FFA6FEH   HCONST   ---       PWM_CCER_ADDR
      00FFA70EH   HCONST   ---       PWM_CCMR_ADDR
      00FFA6D6H   HCONST   ---       PWM_CCR_ADDR
      00FF3071H   CODE     ---       pwm_init
      00FFA6CEH   HCONST   ---       PWM_PSCR_ADDR
      00FF652BH   CODE     ---       pwm_set_duty
*DEL*:00000000H   CODE     ---       pwm_set_freq
*SFR* 000000B8H.0 DATA     BIT       PX0
*SFR* 000000B8H.2 DATA     BIT       PX1
      00FF906CH   CODE     ---       range_protect_float
*DEL*:00000000H   CODE     ---       range_protect_int
*SFR* 00000098H.2 DATA     BIT       RB8
*SFR* 000000CBH   DATA     BYTE      RCAP2H
*SFR* 000000CAH   DATA     BYTE      RCAP2L
*SFR* 000000C8H.5 DATA     BIT       RCLK
*SFR* 000000B0H.7 DATA     BIT       RD
*SFR* 00000098H.4 DATA     BIT       REN
*SFR* 00000098H.0 DATA     BIT       RI
      00010725H   XDATA    ---       right_spid
      000108E8H   XDATA    FLOAT     roll
      000108E4H   XDATA    FLOAT     Roll_Max
      000108B0H   XDATA    FLOAT     Roll_Min
      000108A7H   XDATA    CHAR      Round
*SFR* 000000D0H.3 DATA     BIT       RS0
*SFR* 000000D0H.4 DATA     BIT       RS1
*SFR* 000000FFH   DATA     BYTE      RSTCFG
*SFR* 000000B0H.0 DATA     BIT       RXD
*SFR* 0000009BH   DATA     BYTE      S2BUF
*SFR* 0000009AH   DATA     BYTE      S2CON
*SFR* 0000009AH.1 DATA     BIT       S2TI
*SFR* 000000ACH   DATA     BYTE      S3CON
*SFR* 000000FDH   DATA     BYTE      S4CON
*SFR* 000000A9H   DATA     BYTE      SADDR
*SFR* 000000B9H   DATA     BYTE      SADEN
*SFR* 00000099H   DATA     BYTE      SBUF
*SFR* 00000098H   DATA     BYTE      SCON
*DEL*:00000000H   CODE     ---       seekfree_assistant_camera_boundary_config
*DEL*:00000000H   CODE     ---       seekfree_assistant_camera_data_send
*DEL*:00000000H   CODE     ---       seekfree_assistant_camera_dot_send
*DEL*:00000000H   CODE     ---       seekfree_assistant_camera_information_config
*DEL*:00000000H   CODE     ---       seekfree_assistant_camera_send
*DEL*:00000000H   CODE     ---       seekfree_assistant_data_analysis
*DEL*:00000000H   CODE     ---       seekfree_assistant_init
*DEL*:00000000H   CODE     ---       seekfree_assistant_interface_init
      000105DCH   XDATA    ---       seekfree_assistant_oscilloscope_data
*DEL*:00000000H   CODE     ---       seekfree_assistant_oscilloscope_send
      0001061FH   XDATA    ---       seekfree_assistant_parameter
      00010617H   XDATA    ---       seekfree_assistant_parameter_update_flag
      00011F86H   XDATA    ---       seekfree_assistant_receive_callback
      00011F88H   XDATA    ---       seekfree_assistant_transfer_callback
      000109BEH   XDATA    ---       send_buf
      00FF8DA8H   CODE     ---       Send_Data_To_PC
*DEL*:00000000H   CODE     ---       set_gps_type
      00FF5F50H   CODE     ---       set_sys_clk
*DEL*:00000000H   CODE     ---       set_tof_type
      00FF872FH   CODE     ---       set_wireless_type
      00FF25BCH   CODE     ---       sin?_
*SFR* 00000098H.7 DATA     BIT       SM0
*SFR* 00000098H.6 DATA     BIT       SM1
*SFR* 00000098H.5 DATA     BIT       SM2
      00FF990BH   CODE     ---       soft_iic_delay
*DEL*:00000000H   CODE     ---       soft_iic_init
*DEL*:00000000H   CODE     ---       soft_iic_read_16bit
L251 LINKER/LOCATER V4.66.93.0                                                        05/06/2026  19:47:11  PAGE 36


*DEL*:00000000H   CODE     ---       soft_iic_read_16bit_array
*DEL*:00000000H   CODE     ---       soft_iic_read_16bit_register
*DEL*:00000000H   CODE     ---       soft_iic_read_16bit_registers
*DEL*:00000000H   CODE     ---       soft_iic_read_8bit
*DEL*:00000000H   CODE     ---       soft_iic_read_8bit_array
*DEL*:00000000H   CODE     ---       soft_iic_read_8bit_register
*DEL*:00000000H   CODE     ---       soft_iic_read_8bit_registers
      00FF73A0H   CODE     ---       soft_iic_read_data
*DEL*:00000000H   CODE     ---       soft_iic_sccb_read_register
*DEL*:00000000H   CODE     ---       soft_iic_sccb_write_register
      00FF7F57H   CODE     ---       soft_iic_send_ack
      00FF00A6H   CODE     ---       soft_iic_send_data
      00FF8549H   CODE     ---       soft_iic_start
      00FF8282H   CODE     ---       soft_iic_stop
*DEL*:00000000H   CODE     ---       soft_iic_transfer_16bit_array
*DEL*:00000000H   CODE     ---       soft_iic_transfer_8bit_array
      00FF7E74H   CODE     ---       soft_iic_wait_ack
*DEL*:00000000H   CODE     ---       soft_iic_write_16bit
*DEL*:00000000H   CODE     ---       soft_iic_write_16bit_array
*DEL*:00000000H   CODE     ---       soft_iic_write_16bit_register
*DEL*:00000000H   CODE     ---       soft_iic_write_16bit_registers
*DEL*:00000000H   CODE     ---       soft_iic_write_8bit
*DEL*:00000000H   CODE     ---       soft_iic_write_8bit_array
*DEL*:00000000H   CODE     ---       soft_iic_write_8bit_register
*DEL*:00000000H   CODE     ---       soft_iic_write_8bit_registers
*DEL*:00000000H   CODE     ---       soft_spi_delay
*DEL*:00000000H   CODE     ---       soft_spi_init
*DEL*:00000000H   CODE     ---       soft_spi_read_16bit
*DEL*:00000000H   CODE     ---       soft_spi_read_16bit_array
*DEL*:00000000H   CODE     ---       soft_spi_read_16bit_register
*DEL*:00000000H   CODE     ---       soft_spi_read_16bit_registers
*DEL*:00000000H   CODE     ---       soft_spi_read_8bit
*DEL*:00000000H   CODE     ---       soft_spi_read_8bit_array
*DEL*:00000000H   CODE     ---       soft_spi_read_8bit_register
*DEL*:00000000H   CODE     ---       soft_spi_read_8bit_registers
*DEL*:00000000H   CODE     ---       soft_spi_transfer_16bit
*DEL*:00000000H   CODE     ---       soft_spi_transfer_8bit
*DEL*:00000000H   CODE     ---       soft_spi_write_16bit
*DEL*:00000000H   CODE     ---       soft_spi_write_16bit_array
*DEL*:00000000H   CODE     ---       soft_spi_write_16bit_register
*DEL*:00000000H   CODE     ---       soft_spi_write_16bit_registers
*DEL*:00000000H   CODE     ---       soft_spi_write_8bit
*DEL*:00000000H   CODE     ---       soft_spi_write_8bit_array
*DEL*:00000000H   CODE     ---       soft_spi_write_8bit_register
*DEL*:00000000H   CODE     ---       soft_spi_write_8bit_registers
*SFR* 00000081H   DATA     BYTE      SP
*SFR* 000000CEH   DATA     BYTE      SPCTL
*SFR* 000000CFH   DATA     BYTE      SPDAT
      00010721H   XDATA    LONG      speed_left
      00010719H   XDATA    LONG      speed_right
*SFR* 000000BEH   DATA     BYTE      SPH
*DEL*:00000000H   CODE     ---       spi_init
*DEL*:00000000H   CODE     ---       spi_read_16bit
*DEL*:00000000H   CODE     ---       spi_read_16bit_array
*DEL*:00000000H   CODE     ---       spi_read_16bit_register
*DEL*:00000000H   CODE     ---       spi_read_16bit_registers
*DEL*:00000000H   CODE     ---       spi_read_8bit
*DEL*:00000000H   CODE     ---       spi_read_8bit_array
*DEL*:00000000H   CODE     ---       spi_read_8bit_register
*DEL*:00000000H   CODE     ---       spi_read_8bit_registers
      00FF8E9DH   CODE     ---       spi_read_dat
*DEL*:00000000H   CODE     ---       spi_transfer_16bit
*DEL*:00000000H   CODE     ---       spi_transfer_8bit
*DEL*:00000000H   CODE     ---       spi_write_16bit
*DEL*:00000000H   CODE     ---       spi_write_16bit_array
L251 LINKER/LOCATER V4.66.93.0                                                        05/06/2026  19:47:11  PAGE 37


*DEL*:00000000H   CODE     ---       spi_write_16bit_register
*DEL*:00000000H   CODE     ---       spi_write_16bit_registers
      00FF0066H   CODE     ---       spi_write_8bit
*DEL*:00000000H   CODE     ---       spi_write_8bit_array
*DEL*:00000000H   CODE     ---       spi_write_8bit_register
*DEL*:00000000H   CODE     ---       spi_write_8bit_registers
      00FF9395H   CODE     ---       spi_write_dat
      00FF24A7H   CODE     NEAR LAB  sprintf
*SFR* 000000CDH   DATA     BYTE      SPSTAT
      00FF24C7H   CODE     ---       sqrt?_
      00010D08H   XDATA    FLOAT     STR_PARA
*DEL*:00000000H   CODE     ---       strchr?_
      00FF9B59H   CODE     ---       strlen?_
*DEL*:00000000H   CODE     ---       strncmp?_
*DEL*:00000000H   CODE     ---       strncpy?_
      00011EF6H   XDATA    LONG      system_clock
      00FF9501H   CODE     ---       system_delay_init
      00FF9A57H   CODE     ---       system_delay_ms
      00FF9A7CH   CODE     ---       system_delay_us
      0001185CH   XDATA    WORD      t
*SFR* 000000B0H.4 DATA     BIT       T0
*SFR* 000000B0H.5 DATA     BIT       T1
*SFR* 00000090H.0 DATA     BIT       T2
*SFR* 000000C8H   DATA     BYTE      T2CON
*SFR* 00000090H.1 DATA     BIT       T2EX
*SFR* 000000D6H   DATA     BYTE      T2H
*SFR* 000000D7H   DATA     BYTE      T2L
*SFR* 000000C9H   DATA     BYTE      T2MOD
*SFR* 000000D4H   DATA     BYTE      T3H
*SFR* 000000D5H   DATA     BYTE      T3L
*SFR* 000000D2H   DATA     BYTE      T4H
*SFR* 000000D3H   DATA     BYTE      T4L
*SFR* 000000DDH   DATA     BYTE      T4T3M
      00FF25E9H   CODE     ---       TAN?_
*SFR* 00000098H.3 DATA     BIT       TB8
*SFR* 000000C8H.4 DATA     BIT       TCLK
*SFR* 00000088H   DATA     BYTE      TCON
*SFR* 00000088H.5 DATA     BIT       TF0
*SFR* 00000088H.7 DATA     BIT       TF1
*SFR* 000000C8H.7 DATA     BIT       TF2
      00011D37H   XDATA    WORD      tft180_bgcolor
*DEL*:00000000H   CODE     ---       tft180_clear
      00011D39H   XDATA    INT       tft180_display_dir
*DEL*:00000000H   CODE     ---       tft180_draw_point
*DEL*:00000000H   CODE     ---       tft180_init
      00011D35H   XDATA    WORD      tft180_pencolor
*DEL*:00000000H   CODE     ---       tft180_set_color
*DEL*:00000000H   CODE     ---       tft180_set_dir
*DEL*:00000000H   CODE     ---       tft180_show_char
*DEL*:00000000H   CODE     ---       tft180_show_float
*DEL*:00000000H   CODE     ---       tft180_show_int16
*DEL*:00000000H   CODE     ---       tft180_show_int32
*DEL*:00000000H   CODE     ---       tft180_show_int8
*DEL*:00000000H   CODE     ---       tft180_show_string
*DEL*:00000000H   CODE     ---       tft180_show_uint16
*DEL*:00000000H   CODE     ---       tft180_show_uint8
*DEL*:00000000H   CODE     ---       tft180_show_wave
      00011D3BH   XDATA    BYTE      tft180_x_max
      00011D3CH   XDATA    BYTE      tft180_y_max
*SFR* 0000008CH   DATA     BYTE      TH0
*SFR* 0000008DH   DATA     BYTE      TH1
*SFR* 000000CDH   DATA     BYTE      TH2
*SFR* 00000098H.1 DATA     BIT       TI
      00011304H   XDATA    ---       tim0_irq_handler
      000112FAH   XDATA    ---       tim11_irq_handler
L251 LINKER/LOCATER V4.66.93.0                                                        05/06/2026  19:47:11  PAGE 38


      00011308H   XDATA    ---       tim1_irq_handler
      0001130CH   XDATA    ---       tim2_irq_handler
      00011310H   XDATA    ---       tim3_irq_handler
      00011314H   XDATA    ---       tim4_irq_handler
      00FF8C25H   CODE     ---       timer_funciton_check
      00011D7DH   XDATA    WORD      times
*SFR* 0000008AH   DATA     BYTE      TL0
*SFR* 0000008BH   DATA     BYTE      TL1
*SFR* 000000CCH   DATA     BYTE      TL2
      00FF978FH   CODE     ---       TM0_IRQHandler
      00FF97CFH   CODE     ---       TM1_IRQHandler
      00FF980FH   CODE     ---       TM2_IRQHandler
      00FF984FH   CODE     ---       TM3_IRQHandler
      00FF988FH   CODE     ---       TM4_IRQHandler
*SFR* 00000089H   DATA     BYTE      TMOD
      00011D4DH   XDATA    ---       tof_module_exti_handler
      00011D51H   XDATA    INT       tof_type
*SFR* 00000088H.4 DATA     BIT       TR0
*SFR* 00000088H.6 DATA     BIT       TR1
*SFR* 000000C8H.2 DATA     BIT       TR2
      00011D83H   XDATA    INT       TrackState
*DEL*:00000000H   CODE     ---       tsl1401_collect_pit_handler
      0001020BH   XDATA    ---       tsl1401_data
      0001020AH   XDATA    BYTE      tsl1401_finish_flag
*DEL*:00000000H   CODE     ---       tsl1401_init
*DEL*:00000000H   CODE     ---       tsl1401_send_data
      000107F7H   XDATA    ---       Turn_PID
      0001071DH   XDATA    FLOAT     Turn_target
*SFR* 000000B0H.1 DATA     BIT       TXD
      000112FCH   XDATA    ---       uart1_irq_handler
      000112FEH   XDATA    ---       uart2_irq_handler
      00011300H   XDATA    ---       uart3_irq_handler
      00011302H   XDATA    ---       uart4_irq_handler
      00FF6C46H   CODE     ---       uart_dma_init
      00FF8CA6H   CODE     ---       uart_funciton_check
      00FF4BA8H   CODE     ---       uart_init
      00FF8690H   CODE     ---       uart_query_byte
*DEL*:00000000H   CODE     ---       uart_read_byte
      000119A3H   XDATA    ---       uart_rx_buff
      00FF913DH   CODE     ---       uart_rx_interrupt
      00FF81C0H   CODE     ---       uart_rx_start_buff
      00FF6355H   CODE     ---       uart_write_buffer
      00FF9AEBH   CODE     ---       uart_write_byte
*DEL*:00000000H   CODE     ---       uart_write_string
*SFR* 000000F4H   DATA     BYTE      USBCON
*DEL*:00000000H   CODE     ---       voltage_warning_init
*SFR* 000000A6H   DATA     BYTE      VRTRIM
*DEL*:00000000H   CODE     ---       vsnprintf
*SFR* 000000C1H   DATA     BYTE      WDT_CONTR
*SFR* 000000A6H   DATA     BYTE      WDTRST
      00011D4FH   XDATA    INT       wireless_type
      00FF9A31H   CODE     ---       wireless_uart_callback
      00FF8D27H   CODE     ---       wireless_uart_init
*DEL*:00000000H   CODE     ---       wireless_uart_read_buffer
      00FF786EH   CODE     ---       wireless_uart_send_buffer
*DEL*:00000000H   CODE     ---       wireless_uart_send_byte
      00FF9338H   CODE     ---       wireless_uart_send_string
*SFR* 000000B0H.6 DATA     BIT       WR
*SFR* 000000E9H   DATA     BYTE      WTST
      00010938H   XDATA    FLOAT     yaw
      00010930H   XDATA    FLOAT     yaw_limit_360
*DEL*:00000000H   CODE     ---       yaw_reset
      0001093CH   XDATA    FLOAT     yaw_total
      000108B4H   XDATA    ---       Zero
*DEL*:00000000H   CODE     ---       zf_sprintf
L251 LINKER/LOCATER V4.66.93.0                                                        05/06/2026  19:47:11  PAGE 39





SYMBOL TABLE OF MODULE:  .\out_file\SEEKFREE (?C_START)

      VALUE       REP       CLASS    TYPE      SYMBOL NAME
      ====================================================
      ---         MODULE    ---      ---       ?C_START
      00FF0000H   PUBLIC    CODE     ---       ?C?STARTUP
      00FF0000H   PUBLIC    CODE     ---       ?C_STARTUP
      000000D0H.6 SFRSYM    DATA     BIT       AC
      000000E0H   SFRSYM    DATA     BYTE      ACC
      000000F0H   SFRSYM    DATA     BYTE      B
      000000FAH   SFRSYM    DATA     BYTE      CCAP0H
      000000EAH   SFRSYM    DATA     BYTE      CCAP0L
      000000FBH   SFRSYM    DATA     BYTE      CCAP1H
      000000EBH   SFRSYM    DATA     BYTE      CCAP1L
      000000FCH   SFRSYM    DATA     BYTE      CCAP2H
      000000ECH   SFRSYM    DATA     BYTE      CCAP2L
      000000FDH   SFRSYM    DATA     BYTE      CCAP3H
      000000EDH   SFRSYM    DATA     BYTE      CCAP3L
      000000FEH   SFRSYM    DATA     BYTE      CCAP4H
      000000EEH   SFRSYM    DATA     BYTE      CCAP4L
      000000DAH   SFRSYM    DATA     BYTE      CCAPM0
      000000DBH   SFRSYM    DATA     BYTE      CCAPM1
      000000DCH   SFRSYM    DATA     BYTE      CCAPM2
      000000DDH   SFRSYM    DATA     BYTE      CCAPM3
      000000DEH   SFRSYM    DATA     BYTE      CCAPM4
      000000D8H.0 SFRSYM    DATA     BIT       CCF0
      000000D8H.1 SFRSYM    DATA     BIT       CCF1
      000000D8H.2 SFRSYM    DATA     BIT       CCF2
      000000D8H.3 SFRSYM    DATA     BIT       CCF3
      000000D8H.4 SFRSYM    DATA     BIT       CCF4
      000000D8H   SFRSYM    DATA     BYTE      CCON
      00000090H.3 SFRSYM    DATA     BIT       CEX0
      00000090H.4 SFRSYM    DATA     BIT       CEX1
      00000090H.5 SFRSYM    DATA     BIT       CEX2
      00000090H.6 SFRSYM    DATA     BIT       CEX3
      00000090H.7 SFRSYM    DATA     BIT       CEX4
      000000D8H.7 SFRSYM    DATA     BIT       CF
      000000F9H   SFRSYM    DATA     BYTE      CH
      000000E9H   SFRSYM    DATA     BYTE      CL
      000000D9H   SFRSYM    DATA     BYTE      CMOD
      000000C8H.0 SFRSYM    DATA     BIT       CP_RL2
      000000D8H.6 SFRSYM    DATA     BIT       CR
      000000D0H.7 SFRSYM    DATA     BIT       CY
      000000C8H.1 SFRSYM    DATA     BIT       C_T2
      00000083H   SFRSYM    DATA     BYTE      DPH
      00000082H   SFRSYM    DATA     BYTE      DPL
      00000084H   SFRSYM    DATA     BYTE      DPXL
      000000A8H.7 SFRSYM    DATA     BIT       EA
      000000A8H.6 SFRSYM    DATA     BIT       EC
      00000090H.2 SFRSYM    DATA     BIT       ECI
      000000A8H.4 SFRSYM    DATA     BIT       ES
      000000A8H.1 SFRSYM    DATA     BIT       ET0
      000000A8H.3 SFRSYM    DATA     BIT       ET1
      000000A8H.5 SFRSYM    DATA     BIT       ET2
      000000A8H.0 SFRSYM    DATA     BIT       EX0
      000000A8H.2 SFRSYM    DATA     BIT       EX1
      000000C8H.3 SFRSYM    DATA     BIT       EXEN2
      000000C8H.6 SFRSYM    DATA     BIT       EXF2
      000000D0H.5 SFRSYM    DATA     BIT       F0
      00000098H.7 SFRSYM    DATA     BIT       FE
      000000A8H   SFRSYM    DATA     BYTE      IE0
      00000088H.1 SFRSYM    DATA     BIT       IE0_
L251 LINKER/LOCATER V4.66.93.0                                                        05/06/2026  19:47:11  PAGE 40


      000000B1H   SFRSYM    DATA     BYTE      IE1
      00000088H.3 SFRSYM    DATA     BIT       IE1_
      000000B0H.2 SFRSYM    DATA     BIT       INT0
      000000B0H.3 SFRSYM    DATA     BIT       INT1
      000000B7H   SFRSYM    DATA     BYTE      IPH0
      000000B8H   SFRSYM    DATA     BYTE      IPL0
      00000088H.0 SFRSYM    DATA     BIT       IT0
      00000088H.2 SFRSYM    DATA     BIT       IT1
      000000D0H.2 SFRSYM    DATA     BIT       OV
      000000D0H.0 SFRSYM    DATA     BIT       P
      00000080H   SFRSYM    DATA     BYTE      P0
      00000090H   SFRSYM    DATA     BYTE      P1
      000000A0H   SFRSYM    DATA     BYTE      P2
      000000B0H   SFRSYM    DATA     BYTE      P3
      00000087H   SFRSYM    DATA     BYTE      PCON
      000000B8H.6 SFRSYM    DATA     BIT       PPC
      000000B8H.4 SFRSYM    DATA     BIT       PS
      000000D0H   SFRSYM    DATA     BYTE      PSW
      000000D1H   SFRSYM    DATA     BYTE      PSW1
      000000B8H.1 SFRSYM    DATA     BIT       PT0
      000000B8H.3 SFRSYM    DATA     BIT       PT1
      000000B8H.5 SFRSYM    DATA     BIT       PT2
      000000B8H.0 SFRSYM    DATA     BIT       PX0
      000000B8H.2 SFRSYM    DATA     BIT       PX1
      00000098H.2 SFRSYM    DATA     BIT       RB8
      000000CBH   SFRSYM    DATA     BYTE      RCAP2H
      000000CAH   SFRSYM    DATA     BYTE      RCAP2L
      000000C8H.5 SFRSYM    DATA     BIT       RCLK
      000000B0H.7 SFRSYM    DATA     BIT       RD
      00000098H.4 SFRSYM    DATA     BIT       REN
      00000098H.0 SFRSYM    DATA     BIT       RI
      000000D0H.3 SFRSYM    DATA     BIT       RS0
      000000D0H.4 SFRSYM    DATA     BIT       RS1
      000000B0H.0 SFRSYM    DATA     BIT       RXD
      000000A9H   SFRSYM    DATA     BYTE      SADDR
      000000B9H   SFRSYM    DATA     BYTE      SADEN
      00000099H   SFRSYM    DATA     BYTE      SBUF
      00000098H   SFRSYM    DATA     BYTE      SCON
      00000098H.7 SFRSYM    DATA     BIT       SM0
      00000098H.6 SFRSYM    DATA     BIT       SM1
      00000098H.5 SFRSYM    DATA     BIT       SM2
      00000081H   SFRSYM    DATA     BYTE      SP
      000000BEH   SFRSYM    DATA     BYTE      SPH
      000000B0H.4 SFRSYM    DATA     BIT       T0
      000000B0H.5 SFRSYM    DATA     BIT       T1
      00000090H.0 SFRSYM    DATA     BIT       T2
      000000C8H   SFRSYM    DATA     BYTE      T2CON
      00000090H.1 SFRSYM    DATA     BIT       T2EX
      000000C9H   SFRSYM    DATA     BYTE      T2MOD
      00000098H.3 SFRSYM    DATA     BIT       TB8
      000000C8H.4 SFRSYM    DATA     BIT       TCLK
      00000088H   SFRSYM    DATA     BYTE      TCON
      00000088H.5 SFRSYM    DATA     BIT       TF0
      00000088H.7 SFRSYM    DATA     BIT       TF1
      000000C8H.7 SFRSYM    DATA     BIT       TF2
      0000008CH   SFRSYM    DATA     BYTE      TH0
      0000008DH   SFRSYM    DATA     BYTE      TH1
      000000CDH   SFRSYM    DATA     BYTE      TH2
      00000098H.1 SFRSYM    DATA     BIT       TI
      0000008AH   SFRSYM    DATA     BYTE      TL0
      0000008BH   SFRSYM    DATA     BYTE      TL1
      000000CCH   SFRSYM    DATA     BYTE      TL2
      00000089H   SFRSYM    DATA     BYTE      TMOD
      00000088H.4 SFRSYM    DATA     BIT       TR0
      00000088H.6 SFRSYM    DATA     BIT       TR1
L251 LINKER/LOCATER V4.66.93.0                                                        05/06/2026  19:47:11  PAGE 41


      000000C8H.2 SFRSYM    DATA     BIT       TR2
      000000B0H.1 SFRSYM    DATA     BIT       TXD
      000000A6H   SFRSYM    DATA     BYTE      WDTRST
      000000B0H.6 SFRSYM    DATA     BIT       WR
      00000800H   SYMBOL    NUMBER   ---       EDATALEN
      00FF9561H   SYMBOL    CODE     ---       EDATALOOP
      00000001H   SYMBOL    NUMBER   ---       EDF
      00000001H   SYMBOL    NUMBER   ---       EMAP
      00000000H   SYMBOL    NUMBER   ---       HDATALEN
      00010000H   SYMBOL    NUMBER   ---       HDATASTART
      00000000H   SYMBOL    NUMBER   ---       IBPSTACK
      00000100H   SYMBOL    NUMBER   ---       IBPSTACKTOP
      00000001H   SYMBOL    NUMBER   ---       INTR
      00000001H   SYMBOL    NUMBER   ---       PAGM
      00000003H   SYMBOL    NUMBER   ---       RDRG
      00000001H   SYMBOL    NUMBER   ---       SRCM
      00000800H   SYMBOL    NUMBER   ---       STACKSIZE
      00FF9559H   SYMBOL    CODE     ---       STARTUP1
      00000003H   SYMBOL    NUMBER   ---       WSA
      00000003H   SYMBOL    NUMBER   ---       WSB
      00000001H   SYMBOL    NUMBER   ---       XALE
      00000000H   SYMBOL    NUMBER   ---       XBPSTACK
      00010000H   SYMBOL    NUMBER   ---       XBPSTACKTOP
      00008000H   SYMBOL    NUMBER   ---       XDATALEN
      00FF9570H   SYMBOL    CODE     ---       XDATALOOP
      00010000H   SYMBOL    NUMBER   ---       XDATASTART

      00FF0000H   BLOCK     CODE     NEAR LAB  LVL=0
      00FF0000H   LINE      CODE     ---       #183
      ---         BLOCKEND  ---      ---       LVL=0

      00FF9559H   BLOCK     CODE     NEAR LAB  LVL=0
      00FF9559H   LINE      CODE     ---       #188
      00FF955CH   LINE      CODE     ---       #191
      00FF9560H   LINE      CODE     ---       #192
      00FF9561H   LINE      CODE     ---       #193
      00FF9564H   LINE      CODE     ---       #194
      00FF9566H   LINE      CODE     ---       #195
      00FF9568H   LINE      CODE     ---       #199
      00FF956BH   LINE      CODE     ---       #200
      00FF956FH   LINE      CODE     ---       #201
      00FF9570H   LINE      CODE     ---       #202
      00FF9571H   LINE      CODE     ---       #203
      00FF9572H   LINE      CODE     ---       #204
      00FF9574H   LINE      CODE     ---       #205
      00FF9576H   LINE      CODE     ---       #235
      ---         BLOCKEND  ---      ---       LVL=0

      00FF95ABH   BLOCK     CODE     NEAR LAB  LVL=0
      00FF95ABH   LINE      CODE     ---       #238
      ---         BLOCKEND  ---      ---       LVL=0

      ---         MODULE    ---      ---       stc32g_isr

      00FF019BH   BLOCK     CODE     NEAR LAB  LVL=0
      00FF019BH   LINE      CODE     ---       #3
      ---         BLOCKEND  ---      ---       LVL=0

      00FF01ABH   BLOCK     CODE     NEAR LAB  LVL=0
      00FF01ABH   LINE      CODE     ---       #6
      ---         BLOCKEND  ---      ---       LVL=0

      00FF01BBH   BLOCK     CODE     NEAR LAB  LVL=0
      00FF01BBH   LINE      CODE     ---       #9
      ---         BLOCKEND  ---      ---       LVL=0
L251 LINKER/LOCATER V4.66.93.0                                                        05/06/2026  19:47:11  PAGE 42



      00FF01CBH   BLOCK     CODE     NEAR LAB  LVL=0
      00FF01CBH   LINE      CODE     ---       #12
      ---         BLOCKEND  ---      ---       LVL=0

      ---         MODULE    ---      ---       zf_common_clock
      00FF8BA4H   PUBLIC    CODE     ---       clock_init
      00FF5F50H   PUBLIC    CODE     ---       set_sys_clk
      00011EF6H   PUBLIC    XDATA    LONG      system_clock
      00000094H   SFRSYM    DATA     BYTE      P0M0
      000000D0H   SFRSYM    DATA     BYTE      PSW
      000000BAH.7 SFRSYM    DATA     BIT       EAXFR
      0000009DH   SFRSYM    DATA     BYTE      IRCBAND
      00000097H   SFRSYM    DATA     BYTE      AUXR2
      000000EAH   SFRSYM    DATA     BYTE      CKCON
      000000EFH   SFRSYM    DATA     BYTE      AUXINTIF
      000000FDH   SFRSYM    DATA     BYTE      S4CON
      000000ACH   SFRSYM    DATA     BYTE      S3CON
      0000009AH   SFRSYM    DATA     BYTE      S2CON
      000000A6H   SFRSYM    DATA     BYTE      VRTRIM
      000000B7H   SFRSYM    DATA     BYTE      IPH
      000000CDH   SFRSYM    DATA     BYTE      SPSTAT
      000000DDH   SFRSYM    DATA     BYTE      T4T3M
      0000009FH   SFRSYM    DATA     BYTE      IRTRIM
      000000C1H   SFRSYM    DATA     BYTE      WDT_CONTR
      000000E9H   SFRSYM    DATA     BYTE      WTST
      000000DFH   SFRSYM    DATA     BYTE      IP3
      000000F4H   SFRSYM    DATA     BYTE      USBCON
      000000B5H   SFRSYM    DATA     BYTE      IP2
      000000FFH   SFRSYM    DATA     BYTE      RSTCFG
      000000C7H   SFRSYM    DATA     BYTE      IAP_CONTR
      000000F9H   SFRSYM    DATA     BYTE      LINICR
      0000008EH   SFRSYM    DATA     BYTE      AUXR
      000000AFH   SFRSYM    DATA     BYTE      IE2
      00000088H   SFRSYM    DATA     BYTE      TCON
      00000089H   SFRSYM    DATA     BYTE      TMOD
      00000098H   SFRSYM    DATA     BYTE      SCON
      000000F1H   SFRSYM    DATA     BYTE      CANICR
      00000087H   SFRSYM    DATA     BYTE      PCON
      000000BCH   SFRSYM    DATA     BYTE      ADC_CONTR
      000000E7H   SFRSYM    DATA     BYTE      CMPCR2
      000000E6H   SFRSYM    DATA     BYTE      CMPCR1
      000000DEH   SFRSYM    DATA     BYTE      ADCCFG
      000000B8H   SFRSYM    DATA     BYTE      IP
      0000008FH   SFRSYM    DATA     BYTE      INTCLKO
      000000EEH   SFRSYM    DATA     BYTE      IP3H
      000000B6H   SFRSYM    DATA     BYTE      IP2H
      000000A8H   SFRSYM    DATA     BYTE      IE
      000000BBH   SFRSYM    DATA     BYTE      P_SW3
      000000BAH   SFRSYM    DATA     BYTE      P_SW2
      000000A2H   SFRSYM    DATA     BYTE      P_SW1
      000000CEH   SFRSYM    DATA     BYTE      SPCTL
      000000F8H   SFRSYM    DATA     BYTE      P7
      000000E1H   SFRSYM    DATA     BYTE      P7M1
      000000E8H   SFRSYM    DATA     BYTE      P6
      000000C8H   SFRSYM    DATA     BYTE      P5
      000000CBH   SFRSYM    DATA     BYTE      P6M1
      000000E2H   SFRSYM    DATA     BYTE      P7M0
      000000C0H   SFRSYM    DATA     BYTE      P4
      000000C9H   SFRSYM    DATA     BYTE      P5M1
      000000CCH   SFRSYM    DATA     BYTE      P6M0
      000000B0H   SFRSYM    DATA     BYTE      P3
      000000B3H   SFRSYM    DATA     BYTE      P4M1
      000000CAH   SFRSYM    DATA     BYTE      P5M0
      000000A0H   SFRSYM    DATA     BYTE      P2
L251 LINKER/LOCATER V4.66.93.0                                                        05/06/2026  19:47:11  PAGE 43


      000000B1H   SFRSYM    DATA     BYTE      P3M1
      000000B4H   SFRSYM    DATA     BYTE      P4M0
      00000090H   SFRSYM    DATA     BYTE      P1
      00000095H   SFRSYM    DATA     BYTE      P2M1
      000000B2H   SFRSYM    DATA     BYTE      P3M0
      00000080H   SFRSYM    DATA     BYTE      P0
      00000091H   SFRSYM    DATA     BYTE      P1M1
      00000096H   SFRSYM    DATA     BYTE      P2M0
      00000092H   SFRSYM    DATA     BYTE      P1M0
      00000093H   SFRSYM    DATA     BYTE      P0M1

      00FF5F50H   BLOCK     CODE     ---       LVL=0
      00011EFAH   SYMBOL    XDATA    DWORD     sys_clk
      00FF5F50H   LINE      CODE     ---       #54
      00FF5F5AH   LINE      CODE     ---       #57
      00FF5F5DH   LINE      CODE     ---       #59
      00FF5FB2H   LINE      CODE     ---       #61
      00FF5FB2H   LINE      CODE     ---       #63
      00FF5FBFH   LINE      CODE     ---       #64
      00FF5FCCH   LINE      CODE     ---       #65
      00FF5FD9H   LINE      CODE     ---       #66
      00FF5FDDH   LINE      CODE     ---       #67
      00FF5FE9H   LINE      CODE     ---       #68
      00FF5FECH   LINE      CODE     ---       #70
      00FF5FECH   LINE      CODE     ---       #72
      00FF5FF9H   LINE      CODE     ---       #73
      00FF6006H   LINE      CODE     ---       #74
      00FF6013H   LINE      CODE     ---       #75
      00FF6017H   LINE      CODE     ---       #76
      00FF6023H   LINE      CODE     ---       #77
      00FF6026H   LINE      CODE     ---       #79
      00FF6026H   LINE      CODE     ---       #81
      00FF6033H   LINE      CODE     ---       #82
      00FF6040H   LINE      CODE     ---       #83
      00FF604DH   LINE      CODE     ---       #84
      00FF6051H   LINE      CODE     ---       #85
      00FF605DH   LINE      CODE     ---       #86
      00FF6060H   LINE      CODE     ---       #88
      00FF6060H   LINE      CODE     ---       #90
      00FF606DH   LINE      CODE     ---       #91
      00FF607AH   LINE      CODE     ---       #92
      00FF6087H   LINE      CODE     ---       #93
      00FF608BH   LINE      CODE     ---       #94
      00FF6097H   LINE      CODE     ---       #95
      00FF609AH   LINE      CODE     ---       #97
      00FF609AH   LINE      CODE     ---       #99
      00FF60A7H   LINE      CODE     ---       #100
      00FF60B4H   LINE      CODE     ---       #101
      00FF60C1H   LINE      CODE     ---       #102
      00FF60C5H   LINE      CODE     ---       #103
      00FF60D1H   LINE      CODE     ---       #104
      00FF60D4H   LINE      CODE     ---       #106
      00FF60D4H   LINE      CODE     ---       #108
      00FF60E1H   LINE      CODE     ---       #109
      00FF60EEH   LINE      CODE     ---       #110
      00FF60FBH   LINE      CODE     ---       #111
      00FF60FFH   LINE      CODE     ---       #112
      00FF610BH   LINE      CODE     ---       #113
      00FF610DH   LINE      CODE     ---       #115
      00FF610DH   LINE      CODE     ---       #116
      00FF611FH   LINE      CODE     ---       #118
      00FF612CH   LINE      CODE     ---       #119
      00FF6139H   LINE      CODE     ---       #120
      00FF6146H   LINE      CODE     ---       #121
      00FF614AH   LINE      CODE     ---       #122
L251 LINKER/LOCATER V4.66.93.0                                                        05/06/2026  19:47:11  PAGE 44


      00FF6156H   LINE      CODE     ---       #123
      00FF6156H   LINE      CODE     ---       #124
      00FF6156H   LINE      CODE     ---       #126
      00FF6160H   LINE      CODE     ---       #127
      ---         BLOCKEND  ---      ---       LVL=0

      00FF8BA4H   BLOCK     CODE     ---       LVL=0
      00011EFEH   SYMBOL    XDATA    DWORD     clock
      00FF8BA4H   LINE      CODE     ---       #132
      00FF8BAEH   LINE      CODE     ---       #134
      00FF8BB2H   LINE      CODE     ---       #135
      00FF8BB6H   LINE      CODE     ---       #136
      00FF8BB9H   LINE      CODE     ---       #137
      00FF8BBCH   LINE      CODE     ---       #147
      00FF8BD3H   LINE      CODE     ---       #153
      00FF8BD6H   LINE      CODE     ---       #156
      00FF8BD9H   LINE      CODE     ---       #157
      00FF8BDCH   LINE      CODE     ---       #158
      00FF8BDFH   LINE      CODE     ---       #159
      00FF8BE2H   LINE      CODE     ---       #160
      00FF8BE5H   LINE      CODE     ---       #161
      00FF8BE8H   LINE      CODE     ---       #162
      00FF8BEBH   LINE      CODE     ---       #163
      00FF8BEEH   LINE      CODE     ---       #164
      00FF8BF1H   LINE      CODE     ---       #165
      00FF8BF4H   LINE      CODE     ---       #166
      00FF8BF7H   LINE      CODE     ---       #167
      00FF8BFAH   LINE      CODE     ---       #168
      00FF8BFDH   LINE      CODE     ---       #169
      00FF8C00H   LINE      CODE     ---       #170
      00FF8C03H   LINE      CODE     ---       #171
      00FF8C06H   LINE      CODE     ---       #173
      00FF8C09H   LINE      CODE     ---       #174
      00FF8C0CH   LINE      CODE     ---       #175
      00FF8C0FH   LINE      CODE     ---       #176
      00FF8C12H   LINE      CODE     ---       #177
      00FF8C15H   LINE      CODE     ---       #178
      00FF8C18H   LINE      CODE     ---       #179
      00FF8C1BH   LINE      CODE     ---       #180
      00FF8C1EH   LINE      CODE     ---       #181
      00FF8C21H   LINE      CODE     ---       #183
      00FF8C24H   LINE      CODE     ---       #184
      ---         BLOCKEND  ---      ---       LVL=0

      ---         MODULE    ---      ---       zf_common_debug
      00FF98CFH   PUBLIC    CODE     ---       debug_interrupr_handler
      00FF84A2H   PUBLIC    CODE     ---       debug_init
      00FF8E24H   PUBLIC    CODE     ---       debug_assert_handler
      00FF9B47H   PUBLIC    CODE     ---       putchar
      00010CAFH   PUBLIC    XDATA    ---       debug_uart_buffer
      00010CF0H   PUBLIC    XDATA    ---       debug_uart_fifo
      000000D0H   SFRSYM    DATA     BYTE      PSW
      0000009DH   SFRSYM    DATA     BYTE      IRCBAND
      00000097H   SFRSYM    DATA     BYTE      AUXR2
      000000EFH   SFRSYM    DATA     BYTE      AUXINTIF
      000000FDH   SFRSYM    DATA     BYTE      S4CON
      000000ACH   SFRSYM    DATA     BYTE      S3CON
      0000009AH   SFRSYM    DATA     BYTE      S2CON
      000000B7H   SFRSYM    DATA     BYTE      IPH
      000000CDH   SFRSYM    DATA     BYTE      SPSTAT
      000000DDH   SFRSYM    DATA     BYTE      T4T3M
      000000C1H   SFRSYM    DATA     BYTE      WDT_CONTR
      000000DFH   SFRSYM    DATA     BYTE      IP3
      000000F4H   SFRSYM    DATA     BYTE      USBCON
      000000B5H   SFRSYM    DATA     BYTE      IP2
L251 LINKER/LOCATER V4.66.93.0                                                        05/06/2026  19:47:11  PAGE 45


      000000FFH   SFRSYM    DATA     BYTE      RSTCFG
      000000C7H   SFRSYM    DATA     BYTE      IAP_CONTR
      000000F9H   SFRSYM    DATA     BYTE      LINICR
      0000008EH   SFRSYM    DATA     BYTE      AUXR
      000000AFH   SFRSYM    DATA     BYTE      IE2
      00000088H   SFRSYM    DATA     BYTE      TCON
      00000089H   SFRSYM    DATA     BYTE      TMOD
      00000098H   SFRSYM    DATA     BYTE      SCON
      000000F1H   SFRSYM    DATA     BYTE      CANICR
      00000087H   SFRSYM    DATA     BYTE      PCON
      000000BCH   SFRSYM    DATA     BYTE      ADC_CONTR
      000000E7H   SFRSYM    DATA     BYTE      CMPCR2
      000000E6H   SFRSYM    DATA     BYTE      CMPCR1
      000000DEH   SFRSYM    DATA     BYTE      ADCCFG
      000000B8H   SFRSYM    DATA     BYTE      IP
      0000008FH   SFRSYM    DATA     BYTE      INTCLKO
      000000EEH   SFRSYM    DATA     BYTE      IP3H
      000000B6H   SFRSYM    DATA     BYTE      IP2H
      000000A8H   SFRSYM    DATA     BYTE      IE
      000000BBH   SFRSYM    DATA     BYTE      P_SW3
      000000BAH   SFRSYM    DATA     BYTE      P_SW2
      000000A2H   SFRSYM    DATA     BYTE      P_SW1
      000000CEH   SFRSYM    DATA     BYTE      SPCTL
      000000F8H   SFRSYM    DATA     BYTE      P7
      000000E8H   SFRSYM    DATA     BYTE      P6
      000000C8H   SFRSYM    DATA     BYTE      P5
      000000C0H   SFRSYM    DATA     BYTE      P4
      000000B0H   SFRSYM    DATA     BYTE      P3
      000000A0H   SFRSYM    DATA     BYTE      P2
      00000090H   SFRSYM    DATA     BYTE      P1
      00000080H   SFRSYM    DATA     BYTE      P0
      00FFAB14H   SYMBOL    HCONST   ---       ?tpl?0001
      00010CEFH   SYMBOL    XDATA    BYTE      zf_debug_assert_enable
      00010D07H   SYMBOL    XDATA    BYTE      zf_debug_init_flag
      00011C85H   SYMBOL    XDATA    ---       buff
      00011C89H   SYMBOL    XDATA    DWORD     len
      00011C8DH   SYMBOL    XDATA    ---       buff
      00011C91H   SYMBOL    XDATA    DWORD     len

      00FF98CFH   BLOCK     CODE     ---       LVL=0
      00012006H   SYMBOL    XDATA    BYTE      dat
      00FF98CFH   LINE      CODE     ---       #285
      00FF98D3H   LINE      CODE     ---       #287
      00FF98DCH   LINE      CODE     ---       #289
      00FF98E9H   LINE      CODE     ---       #290
      00FF990AH   LINE      CODE     ---       #291
      ---         BLOCKEND  ---      ---       LVL=0

      00FF9B47H   BLOCK     CODE     ---       LVL=0
      00012007H   SYMBOL    XDATA    CHAR      c
      00FF9B47H   LINE      CODE     ---       #307
      00FF9B4BH   LINE      CODE     ---       #309
      00FF9B54H   LINE      CODE     ---       #311
      00FF9B58H   LINE      CODE     ---       #312
      ---         BLOCKEND  ---      ---       LVL=0

      00FF8E24H   BLOCK     CODE     ---       LVL=0
      000114CAH   SYMBOL    XDATA    BYTE      pass
      000114CBH   SYMBOL    XDATA    ---       file
      000114CFH   SYMBOL    XDATA    INT       line
      00FF8E38H   BLOCK     CODE     NEAR LAB  LVL=1
      000114D1H   SYMBOL    XDATA    ---       log_str
      ---         BLOCKEND  ---      ---       LVL=1
      00FF8E24H   LINE      CODE     ---       #350
      00FF8E38H   LINE      CODE     ---       #351
L251 LINKER/LOCATER V4.66.93.0                                                        05/06/2026  19:47:11  PAGE 46


      00FF8E38H   LINE      CODE     ---       #352
      00FF8E4DH   LINE      CODE     ---       #354
      00FF8E4FH   LINE      CODE     ---       #370
      00FF8E8CH   LINE      CODE     ---       #373
      00FF8E93H   LINE      CODE     ---       #374
      00FF8E9CH   LINE      CODE     ---       #375
      ---         BLOCKEND  ---      ---       LVL=0

      00FF84A2H   BLOCK     CODE     ---       LVL=0
      00012008H   SYMBOL    XDATA    BYTE      uartx
      00FF84A2H   LINE      CODE     ---       #457
      00FF84A2H   LINE      CODE     ---       #458
      00FF84A2H   LINE      CODE     ---       #459
      00FF84A7H   LINE      CODE     ---       #465
      00FF84C2H   LINE      CODE     ---       #472
      00FF84EFH   LINE      CODE     ---       #473
      00FF84F6H   LINE      CODE     ---       #476
      00FF84FFH   LINE      CODE     ---       #478
      00FF8509H   LINE      CODE     ---       #479
      00FF850BH   LINE      CODE     ---       #480
      00FF8514H   LINE      CODE     ---       #482
      00FF851EH   LINE      CODE     ---       #483
      00FF8520H   LINE      CODE     ---       #484
      00FF8529H   LINE      CODE     ---       #486
      00FF8533H   LINE      CODE     ---       #487
      00FF8535H   LINE      CODE     ---       #488
      00FF853EH   LINE      CODE     ---       #490
      00FF8548H   LINE      CODE     ---       #491
      ---         BLOCKEND  ---      ---       LVL=0

      ---         MODULE    ---      ---       zf_common_fifo
      00FF3CA4H   PUBLIC    CODE     ---       fifo_write_buffer
      00FF7D91H   PUBLIC    CODE     ---       fifo_init
      000115F1H   PUBLIC    XDATA    BYTE      ?fifo_write_buffer?BYTE
      00011458H   PUBLIC    XDATA    BYTE      ?fifo_read_buffer?BYTE
      0001179CH   PUBLIC    XDATA    BYTE      ?fifo_init?BYTE
      000000D0H   SFRSYM    DATA     BYTE      PSW
      0000009DH   SFRSYM    DATA     BYTE      IRCBAND
      00000097H   SFRSYM    DATA     BYTE      AUXR2
      000000EFH   SFRSYM    DATA     BYTE      AUXINTIF
      000000FDH   SFRSYM    DATA     BYTE      S4CON
      000000ACH   SFRSYM    DATA     BYTE      S3CON
      0000009AH   SFRSYM    DATA     BYTE      S2CON
      000000B7H   SFRSYM    DATA     BYTE      IPH
      000000CDH   SFRSYM    DATA     BYTE      SPSTAT
      000000DDH   SFRSYM    DATA     BYTE      T4T3M
      000000C1H   SFRSYM    DATA     BYTE      WDT_CONTR
      000000DFH   SFRSYM    DATA     BYTE      IP3
      000000F4H   SFRSYM    DATA     BYTE      USBCON
      000000B5H   SFRSYM    DATA     BYTE      IP2
      000000FFH   SFRSYM    DATA     BYTE      RSTCFG
      000000C7H   SFRSYM    DATA     BYTE      IAP_CONTR
      000000F9H   SFRSYM    DATA     BYTE      LINICR
      0000008EH   SFRSYM    DATA     BYTE      AUXR
      000000AFH   SFRSYM    DATA     BYTE      IE2
      00000088H   SFRSYM    DATA     BYTE      TCON
      00000089H   SFRSYM    DATA     BYTE      TMOD
      00000098H   SFRSYM    DATA     BYTE      SCON
      000000F1H   SFRSYM    DATA     BYTE      CANICR
      00000087H   SFRSYM    DATA     BYTE      PCON
      000000BCH   SFRSYM    DATA     BYTE      ADC_CONTR
      000000E7H   SFRSYM    DATA     BYTE      CMPCR2
      000000E6H   SFRSYM    DATA     BYTE      CMPCR1
      000000DEH   SFRSYM    DATA     BYTE      ADCCFG
      000000B8H   SFRSYM    DATA     BYTE      IP
L251 LINKER/LOCATER V4.66.93.0                                                        05/06/2026  19:47:11  PAGE 47


      0000008FH   SFRSYM    DATA     BYTE      INTCLKO
      000000EEH   SFRSYM    DATA     BYTE      IP3H
      000000B6H   SFRSYM    DATA     BYTE      IP2H
      000000A8H   SFRSYM    DATA     BYTE      IE
      000000BBH   SFRSYM    DATA     BYTE      P_SW3
      000000BAH   SFRSYM    DATA     BYTE      P_SW2
      000000A2H   SFRSYM    DATA     BYTE      P_SW1
      000000CEH   SFRSYM    DATA     BYTE      SPCTL
      000000F8H   SFRSYM    DATA     BYTE      P7
      000000E8H   SFRSYM    DATA     BYTE      P6
      000000C8H   SFRSYM    DATA     BYTE      P5
      000000C0H   SFRSYM    DATA     BYTE      P4
      000000B0H   SFRSYM    DATA     BYTE      P3
      000000A0H   SFRSYM    DATA     BYTE      P2
      00000090H   SFRSYM    DATA     BYTE      P1
      00000080H   SFRSYM    DATA     BYTE      P0
      00FF85F0H   SYMBOL    CODE     ---       fifo_head_offset

      00FF85F0H   BLOCK     CODE     ---       LVL=0
      00011C95H   SYMBOL    XDATA    ---       fifo
      00011C99H   SYMBOL    XDATA    DWORD     offset
      00FF85F0H   LINE      CODE     ---       #51
      00FF8604H   LINE      CODE     ---       #53
      00FF862CH   LINE      CODE     ---       #55
      00FF862EH   LINE      CODE     ---       #57
      00FF8661H   LINE      CODE     ---       #58
      00FF868FH   LINE      CODE     ---       #59
      ---         BLOCKEND  ---      ---       LVL=0
      00011C9DH   SYMBOL    XDATA    ---       fifo
      00011CA1H   SYMBOL    XDATA    DWORD     offset
      00011DAFH   SYMBOL    XDATA    ---       fifo
      00011DB3H   SYMBOL    XDATA    INT       return_state
      00011F02H   SYMBOL    XDATA    ---       fifo

      00FF3CA4H   BLOCK     CODE     ---       LVL=0
      000115F1H   SYMBOL    XDATA    ---       fifo
      000115F5H   SYMBOL    XDATA    ---       dat
      000115F9H   SYMBOL    XDATA    DWORD     length
      00FF3CB8H   BLOCK     CODE     NEAR LAB  LVL=1
      000115FDH   SYMBOL    XDATA    INT       return_state
      000115FFH   SYMBOL    XDATA    DWORD     temp_length
      ---         BLOCKEND  ---      ---       LVL=1
      00FF3CA4H   LINE      CODE     ---       #178
      00FF3CB8H   LINE      CODE     ---       #179
      00FF3CB8H   LINE      CODE     ---       #180
      00FF3CC0H   LINE      CODE     ---       #181
      00FF3CCCH   LINE      CODE     ---       #182
      00FF3CEEH   LINE      CODE     ---       #184
      00FF3CEEH   LINE      CODE     ---       #186
      00FF3CFCH   LINE      CODE     ---       #188
      00FF3D06H   LINE      CODE     ---       #189
      00FF3D09H   LINE      CODE     ---       #190
      00FF3D09H   LINE      CODE     ---       #191
      00FF3D24H   LINE      CODE     ---       #193
      00FF3D2EH   LINE      CODE     ---       #194
      00FF3D31H   LINE      CODE     ---       #195
      00FF3D31H   LINE      CODE     ---       #196
      00FF3D45H   LINE      CODE     ---       #198
      00FF3D6BH   LINE      CODE     ---       #200
      00FF3DA1H   LINE      CODE     ---       #202
      00FF3DBCH   LINE      CODE     ---       #204
      00FF3DE0H   LINE      CODE     ---       #206
      00FF3DE0H   LINE      CODE     ---       #208
      00FF3E27H   LINE      CODE     ---       #211
      00FF3E3EH   LINE      CODE     ---       #212
L251 LINKER/LOCATER V4.66.93.0                                                        05/06/2026  19:47:11  PAGE 48


      00FF3EA3H   LINE      CODE     ---       #216
      00FF3EC6H   LINE      CODE     ---       #217
      00FF3EC9H   LINE      CODE     ---       #218
      00FF3EC9H   LINE      CODE     ---       #220
      00FF3F14H   LINE      CODE     ---       #223
      00FF3F2BH   LINE      CODE     ---       #224
      00FF3F92H   LINE      CODE     ---       #228
      00FF3FB5H   LINE      CODE     ---       #229
      00FF3FB8H   LINE      CODE     ---       #230
      00FF3FB8H   LINE      CODE     ---       #232
      00FF4007H   LINE      CODE     ---       #235
      00FF401EH   LINE      CODE     ---       #236
      00FF408BH   LINE      CODE     ---       #240
      00FF40AEH   LINE      CODE     ---       #241
      00FF40AEH   LINE      CODE     ---       #242
      00FF40AEH   LINE      CODE     ---       #243
      00FF40B1H   LINE      CODE     ---       #246
      00FF40D2H   LINE      CODE     ---       #248
      00FF40D2H   LINE      CODE     ---       #250
      00FF4119H   LINE      CODE     ---       #253
      00FF4130H   LINE      CODE     ---       #254
      00FF4133H   LINE      CODE     ---       #255
      00FF4133H   LINE      CODE     ---       #257
      00FF417EH   LINE      CODE     ---       #260
      00FF4195H   LINE      CODE     ---       #261
      00FF4197H   LINE      CODE     ---       #262
      00FF4197H   LINE      CODE     ---       #264
      00FF41E6H   LINE      CODE     ---       #267
      00FF41FDH   LINE      CODE     ---       #268
      00FF41FDH   LINE      CODE     ---       #269
      00FF41FDH   LINE      CODE     ---       #270
      00FF41FDH   LINE      CODE     ---       #272
      00FF4225H   LINE      CODE     ---       #273
      00FF4227H   LINE      CODE     ---       #276
      00FF4231H   LINE      CODE     ---       #277
      00FF4231H   LINE      CODE     ---       #278
      00FF4245H   LINE      CODE     ---       #279
      00FF4245H   LINE      CODE     ---       #281
      00FF424BH   LINE      CODE     ---       #282
      ---         BLOCKEND  ---      ---       LVL=0
      00011458H   SYMBOL    XDATA    ---       fifo
      0001145CH   SYMBOL    XDATA    ---       dat
      00011460H   SYMBOL    XDATA    ---       length
      00011464H   SYMBOL    XDATA    INT       flag
      00011466H   SYMBOL    XDATA    INT       return_state
      00011468H   SYMBOL    XDATA    DWORD     temp_length
      0001146CH   SYMBOL    XDATA    DWORD     fifo_data_length

      00FF7D91H   BLOCK     CODE     ---       LVL=0
      0001179CH   SYMBOL    XDATA    ---       fifo
      000117A0H   SYMBOL    XDATA    INT       type
      000117A2H   SYMBOL    XDATA    ---       buffer_addr
      000117A6H   SYMBOL    XDATA    DWORD     siz
      00FF7D91H   LINE      CODE     ---       #549
      00FF7DA1H   LINE      CODE     ---       #551
      00FF7DC3H   LINE      CODE     ---       #552
      00FF7DC3H   LINE      CODE     ---       #554
      00FF7DE2H   LINE      CODE     ---       #555
      00FF7DF0H   LINE      CODE     ---       #556
      00FF7E05H   LINE      CODE     ---       #557
      00FF7E1CH   LINE      CODE     ---       #558
      00FF7E33H   LINE      CODE     ---       #559
      00FF7E52H   LINE      CODE     ---       #560
      00FF7E71H   LINE      CODE     ---       #561
      00FF7E71H   LINE      CODE     ---       #562
L251 LINKER/LOCATER V4.66.93.0                                                        05/06/2026  19:47:11  PAGE 49


      00FF7E73H   LINE      CODE     ---       #563
      ---         BLOCKEND  ---      ---       LVL=0

      ---         MODULE    ---      ---       zf_common_font
      00FF36B4H   PUBLIC    CODE     ---       ascii_font_8x16
      000000D0H   SFRSYM    DATA     BYTE      PSW
      0000009DH   SFRSYM    DATA     BYTE      IRCBAND
      00000097H   SFRSYM    DATA     BYTE      AUXR2
      000000EFH   SFRSYM    DATA     BYTE      AUXINTIF
      000000FDH   SFRSYM    DATA     BYTE      S4CON
      000000ACH   SFRSYM    DATA     BYTE      S3CON
      0000009AH   SFRSYM    DATA     BYTE      S2CON
      000000B7H   SFRSYM    DATA     BYTE      IPH
      000000CDH   SFRSYM    DATA     BYTE      SPSTAT
      000000DDH   SFRSYM    DATA     BYTE      T4T3M
      000000C1H   SFRSYM    DATA     BYTE      WDT_CONTR
      000000DFH   SFRSYM    DATA     BYTE      IP3
      000000F4H   SFRSYM    DATA     BYTE      USBCON
      000000B5H   SFRSYM    DATA     BYTE      IP2
      000000FFH   SFRSYM    DATA     BYTE      RSTCFG
      000000C7H   SFRSYM    DATA     BYTE      IAP_CONTR
      000000F9H   SFRSYM    DATA     BYTE      LINICR
      0000008EH   SFRSYM    DATA     BYTE      AUXR
      000000AFH   SFRSYM    DATA     BYTE      IE2
      00000088H   SFRSYM    DATA     BYTE      TCON
      00000089H   SFRSYM    DATA     BYTE      TMOD
      00000098H   SFRSYM    DATA     BYTE      SCON
      000000F1H   SFRSYM    DATA     BYTE      CANICR
      00000087H   SFRSYM    DATA     BYTE      PCON
      000000BCH   SFRSYM    DATA     BYTE      ADC_CONTR
      000000E7H   SFRSYM    DATA     BYTE      CMPCR2
      000000E6H   SFRSYM    DATA     BYTE      CMPCR1
      000000DEH   SFRSYM    DATA     BYTE      ADCCFG
      000000B8H   SFRSYM    DATA     BYTE      IP
      0000008FH   SFRSYM    DATA     BYTE      INTCLKO
      000000EEH   SFRSYM    DATA     BYTE      IP3H
      000000B6H   SFRSYM    DATA     BYTE      IP2H
      000000A8H   SFRSYM    DATA     BYTE      IE
      000000BBH   SFRSYM    DATA     BYTE      P_SW3
      000000BAH   SFRSYM    DATA     BYTE      P_SW2
      000000A2H   SFRSYM    DATA     BYTE      P_SW1
      000000CEH   SFRSYM    DATA     BYTE      SPCTL
      000000F8H   SFRSYM    DATA     BYTE      P7
      000000E8H   SFRSYM    DATA     BYTE      P6
      000000C8H   SFRSYM    DATA     BYTE      P5
      000000C0H   SFRSYM    DATA     BYTE      P4
      000000B0H   SFRSYM    DATA     BYTE      P3
      000000A0H   SFRSYM    DATA     BYTE      P2
      00000090H   SFRSYM    DATA     BYTE      P1
      00000080H   SFRSYM    DATA     BYTE      P0

      ---         MODULE    ---      ---       zf_common_function
      00010E0EH   PUBLIC    XDATA    BYTE      ?vsnprintf?BYTE
      00010C78H   PUBLIC    XDATA    BYTE      ?zf_sprintf?BYTE
      000000D0H   SFRSYM    DATA     BYTE      PSW
      0000009DH   SFRSYM    DATA     BYTE      IRCBAND
      00000097H   SFRSYM    DATA     BYTE      AUXR2
      000000EFH   SFRSYM    DATA     BYTE      AUXINTIF
      000000FDH   SFRSYM    DATA     BYTE      S4CON
      000000ACH   SFRSYM    DATA     BYTE      S3CON
      0000009AH   SFRSYM    DATA     BYTE      S2CON
      000000B7H   SFRSYM    DATA     BYTE      IPH
      000000CDH   SFRSYM    DATA     BYTE      SPSTAT
      000000DDH   SFRSYM    DATA     BYTE      T4T3M
      000000C1H   SFRSYM    DATA     BYTE      WDT_CONTR
L251 LINKER/LOCATER V4.66.93.0                                                        05/06/2026  19:47:11  PAGE 50


      000000DFH   SFRSYM    DATA     BYTE      IP3
      000000F4H   SFRSYM    DATA     BYTE      USBCON
      000000B5H   SFRSYM    DATA     BYTE      IP2
      000000FFH   SFRSYM    DATA     BYTE      RSTCFG
      000000C7H   SFRSYM    DATA     BYTE      IAP_CONTR
      000000F9H   SFRSYM    DATA     BYTE      LINICR
      0000008EH   SFRSYM    DATA     BYTE      AUXR
      000000AFH   SFRSYM    DATA     BYTE      IE2
      00000088H   SFRSYM    DATA     BYTE      TCON
      00000089H   SFRSYM    DATA     BYTE      TMOD
      00000098H   SFRSYM    DATA     BYTE      SCON
      000000F1H   SFRSYM    DATA     BYTE      CANICR
      00000087H   SFRSYM    DATA     BYTE      PCON
      000000BCH   SFRSYM    DATA     BYTE      ADC_CONTR
      000000E7H   SFRSYM    DATA     BYTE      CMPCR2
      000000E6H   SFRSYM    DATA     BYTE      CMPCR1
      000000DEH   SFRSYM    DATA     BYTE      ADCCFG
      000000B8H   SFRSYM    DATA     BYTE      IP
      0000008FH   SFRSYM    DATA     BYTE      INTCLKO
      000000EEH   SFRSYM    DATA     BYTE      IP3H
      000000B6H   SFRSYM    DATA     BYTE      IP2H
      000000A8H   SFRSYM    DATA     BYTE      IE
      000000BBH   SFRSYM    DATA     BYTE      P_SW3
      000000BAH   SFRSYM    DATA     BYTE      P_SW2
      000000A2H   SFRSYM    DATA     BYTE      P_SW1
      000000CEH   SFRSYM    DATA     BYTE      SPCTL
      000000F8H   SFRSYM    DATA     BYTE      P7
      000000E8H   SFRSYM    DATA     BYTE      P6
      000000C8H   SFRSYM    DATA     BYTE      P5
      000000C0H   SFRSYM    DATA     BYTE      P4
      000000B0H   SFRSYM    DATA     BYTE      P3
      000000A0H   SFRSYM    DATA     BYTE      P2
      00000090H   SFRSYM    DATA     BYTE      P1
      00000080H   SFRSYM    DATA     BYTE      P0
      00FFA857H   SYMBOL    HCONST   ---       ?tpl?0001
      00FFA867H   SYMBOL    HCONST   ---       ?tpl?0002
      00011CA5H   SYMBOL    XDATA    DWORD     num1
      00011CA9H   SYMBOL    XDATA    DWORD     num2
      00011F06H   SYMBOL    XDATA    LONG      t
      00011B89H   SYMBOL    XDATA    ---       str
      00011B8DH   SYMBOL    XDATA    BYTE      sign
      00011B8EH   SYMBOL    XDATA    LONG      temp
      00011336H   SYMBOL    XDATA    ---       str
      0001133AH   SYMBOL    XDATA    LONG      number
      0001133EH   SYMBOL    XDATA    ---       data_temp
      0001134EH   SYMBOL    XDATA    BYTE      temp_bit
      0001134FH   SYMBOL    XDATA    LONG      number_temp
      00011CADH   SYMBOL    XDATA    ---       str
      00011CB1H   SYMBOL    XDATA    DWORD     temp
      000113F4H   SYMBOL    XDATA    ---       str
      000113F8H   SYMBOL    XDATA    DWORD     number
      000113FCH   SYMBOL    XDATA    ---       data_temp
      0001140CH   SYMBOL    XDATA    BYTE      temp_bit
      00011639H   SYMBOL    XDATA    ---       str
      0001163DH   SYMBOL    XDATA    BYTE      sign
      0001163EH   SYMBOL    XDATA    FLOAT     temp
      00011642H   SYMBOL    XDATA    FLOAT     temp_point
      00011646H   SYMBOL    XDATA    FLOAT     point_bit
      00011152H   SYMBOL    XDATA    ---       str
      00011156H   SYMBOL    XDATA    FLOAT     number
      0001115AH   SYMBOL    XDATA    BYTE      point_bit
      0001115BH   SYMBOL    XDATA    INT       data_int
      0001115DH   SYMBOL    XDATA    INT       data_float
      0001115FH   SYMBOL    XDATA    ---       data_temp
      0001116FH   SYMBOL    XDATA    ---       data_temp_point
L251 LINKER/LOCATER V4.66.93.0                                                        05/06/2026  19:47:11  PAGE 51


      0001117BH   SYMBOL    XDATA    BYTE      temp_bit
      0001164AH   SYMBOL    XDATA    ---       str
      0001164EH   SYMBOL    XDATA    BYTE      sign
      0001164FH   SYMBOL    XDATA    FLOAT     temp
      00011653H   SYMBOL    XDATA    FLOAT     temp_point
      00011657H   SYMBOL    XDATA    FLOAT     point_bit
      00010F7CH   SYMBOL    XDATA    ---       str
      00010F80H   SYMBOL    XDATA    FLOAT     number
      00010F84H   SYMBOL    XDATA    BYTE      point_bit
      00010F85H   SYMBOL    XDATA    INT       data_int
      00010F87H   SYMBOL    XDATA    INT       data_float
      00010F89H   SYMBOL    XDATA    ---       data_temp
      00010FA1H   SYMBOL    XDATA    ---       data_temp_point
      00010FB3H   SYMBOL    XDATA    BYTE      temp_bit
      000117AAH   SYMBOL    XDATA    ---       str
      000117AEH   SYMBOL    XDATA    DWORD     str_len
      000117B2H   SYMBOL    XDATA    DWORD     result_data
      000117B6H   SYMBOL    XDATA    BYTE      temp
      000117B7H   SYMBOL    XDATA    BYTE      flag
      000111F6H   SYMBOL    XDATA    ---       str
      000111FAH   SYMBOL    XDATA    DWORD     number
      000111FEH   SYMBOL    XDATA    ---       hex_index
      0001120EH   SYMBOL    XDATA    ---       data_temp
      0001121AH   SYMBOL    XDATA    BYTE      temp_bit
      000114DEH   SYMBOL    XDATA    DWORD     dat
      000114E2H   SYMBOL    XDATA    ---       p
      000114E6H   SYMBOL    XDATA    BYTE      neg_type
      000114E7H   SYMBOL    XDATA    BYTE      radix
      000114E8H   SYMBOL    XDATA    LONG      neg_dat
      000114ECH   SYMBOL    XDATA    DWORD     pos_dat
      000114F0H   SYMBOL    XDATA    BYTE      temp_data
      000114F1H   SYMBOL    XDATA    BYTE      valid_num
      0001186EH   SYMBOL    XDATA    ---       d_buff
      00011872H   SYMBOL    XDATA    DWORD     len
      00011876H   SYMBOL    XDATA    DWORD     i
      0001187AH   SYMBOL    XDATA    CHAR      temp_data
      00010E0EH   SYMBOL    XDATA    ---       buffer
      00010E12H   SYMBOL    XDATA    DWORD     siz
      00010E16H   SYMBOL    XDATA    ---       format
      00010E1AH   SYMBOL    XDATA    ---       args
      00010E1EH   SYMBOL    XDATA    DWORD     i
      00010E22H   SYMBOL    XDATA    ---       ptr
      00010E26H   SYMBOL    XDATA    INT       j
      00010E28H   SYMBOL    XDATA    INT       num
      00010E2AH   SYMBOL    XDATA    ---       temp
      00010E3AH   SYMBOL    XDATA    INT       len
      00010E3CH   SYMBOL    XDATA    INT       is_negative
      00010E3EH   SYMBOL    XDATA    ---       str
      00010E42H   SYMBOL    XDATA    DWORD     num_x
      00010E46H   SYMBOL    XDATA    ---       temp_x
      00010E4FH   SYMBOL    XDATA    ---       hex_digits
      00010E60H   SYMBOL    XDATA    CHAR      t
      00010E60H   SYMBOL    XDATA    CHAR      t
      00010C78H   SYMBOL    XDATA    ---       buff
      00010C7CH   SYMBOL    XDATA    ---       format
      00010C80H   SYMBOL    XDATA    DWORD     buff_len
      00010C84H   SYMBOL    XDATA    ---       arg
      00010C88H   SYMBOL    XDATA    CHAR      ret
      00010C89H   SYMBOL    XDATA    CHAR      ch
      00010C89H   SYMBOL    XDATA    ---       vstr
      00010CAAH   SYMBOL    XDATA    LONG      ival
      00010CAEH   SYMBOL    XDATA    BYTE      vlen
      00010C89H   SYMBOL    XDATA    ---       vstr
      00010CAAH   SYMBOL    XDATA    FLOAT     ival
      00010CAEH   SYMBOL    XDATA    BYTE      vlen
L251 LINKER/LOCATER V4.66.93.0                                                        05/06/2026  19:47:11  PAGE 52


      00010C89H   SYMBOL    XDATA    ---       vstr
      00010CAAH   SYMBOL    XDATA    DWORD     ival
      00010CAEH   SYMBOL    XDATA    BYTE      vlen
      00010C89H   SYMBOL    XDATA    ---       vstr
      00010CAAH   SYMBOL    XDATA    DWORD     ival
      00010CAEH   SYMBOL    XDATA    BYTE      vlen
      00010C89H   SYMBOL    XDATA    ---       vstr
      00010CAAH   SYMBOL    XDATA    DWORD     ival
      00010CAEH   SYMBOL    XDATA    BYTE      vlen
      00010C89H   SYMBOL    XDATA    ---       pc
      00010C89H   SYMBOL    XDATA    ---       vstr
      00010CAAH   SYMBOL    XDATA    DWORD     ival

      ---         MODULE    ---      ---       zf_common_typedef
      000112FAH   PUBLIC    XDATA    ---       tim11_irq_handler
      000112FCH   PUBLIC    XDATA    ---       uart1_irq_handler
      000112FEH   PUBLIC    XDATA    ---       uart2_irq_handler
      00011300H   PUBLIC    XDATA    ---       uart3_irq_handler
      00011302H   PUBLIC    XDATA    ---       uart4_irq_handler
      00011304H   PUBLIC    XDATA    ---       tim0_irq_handler
      00011306H   PUBLIC    XDATA    ---       int0_irq_handler
      00011308H   PUBLIC    XDATA    ---       tim1_irq_handler
      0001130AH   PUBLIC    XDATA    ---       int1_irq_handler
      0001130CH   PUBLIC    XDATA    ---       tim2_irq_handler
      0001130EH   PUBLIC    XDATA    ---       int2_irq_handler
      00011310H   PUBLIC    XDATA    ---       tim3_irq_handler
      00011312H   PUBLIC    XDATA    ---       int3_irq_handler
      00011314H   PUBLIC    XDATA    ---       tim4_irq_handler
      00011316H   PUBLIC    XDATA    ---       int4_irq_handler
      000000D0H   SFRSYM    DATA     BYTE      PSW
      0000009DH   SFRSYM    DATA     BYTE      IRCBAND
      00000097H   SFRSYM    DATA     BYTE      AUXR2
      000000EFH   SFRSYM    DATA     BYTE      AUXINTIF
      000000FDH   SFRSYM    DATA     BYTE      S4CON
      000000ACH   SFRSYM    DATA     BYTE      S3CON
      0000009AH   SFRSYM    DATA     BYTE      S2CON
      000000B7H   SFRSYM    DATA     BYTE      IPH
      000000CDH   SFRSYM    DATA     BYTE      SPSTAT
      000000DDH   SFRSYM    DATA     BYTE      T4T3M
      000000C1H   SFRSYM    DATA     BYTE      WDT_CONTR
      000000DFH   SFRSYM    DATA     BYTE      IP3
      000000F4H   SFRSYM    DATA     BYTE      USBCON
      000000B5H   SFRSYM    DATA     BYTE      IP2
      000000FFH   SFRSYM    DATA     BYTE      RSTCFG
      000000C7H   SFRSYM    DATA     BYTE      IAP_CONTR
      000000F9H   SFRSYM    DATA     BYTE      LINICR
      0000008EH   SFRSYM    DATA     BYTE      AUXR
      000000AFH   SFRSYM    DATA     BYTE      IE2
      00000088H   SFRSYM    DATA     BYTE      TCON
      00000089H   SFRSYM    DATA     BYTE      TMOD
      00000098H   SFRSYM    DATA     BYTE      SCON
      000000F1H   SFRSYM    DATA     BYTE      CANICR
      00000087H   SFRSYM    DATA     BYTE      PCON
      000000BCH   SFRSYM    DATA     BYTE      ADC_CONTR
      000000E7H   SFRSYM    DATA     BYTE      CMPCR2
      000000E6H   SFRSYM    DATA     BYTE      CMPCR1
      000000DEH   SFRSYM    DATA     BYTE      ADCCFG
      000000B8H   SFRSYM    DATA     BYTE      IP
      0000008FH   SFRSYM    DATA     BYTE      INTCLKO
      000000EEH   SFRSYM    DATA     BYTE      IP3H
      000000B6H   SFRSYM    DATA     BYTE      IP2H
      000000A8H   SFRSYM    DATA     BYTE      IE
      000000BBH   SFRSYM    DATA     BYTE      P_SW3
      000000BAH   SFRSYM    DATA     BYTE      P_SW2
      000000A2H   SFRSYM    DATA     BYTE      P_SW1
L251 LINKER/LOCATER V4.66.93.0                                                        05/06/2026  19:47:11  PAGE 53


      000000CEH   SFRSYM    DATA     BYTE      SPCTL
      000000F8H   SFRSYM    DATA     BYTE      P7
      000000E8H   SFRSYM    DATA     BYTE      P6
      000000C8H   SFRSYM    DATA     BYTE      P5
      000000C0H   SFRSYM    DATA     BYTE      P4
      000000B0H   SFRSYM    DATA     BYTE      P3
      000000A0H   SFRSYM    DATA     BYTE      P2
      00000090H   SFRSYM    DATA     BYTE      P1
      00000080H   SFRSYM    DATA     BYTE      P0

      ---         MODULE    ---      ---       zf_common_interrupt
      00FF0006H   PUBLIC    CODE     ---       interrupt_global_disable
      00FF000EH   PUBLIC    CODE     ---       interrupt_global_enable
      000000D0H   SFRSYM    DATA     BYTE      PSW
      0000009DH   SFRSYM    DATA     BYTE      IRCBAND
      00000097H   SFRSYM    DATA     BYTE      AUXR2
      000000EFH   SFRSYM    DATA     BYTE      AUXINTIF
      000000FDH   SFRSYM    DATA     BYTE      S4CON
      000000ACH   SFRSYM    DATA     BYTE      S3CON
      0000009AH   SFRSYM    DATA     BYTE      S2CON
      000000B7H   SFRSYM    DATA     BYTE      IPH
      000000CDH   SFRSYM    DATA     BYTE      SPSTAT
      000000DDH   SFRSYM    DATA     BYTE      T4T3M
      000000C1H   SFRSYM    DATA     BYTE      WDT_CONTR
      000000DFH   SFRSYM    DATA     BYTE      IP3
      000000F4H   SFRSYM    DATA     BYTE      USBCON
      000000B5H   SFRSYM    DATA     BYTE      IP2
      000000FFH   SFRSYM    DATA     BYTE      RSTCFG
      000000C7H   SFRSYM    DATA     BYTE      IAP_CONTR
      000000F9H   SFRSYM    DATA     BYTE      LINICR
      0000008EH   SFRSYM    DATA     BYTE      AUXR
      000000AFH   SFRSYM    DATA     BYTE      IE2
      00000088H   SFRSYM    DATA     BYTE      TCON
      00000089H   SFRSYM    DATA     BYTE      TMOD
      00000098H   SFRSYM    DATA     BYTE      SCON
      000000F1H   SFRSYM    DATA     BYTE      CANICR
      00000087H   SFRSYM    DATA     BYTE      PCON
      000000BCH   SFRSYM    DATA     BYTE      ADC_CONTR
      000000E7H   SFRSYM    DATA     BYTE      CMPCR2
      000000E6H   SFRSYM    DATA     BYTE      CMPCR1
      000000DEH   SFRSYM    DATA     BYTE      ADCCFG
      000000B8H   SFRSYM    DATA     BYTE      IP
      0000008FH   SFRSYM    DATA     BYTE      INTCLKO
      000000EEH   SFRSYM    DATA     BYTE      IP3H
      000000B6H   SFRSYM    DATA     BYTE      IP2H
      000000A8H   SFRSYM    DATA     BYTE      IE
      000000BBH   SFRSYM    DATA     BYTE      P_SW3
      000000BAH   SFRSYM    DATA     BYTE      P_SW2
      000000A2H   SFRSYM    DATA     BYTE      P_SW1
      000000CEH   SFRSYM    DATA     BYTE      SPCTL
      000000F8H   SFRSYM    DATA     BYTE      P7
      000000A8H.7 SFRSYM    DATA     BIT       EA
      000000E8H   SFRSYM    DATA     BYTE      P6
      000000C8H   SFRSYM    DATA     BYTE      P5
      000000C0H   SFRSYM    DATA     BYTE      P4
      000000B0H   SFRSYM    DATA     BYTE      P3
      000000A0H   SFRSYM    DATA     BYTE      P2
      00000090H   SFRSYM    DATA     BYTE      P1
      00000080H   SFRSYM    DATA     BYTE      P0
      00011F9AH   SYMBOL    XDATA    INT       irqn
      00011F9CH   SYMBOL    XDATA    BYTE      priority

      00FF0006H   BLOCK     CODE     ---       LVL=0
      00FF0006H   LINE      CODE     ---       #75
      00FF0006H   LINE      CODE     ---       #77
L251 LINKER/LOCATER V4.66.93.0                                                        05/06/2026  19:47:11  PAGE 54


      00FF0009H   LINE      CODE     ---       #78
      ---         BLOCKEND  ---      ---       LVL=0

      00FF000EH   BLOCK     CODE     ---       LVL=0
      00FF000EH   LINE      CODE     ---       #88
      00FF000EH   LINE      CODE     ---       #90
      00FF0011H   LINE      CODE     ---       #91
      ---         BLOCKEND  ---      ---       LVL=0

      ---         MODULE    ---      ---       zf_driver_adc
      00FF9209H   PUBLIC    CODE     ---       adc_convert
      00FF80FBH   PUBLIC    CODE     ---       adc_init
      00011AB0H   PUBLIC    XDATA    ---       adc_average
      00000094H   SFRSYM    DATA     BYTE      P0M0
      000000D0H   SFRSYM    DATA     BYTE      PSW
      0000009DH   SFRSYM    DATA     BYTE      IRCBAND
      00000097H   SFRSYM    DATA     BYTE      AUXR2
      000000EFH   SFRSYM    DATA     BYTE      AUXINTIF
      000000FDH   SFRSYM    DATA     BYTE      S4CON
      000000ACH   SFRSYM    DATA     BYTE      S3CON
      0000009AH   SFRSYM    DATA     BYTE      S2CON
      000000B7H   SFRSYM    DATA     BYTE      IPH
      000000CDH   SFRSYM    DATA     BYTE      SPSTAT
      000000BEH   SFRSYM    DATA     BYTE      ADC_RESL
      000000DDH   SFRSYM    DATA     BYTE      T4T3M
      000000C1H   SFRSYM    DATA     BYTE      WDT_CONTR
      000000DFH   SFRSYM    DATA     BYTE      IP3
      000000F4H   SFRSYM    DATA     BYTE      USBCON
      000000B5H   SFRSYM    DATA     BYTE      IP2
      000000FFH   SFRSYM    DATA     BYTE      RSTCFG
      000000C7H   SFRSYM    DATA     BYTE      IAP_CONTR
      000000F9H   SFRSYM    DATA     BYTE      LINICR
      0000008EH   SFRSYM    DATA     BYTE      AUXR
      000000AFH   SFRSYM    DATA     BYTE      IE2
      00000088H   SFRSYM    DATA     BYTE      TCON
      00000089H   SFRSYM    DATA     BYTE      TMOD
      00000098H   SFRSYM    DATA     BYTE      SCON
      000000F1H   SFRSYM    DATA     BYTE      CANICR
      00000087H   SFRSYM    DATA     BYTE      PCON
      000000BCH   SFRSYM    DATA     BYTE      ADC_CONTR
      000000E7H   SFRSYM    DATA     BYTE      CMPCR2
      000000E6H   SFRSYM    DATA     BYTE      CMPCR1
      000000DEH   SFRSYM    DATA     BYTE      ADCCFG
      000000B8H   SFRSYM    DATA     BYTE      IP
      0000008FH   SFRSYM    DATA     BYTE      INTCLKO
      000000EEH   SFRSYM    DATA     BYTE      IP3H
      000000B6H   SFRSYM    DATA     BYTE      IP2H
      000000BDH   SFRSYM    DATA     BYTE      ADC_RES
      000000A8H   SFRSYM    DATA     BYTE      IE
      000000BBH   SFRSYM    DATA     BYTE      P_SW3
      000000BAH   SFRSYM    DATA     BYTE      P_SW2
      000000A2H   SFRSYM    DATA     BYTE      P_SW1
      000000CEH   SFRSYM    DATA     BYTE      SPCTL
      000000F8H   SFRSYM    DATA     BYTE      P7
      000000E8H   SFRSYM    DATA     BYTE      P6
      000000C8H   SFRSYM    DATA     BYTE      P5
      000000C0H   SFRSYM    DATA     BYTE      P4
      000000B0H   SFRSYM    DATA     BYTE      P3
      000000A0H   SFRSYM    DATA     BYTE      P2
      00000090H   SFRSYM    DATA     BYTE      P1
      00000080H   SFRSYM    DATA     BYTE      P0
      00000091H   SFRSYM    DATA     BYTE      P1M1
      00000092H   SFRSYM    DATA     BYTE      P1M0
      00000093H   SFRSYM    DATA     BYTE      P0M1
      00011AAFH   SYMBOL    XDATA    BYTE      adc_resolution
L251 LINKER/LOCATER V4.66.93.0                                                        05/06/2026  19:47:11  PAGE 55


      00011B07H   SYMBOL    XDATA    INT       ch
      00011B09H   SYMBOL    XDATA    BYTE      count
      00011B0AH   SYMBOL    XDATA    BYTE      i
      00011B0BH   SYMBOL    XDATA    WORD      sum
      00011B0DH   SYMBOL    XDATA    WORD      min
      00011B0FH   SYMBOL    XDATA    WORD      max

      00FF9209H   BLOCK     CODE     ---       LVL=0
      00011F0AH   SYMBOL    XDATA    INT       ch
      00FF920FH   BLOCK     CODE     NEAR LAB  LVL=1
      00011F0CH   SYMBOL    XDATA    WORD      adc_value
      ---         BLOCKEND  ---      ---       LVL=1
      00FF9209H   LINE      CODE     ---       #81
      00FF920FH   LINE      CODE     ---       #82
      00FF920FH   LINE      CODE     ---       #85
      00FF9212H   LINE      CODE     ---       #86
      00FF921CH   LINE      CODE     ---       #88
      00FF921FH   LINE      CODE     ---       #90
      00FF9224H   LINE      CODE     ---       #92
      00FF9227H   LINE      CODE     ---       #94
      00FF9231H   LINE      CODE     ---       #95
      00FF923EH   LINE      CODE     ---       #96
      00FF924DH   LINE      CODE     ---       #98
      00FF9250H   LINE      CODE     ---       #99
      00FF9253H   LINE      CODE     ---       #101
      00FF9267H   LINE      CODE     ---       #104
      00FF926DH   LINE      CODE     ---       #105
      ---         BLOCKEND  ---      ---       LVL=0

      00FF80FBH   BLOCK     CODE     ---       LVL=0
      00011F0EH   SYMBOL    XDATA    INT       ch
      00011F10H   SYMBOL    XDATA    INT       resolution
      00FF80FBH   LINE      CODE     ---       #114
      00FF8107H   LINE      CODE     ---       #116
      00FF810AH   LINE      CODE     ---       #118
      00FF810DH   LINE      CODE     ---       #119
      00FF8117H   LINE      CODE     ---       #121
      00FF812BH   LINE      CODE     ---       #124
      00FF8148H   LINE      CODE     ---       #125
      00FF8163H   LINE      CODE     ---       #126
      00FF8165H   LINE      CODE     ---       #127
      00FF8177H   LINE      CODE     ---       #130
      00FF8194H   LINE      CODE     ---       #131
      00FF81AFH   LINE      CODE     ---       #132
      00FF81AFH   LINE      CODE     ---       #134
      00FF81B2H   LINE      CODE     ---       #136
      00FF81B5H   LINE      CODE     ---       #138
      00FF81BFH   LINE      CODE     ---       #139
      ---         BLOCKEND  ---      ---       LVL=0

      ---         MODULE    ---      ---       zf_driver_delay
      00FF9501H   PUBLIC    CODE     ---       system_delay_init
      00FF9A57H   PUBLIC    CODE     ---       system_delay_ms
      00FF9A7CH   PUBLIC    CODE     ---       system_delay_us
      000000D0H   SFRSYM    DATA     BYTE      PSW
      0000009DH   SFRSYM    DATA     BYTE      IRCBAND
      00000097H   SFRSYM    DATA     BYTE      AUXR2
      000000EFH   SFRSYM    DATA     BYTE      AUXINTIF
      000000FDH   SFRSYM    DATA     BYTE      S4CON
      000000ACH   SFRSYM    DATA     BYTE      S3CON
      0000009AH   SFRSYM    DATA     BYTE      S2CON
      000000B7H   SFRSYM    DATA     BYTE      IPH
      000000CDH   SFRSYM    DATA     BYTE      SPSTAT
      000000DDH   SFRSYM    DATA     BYTE      T4T3M
      000000C1H   SFRSYM    DATA     BYTE      WDT_CONTR
L251 LINKER/LOCATER V4.66.93.0                                                        05/06/2026  19:47:11  PAGE 56


      000000DFH   SFRSYM    DATA     BYTE      IP3
      000000F4H   SFRSYM    DATA     BYTE      USBCON
      000000B5H   SFRSYM    DATA     BYTE      IP2
      000000FFH   SFRSYM    DATA     BYTE      RSTCFG
      000000C7H   SFRSYM    DATA     BYTE      IAP_CONTR
      000000F9H   SFRSYM    DATA     BYTE      LINICR
      0000008EH   SFRSYM    DATA     BYTE      AUXR
      000000AFH   SFRSYM    DATA     BYTE      IE2
      00000088H   SFRSYM    DATA     BYTE      TCON
      00000089H   SFRSYM    DATA     BYTE      TMOD
      00000098H   SFRSYM    DATA     BYTE      SCON
      000000F1H   SFRSYM    DATA     BYTE      CANICR
      00000087H   SFRSYM    DATA     BYTE      PCON
      000000BCH   SFRSYM    DATA     BYTE      ADC_CONTR
      000000E7H   SFRSYM    DATA     BYTE      CMPCR2
      000000E6H   SFRSYM    DATA     BYTE      CMPCR1
      000000DEH   SFRSYM    DATA     BYTE      ADCCFG
      000000B8H   SFRSYM    DATA     BYTE      IP
      0000008FH   SFRSYM    DATA     BYTE      INTCLKO
      000000EEH   SFRSYM    DATA     BYTE      IP3H
      000000B6H   SFRSYM    DATA     BYTE      IP2H
      000000A8H   SFRSYM    DATA     BYTE      IE
      000000BBH   SFRSYM    DATA     BYTE      P_SW3
      000000BAH   SFRSYM    DATA     BYTE      P_SW2
      000000A2H   SFRSYM    DATA     BYTE      P_SW1
      000000CEH   SFRSYM    DATA     BYTE      SPCTL
      000000F8H   SFRSYM    DATA     BYTE      P7
      000000E8H   SFRSYM    DATA     BYTE      P6
      000000C8H   SFRSYM    DATA     BYTE      P5
      000000C0H   SFRSYM    DATA     BYTE      P4
      000000B0H   SFRSYM    DATA     BYTE      P3
      000000A0H   SFRSYM    DATA     BYTE      P2
      00000090H   SFRSYM    DATA     BYTE      P1
      00000080H   SFRSYM    DATA     BYTE      P0
      00FF9B0BH   SYMBOL    CODE     ---       delay_cycles
      00011F12H   SYMBOL    XDATA    WORD      zf_delay_1ms
      00011F14H   SYMBOL    XDATA    WORD      zf_delay_1us

      00FF9B0BH   BLOCK     CODE     ---       LVL=0
      00011FBEH   SYMBOL    XDATA    WORD      cycles
      00FF9B0BH   LINE      CODE     ---       #44
      00FF9B11H   LINE      CODE     ---       #47
      00FF9B11H   LINE      CODE     ---       #50
      00FF9B28H   LINE      CODE     ---       #51
      ---         BLOCKEND  ---      ---       LVL=0

      00FF9501H   BLOCK     CODE     ---       LVL=0
      00FF9501H   LINE      CODE     ---       #59
      00FF9501H   LINE      CODE     ---       #61
      00FF9518H   LINE      CODE     ---       #62
      00FF9533H   LINE      CODE     ---       #63
      00FF9558H   LINE      CODE     ---       #64
      ---         BLOCKEND  ---      ---       LVL=0

      00FF9A57H   BLOCK     CODE     ---       LVL=0
      00011FC0H   SYMBOL    XDATA    WORD      ms
      00FF9A57H   LINE      CODE     ---       #72
      00FF9A5DH   LINE      CODE     ---       #74
      00FF9A5DH   LINE      CODE     ---       #76
      00FF9A66H   LINE      CODE     ---       #77
      00FF9A7BH   LINE      CODE     ---       #78
      ---         BLOCKEND  ---      ---       LVL=0

      00FF9A7CH   BLOCK     CODE     ---       LVL=0
      00011FC2H   SYMBOL    XDATA    WORD      us
L251 LINKER/LOCATER V4.66.93.0                                                        05/06/2026  19:47:11  PAGE 57


      00FF9A7CH   LINE      CODE     ---       #86
      00FF9A82H   LINE      CODE     ---       #88
      00FF9A82H   LINE      CODE     ---       #90
      00FF9A8BH   LINE      CODE     ---       #91
      00FF9AA0H   LINE      CODE     ---       #92
      ---         BLOCKEND  ---      ---       LVL=0

      ---         MODULE    ---      ---       zf_driver_eeprom
      00011B11H   PUBLIC    XDATA    BYTE      ?iap_read_buff?BYTE
      00011B1BH   PUBLIC    XDATA    BYTE      ?iap_write_buff?BYTE
      000000D0H   SFRSYM    DATA     BYTE      PSW
      0000009DH   SFRSYM    DATA     BYTE      IRCBAND
      00000097H   SFRSYM    DATA     BYTE      AUXR2
      000000C6H   SFRSYM    DATA     BYTE      IAP_TRIG
      000000EFH   SFRSYM    DATA     BYTE      AUXINTIF
      000000FDH   SFRSYM    DATA     BYTE      S4CON
      000000ACH   SFRSYM    DATA     BYTE      S3CON
      0000009AH   SFRSYM    DATA     BYTE      S2CON
      000000B7H   SFRSYM    DATA     BYTE      IPH
      000000CDH   SFRSYM    DATA     BYTE      SPSTAT
      000000DDH   SFRSYM    DATA     BYTE      T4T3M
      000000C1H   SFRSYM    DATA     BYTE      WDT_CONTR
      000000C2H   SFRSYM    DATA     BYTE      IAP_DATA
      000000DFH   SFRSYM    DATA     BYTE      IP3
      000000F4H   SFRSYM    DATA     BYTE      USBCON
      000000B5H   SFRSYM    DATA     BYTE      IP2
      000000FFH   SFRSYM    DATA     BYTE      RSTCFG
      000000C7H   SFRSYM    DATA     BYTE      IAP_CONTR
      000000F9H   SFRSYM    DATA     BYTE      LINICR
      0000008EH   SFRSYM    DATA     BYTE      AUXR
      000000AFH   SFRSYM    DATA     BYTE      IE2
      00000088H   SFRSYM    DATA     BYTE      TCON
      00000089H   SFRSYM    DATA     BYTE      TMOD
      00000098H   SFRSYM    DATA     BYTE      SCON
      000000F5H   SFRSYM    DATA     BYTE      IAP_TPS
      000000F1H   SFRSYM    DATA     BYTE      CANICR
      00000087H   SFRSYM    DATA     BYTE      PCON
      000000BCH   SFRSYM    DATA     BYTE      ADC_CONTR
      000000E7H   SFRSYM    DATA     BYTE      CMPCR2
      000000E6H   SFRSYM    DATA     BYTE      CMPCR1
      000000C4H   SFRSYM    DATA     BYTE      IAP_ADDRL
      000000C3H   SFRSYM    DATA     BYTE      IAP_ADDRH
      000000F6H   SFRSYM    DATA     BYTE      IAP_ADDRE
      000000DEH   SFRSYM    DATA     BYTE      ADCCFG
      000000B8H   SFRSYM    DATA     BYTE      IP
      0000008FH   SFRSYM    DATA     BYTE      INTCLKO
      000000EEH   SFRSYM    DATA     BYTE      IP3H
      000000B6H   SFRSYM    DATA     BYTE      IP2H
      000000C5H   SFRSYM    DATA     BYTE      IAP_CMD
      000000A8H   SFRSYM    DATA     BYTE      IE
      000000BBH   SFRSYM    DATA     BYTE      P_SW3
      000000BAH   SFRSYM    DATA     BYTE      P_SW2
      000000A2H   SFRSYM    DATA     BYTE      P_SW1
      000000CEH   SFRSYM    DATA     BYTE      SPCTL
      000000F8H   SFRSYM    DATA     BYTE      P7
      000000A8H.7 SFRSYM    DATA     BIT       EA
      000000E8H   SFRSYM    DATA     BYTE      P6
      000000C8H   SFRSYM    DATA     BYTE      P5
      000000C0H   SFRSYM    DATA     BYTE      P4
      000000B0H   SFRSYM    DATA     BYTE      P3
      000000A0H   SFRSYM    DATA     BYTE      P2
      00000090H   SFRSYM    DATA     BYTE      P1
      00000080H   SFRSYM    DATA     BYTE      P0
      00FFA0B8H   SYMBOL    HCONST   ---       ?tpl?0001
      00012009H   SYMBOL    XDATA    BYTE      write_time
L251 LINKER/LOCATER V4.66.93.0                                                        05/06/2026  19:47:11  PAGE 58


      00011E8DH   SYMBOL    XDATA    DWORD     addr
      00011E91H   SYMBOL    XDATA    BYTE      temp
      00000020H.0 SYMBOL    BIT      BIT       flag
      00011E92H   SYMBOL    XDATA    DWORD     addr
      00011E96H   SYMBOL    XDATA    BYTE      byte
      00000020H.1 SYMBOL    BIT      BIT       flag
      00011B11H   SYMBOL    XDATA    DWORD     addr
      00011B15H   SYMBOL    XDATA    ---       buf
      00011B19H   SYMBOL    XDATA    WORD      len
      00011B1BH   SYMBOL    XDATA    DWORD     addr
      00011B1FH   SYMBOL    XDATA    ---       buf
      00011B23H   SYMBOL    XDATA    WORD      len
      00011F16H   SYMBOL    XDATA    DWORD     addr
      00000020H.2 SYMBOL    BIT      BIT       flag
      00010000H   SYMBOL    XDATA    WORD      addr
      00010002H   SYMBOL    XDATA    ---       buf
      00010006H   SYMBOL    XDATA    WORD      len
      00010008H   SYMBOL    XDATA    ---       temp
      00010208H   SYMBOL    XDATA    WORD      i

      ---         MODULE    ---      ---       zf_driver_encoder
      00FF7B9AH   PUBLIC    CODE     ---       encoder_get_count
      00FF7A8DH   PUBLIC    CODE     ---       encoder_dir_init
      00FF926EH   PUBLIC    CODE     ---       encoder_clear_count
      000000D0H   SFRSYM    DATA     BYTE      PSW
      0000009DH   SFRSYM    DATA     BYTE      IRCBAND
      00000097H   SFRSYM    DATA     BYTE      AUXR2
      000000EFH   SFRSYM    DATA     BYTE      AUXINTIF
      000000FDH   SFRSYM    DATA     BYTE      S4CON
      000000ACH   SFRSYM    DATA     BYTE      S3CON
      0000009AH   SFRSYM    DATA     BYTE      S2CON
      000000B7H   SFRSYM    DATA     BYTE      IPH
      000000CDH   SFRSYM    DATA     BYTE      SPSTAT
      000000DDH   SFRSYM    DATA     BYTE      T4T3M
      000000C1H   SFRSYM    DATA     BYTE      WDT_CONTR
      00000088H.6 SFRSYM    DATA     BIT       TR1
      00000088H.4 SFRSYM    DATA     BIT       TR0
      000000D3H   SFRSYM    DATA     BYTE      T4L
      000000D5H   SFRSYM    DATA     BYTE      T3L
      000000D7H   SFRSYM    DATA     BYTE      T2L
      0000008BH   SFRSYM    DATA     BYTE      TL1
      0000008AH   SFRSYM    DATA     BYTE      TL0
      000000D2H   SFRSYM    DATA     BYTE      T4H
      000000D4H   SFRSYM    DATA     BYTE      T3H
      000000D6H   SFRSYM    DATA     BYTE      T2H
      0000008DH   SFRSYM    DATA     BYTE      TH1
      0000008CH   SFRSYM    DATA     BYTE      TH0
      000000DFH   SFRSYM    DATA     BYTE      IP3
      000000F4H   SFRSYM    DATA     BYTE      USBCON
      000000B5H   SFRSYM    DATA     BYTE      IP2
      000000FFH   SFRSYM    DATA     BYTE      RSTCFG
      000000C7H   SFRSYM    DATA     BYTE      IAP_CONTR
      000000F9H   SFRSYM    DATA     BYTE      LINICR
      0000008EH   SFRSYM    DATA     BYTE      AUXR
      000000AFH   SFRSYM    DATA     BYTE      IE2
      00000088H   SFRSYM    DATA     BYTE      TCON
      00000089H   SFRSYM    DATA     BYTE      TMOD
      00000098H   SFRSYM    DATA     BYTE      SCON
      000000F1H   SFRSYM    DATA     BYTE      CANICR
      00000087H   SFRSYM    DATA     BYTE      PCON
      000000BCH   SFRSYM    DATA     BYTE      ADC_CONTR
      000000E7H   SFRSYM    DATA     BYTE      CMPCR2
      000000E6H   SFRSYM    DATA     BYTE      CMPCR1
      000000DEH   SFRSYM    DATA     BYTE      ADCCFG
      000000B8H   SFRSYM    DATA     BYTE      IP
L251 LINKER/LOCATER V4.66.93.0                                                        05/06/2026  19:47:11  PAGE 59


      0000008FH   SFRSYM    DATA     BYTE      INTCLKO
      000000EEH   SFRSYM    DATA     BYTE      IP3H
      000000B6H   SFRSYM    DATA     BYTE      IP2H
      000000A8H   SFRSYM    DATA     BYTE      IE
      000000BBH   SFRSYM    DATA     BYTE      P_SW3
      000000BAH   SFRSYM    DATA     BYTE      P_SW2
      000000A2H   SFRSYM    DATA     BYTE      P_SW1
      000000CEH   SFRSYM    DATA     BYTE      SPCTL
      000000F8H   SFRSYM    DATA     BYTE      P7
      000000E8H   SFRSYM    DATA     BYTE      P6
      000000C8H   SFRSYM    DATA     BYTE      P5
      000000C0H   SFRSYM    DATA     BYTE      P4
      000000B0H   SFRSYM    DATA     BYTE      P3
      000000A0H   SFRSYM    DATA     BYTE      P2
      00000090H   SFRSYM    DATA     BYTE      P1
      00000080H   SFRSYM    DATA     BYTE      P0
      00011DB5H   SYMBOL    XDATA    ---       encoder_dir_pin

      00FF7B9AH   BLOCK     CODE     ---       LVL=0
      00011F1AH   SYMBOL    XDATA    INT       encoder_n
      00FF7BA0H   BLOCK     CODE     NEAR LAB  LVL=1
      00011F1CH   SYMBOL    XDATA    INT       dat
      ---         BLOCKEND  ---      ---       LVL=1
      00FF7B9AH   LINE      CODE     ---       #47
      00FF7BA0H   LINE      CODE     ---       #48
      00FF7BA0H   LINE      CODE     ---       #49
      00FF7BA8H   LINE      CODE     ---       #50
      00FF7BC8H   LINE      CODE     ---       #52
      00FF7BC8H   LINE      CODE     ---       #54
      00FF7BD6H   LINE      CODE     ---       #55
      00FF7BE8H   LINE      CODE     ---       #56
      00FF7BEBH   LINE      CODE     ---       #58
      00FF7BEBH   LINE      CODE     ---       #60
      00FF7BF9H   LINE      CODE     ---       #61
      00FF7C0BH   LINE      CODE     ---       #62
      00FF7C0DH   LINE      CODE     ---       #64
      00FF7C0DH   LINE      CODE     ---       #66
      00FF7C1BH   LINE      CODE     ---       #67
      00FF7C2DH   LINE      CODE     ---       #68
      00FF7C2FH   LINE      CODE     ---       #70
      00FF7C2FH   LINE      CODE     ---       #72
      00FF7C3DH   LINE      CODE     ---       #73
      00FF7C4FH   LINE      CODE     ---       #74
      00FF7C51H   LINE      CODE     ---       #76
      00FF7C51H   LINE      CODE     ---       #78
      00FF7C5FH   LINE      CODE     ---       #79
      00FF7C71H   LINE      CODE     ---       #80
      00FF7C71H   LINE      CODE     ---       #82
      00FF7C71H   LINE      CODE     ---       #83
      00FF7C8EH   LINE      CODE     ---       #85
      00FF7C9CH   LINE      CODE     ---       #86
      00FF7C9CH   LINE      CODE     ---       #87
      00FF7CA2H   LINE      CODE     ---       #88
      ---         BLOCKEND  ---      ---       LVL=0

      00FF926EH   BLOCK     CODE     ---       LVL=0
      00011FC4H   SYMBOL    XDATA    INT       encoder_n
      00FF926EH   LINE      CODE     ---       #97
      00FF9274H   LINE      CODE     ---       #99
      00FF928EH   LINE      CODE     ---       #101
      00FF928EH   LINE      CODE     ---       #103
      00FF9291H   LINE      CODE     ---       #104
      00FF9294H   LINE      CODE     ---       #105
      00FF9297H   LINE      CODE     ---       #106
      00FF929AH   LINE      CODE     ---       #107
L251 LINKER/LOCATER V4.66.93.0                                                        05/06/2026  19:47:11  PAGE 60


      00FF929CH   LINE      CODE     ---       #109
      00FF929CH   LINE      CODE     ---       #111
      00FF929FH   LINE      CODE     ---       #112
      00FF92A2H   LINE      CODE     ---       #113
      00FF92A5H   LINE      CODE     ---       #114
      00FF92A8H   LINE      CODE     ---       #115
      00FF92AAH   LINE      CODE     ---       #117
      00FF92AAH   LINE      CODE     ---       #119
      00FF92ADH   LINE      CODE     ---       #120
      00FF92B0H   LINE      CODE     ---       #121
      00FF92B3H   LINE      CODE     ---       #122
      00FF92B6H   LINE      CODE     ---       #123
      00FF92B8H   LINE      CODE     ---       #125
      00FF92B8H   LINE      CODE     ---       #127
      00FF92BBH   LINE      CODE     ---       #128
      00FF92BEH   LINE      CODE     ---       #129
      00FF92C1H   LINE      CODE     ---       #130
      00FF92C4H   LINE      CODE     ---       #131
      00FF92C6H   LINE      CODE     ---       #133
      00FF92C6H   LINE      CODE     ---       #135
      00FF92C9H   LINE      CODE     ---       #136
      00FF92CCH   LINE      CODE     ---       #137
      00FF92CFH   LINE      CODE     ---       #138
      00FF92D2H   LINE      CODE     ---       #139
      00FF92D2H   LINE      CODE     ---       #141
      00FF92D2H   LINE      CODE     ---       #142
      ---         BLOCKEND  ---      ---       LVL=0

      00FF7A8DH   BLOCK     CODE     ---       LVL=0
      00011DBBH   SYMBOL    XDATA    INT       encoder_n
      00011DBDH   SYMBOL    XDATA    INT       dir_pin
      00011DBFH   SYMBOL    XDATA    INT       lsb_pin
      00FF7A8DH   LINE      CODE     ---       #154
      00FF7A9FH   LINE      CODE     ---       #160
      00FF7ABBH   LINE      CODE     ---       #161
      00FF7ADDH   LINE      CODE     ---       #162
      00FF7B05H   LINE      CODE     ---       #164
      00FF7B15H   LINE      CODE     ---       #165
      00FF7B2BH   LINE      CODE     ---       #166
      00FF7B44H   LINE      CODE     ---       #167
      00FF7B5EH   LINE      CODE     ---       #169
      00FF7B5EH   LINE      CODE     ---       #171
      00FF7B61H   LINE      CODE     ---       #172
      00FF7B64H   LINE      CODE     ---       #173
      00FF7B67H   LINE      CODE     ---       #174
      00FF7B6AH   LINE      CODE     ---       #175
      00FF7B6CH   LINE      CODE     ---       #177
      00FF7B6CH   LINE      CODE     ---       #179
      00FF7B6FH   LINE      CODE     ---       #180
      00FF7B72H   LINE      CODE     ---       #181
      00FF7B75H   LINE      CODE     ---       #182
      00FF7B78H   LINE      CODE     ---       #183
      00FF7B7AH   LINE      CODE     ---       #185
      00FF7B7AH   LINE      CODE     ---       #187
      00FF7B7DH   LINE      CODE     ---       #188
      00FF7B80H   LINE      CODE     ---       #189
      00FF7B83H   LINE      CODE     ---       #190
      00FF7B85H   LINE      CODE     ---       #192
      00FF7B85H   LINE      CODE     ---       #194
      00FF7B88H   LINE      CODE     ---       #195
      00FF7B8BH   LINE      CODE     ---       #196
      00FF7B8EH   LINE      CODE     ---       #197
      00FF7B90H   LINE      CODE     ---       #199
      00FF7B90H   LINE      CODE     ---       #201
      00FF7B93H   LINE      CODE     ---       #202
L251 LINKER/LOCATER V4.66.93.0                                                        05/06/2026  19:47:11  PAGE 61


      00FF7B96H   LINE      CODE     ---       #203
      00FF7B99H   LINE      CODE     ---       #204
      00FF7B99H   LINE      CODE     ---       #206
      00FF7B99H   LINE      CODE     ---       #207
      ---         BLOCKEND  ---      ---       LVL=0

      ---         MODULE    ---      ---       zf_driver_exti
      000000D0H   SFRSYM    DATA     BYTE      PSW
      0000009DH   SFRSYM    DATA     BYTE      IRCBAND
      00000097H   SFRSYM    DATA     BYTE      AUXR2
      000000EFH   SFRSYM    DATA     BYTE      AUXINTIF
      000000FDH   SFRSYM    DATA     BYTE      S4CON
      000000ACH   SFRSYM    DATA     BYTE      S3CON
      0000009AH   SFRSYM    DATA     BYTE      S2CON
      000000B7H   SFRSYM    DATA     BYTE      IPH
      000000CDH   SFRSYM    DATA     BYTE      SPSTAT
      000000DDH   SFRSYM    DATA     BYTE      T4T3M
      000000C1H   SFRSYM    DATA     BYTE      WDT_CONTR
      0000008FH.6 SFRSYM    DATA     BIT       EX4
      0000008FH.5 SFRSYM    DATA     BIT       EX3
      0000008FH.4 SFRSYM    DATA     BIT       EX2
      00000088H.2 SFRSYM    DATA     BIT       IT1
      000000A8H.2 SFRSYM    DATA     BIT       EX1
      00000088H.0 SFRSYM    DATA     BIT       IT0
      000000A8H.0 SFRSYM    DATA     BIT       EX0
      000000DFH   SFRSYM    DATA     BYTE      IP3
      000000F4H   SFRSYM    DATA     BYTE      USBCON
      000000B5H   SFRSYM    DATA     BYTE      IP2
      000000FFH   SFRSYM    DATA     BYTE      RSTCFG
      000000C7H   SFRSYM    DATA     BYTE      IAP_CONTR
      000000F9H   SFRSYM    DATA     BYTE      LINICR
      0000008EH   SFRSYM    DATA     BYTE      AUXR
      000000AFH   SFRSYM    DATA     BYTE      IE2
      00000088H   SFRSYM    DATA     BYTE      TCON
      00000089H   SFRSYM    DATA     BYTE      TMOD
      00000098H   SFRSYM    DATA     BYTE      SCON
      000000F1H   SFRSYM    DATA     BYTE      CANICR
      00000087H   SFRSYM    DATA     BYTE      PCON
      000000BCH   SFRSYM    DATA     BYTE      ADC_CONTR
      000000E7H   SFRSYM    DATA     BYTE      CMPCR2
      000000E6H   SFRSYM    DATA     BYTE      CMPCR1
      000000DEH   SFRSYM    DATA     BYTE      ADCCFG
      000000B8H   SFRSYM    DATA     BYTE      IP
      0000008FH   SFRSYM    DATA     BYTE      INTCLKO
      000000EEH   SFRSYM    DATA     BYTE      IP3H
      000000B6H   SFRSYM    DATA     BYTE      IP2H
      000000A8H   SFRSYM    DATA     BYTE      IE
      000000BBH   SFRSYM    DATA     BYTE      P_SW3
      000000BAH   SFRSYM    DATA     BYTE      P_SW2
      000000A2H   SFRSYM    DATA     BYTE      P_SW1
      000000CEH   SFRSYM    DATA     BYTE      SPCTL
      000000F8H   SFRSYM    DATA     BYTE      P7
      000000E8H   SFRSYM    DATA     BYTE      P6
      000000C8H   SFRSYM    DATA     BYTE      P5
      000000C0H   SFRSYM    DATA     BYTE      P4
      000000B0H   SFRSYM    DATA     BYTE      P3
      000000A0H   SFRSYM    DATA     BYTE      P2
      00000090H   SFRSYM    DATA     BYTE      P1
      00000080H   SFRSYM    DATA     BYTE      P0
      00011FC6H   SYMBOL    XDATA    INT       eru_pin
      00011FC8H   SYMBOL    XDATA    INT       eru_pin
      00011F1EH   SYMBOL    XDATA    INT       eru_pin
      00011F20H   SYMBOL    XDATA    INT       trigger

      ---         MODULE    ---      ---       zf_driver_gpio
L251 LINKER/LOCATER V4.66.93.0                                                        05/06/2026  19:47:11  PAGE 62


      00FF797EH   PUBLIC    CODE     ---       gpio_init
      00FF725AH   PUBLIC    CODE     ---       gpio_get_level
      00FF5D3BH   PUBLIC    CODE     ---       gpio_set_level
      00FF6A94H   PUBLIC    CODE     ---       gpio_set_impedance
      00000094H   SFRSYM    DATA     BYTE      P0M0
      000000D0H   SFRSYM    DATA     BYTE      PSW
      0000009DH   SFRSYM    DATA     BYTE      IRCBAND
      00000097H   SFRSYM    DATA     BYTE      AUXR2
      000000EFH   SFRSYM    DATA     BYTE      AUXINTIF
      000000FDH   SFRSYM    DATA     BYTE      S4CON
      000000ACH   SFRSYM    DATA     BYTE      S3CON
      0000009AH   SFRSYM    DATA     BYTE      S2CON
      000000B7H   SFRSYM    DATA     BYTE      IPH
      000000CDH   SFRSYM    DATA     BYTE      SPSTAT
      000000DDH   SFRSYM    DATA     BYTE      T4T3M
      000000C1H   SFRSYM    DATA     BYTE      WDT_CONTR
      000000DFH   SFRSYM    DATA     BYTE      IP3
      000000F4H   SFRSYM    DATA     BYTE      USBCON
      000000B5H   SFRSYM    DATA     BYTE      IP2
      000000FFH   SFRSYM    DATA     BYTE      RSTCFG
      000000C7H   SFRSYM    DATA     BYTE      IAP_CONTR
      000000F9H   SFRSYM    DATA     BYTE      LINICR
      0000008EH   SFRSYM    DATA     BYTE      AUXR
      000000AFH   SFRSYM    DATA     BYTE      IE2
      00000088H   SFRSYM    DATA     BYTE      TCON
      00000089H   SFRSYM    DATA     BYTE      TMOD
      00000098H   SFRSYM    DATA     BYTE      SCON
      000000F1H   SFRSYM    DATA     BYTE      CANICR
      00000087H   SFRSYM    DATA     BYTE      PCON
      000000BCH   SFRSYM    DATA     BYTE      ADC_CONTR
      000000E7H   SFRSYM    DATA     BYTE      CMPCR2
      000000E6H   SFRSYM    DATA     BYTE      CMPCR1
      000000DEH   SFRSYM    DATA     BYTE      ADCCFG
      000000B8H   SFRSYM    DATA     BYTE      IP
      0000008FH   SFRSYM    DATA     BYTE      INTCLKO
      000000EEH   SFRSYM    DATA     BYTE      IP3H
      000000B6H   SFRSYM    DATA     BYTE      IP2H
      000000A8H   SFRSYM    DATA     BYTE      IE
      000000BBH   SFRSYM    DATA     BYTE      P_SW3
      000000BAH   SFRSYM    DATA     BYTE      P_SW2
      000000A2H   SFRSYM    DATA     BYTE      P_SW1
      000000CEH   SFRSYM    DATA     BYTE      SPCTL
      000000F8H   SFRSYM    DATA     BYTE      P7
      000000E1H   SFRSYM    DATA     BYTE      P7M1
      000000E8H   SFRSYM    DATA     BYTE      P6
      000000C8H   SFRSYM    DATA     BYTE      P5
      000000CBH   SFRSYM    DATA     BYTE      P6M1
      000000E2H   SFRSYM    DATA     BYTE      P7M0
      000000C0H   SFRSYM    DATA     BYTE      P4
      000000C9H   SFRSYM    DATA     BYTE      P5M1
      000000CCH   SFRSYM    DATA     BYTE      P6M0
      000000B0H   SFRSYM    DATA     BYTE      P3
      000000B3H   SFRSYM    DATA     BYTE      P4M1
      000000CAH   SFRSYM    DATA     BYTE      P5M0
      000000A0H   SFRSYM    DATA     BYTE      P2
      000000B1H   SFRSYM    DATA     BYTE      P3M1
      000000B4H   SFRSYM    DATA     BYTE      P4M0
      00000090H   SFRSYM    DATA     BYTE      P1
      00000095H   SFRSYM    DATA     BYTE      P2M1
      000000B2H   SFRSYM    DATA     BYTE      P3M0
      00000080H   SFRSYM    DATA     BYTE      P0
      00000091H   SFRSYM    DATA     BYTE      P1M1
      00000096H   SFRSYM    DATA     BYTE      P2M0
      00000092H   SFRSYM    DATA     BYTE      P1M0
      00000093H   SFRSYM    DATA     BYTE      P0M1
L251 LINKER/LOCATER V4.66.93.0                                                        05/06/2026  19:47:11  PAGE 63


      00FF424CH   SYMBOL    CODE     ---       gpio_set_dir
      00FF4E99H   SYMBOL    CODE     ---       gpio_set_mode

      00FF4E99H   BLOCK     CODE     ---       LVL=0
      00011F22H   SYMBOL    XDATA    INT       pin
      00011F24H   SYMBOL    XDATA    INT       mode
      00FF4E99H   LINE      CODE     ---       #41
      00FF4EA5H   LINE      CODE     ---       #46
      00FF4EC1H   LINE      CODE     ---       #48
      00FF4EFEH   LINE      CODE     ---       #50
      00FF4F01H   LINE      CODE     ---       #55
      00FF4F1DH   LINE      CODE     ---       #57
      00FF4F58H   LINE      CODE     ---       #58
      00FF4F5BH   LINE      CODE     ---       #59
      00FF4F6CH   LINE      CODE     ---       #62
      00FF4FBDH   LINE      CODE     ---       #64
      00FF4FBDH   LINE      CODE     ---       #65
      00FF4FD8H   LINE      CODE     ---       #66
      00FF4FF3H   LINE      CODE     ---       #67
      00FF4FF6H   LINE      CODE     ---       #68
      00FF4FF6H   LINE      CODE     ---       #69
      00FF5011H   LINE      CODE     ---       #70
      00FF502CH   LINE      CODE     ---       #71
      00FF502FH   LINE      CODE     ---       #72
      00FF502FH   LINE      CODE     ---       #73
      00FF504AH   LINE      CODE     ---       #74
      00FF5065H   LINE      CODE     ---       #75
      00FF5068H   LINE      CODE     ---       #76
      00FF5068H   LINE      CODE     ---       #77
      00FF5083H   LINE      CODE     ---       #78
      00FF509EH   LINE      CODE     ---       #79
      00FF50A1H   LINE      CODE     ---       #80
      00FF50A1H   LINE      CODE     ---       #81
      00FF50BCH   LINE      CODE     ---       #82
      00FF50D7H   LINE      CODE     ---       #83
      00FF50DAH   LINE      CODE     ---       #84
      00FF50DAH   LINE      CODE     ---       #85
      00FF50F5H   LINE      CODE     ---       #86
      00FF5110H   LINE      CODE     ---       #87
      00FF5112H   LINE      CODE     ---       #88
      00FF5112H   LINE      CODE     ---       #89
      00FF512DH   LINE      CODE     ---       #90
      00FF5148H   LINE      CODE     ---       #91
      00FF514AH   LINE      CODE     ---       #92
      00FF514AH   LINE      CODE     ---       #93
      00FF5165H   LINE      CODE     ---       #94
      00FF5180H   LINE      CODE     ---       #95
      00FF5180H   LINE      CODE     ---       #96
      00FF5180H   LINE      CODE     ---       #97
      00FF5180H   LINE      CODE     ---       #98
      00FF5180H   LINE      CODE     ---       #99
      00FF5180H   LINE      CODE     ---       #103
      00FF5180H   LINE      CODE     ---       #104
      ---         BLOCKEND  ---      ---       LVL=0
      00011DC1H   SYMBOL    XDATA    INT       pin
      00011DC3H   SYMBOL    XDATA    INT       speed
      00011DC5H   SYMBOL    XDATA    BYTE      pin_bit
      00011DC6H   SYMBOL    XDATA    BYTE      port_flag

      00FF424CH   BLOCK     CODE     ---       LVL=0
      00011F26H   SYMBOL    XDATA    INT       pin
      00011F28H   SYMBOL    XDATA    INT       dir
      00FF424CH   LINE      CODE     ---       #148
      00FF4258H   LINE      CODE     ---       #150
      00FF42ACH   LINE      CODE     ---       #152
L251 LINKER/LOCATER V4.66.93.0                                                        05/06/2026  19:47:11  PAGE 64


      00FF42ACH   LINE      CODE     ---       #154
      00FF42C6H   LINE      CODE     ---       #156
      00FF42E3H   LINE      CODE     ---       #157
      00FF4300H   LINE      CODE     ---       #158
      00FF4303H   LINE      CODE     ---       #164
      00FF4314H   LINE      CODE     ---       #166
      00FF4331H   LINE      CODE     ---       #167
      00FF434CH   LINE      CODE     ---       #168
      00FF434CH   LINE      CODE     ---       #170
      00FF434FH   LINE      CODE     ---       #172
      00FF434FH   LINE      CODE     ---       #174
      00FF4369H   LINE      CODE     ---       #176
      00FF4386H   LINE      CODE     ---       #177
      00FF43A3H   LINE      CODE     ---       #178
      00FF43A6H   LINE      CODE     ---       #184
      00FF43B7H   LINE      CODE     ---       #186
      00FF43D4H   LINE      CODE     ---       #187
      00FF43EFH   LINE      CODE     ---       #188
      00FF43EFH   LINE      CODE     ---       #190
      00FF43F2H   LINE      CODE     ---       #192
      00FF43F2H   LINE      CODE     ---       #194
      00FF440CH   LINE      CODE     ---       #196
      00FF4429H   LINE      CODE     ---       #197
      00FF4446H   LINE      CODE     ---       #198
      00FF4449H   LINE      CODE     ---       #204
      00FF445AH   LINE      CODE     ---       #206
      00FF4477H   LINE      CODE     ---       #207
      00FF4492H   LINE      CODE     ---       #208
      00FF4492H   LINE      CODE     ---       #210
      00FF4495H   LINE      CODE     ---       #212
      00FF4495H   LINE      CODE     ---       #214
      00FF44AFH   LINE      CODE     ---       #216
      00FF44CCH   LINE      CODE     ---       #217
      00FF44E9H   LINE      CODE     ---       #218
      00FF44ECH   LINE      CODE     ---       #224
      00FF44FDH   LINE      CODE     ---       #226
      00FF451AH   LINE      CODE     ---       #227
      00FF4535H   LINE      CODE     ---       #228
      00FF4535H   LINE      CODE     ---       #230
      00FF4538H   LINE      CODE     ---       #232
      00FF4538H   LINE      CODE     ---       #234
      00FF4552H   LINE      CODE     ---       #236
      00FF456FH   LINE      CODE     ---       #237
      00FF458CH   LINE      CODE     ---       #238
      00FF458FH   LINE      CODE     ---       #244
      00FF45A0H   LINE      CODE     ---       #246
      00FF45BDH   LINE      CODE     ---       #247
      00FF45D8H   LINE      CODE     ---       #248
      00FF45D8H   LINE      CODE     ---       #250
      00FF45DBH   LINE      CODE     ---       #252
      00FF45DBH   LINE      CODE     ---       #254
      00FF45F5H   LINE      CODE     ---       #256
      00FF4612H   LINE      CODE     ---       #257
      00FF462FH   LINE      CODE     ---       #258
      00FF4632H   LINE      CODE     ---       #264
      00FF4643H   LINE      CODE     ---       #266
      00FF4660H   LINE      CODE     ---       #267
      00FF467BH   LINE      CODE     ---       #268
      00FF467BH   LINE      CODE     ---       #270
      00FF467EH   LINE      CODE     ---       #272
      00FF467EH   LINE      CODE     ---       #274
      00FF4698H   LINE      CODE     ---       #276
      00FF46B5H   LINE      CODE     ---       #277
      00FF46D2H   LINE      CODE     ---       #278
      00FF46D5H   LINE      CODE     ---       #284
L251 LINKER/LOCATER V4.66.93.0                                                        05/06/2026  19:47:11  PAGE 65


      00FF46E6H   LINE      CODE     ---       #286
      00FF4703H   LINE      CODE     ---       #287
      00FF471EH   LINE      CODE     ---       #288
      00FF471EH   LINE      CODE     ---       #290
      00FF4721H   LINE      CODE     ---       #292
      00FF4721H   LINE      CODE     ---       #294
      00FF473BH   LINE      CODE     ---       #296
      00FF4758H   LINE      CODE     ---       #297
      00FF4775H   LINE      CODE     ---       #298
      00FF4777H   LINE      CODE     ---       #304
      00FF4785H   LINE      CODE     ---       #306
      00FF47A2H   LINE      CODE     ---       #307
      00FF47BDH   LINE      CODE     ---       #308
      00FF47BDH   LINE      CODE     ---       #310
      00FF47BFH   LINE      CODE     ---       #312
      00FF47BFH   LINE      CODE     ---       #314
      00FF47CFH   LINE      CODE     ---       #317
      00FF47CFH   LINE      CODE     ---       #318
      00FF47CFH   LINE      CODE     ---       #319
      ---         BLOCKEND  ---      ---       LVL=0

      00FF725AH   BLOCK     CODE     ---       LVL=0
      00011E97H   SYMBOL    XDATA    INT       pin
      00FF7260H   BLOCK     CODE     NEAR LAB  LVL=1
      00011E99H   SYMBOL    XDATA    BYTE      pin_bit
      00011E9AH   SYMBOL    XDATA    BYTE      port_flag
      00011E9BH   SYMBOL    XDATA    BYTE      status
      ---         BLOCKEND  ---      ---       LVL=1
      00FF725AH   LINE      CODE     ---       #327
      00FF7260H   LINE      CODE     ---       #328
      00FF7260H   LINE      CODE     ---       #329
      00FF7270H   LINE      CODE     ---       #330
      00FF7280H   LINE      CODE     ---       #331
      00FF7285H   LINE      CODE     ---       #334
      00FF72B8H   LINE      CODE     ---       #336
      00FF72B8H   LINE      CODE     ---       #337
      00FF72D1H   LINE      CODE     ---       #338
      00FF72D4H   LINE      CODE     ---       #339
      00FF72D4H   LINE      CODE     ---       #340
      00FF72EDH   LINE      CODE     ---       #341
      00FF72F0H   LINE      CODE     ---       #342
      00FF72F0H   LINE      CODE     ---       #343
      00FF7309H   LINE      CODE     ---       #344
      00FF730CH   LINE      CODE     ---       #345
      00FF730CH   LINE      CODE     ---       #346
      00FF7325H   LINE      CODE     ---       #347
      00FF7327H   LINE      CODE     ---       #348
      00FF7327H   LINE      CODE     ---       #349
      00FF7340H   LINE      CODE     ---       #350
      00FF7342H   LINE      CODE     ---       #351
      00FF7342H   LINE      CODE     ---       #352
      00FF735BH   LINE      CODE     ---       #353
      00FF735DH   LINE      CODE     ---       #354
      00FF735DH   LINE      CODE     ---       #355
      00FF7376H   LINE      CODE     ---       #356
      00FF7378H   LINE      CODE     ---       #357
      00FF7378H   LINE      CODE     ---       #358
      00FF7391H   LINE      CODE     ---       #359
      00FF7391H   LINE      CODE     ---       #360
      00FF7391H   LINE      CODE     ---       #361
      00FF7391H   LINE      CODE     ---       #362
      00FF7391H   LINE      CODE     ---       #364
      00FF739FH   LINE      CODE     ---       #365
      ---         BLOCKEND  ---      ---       LVL=0

L251 LINKER/LOCATER V4.66.93.0                                                        05/06/2026  19:47:11  PAGE 66


      00FF5D3BH   BLOCK     CODE     ---       LVL=0
      00011E9CH   SYMBOL    XDATA    INT       pin
      00011E9EH   SYMBOL    XDATA    BYTE      dat
      00FF5D45H   BLOCK     CODE     NEAR LAB  LVL=1
      00011E9FH   SYMBOL    XDATA    BYTE      pin_bit
      00011EA0H   SYMBOL    XDATA    BYTE      port_flag
      ---         BLOCKEND  ---      ---       LVL=1
      00FF5D3BH   LINE      CODE     ---       #374
      00FF5D45H   LINE      CODE     ---       #375
      00FF5D45H   LINE      CODE     ---       #376
      00FF5D55H   LINE      CODE     ---       #377
      00FF5D65H   LINE      CODE     ---       #380
      00FF5D9EH   LINE      CODE     ---       #382
      00FF5D9EH   LINE      CODE     ---       #383
      00FF5DD2H   LINE      CODE     ---       #384
      00FF5DD5H   LINE      CODE     ---       #385
      00FF5DD5H   LINE      CODE     ---       #386
      00FF5E09H   LINE      CODE     ---       #387
      00FF5E0CH   LINE      CODE     ---       #388
      00FF5E0CH   LINE      CODE     ---       #389
      00FF5E40H   LINE      CODE     ---       #390
      00FF5E43H   LINE      CODE     ---       #391
      00FF5E43H   LINE      CODE     ---       #392
      00FF5E77H   LINE      CODE     ---       #393
      00FF5E7AH   LINE      CODE     ---       #394
      00FF5E7AH   LINE      CODE     ---       #395
      00FF5EAEH   LINE      CODE     ---       #396
      00FF5EB1H   LINE      CODE     ---       #397
      00FF5EB1H   LINE      CODE     ---       #398
      00FF5EE5H   LINE      CODE     ---       #399
      00FF5EE7H   LINE      CODE     ---       #400
      00FF5EE7H   LINE      CODE     ---       #401
      00FF5F1AH   LINE      CODE     ---       #402
      00FF5F1CH   LINE      CODE     ---       #403
      00FF5F1CH   LINE      CODE     ---       #404
      00FF5F4FH   LINE      CODE     ---       #405
      00FF5F4FH   LINE      CODE     ---       #406
      00FF5F4FH   LINE      CODE     ---       #407
      00FF5F4FH   LINE      CODE     ---       #408
      00FF5F4FH   LINE      CODE     ---       #409
      ---         BLOCKEND  ---      ---       LVL=0
      00011FCAH   SYMBOL    XDATA    INT       pin

      00FF6A94H   BLOCK     CODE     ---       LVL=0
      00011F2AH   SYMBOL    XDATA    INT       pin
      00FF6A9AH   BLOCK     CODE     NEAR LAB  LVL=1
      00011F2CH   SYMBOL    XDATA    BYTE      pin_bit
      00011F2DH   SYMBOL    XDATA    BYTE      port_flag
      ---         BLOCKEND  ---      ---       LVL=1
      00FF6A94H   LINE      CODE     ---       #429
      00FF6A9AH   LINE      CODE     ---       #430
      00FF6A9AH   LINE      CODE     ---       #431
      00FF6AAAH   LINE      CODE     ---       #432
      00FF6ABAH   LINE      CODE     ---       #435
      00FF6AF3H   LINE      CODE     ---       #437
      00FF6AF3H   LINE      CODE     ---       #438
      00FF6B06H   LINE      CODE     ---       #439
      00FF6B1BH   LINE      CODE     ---       #440
      00FF6B1EH   LINE      CODE     ---       #441
      00FF6B1EH   LINE      CODE     ---       #442
      00FF6B31H   LINE      CODE     ---       #443
      00FF6B46H   LINE      CODE     ---       #444
      00FF6B49H   LINE      CODE     ---       #445
      00FF6B49H   LINE      CODE     ---       #446
      00FF6B5CH   LINE      CODE     ---       #447
L251 LINKER/LOCATER V4.66.93.0                                                        05/06/2026  19:47:11  PAGE 67


      00FF6B71H   LINE      CODE     ---       #448
      00FF6B74H   LINE      CODE     ---       #449
      00FF6B74H   LINE      CODE     ---       #450
      00FF6B87H   LINE      CODE     ---       #451
      00FF6B9CH   LINE      CODE     ---       #452
      00FF6B9FH   LINE      CODE     ---       #453
      00FF6B9FH   LINE      CODE     ---       #454
      00FF6BB2H   LINE      CODE     ---       #455
      00FF6BC7H   LINE      CODE     ---       #456
      00FF6BC9H   LINE      CODE     ---       #457
      00FF6BC9H   LINE      CODE     ---       #458
      00FF6BDCH   LINE      CODE     ---       #459
      00FF6BF1H   LINE      CODE     ---       #460
      00FF6BF3H   LINE      CODE     ---       #461
      00FF6BF3H   LINE      CODE     ---       #462
      00FF6C06H   LINE      CODE     ---       #463
      00FF6C1BH   LINE      CODE     ---       #464
      00FF6C1DH   LINE      CODE     ---       #465
      00FF6C1DH   LINE      CODE     ---       #466
      00FF6C30H   LINE      CODE     ---       #467
      00FF6C45H   LINE      CODE     ---       #468
      00FF6C45H   LINE      CODE     ---       #469
      00FF6C45H   LINE      CODE     ---       #470
      00FF6C45H   LINE      CODE     ---       #471
      00FF6C45H   LINE      CODE     ---       #472
      ---         BLOCKEND  ---      ---       LVL=0

      00FF797EH   BLOCK     CODE     ---       LVL=0
      00011D85H   SYMBOL    XDATA    INT       pin
      00011D87H   SYMBOL    XDATA    INT       dir
      00011D89H   SYMBOL    XDATA    BYTE      dat
      00011D8AH   SYMBOL    XDATA    INT       mode
      00FF797EH   LINE      CODE     ---       #483
      00FF7994H   LINE      CODE     ---       #485
      00FF79C0H   LINE      CODE     ---       #487
      00FF79CEH   LINE      CODE     ---       #489
      00FF79DBH   LINE      CODE     ---       #490
      00FF79EAH   LINE      CODE     ---       #491
      00FF79EDH   LINE      CODE     ---       #492
      00FF79F9H   LINE      CODE     ---       #494
      00FF7A05H   LINE      CODE     ---       #496
      00FF7A0EH   LINE      CODE     ---       #497
      00FF7A10H   LINE      CODE     ---       #500
      00FF7A1BH   LINE      CODE     ---       #501
      00FF7A2AH   LINE      CODE     ---       #502
      00FF7A2AH   LINE      CODE     ---       #503
      00FF7A2CH   LINE      CODE     ---       #504
      00FF7A3AH   LINE      CODE     ---       #506
      00FF7A48H   LINE      CODE     ---       #508
      00FF7A55H   LINE      CODE     ---       #509
      00FF7A62H   LINE      CODE     ---       #510
      00FF7A64H   LINE      CODE     ---       #511
      00FF7A72H   LINE      CODE     ---       #513
      00FF7A7FH   LINE      CODE     ---       #514
      00FF7A7FH   LINE      CODE     ---       #516
      00FF7A8CH   LINE      CODE     ---       #517
      ---         BLOCKEND  ---      ---       LVL=0

      ---         MODULE    ---      ---       zf_driver_pit
      00FF542DH   PUBLIC    CODE     ---       pit_init
      000000D0H   SFRSYM    DATA     BYTE      PSW
      0000009DH   SFRSYM    DATA     BYTE      IRCBAND
      00000097H   SFRSYM    DATA     BYTE      AUXR2
      000000EFH   SFRSYM    DATA     BYTE      AUXINTIF
      000000FDH   SFRSYM    DATA     BYTE      S4CON
L251 LINKER/LOCATER V4.66.93.0                                                        05/06/2026  19:47:11  PAGE 68


      000000ACH   SFRSYM    DATA     BYTE      S3CON
      0000009AH   SFRSYM    DATA     BYTE      S2CON
      000000B7H   SFRSYM    DATA     BYTE      IPH
      000000CDH   SFRSYM    DATA     BYTE      SPSTAT
      000000DDH   SFRSYM    DATA     BYTE      T4T3M
      000000C1H   SFRSYM    DATA     BYTE      WDT_CONTR
      00000088H.6 SFRSYM    DATA     BIT       TR1
      00000088H.4 SFRSYM    DATA     BIT       TR0
      000000D3H   SFRSYM    DATA     BYTE      T4L
      000000D5H   SFRSYM    DATA     BYTE      T3L
      000000D7H   SFRSYM    DATA     BYTE      T2L
      0000008BH   SFRSYM    DATA     BYTE      TL1
      0000008AH   SFRSYM    DATA     BYTE      TL0
      000000D2H   SFRSYM    DATA     BYTE      T4H
      000000D4H   SFRSYM    DATA     BYTE      T3H
      000000D6H   SFRSYM    DATA     BYTE      T2H
      0000008DH   SFRSYM    DATA     BYTE      TH1
      0000008CH   SFRSYM    DATA     BYTE      TH0
      000000DFH   SFRSYM    DATA     BYTE      IP3
      000000F4H   SFRSYM    DATA     BYTE      USBCON
      000000B5H   SFRSYM    DATA     BYTE      IP2
      000000FFH   SFRSYM    DATA     BYTE      RSTCFG
      000000A8H.3 SFRSYM    DATA     BIT       ET1
      000000A8H.1 SFRSYM    DATA     BIT       ET0
      000000C7H   SFRSYM    DATA     BYTE      IAP_CONTR
      000000F9H   SFRSYM    DATA     BYTE      LINICR
      0000008EH   SFRSYM    DATA     BYTE      AUXR
      000000AFH   SFRSYM    DATA     BYTE      IE2
      00000088H   SFRSYM    DATA     BYTE      TCON
      00000089H   SFRSYM    DATA     BYTE      TMOD
      00000098H   SFRSYM    DATA     BYTE      SCON
      000000F1H   SFRSYM    DATA     BYTE      CANICR
      00000087H   SFRSYM    DATA     BYTE      PCON
      000000BCH   SFRSYM    DATA     BYTE      ADC_CONTR
      000000E7H   SFRSYM    DATA     BYTE      CMPCR2
      000000E6H   SFRSYM    DATA     BYTE      CMPCR1
      000000DEH   SFRSYM    DATA     BYTE      ADCCFG
      000000B8H   SFRSYM    DATA     BYTE      IP
      0000008FH   SFRSYM    DATA     BYTE      INTCLKO
      000000EEH   SFRSYM    DATA     BYTE      IP3H
      000000B6H   SFRSYM    DATA     BYTE      IP2H
      000000A8H   SFRSYM    DATA     BYTE      IE
      000000BBH   SFRSYM    DATA     BYTE      P_SW3
      000000BAH   SFRSYM    DATA     BYTE      P_SW2
      000000A2H   SFRSYM    DATA     BYTE      P_SW1
      000000CEH   SFRSYM    DATA     BYTE      SPCTL
      000000F8H   SFRSYM    DATA     BYTE      P7
      000000E8H   SFRSYM    DATA     BYTE      P6
      000000C8H   SFRSYM    DATA     BYTE      P5
      000000C0H   SFRSYM    DATA     BYTE      P4
      000000B0H   SFRSYM    DATA     BYTE      P3
      000000A0H   SFRSYM    DATA     BYTE      P2
      00000090H   SFRSYM    DATA     BYTE      P1
      00000080H   SFRSYM    DATA     BYTE      P0

      00FF542DH   BLOCK     CODE     ---       LVL=0
      00011ABAH   SYMBOL    XDATA    INT       pit_n
      00011ABCH   SYMBOL    XDATA    DWORD     period
      00FF543DH   BLOCK     CODE     NEAR LAB  LVL=1
      00011AC0H   SYMBOL    XDATA    BYTE      freq_div
      00011AC1H   SYMBOL    XDATA    WORD      period_temp
      00011AC3H   SYMBOL    XDATA    WORD      temp
      ---         BLOCKEND  ---      ---       LVL=1
      00FF542DH   LINE      CODE     ---       #48
      00FF543DH   LINE      CODE     ---       #49
L251 LINKER/LOCATER V4.66.93.0                                                        05/06/2026  19:47:11  PAGE 69


      00FF543DH   LINE      CODE     ---       #50
      00FF5442H   LINE      CODE     ---       #51
      00FF544AH   LINE      CODE     ---       #52
      00FF5452H   LINE      CODE     ---       #55
      00FF5468H   LINE      CODE     ---       #58
      00FF5480H   LINE      CODE     ---       #60
      00FF548CH   LINE      CODE     ---       #62
      00FF548FH   LINE      CODE     ---       #63
      00FF5492H   LINE      CODE     ---       #64
      00FF54A0H   LINE      CODE     ---       #66
      00FF54A3H   LINE      CODE     ---       #67
      00FF54A6H   LINE      CODE     ---       #68
      00FF54B4H   LINE      CODE     ---       #70
      00FF54B7H   LINE      CODE     ---       #71
      00FF54BAH   LINE      CODE     ---       #72
      00FF54C8H   LINE      CODE     ---       #74
      00FF54CBH   LINE      CODE     ---       #75
      00FF54CDH   LINE      CODE     ---       #76
      00FF54DBH   LINE      CODE     ---       #78
      00FF54DEH   LINE      CODE     ---       #79
      00FF54E0H   LINE      CODE     ---       #86
      00FF54ECH   LINE      CODE     ---       #88
      00FF54EFH   LINE      CODE     ---       #89
      00FF54F1H   LINE      CODE     ---       #90
      00FF54FFH   LINE      CODE     ---       #92
      00FF5502H   LINE      CODE     ---       #93
      00FF5504H   LINE      CODE     ---       #94
      00FF5512H   LINE      CODE     ---       #96
      00FF5515H   LINE      CODE     ---       #97
      00FF5517H   LINE      CODE     ---       #98
      00FF5525H   LINE      CODE     ---       #100
      00FF5528H   LINE      CODE     ---       #101
      00FF552AH   LINE      CODE     ---       #102
      00FF5538H   LINE      CODE     ---       #104
      00FF553BH   LINE      CODE     ---       #105
      00FF553BH   LINE      CODE     ---       #110
      00FF5559H   LINE      CODE     ---       #111
      00FF557AH   LINE      CODE     ---       #113
      00FF558CH   LINE      CODE     ---       #115
      00FF5598H   LINE      CODE     ---       #117
      00FF55A7H   LINE      CODE     ---       #118
      00FF55ABH   LINE      CODE     ---       #119
      00FF55B3H   LINE      CODE     ---       #120
      00FF55BFH   LINE      CODE     ---       #121
      00FF55C2H   LINE      CODE     ---       #122
      00FF55C5H   LINE      CODE     ---       #123
      00FF55C8H   LINE      CODE     ---       #124
      00FF55D6H   LINE      CODE     ---       #126
      00FF55E5H   LINE      CODE     ---       #127
      00FF55E9H   LINE      CODE     ---       #128
      00FF55F1H   LINE      CODE     ---       #129
      00FF55FDH   LINE      CODE     ---       #130
      00FF5600H   LINE      CODE     ---       #131
      00FF5603H   LINE      CODE     ---       #132
      00FF5606H   LINE      CODE     ---       #133
      00FF5614H   LINE      CODE     ---       #135
      00FF5623H   LINE      CODE     ---       #136
      00FF562BH   LINE      CODE     ---       #137
      00FF5637H   LINE      CODE     ---       #138
      00FF563AH   LINE      CODE     ---       #139
      00FF563DH   LINE      CODE     ---       #140
      00FF563FH   LINE      CODE     ---       #141
      00FF564DH   LINE      CODE     ---       #143
      00FF565CH   LINE      CODE     ---       #144
      00FF5664H   LINE      CODE     ---       #145
L251 LINKER/LOCATER V4.66.93.0                                                        05/06/2026  19:47:11  PAGE 70


      00FF5670H   LINE      CODE     ---       #146
      00FF5673H   LINE      CODE     ---       #147
      00FF5676H   LINE      CODE     ---       #148
      00FF5678H   LINE      CODE     ---       #149
      00FF5686H   LINE      CODE     ---       #151
      00FF5695H   LINE      CODE     ---       #152
      00FF569DH   LINE      CODE     ---       #153
      00FF56A9H   LINE      CODE     ---       #154
      00FF56ACH   LINE      CODE     ---       #155
      00FF56AFH   LINE      CODE     ---       #156
      ---         BLOCKEND  ---      ---       LVL=0

      ---         MODULE    ---      ---       zf_driver_pwm
      00FFA6CEH   PUBLIC    HCONST   ---       PWM_PSCR_ADDR
      00FFA6D6H   PUBLIC    HCONST   ---       PWM_CCR_ADDR
      00FFA6F6H   PUBLIC    HCONST   ---       PWM_ARR_ADDR
      00FFA6FEH   PUBLIC    HCONST   ---       PWM_CCER_ADDR
      00FFA70EH   PUBLIC    HCONST   ---       PWM_CCMR_ADDR
      00FF652BH   PUBLIC    CODE     ---       pwm_set_duty
      00FF3071H   PUBLIC    CODE     ---       pwm_init
      000114F2H   PUBLIC    XDATA    BYTE      ?pwm_set_freq?BYTE
      00011603H   PUBLIC    XDATA    BYTE      ?pwm_init?BYTE
      000000D0H   SFRSYM    DATA     BYTE      PSW
      0000009DH   SFRSYM    DATA     BYTE      IRCBAND
      00000097H   SFRSYM    DATA     BYTE      AUXR2
      000000EFH   SFRSYM    DATA     BYTE      AUXINTIF
      000000FDH   SFRSYM    DATA     BYTE      S4CON
      000000ACH   SFRSYM    DATA     BYTE      S3CON
      0000009AH   SFRSYM    DATA     BYTE      S2CON
      000000B7H   SFRSYM    DATA     BYTE      IPH
      000000CDH   SFRSYM    DATA     BYTE      SPSTAT
      000000DDH   SFRSYM    DATA     BYTE      T4T3M
      000000C1H   SFRSYM    DATA     BYTE      WDT_CONTR
      000000DFH   SFRSYM    DATA     BYTE      IP3
      000000F4H   SFRSYM    DATA     BYTE      USBCON
      000000B5H   SFRSYM    DATA     BYTE      IP2
      000000FFH   SFRSYM    DATA     BYTE      RSTCFG
      000000C7H   SFRSYM    DATA     BYTE      IAP_CONTR
      000000F9H   SFRSYM    DATA     BYTE      LINICR
      0000008EH   SFRSYM    DATA     BYTE      AUXR
      000000AFH   SFRSYM    DATA     BYTE      IE2
      00000088H   SFRSYM    DATA     BYTE      TCON
      00000089H   SFRSYM    DATA     BYTE      TMOD
      00000098H   SFRSYM    DATA     BYTE      SCON
      000000F1H   SFRSYM    DATA     BYTE      CANICR
      00000087H   SFRSYM    DATA     BYTE      PCON
      000000BCH   SFRSYM    DATA     BYTE      ADC_CONTR
      000000E7H   SFRSYM    DATA     BYTE      CMPCR2
      000000E6H   SFRSYM    DATA     BYTE      CMPCR1
      000000DEH   SFRSYM    DATA     BYTE      ADCCFG
      000000B8H   SFRSYM    DATA     BYTE      IP
      0000008FH   SFRSYM    DATA     BYTE      INTCLKO
      000000EEH   SFRSYM    DATA     BYTE      IP3H
      000000B6H   SFRSYM    DATA     BYTE      IP2H
      000000A8H   SFRSYM    DATA     BYTE      IE
      000000BBH   SFRSYM    DATA     BYTE      P_SW3
      000000BAH   SFRSYM    DATA     BYTE      P_SW2
      000000A2H   SFRSYM    DATA     BYTE      P_SW1
      000000CEH   SFRSYM    DATA     BYTE      SPCTL
      000000F8H   SFRSYM    DATA     BYTE      P7
      000000E8H   SFRSYM    DATA     BYTE      P6
      000000C8H   SFRSYM    DATA     BYTE      P5
      000000C0H   SFRSYM    DATA     BYTE      P4
      000000B0H   SFRSYM    DATA     BYTE      P3
      000000A0H   SFRSYM    DATA     BYTE      P2
L251 LINKER/LOCATER V4.66.93.0                                                        05/06/2026  19:47:11  PAGE 71


      00000090H   SFRSYM    DATA     BYTE      P1
      00000080H   SFRSYM    DATA     BYTE      P0
      000114F2H   SYMBOL    XDATA    INT       pin
      000114F4H   SYMBOL    XDATA    DWORD     freq
      000114F8H   SYMBOL    XDATA    DWORD     duty
      000114FCH   SYMBOL    XDATA    DWORD     match_temp
      00011500H   SYMBOL    XDATA    DWORD     period_temp
      00011504H   SYMBOL    XDATA    WORD      freq_div

      00FF652BH   BLOCK     CODE     ---       LVL=0
      000117B8H   SYMBOL    XDATA    INT       pin
      000117BAH   SYMBOL    XDATA    DWORD     duty
      00FF653BH   BLOCK     CODE     NEAR LAB  LVL=1
      000117BEH   SYMBOL    XDATA    DWORD     match_temp
      000117C2H   SYMBOL    XDATA    DWORD     arr
      ---         BLOCKEND  ---      ---       LVL=1
      00FF652BH   LINE      CODE     ---       #133
      00FF653BH   LINE      CODE     ---       #134
      00FF653BH   LINE      CODE     ---       #136
      00FF65B3H   LINE      CODE     ---       #139
      00FF65D7H   LINE      CODE     ---       #141
      00FF65E7H   LINE      CODE     ---       #143
      00FF6620H   LINE      CODE     ---       #144
      00FF6622H   LINE      CODE     ---       #147
      00FF663CH   LINE      CODE     ---       #148
      00FF663CH   LINE      CODE     ---       #151
      00FF669AH   LINE      CODE     ---       #152
      00FF66FEH   LINE      CODE     ---       #154
      ---         BLOCKEND  ---      ---       LVL=0

      00FF3071H   BLOCK     CODE     ---       LVL=0
      00011603H   SYMBOL    XDATA    INT       pin
      00011605H   SYMBOL    XDATA    DWORD     freq
      00011609H   SYMBOL    XDATA    DWORD     duty
      00FF3081H   BLOCK     CODE     NEAR LAB  LVL=1
      0001160DH   SYMBOL    XDATA    WORD      match_temp
      0001160FH   SYMBOL    XDATA    DWORD     period_temp
      00011613H   SYMBOL    XDATA    WORD      freq_div
      ---         BLOCKEND  ---      ---       LVL=1
      00FF3071H   LINE      CODE     ---       #165
      00FF3081H   LINE      CODE     ---       #166
      00FF3081H   LINE      CODE     ---       #168
      00FF3089H   LINE      CODE     ---       #169
      00FF3095H   LINE      CODE     ---       #170
      00FF309DH   LINE      CODE     ---       #173
      00FF30C1H   LINE      CODE     ---       #175
      00FF30DAH   LINE      CODE     ---       #179
      00FF30FBH   LINE      CODE     ---       #180
      00FF311CH   LINE      CODE     ---       #181
      00FF3145H   LINE      CODE     ---       #183
      00FF3155H   LINE      CODE     ---       #185
      00FF318AH   LINE      CODE     ---       #186
      00FF318CH   LINE      CODE     ---       #189
      00FF31A4H   LINE      CODE     ---       #190
      00FF31A4H   LINE      CODE     ---       #192
      00FF31DCH   LINE      CODE     ---       #193
      00FF3218H   LINE      CODE     ---       #195
      00FF3252H   LINE      CODE     ---       #196
      00FF3292H   LINE      CODE     ---       #198
      00FF32EEH   LINE      CODE     ---       #199
      00FF334EH   LINE      CODE     ---       #201
      00FF3369H   LINE      CODE     ---       #203
      00FF33B8H   LINE      CODE     ---       #204
      00FF33FDH   LINE      CODE     ---       #205
      00FF3497H   LINE      CODE     ---       #207
L251 LINKER/LOCATER V4.66.93.0                                                        05/06/2026  19:47:11  PAGE 72


      00FF34A4H   LINE      CODE     ---       #208
      00FF34B1H   LINE      CODE     ---       #209
      00FF34B4H   LINE      CODE     ---       #210
      00FF34CFH   LINE      CODE     ---       #212
      00FF351EH   LINE      CODE     ---       #213
      00FF3563H   LINE      CODE     ---       #214
      00FF35E3H   LINE      CODE     ---       #216
      00FF35F0H   LINE      CODE     ---       #217
      00FF35FDH   LINE      CODE     ---       #218
      00FF35FDH   LINE      CODE     ---       #220
      00FF3658H   LINE      CODE     ---       #221
      00FF36B3H   LINE      CODE     ---       #222
      ---         BLOCKEND  ---      ---       LVL=0

      ---         MODULE    ---      ---       zf_driver_soft_iic
      00FF7E74H   PUBLIC    CODE     ---       soft_iic_wait_ack
      00FF8282H   PUBLIC    CODE     ---       soft_iic_stop
      00FF990BH   PUBLIC    CODE     ---       soft_iic_delay
      00FF73A0H   PUBLIC    CODE     ---       soft_iic_read_data
      00FF00A6H   PUBLIC    CODE     ---       soft_iic_send_data
      00FF8549H   PUBLIC    CODE     ---       soft_iic_start
      00FF7F57H   PUBLIC    CODE     ---       soft_iic_send_ack
      00011917H   PUBLIC    XDATA    BYTE      ?soft_iic_write_8bit_array?BYTE
      00011923H   PUBLIC    XDATA    BYTE      ?soft_iic_write_16bit_array?BYTE
      0001187BH   PUBLIC    XDATA    BYTE      ?soft_iic_write_8bit_registers?BYTE
      000117C6H   PUBLIC    XDATA    BYTE      ?soft_iic_write_16bit_registers?BYTE
      0001192FH   PUBLIC    XDATA    BYTE      ?soft_iic_read_8bit_array?BYTE
      0001193BH   PUBLIC    XDATA    BYTE      ?soft_iic_read_16bit_array?BYTE
      00011888H   PUBLIC    XDATA    BYTE      ?soft_iic_read_8bit_registers?BYTE
      000117D4H   PUBLIC    XDATA    BYTE      ?soft_iic_read_16bit_registers?BYTE
      00011506H   PUBLIC    XDATA    BYTE      ?soft_iic_transfer_8bit_array?BYTE
      0001151AH   PUBLIC    XDATA    BYTE      ?soft_iic_transfer_16bit_array?BYTE
      00011895H   PUBLIC    XDATA    BYTE      ?soft_iic_init?BYTE
      000000D0H   SFRSYM    DATA     BYTE      PSW
      0000009DH   SFRSYM    DATA     BYTE      IRCBAND
      00000097H   SFRSYM    DATA     BYTE      AUXR2
      000000EFH   SFRSYM    DATA     BYTE      AUXINTIF
      000000FDH   SFRSYM    DATA     BYTE      S4CON
      000000ACH   SFRSYM    DATA     BYTE      S3CON
      0000009AH   SFRSYM    DATA     BYTE      S2CON
      000000B7H   SFRSYM    DATA     BYTE      IPH
      000000CDH   SFRSYM    DATA     BYTE      SPSTAT
      000000DDH   SFRSYM    DATA     BYTE      T4T3M
      000000C1H   SFRSYM    DATA     BYTE      WDT_CONTR
      000000DFH   SFRSYM    DATA     BYTE      IP3
      000000F4H   SFRSYM    DATA     BYTE      USBCON
      000000B5H   SFRSYM    DATA     BYTE      IP2
      000000FFH   SFRSYM    DATA     BYTE      RSTCFG
      000000C7H   SFRSYM    DATA     BYTE      IAP_CONTR
      000000F9H   SFRSYM    DATA     BYTE      LINICR
      0000008EH   SFRSYM    DATA     BYTE      AUXR
      000000AFH   SFRSYM    DATA     BYTE      IE2
      00000088H   SFRSYM    DATA     BYTE      TCON
      00000089H   SFRSYM    DATA     BYTE      TMOD
      00000098H   SFRSYM    DATA     BYTE      SCON
      000000F1H   SFRSYM    DATA     BYTE      CANICR
      00000087H   SFRSYM    DATA     BYTE      PCON
      000000BCH   SFRSYM    DATA     BYTE      ADC_CONTR
      000000E7H   SFRSYM    DATA     BYTE      CMPCR2
      000000E6H   SFRSYM    DATA     BYTE      CMPCR1
      000000DEH   SFRSYM    DATA     BYTE      ADCCFG
      000000B8H   SFRSYM    DATA     BYTE      IP
      0000008FH   SFRSYM    DATA     BYTE      INTCLKO
      000000EEH   SFRSYM    DATA     BYTE      IP3H
      000000B6H   SFRSYM    DATA     BYTE      IP2H
L251 LINKER/LOCATER V4.66.93.0                                                        05/06/2026  19:47:11  PAGE 73


      000000A8H   SFRSYM    DATA     BYTE      IE
      000000BBH   SFRSYM    DATA     BYTE      P_SW3
      000000BAH   SFRSYM    DATA     BYTE      P_SW2
      000000A2H   SFRSYM    DATA     BYTE      P_SW1
      000000CEH   SFRSYM    DATA     BYTE      SPCTL
      000000F8H   SFRSYM    DATA     BYTE      P7
      000000E8H   SFRSYM    DATA     BYTE      P6
      000000C8H   SFRSYM    DATA     BYTE      P5
      000000C0H   SFRSYM    DATA     BYTE      P4
      000000B0H   SFRSYM    DATA     BYTE      P3
      000000A0H   SFRSYM    DATA     BYTE      P2
      00000090H   SFRSYM    DATA     BYTE      P1
      00000080H   SFRSYM    DATA     BYTE      P0

      00FF990BH   BLOCK     CODE     ---       LVL=0
      00011CB5H   SYMBOL    XDATA    DWORD     delay
      00FF9915H   BLOCK     CODE     NEAR LAB  LVL=1
      00011CB9H   SYMBOL    XDATA    DWORD     count
      ---         BLOCKEND  ---      ---       LVL=1
      00FF990BH   LINE      CODE     ---       #53
      00FF9915H   LINE      CODE     ---       #54
      00FF9915H   LINE      CODE     ---       #55
      00FF9929H   LINE      CODE     ---       #56
      00FF9946H   LINE      CODE     ---       #57
      ---         BLOCKEND  ---      ---       LVL=0

      00FF8549H   BLOCK     CODE     ---       LVL=0
      00011F2EH   SYMBOL    XDATA    ---       soft_iic_obj
      00FF8549H   LINE      CODE     ---       #67
      00FF8553H   LINE      CODE     ---       #69
      00FF8575H   LINE      CODE     ---       #70
      00FF8587H   LINE      CODE     ---       #71
      00FF859BH   LINE      CODE     ---       #73
      00FF85B3H   LINE      CODE     ---       #74
      00FF85C6H   LINE      CODE     ---       #75
      00FF85DEH   LINE      CODE     ---       #76
      00FF85EFH   LINE      CODE     ---       #77
      ---         BLOCKEND  ---      ---       LVL=0

      00FF8282H   BLOCK     CODE     ---       LVL=0
      00011F32H   SYMBOL    XDATA    ---       soft_iic_obj
      00FF8282H   LINE      CODE     ---       #86
      00FF828CH   LINE      CODE     ---       #88
      00FF82AEH   LINE      CODE     ---       #89
      00FF82C1H   LINE      CODE     ---       #90
      00FF82D2H   LINE      CODE     ---       #92
      00FF82EAH   LINE      CODE     ---       #93
      00FF82FCH   LINE      CODE     ---       #94
      00FF8314H   LINE      CODE     ---       #95
      00FF8328H   LINE      CODE     ---       #96
      00FF8340H   LINE      CODE     ---       #97
      ---         BLOCKEND  ---      ---       LVL=0

      00FF7F57H   BLOCK     CODE     ---       LVL=0
      00011EA1H   SYMBOL    XDATA    ---       soft_iic_obj
      00011EA5H   SYMBOL    XDATA    BYTE      ack
      00FF7F57H   LINE      CODE     ---       #107
      00FF7F65H   LINE      CODE     ---       #109
      00FF7F87H   LINE      CODE     ---       #110
      00FF7F98H   LINE      CODE     ---       #112
      00FF7FA1H   LINE      CODE     ---       #114
      00FF7FB5H   LINE      CODE     ---       #115
      00FF7FB7H   LINE      CODE     ---       #118
      00FF7FCAH   LINE      CODE     ---       #119
      00FF7FCAH   LINE      CODE     ---       #121
L251 LINKER/LOCATER V4.66.93.0                                                        05/06/2026  19:47:11  PAGE 74


      00FF7FE2H   LINE      CODE     ---       #122
      00FF7FF4H   LINE      CODE     ---       #123
      00FF800CH   LINE      CODE     ---       #124
      00FF801DH   LINE      CODE     ---       #125
      00FF8031H   LINE      CODE     ---       #126
      ---         BLOCKEND  ---      ---       LVL=0

      00FF7E74H   BLOCK     CODE     ---       LVL=0
      00011EA6H   SYMBOL    XDATA    ---       soft_iic_obj
      00FF7E7EH   BLOCK     CODE     NEAR LAB  LVL=1
      00011EAAH   SYMBOL    XDATA    BYTE      temp
      ---         BLOCKEND  ---      ---       LVL=1
      00FF7E74H   LINE      CODE     ---       #135
      00FF7E7EH   LINE      CODE     ---       #136
      00FF7E7EH   LINE      CODE     ---       #137
      00FF7E83H   LINE      CODE     ---       #138
      00FF7EA5H   LINE      CODE     ---       #140
      00FF7EB6H   LINE      CODE     ---       #141
      00FF7ECAH   LINE      CODE     ---       #145
      00FF7EE2H   LINE      CODE     ---       #147
      00FF7EF4H   LINE      CODE     ---       #148
      00FF7F0CH   LINE      CODE     ---       #150
      00FF7F23H   LINE      CODE     ---       #152
      00FF7F29H   LINE      CODE     ---       #153
      00FF7F29H   LINE      CODE     ---       #154
      00FF7F3AH   LINE      CODE     ---       #158
      00FF7F52H   LINE      CODE     ---       #160
      00FF7F56H   LINE      CODE     ---       #161
      ---         BLOCKEND  ---      ---       LVL=0

      00FF00A6H   BLOCK     CODE     ---       LVL=0
      00011DC7H   SYMBOL    XDATA    ---       soft_iic_obj
      00011DCBH   SYMBOL    XDATA    BYTE      dat
      00FF00B4H   BLOCK     CODE     NEAR LAB  LVL=1
      00011DCCH   SYMBOL    XDATA    BYTE      temp
      ---         BLOCKEND  ---      ---       LVL=1
      00FF00A6H   LINE      CODE     ---       #170
      00FF00B4H   LINE      CODE     ---       #171
      00FF00B4H   LINE      CODE     ---       #172
      00FF00BAH   LINE      CODE     ---       #174
      00FF00DCH   LINE      CODE     ---       #176
      00FF00DFH   LINE      CODE     ---       #179
      00FF011CH   LINE      CODE     ---       #180
      00FF0123H   LINE      CODE     ---       #182
      00FF013BH   LINE      CODE     ---       #183
      00FF014DH   LINE      CODE     ---       #184
      00FF0165H   LINE      CODE     ---       #185
      00FF0176H   LINE      CODE     ---       #186
      00FF0182H   LINE      CODE     ---       #187
      00FF0199H   LINE      CODE     ---       #188
      ---         BLOCKEND  ---      ---       LVL=0

      00FF73A0H   BLOCK     CODE     ---       LVL=0
      00011D8CH   SYMBOL    XDATA    ---       soft_iic_obj
      00011D90H   SYMBOL    XDATA    BYTE      ack
      00FF73AEH   BLOCK     CODE     NEAR LAB  LVL=1
      00011D91H   SYMBOL    XDATA    BYTE      dat
      00011D92H   SYMBOL    XDATA    BYTE      temp
      ---         BLOCKEND  ---      ---       LVL=1
      00FF73A0H   LINE      CODE     ---       #197
      00FF73AEH   LINE      CODE     ---       #198
      00FF73AEH   LINE      CODE     ---       #199
      00FF73B3H   LINE      CODE     ---       #200
      00FF73B9H   LINE      CODE     ---       #201
      00FF73DBH   LINE      CODE     ---       #202
L251 LINKER/LOCATER V4.66.93.0                                                        05/06/2026  19:47:11  PAGE 75


      00FF73ECH   LINE      CODE     ---       #203
      00FF7404H   LINE      CODE     ---       #204
      00FF7418H   LINE      CODE     ---       #209
      00FF741AH   LINE      CODE     ---       #211
      00FF742BH   LINE      CODE     ---       #212
      00FF7443H   LINE      CODE     ---       #213
      00FF7455H   LINE      CODE     ---       #214
      00FF746DH   LINE      CODE     ---       #215
      00FF748DH   LINE      CODE     ---       #216
      00FF74A3H   LINE      CODE     ---       #217
      00FF74B4H   LINE      CODE     ---       #221
      00FF74CCH   LINE      CODE     ---       #222
      00FF74DDH   LINE      CODE     ---       #223
      00FF74E1H   LINE      CODE     ---       #224
      ---         BLOCKEND  ---      ---       LVL=0
      00011EABH   SYMBOL    XDATA    ---       soft_iic_obj
      00011EAFH   SYMBOL    XDATA    BYTE      dat
      00011917H   SYMBOL    XDATA    ---       soft_iic_obj
      0001191BH   SYMBOL    XDATA    ---       dat
      0001191FH   SYMBOL    XDATA    DWORD     len
      00011DCDH   SYMBOL    XDATA    ---       soft_iic_obj
      00011DD1H   SYMBOL    XDATA    WORD      dat
      00011923H   SYMBOL    XDATA    ---       soft_iic_obj
      00011927H   SYMBOL    XDATA    ---       dat
      0001192BH   SYMBOL    XDATA    DWORD     len
      00011DD3H   SYMBOL    XDATA    ---       soft_iic_obj
      00011DD7H   SYMBOL    XDATA    BYTE      register_name
      00011DD8H   SYMBOL    XDATA    BYTE      dat
      0001187BH   SYMBOL    XDATA    ---       soft_iic_obj
      0001187FH   SYMBOL    XDATA    BYTE      register_name
      00011880H   SYMBOL    XDATA    ---       dat
      00011884H   SYMBOL    XDATA    DWORD     len
      00011CBDH   SYMBOL    XDATA    ---       soft_iic_obj
      00011CC1H   SYMBOL    XDATA    WORD      register_name
      00011CC3H   SYMBOL    XDATA    WORD      dat
      000117C6H   SYMBOL    XDATA    ---       soft_iic_obj
      000117CAH   SYMBOL    XDATA    WORD      register_name
      000117CCH   SYMBOL    XDATA    ---       dat
      000117D0H   SYMBOL    XDATA    DWORD     len
      00011EB0H   SYMBOL    XDATA    ---       soft_iic_obj
      00011EB4H   SYMBOL    XDATA    BYTE      temp
      0001192FH   SYMBOL    XDATA    ---       soft_iic_obj
      00011933H   SYMBOL    XDATA    ---       dat
      00011937H   SYMBOL    XDATA    DWORD     len
      00011DD9H   SYMBOL    XDATA    ---       soft_iic_obj
      00011DDDH   SYMBOL    XDATA    WORD      temp
      0001193BH   SYMBOL    XDATA    ---       soft_iic_obj
      0001193FH   SYMBOL    XDATA    ---       dat
      00011943H   SYMBOL    XDATA    DWORD     len
      00011DDFH   SYMBOL    XDATA    ---       soft_iic_obj
      00011DE3H   SYMBOL    XDATA    BYTE      register_name
      00011DE4H   SYMBOL    XDATA    BYTE      temp
      00011888H   SYMBOL    XDATA    ---       soft_iic_obj
      0001188CH   SYMBOL    XDATA    BYTE      register_name
      0001188DH   SYMBOL    XDATA    ---       dat
      00011891H   SYMBOL    XDATA    DWORD     len
      00011CC5H   SYMBOL    XDATA    ---       soft_iic_obj
      00011CC9H   SYMBOL    XDATA    WORD      register_name
      00011CCBH   SYMBOL    XDATA    WORD      temp
      000117D4H   SYMBOL    XDATA    ---       soft_iic_obj
      000117D8H   SYMBOL    XDATA    WORD      register_name
      000117DAH   SYMBOL    XDATA    ---       dat
      000117DEH   SYMBOL    XDATA    DWORD     len
      00011506H   SYMBOL    XDATA    ---       soft_iic_obj
      0001150AH   SYMBOL    XDATA    ---       write_data
L251 LINKER/LOCATER V4.66.93.0                                                        05/06/2026  19:47:11  PAGE 76


      0001150EH   SYMBOL    XDATA    DWORD     write_len
      00011512H   SYMBOL    XDATA    ---       read_data
      00011516H   SYMBOL    XDATA    DWORD     read_len
      0001151AH   SYMBOL    XDATA    ---       soft_iic_obj
      0001151EH   SYMBOL    XDATA    ---       write_data
      00011522H   SYMBOL    XDATA    DWORD     write_len
      00011526H   SYMBOL    XDATA    ---       read_data
      0001152AH   SYMBOL    XDATA    DWORD     read_len
      00011DE5H   SYMBOL    XDATA    ---       soft_iic_obj
      00011DE9H   SYMBOL    XDATA    BYTE      register_name
      00011DEAH   SYMBOL    XDATA    BYTE      dat
      00011DEBH   SYMBOL    XDATA    ---       soft_iic_obj
      00011DEFH   SYMBOL    XDATA    BYTE      register_name
      00011DF0H   SYMBOL    XDATA    BYTE      temp
      00011895H   SYMBOL    XDATA    ---       soft_iic_obj
      00011899H   SYMBOL    XDATA    BYTE      addr
      0001189AH   SYMBOL    XDATA    DWORD     delay
      0001189EH   SYMBOL    XDATA    INT       scl_pin
      000118A0H   SYMBOL    XDATA    INT       sda_pin

      ---         MODULE    ---      ---       zf_driver_soft_spi
      00011947H   PUBLIC    XDATA    BYTE      ?soft_spi_write_8bit_array?BYTE
      00011953H   PUBLIC    XDATA    BYTE      ?soft_spi_write_16bit_array?BYTE
      000118A2H   PUBLIC    XDATA    BYTE      ?soft_spi_write_8bit_registers?BYTE
      000117E2H   PUBLIC    XDATA    BYTE      ?soft_spi_write_16bit_registers?BYTE
      0001195FH   PUBLIC    XDATA    BYTE      ?soft_spi_read_8bit_array?BYTE
      0001196BH   PUBLIC    XDATA    BYTE      ?soft_spi_read_16bit_array?BYTE
      000118AFH   PUBLIC    XDATA    BYTE      ?soft_spi_read_8bit_registers?BYTE
      000117F0H   PUBLIC    XDATA    BYTE      ?soft_spi_read_16bit_registers?BYTE
      000116E3H   PUBLIC    XDATA    BYTE      ?soft_spi_transfer_8bit?BYTE
      000116F3H   PUBLIC    XDATA    BYTE      ?soft_spi_transfer_16bit?BYTE
      000114A0H   PUBLIC    XDATA    BYTE      ?soft_spi_init?BYTE
      000000D0H   SFRSYM    DATA     BYTE      PSW
      0000009DH   SFRSYM    DATA     BYTE      IRCBAND
      00000097H   SFRSYM    DATA     BYTE      AUXR2
      000000EFH   SFRSYM    DATA     BYTE      AUXINTIF
      000000FDH   SFRSYM    DATA     BYTE      S4CON
      000000ACH   SFRSYM    DATA     BYTE      S3CON
      0000009AH   SFRSYM    DATA     BYTE      S2CON
      000000B7H   SFRSYM    DATA     BYTE      IPH
      000000CDH   SFRSYM    DATA     BYTE      SPSTAT
      000000DDH   SFRSYM    DATA     BYTE      T4T3M
      000000C1H   SFRSYM    DATA     BYTE      WDT_CONTR
      000000DFH   SFRSYM    DATA     BYTE      IP3
      000000F4H   SFRSYM    DATA     BYTE      USBCON
      000000B5H   SFRSYM    DATA     BYTE      IP2
      000000FFH   SFRSYM    DATA     BYTE      RSTCFG
      000000C7H   SFRSYM    DATA     BYTE      IAP_CONTR
      000000F9H   SFRSYM    DATA     BYTE      LINICR
      0000008EH   SFRSYM    DATA     BYTE      AUXR
      000000AFH   SFRSYM    DATA     BYTE      IE2
      00000088H   SFRSYM    DATA     BYTE      TCON
      00000089H   SFRSYM    DATA     BYTE      TMOD
      00000098H   SFRSYM    DATA     BYTE      SCON
      000000F1H   SFRSYM    DATA     BYTE      CANICR
      00000087H   SFRSYM    DATA     BYTE      PCON
      000000BCH   SFRSYM    DATA     BYTE      ADC_CONTR
      000000E7H   SFRSYM    DATA     BYTE      CMPCR2
      000000E6H   SFRSYM    DATA     BYTE      CMPCR1
      000000DEH   SFRSYM    DATA     BYTE      ADCCFG
      000000B8H   SFRSYM    DATA     BYTE      IP
      0000008FH   SFRSYM    DATA     BYTE      INTCLKO
      000000EEH   SFRSYM    DATA     BYTE      IP3H
      000000B6H   SFRSYM    DATA     BYTE      IP2H
      000000A8H   SFRSYM    DATA     BYTE      IE
L251 LINKER/LOCATER V4.66.93.0                                                        05/06/2026  19:47:11  PAGE 77


      000000BBH   SFRSYM    DATA     BYTE      P_SW3
      000000BAH   SFRSYM    DATA     BYTE      P_SW2
      000000A2H   SFRSYM    DATA     BYTE      P_SW1
      000000CEH   SFRSYM    DATA     BYTE      SPCTL
      000000F8H   SFRSYM    DATA     BYTE      P7
      000000E8H   SFRSYM    DATA     BYTE      P6
      000000C8H   SFRSYM    DATA     BYTE      P5
      000000C0H   SFRSYM    DATA     BYTE      P4
      000000B0H   SFRSYM    DATA     BYTE      P3
      000000A0H   SFRSYM    DATA     BYTE      P2
      00000090H   SFRSYM    DATA     BYTE      P1
      00000080H   SFRSYM    DATA     BYTE      P0
      00011CCDH   SYMBOL    XDATA    DWORD     x
      00011CD1H   SYMBOL    XDATA    DWORD     i
      00011CD5H   SYMBOL    XDATA    ---       soft_spi_obj
      00011CD9H   SYMBOL    XDATA    BYTE      dat
      00011CDAH   SYMBOL    XDATA    BYTE      temp
      00011CDBH   SYMBOL    XDATA    BYTE      write_data
      00011CDCH   SYMBOL    XDATA    BYTE      read_data
      00011AC5H   SYMBOL    XDATA    ---       soft_spi_obj
      00011AC9H   SYMBOL    XDATA    WORD      dat
      00011ACBH   SYMBOL    XDATA    BYTE      temp
      00011ACCH   SYMBOL    XDATA    WORD      write_data
      00011ACEH   SYMBOL    XDATA    WORD      read_data
      00011EB5H   SYMBOL    XDATA    ---       soft_spi_obj
      00011EB9H   SYMBOL    XDATA    BYTE      dat
      00011947H   SYMBOL    XDATA    ---       soft_spi_obj
      0001194BH   SYMBOL    XDATA    ---       dat
      0001194FH   SYMBOL    XDATA    DWORD     len
      00011DF1H   SYMBOL    XDATA    ---       soft_spi_obj
      00011DF5H   SYMBOL    XDATA    WORD      dat
      00011953H   SYMBOL    XDATA    ---       soft_spi_obj
      00011957H   SYMBOL    XDATA    ---       dat
      0001195BH   SYMBOL    XDATA    DWORD     len
      00011DF7H   SYMBOL    XDATA    ---       soft_spi_obj
      00011DFBH   SYMBOL    XDATA    BYTE      register_name
      00011DFCH   SYMBOL    XDATA    BYTE      dat
      000118A2H   SYMBOL    XDATA    ---       soft_spi_obj
      000118A6H   SYMBOL    XDATA    BYTE      register_name
      000118A7H   SYMBOL    XDATA    ---       dat
      000118ABH   SYMBOL    XDATA    DWORD     len
      00011CDDH   SYMBOL    XDATA    ---       soft_spi_obj
      00011CE1H   SYMBOL    XDATA    WORD      register_name
      00011CE3H   SYMBOL    XDATA    WORD      dat
      000117E2H   SYMBOL    XDATA    ---       soft_spi_obj
      000117E6H   SYMBOL    XDATA    WORD      register_name
      000117E8H   SYMBOL    XDATA    ---       dat
      000117ECH   SYMBOL    XDATA    DWORD     len
      00011EBAH   SYMBOL    XDATA    ---       soft_spi_obj
      00011EBEH   SYMBOL    XDATA    BYTE      dat
      0001195FH   SYMBOL    XDATA    ---       soft_spi_obj
      00011963H   SYMBOL    XDATA    ---       dat
      00011967H   SYMBOL    XDATA    DWORD     len
      00011EBFH   SYMBOL    XDATA    ---       soft_spi_obj
      00011EC3H   SYMBOL    XDATA    BYTE      dat
      0001196BH   SYMBOL    XDATA    ---       soft_spi_obj
      0001196FH   SYMBOL    XDATA    ---       dat
      00011973H   SYMBOL    XDATA    DWORD     len
      00011DFDH   SYMBOL    XDATA    ---       soft_spi_obj
      00011E01H   SYMBOL    XDATA    BYTE      register_name
      00011E02H   SYMBOL    XDATA    BYTE      dat
      000118AFH   SYMBOL    XDATA    ---       soft_spi_obj
      000118B3H   SYMBOL    XDATA    BYTE      register_name
      000118B4H   SYMBOL    XDATA    ---       dat
      000118B8H   SYMBOL    XDATA    DWORD     len
L251 LINKER/LOCATER V4.66.93.0                                                        05/06/2026  19:47:11  PAGE 78


      00011CE5H   SYMBOL    XDATA    ---       soft_spi_obj
      00011CE9H   SYMBOL    XDATA    WORD      register_name
      00011CEBH   SYMBOL    XDATA    WORD      dat
      000117F0H   SYMBOL    XDATA    ---       soft_spi_obj
      000117F4H   SYMBOL    XDATA    WORD      register_name
      000117F6H   SYMBOL    XDATA    ---       dat
      000117FAH   SYMBOL    XDATA    DWORD     len
      000116E3H   SYMBOL    XDATA    ---       soft_spi_obj
      000116E7H   SYMBOL    XDATA    ---       write_buffer
      000116EBH   SYMBOL    XDATA    ---       read_buffer
      000116EFH   SYMBOL    XDATA    DWORD     len
      000116F3H   SYMBOL    XDATA    ---       soft_spi_obj
      000116F7H   SYMBOL    XDATA    ---       write_buffer
      000116FBH   SYMBOL    XDATA    ---       read_buffer
      000116FFH   SYMBOL    XDATA    DWORD     len
      000114A0H   SYMBOL    XDATA    ---       soft_spi_obj
      000114A4H   SYMBOL    XDATA    BYTE      mode
      000114A5H   SYMBOL    XDATA    DWORD     delay
      000114A9H   SYMBOL    XDATA    INT       sck_pin
      000114ABH   SYMBOL    XDATA    INT       mosi_pin
      000114ADH   SYMBOL    XDATA    DWORD     miso_pin
      000114B1H   SYMBOL    XDATA    DWORD     cs_pin

      ---         MODULE    ---      ---       zf_driver_spi
      00FF0066H   PUBLIC    CODE     ---       spi_write_8bit
      00FF8E9DH   PUBLIC    CODE     ---       spi_read_dat
      00FF9395H   PUBLIC    CODE     ---       spi_write_dat
      00011B25H   PUBLIC    XDATA    BYTE      ?spi_write_8bit_array?BYTE
      00011B2FH   PUBLIC    XDATA    BYTE      ?spi_write_16bit_array?BYTE
      00011AD0H   PUBLIC    XDATA    BYTE      ?spi_write_8bit_registers?BYTE
      00011977H   PUBLIC    XDATA    BYTE      ?spi_write_16bit_registers?BYTE
      00011B39H   PUBLIC    XDATA    BYTE      ?spi_read_8bit_array?BYTE
      00011B43H   PUBLIC    XDATA    BYTE      ?spi_read_16bit_array?BYTE
      00011ADBH   PUBLIC    XDATA    BYTE      ?spi_read_8bit_registers?BYTE
      00011983H   PUBLIC    XDATA    BYTE      ?spi_read_16bit_registers?BYTE
      000117FEH   PUBLIC    XDATA    BYTE      ?spi_transfer_8bit?BYTE
      0001180CH   PUBLIC    XDATA    BYTE      ?spi_transfer_16bit?BYTE
      0001152EH   PUBLIC    XDATA    BYTE      ?spi_init?BYTE
      000000CFH   SFRSYM    DATA     BYTE      SPDAT
      000000D0H   SFRSYM    DATA     BYTE      PSW
      0000009DH   SFRSYM    DATA     BYTE      IRCBAND
      00000097H   SFRSYM    DATA     BYTE      AUXR2
      000000EFH   SFRSYM    DATA     BYTE      AUXINTIF
      000000FDH   SFRSYM    DATA     BYTE      S4CON
      000000ACH   SFRSYM    DATA     BYTE      S3CON
      0000009AH   SFRSYM    DATA     BYTE      S2CON
      0000009BH   SFRSYM    DATA     BYTE      S2BUF
      000000B7H   SFRSYM    DATA     BYTE      IPH
      000000CDH   SFRSYM    DATA     BYTE      SPSTAT
      000000DDH   SFRSYM    DATA     BYTE      T4T3M
      000000C1H   SFRSYM    DATA     BYTE      WDT_CONTR
      000000DFH   SFRSYM    DATA     BYTE      IP3
      000000F4H   SFRSYM    DATA     BYTE      USBCON
      000000B5H   SFRSYM    DATA     BYTE      IP2
      000000FFH   SFRSYM    DATA     BYTE      RSTCFG
      000000C7H   SFRSYM    DATA     BYTE      IAP_CONTR
      000000F9H   SFRSYM    DATA     BYTE      LINICR
      0000008EH   SFRSYM    DATA     BYTE      AUXR
      000000AFH   SFRSYM    DATA     BYTE      IE2
      00000088H   SFRSYM    DATA     BYTE      TCON
      00000089H   SFRSYM    DATA     BYTE      TMOD
      00000098H   SFRSYM    DATA     BYTE      SCON
      000000F1H   SFRSYM    DATA     BYTE      CANICR
      00000087H   SFRSYM    DATA     BYTE      PCON
      00000099H   SFRSYM    DATA     BYTE      SBUF
L251 LINKER/LOCATER V4.66.93.0                                                        05/06/2026  19:47:11  PAGE 79


      000000BCH   SFRSYM    DATA     BYTE      ADC_CONTR
      000000E7H   SFRSYM    DATA     BYTE      CMPCR2
      000000E6H   SFRSYM    DATA     BYTE      CMPCR1
      0000009AH.1 SFRSYM    DATA     BIT       S2TI
      00000098H.1 SFRSYM    DATA     BIT       TI
      000000DEH   SFRSYM    DATA     BYTE      ADCCFG
      000000B8H   SFRSYM    DATA     BYTE      IP
      0000008FH   SFRSYM    DATA     BYTE      INTCLKO
      000000EEH   SFRSYM    DATA     BYTE      IP3H
      000000B6H   SFRSYM    DATA     BYTE      IP2H
      000000A8H   SFRSYM    DATA     BYTE      IE
      000000BBH   SFRSYM    DATA     BYTE      P_SW3
      000000BAH   SFRSYM    DATA     BYTE      P_SW2
      000000A2H   SFRSYM    DATA     BYTE      P_SW1
      000000CEH   SFRSYM    DATA     BYTE      SPCTL
      000000F8H   SFRSYM    DATA     BYTE      P7
      000000E8H   SFRSYM    DATA     BYTE      P6
      000000C8H   SFRSYM    DATA     BYTE      P5
      000000C0H   SFRSYM    DATA     BYTE      P4
      000000B0H   SFRSYM    DATA     BYTE      P3
      000000A0H   SFRSYM    DATA     BYTE      P2
      00000090H   SFRSYM    DATA     BYTE      P1
      00000080H   SFRSYM    DATA     BYTE      P0

      00FF9395H   BLOCK     CODE     ---       LVL=0
      00011F9DH   SYMBOL    XDATA    INT       spi_n
      00011F9FH   SYMBOL    XDATA    BYTE      dat
      00FF9395H   LINE      CODE     ---       #81
      00FF939FH   LINE      CODE     ---       #83
      00FF93B1H   LINE      CODE     ---       #85
      00FF93B1H   LINE      CODE     ---       #86
      00FF93B5H   LINE      CODE     ---       #87
      00FF93BBH   LINE      CODE     ---       #88
      00FF93C0H   LINE      CODE     ---       #89
      00FF93C2H   LINE      CODE     ---       #90
      00FF93C2H   LINE      CODE     ---       #91
      00FF93C5H   LINE      CODE     ---       #92
      00FF93CBH   LINE      CODE     ---       #93
      00FF93CEH   LINE      CODE     ---       #94
      00FF93D0H   LINE      CODE     ---       #95
      00FF93D0H   LINE      CODE     ---       #96
      00FF93D4H   LINE      CODE     ---       #97
      00FF93DAH   LINE      CODE     ---       #98
      00FF93DEH   LINE      CODE     ---       #99
      00FF93E0H   LINE      CODE     ---       #100
      00FF93E0H   LINE      CODE     ---       #101
      00FF93F0H   LINE      CODE     ---       #102
      00FF93F0H   LINE      CODE     ---       #103
      00FF93F0H   LINE      CODE     ---       #104
      ---         BLOCKEND  ---      ---       LVL=0

      00FF8E9DH   BLOCK     CODE     ---       LVL=0
      00011F36H   SYMBOL    XDATA    INT       spi_n
      00011F38H   SYMBOL    XDATA    BYTE      dat
      00FF8EA7H   BLOCK     CODE     NEAR LAB  LVL=1
      00011F39H   SYMBOL    XDATA    BYTE      ret
      ---         BLOCKEND  ---      ---       LVL=1
      00FF8E9DH   LINE      CODE     ---       #107
      00FF8EA7H   LINE      CODE     ---       #108
      00FF8EA7H   LINE      CODE     ---       #109
      00FF8EADH   LINE      CODE     ---       #110
      00FF8EBFH   LINE      CODE     ---       #112
      00FF8EBFH   LINE      CODE     ---       #113
      00FF8EC3H   LINE      CODE     ---       #114
      00FF8EC9H   LINE      CODE     ---       #115
L251 LINKER/LOCATER V4.66.93.0                                                        05/06/2026  19:47:11  PAGE 80


      00FF8ECEH   LINE      CODE     ---       #116
      00FF8ED4H   LINE      CODE     ---       #117
      00FF8ED6H   LINE      CODE     ---       #118
      00FF8ED6H   LINE      CODE     ---       #119
      00FF8ED9H   LINE      CODE     ---       #120
      00FF8EDFH   LINE      CODE     ---       #121
      00FF8EE2H   LINE      CODE     ---       #122
      00FF8EE8H   LINE      CODE     ---       #123
      00FF8EEAH   LINE      CODE     ---       #124
      00FF8EEAH   LINE      CODE     ---       #125
      00FF8EEEH   LINE      CODE     ---       #126
      00FF8EF4H   LINE      CODE     ---       #127
      00FF8EF8H   LINE      CODE     ---       #128
      00FF8EFEH   LINE      CODE     ---       #129
      00FF8F00H   LINE      CODE     ---       #130
      00FF8F00H   LINE      CODE     ---       #131
      00FF8F10H   LINE      CODE     ---       #132
      00FF8F10H   LINE      CODE     ---       #133
      00FF8F10H   LINE      CODE     ---       #135
      00FF8F14H   LINE      CODE     ---       #136
      ---         BLOCKEND  ---      ---       LVL=0

      00FF0066H   BLOCK     CODE     ---       LVL=0
      00011FA0H   SYMBOL    XDATA    INT       spi_n
      00011FA2H   SYMBOL    XDATA    BYTE      dat
      00FF0066H   LINE      CODE     ---       #147
      00FF0070H   LINE      CODE     ---       #149
      00FF007DH   LINE      CODE     ---       #150
      ---         BLOCKEND  ---      ---       LVL=0
      00011B25H   SYMBOL    XDATA    INT       spi_n
      00011B27H   SYMBOL    XDATA    ---       dat
      00011B2BH   SYMBOL    XDATA    DWORD     len
      00011F3AH   SYMBOL    XDATA    INT       spi_n
      00011F3CH   SYMBOL    XDATA    WORD      dat
      00011B2FH   SYMBOL    XDATA    INT       spi_n
      00011B31H   SYMBOL    XDATA    ---       dat
      00011B35H   SYMBOL    XDATA    DWORD     len
      00011F3EH   SYMBOL    XDATA    INT       spi_n
      00011F40H   SYMBOL    XDATA    BYTE      register_name
      00011F41H   SYMBOL    XDATA    BYTE      dat
      00011AD0H   SYMBOL    XDATA    INT       spi_n
      00011AD2H   SYMBOL    XDATA    BYTE      register_name
      00011AD3H   SYMBOL    XDATA    ---       dat
      00011AD7H   SYMBOL    XDATA    DWORD     len
      00011E03H   SYMBOL    XDATA    INT       spi_n
      00011E05H   SYMBOL    XDATA    WORD      register_name
      00011E07H   SYMBOL    XDATA    WORD      dat
      00011977H   SYMBOL    XDATA    INT       spi_n
      00011979H   SYMBOL    XDATA    WORD      register_name
      0001197BH   SYMBOL    XDATA    ---       dat
      00011FCCH   SYMBOL    XDATA    INT       spi_n
      00011B39H   SYMBOL    XDATA    INT       spi_n
      00011B3BH   SYMBOL    XDATA    ---       dat
      00011B3FH   SYMBOL    XDATA    DWORD     len
      00011F42H   SYMBOL    XDATA    INT       spi_n
      00011F44H   SYMBOL    XDATA    WORD      dat
      00011B43H   SYMBOL    XDATA    INT       spi_n
      00011B45H   SYMBOL    XDATA    ---       dat
      00011B49H   SYMBOL    XDATA    DWORD     len
      00011FA3H   SYMBOL    XDATA    INT       spi_n
      00011FA5H   SYMBOL    XDATA    BYTE      register_name
      00011ADBH   SYMBOL    XDATA    INT       spi_n
      00011ADDH   SYMBOL    XDATA    BYTE      register_name
      00011ADEH   SYMBOL    XDATA    ---       dat
      00011AE2H   SYMBOL    XDATA    DWORD     len
L251 LINKER/LOCATER V4.66.93.0                                                        05/06/2026  19:47:11  PAGE 81


      00011E09H   SYMBOL    XDATA    INT       spi_n
      00011E0BH   SYMBOL    XDATA    WORD      register_name
      00011E0DH   SYMBOL    XDATA    WORD      dat
      00011983H   SYMBOL    XDATA    INT       spi_n
      00011985H   SYMBOL    XDATA    WORD      register_name
      00011987H   SYMBOL    XDATA    ---       dat
      0001198BH   SYMBOL    XDATA    DWORD     len
      000117FEH   SYMBOL    XDATA    INT       spi_n
      00011800H   SYMBOL    XDATA    ---       write_buffer
      00011804H   SYMBOL    XDATA    ---       read_buffer
      00011808H   SYMBOL    XDATA    DWORD     len
      0001180CH   SYMBOL    XDATA    INT       spi_n
      0001180EH   SYMBOL    XDATA    ---       write_buffer
      00011812H   SYMBOL    XDATA    ---       read_buffer
      00011816H   SYMBOL    XDATA    DWORD     len
      0001152EH   SYMBOL    XDATA    INT       spi_n
      00011530H   SYMBOL    XDATA    INT       mode
      00011532H   SYMBOL    XDATA    DWORD     baud
      00011536H   SYMBOL    XDATA    INT       sck_pin
      00011538H   SYMBOL    XDATA    INT       mosi_pin
      0001153AH   SYMBOL    XDATA    INT       miso_pin
      0001153CH   SYMBOL    XDATA    INT       cs_pin
      0001153EH   SYMBOL    XDATA    DWORD     spi_psc

      ---         MODULE    ---      ---       zf_driver_timer
      00FF8C25H   PUBLIC    CODE     ---       timer_funciton_check
      000000D0H   SFRSYM    DATA     BYTE      PSW
      0000009DH   SFRSYM    DATA     BYTE      IRCBAND
      00000097H   SFRSYM    DATA     BYTE      AUXR2
      000000EFH   SFRSYM    DATA     BYTE      AUXINTIF
      000000FDH   SFRSYM    DATA     BYTE      S4CON
      000000ACH   SFRSYM    DATA     BYTE      S3CON
      0000009AH   SFRSYM    DATA     BYTE      S2CON
      000000B7H   SFRSYM    DATA     BYTE      IPH
      000000CDH   SFRSYM    DATA     BYTE      SPSTAT
      000000DDH   SFRSYM    DATA     BYTE      T4T3M
      000000C1H   SFRSYM    DATA     BYTE      WDT_CONTR
      000000DFH   SFRSYM    DATA     BYTE      IP3
      000000F4H   SFRSYM    DATA     BYTE      USBCON
      000000B5H   SFRSYM    DATA     BYTE      IP2
      000000FFH   SFRSYM    DATA     BYTE      RSTCFG
      000000C7H   SFRSYM    DATA     BYTE      IAP_CONTR
      000000F9H   SFRSYM    DATA     BYTE      LINICR
      0000008EH   SFRSYM    DATA     BYTE      AUXR
      000000AFH   SFRSYM    DATA     BYTE      IE2
      00000088H   SFRSYM    DATA     BYTE      TCON
      00000089H   SFRSYM    DATA     BYTE      TMOD
      00000098H   SFRSYM    DATA     BYTE      SCON
      000000F1H   SFRSYM    DATA     BYTE      CANICR
      00000087H   SFRSYM    DATA     BYTE      PCON
      000000BCH   SFRSYM    DATA     BYTE      ADC_CONTR
      000000E7H   SFRSYM    DATA     BYTE      CMPCR2
      000000E6H   SFRSYM    DATA     BYTE      CMPCR1
      000000DEH   SFRSYM    DATA     BYTE      ADCCFG
      000000B8H   SFRSYM    DATA     BYTE      IP
      0000008FH   SFRSYM    DATA     BYTE      INTCLKO
      000000EEH   SFRSYM    DATA     BYTE      IP3H
      000000B6H   SFRSYM    DATA     BYTE      IP2H
      000000A8H   SFRSYM    DATA     BYTE      IE
      000000BBH   SFRSYM    DATA     BYTE      P_SW3
      000000BAH   SFRSYM    DATA     BYTE      P_SW2
      000000A2H   SFRSYM    DATA     BYTE      P_SW1
      000000CEH   SFRSYM    DATA     BYTE      SPCTL
      000000F8H   SFRSYM    DATA     BYTE      P7
      000000E8H   SFRSYM    DATA     BYTE      P6
L251 LINKER/LOCATER V4.66.93.0                                                        05/06/2026  19:47:11  PAGE 82


      000000C8H   SFRSYM    DATA     BYTE      P5
      000000C0H   SFRSYM    DATA     BYTE      P4
      000000B0H   SFRSYM    DATA     BYTE      P3
      000000A0H   SFRSYM    DATA     BYTE      P2
      00000090H   SFRSYM    DATA     BYTE      P1
      00000080H   SFRSYM    DATA     BYTE      P0
      0001198FH   SYMBOL    XDATA    ---       timer_function_state

      00FF8C25H   BLOCK     CODE     ---       LVL=0
      00011EC4H   SYMBOL    XDATA    INT       index
      00011EC6H   SYMBOL    XDATA    INT       mode
      00FF8C31H   BLOCK     CODE     NEAR LAB  LVL=1
      00011EC8H   SYMBOL    XDATA    BYTE      return_state
      ---         BLOCKEND  ---      ---       LVL=1
      00FF8C25H   LINE      CODE     ---       #58
      00FF8C31H   LINE      CODE     ---       #59
      00FF8C31H   LINE      CODE     ---       #60
      00FF8C37H   LINE      CODE     ---       #61
      00FF8C54H   LINE      CODE     ---       #63
      00FF8C71H   LINE      CODE     ---       #64
      00FF8C73H   LINE      CODE     ---       #65
      00FF8C94H   LINE      CODE     ---       #67
      00FF8C9AH   LINE      CODE     ---       #68
      00FF8C9CH   LINE      CODE     ---       #71
      00FF8CA1H   LINE      CODE     ---       #72
      00FF8CA1H   LINE      CODE     ---       #73
      00FF8CA5H   LINE      CODE     ---       #74
      ---         BLOCKEND  ---      ---       LVL=0

      ---         MODULE    ---      ---       zf_driver_uart
      00FF81C0H   PUBLIC    CODE     ---       uart_rx_start_buff
      00FF6355H   PUBLIC    CODE     ---       uart_write_buffer
      00FF4BA8H   PUBLIC    CODE     ---       uart_init
      00FF913DH   PUBLIC    CODE     ---       uart_rx_interrupt
      00FF9AEBH   PUBLIC    CODE     ---       uart_write_byte
      00FF6C46H   PUBLIC    CODE     ---       uart_dma_init
      00FF8CA6H   PUBLIC    CODE     ---       uart_funciton_check
      00FF8690H   PUBLIC    CODE     ---       uart_query_byte
      000119A3H   PUBLIC    XDATA    ---       uart_rx_buff
      000119A7H   PUBLIC    XDATA    BYTE      ?uart_init?BYTE
      000000D0H   SFRSYM    DATA     BYTE      PSW
      0000009DH   SFRSYM    DATA     BYTE      IRCBAND
      00000097H   SFRSYM    DATA     BYTE      AUXR2
      000000EFH   SFRSYM    DATA     BYTE      AUXINTIF
      000000FDH   SFRSYM    DATA     BYTE      S4CON
      000000ACH   SFRSYM    DATA     BYTE      S3CON
      0000009AH   SFRSYM    DATA     BYTE      S2CON
      000000B7H   SFRSYM    DATA     BYTE      IPH
      000000CDH   SFRSYM    DATA     BYTE      SPSTAT
      000000DDH   SFRSYM    DATA     BYTE      T4T3M
      000000C1H   SFRSYM    DATA     BYTE      WDT_CONTR
      00000088H.6 SFRSYM    DATA     BIT       TR1
      000000D7H   SFRSYM    DATA     BYTE      T2L
      000000D6H   SFRSYM    DATA     BYTE      T2H
      000000DFH   SFRSYM    DATA     BYTE      IP3
      000000F4H   SFRSYM    DATA     BYTE      USBCON
      000000B5H   SFRSYM    DATA     BYTE      IP2
      000000FFH   SFRSYM    DATA     BYTE      RSTCFG
      000000C7H   SFRSYM    DATA     BYTE      IAP_CONTR
      000000F9H   SFRSYM    DATA     BYTE      LINICR
      0000008EH   SFRSYM    DATA     BYTE      AUXR
      000000AFH   SFRSYM    DATA     BYTE      IE2
      00000088H   SFRSYM    DATA     BYTE      TCON
      00000089H   SFRSYM    DATA     BYTE      TMOD
      00000098H   SFRSYM    DATA     BYTE      SCON
L251 LINKER/LOCATER V4.66.93.0                                                        05/06/2026  19:47:11  PAGE 83


      000000F1H   SFRSYM    DATA     BYTE      CANICR
      00000087H   SFRSYM    DATA     BYTE      PCON
      000000BCH   SFRSYM    DATA     BYTE      ADC_CONTR
      000000E7H   SFRSYM    DATA     BYTE      CMPCR2
      000000E6H   SFRSYM    DATA     BYTE      CMPCR1
      000000DEH   SFRSYM    DATA     BYTE      ADCCFG
      000000B8H   SFRSYM    DATA     BYTE      IP
      0000008FH   SFRSYM    DATA     BYTE      INTCLKO
      000000EEH   SFRSYM    DATA     BYTE      IP3H
      000000B6H   SFRSYM    DATA     BYTE      IP2H
      000000A8H   SFRSYM    DATA     BYTE      IE
      000000BBH   SFRSYM    DATA     BYTE      P_SW3
      000000BAH   SFRSYM    DATA     BYTE      P_SW2
      000000A2H   SFRSYM    DATA     BYTE      P_SW1
      000000CEH   SFRSYM    DATA     BYTE      SPCTL
      000000F8H   SFRSYM    DATA     BYTE      P7
      000000E8H   SFRSYM    DATA     BYTE      P6
      000000C8H   SFRSYM    DATA     BYTE      P5
      000000C0H   SFRSYM    DATA     BYTE      P4
      000000B0H   SFRSYM    DATA     BYTE      P3
      000000A0H   SFRSYM    DATA     BYTE      P2
      00000090H   SFRSYM    DATA     BYTE      P1
      00000080H   SFRSYM    DATA     BYTE      P0
      00FFA7E1H   SYMBOL    HCONST   ---       ?tpl?0001
      0001199BH   SYMBOL    XDATA    ---       uart_function_state

      00FF8CA6H   BLOCK     CODE     ---       LVL=0
      00011EC9H   SYMBOL    XDATA    INT       index
      00011ECBH   SYMBOL    XDATA    INT       mode
      00FF8CB2H   BLOCK     CODE     NEAR LAB  LVL=1
      00011ECDH   SYMBOL    XDATA    BYTE      return_state
      ---         BLOCKEND  ---      ---       LVL=1
      00FF8CA6H   LINE      CODE     ---       #86
      00FF8CB2H   LINE      CODE     ---       #87
      00FF8CB2H   LINE      CODE     ---       #88
      00FF8CB8H   LINE      CODE     ---       #89
      00FF8CD5H   LINE      CODE     ---       #91
      00FF8CF2H   LINE      CODE     ---       #92
      00FF8CF4H   LINE      CODE     ---       #93
      00FF8D15H   LINE      CODE     ---       #95
      00FF8D1BH   LINE      CODE     ---       #96
      00FF8D1DH   LINE      CODE     ---       #99
      00FF8D22H   LINE      CODE     ---       #100
      00FF8D22H   LINE      CODE     ---       #101
      00FF8D26H   LINE      CODE     ---       #102
      ---         BLOCKEND  ---      ---       LVL=0

      00FF6355H   BLOCK     CODE     ---       LVL=0
      00010EAEH   SYMBOL    XDATA    INT       uart_n
      00010EB0H   SYMBOL    XDATA    ---       buff
      00010EB4H   SYMBOL    XDATA    WORD      len
      00FF636BH   BLOCK     CODE     NEAR LAB  LVL=1
      00010EB6H   SYMBOL    XDATA    ---       tmp_buff
      00010EF6H   SYMBOL    XDATA    WORD      tmp_len
      ---         BLOCKEND  ---      ---       LVL=1
      00FF6355H   LINE      CODE     ---       #111
      00FF636BH   LINE      CODE     ---       #112
      00FF636BH   LINE      CODE     ---       #116
      00FF6380H   LINE      CODE     ---       #117
      00FF6388H   LINE      CODE     ---       #118
      00FF638BH   LINE      CODE     ---       #120
      00FF63ABH   LINE      CODE     ---       #121
      00FF63CAH   LINE      CODE     ---       #122
      00FF63DBH   LINE      CODE     ---       #123
      00FF63F4H   LINE      CODE     ---       #126
L251 LINKER/LOCATER V4.66.93.0                                                        05/06/2026  19:47:11  PAGE 84


      00FF6414H   LINE      CODE     ---       #128
      00FF6440H   LINE      CODE     ---       #129
      00FF646DH   LINE      CODE     ---       #130
      00FF6495H   LINE      CODE     ---       #131
      00FF64B9H   LINE      CODE     ---       #132
      00FF64DAH   LINE      CODE     ---       #134
      00FF64FBH   LINE      CODE     ---       #136
      00FF651BH   LINE      CODE     ---       #137
      00FF652AH   LINE      CODE     ---       #138
      ---         BLOCKEND  ---      ---       LVL=0
      00011CEDH   SYMBOL    XDATA    INT       uart_n
      00011CEFH   SYMBOL    XDATA    ---       str
      00011CF3H   SYMBOL    XDATA    WORD      len

      00FF9AEBH   BLOCK     CODE     ---       LVL=0
      00011FA6H   SYMBOL    XDATA    INT       uart_n
      00011FA8H   SYMBOL    XDATA    BYTE      dat
      00FF9AEBH   LINE      CODE     ---       #159
      00FF9AF5H   LINE      CODE     ---       #161
      00FF9B0AH   LINE      CODE     ---       #162
      ---         BLOCKEND  ---      ---       LVL=0

      00FF81C0H   BLOCK     CODE     ---       LVL=0
      00011FCEH   SYMBOL    XDATA    INT       uart_n
      00FF81C0H   LINE      CODE     ---       #170
      00FF81C6H   LINE      CODE     ---       #172
      00FF81E6H   LINE      CODE     ---       #173
      00FF8204H   LINE      CODE     ---       #174
      00FF8230H   LINE      CODE     ---       #175
      00FF8260H   LINE      CODE     ---       #176
      00FF8281H   LINE      CODE     ---       #177
      ---         BLOCKEND  ---      ---       LVL=0

      00FF913DH   BLOCK     CODE     ---       LVL=0
      00011FA9H   SYMBOL    XDATA    INT       uart_n
      00011FABH   SYMBOL    XDATA    BYTE      status
      00FF913DH   LINE      CODE     ---       #186
      00FF9147H   LINE      CODE     ---       #188
      00FF9150H   LINE      CODE     ---       #190
      00FF9178H   LINE      CODE     ---       #191
      00FF917AH   LINE      CODE     ---       #194
      00FF91A2H   LINE      CODE     ---       #195
      00FF91A2H   LINE      CODE     ---       #196
      ---         BLOCKEND  ---      ---       LVL=0
      00011FACH   SYMBOL    XDATA    INT       uart_n
      00011FAEH   SYMBOL    XDATA    BYTE      dat

      00FF8690H   BLOCK     CODE     ---       LVL=0
      00011D93H   SYMBOL    XDATA    INT       uart_n
      00011D95H   SYMBOL    XDATA    ---       dat
      00FF86A0H   BLOCK     CODE     NEAR LAB  LVL=1
      00011D99H   SYMBOL    XDATA    BYTE      ret
      ---         BLOCKEND  ---      ---       LVL=1
      00FF8690H   LINE      CODE     ---       #230
      00FF86A0H   LINE      CODE     ---       #231
      00FF86A0H   LINE      CODE     ---       #232
      00FF86A5H   LINE      CODE     ---       #235
      00FF86C5H   LINE      CODE     ---       #237
      00FF86ECH   LINE      CODE     ---       #239
      00FF86F2H   LINE      CODE     ---       #241
      00FF871AH   LINE      CODE     ---       #242
      00FF871CH   LINE      CODE     ---       #245
      00FF8721H   LINE      CODE     ---       #246
      00FF8721H   LINE      CODE     ---       #249
      00FF872AH   LINE      CODE     ---       #251
L251 LINKER/LOCATER V4.66.93.0                                                        05/06/2026  19:47:11  PAGE 85


      00FF872EH   LINE      CODE     ---       #252
      ---         BLOCKEND  ---      ---       LVL=0

      00FF6C46H   BLOCK     CODE     ---       LVL=0
      00011FD0H   SYMBOL    XDATA    INT       uart_n
      00FF6C46H   LINE      CODE     ---       #260
      00FF6C4CH   LINE      CODE     ---       #262
      00FF6C6CH   LINE      CODE     ---       #263
      00FF6C8CH   LINE      CODE     ---       #264
      00FF6CACH   LINE      CODE     ---       #266
      00FF6CCCH   LINE      CODE     ---       #267
      00FF6CECH   LINE      CODE     ---       #268
      00FF6D0CH   LINE      CODE     ---       #270
      00FF6D2CH   LINE      CODE     ---       #271
      00FF6D4AH   LINE      CODE     ---       #272
      00FF6D76H   LINE      CODE     ---       #273
      00FF6DA6H   LINE      CODE     ---       #274
      00FF6DC7H   LINE      CODE     ---       #275
      00FF6DE8H   LINE      CODE     ---       #277
      ---         BLOCKEND  ---      ---       LVL=0

      00FF4BA8H   BLOCK     CODE     ---       LVL=0
      000119A7H   SYMBOL    XDATA    INT       uart_n
      000119A9H   SYMBOL    XDATA    DWORD     baud
      000119ADH   SYMBOL    XDATA    INT       tx_pin
      000119AFH   SYMBOL    XDATA    INT       rx_pin
      00FF4BBEH   BLOCK     CODE     NEAR LAB  LVL=1
      000119B1H   SYMBOL    XDATA    WORD      brt
      ---         BLOCKEND  ---      ---       LVL=1
      00FF4BA8H   LINE      CODE     ---       #289
      00FF4BBEH   LINE      CODE     ---       #290
      00FF4BBEH   LINE      CODE     ---       #299
      00FF4BDAH   LINE      CODE     ---       #306
      00FF4BF4H   LINE      CODE     ---       #311
      00FF4C2AH   LINE      CODE     ---       #314
      00FF4C43H   LINE      CODE     ---       #315
      00FF4C5AH   LINE      CODE     ---       #317
      00FF4C95H   LINE      CODE     ---       #319
      00FF4CB9H   LINE      CODE     ---       #321
      00FF4CB9H   LINE      CODE     ---       #335
      00FF4CBCH   LINE      CODE     ---       #336
      00FF4CC4H   LINE      CODE     ---       #337
      00FF4CD0H   LINE      CODE     ---       #338
      00FF4CD3H   LINE      CODE     ---       #339
      00FF4CD6H   LINE      CODE     ---       #342
      00FF4CD9H   LINE      CODE     ---       #344
      00FF4CF5H   LINE      CODE     ---       #346
      00FF4CF9H   LINE      CODE     ---       #347
      00FF4CFCH   LINE      CODE     ---       #348
      00FF4D18H   LINE      CODE     ---       #350
      00FF4D1BH   LINE      CODE     ---       #351
      00FF4D1EH   LINE      CODE     ---       #352
      00FF4D3AH   LINE      CODE     ---       #354
      00FF4D3DH   LINE      CODE     ---       #355
      00FF4D40H   LINE      CODE     ---       #356
      00FF4D62H   LINE      CODE     ---       #358
      00FF4D65H   LINE      CODE     ---       #359
      00FF4D65H   LINE      CODE     ---       #362
      00FF4D68H   LINE      CODE     ---       #365
      00FF4D68H   LINE      CODE     ---       #369
      00FF4D6BH   LINE      CODE     ---       #370
      00FF4D73H   LINE      CODE     ---       #371
      00FF4D7FH   LINE      CODE     ---       #372
      00FF4D82H   LINE      CODE     ---       #375
      00FF4D85H   LINE      CODE     ---       #377
L251 LINKER/LOCATER V4.66.93.0                                                        05/06/2026  19:47:11  PAGE 86


      00FF4DA1H   LINE      CODE     ---       #379
      00FF4DA5H   LINE      CODE     ---       #380
      00FF4DA8H   LINE      CODE     ---       #381
      00FF4DCAH   LINE      CODE     ---       #383
      00FF4DCDH   LINE      CODE     ---       #384
      00FF4DCDH   LINE      CODE     ---       #388
      00FF4DD0H   LINE      CODE     ---       #391
      00FF4DD0H   LINE      CODE     ---       #395
      00FF4DD3H   LINE      CODE     ---       #396
      00FF4DDBH   LINE      CODE     ---       #397
      00FF4DE7H   LINE      CODE     ---       #398
      00FF4DEAH   LINE      CODE     ---       #408
      00FF4DEDH   LINE      CODE     ---       #410
      00FF4E09H   LINE      CODE     ---       #412
      00FF4E0DH   LINE      CODE     ---       #413
      00FF4E10H   LINE      CODE     ---       #414
      00FF4E2CH   LINE      CODE     ---       #416
      00FF4E2FH   LINE      CODE     ---       #417
      00FF4E2FH   LINE      CODE     ---       #421
      00FF4E31H   LINE      CODE     ---       #424
      00FF4E31H   LINE      CODE     ---       #428
      00FF4E34H   LINE      CODE     ---       #429
      00FF4E3CH   LINE      CODE     ---       #430
      00FF4E48H   LINE      CODE     ---       #431
      00FF4E4BH   LINE      CODE     ---       #441
      00FF4E4EH   LINE      CODE     ---       #443
      00FF4E6AH   LINE      CODE     ---       #445
      00FF4E6EH   LINE      CODE     ---       #446
      00FF4E70H   LINE      CODE     ---       #447
      00FF4E8CH   LINE      CODE     ---       #451
      00FF4E8FH   LINE      CODE     ---       #452
      00FF4E8FH   LINE      CODE     ---       #456
      00FF4E8FH   LINE      CODE     ---       #459
      00FF4E8FH   LINE      CODE     ---       #462
      00FF4E98H   LINE      CODE     ---       #464
      ---         BLOCKEND  ---      ---       LVL=0

      ---         MODULE    ---      ---       eeprom
      00011FD2H   PUBLIC    XDATA    ---       init_buff
      00011B4DH   PUBLIC    XDATA    BYTE      ?eeprom_read?BYTE
      000000D0H   SFRSYM    DATA     BYTE      PSW
      0000009DH   SFRSYM    DATA     BYTE      IRCBAND
      00000097H   SFRSYM    DATA     BYTE      AUXR2
      000000EFH   SFRSYM    DATA     BYTE      AUXINTIF
      000000FDH   SFRSYM    DATA     BYTE      S4CON
      000000ACH   SFRSYM    DATA     BYTE      S3CON
      0000009AH   SFRSYM    DATA     BYTE      S2CON
      000000B7H   SFRSYM    DATA     BYTE      IPH
      000000CDH   SFRSYM    DATA     BYTE      SPSTAT
      000000DDH   SFRSYM    DATA     BYTE      T4T3M
      000000C1H   SFRSYM    DATA     BYTE      WDT_CONTR
      000000DFH   SFRSYM    DATA     BYTE      IP3
      000000F4H   SFRSYM    DATA     BYTE      USBCON
      000000B5H   SFRSYM    DATA     BYTE      IP2
      000000FFH   SFRSYM    DATA     BYTE      RSTCFG
      000000C7H   SFRSYM    DATA     BYTE      IAP_CONTR
      000000F9H   SFRSYM    DATA     BYTE      LINICR
      0000008EH   SFRSYM    DATA     BYTE      AUXR
      000000AFH   SFRSYM    DATA     BYTE      IE2
      00000088H   SFRSYM    DATA     BYTE      TCON
      00000089H   SFRSYM    DATA     BYTE      TMOD
      00000098H   SFRSYM    DATA     BYTE      SCON
      000000F1H   SFRSYM    DATA     BYTE      CANICR
      00000087H   SFRSYM    DATA     BYTE      PCON
      000000BCH   SFRSYM    DATA     BYTE      ADC_CONTR
L251 LINKER/LOCATER V4.66.93.0                                                        05/06/2026  19:47:11  PAGE 87


      000000E7H   SFRSYM    DATA     BYTE      CMPCR2
      000000E6H   SFRSYM    DATA     BYTE      CMPCR1
      000000DEH   SFRSYM    DATA     BYTE      ADCCFG
      000000B8H   SFRSYM    DATA     BYTE      IP
      0000008FH   SFRSYM    DATA     BYTE      INTCLKO
      000000EEH   SFRSYM    DATA     BYTE      IP3H
      000000B6H   SFRSYM    DATA     BYTE      IP2H
      000000A8H   SFRSYM    DATA     BYTE      IE
      000000BBH   SFRSYM    DATA     BYTE      P_SW3
      000000BAH   SFRSYM    DATA     BYTE      P_SW2
      000000A2H   SFRSYM    DATA     BYTE      P_SW1
      000000CEH   SFRSYM    DATA     BYTE      SPCTL
      000000F8H   SFRSYM    DATA     BYTE      P7
      000000E8H   SFRSYM    DATA     BYTE      P6
      000000C8H   SFRSYM    DATA     BYTE      P5
      000000C0H   SFRSYM    DATA     BYTE      P4
      000000B0H   SFRSYM    DATA     BYTE      P3
      000000A0H   SFRSYM    DATA     BYTE      P2
      00000090H   SFRSYM    DATA     BYTE      P1
      00000080H   SFRSYM    DATA     BYTE      P0
      00011B4DH   SYMBOL    XDATA    DWORD     addr
      00011B51H   SYMBOL    XDATA    ---       buf
      00011B55H   SYMBOL    XDATA    WORD      len
      00011CF5H   SYMBOL    XDATA    DWORD     addr
      00011CF9H   SYMBOL    XDATA    WORD      max
      00011CFBH   SYMBOL    XDATA    WORD      min
      000119B3H   SYMBOL    XDATA    DWORD     addr
      000119B7H   SYMBOL    XDATA    ---       buff
      000119BBH   SYMBOL    XDATA    ---       buf

      ---         MODULE    ---      ---       voltage_warning
      000000D0H   SFRSYM    DATA     BYTE      PSW
      0000009DH   SFRSYM    DATA     BYTE      IRCBAND
      00000097H   SFRSYM    DATA     BYTE      AUXR2
      000000EFH   SFRSYM    DATA     BYTE      AUXINTIF
      000000FDH   SFRSYM    DATA     BYTE      S4CON
      000000ACH   SFRSYM    DATA     BYTE      S3CON
      0000009AH   SFRSYM    DATA     BYTE      S2CON
      000000B7H   SFRSYM    DATA     BYTE      IPH
      000000CDH   SFRSYM    DATA     BYTE      SPSTAT
      000000DDH   SFRSYM    DATA     BYTE      T4T3M
      000000C1H   SFRSYM    DATA     BYTE      WDT_CONTR
      000000DFH   SFRSYM    DATA     BYTE      IP3
      000000F4H   SFRSYM    DATA     BYTE      USBCON
      000000B5H   SFRSYM    DATA     BYTE      IP2
      000000FFH   SFRSYM    DATA     BYTE      RSTCFG
      000000C7H   SFRSYM    DATA     BYTE      IAP_CONTR
      000000F9H   SFRSYM    DATA     BYTE      LINICR
      0000008EH   SFRSYM    DATA     BYTE      AUXR
      000000AFH   SFRSYM    DATA     BYTE      IE2
      00000088H   SFRSYM    DATA     BYTE      TCON
      00000089H   SFRSYM    DATA     BYTE      TMOD
      00000098H   SFRSYM    DATA     BYTE      SCON
      000000F1H   SFRSYM    DATA     BYTE      CANICR
      00000087H   SFRSYM    DATA     BYTE      PCON
      000000BCH   SFRSYM    DATA     BYTE      ADC_CONTR
      000000E7H   SFRSYM    DATA     BYTE      CMPCR2
      000000E6H   SFRSYM    DATA     BYTE      CMPCR1
      000000DEH   SFRSYM    DATA     BYTE      ADCCFG
      000000B8H   SFRSYM    DATA     BYTE      IP
      0000008FH   SFRSYM    DATA     BYTE      INTCLKO
      000000EEH   SFRSYM    DATA     BYTE      IP3H
      000000B6H   SFRSYM    DATA     BYTE      IP2H
      000000A8H   SFRSYM    DATA     BYTE      IE
      000000BBH   SFRSYM    DATA     BYTE      P_SW3
L251 LINKER/LOCATER V4.66.93.0                                                        05/06/2026  19:47:11  PAGE 88


      000000BAH   SFRSYM    DATA     BYTE      P_SW2
      000000A2H   SFRSYM    DATA     BYTE      P_SW1
      000000CEH   SFRSYM    DATA     BYTE      SPCTL
      000000F8H   SFRSYM    DATA     BYTE      P7
      000000E8H   SFRSYM    DATA     BYTE      P6
      000000C8H   SFRSYM    DATA     BYTE      P5
      000000C0H   SFRSYM    DATA     BYTE      P4
      000000B0H   SFRSYM    DATA     BYTE      P3
      000000A0H   SFRSYM    DATA     BYTE      P2
      00000090H   SFRSYM    DATA     BYTE      P1
      00000080H   SFRSYM    DATA     BYTE      P0
      00011F46H   SYMBOL    XDATA    INT       channel
      00011F48H   SYMBOL    XDATA    WORD      value

      ---         MODULE    ---      ---       zf_device_ble6a20
      000000D0H   SFRSYM    DATA     BYTE      PSW
      0000009DH   SFRSYM    DATA     BYTE      IRCBAND
      00000097H   SFRSYM    DATA     BYTE      AUXR2
      000000EFH   SFRSYM    DATA     BYTE      AUXINTIF
      000000FDH   SFRSYM    DATA     BYTE      S4CON
      000000ACH   SFRSYM    DATA     BYTE      S3CON
      0000009AH   SFRSYM    DATA     BYTE      S2CON
      000000B7H   SFRSYM    DATA     BYTE      IPH
      000000CDH   SFRSYM    DATA     BYTE      SPSTAT
      000000DDH   SFRSYM    DATA     BYTE      T4T3M
      000000C1H   SFRSYM    DATA     BYTE      WDT_CONTR
      000000DFH   SFRSYM    DATA     BYTE      IP3
      000000F4H   SFRSYM    DATA     BYTE      USBCON
      000000B5H   SFRSYM    DATA     BYTE      IP2
      000000FFH   SFRSYM    DATA     BYTE      RSTCFG
      000000C7H   SFRSYM    DATA     BYTE      IAP_CONTR
      000000F9H   SFRSYM    DATA     BYTE      LINICR
      0000008EH   SFRSYM    DATA     BYTE      AUXR
      000000AFH   SFRSYM    DATA     BYTE      IE2
      00000088H   SFRSYM    DATA     BYTE      TCON
      00000089H   SFRSYM    DATA     BYTE      TMOD
      00000098H   SFRSYM    DATA     BYTE      SCON
      000000F1H   SFRSYM    DATA     BYTE      CANICR
      00000087H   SFRSYM    DATA     BYTE      PCON
      000000BCH   SFRSYM    DATA     BYTE      ADC_CONTR
      000000E7H   SFRSYM    DATA     BYTE      CMPCR2
      000000E6H   SFRSYM    DATA     BYTE      CMPCR1
      000000DEH   SFRSYM    DATA     BYTE      ADCCFG
      000000B8H   SFRSYM    DATA     BYTE      IP
      0000008FH   SFRSYM    DATA     BYTE      INTCLKO
      000000EEH   SFRSYM    DATA     BYTE      IP3H
      000000B6H   SFRSYM    DATA     BYTE      IP2H
      000000A8H   SFRSYM    DATA     BYTE      IE
      000000BBH   SFRSYM    DATA     BYTE      P_SW3
      000000BAH   SFRSYM    DATA     BYTE      P_SW2
      000000A2H   SFRSYM    DATA     BYTE      P_SW1
      000000CEH   SFRSYM    DATA     BYTE      SPCTL
      000000F8H   SFRSYM    DATA     BYTE      P7
      000000E8H   SFRSYM    DATA     BYTE      P6
      000000C8H   SFRSYM    DATA     BYTE      P5
      000000C0H   SFRSYM    DATA     BYTE      P4
      000000B0H   SFRSYM    DATA     BYTE      P3
      000000A0H   SFRSYM    DATA     BYTE      P2
      00000090H   SFRSYM    DATA     BYTE      P1
      00000080H   SFRSYM    DATA     BYTE      P0
      00010D60H   SYMBOL    XDATA    ---       ble6a20_buffer
      00010DA0H   SYMBOL    XDATA    ---       ble6a20_fifo
      00011FAFH   SYMBOL    XDATA    BYTE      dat
      00011FB0H   SYMBOL    XDATA    WORD      time_cnt
      000119BFH   SYMBOL    XDATA    ---       buff
L251 LINKER/LOCATER V4.66.93.0                                                        05/06/2026  19:47:11  PAGE 89


      000119C3H   SYMBOL    XDATA    DWORD     len
      000119C7H   SYMBOL    XDATA    WORD      time_cnt
      000119C9H   SYMBOL    XDATA    WORD      send_len
      00011CFDH   SYMBOL    XDATA    ---       str
      00011D01H   SYMBOL    XDATA    DWORD     len
      000119CBH   SYMBOL    XDATA    ---       buff
      000119CFH   SYMBOL    XDATA    DWORD     len
      000119D3H   SYMBOL    XDATA    DWORD     data_len
      0001200AH   SYMBOL    XDATA    BYTE      uart_dat
      0001200BH   SYMBOL    XDATA    BYTE      return_state

      ---         MODULE    ---      ---       zf_device_config
      00FF01CEH   PUBLIC    CODE     ---       imu660ra_config_file

      ---         MODULE    ---      ---       zf_device_dl1a
      000118C5H   PUBLIC    XDATA    WORD      dl1a_distance_mm
      000118C7H   PUBLIC    XDATA    BYTE      dl1a_finsh_flag
      000000D0H   SFRSYM    DATA     BYTE      PSW
      0000009DH   SFRSYM    DATA     BYTE      IRCBAND
      00000097H   SFRSYM    DATA     BYTE      AUXR2
      000000EFH   SFRSYM    DATA     BYTE      AUXINTIF
      000000FDH   SFRSYM    DATA     BYTE      S4CON
      000000ACH   SFRSYM    DATA     BYTE      S3CON
      0000009AH   SFRSYM    DATA     BYTE      S2CON
      000000B7H   SFRSYM    DATA     BYTE      IPH
      000000CDH   SFRSYM    DATA     BYTE      SPSTAT
      000000DDH   SFRSYM    DATA     BYTE      T4T3M
      000000C1H   SFRSYM    DATA     BYTE      WDT_CONTR
      000000DFH   SFRSYM    DATA     BYTE      IP3
      000000F4H   SFRSYM    DATA     BYTE      USBCON
      000000B5H   SFRSYM    DATA     BYTE      IP2
      000000FFH   SFRSYM    DATA     BYTE      RSTCFG
      000000C7H   SFRSYM    DATA     BYTE      IAP_CONTR
      000000F9H   SFRSYM    DATA     BYTE      LINICR
      0000008EH   SFRSYM    DATA     BYTE      AUXR
      000000AFH   SFRSYM    DATA     BYTE      IE2
      00000088H   SFRSYM    DATA     BYTE      TCON
      00000089H   SFRSYM    DATA     BYTE      TMOD
      00000098H   SFRSYM    DATA     BYTE      SCON
      000000F1H   SFRSYM    DATA     BYTE      CANICR
      00000087H   SFRSYM    DATA     BYTE      PCON
      000000BCH   SFRSYM    DATA     BYTE      ADC_CONTR
      000000E7H   SFRSYM    DATA     BYTE      CMPCR2
      000000E6H   SFRSYM    DATA     BYTE      CMPCR1
      000000DEH   SFRSYM    DATA     BYTE      ADCCFG
      000000B8H   SFRSYM    DATA     BYTE      IP
      0000008FH   SFRSYM    DATA     BYTE      INTCLKO
      000000EEH   SFRSYM    DATA     BYTE      IP3H
      000000B6H   SFRSYM    DATA     BYTE      IP2H
      000000A8H   SFRSYM    DATA     BYTE      IE
      000000BBH   SFRSYM    DATA     BYTE      P_SW3
      000000BAH   SFRSYM    DATA     BYTE      P_SW2
      000000A2H   SFRSYM    DATA     BYTE      P_SW1
      000000CEH   SFRSYM    DATA     BYTE      SPCTL
      000000F8H   SFRSYM    DATA     BYTE      P7
      000000E8H   SFRSYM    DATA     BYTE      P6
      000000C8H   SFRSYM    DATA     BYTE      P5
      000000C0H   SFRSYM    DATA     BYTE      P4
      000000B0H   SFRSYM    DATA     BYTE      P3
      000000A0H   SFRSYM    DATA     BYTE      P2
      00000090H   SFRSYM    DATA     BYTE      P1
      00000080H   SFRSYM    DATA     BYTE      P0
      00FFA32FH   SYMBOL    HCONST   ---       ?tpl?0001
      00FFA337H   SYMBOL    HCONST   ---       ?tpl?0002
      00FFA33DH   SYMBOL    HCONST   ---       ?tpl?0003
L251 LINKER/LOCATER V4.66.93.0                                                        05/06/2026  19:47:11  PAGE 90


      00FFA347H   SYMBOL    HCONST   ---       ?tpl?0004
      000118BCH   SYMBOL    XDATA    ---       dl1a_iic_struct
      000118C8H   SYMBOL    XDATA    BYTE      dl1a_init_flag
      000119D7H   SYMBOL    XDATA    ---       index
      000119DBH   SYMBOL    XDATA    ---       type_is_aperture
      000119DFH   SYMBOL    XDATA    BYTE      tmp
      000119E0H   SYMBOL    XDATA    BYTE      return_state
      000119E1H   SYMBOL    XDATA    WORD      loop_count
      00011D9AH   SYMBOL    XDATA    WORD      timeout_period_mclks
      00011D9CH   SYMBOL    XDATA    BYTE      vcsel_period_pclks
      00011D9DH   SYMBOL    XDATA    DWORD     macro_period_ns
      00011B92H   SYMBOL    XDATA    DWORD     timeout_period_us
      00011B96H   SYMBOL    XDATA    BYTE      vcsel_period_pclks
      00011B97H   SYMBOL    XDATA    DWORD     macro_period_ns
      00011FD4H   SYMBOL    XDATA    WORD      reg_val
      00011FD6H   SYMBOL    XDATA    WORD      timeout_mclks
      00000008H   SYMBOL    EDATA    DWORD     ls_byte
      0000000CH   SYMBOL    EDATA    WORD      ms_byte
      0000000EH   SYMBOL    EDATA    WORD      return_data
      00011ECEH   SYMBOL    XDATA    ---       enables
      00011ED2H   SYMBOL    XDATA    BYTE      sequence_config
      00011FB2H   SYMBOL    XDATA    INT       type
      00011FB4H   SYMBOL    XDATA    BYTE      data_buffer
      000119E3H   SYMBOL    XDATA    ---       enables
      000119E7H   SYMBOL    XDATA    ---       timeouts
      000119EBH   SYMBOL    XDATA    ---       reg_buffer
      000119EDH   SYMBOL    XDATA    WORD      reg16_buffer
      00011ED3H   SYMBOL    XDATA    BYTE      vhv_init_byte
      00011ED4H   SYMBOL    XDATA    BYTE      return_state
      00011ED5H   SYMBOL    XDATA    BYTE      data_buffer
      00011ED6H   SYMBOL    XDATA    WORD      loop_count
      00011074H   SYMBOL    XDATA    DWORD     budget_us
      00011078H   SYMBOL    XDATA    BYTE      return_state
      00011079H   SYMBOL    XDATA    ---       data_buffer
      0001107CH   SYMBOL    XDATA    WORD      dat
      0001107EH   SYMBOL    XDATA    DWORD     final_range_timeout_us
      00011082H   SYMBOL    XDATA    WORD      final_range_timeout_mclks
      00011084H   SYMBOL    XDATA    ---       enables
      00011089H   SYMBOL    XDATA    ---       timeouts
      0001109FH   SYMBOL    XDATA    DWORD     used_budget_us
      0001129DH   SYMBOL    XDATA    ---       enables
      000112A2H   SYMBOL    XDATA    ---       timeouts
      000112B8H   SYMBOL    XDATA    DWORD     budget_us
      00011B9BH   SYMBOL    XDATA    FLOAT     limit_mcps
      00011B9FH   SYMBOL    XDATA    ---       data_buffer
      00011BA2H   SYMBOL    XDATA    WORD      limit_mcps_16bit
      00011FB5H   SYMBOL    XDATA    ---       reg_databuffer
      00010A5EH   SYMBOL    XDATA    DWORD     measurement_timing_budget_us
      00010A62H   SYMBOL    XDATA    BYTE      stop_variable
      00010A63H   SYMBOL    XDATA    BYTE      return_state
      00010A64H   SYMBOL    XDATA    BYTE      reg_data_buffer
      00010A65H   SYMBOL    XDATA    ---       ref_spad_map
      00010A6BH   SYMBOL    XDATA    ---       data_buffer
      00010A72H   SYMBOL    XDATA    WORD      i
      00010A74H   SYMBOL    XDATA    ---       temp_buff1
      00010A7CH   SYMBOL    XDATA    ---       temp_buff2
      00010A82H   SYMBOL    XDATA    ---       temp_buff3
      00010A8CH   SYMBOL    XDATA    ---       temp_buff4

      ---         MODULE    ---      ---       zf_device_dl1b
      000118D2H   PUBLIC    XDATA    WORD      dl1b_distance_mm
      000118D4H   PUBLIC    XDATA    BYTE      dl1b_finsh_flag
      000000D0H   SFRSYM    DATA     BYTE      PSW
      0000009DH   SFRSYM    DATA     BYTE      IRCBAND
      00000097H   SFRSYM    DATA     BYTE      AUXR2
L251 LINKER/LOCATER V4.66.93.0                                                        05/06/2026  19:47:11  PAGE 91


      000000EFH   SFRSYM    DATA     BYTE      AUXINTIF
      000000FDH   SFRSYM    DATA     BYTE      S4CON
      000000ACH   SFRSYM    DATA     BYTE      S3CON
      0000009AH   SFRSYM    DATA     BYTE      S2CON
      000000B7H   SFRSYM    DATA     BYTE      IPH
      000000CDH   SFRSYM    DATA     BYTE      SPSTAT
      000000DDH   SFRSYM    DATA     BYTE      T4T3M
      000000C1H   SFRSYM    DATA     BYTE      WDT_CONTR
      000000DFH   SFRSYM    DATA     BYTE      IP3
      000000F4H   SFRSYM    DATA     BYTE      USBCON
      000000B5H   SFRSYM    DATA     BYTE      IP2
      000000FFH   SFRSYM    DATA     BYTE      RSTCFG
      000000C7H   SFRSYM    DATA     BYTE      IAP_CONTR
      000000F9H   SFRSYM    DATA     BYTE      LINICR
      0000008EH   SFRSYM    DATA     BYTE      AUXR
      000000AFH   SFRSYM    DATA     BYTE      IE2
      00000088H   SFRSYM    DATA     BYTE      TCON
      00000089H   SFRSYM    DATA     BYTE      TMOD
      00000098H   SFRSYM    DATA     BYTE      SCON
      000000F1H   SFRSYM    DATA     BYTE      CANICR
      00000087H   SFRSYM    DATA     BYTE      PCON
      000000BCH   SFRSYM    DATA     BYTE      ADC_CONTR
      000000E7H   SFRSYM    DATA     BYTE      CMPCR2
      000000E6H   SFRSYM    DATA     BYTE      CMPCR1
      000000DEH   SFRSYM    DATA     BYTE      ADCCFG
      000000B8H   SFRSYM    DATA     BYTE      IP
      0000008FH   SFRSYM    DATA     BYTE      INTCLKO
      000000EEH   SFRSYM    DATA     BYTE      IP3H
      000000B6H   SFRSYM    DATA     BYTE      IP2H
      000000A8H   SFRSYM    DATA     BYTE      IE
      000000BBH   SFRSYM    DATA     BYTE      P_SW3
      000000BAH   SFRSYM    DATA     BYTE      P_SW2
      000000A2H   SFRSYM    DATA     BYTE      P_SW1
      000000CEH   SFRSYM    DATA     BYTE      SPCTL
      000000F8H   SFRSYM    DATA     BYTE      P7
      000000E8H   SFRSYM    DATA     BYTE      P6
      000000C8H   SFRSYM    DATA     BYTE      P5
      000000C0H   SFRSYM    DATA     BYTE      P4
      000000B0H   SFRSYM    DATA     BYTE      P3
      000000A0H   SFRSYM    DATA     BYTE      P2
      00000090H   SFRSYM    DATA     BYTE      P1
      00000080H   SFRSYM    DATA     BYTE      P0
      000118C9H   SYMBOL    XDATA    ---       dl1b_iic_struct
      000118D5H   SYMBOL    XDATA    BYTE      dl1b_init_flag
      00011ED8H   SYMBOL    XDATA    ---       data_buffer
      00011EDBH   SYMBOL    XDATA    INT       dl1b_distance_temp
      0001200CH   SYMBOL    XDATA    BYTE      return_state

      ---         MODULE    ---      ---       zf_device_gps_tau1201
      00010423H   PUBLIC    XDATA    BYTE      gps_tau1201_flag
      000104A4H   PUBLIC    XDATA    ---       gps_tau1201
      000105D0H   PUBLIC    XDATA    INT       gps_gga_state
      000105D2H   PUBLIC    XDATA    INT       gps_rmc_state
      00010FB4H   PUBLIC    XDATA    BYTE      ?get_two_points_distance?BYTE
      00011353H   PUBLIC    XDATA    BYTE      ?get_two_points_azimuth?BYTE
      000000D0H   SFRSYM    DATA     BYTE      PSW
      0000009DH   SFRSYM    DATA     BYTE      IRCBAND
      00000097H   SFRSYM    DATA     BYTE      AUXR2
      000000EFH   SFRSYM    DATA     BYTE      AUXINTIF
      000000FDH   SFRSYM    DATA     BYTE      S4CON
      000000ACH   SFRSYM    DATA     BYTE      S3CON
      0000009AH   SFRSYM    DATA     BYTE      S2CON
      000000B7H   SFRSYM    DATA     BYTE      IPH
      000000CDH   SFRSYM    DATA     BYTE      SPSTAT
      000000DDH   SFRSYM    DATA     BYTE      T4T3M
L251 LINKER/LOCATER V4.66.93.0                                                        05/06/2026  19:47:11  PAGE 92


      000000C1H   SFRSYM    DATA     BYTE      WDT_CONTR
      000000DFH   SFRSYM    DATA     BYTE      IP3
      000000F4H   SFRSYM    DATA     BYTE      USBCON
      000000B5H   SFRSYM    DATA     BYTE      IP2
      000000FFH   SFRSYM    DATA     BYTE      RSTCFG
      000000C7H   SFRSYM    DATA     BYTE      IAP_CONTR
      000000F9H   SFRSYM    DATA     BYTE      LINICR
      0000008EH   SFRSYM    DATA     BYTE      AUXR
      000000AFH   SFRSYM    DATA     BYTE      IE2
      00000088H   SFRSYM    DATA     BYTE      TCON
      00000089H   SFRSYM    DATA     BYTE      TMOD
      00000098H   SFRSYM    DATA     BYTE      SCON
      000000F1H   SFRSYM    DATA     BYTE      CANICR
      00000087H   SFRSYM    DATA     BYTE      PCON
      000000BCH   SFRSYM    DATA     BYTE      ADC_CONTR
      000000E7H   SFRSYM    DATA     BYTE      CMPCR2
      000000E6H   SFRSYM    DATA     BYTE      CMPCR1
      000000DEH   SFRSYM    DATA     BYTE      ADCCFG
      000000B8H   SFRSYM    DATA     BYTE      IP
      0000008FH   SFRSYM    DATA     BYTE      INTCLKO
      000000EEH   SFRSYM    DATA     BYTE      IP3H
      000000B6H   SFRSYM    DATA     BYTE      IP2H
      000000A8H   SFRSYM    DATA     BYTE      IE
      000000BBH   SFRSYM    DATA     BYTE      P_SW3
      000000BAH   SFRSYM    DATA     BYTE      P_SW2
      000000A2H   SFRSYM    DATA     BYTE      P_SW1
      000000CEH   SFRSYM    DATA     BYTE      SPCTL
      000000F8H   SFRSYM    DATA     BYTE      P7
      000000E8H   SFRSYM    DATA     BYTE      P6
      000000C8H   SFRSYM    DATA     BYTE      P5
      000000C0H   SFRSYM    DATA     BYTE      P4
      000000B0H   SFRSYM    DATA     BYTE      P3
      000000A0H   SFRSYM    DATA     BYTE      P2
      00000090H   SFRSYM    DATA     BYTE      P1
      00000080H   SFRSYM    DATA     BYTE      P0
      00FFA60AH   SYMBOL    HCONST   ---       ?tpl?0001
      00FFA60FH   SYMBOL    HCONST   ---       ?tpl?0002
      00FFA62BH   SYMBOL    HCONST   ---       ?tpl?0003
      00FFA636H   SYMBOL    HCONST   ---       ?tpl?0004
      00FFA641H   SYMBOL    HCONST   ---       ?tpl?0005
      00FFA64CH   SYMBOL    HCONST   ---       ?tpl?0006
      00FFA657H   SYMBOL    HCONST   ---       ?tpl?0007
      00FFA662H   SYMBOL    HCONST   ---       ?tpl?0008
      00FFA66DH   SYMBOL    HCONST   ---       ?tpl?0009
      00FFA678H   SYMBOL    HCONST   ---       ?tpl?000A
      00FFA683H   SYMBOL    HCONST   ---       ?tpl?000B
      00FFA68EH   SYMBOL    HCONST   ---       ?tpl?000C
      00FFA699H   SYMBOL    HCONST   ---       ?tpl?000D
      0001040CH   SYMBOL    XDATA    ---       gps_tau1201_receiver_fifo
      00010424H   SYMBOL    XDATA    ---       gps_gga_buffer
      000104CFH   SYMBOL    XDATA    BYTE      gps_tau1201_state
      000104D0H   SYMBOL    XDATA    ---       gps_rmc_buffer
      00010550H   SYMBOL    XDATA    ---       gps_tau1201_receiver_buffer
      000118D6H   SYMBOL    XDATA    BYTE      num
      000118D7H   SYMBOL    XDATA    ---       str
      000118DBH   SYMBOL    XDATA    BYTE      i
      000118DCH   SYMBOL    XDATA    BYTE      j
      000118DDH   SYMBOL    XDATA    ---       temp
      000118E1H   SYMBOL    XDATA    BYTE      len
      000118E2H   SYMBOL    XDATA    BYTE      len1
      0001165BH   SYMBOL    XDATA    ---       s
      0001165FH   SYMBOL    XDATA    ---       buf
      00011669H   SYMBOL    XDATA    BYTE      i
      0001166AH   SYMBOL    XDATA    INT       return_value
      00011470H   SYMBOL    XDATA    ---       s
L251 LINKER/LOCATER V4.66.93.0                                                        05/06/2026  19:47:11  PAGE 93


      00011474H   SYMBOL    XDATA    BYTE      i
      00011475H   SYMBOL    XDATA    ---       buf
      00011484H   SYMBOL    XDATA    FLOAT     return_value
      00011488H   SYMBOL    XDATA    ---       s
      0001148CH   SYMBOL    XDATA    BYTE      i
      0001148DH   SYMBOL    XDATA    ---       buf
      0001149CH   SYMBOL    XDATA    FLOAT     return_value
      00011EDDH   SYMBOL    XDATA    ---       time
      00011EE1H   SYMBOL    XDATA    BYTE      day_num
      00011127H   SYMBOL    XDATA    ---       line
      0001112BH   SYMBOL    XDATA    ---       gps
      0001112FH   SYMBOL    XDATA    BYTE      state
      00011130H   SYMBOL    XDATA    BYTE      temp
      00011131H   SYMBOL    XDATA    FLOAT     latitude
      00011135H   SYMBOL    XDATA    FLOAT     longitude
      00011139H   SYMBOL    XDATA    FLOAT     lati_cent_tmp
      0001113DH   SYMBOL    XDATA    FLOAT     lati_second_tmp
      00011141H   SYMBOL    XDATA    FLOAT     long_cent_tmp
      00011145H   SYMBOL    XDATA    FLOAT     long_second_tmp
      00011149H   SYMBOL    XDATA    FLOAT     speed_tmp
      0001114DH   SYMBOL    XDATA    ---       buf
      00011151H   SYMBOL    XDATA    BYTE      return_state
      0001181AH   SYMBOL    XDATA    ---       line
      0001181EH   SYMBOL    XDATA    ---       gps
      00011822H   SYMBOL    XDATA    BYTE      state
      00011823H   SYMBOL    XDATA    ---       buf
      00011827H   SYMBOL    XDATA    BYTE      return_state
      00010FB4H   SYMBOL    XDATA    FLOAT     latitude1
      00010FB8H   SYMBOL    XDATA    FLOAT     longitude1
      00010FBCH   SYMBOL    XDATA    FLOAT     latitude2
      00010FC0H   SYMBOL    XDATA    FLOAT     longitude2
      00010FC4H   SYMBOL    XDATA    FLOAT     EARTH_RADIUS
      00010FC8H   SYMBOL    XDATA    FLOAT     rad_latitude1
      00010FCCH   SYMBOL    XDATA    FLOAT     rad_latitude2
      00010FD0H   SYMBOL    XDATA    FLOAT     rad_longitude1
      00010FD4H   SYMBOL    XDATA    FLOAT     rad_longitude2
      00010FD8H   SYMBOL    XDATA    FLOAT     distance
      00010FDCH   SYMBOL    XDATA    FLOAT     a
      00010FE0H   SYMBOL    XDATA    FLOAT     b
      00011353H   SYMBOL    XDATA    FLOAT     latitude1
      00011357H   SYMBOL    XDATA    FLOAT     longitude1
      0001135BH   SYMBOL    XDATA    FLOAT     latitude2
      0001135FH   SYMBOL    XDATA    FLOAT     longitude2
      00011363H   SYMBOL    XDATA    FLOAT     x
      00011367H   SYMBOL    XDATA    FLOAT     y
      0001136BH   SYMBOL    XDATA    FLOAT     angle
      000119EFH   SYMBOL    XDATA    BYTE      return_state
      000119F0H   SYMBOL    XDATA    ---       check_buffer
      000119F5H   SYMBOL    XDATA    BYTE      bbc_xor_origin
      000119F6H   SYMBOL    XDATA    BYTE      bbc_xor_calculation
      000119F7H   SYMBOL    XDATA    DWORD     data_len
      00011AE6H   SYMBOL    XDATA    BYTE      uart_dat
      00011AE7H   SYMBOL    XDATA    ---       temp_gps
      00011AEDH   SYMBOL    XDATA    DWORD     temp_length
      00010B2CH   SYMBOL    XDATA    ---       set_rate
      00010B48H   SYMBOL    XDATA    ---       open_gga
      00010B53H   SYMBOL    XDATA    ---       open_rmc
      00010B5EH   SYMBOL    XDATA    ---       close_gll
      00010B69H   SYMBOL    XDATA    ---       close_gsa
      00010B74H   SYMBOL    XDATA    ---       close_grs
      00010B7FH   SYMBOL    XDATA    ---       close_gsv
      00010B8AH   SYMBOL    XDATA    ---       close_vtg
      00010B95H   SYMBOL    XDATA    ---       close_zda
      00010BA0H   SYMBOL    XDATA    ---       close_gst
      00010BABH   SYMBOL    XDATA    ---       close_txt
L251 LINKER/LOCATER V4.66.93.0                                                        05/06/2026  19:47:11  PAGE 94


      00010BB6H   SYMBOL    XDATA    ---       close_txt_ant

      ---         MODULE    ---      ---       zf_device_icm20602
      00011542H   PUBLIC    XDATA    INT       icm20602_acc_x
      00011544H   PUBLIC    XDATA    INT       icm20602_acc_y
      00011546H   PUBLIC    XDATA    INT       icm20602_acc_z
      00011548H   PUBLIC    XDATA    INT       icm20602_gyro_x
      0001154AH   PUBLIC    XDATA    INT       icm20602_gyro_y
      0001154CH   PUBLIC    XDATA    INT       icm20602_gyro_z
      0001154EH   PUBLIC    XDATA    ---       icm20602_transition_factor
      000000D0H   SFRSYM    DATA     BYTE      PSW
      0000009DH   SFRSYM    DATA     BYTE      IRCBAND
      00000097H   SFRSYM    DATA     BYTE      AUXR2
      000000EFH   SFRSYM    DATA     BYTE      AUXINTIF
      000000FDH   SFRSYM    DATA     BYTE      S4CON
      000000ACH   SFRSYM    DATA     BYTE      S3CON
      0000009AH   SFRSYM    DATA     BYTE      S2CON
      000000B7H   SFRSYM    DATA     BYTE      IPH
      000000CDH   SFRSYM    DATA     BYTE      SPSTAT
      000000DDH   SFRSYM    DATA     BYTE      T4T3M
      000000C1H   SFRSYM    DATA     BYTE      WDT_CONTR
      000000DFH   SFRSYM    DATA     BYTE      IP3
      000000F4H   SFRSYM    DATA     BYTE      USBCON
      000000B5H   SFRSYM    DATA     BYTE      IP2
      000000FFH   SFRSYM    DATA     BYTE      RSTCFG
      000000C7H   SFRSYM    DATA     BYTE      IAP_CONTR
      000000F9H   SFRSYM    DATA     BYTE      LINICR
      0000008EH   SFRSYM    DATA     BYTE      AUXR
      000000AFH   SFRSYM    DATA     BYTE      IE2
      000000C0H.3 SFRSYM    DATA     BIT       P43
      000000C0H.2 SFRSYM    DATA     BIT       P42
      00000088H   SFRSYM    DATA     BYTE      TCON
      00000089H   SFRSYM    DATA     BYTE      TMOD
      000000C0H.1 SFRSYM    DATA     BIT       P41
      00000098H   SFRSYM    DATA     BYTE      SCON
      000000C0H.0 SFRSYM    DATA     BIT       P40
      000000F1H   SFRSYM    DATA     BYTE      CANICR
      00000087H   SFRSYM    DATA     BYTE      PCON
      000000BCH   SFRSYM    DATA     BYTE      ADC_CONTR
      000000E7H   SFRSYM    DATA     BYTE      CMPCR2
      000000E6H   SFRSYM    DATA     BYTE      CMPCR1
      000000DEH   SFRSYM    DATA     BYTE      ADCCFG
      000000B8H   SFRSYM    DATA     BYTE      IP
      0000008FH   SFRSYM    DATA     BYTE      INTCLKO
      000000EEH   SFRSYM    DATA     BYTE      IP3H
      000000B6H   SFRSYM    DATA     BYTE      IP2H
      000000A8H   SFRSYM    DATA     BYTE      IE
      000000BBH   SFRSYM    DATA     BYTE      P_SW3
      000000BAH   SFRSYM    DATA     BYTE      P_SW2
      000000A2H   SFRSYM    DATA     BYTE      P_SW1
      000000CEH   SFRSYM    DATA     BYTE      SPCTL
      000000F8H   SFRSYM    DATA     BYTE      P7
      000000E8H   SFRSYM    DATA     BYTE      P6
      000000C8H   SFRSYM    DATA     BYTE      P5
      000000C0H   SFRSYM    DATA     BYTE      P4
      000000B0H   SFRSYM    DATA     BYTE      P3
      000000A0H   SFRSYM    DATA     BYTE      P2
      00000090H   SFRSYM    DATA     BYTE      P1
      00000080H   SFRSYM    DATA     BYTE      P0
      00011FD8H   SYMBOL    XDATA    BYTE      byte
      00011FD9H   SYMBOL    XDATA    BYTE      i
      00011FDAH   SYMBOL    XDATA    BYTE      cmd
      00011FDBH   SYMBOL    XDATA    BYTE      val
      00011EE2H   SYMBOL    XDATA    BYTE      cmd
      00011EE3H   SYMBOL    XDATA    ---       val
L251 LINKER/LOCATER V4.66.93.0                                                        05/06/2026  19:47:11  PAGE 95


      00011BA4H   SYMBOL    XDATA    BYTE      cmd
      00011BA5H   SYMBOL    XDATA    ---       val
      00011BA9H   SYMBOL    XDATA    DWORD     num
      00000010H   SYMBOL    EDATA    DWORD     i
      00011FDCH   SYMBOL    XDATA    BYTE      reg
      00011FDDH   SYMBOL    XDATA    BYTE      dat
      00011FDEH   SYMBOL    XDATA    BYTE      reg
      00011FDFH   SYMBOL    XDATA    BYTE      dat
      00011BADH   SYMBOL    XDATA    BYTE      reg
      00011BAEH   SYMBOL    XDATA    ---       dat
      00011BB2H   SYMBOL    XDATA    DWORD     len
      00011F4AH   SYMBOL    XDATA    BYTE      dat
      00011F4BH   SYMBOL    XDATA    BYTE      return_state
      00011F4CH   SYMBOL    XDATA    WORD      timeout_count
      00011E0FH   SYMBOL    XDATA    ---       dat
      00011E15H   SYMBOL    XDATA    ---       dat
      00011F4EH   SYMBOL    XDATA    BYTE      val
      00011F4FH   SYMBOL    XDATA    BYTE      return_state
      00011F50H   SYMBOL    XDATA    WORD      timeout_count

      ---         MODULE    ---      ---       zf_device_imu660ra
      00FF944DH   PUBLIC    CODE     ---       imu660ra_get_gyro
      00FF6161H   PUBLIC    CODE     ---       imu660ra_init
      00FF94A7H   PUBLIC    CODE     ---       imu660ra_get_acc
      00011556H   PUBLIC    XDATA    INT       imu660ra_acc_x
      00011558H   PUBLIC    XDATA    INT       imu660ra_acc_y
      0001155AH   PUBLIC    XDATA    INT       imu660ra_acc_z
      0001155CH   PUBLIC    XDATA    INT       imu660ra_gyro_x
      0001155EH   PUBLIC    XDATA    INT       imu660ra_gyro_y
      00011560H   PUBLIC    XDATA    INT       imu660ra_gyro_z
      00011562H   PUBLIC    XDATA    ---       imu660ra_transition_factor
      000000D0H   SFRSYM    DATA     BYTE      PSW
      0000009DH   SFRSYM    DATA     BYTE      IRCBAND
      00000097H   SFRSYM    DATA     BYTE      AUXR2
      000000EFH   SFRSYM    DATA     BYTE      AUXINTIF
      000000FDH   SFRSYM    DATA     BYTE      S4CON
      000000ACH   SFRSYM    DATA     BYTE      S3CON
      0000009AH   SFRSYM    DATA     BYTE      S2CON
      000000B7H   SFRSYM    DATA     BYTE      IPH
      000000CDH   SFRSYM    DATA     BYTE      SPSTAT
      000000DDH   SFRSYM    DATA     BYTE      T4T3M
      000000C1H   SFRSYM    DATA     BYTE      WDT_CONTR
      000000DFH   SFRSYM    DATA     BYTE      IP3
      000000F4H   SFRSYM    DATA     BYTE      USBCON
      000000B5H   SFRSYM    DATA     BYTE      IP2
      000000FFH   SFRSYM    DATA     BYTE      RSTCFG
      000000C7H   SFRSYM    DATA     BYTE      IAP_CONTR
      000000F9H   SFRSYM    DATA     BYTE      LINICR
      0000008EH   SFRSYM    DATA     BYTE      AUXR
      000000AFH   SFRSYM    DATA     BYTE      IE2
      000000C0H.3 SFRSYM    DATA     BIT       P43
      000000C0H.2 SFRSYM    DATA     BIT       P42
      00000088H   SFRSYM    DATA     BYTE      TCON
      00000089H   SFRSYM    DATA     BYTE      TMOD
      000000C0H.1 SFRSYM    DATA     BIT       P41
      00000098H   SFRSYM    DATA     BYTE      SCON
      000000C0H.0 SFRSYM    DATA     BIT       P40
      000000F1H   SFRSYM    DATA     BYTE      CANICR
      00000087H   SFRSYM    DATA     BYTE      PCON
      000000BCH   SFRSYM    DATA     BYTE      ADC_CONTR
      000000E7H   SFRSYM    DATA     BYTE      CMPCR2
      000000E6H   SFRSYM    DATA     BYTE      CMPCR1
      000000DEH   SFRSYM    DATA     BYTE      ADCCFG
      000000B8H   SFRSYM    DATA     BYTE      IP
      0000008FH   SFRSYM    DATA     BYTE      INTCLKO
L251 LINKER/LOCATER V4.66.93.0                                                        05/06/2026  19:47:11  PAGE 96


      000000EEH   SFRSYM    DATA     BYTE      IP3H
      000000B6H   SFRSYM    DATA     BYTE      IP2H
      000000A8H   SFRSYM    DATA     BYTE      IE
      000000BBH   SFRSYM    DATA     BYTE      P_SW3
      000000BAH   SFRSYM    DATA     BYTE      P_SW2
      000000A2H   SFRSYM    DATA     BYTE      P_SW1
      000000CEH   SFRSYM    DATA     BYTE      SPCTL
      000000F8H   SFRSYM    DATA     BYTE      P7
      000000E8H   SFRSYM    DATA     BYTE      P6
      000000C8H   SFRSYM    DATA     BYTE      P5
      000000C0H   SFRSYM    DATA     BYTE      P4
      000000B0H   SFRSYM    DATA     BYTE      P3
      000000A0H   SFRSYM    DATA     BYTE      P2
      00000090H   SFRSYM    DATA     BYTE      P1
      00000080H   SFRSYM    DATA     BYTE      P0
      00FF99E2H   SYMBOL    CODE     ---       imu660ra_read_register
      00FF9947H   SYMBOL    CODE     ---       imu660ra_write_registers
      00FF9B29H   SYMBOL    CODE     ---       imu660ra_write_register
      00FF95AEH   SYMBOL    CODE     ---       imu660ra_simspi_wr_byte
      00FF92D3H   SYMBOL    CODE     ---       imu660ra_self_check
      00FF8F8DH   SYMBOL    CODE     ---       imu660ra_simspi_r_reg_bytes
      00FF93F1H   SYMBOL    CODE     ---       imu660ra_simspi_w_reg_bytes
      00FF0026H   SYMBOL    CODE     ---       imu660ra_simspi_w_reg_byte
      00FF8341H   SYMBOL    CODE     ---       imu660ra_read_registers

      00FF95AEH   BLOCK     CODE     ---       LVL=0
      00011FE0H   SYMBOL    XDATA    BYTE      byte
      00FF95B2H   BLOCK     CODE     NEAR LAB  LVL=1
      00011FE1H   SYMBOL    XDATA    BYTE      i
      ---         BLOCKEND  ---      ---       LVL=1
      00FF95AEH   LINE      CODE     ---       #160
      00FF95B2H   LINE      CODE     ---       #161
      00FF95B2H   LINE      CODE     ---       #163
      00FF95B9H   LINE      CODE     ---       #165
      00FF95BCH   LINE      CODE     ---       #166
      00FF95CBH   LINE      CODE     ---       #167
      00FF95D2H   LINE      CODE     ---       #168
      00FF95D5H   LINE      CODE     ---       #169
      00FF95E2H   LINE      CODE     ---       #170
      00FF95F9H   LINE      CODE     ---       #171
      00FF95FCH   LINE      CODE     ---       #172
      00FF9600H   LINE      CODE     ---       #173
      ---         BLOCKEND  ---      ---       LVL=0

      00FF0026H   BLOCK     CODE     ---       LVL=0
      00011FE2H   SYMBOL    XDATA    BYTE      cmd
      00011FE3H   SYMBOL    XDATA    BYTE      val
      00FF0026H   LINE      CODE     ---       #182
      00FF0030H   LINE      CODE     ---       #184
      00FF0034H   LINE      CODE     ---       #185
      00FF003BH   LINE      CODE     ---       #186
      00FF0042H   LINE      CODE     ---       #187
      ---         BLOCKEND  ---      ---       LVL=0

      00FF93F1H   BLOCK     CODE     ---       LVL=0
      00011BB6H   SYMBOL    XDATA    BYTE      cmd
      00011BB7H   SYMBOL    XDATA    ---       dat_addr
      00011BBBH   SYMBOL    XDATA    DWORD     len
      00FF93F1H   LINE      CODE     ---       #197
      00FF9409H   LINE      CODE     ---       #199
      00FF940DH   LINE      CODE     ---       #200
      00FF9414H   LINE      CODE     ---       #201
      00FF9416H   LINE      CODE     ---       #203
      00FF942FH   LINE      CODE     ---       #204
      00FF944CH   LINE      CODE     ---       #205
L251 LINKER/LOCATER V4.66.93.0                                                        05/06/2026  19:47:11  PAGE 97


      ---         BLOCKEND  ---      ---       LVL=0

      00FF8F8DH   BLOCK     CODE     ---       LVL=0
      00011BBFH   SYMBOL    XDATA    BYTE      cmd
      00011BC0H   SYMBOL    XDATA    ---       val
      00011BC4H   SYMBOL    XDATA    DWORD     num
      00FF8F8DH   LINE      CODE     ---       #215
      00FF8FA5H   LINE      CODE     ---       #217
      00FF8FAFH   LINE      CODE     ---       #218
      00FF8FB6H   LINE      CODE     ---       #219
      00FF8FB8H   LINE      CODE     ---       #221
      00FF8FDFH   LINE      CODE     ---       #222
      00FF8FFCH   LINE      CODE     ---       #223
      ---         BLOCKEND  ---      ---       LVL=0

      00FF9B29H   BLOCK     CODE     ---       LVL=0
      00011FE4H   SYMBOL    XDATA    BYTE      reg
      00011FE5H   SYMBOL    XDATA    BYTE      dat
      00FF9B29H   LINE      CODE     ---       #234
      00FF9B33H   LINE      CODE     ---       #236
      00FF9B36H   LINE      CODE     ---       #237
      00FF9B43H   LINE      CODE     ---       #238
      00FF9B46H   LINE      CODE     ---       #239
      ---         BLOCKEND  ---      ---       LVL=0

      00FF9947H   BLOCK     CODE     ---       LVL=0
      00011BC8H   SYMBOL    XDATA    BYTE      reg
      00011BC9H   SYMBOL    XDATA    ---       dat
      00011BCDH   SYMBOL    XDATA    DWORD     len
      00FF9947H   LINE      CODE     ---       #249
      00FF995FH   LINE      CODE     ---       #251
      00FF9962H   LINE      CODE     ---       #252
      00FF997DH   LINE      CODE     ---       #253
      00FF9980H   LINE      CODE     ---       #254
      ---         BLOCKEND  ---      ---       LVL=0

      00FF99E2H   BLOCK     CODE     ---       LVL=0
      00011FB8H   SYMBOL    XDATA    BYTE      reg
      00FF99E6H   BLOCK     CODE     NEAR LAB  LVL=1
      00011FB9H   SYMBOL    XDATA    ---       dat
      ---         BLOCKEND  ---      ---       LVL=1
      00FF99E2H   LINE      CODE     ---       #263
      00FF99E6H   LINE      CODE     ---       #264
      00FF99E6H   LINE      CODE     ---       #266
      00FF99E9H   LINE      CODE     ---       #267
      00FF9A02H   LINE      CODE     ---       #268
      00FF9A05H   LINE      CODE     ---       #269
      00FF9A09H   LINE      CODE     ---       #270
      ---         BLOCKEND  ---      ---       LVL=0

      00FF8341H   BLOCK     CODE     ---       LVL=0
      00011592H   SYMBOL    XDATA    BYTE      reg
      00011593H   SYMBOL    XDATA    ---       dat
      00011597H   SYMBOL    XDATA    DWORD     len
      00FF8359H   BLOCK     CODE     NEAR LAB  LVL=1
      0001159BH   SYMBOL    XDATA    WORD      i
      0001159DH   SYMBOL    XDATA    ---       temp_data
      ---         BLOCKEND  ---      ---       LVL=1
      00FF8341H   LINE      CODE     ---       #281
      00FF8359H   LINE      CODE     ---       #282
      00FF8359H   LINE      CODE     ---       #283
      00FF8361H   LINE      CODE     ---       #285
      00FF8364H   LINE      CODE     ---       #286
      00FF8389H   LINE      CODE     ---       #287
      00FF838CH   LINE      CODE     ---       #289
L251 LINKER/LOCATER V4.66.93.0                                                        05/06/2026  19:47:11  PAGE 98


      00FF8396H   LINE      CODE     ---       #291
      00FF83CCH   LINE      CODE     ---       #292
      00FF83F1H   LINE      CODE     ---       #293
      ---         BLOCKEND  ---      ---       LVL=0

      00FF92D3H   BLOCK     CODE     ---       LVL=0
      00011F52H   SYMBOL    XDATA    BYTE      dat
      00011F53H   SYMBOL    XDATA    BYTE      return_state
      00011F54H   SYMBOL    XDATA    WORD      timeout_count
      00FF92D3H   LINE      CODE     ---       #312
      00FF92D3H   LINE      CODE     ---       #313
      00FF92D3H   LINE      CODE     ---       #314
      00FF92DDH   LINE      CODE     ---       #315
      00FF92E5H   LINE      CODE     ---       #317
      00FF92E5H   LINE      CODE     ---       #319
      00FF92FCH   LINE      CODE     ---       #321
      00FF9302H   LINE      CODE     ---       #322
      00FF9304H   LINE      CODE     ---       #323
      00FF9304H   LINE      CODE     ---       #325
      00FF930CH   LINE      CODE     ---       #326
      00FF9323H   LINE      CODE     ---       #327
      00FF932AH   LINE      CODE     ---       #328
      00FF9333H   LINE      CODE     ---       #331
      00FF9337H   LINE      CODE     ---       #332
      ---         BLOCKEND  ---      ---       LVL=0

      00FF94A7H   BLOCK     CODE     ---       LVL=0
      00011E1BH   SYMBOL    XDATA    ---       dat
      00FF94A7H   LINE      CODE     ---       #342
      00FF94A7H   LINE      CODE     ---       #343
      00FF94A7H   LINE      CODE     ---       #346
      00FF94B8H   LINE      CODE     ---       #347
      00FF94D0H   LINE      CODE     ---       #348
      00FF94E8H   LINE      CODE     ---       #349
      00FF9500H   LINE      CODE     ---       #350
      ---         BLOCKEND  ---      ---       LVL=0

      00FF944DH   BLOCK     CODE     ---       LVL=0
      00011E21H   SYMBOL    XDATA    ---       dat
      00FF944DH   LINE      CODE     ---       #359
      00FF944DH   LINE      CODE     ---       #360
      00FF944DH   LINE      CODE     ---       #363
      00FF945EH   LINE      CODE     ---       #364
      00FF9476H   LINE      CODE     ---       #365
      00FF948EH   LINE      CODE     ---       #366
      00FF94A6H   LINE      CODE     ---       #367
      ---         BLOCKEND  ---      ---       LVL=0

      00FF6161H   BLOCK     CODE     ---       LVL=0
      0001200DH   SYMBOL    XDATA    BYTE      return_state
      00FF6161H   LINE      CODE     ---       #376
      00FF6161H   LINE      CODE     ---       #377
      00FF6161H   LINE      CODE     ---       #378
      00FF6166H   LINE      CODE     ---       #379
      00FF616DH   LINE      CODE     ---       #389
      00FF6171H   LINE      CODE     ---       #395
      00FF6171H   LINE      CODE     ---       #397
      00FF6179H   LINE      CODE     ---       #402
      00FF6184H   LINE      CODE     ---       #403
      00FF618AH   LINE      CODE     ---       #404
      00FF618DH   LINE      CODE     ---       #405
      00FF618DH   LINE      CODE     ---       #407
      00FF6194H   LINE      CODE     ---       #408
      00FF619BH   LINE      CODE     ---       #409
      00FF61A2H   LINE      CODE     ---       #410
L251 LINKER/LOCATER V4.66.93.0                                                        05/06/2026  19:47:11  PAGE 99


      00FF61B3H   LINE      CODE     ---       #411
      00FF61BBH   LINE      CODE     ---       #412
      00FF61C2H   LINE      CODE     ---       #414
      00FF61CCH   LINE      CODE     ---       #419
      00FF61D7H   LINE      CODE     ---       #420
      00FF61DDH   LINE      CODE     ---       #421
      00FF61E0H   LINE      CODE     ---       #422
      00FF61E0H   LINE      CODE     ---       #424
      00FF61E8H   LINE      CODE     ---       #425
      00FF61F0H   LINE      CODE     ---       #426
      00FF61F8H   LINE      CODE     ---       #433
      00FF6210H   LINE      CODE     ---       #435
      00FF6210H   LINE      CODE     ---       #437
      00FF621BH   LINE      CODE     ---       #438
      00FF6221H   LINE      CODE     ---       #440
      00FF6223H   LINE      CODE     ---       #442
      00FF6223H   LINE      CODE     ---       #444
      00FF622AH   LINE      CODE     ---       #445
      00FF623AH   LINE      CODE     ---       #447
      00FF623CH   LINE      CODE     ---       #449
      00FF623CH   LINE      CODE     ---       #451
      00FF6244H   LINE      CODE     ---       #452
      00FF6254H   LINE      CODE     ---       #454
      00FF6256H   LINE      CODE     ---       #456
      00FF6256H   LINE      CODE     ---       #458
      00FF625EH   LINE      CODE     ---       #459
      00FF626EH   LINE      CODE     ---       #461
      00FF6270H   LINE      CODE     ---       #463
      00FF6270H   LINE      CODE     ---       #465
      00FF6278H   LINE      CODE     ---       #466
      00FF6288H   LINE      CODE     ---       #468
      00FF6288H   LINE      CODE     ---       #469
      00FF6288H   LINE      CODE     ---       #471
      00FF6294H   LINE      CODE     ---       #473
      00FF6294H   LINE      CODE     ---       #474
      00FF6294H   LINE      CODE     ---       #482
      00FF62B3H   LINE      CODE     ---       #484
      00FF62B3H   LINE      CODE     ---       #486
      00FF62BEH   LINE      CODE     ---       #487
      00FF62C4H   LINE      CODE     ---       #489
      00FF62C7H   LINE      CODE     ---       #491
      00FF62C7H   LINE      CODE     ---       #493
      00FF62CFH   LINE      CODE     ---       #494
      00FF62E1H   LINE      CODE     ---       #496
      00FF62E3H   LINE      CODE     ---       #498
      00FF62E3H   LINE      CODE     ---       #500
      00FF62EBH   LINE      CODE     ---       #501
      00FF62FDH   LINE      CODE     ---       #503
      00FF62FFH   LINE      CODE     ---       #505
      00FF62FFH   LINE      CODE     ---       #507
      00FF6307H   LINE      CODE     ---       #508
      00FF6319H   LINE      CODE     ---       #510
      00FF631BH   LINE      CODE     ---       #512
      00FF631BH   LINE      CODE     ---       #514
      00FF6323H   LINE      CODE     ---       #515
      00FF6335H   LINE      CODE     ---       #517
      00FF6337H   LINE      CODE     ---       #519
      00FF6337H   LINE      CODE     ---       #521
      00FF633EH   LINE      CODE     ---       #522
      00FF6350H   LINE      CODE     ---       #524
      00FF6350H   LINE      CODE     ---       #525
      00FF6350H   LINE      CODE     ---       #527
      00FF6350H   LINE      CODE     ---       #529
      00FF6350H   LINE      CODE     ---       #530
      00FF6350H   LINE      CODE     ---       #534
L251 LINKER/LOCATER V4.66.93.0                                                        05/06/2026  19:47:11  PAGE 100


      00FF6354H   LINE      CODE     ---       #535
      ---         BLOCKEND  ---      ---       LVL=0

      ---         MODULE    ---      ---       zf_device_imu660rb
      000119FBH   PUBLIC    XDATA    INT       imu660rb_acc_x
      000119FDH   PUBLIC    XDATA    INT       imu660rb_acc_y
      000119FFH   PUBLIC    XDATA    INT       imu660rb_acc_z
      00011A01H   PUBLIC    XDATA    INT       imu660rb_gyro_x
      00011A03H   PUBLIC    XDATA    INT       imu660rb_gyro_y
      00011A05H   PUBLIC    XDATA    INT       imu660rb_gyro_z
      000000D0H   SFRSYM    DATA     BYTE      PSW
      0000009DH   SFRSYM    DATA     BYTE      IRCBAND
      00000097H   SFRSYM    DATA     BYTE      AUXR2
      000000EFH   SFRSYM    DATA     BYTE      AUXINTIF
      000000FDH   SFRSYM    DATA     BYTE      S4CON
      000000ACH   SFRSYM    DATA     BYTE      S3CON
      0000009AH   SFRSYM    DATA     BYTE      S2CON
      000000B7H   SFRSYM    DATA     BYTE      IPH
      000000CDH   SFRSYM    DATA     BYTE      SPSTAT
      000000DDH   SFRSYM    DATA     BYTE      T4T3M
      000000C1H   SFRSYM    DATA     BYTE      WDT_CONTR
      000000DFH   SFRSYM    DATA     BYTE      IP3
      000000F4H   SFRSYM    DATA     BYTE      USBCON
      000000B5H   SFRSYM    DATA     BYTE      IP2
      000000FFH   SFRSYM    DATA     BYTE      RSTCFG
      000000C7H   SFRSYM    DATA     BYTE      IAP_CONTR
      000000F9H   SFRSYM    DATA     BYTE      LINICR
      0000008EH   SFRSYM    DATA     BYTE      AUXR
      000000AFH   SFRSYM    DATA     BYTE      IE2
      000000C0H.3 SFRSYM    DATA     BIT       P43
      000000C0H.2 SFRSYM    DATA     BIT       P42
      00000088H   SFRSYM    DATA     BYTE      TCON
      00000089H   SFRSYM    DATA     BYTE      TMOD
      000000C0H.1 SFRSYM    DATA     BIT       P41
      00000098H   SFRSYM    DATA     BYTE      SCON
      000000C0H.0 SFRSYM    DATA     BIT       P40
      000000F1H   SFRSYM    DATA     BYTE      CANICR
      00000087H   SFRSYM    DATA     BYTE      PCON
      000000BCH   SFRSYM    DATA     BYTE      ADC_CONTR
      000000E7H   SFRSYM    DATA     BYTE      CMPCR2
      000000E6H   SFRSYM    DATA     BYTE      CMPCR1
      000000DEH   SFRSYM    DATA     BYTE      ADCCFG
      000000B8H   SFRSYM    DATA     BYTE      IP
      0000008FH   SFRSYM    DATA     BYTE      INTCLKO
      000000EEH   SFRSYM    DATA     BYTE      IP3H
      000000B6H   SFRSYM    DATA     BYTE      IP2H
      000000A8H   SFRSYM    DATA     BYTE      IE
      000000BBH   SFRSYM    DATA     BYTE      P_SW3
      000000BAH   SFRSYM    DATA     BYTE      P_SW2
      000000A2H   SFRSYM    DATA     BYTE      P_SW1
      000000CEH   SFRSYM    DATA     BYTE      SPCTL
      000000F8H   SFRSYM    DATA     BYTE      P7
      000000E8H   SFRSYM    DATA     BYTE      P6
      000000C8H   SFRSYM    DATA     BYTE      P5
      000000C0H   SFRSYM    DATA     BYTE      P4
      000000B0H   SFRSYM    DATA     BYTE      P3
      000000A0H   SFRSYM    DATA     BYTE      P2
      00000090H   SFRSYM    DATA     BYTE      P1
      00000080H   SFRSYM    DATA     BYTE      P0
      00011FE6H   SYMBOL    XDATA    BYTE      byte
      00011FE7H   SYMBOL    XDATA    BYTE      i
      00011FE8H   SYMBOL    XDATA    BYTE      cmd
      00011FE9H   SYMBOL    XDATA    BYTE      val
      00011EE7H   SYMBOL    XDATA    BYTE      cmd
      00011EE8H   SYMBOL    XDATA    ---       val
L251 LINKER/LOCATER V4.66.93.0                                                        05/06/2026  19:47:11  PAGE 101


      00011BD1H   SYMBOL    XDATA    BYTE      cmd
      00011BD2H   SYMBOL    XDATA    ---       val
      00011BD6H   SYMBOL    XDATA    DWORD     num
      00011FEAH   SYMBOL    XDATA    BYTE      reg
      00011FEBH   SYMBOL    XDATA    BYTE      dat
      00011FECH   SYMBOL    XDATA    BYTE      reg
      00011FEDH   SYMBOL    XDATA    BYTE      dat
      00011BDAH   SYMBOL    XDATA    BYTE      reg
      00011BDBH   SYMBOL    XDATA    ---       dat
      00011BDFH   SYMBOL    XDATA    DWORD     len
      00011F56H   SYMBOL    XDATA    BYTE      dat
      00011F57H   SYMBOL    XDATA    BYTE      return_state
      00011F58H   SYMBOL    XDATA    WORD      timeout_count
      00011E27H   SYMBOL    XDATA    ---       dat
      00011E2DH   SYMBOL    XDATA    ---       dat
      00011E33H   SYMBOL    XDATA    INT       acc_value
      00011E35H   SYMBOL    XDATA    FLOAT     acc_data
      00011E39H   SYMBOL    XDATA    INT       gyro_value
      00011E3BH   SYMBOL    XDATA    FLOAT     gyro_data
      0001200EH   SYMBOL    XDATA    BYTE      return_state

      ---         MODULE    ---      ---       zf_device_imu963ra
      00011318H   PUBLIC    XDATA    INT       imu963ra_acc_x
      0001131AH   PUBLIC    XDATA    INT       imu963ra_acc_y
      0001131CH   PUBLIC    XDATA    INT       imu963ra_acc_z
      0001131EH   PUBLIC    XDATA    INT       imu963ra_mag_x
      00011320H   PUBLIC    XDATA    INT       imu963ra_mag_y
      00011322H   PUBLIC    XDATA    INT       imu963ra_mag_z
      00011324H   PUBLIC    XDATA    INT       imu963ra_gyro_x
      00011326H   PUBLIC    XDATA    INT       imu963ra_gyro_y
      00011328H   PUBLIC    XDATA    INT       imu963ra_gyro_z
      0001132AH   PUBLIC    XDATA    ---       imu963ra_transition_factor
      000000D0H   SFRSYM    DATA     BYTE      PSW
      0000009DH   SFRSYM    DATA     BYTE      IRCBAND
      00000097H   SFRSYM    DATA     BYTE      AUXR2
      000000EFH   SFRSYM    DATA     BYTE      AUXINTIF
      000000FDH   SFRSYM    DATA     BYTE      S4CON
      000000ACH   SFRSYM    DATA     BYTE      S3CON
      0000009AH   SFRSYM    DATA     BYTE      S2CON
      000000B7H   SFRSYM    DATA     BYTE      IPH
      000000CDH   SFRSYM    DATA     BYTE      SPSTAT
      000000DDH   SFRSYM    DATA     BYTE      T4T3M
      000000C1H   SFRSYM    DATA     BYTE      WDT_CONTR
      000000DFH   SFRSYM    DATA     BYTE      IP3
      000000F4H   SFRSYM    DATA     BYTE      USBCON
      000000B5H   SFRSYM    DATA     BYTE      IP2
      000000FFH   SFRSYM    DATA     BYTE      RSTCFG
      000000C7H   SFRSYM    DATA     BYTE      IAP_CONTR
      000000F9H   SFRSYM    DATA     BYTE      LINICR
      0000008EH   SFRSYM    DATA     BYTE      AUXR
      000000AFH   SFRSYM    DATA     BYTE      IE2
      000000C0H.2 SFRSYM    DATA     BIT       P42
      00000088H   SFRSYM    DATA     BYTE      TCON
      00000089H   SFRSYM    DATA     BYTE      TMOD
      00000098H   SFRSYM    DATA     BYTE      SCON
      000000F1H   SFRSYM    DATA     BYTE      CANICR
      00000087H   SFRSYM    DATA     BYTE      PCON
      000000BCH   SFRSYM    DATA     BYTE      ADC_CONTR
      000000E7H   SFRSYM    DATA     BYTE      CMPCR2
      000000E6H   SFRSYM    DATA     BYTE      CMPCR1
      000000DEH   SFRSYM    DATA     BYTE      ADCCFG
      000000B8H   SFRSYM    DATA     BYTE      IP
      0000008FH   SFRSYM    DATA     BYTE      INTCLKO
      000000EEH   SFRSYM    DATA     BYTE      IP3H
      000000B6H   SFRSYM    DATA     BYTE      IP2H
L251 LINKER/LOCATER V4.66.93.0                                                        05/06/2026  19:47:11  PAGE 102


      000000A8H   SFRSYM    DATA     BYTE      IE
      000000BBH   SFRSYM    DATA     BYTE      P_SW3
      000000BAH   SFRSYM    DATA     BYTE      P_SW2
      000000A2H   SFRSYM    DATA     BYTE      P_SW1
      000000CEH   SFRSYM    DATA     BYTE      SPCTL
      000000F8H   SFRSYM    DATA     BYTE      P7
      000000E8H   SFRSYM    DATA     BYTE      P6
      000000C8H   SFRSYM    DATA     BYTE      P5
      000000C0H   SFRSYM    DATA     BYTE      P4
      000000B0H   SFRSYM    DATA     BYTE      P3
      000000A0H   SFRSYM    DATA     BYTE      P2
      00000090H   SFRSYM    DATA     BYTE      P1
      00000080H   SFRSYM    DATA     BYTE      P0
      00011FEEH   SYMBOL    XDATA    BYTE      reg
      00011FEFH   SYMBOL    XDATA    BYTE      dat
      00011FF0H   SYMBOL    XDATA    BYTE      reg
      00011FF1H   SYMBOL    XDATA    BYTE      dat
      00011BE3H   SYMBOL    XDATA    BYTE      reg
      00011BE4H   SYMBOL    XDATA    ---       dat
      00011BE8H   SYMBOL    XDATA    DWORD     len
      00011E3FH   SYMBOL    XDATA    BYTE      addr
      00011E40H   SYMBOL    XDATA    BYTE      reg
      00011E41H   SYMBOL    XDATA    BYTE      dat
      00011E42H   SYMBOL    XDATA    BYTE      return_state
      00011E43H   SYMBOL    XDATA    WORD      timeout_count
      00011F5AH   SYMBOL    XDATA    BYTE      addr
      00011F5BH   SYMBOL    XDATA    BYTE      reg
      00011F5CH   SYMBOL    XDATA    WORD      timeout_count
      00011FF2H   SYMBOL    XDATA    BYTE      addr
      00011FF3H   SYMBOL    XDATA    BYTE      reg
      00011F5EH   SYMBOL    XDATA    BYTE      return_state
      00011F5FH   SYMBOL    XDATA    BYTE      dat
      00011F60H   SYMBOL    XDATA    WORD      timeout_count
      00011F62H   SYMBOL    XDATA    BYTE      return_state
      00011F63H   SYMBOL    XDATA    BYTE      dat
      00011F64H   SYMBOL    XDATA    WORD      timeout_count
      00011E45H   SYMBOL    XDATA    ---       dat
      00011E4BH   SYMBOL    XDATA    ---       dat
      00011DA1H   SYMBOL    XDATA    BYTE      temp_status
      00011DA2H   SYMBOL    XDATA    ---       dat
      0001200FH   SYMBOL    XDATA    BYTE      return_state

      ---         MODULE    ---      ---       zf_device_ips114
      00011D05H   PUBLIC    XDATA    WORD      ips114_pencolor
      00011D07H   PUBLIC    XDATA    WORD      ips114_bgcolor
      00011D09H   PUBLIC    XDATA    INT       ips114_display_dir
      00011D0BH   PUBLIC    XDATA    BYTE      ips114_x_max
      00011D0CH   PUBLIC    XDATA    BYTE      ips114_y_max
      00010FE4H   PUBLIC    XDATA    BYTE      ?ips114_show_float?BYTE
      0001123DH   PUBLIC    XDATA    BYTE      ?ips114_show_wave?BYTE
      0001140DH   PUBLIC    XDATA    BYTE      ?ips114_show_chinese?BYTE
      000000D0H   SFRSYM    DATA     BYTE      PSW
      0000009DH   SFRSYM    DATA     BYTE      IRCBAND
      00000097H   SFRSYM    DATA     BYTE      AUXR2
      000000EFH   SFRSYM    DATA     BYTE      AUXINTIF
      000000FDH   SFRSYM    DATA     BYTE      S4CON
      000000ACH   SFRSYM    DATA     BYTE      S3CON
      0000009AH   SFRSYM    DATA     BYTE      S2CON
      000000B7H   SFRSYM    DATA     BYTE      IPH
      000000CDH   SFRSYM    DATA     BYTE      SPSTAT
      000000DDH   SFRSYM    DATA     BYTE      T4T3M
      000000C1H   SFRSYM    DATA     BYTE      WDT_CONTR
      000000DFH   SFRSYM    DATA     BYTE      IP3
      000000F4H   SFRSYM    DATA     BYTE      USBCON
      000000B5H   SFRSYM    DATA     BYTE      IP2
L251 LINKER/LOCATER V4.66.93.0                                                        05/06/2026  19:47:11  PAGE 103


      000000FFH   SFRSYM    DATA     BYTE      RSTCFG
      000000C7H   SFRSYM    DATA     BYTE      IAP_CONTR
      000000F9H   SFRSYM    DATA     BYTE      LINICR
      0000008EH   SFRSYM    DATA     BYTE      AUXR
      000000AFH   SFRSYM    DATA     BYTE      IE2
      00000088H   SFRSYM    DATA     BYTE      TCON
      00000089H   SFRSYM    DATA     BYTE      TMOD
      00000098H   SFRSYM    DATA     BYTE      SCON
      000000A0H.2 SFRSYM    DATA     BIT       P22
      000000A0H.1 SFRSYM    DATA     BIT       P21
      000000A0H.0 SFRSYM    DATA     BIT       P20
      000000F1H   SFRSYM    DATA     BYTE      CANICR
      00000087H   SFRSYM    DATA     BYTE      PCON
      000000BCH   SFRSYM    DATA     BYTE      ADC_CONTR
      000000E7H   SFRSYM    DATA     BYTE      CMPCR2
      000000E6H   SFRSYM    DATA     BYTE      CMPCR1
      000000DEH   SFRSYM    DATA     BYTE      ADCCFG
      000000B8H   SFRSYM    DATA     BYTE      IP
      0000008FH   SFRSYM    DATA     BYTE      INTCLKO
      000000EEH   SFRSYM    DATA     BYTE      IP3H
      000000B6H   SFRSYM    DATA     BYTE      IP2H
      000000A8H   SFRSYM    DATA     BYTE      IE
      000000BBH   SFRSYM    DATA     BYTE      P_SW3
      000000BAH   SFRSYM    DATA     BYTE      P_SW2
      000000A2H   SFRSYM    DATA     BYTE      P_SW1
      000000CEH   SFRSYM    DATA     BYTE      SPCTL
      000000F8H   SFRSYM    DATA     BYTE      P7
      000000E8H   SFRSYM    DATA     BYTE      P6
      000000C8H   SFRSYM    DATA     BYTE      P5
      000000C0H   SFRSYM    DATA     BYTE      P4
      000000B0H   SFRSYM    DATA     BYTE      P3
      000000A0H   SFRSYM    DATA     BYTE      P2
      00000090H   SFRSYM    DATA     BYTE      P1
      00000080H   SFRSYM    DATA     BYTE      P0
      00012010H   SYMBOL    XDATA    BYTE      dat
      00011D0DH   SYMBOL    XDATA    WORD      x1
      00011D0FH   SYMBOL    XDATA    WORD      y1
      00011D11H   SYMBOL    XDATA    WORD      x2
      00011D13H   SYMBOL    XDATA    WORD      y2
      00011E51H   SYMBOL    XDATA    WORD      color
      00011E53H   SYMBOL    XDATA    WORD      i
      00011E55H   SYMBOL    XDATA    WORD      j
      00011FF4H   SYMBOL    XDATA    INT       dir
      00011F66H   SYMBOL    XDATA    WORD      pen
      00011F68H   SYMBOL    XDATA    WORD      bgcolor
      00011E57H   SYMBOL    XDATA    WORD      x
      00011E59H   SYMBOL    XDATA    WORD      y
      00011E5BH   SYMBOL    XDATA    WORD      color
      00011D15H   SYMBOL    XDATA    WORD      x
      00011D17H   SYMBOL    XDATA    WORD      y
      00011D19H   SYMBOL    XDATA    CHAR      dat
      00011D1AH   SYMBOL    XDATA    BYTE      i
      00011D1BH   SYMBOL    XDATA    BYTE      j
      00011D1CH   SYMBOL    XDATA    BYTE      temp
      00011B57H   SYMBOL    XDATA    WORD      x
      00011B59H   SYMBOL    XDATA    WORD      y
      00011B5BH   SYMBOL    XDATA    ---       dat
      00011B5FH   SYMBOL    XDATA    WORD      j
      00011BECH   SYMBOL    XDATA    WORD      x
      00011BEEH   SYMBOL    XDATA    WORD      y
      00011BF0H   SYMBOL    XDATA    CHAR      dat
      00011BF1H   SYMBOL    XDATA    ---       a
      00011BF4H   SYMBOL    XDATA    BYTE      i
      00011BF5H   SYMBOL    XDATA    WORD      x
      00011BF7H   SYMBOL    XDATA    WORD      y
L251 LINKER/LOCATER V4.66.93.0                                                        05/06/2026  19:47:11  PAGE 104


      00011BF9H   SYMBOL    XDATA    BYTE      dat
      00011BFAH   SYMBOL    XDATA    ---       a
      00011BFDH   SYMBOL    XDATA    BYTE      i
      00011A07H   SYMBOL    XDATA    WORD      x
      00011A09H   SYMBOL    XDATA    WORD      y
      00011A0BH   SYMBOL    XDATA    INT       dat
      00011A0DH   SYMBOL    XDATA    ---       a
      00011A12H   SYMBOL    XDATA    BYTE      i
      00011A13H   SYMBOL    XDATA    WORD      x
      00011A15H   SYMBOL    XDATA    WORD      y
      00011A17H   SYMBOL    XDATA    WORD      dat
      00011A19H   SYMBOL    XDATA    ---       a
      00011A1EH   SYMBOL    XDATA    BYTE      i
      000110A3H   SYMBOL    XDATA    WORD      x
      000110A5H   SYMBOL    XDATA    WORD      y
      000110A7H   SYMBOL    XDATA    LONG      dat
      000110ABH   SYMBOL    XDATA    BYTE      num
      000110ACH   SYMBOL    XDATA    ---       buff
      000110CEH   SYMBOL    XDATA    BYTE      length
      00010FE4H   SYMBOL    XDATA    WORD      x
      00010FE6H   SYMBOL    XDATA    WORD      y
      00010FE8H   SYMBOL    XDATA    FLOAT     dat
      00010FECH   SYMBOL    XDATA    BYTE      num
      00010FEDH   SYMBOL    XDATA    BYTE      pointnum
      00010FEEH   SYMBOL    XDATA    BYTE      length
      00010FEFH   SYMBOL    XDATA    ---       buff
      00011011H   SYMBOL    XDATA    CHAR      start
      00011012H   SYMBOL    XDATA    CHAR      end
      00011013H   SYMBOL    XDATA    CHAR      point
      0001123DH   SYMBOL    XDATA    WORD      x
      0001123FH   SYMBOL    XDATA    WORD      y
      00011241H   SYMBOL    XDATA    ---       p
      00011245H   SYMBOL    XDATA    WORD      width
      00011247H   SYMBOL    XDATA    WORD      value_max
      00011249H   SYMBOL    XDATA    WORD      dis_width
      0001124BH   SYMBOL    XDATA    WORD      dis_value_max
      0001124DH   SYMBOL    XDATA    DWORD     i
      00011251H   SYMBOL    XDATA    DWORD     j
      00011255H   SYMBOL    XDATA    DWORD     width_index
      00011259H   SYMBOL    XDATA    DWORD     value_max_index
      0001140DH   SYMBOL    XDATA    WORD      x
      0001140FH   SYMBOL    XDATA    WORD      y
      00011411H   SYMBOL    XDATA    BYTE      siz
      00011412H   SYMBOL    XDATA    ---       p
      00011416H   SYMBOL    XDATA    BYTE      number
      00011417H   SYMBOL    XDATA    WORD      color
      00011419H   SYMBOL    XDATA    INT       i
      0001141BH   SYMBOL    XDATA    INT       j
      0001141DH   SYMBOL    XDATA    INT       k
      0001141FH   SYMBOL    XDATA    BYTE      temp
      00011420H   SYMBOL    XDATA    BYTE      temp1
      00011421H   SYMBOL    XDATA    BYTE      temp2
      00011422H   SYMBOL    XDATA    ---       p_data

      ---         MODULE    ---      ---       zf_device_ips200
      00011B61H   PUBLIC    XDATA    WORD      ips200_pencolor
      00011B63H   PUBLIC    XDATA    WORD      ips200_bgcolor
      00011B65H   PUBLIC    XDATA    INT       ips200_display_dir
      00011B67H   PUBLIC    XDATA    WORD      ips200_x_max
      00011B69H   PUBLIC    XDATA    WORD      ips200_y_max
      00011014H   PUBLIC    XDATA    BYTE      ?ips200_show_float?BYTE
      0001125DH   PUBLIC    XDATA    BYTE      ?ips200_show_wave?BYTE
      00011426H   PUBLIC    XDATA    BYTE      ?ips200_show_chinese?BYTE
      000000D0H   SFRSYM    DATA     BYTE      PSW
      0000009DH   SFRSYM    DATA     BYTE      IRCBAND
L251 LINKER/LOCATER V4.66.93.0                                                        05/06/2026  19:47:11  PAGE 105


      00000097H   SFRSYM    DATA     BYTE      AUXR2
      000000EFH   SFRSYM    DATA     BYTE      AUXINTIF
      000000FDH   SFRSYM    DATA     BYTE      S4CON
      000000ACH   SFRSYM    DATA     BYTE      S3CON
      0000009AH   SFRSYM    DATA     BYTE      S2CON
      000000B7H   SFRSYM    DATA     BYTE      IPH
      000000CDH   SFRSYM    DATA     BYTE      SPSTAT
      000000DDH   SFRSYM    DATA     BYTE      T4T3M
      000000C1H   SFRSYM    DATA     BYTE      WDT_CONTR
      000000DFH   SFRSYM    DATA     BYTE      IP3
      000000F4H   SFRSYM    DATA     BYTE      USBCON
      000000B5H   SFRSYM    DATA     BYTE      IP2
      000000FFH   SFRSYM    DATA     BYTE      RSTCFG
      000000C7H   SFRSYM    DATA     BYTE      IAP_CONTR
      000000F9H   SFRSYM    DATA     BYTE      LINICR
      0000008EH   SFRSYM    DATA     BYTE      AUXR
      000000AFH   SFRSYM    DATA     BYTE      IE2
      00000088H   SFRSYM    DATA     BYTE      TCON
      00000089H   SFRSYM    DATA     BYTE      TMOD
      00000098H   SFRSYM    DATA     BYTE      SCON
      000000A0H.2 SFRSYM    DATA     BIT       P22
      000000A0H.1 SFRSYM    DATA     BIT       P21
      000000A0H.0 SFRSYM    DATA     BIT       P20
      000000F1H   SFRSYM    DATA     BYTE      CANICR
      00000087H   SFRSYM    DATA     BYTE      PCON
      000000BCH   SFRSYM    DATA     BYTE      ADC_CONTR
      000000E7H   SFRSYM    DATA     BYTE      CMPCR2
      000000E6H   SFRSYM    DATA     BYTE      CMPCR1
      000000DEH   SFRSYM    DATA     BYTE      ADCCFG
      000000B8H   SFRSYM    DATA     BYTE      IP
      0000008FH   SFRSYM    DATA     BYTE      INTCLKO
      000000EEH   SFRSYM    DATA     BYTE      IP3H
      000000B6H   SFRSYM    DATA     BYTE      IP2H
      000000A8H   SFRSYM    DATA     BYTE      IE
      000000BBH   SFRSYM    DATA     BYTE      P_SW3
      000000BAH   SFRSYM    DATA     BYTE      P_SW2
      000000A2H   SFRSYM    DATA     BYTE      P_SW1
      000000CEH   SFRSYM    DATA     BYTE      SPCTL
      000000F8H   SFRSYM    DATA     BYTE      P7
      000000E8H   SFRSYM    DATA     BYTE      P6
      000000C8H   SFRSYM    DATA     BYTE      P5
      000000C0H   SFRSYM    DATA     BYTE      P4
      000000B0H   SFRSYM    DATA     BYTE      P3
      000000A0H   SFRSYM    DATA     BYTE      P2
      00000090H   SFRSYM    DATA     BYTE      P1
      00000080H   SFRSYM    DATA     BYTE      P0
      00012011H   SYMBOL    XDATA    BYTE      dat
      00011D1DH   SYMBOL    XDATA    WORD      x1
      00011D1FH   SYMBOL    XDATA    WORD      y1
      00011D21H   SYMBOL    XDATA    WORD      x2
      00011D23H   SYMBOL    XDATA    WORD      y2
      00011E5DH   SYMBOL    XDATA    WORD      color
      00011E5FH   SYMBOL    XDATA    WORD      i
      00011E61H   SYMBOL    XDATA    WORD      j
      00011FF6H   SYMBOL    XDATA    INT       dir
      00011F6AH   SYMBOL    XDATA    WORD      pen
      00011F6CH   SYMBOL    XDATA    WORD      bgcolor
      00011E63H   SYMBOL    XDATA    WORD      x
      00011E65H   SYMBOL    XDATA    WORD      y
      00011E67H   SYMBOL    XDATA    WORD      color
      00011D25H   SYMBOL    XDATA    WORD      x
      00011D27H   SYMBOL    XDATA    WORD      y
      00011D29H   SYMBOL    XDATA    CHAR      dat
      00011D2AH   SYMBOL    XDATA    BYTE      i
      00011D2BH   SYMBOL    XDATA    BYTE      j
L251 LINKER/LOCATER V4.66.93.0                                                        05/06/2026  19:47:11  PAGE 106


      00011D2CH   SYMBOL    XDATA    BYTE      temp
      00011B6BH   SYMBOL    XDATA    WORD      x
      00011B6DH   SYMBOL    XDATA    WORD      y
      00011B6FH   SYMBOL    XDATA    ---       dat
      00011B73H   SYMBOL    XDATA    WORD      j
      00011BFEH   SYMBOL    XDATA    WORD      x
      00011C00H   SYMBOL    XDATA    WORD      y
      00011C02H   SYMBOL    XDATA    CHAR      dat
      00011C03H   SYMBOL    XDATA    ---       a
      00011C06H   SYMBOL    XDATA    BYTE      i
      00011C07H   SYMBOL    XDATA    WORD      x
      00011C09H   SYMBOL    XDATA    WORD      y
      00011C0BH   SYMBOL    XDATA    BYTE      dat
      00011C0CH   SYMBOL    XDATA    ---       a
      00011C0FH   SYMBOL    XDATA    BYTE      i
      00011A1FH   SYMBOL    XDATA    WORD      x
      00011A21H   SYMBOL    XDATA    WORD      y
      00011A23H   SYMBOL    XDATA    INT       dat
      00011A25H   SYMBOL    XDATA    ---       a
      00011A2AH   SYMBOL    XDATA    BYTE      i
      00011A2BH   SYMBOL    XDATA    WORD      x
      00011A2DH   SYMBOL    XDATA    WORD      y
      00011A2FH   SYMBOL    XDATA    WORD      dat
      00011A31H   SYMBOL    XDATA    ---       a
      00011A36H   SYMBOL    XDATA    BYTE      i
      000110CFH   SYMBOL    XDATA    WORD      x
      000110D1H   SYMBOL    XDATA    WORD      y
      000110D3H   SYMBOL    XDATA    LONG      dat
      000110D7H   SYMBOL    XDATA    BYTE      num
      000110D8H   SYMBOL    XDATA    ---       buff
      000110FAH   SYMBOL    XDATA    BYTE      length
      00011014H   SYMBOL    XDATA    WORD      x
      00011016H   SYMBOL    XDATA    WORD      y
      00011018H   SYMBOL    XDATA    FLOAT     dat
      0001101CH   SYMBOL    XDATA    BYTE      num
      0001101DH   SYMBOL    XDATA    BYTE      pointnum
      0001101EH   SYMBOL    XDATA    BYTE      length
      0001101FH   SYMBOL    XDATA    ---       buff
      00011041H   SYMBOL    XDATA    CHAR      start
      00011042H   SYMBOL    XDATA    CHAR      end
      00011043H   SYMBOL    XDATA    CHAR      point
      0001125DH   SYMBOL    XDATA    WORD      x
      0001125FH   SYMBOL    XDATA    WORD      y
      00011261H   SYMBOL    XDATA    ---       p
      00011265H   SYMBOL    XDATA    WORD      width
      00011267H   SYMBOL    XDATA    WORD      value_max
      00011269H   SYMBOL    XDATA    WORD      dis_width
      0001126BH   SYMBOL    XDATA    WORD      dis_value_max
      0001126DH   SYMBOL    XDATA    DWORD     i
      00011271H   SYMBOL    XDATA    DWORD     j
      00011275H   SYMBOL    XDATA    DWORD     width_index
      00011279H   SYMBOL    XDATA    DWORD     value_max_index
      00011426H   SYMBOL    XDATA    WORD      x
      00011428H   SYMBOL    XDATA    WORD      y
      0001142AH   SYMBOL    XDATA    BYTE      siz
      0001142BH   SYMBOL    XDATA    ---       p
      0001142FH   SYMBOL    XDATA    BYTE      number
      00011430H   SYMBOL    XDATA    WORD      color
      00011432H   SYMBOL    XDATA    INT       i
      00011434H   SYMBOL    XDATA    INT       j
      00011436H   SYMBOL    XDATA    INT       k
      00011438H   SYMBOL    XDATA    BYTE      temp
      00011439H   SYMBOL    XDATA    BYTE      temp1
      0001143AH   SYMBOL    XDATA    BYTE      temp2
      0001143BH   SYMBOL    XDATA    ---       p_data
L251 LINKER/LOCATER V4.66.93.0                                                        05/06/2026  19:47:11  PAGE 107



      ---         MODULE    ---      ---       zf_device_ips200pro
      00010E94H   PUBLIC    XDATA    ---       ips200pro_information
      00010E9DH   PUBLIC    XDATA    ---       ips200pro_time
      00011828H   PUBLIC    XDATA    BYTE      ?ips200pro_send_buffer?BYTE
      000118E3H   PUBLIC    XDATA    BYTE      ?ips200pro_receive_buffer?BYTE
      000112BCH   PUBLIC    XDATA    BYTE      ?ips200pro_write_packet?BYTE
      0001138BH   PUBLIC    XDATA    BYTE      ?ips200pro_create_widgets?BYTE
      00010F65H   PUBLIC    XDATA    BYTE      ?ips200pro_label_printf?BYTE
      00010F20H   PUBLIC    XDATA    BYTE      ?ips200pro_table_cell_printf?BYTE
      000113A6H   PUBLIC    XDATA    BYTE      ?ips200pro_waveform_add_value?BYTE
      000111A6H   PUBLIC    XDATA    BYTE      ?ips200pro_image_display?BYTE
      000113C0H   PUBLIC    XDATA    BYTE      ?ips200pro_image_draw_line?BYTE
      0001121BH   PUBLIC    XDATA    BYTE      ?ips200pro_image_draw_rectangle?BYTE
      000000D0H   SFRSYM    DATA     BYTE      PSW
      0000009DH   SFRSYM    DATA     BYTE      IRCBAND
      00000097H   SFRSYM    DATA     BYTE      AUXR2
      000000EFH   SFRSYM    DATA     BYTE      AUXINTIF
      000000FDH   SFRSYM    DATA     BYTE      S4CON
      000000ACH   SFRSYM    DATA     BYTE      S3CON
      0000009AH   SFRSYM    DATA     BYTE      S2CON
      000000B7H   SFRSYM    DATA     BYTE      IPH
      000000CDH   SFRSYM    DATA     BYTE      SPSTAT
      000000DDH   SFRSYM    DATA     BYTE      T4T3M
      000000C1H   SFRSYM    DATA     BYTE      WDT_CONTR
      000000DFH   SFRSYM    DATA     BYTE      IP3
      000000F4H   SFRSYM    DATA     BYTE      USBCON
      000000B5H   SFRSYM    DATA     BYTE      IP2
      000000FFH   SFRSYM    DATA     BYTE      RSTCFG
      000000C7H   SFRSYM    DATA     BYTE      IAP_CONTR
      000000F9H   SFRSYM    DATA     BYTE      LINICR
      0000008EH   SFRSYM    DATA     BYTE      AUXR
      000000AFH   SFRSYM    DATA     BYTE      IE2
      00000088H   SFRSYM    DATA     BYTE      TCON
      00000089H   SFRSYM    DATA     BYTE      TMOD
      00000098H   SFRSYM    DATA     BYTE      SCON
      000000A0H.2 SFRSYM    DATA     BIT       P22
      000000A0H.1 SFRSYM    DATA     BIT       P21
      000000F1H   SFRSYM    DATA     BYTE      CANICR
      00000087H   SFRSYM    DATA     BYTE      PCON
      000000BCH   SFRSYM    DATA     BYTE      ADC_CONTR
      000000E7H   SFRSYM    DATA     BYTE      CMPCR2
      000000E6H   SFRSYM    DATA     BYTE      CMPCR1
      000000DEH   SFRSYM    DATA     BYTE      ADCCFG
      000000B8H   SFRSYM    DATA     BYTE      IP
      0000008FH   SFRSYM    DATA     BYTE      INTCLKO
      000000EEH   SFRSYM    DATA     BYTE      IP3H
      000000B6H   SFRSYM    DATA     BYTE      IP2H
      000000A8H   SFRSYM    DATA     BYTE      IE
      000000BBH   SFRSYM    DATA     BYTE      P_SW3
      000000BAH   SFRSYM    DATA     BYTE      P_SW2
      000000A2H   SFRSYM    DATA     BYTE      P_SW1
      000000CEH   SFRSYM    DATA     BYTE      SPCTL
      000000F8H   SFRSYM    DATA     BYTE      P7
      000000E8H   SFRSYM    DATA     BYTE      P6
      000000C8H   SFRSYM    DATA     BYTE      P5
      000000C0H   SFRSYM    DATA     BYTE      P4
      000000B0H   SFRSYM    DATA     BYTE      P3
      000000A0H   SFRSYM    DATA     BYTE      P2
      00000090H   SFRSYM    DATA     BYTE      P1
      00000080H   SFRSYM    DATA     BYTE      P0
      00010E61H   SYMBOL    XDATA    ---       ips200pro_printf_buffer
      00010EA5H   SYMBOL    XDATA    BYTE      ips200pro_page_num
      00011F6EH   SYMBOL    XDATA    DWORD     wait_time
      00011828H   SYMBOL    XDATA    ---       buffer
L251 LINKER/LOCATER V4.66.93.0                                                        05/06/2026  19:47:11  PAGE 108


      0001182CH   SYMBOL    XDATA    DWORD     length
      00011830H   SYMBOL    XDATA    DWORD     time_out
      00011834H   SYMBOL    XDATA    BYTE      end_flag
      00011835H   SYMBOL    XDATA    BYTE      return_state
      000118E3H   SYMBOL    XDATA    ---       buffer
      000118E7H   SYMBOL    XDATA    DWORD     length
      000118EBH   SYMBOL    XDATA    DWORD     time_out
      000118EFH   SYMBOL    XDATA    BYTE      return_state
      000112BCH   SYMBOL    XDATA    INT       command1
      000112BEH   SYMBOL    XDATA    INT       command2
      000112C0H   SYMBOL    XDATA    BYTE      widgets_id
      000112C1H   SYMBOL    XDATA    ---       temp
      000112C5H   SYMBOL    XDATA    DWORD     length
      000112C9H   SYMBOL    XDATA    ---       buffer
      000112CDH   SYMBOL    XDATA    DWORD     buffer_length
      000112D1H   SYMBOL    XDATA    BYTE      return_state
      000112D2H   SYMBOL    XDATA    ---       p
      000112D6H   SYMBOL    XDATA    BYTE      tmp
      000112D7H   SYMBOL    XDATA    WORD      i
      000112D9H   SYMBOL    XDATA    WORD      struct_len
      00011D2DH   SYMBOL    XDATA    INT       command2
      00011D2FH   SYMBOL    XDATA    ---       temp
      00011D33H   SYMBOL    XDATA    BYTE      length
      00011D34H   SYMBOL    XDATA    BYTE      return_state
      0001166CH   SYMBOL    XDATA    WORD      year
      0001166EH   SYMBOL    XDATA    BYTE      month
      0001166FH   SYMBOL    XDATA    BYTE      day
      00011670H   SYMBOL    XDATA    BYTE      return_state
      00011671H   SYMBOL    XDATA    ---       temp
      00011703H   SYMBOL    XDATA    BYTE      hour
      00011704H   SYMBOL    XDATA    BYTE      minute
      00011705H   SYMBOL    XDATA    BYTE      second
      00011706H   SYMBOL    XDATA    BYTE      return_state
      00011707H   SYMBOL    XDATA    ---       temp
      0001167DH   SYMBOL    XDATA    WORD      child_id
      0001167FH   SYMBOL    XDATA    WORD      parent_id
      00011681H   SYMBOL    XDATA    BYTE      return_state
      00011682H   SYMBOL    XDATA    ---       temp
      000118F0H   SYMBOL    XDATA    INT       format
      000118F2H   SYMBOL    XDATA    BYTE      return_state
      000118F3H   SYMBOL    XDATA    ---       temp
      00011A37H   SYMBOL    XDATA    BYTE      backlight
      00011A38H   SYMBOL    XDATA    BYTE      return_state
      00011A39H   SYMBOL    XDATA    ---       temp
      000118FDH   SYMBOL    XDATA    INT       dir
      000118FFH   SYMBOL    XDATA    BYTE      return_state
      00011900H   SYMBOL    XDATA    ---       temp
      00011A43H   SYMBOL    XDATA    BYTE      crc_state
      00011A44H   SYMBOL    XDATA    BYTE      return_state
      00011A45H   SYMBOL    XDATA    ---       temp
      0001190AH   SYMBOL    XDATA    INT       font
      0001190CH   SYMBOL    XDATA    BYTE      return_state
      0001190DH   SYMBOL    XDATA    ---       temp
      00011A4FH   SYMBOL    XDATA    BYTE      state
      00011A50H   SYMBOL    XDATA    BYTE      return_state
      00011A51H   SYMBOL    XDATA    ---       temp
      0001168EH   SYMBOL    XDATA    ---       time
      00011692H   SYMBOL    XDATA    BYTE      return_state
      00011693H   SYMBOL    XDATA    ---       temp
      0001169FH   SYMBOL    XDATA    ---       time
      000116A3H   SYMBOL    XDATA    BYTE      return_state
      000116A4H   SYMBOL    XDATA    ---       temp
      000114B5H   SYMBOL    XDATA    ---       information
      000114B9H   SYMBOL    XDATA    BYTE      return_state
      000114BAH   SYMBOL    XDATA    ---       temp
L251 LINKER/LOCATER V4.66.93.0                                                        05/06/2026  19:47:11  PAGE 109


      000116B0H   SYMBOL    XDATA    ---       stack_size
      000116B4H   SYMBOL    XDATA    BYTE      return_state
      000116B5H   SYMBOL    XDATA    ---       temp
      0001138BH   SYMBOL    XDATA    WORD      widgets_id
      0001138DH   SYMBOL    XDATA    INT       x
      0001138FH   SYMBOL    XDATA    INT       y
      00011391H   SYMBOL    XDATA    WORD      width
      00011393H   SYMBOL    XDATA    WORD      height
      00011395H   SYMBOL    XDATA    BYTE      return_state
      00011396H   SYMBOL    XDATA    ---       temp
      00011AF1H   SYMBOL    XDATA    WORD      widgets_id
      00011AF3H   SYMBOL    XDATA    BYTE      return_state
      00011AF4H   SYMBOL    XDATA    ---       temp
      00011733H   SYMBOL    XDATA    WORD      widgets_id
      00011735H   SYMBOL    XDATA    INT       font_size
      00011737H   SYMBOL    XDATA    BYTE      return_state
      00011738H   SYMBOL    XDATA    ---       temp
      000115A5H   SYMBOL    XDATA    WORD      widgets_id
      000115A7H   SYMBOL    XDATA    INT       color_type
      000115A9H   SYMBOL    XDATA    WORD      color
      000115ABH   SYMBOL    XDATA    BYTE      return_state
      000115ACH   SYMBOL    XDATA    ---       temp
      000115B8H   SYMBOL    XDATA    WORD      widgets_id
      000115BAH   SYMBOL    XDATA    INT       x
      000115BCH   SYMBOL    XDATA    INT       y
      000115BEH   SYMBOL    XDATA    BYTE      return_state
      000115BFH   SYMBOL    XDATA    ---       temp
      00011836H   SYMBOL    XDATA    WORD      widgets_id
      00011838H   SYMBOL    XDATA    BYTE      state
      00011839H   SYMBOL    XDATA    BYTE      return_state
      0001183AH   SYMBOL    XDATA    ---       temp
      00011EECH   SYMBOL    XDATA    ---       str
      00011EF0H   SYMBOL    XDATA    BYTE      return_state
      00011742H   SYMBOL    XDATA    WORD      page_id
      00011744H   SYMBOL    XDATA    INT       anim_en
      00011746H   SYMBOL    XDATA    BYTE      return_state
      00011747H   SYMBOL    XDATA    ---       temp
      00011F72H   SYMBOL    XDATA    WORD      page_id
      00011F74H   SYMBOL    XDATA    BYTE      state
      00011F75H   SYMBOL    XDATA    BYTE      return_state
      00011751H   SYMBOL    XDATA    WORD      page_id
      00011753H   SYMBOL    XDATA    ---       str
      00011757H   SYMBOL    XDATA    BYTE      return_state
      00011758H   SYMBOL    XDATA    ---       temp
      00011713H   SYMBOL    XDATA    INT       title_position
      00011715H   SYMBOL    XDATA    BYTE      title_width
      00011716H   SYMBOL    XDATA    BYTE      return_state
      00011717H   SYMBOL    XDATA    ---       temp
      00011C10H   SYMBOL    XDATA    INT       x
      00011C12H   SYMBOL    XDATA    INT       y
      00011C14H   SYMBOL    XDATA    WORD      width
      00011C16H   SYMBOL    XDATA    WORD      height
      00011C18H   SYMBOL    XDATA    BYTE      return_state
      00010EA6H   SYMBOL    XDATA    BYTE      lebel_num
      00010F65H   SYMBOL    XDATA    WORD      label_id
      00010F67H   SYMBOL    XDATA    ---       format
      00010F6BH   SYMBOL    XDATA    LONG      str_length
      00010F6FH   SYMBOL    XDATA    BYTE      return_state
      00010F70H   SYMBOL    XDATA    ---       temp
      00010F78H   SYMBOL    XDATA    ---       arg
      00011760H   SYMBOL    XDATA    WORD      label_id
      00011762H   SYMBOL    XDATA    ---       str
      00011766H   SYMBOL    XDATA    BYTE      return_state
      00011767H   SYMBOL    XDATA    ---       temp
      0001176FH   SYMBOL    XDATA    WORD      label_id
L251 LINKER/LOCATER V4.66.93.0                                                        05/06/2026  19:47:11  PAGE 110


      00011771H   SYMBOL    XDATA    INT       mode
      00011773H   SYMBOL    XDATA    BYTE      return_state
      00011774H   SYMBOL    XDATA    ---       temp
      00011C19H   SYMBOL    XDATA    INT       x
      00011C1BH   SYMBOL    XDATA    INT       y
      00011C1DH   SYMBOL    XDATA    WORD      row_num
      00011C1FH   SYMBOL    XDATA    WORD      col_num
      00011C21H   SYMBOL    XDATA    BYTE      return_state
      00010EA7H   SYMBOL    XDATA    BYTE      table_num
      00010F20H   SYMBOL    XDATA    WORD      table_id
      00010F22H   SYMBOL    XDATA    BYTE      row
      00010F23H   SYMBOL    XDATA    BYTE      col
      00010F24H   SYMBOL    XDATA    ---       format
      00010F28H   SYMBOL    XDATA    LONG      str_length
      00010F2CH   SYMBOL    XDATA    BYTE      return_state
      00010F2DH   SYMBOL    XDATA    ---       arg
      00010F31H   SYMBOL    XDATA    ---       temp
      00011615H   SYMBOL    XDATA    WORD      table_id
      00011617H   SYMBOL    XDATA    BYTE      col
      00011618H   SYMBOL    XDATA    WORD      width
      0001161AH   SYMBOL    XDATA    BYTE      return_state
      0001161BH   SYMBOL    XDATA    ---       temp
      000116C1H   SYMBOL    XDATA    WORD      table_id
      000116C3H   SYMBOL    XDATA    BYTE      row
      000116C4H   SYMBOL    XDATA    BYTE      col
      000116C5H   SYMBOL    XDATA    BYTE      return_state
      000116C6H   SYMBOL    XDATA    ---       temp
      00011C22H   SYMBOL    XDATA    INT       x
      00011C24H   SYMBOL    XDATA    INT       y
      00011C26H   SYMBOL    XDATA    WORD      siz
      00011C28H   SYMBOL    XDATA    INT       style
      00011C2AH   SYMBOL    XDATA    BYTE      return_state
      00010EA8H   SYMBOL    XDATA    BYTE      meter_num
      0001177EH   SYMBOL    XDATA    WORD      meter_id
      00011780H   SYMBOL    XDATA    INT       value
      00011782H   SYMBOL    XDATA    BYTE      return_state
      00011783H   SYMBOL    XDATA    ---       temp
      00011C2BH   SYMBOL    XDATA    INT       x
      00011C2DH   SYMBOL    XDATA    INT       y
      00011C2FH   SYMBOL    XDATA    WORD      clock_size
      00011C31H   SYMBOL    XDATA    INT       clock_type
      00011C33H   SYMBOL    XDATA    BYTE      return_state
      00010EA9H   SYMBOL    XDATA    BYTE      clock_num
      00011C34H   SYMBOL    XDATA    INT       x
      00011C36H   SYMBOL    XDATA    INT       y
      00011C38H   SYMBOL    XDATA    WORD      width
      00011C3AH   SYMBOL    XDATA    WORD      height
      00011C3CH   SYMBOL    XDATA    BYTE      return_state
      00010EAAH   SYMBOL    XDATA    BYTE      progress_bar_num
      000116D2H   SYMBOL    XDATA    WORD      progress_bar_id
      000116D4H   SYMBOL    XDATA    BYTE      start_value
      000116D5H   SYMBOL    XDATA    BYTE      end_value
      000116D6H   SYMBOL    XDATA    BYTE      return_state
      000116D7H   SYMBOL    XDATA    ---       temp
      00011C3DH   SYMBOL    XDATA    INT       x
      00011C3FH   SYMBOL    XDATA    INT       y
      00011C41H   SYMBOL    XDATA    WORD      width
      00011C43H   SYMBOL    XDATA    WORD      height
      00011C45H   SYMBOL    XDATA    BYTE      return_state
      00011627H   SYMBOL    XDATA    WORD      year
      00011629H   SYMBOL    XDATA    BYTE      month
      0001162AH   SYMBOL    XDATA    INT       mode
      0001162CH   SYMBOL    XDATA    BYTE      return_state
      0001162DH   SYMBOL    XDATA    ---       temp
      00011C46H   SYMBOL    XDATA    INT       x
L251 LINKER/LOCATER V4.66.93.0                                                        05/06/2026  19:47:11  PAGE 111


      00011C48H   SYMBOL    XDATA    INT       y
      00011C4AH   SYMBOL    XDATA    WORD      width
      00011C4CH   SYMBOL    XDATA    WORD      height
      00011C4EH   SYMBOL    XDATA    BYTE      return_state
      00010EABH   SYMBOL    XDATA    BYTE      waveform_num
      000113A6H   SYMBOL    XDATA    WORD      waveform_id
      000113A8H   SYMBOL    XDATA    BYTE      line_id
      000113A9H   SYMBOL    XDATA    ---       dat
      000113ADH   SYMBOL    XDATA    WORD      length
      000113AFH   SYMBOL    XDATA    WORD      color
      000113B1H   SYMBOL    XDATA    BYTE      return_state
      000113B2H   SYMBOL    XDATA    WORD      i
      000113B4H   SYMBOL    XDATA    ---       temp
      000115CBH   SYMBOL    XDATA    WORD      waveform_id
      000115CDH   SYMBOL    XDATA    WORD      line_id
      000115CFH   SYMBOL    XDATA    WORD      line_state
      000115D1H   SYMBOL    XDATA    BYTE      return_state
      000115D2H   SYMBOL    XDATA    ---       temp
      00011844H   SYMBOL    XDATA    WORD      waveform_id
      00011846H   SYMBOL    XDATA    BYTE      line_type
      00011847H   SYMBOL    XDATA    BYTE      return_state
      00011848H   SYMBOL    XDATA    ---       temp
      00011AFCH   SYMBOL    XDATA    WORD      waveform_id
      00011AFEH   SYMBOL    XDATA    BYTE      return_state
      00011AFFH   SYMBOL    XDATA    ---       temp
      00011C4FH   SYMBOL    XDATA    INT       x
      00011C51H   SYMBOL    XDATA    INT       y
      00011C53H   SYMBOL    XDATA    WORD      width
      00011C55H   SYMBOL    XDATA    WORD      height
      00011C57H   SYMBOL    XDATA    BYTE      return_state
      00010EACH   SYMBOL    XDATA    BYTE      image_num
      000111A6H   SYMBOL    XDATA    WORD      image_id
      000111A8H   SYMBOL    XDATA    ---       image
      000111ACH   SYMBOL    XDATA    WORD      width
      000111AEH   SYMBOL    XDATA    WORD      height
      000111B0H   SYMBOL    XDATA    INT       image_type
      000111B2H   SYMBOL    XDATA    BYTE      threshold
      000111B3H   SYMBOL    XDATA    BYTE      return_state
      000111B4H   SYMBOL    XDATA    WORD      send_length
      000111B6H   SYMBOL    XDATA    DWORD     image_size
      000111BAH   SYMBOL    XDATA    ---       image_data
      000111BEH   SYMBOL    XDATA    ---       temp
      000113C0H   SYMBOL    XDATA    WORD      image_id
      000113C2H   SYMBOL    XDATA    BYTE      line_id
      000113C3H   SYMBOL    XDATA    ---       line_data
      000113C7H   SYMBOL    XDATA    WORD      line_length
      000113C9H   SYMBOL    XDATA    INT       data_type
      000113CBH   SYMBOL    XDATA    WORD      color
      000113CDH   SYMBOL    XDATA    BYTE      return_state
      000113CEH   SYMBOL    XDATA    ---       temp
      0001121BH   SYMBOL    XDATA    WORD      image_id
      0001121DH   SYMBOL    XDATA    BYTE      rectangle_id
      0001121EH   SYMBOL    XDATA    INT       x
      00011220H   SYMBOL    XDATA    INT       y
      00011222H   SYMBOL    XDATA    WORD      rectangle_width
      00011224H   SYMBOL    XDATA    WORD      rectangle_height
      00011226H   SYMBOL    XDATA    WORD      color
      00011228H   SYMBOL    XDATA    BYTE      return_state
      00011229H   SYMBOL    XDATA    ---       temp
      00011C58H   SYMBOL    XDATA    INT       x
      00011C5AH   SYMBOL    XDATA    INT       y
      00011C5CH   SYMBOL    XDATA    WORD      width
      00011C5EH   SYMBOL    XDATA    WORD      height
      00011C60H   SYMBOL    XDATA    BYTE      return_state
      00010EADH   SYMBOL    XDATA    BYTE      container_num
L251 LINKER/LOCATER V4.66.93.0                                                        05/06/2026  19:47:11  PAGE 112


      000115DEH   SYMBOL    XDATA    WORD      container_id
      000115E0H   SYMBOL    XDATA    WORD      border_width
      000115E2H   SYMBOL    XDATA    WORD      radius
      000115E4H   SYMBOL    XDATA    BYTE      return_state
      000115E5H   SYMBOL    XDATA    ---       temp
      00011C61H   SYMBOL    XDATA    ---       str
      00011C65H   SYMBOL    XDATA    INT       title_position
      00011C67H   SYMBOL    XDATA    BYTE      title_size
      00011C68H   SYMBOL    XDATA    WORD      page_id

      ---         MODULE    ---      ---       zf_device_tft180
      00011D35H   PUBLIC    XDATA    WORD      tft180_pencolor
      00011D37H   PUBLIC    XDATA    WORD      tft180_bgcolor
      00011D39H   PUBLIC    XDATA    INT       tft180_display_dir
      00011D3BH   PUBLIC    XDATA    BYTE      tft180_x_max
      00011D3CH   PUBLIC    XDATA    BYTE      tft180_y_max
      00011044H   PUBLIC    XDATA    BYTE      ?tft180_show_float?BYTE
      0001127DH   PUBLIC    XDATA    BYTE      ?tft180_show_wave?BYTE
      000000D0H   SFRSYM    DATA     BYTE      PSW
      0000009DH   SFRSYM    DATA     BYTE      IRCBAND
      00000097H   SFRSYM    DATA     BYTE      AUXR2
      000000EFH   SFRSYM    DATA     BYTE      AUXINTIF
      000000FDH   SFRSYM    DATA     BYTE      S4CON
      000000ACH   SFRSYM    DATA     BYTE      S3CON
      0000009AH   SFRSYM    DATA     BYTE      S2CON
      000000B7H   SFRSYM    DATA     BYTE      IPH
      000000CDH   SFRSYM    DATA     BYTE      SPSTAT
      000000DDH   SFRSYM    DATA     BYTE      T4T3M
      000000C1H   SFRSYM    DATA     BYTE      WDT_CONTR
      000000DFH   SFRSYM    DATA     BYTE      IP3
      000000F4H   SFRSYM    DATA     BYTE      USBCON
      000000B5H   SFRSYM    DATA     BYTE      IP2
      000000FFH   SFRSYM    DATA     BYTE      RSTCFG
      000000C7H   SFRSYM    DATA     BYTE      IAP_CONTR
      000000F9H   SFRSYM    DATA     BYTE      LINICR
      0000008EH   SFRSYM    DATA     BYTE      AUXR
      000000AFH   SFRSYM    DATA     BYTE      IE2
      00000088H   SFRSYM    DATA     BYTE      TCON
      00000089H   SFRSYM    DATA     BYTE      TMOD
      00000098H   SFRSYM    DATA     BYTE      SCON
      000000A0H.2 SFRSYM    DATA     BIT       P22
      000000A0H.1 SFRSYM    DATA     BIT       P21
      000000A0H.0 SFRSYM    DATA     BIT       P20
      000000F1H   SFRSYM    DATA     BYTE      CANICR
      00000087H   SFRSYM    DATA     BYTE      PCON
      000000BCH   SFRSYM    DATA     BYTE      ADC_CONTR
      000000E7H   SFRSYM    DATA     BYTE      CMPCR2
      000000E6H   SFRSYM    DATA     BYTE      CMPCR1
      000000DEH   SFRSYM    DATA     BYTE      ADCCFG
      000000B8H   SFRSYM    DATA     BYTE      IP
      0000008FH   SFRSYM    DATA     BYTE      INTCLKO
      000000EEH   SFRSYM    DATA     BYTE      IP3H
      000000B6H   SFRSYM    DATA     BYTE      IP2H
      000000A8H   SFRSYM    DATA     BYTE      IE
      000000BBH   SFRSYM    DATA     BYTE      P_SW3
      000000BAH   SFRSYM    DATA     BYTE      P_SW2
      000000A2H   SFRSYM    DATA     BYTE      P_SW1
      000000CEH   SFRSYM    DATA     BYTE      SPCTL
      000000F8H   SFRSYM    DATA     BYTE      P7
      000000E8H   SFRSYM    DATA     BYTE      P6
      000000C8H   SFRSYM    DATA     BYTE      P5
      000000C0H   SFRSYM    DATA     BYTE      P4
      000000B0H   SFRSYM    DATA     BYTE      P3
      000000A0H   SFRSYM    DATA     BYTE      P2
      00000090H   SFRSYM    DATA     BYTE      P1
L251 LINKER/LOCATER V4.66.93.0                                                        05/06/2026  19:47:11  PAGE 113


      00000080H   SFRSYM    DATA     BYTE      P0
      00012012H   SYMBOL    XDATA    BYTE      dat
      00011D3DH   SYMBOL    XDATA    WORD      x1
      00011D3FH   SYMBOL    XDATA    WORD      y1
      00011D41H   SYMBOL    XDATA    WORD      x2
      00011D43H   SYMBOL    XDATA    WORD      y2
      00011E69H   SYMBOL    XDATA    WORD      color
      00011E6BH   SYMBOL    XDATA    DWORD     i
      00011FF8H   SYMBOL    XDATA    INT       dir
      00011F76H   SYMBOL    XDATA    WORD      pen
      00011F78H   SYMBOL    XDATA    WORD      bgcolor
      00011E6FH   SYMBOL    XDATA    WORD      x
      00011E71H   SYMBOL    XDATA    WORD      y
      00011E73H   SYMBOL    XDATA    WORD      color
      00011D45H   SYMBOL    XDATA    WORD      x
      00011D47H   SYMBOL    XDATA    WORD      y
      00011D49H   SYMBOL    XDATA    CHAR      dat
      00011D4AH   SYMBOL    XDATA    BYTE      i
      00011D4BH   SYMBOL    XDATA    BYTE      j
      00011D4CH   SYMBOL    XDATA    BYTE      temp
      00011B75H   SYMBOL    XDATA    WORD      x
      00011B77H   SYMBOL    XDATA    WORD      y
      00011B79H   SYMBOL    XDATA    ---       dat
      00011B7DH   SYMBOL    XDATA    WORD      j
      00011C6AH   SYMBOL    XDATA    WORD      x
      00011C6CH   SYMBOL    XDATA    WORD      y
      00011C6EH   SYMBOL    XDATA    CHAR      dat
      00011C6FH   SYMBOL    XDATA    ---       a
      00011C72H   SYMBOL    XDATA    BYTE      i
      00011C73H   SYMBOL    XDATA    WORD      x
      00011C75H   SYMBOL    XDATA    WORD      y
      00011C77H   SYMBOL    XDATA    BYTE      dat
      00011C78H   SYMBOL    XDATA    ---       a
      00011C7BH   SYMBOL    XDATA    BYTE      i
      00011A5BH   SYMBOL    XDATA    WORD      x
      00011A5DH   SYMBOL    XDATA    WORD      y
      00011A5FH   SYMBOL    XDATA    INT       dat
      00011A61H   SYMBOL    XDATA    ---       a
      00011A66H   SYMBOL    XDATA    BYTE      i
      00011A67H   SYMBOL    XDATA    WORD      x
      00011A69H   SYMBOL    XDATA    WORD      y
      00011A6BH   SYMBOL    XDATA    WORD      dat
      00011A6DH   SYMBOL    XDATA    ---       a
      00011A72H   SYMBOL    XDATA    BYTE      i
      000110FBH   SYMBOL    XDATA    WORD      x
      000110FDH   SYMBOL    XDATA    WORD      y
      000110FFH   SYMBOL    XDATA    LONG      dat
      00011103H   SYMBOL    XDATA    BYTE      num
      00011104H   SYMBOL    XDATA    ---       buff
      00011126H   SYMBOL    XDATA    BYTE      length
      00011044H   SYMBOL    XDATA    WORD      x
      00011046H   SYMBOL    XDATA    WORD      y
      00011048H   SYMBOL    XDATA    FLOAT     dat
      0001104CH   SYMBOL    XDATA    BYTE      num
      0001104DH   SYMBOL    XDATA    BYTE      pointnum
      0001104EH   SYMBOL    XDATA    BYTE      length
      0001104FH   SYMBOL    XDATA    ---       buff
      00011071H   SYMBOL    XDATA    CHAR      start
      00011072H   SYMBOL    XDATA    CHAR      end
      00011073H   SYMBOL    XDATA    CHAR      point
      0001127DH   SYMBOL    XDATA    WORD      x
      0001127FH   SYMBOL    XDATA    WORD      y
      00011281H   SYMBOL    XDATA    ---       p
      00011285H   SYMBOL    XDATA    WORD      width
      00011287H   SYMBOL    XDATA    WORD      value_max
L251 LINKER/LOCATER V4.66.93.0                                                        05/06/2026  19:47:11  PAGE 114


      00011289H   SYMBOL    XDATA    WORD      dis_width
      0001128BH   SYMBOL    XDATA    WORD      dis_value_max
      0001128DH   SYMBOL    XDATA    DWORD     i
      00011291H   SYMBOL    XDATA    DWORD     j
      00011295H   SYMBOL    XDATA    DWORD     width_index
      00011299H   SYMBOL    XDATA    DWORD     value_max_index

      ---         MODULE    ---      ---       zf_device_tsl1401
      0001020AH   PUBLIC    XDATA    BYTE      tsl1401_finish_flag
      0001020BH   PUBLIC    XDATA    ---       tsl1401_data
      000000D0H   SFRSYM    DATA     BYTE      PSW
      0000009DH   SFRSYM    DATA     BYTE      IRCBAND
      00000097H   SFRSYM    DATA     BYTE      AUXR2
      000000EFH   SFRSYM    DATA     BYTE      AUXINTIF
      000000FDH   SFRSYM    DATA     BYTE      S4CON
      000000ACH   SFRSYM    DATA     BYTE      S3CON
      0000009AH   SFRSYM    DATA     BYTE      S2CON
      000000B7H   SFRSYM    DATA     BYTE      IPH
      000000CDH   SFRSYM    DATA     BYTE      SPSTAT
      000000DDH   SFRSYM    DATA     BYTE      T4T3M
      000000C1H   SFRSYM    DATA     BYTE      WDT_CONTR
      000000DFH   SFRSYM    DATA     BYTE      IP3
      000000F4H   SFRSYM    DATA     BYTE      USBCON
      000000B5H   SFRSYM    DATA     BYTE      IP2
      000000FFH   SFRSYM    DATA     BYTE      RSTCFG
      000000C7H   SFRSYM    DATA     BYTE      IAP_CONTR
      000000F9H   SFRSYM    DATA     BYTE      LINICR
      0000008EH   SFRSYM    DATA     BYTE      AUXR
      000000AFH   SFRSYM    DATA     BYTE      IE2
      00000088H   SFRSYM    DATA     BYTE      TCON
      00000089H   SFRSYM    DATA     BYTE      TMOD
      00000098H   SFRSYM    DATA     BYTE      SCON
      000000F1H   SFRSYM    DATA     BYTE      CANICR
      00000087H   SFRSYM    DATA     BYTE      PCON
      000000BCH   SFRSYM    DATA     BYTE      ADC_CONTR
      000000E7H   SFRSYM    DATA     BYTE      CMPCR2
      000000E6H   SFRSYM    DATA     BYTE      CMPCR1
      000000DEH   SFRSYM    DATA     BYTE      ADCCFG
      000000B8H   SFRSYM    DATA     BYTE      IP
      0000008FH   SFRSYM    DATA     BYTE      INTCLKO
      000000EEH   SFRSYM    DATA     BYTE      IP3H
      000000B6H   SFRSYM    DATA     BYTE      IP2H
      000000A8H   SFRSYM    DATA     BYTE      IE
      000000BBH   SFRSYM    DATA     BYTE      P_SW3
      000000BAH   SFRSYM    DATA     BYTE      P_SW2
      000000A2H   SFRSYM    DATA     BYTE      P_SW1
      000000CEH   SFRSYM    DATA     BYTE      SPCTL
      000000F8H   SFRSYM    DATA     BYTE      P7
      000000E8H   SFRSYM    DATA     BYTE      P6
      000000C8H   SFRSYM    DATA     BYTE      P5
      000000C0H   SFRSYM    DATA     BYTE      P4
      000000B0H   SFRSYM    DATA     BYTE      P3
      000000A0H   SFRSYM    DATA     BYTE      P2
      00000090H   SFRSYM    DATA     BYTE      P1
      00000080H   SFRSYM    DATA     BYTE      P0
      0001040BH   SYMBOL    XDATA    BYTE      tsl1401_init_state
      00012013H   SYMBOL    XDATA    BYTE      i
      00011F7AH   SYMBOL    XDATA    INT       uart_n
      00011F7CH   SYMBOL    XDATA    BYTE      index
      00011F7DH   SYMBOL    XDATA    BYTE      i

      ---         MODULE    ---      ---       zf_device_type
      00FF872FH   PUBLIC    CODE     ---       set_wireless_type
      00011D4DH   PUBLIC    XDATA    ---       tof_module_exti_handler
      00011D4FH   PUBLIC    XDATA    INT       wireless_type
L251 LINKER/LOCATER V4.66.93.0                                                        05/06/2026  19:47:11  PAGE 115


      00011D51H   PUBLIC    XDATA    INT       tof_type
      00011D53H   PUBLIC    XDATA    INT       gps_type
      000000D0H   SFRSYM    DATA     BYTE      PSW
      0000009DH   SFRSYM    DATA     BYTE      IRCBAND
      00000097H   SFRSYM    DATA     BYTE      AUXR2
      000000EFH   SFRSYM    DATA     BYTE      AUXINTIF
      000000FDH   SFRSYM    DATA     BYTE      S4CON
      000000ACH   SFRSYM    DATA     BYTE      S3CON
      0000009AH   SFRSYM    DATA     BYTE      S2CON
      000000B7H   SFRSYM    DATA     BYTE      IPH
      000000CDH   SFRSYM    DATA     BYTE      SPSTAT
      000000DDH   SFRSYM    DATA     BYTE      T4T3M
      000000C1H   SFRSYM    DATA     BYTE      WDT_CONTR
      000000DFH   SFRSYM    DATA     BYTE      IP3
      000000F4H   SFRSYM    DATA     BYTE      USBCON
      000000B5H   SFRSYM    DATA     BYTE      IP2
      000000FFH   SFRSYM    DATA     BYTE      RSTCFG
      000000C7H   SFRSYM    DATA     BYTE      IAP_CONTR
      000000F9H   SFRSYM    DATA     BYTE      LINICR
      0000008EH   SFRSYM    DATA     BYTE      AUXR
      000000AFH   SFRSYM    DATA     BYTE      IE2
      00000088H   SFRSYM    DATA     BYTE      TCON
      00000089H   SFRSYM    DATA     BYTE      TMOD
      00000098H   SFRSYM    DATA     BYTE      SCON
      000000F1H   SFRSYM    DATA     BYTE      CANICR
      00000087H   SFRSYM    DATA     BYTE      PCON
      000000BCH   SFRSYM    DATA     BYTE      ADC_CONTR
      000000E7H   SFRSYM    DATA     BYTE      CMPCR2
      000000E6H   SFRSYM    DATA     BYTE      CMPCR1
      000000DEH   SFRSYM    DATA     BYTE      ADCCFG
      000000B8H   SFRSYM    DATA     BYTE      IP
      0000008FH   SFRSYM    DATA     BYTE      INTCLKO
      000000EEH   SFRSYM    DATA     BYTE      IP3H
      000000B6H   SFRSYM    DATA     BYTE      IP2H
      000000A8H   SFRSYM    DATA     BYTE      IE
      000000BBH   SFRSYM    DATA     BYTE      P_SW3
      000000BAH   SFRSYM    DATA     BYTE      P_SW2
      000000A2H   SFRSYM    DATA     BYTE      P_SW1
      000000CEH   SFRSYM    DATA     BYTE      SPCTL
      000000F8H   SFRSYM    DATA     BYTE      P7
      000000E8H   SFRSYM    DATA     BYTE      P6
      000000C8H   SFRSYM    DATA     BYTE      P5
      000000C0H   SFRSYM    DATA     BYTE      P4
      000000B0H   SFRSYM    DATA     BYTE      P3
      000000A0H   SFRSYM    DATA     BYTE      P2
      00000090H   SFRSYM    DATA     BYTE      P1
      00000080H   SFRSYM    DATA     BYTE      P0

      00FF872FH   BLOCK     CODE     ---       LVL=0
      00011D55H   SYMBOL    XDATA    INT       type_set
      00011D57H   SYMBOL    XDATA    INT       uartx
      00011D59H   SYMBOL    XDATA    ---       uart_callback
      00FF872FH   LINE      CODE     ---       #52
      00FF8745H   LINE      CODE     ---       #54
      00FF8751H   LINE      CODE     ---       #56
      00FF875DH   LINE      CODE     ---       #58
      00FF876DH   LINE      CODE     ---       #59
      00FF876FH   LINE      CODE     ---       #60
      00FF877DH   LINE      CODE     ---       #62
      00FF878DH   LINE      CODE     ---       #63
      00FF878FH   LINE      CODE     ---       #64
      00FF879DH   LINE      CODE     ---       #66
      00FF87ADH   LINE      CODE     ---       #67
      00FF87AFH   LINE      CODE     ---       #68
      00FF87BDH   LINE      CODE     ---       #70
L251 LINKER/LOCATER V4.66.93.0                                                        05/06/2026  19:47:11  PAGE 116


      00FF87CDH   LINE      CODE     ---       #71
      ---         BLOCKEND  ---      ---       LVL=0
      00011E75H   SYMBOL    XDATA    INT       type_set
      00011E77H   SYMBOL    XDATA    ---       exti_callback
      00011D5DH   SYMBOL    XDATA    INT       type_set
      00011D5FH   SYMBOL    XDATA    INT       uartx
      00011D61H   SYMBOL    XDATA    ---       uart_callback

      ---         MODULE    ---      ---       zf_device_wireless_uart
      00FF786EH   PUBLIC    CODE     ---       wireless_uart_send_buffer
      00FF9338H   PUBLIC    CODE     ---       wireless_uart_send_string
      00FF9A31H   PUBLIC    CODE     ---       wireless_uart_callback
      00FF8D27H   PUBLIC    CODE     ---       wireless_uart_init
      000000D0H   SFRSYM    DATA     BYTE      PSW
      0000009DH   SFRSYM    DATA     BYTE      IRCBAND
      00000097H   SFRSYM    DATA     BYTE      AUXR2
      000000EFH   SFRSYM    DATA     BYTE      AUXINTIF
      000000FDH   SFRSYM    DATA     BYTE      S4CON
      000000ACH   SFRSYM    DATA     BYTE      S3CON
      0000009AH   SFRSYM    DATA     BYTE      S2CON
      000000B7H   SFRSYM    DATA     BYTE      IPH
      000000CDH   SFRSYM    DATA     BYTE      SPSTAT
      000000DDH   SFRSYM    DATA     BYTE      T4T3M
      000000C1H   SFRSYM    DATA     BYTE      WDT_CONTR
      000000DFH   SFRSYM    DATA     BYTE      IP3
      000000F4H   SFRSYM    DATA     BYTE      USBCON
      000000B5H   SFRSYM    DATA     BYTE      IP2
      000000FFH   SFRSYM    DATA     BYTE      RSTCFG
      000000C7H   SFRSYM    DATA     BYTE      IAP_CONTR
      000000F9H   SFRSYM    DATA     BYTE      LINICR
      0000008EH   SFRSYM    DATA     BYTE      AUXR
      000000AFH   SFRSYM    DATA     BYTE      IE2
      00000088H   SFRSYM    DATA     BYTE      TCON
      00000089H   SFRSYM    DATA     BYTE      TMOD
      00000098H   SFRSYM    DATA     BYTE      SCON
      000000F1H   SFRSYM    DATA     BYTE      CANICR
      00000087H   SFRSYM    DATA     BYTE      PCON
      000000BCH   SFRSYM    DATA     BYTE      ADC_CONTR
      000000E7H   SFRSYM    DATA     BYTE      CMPCR2
      000000E6H   SFRSYM    DATA     BYTE      CMPCR1
      000000DEH   SFRSYM    DATA     BYTE      ADCCFG
      000000B8H   SFRSYM    DATA     BYTE      IP
      0000008FH   SFRSYM    DATA     BYTE      INTCLKO
      000000EEH   SFRSYM    DATA     BYTE      IP3H
      000000B6H   SFRSYM    DATA     BYTE      IP2H
      000000A8H   SFRSYM    DATA     BYTE      IE
      000000BBH   SFRSYM    DATA     BYTE      P_SW3
      000000BAH   SFRSYM    DATA     BYTE      P_SW2
      000000A2H   SFRSYM    DATA     BYTE      P_SW1
      000000CEH   SFRSYM    DATA     BYTE      SPCTL
      000000F8H   SFRSYM    DATA     BYTE      P7
      000000E8H   SFRSYM    DATA     BYTE      P6
      000000C8H   SFRSYM    DATA     BYTE      P5
      000000C0H   SFRSYM    DATA     BYTE      P4
      000000B0H   SFRSYM    DATA     BYTE      P3
      000000A0H   SFRSYM    DATA     BYTE      P2
      00000090H   SFRSYM    DATA     BYTE      P1
      00000080H   SFRSYM    DATA     BYTE      P0
      00010DB7H   SYMBOL    XDATA    ---       wireless_uart_fifo
      00010DCEH   SYMBOL    XDATA    ---       wireless_uart_buffer
      00011FBBH   SYMBOL    XDATA    BYTE      dat
      00011FBCH   SYMBOL    XDATA    WORD      time_cnt

      00FF786EH   BLOCK     CODE     ---       LVL=0
      00011A73H   SYMBOL    XDATA    ---       buff
L251 LINKER/LOCATER V4.66.93.0                                                        05/06/2026  19:47:11  PAGE 117


      00011A77H   SYMBOL    XDATA    DWORD     len
      00FF7882H   BLOCK     CODE     NEAR LAB  LVL=1
      00011A7BH   SYMBOL    XDATA    WORD      time_cnt
      00011A7DH   SYMBOL    XDATA    WORD      send_len
      ---         BLOCKEND  ---      ---       LVL=1
      00FF786EH   LINE      CODE     ---       #103
      00FF7882H   LINE      CODE     ---       #104
      00FF7882H   LINE      CODE     ---       #108
      00FF788AH   LINE      CODE     ---       #109
      00FF7892H   LINE      CODE     ---       #110
      00FF78B4H   LINE      CODE     ---       #112
      00FF78B7H   LINE      CODE     ---       #114
      00FF78C3H   LINE      CODE     ---       #116
      00FF78E9H   LINE      CODE     ---       #117
      00FF7900H   LINE      CODE     ---       #118
      00FF7919H   LINE      CODE     ---       #119
      00FF7934H   LINE      CODE     ---       #120
      00FF793CH   LINE      CODE     ---       #121
      00FF793EH   LINE      CODE     ---       #124
      00FF7945H   LINE      CODE     ---       #125
      00FF7954H   LINE      CODE     ---       #126
      00FF7954H   LINE      CODE     ---       #127
      00FF7973H   LINE      CODE     ---       #129
      00FF797DH   LINE      CODE     ---       #130
      ---         BLOCKEND  ---      ---       LVL=0

      00FF9338H   BLOCK     CODE     ---       LVL=0
      00011D65H   SYMBOL    XDATA    ---       str
      00FF9342H   BLOCK     CODE     NEAR LAB  LVL=1
      00011D69H   SYMBOL    XDATA    DWORD     len
      ---         BLOCKEND  ---      ---       LVL=1
      00FF9338H   LINE      CODE     ---       #139
      00FF9342H   LINE      CODE     ---       #140
      00FF9342H   LINE      CODE     ---       #141
      00FF935BH   LINE      CODE     ---       #142
      00FF937DH   LINE      CODE     ---       #144
      00FF9394H   LINE      CODE     ---       #145
      ---         BLOCKEND  ---      ---       LVL=0
      00011A7FH   SYMBOL    XDATA    ---       buff
      00011A83H   SYMBOL    XDATA    DWORD     len
      00011A87H   SYMBOL    XDATA    DWORD     data_len

      00FF9A31H   BLOCK     CODE     ---       LVL=0
      00012014H   SYMBOL    XDATA    BYTE      uart_dat
      00FF9A31H   LINE      CODE     ---       #173
      00FF9A35H   LINE      CODE     ---       #176
      00FF9A56H   LINE      CODE     ---       #187
      ---         BLOCKEND  ---      ---       LVL=0

      00FF8D27H   BLOCK     CODE     ---       LVL=0
      00012015H   SYMBOL    XDATA    BYTE      return_state
      00FF8D27H   LINE      CODE     ---       #196
      00FF8D27H   LINE      CODE     ---       #197
      00FF8D27H   LINE      CODE     ---       #198
      00FF8D2CH   LINE      CODE     ---       #199
      00FF8D3FH   LINE      CODE     ---       #201
      00FF8D6CH   LINE      CODE     ---       #202
      00FF8D7DH   LINE      CODE     ---       #205
      00FF8D9AH   LINE      CODE     ---       #206
      00FF8DA3H   LINE      CODE     ---       #259
      00FF8DA7H   LINE      CODE     ---       #260
      ---         BLOCKEND  ---      ---       LVL=0

      ---         MODULE    ---      ---       imu
      00FF47D0H   PUBLIC    CODE     ---       First_complement_Init
L251 LINKER/LOCATER V4.66.93.0                                                        05/06/2026  19:47:11  PAGE 118


      00FF7CA3H   PUBLIC    CODE     ---       KalmanCreate
      00FF58EDH   PUBLIC    CODE     ---       KalmanFilter
      00FF774FH   PUBLIC    CODE     ---       IMU_gyro_Offset_Init
      00FF019EH   PUBLIC    CODE     ---       gyro_proc
      00FF9601H   PUBLIC    CODE     ---       gyro_init
      00FF9981H   PUBLIC    CODE     ---       My_abs
      00FF6F83H   PUBLIC    CODE     ---       IMU_GetValues
      00FF8F15H   PUBLIC    CODE     ---       IMU_YAW_integral
      0001083FH   PUBLIC    XDATA    FLOAT     Pitch_Min
      00010843H   PUBLIC    XDATA    FLOAT     Pitch_Max
      00010847H   PUBLIC    XDATA    ---       Kalman1
      00010877H   PUBLIC    XDATA    ---       Kalman2
      000108A7H   PUBLIC    XDATA    CHAR      Round
      000108A8H   PUBLIC    XDATA    FLOAT     gyro_Offset_flag
      000108ACH   PUBLIC    XDATA    FLOAT     pitch
      000108B0H   PUBLIC    XDATA    FLOAT     Roll_Min
      000108B4H   PUBLIC    XDATA    ---       Zero
      000108E4H   PUBLIC    XDATA    FLOAT     Roll_Max
      000108E8H   PUBLIC    XDATA    FLOAT     roll
      000108ECH   PUBLIC    XDATA    FLOAT     gyrox
      000108F0H   PUBLIC    XDATA    FLOAT     gyroy
      000108F4H   PUBLIC    XDATA    FLOAT     gyroz
      000108F8H   PUBLIC    XDATA    ---       first_complement
      0001090CH   PUBLIC    XDATA    ---       IMU_Data
      00010924H   PUBLIC    XDATA    FLOAT     Daty_X
      00010928H   PUBLIC    XDATA    FLOAT     Daty_Y
      0001092CH   PUBLIC    XDATA    FLOAT     Daty_Z
      00010930H   PUBLIC    XDATA    FLOAT     yaw_limit_360
      00010934H   PUBLIC    XDATA    FLOAT     Max_Delta_Pitch
      00010938H   PUBLIC    XDATA    FLOAT     yaw
      0001093CH   PUBLIC    XDATA    FLOAT     yaw_total
      00010940H   PUBLIC    XDATA    ---       Gyro_Offset
      0001094CH   PUBLIC    XDATA    FLOAT     Max_Delta_Roll
      00011A8BH   PUBLIC    XDATA    BYTE      ?KalmanCreate?BYTE
      000000D0H   SFRSYM    DATA     BYTE      PSW
      0000009DH   SFRSYM    DATA     BYTE      IRCBAND
      00000097H   SFRSYM    DATA     BYTE      AUXR2
      000000EFH   SFRSYM    DATA     BYTE      AUXINTIF
      000000FDH   SFRSYM    DATA     BYTE      S4CON
      000000ACH   SFRSYM    DATA     BYTE      S3CON
      0000009AH   SFRSYM    DATA     BYTE      S2CON
      000000B7H   SFRSYM    DATA     BYTE      IPH
      000000CDH   SFRSYM    DATA     BYTE      SPSTAT
      000000DDH   SFRSYM    DATA     BYTE      T4T3M
      000000C1H   SFRSYM    DATA     BYTE      WDT_CONTR
      000000DFH   SFRSYM    DATA     BYTE      IP3
      000000F4H   SFRSYM    DATA     BYTE      USBCON
      000000B5H   SFRSYM    DATA     BYTE      IP2
      000000FFH   SFRSYM    DATA     BYTE      RSTCFG
      000000C7H   SFRSYM    DATA     BYTE      IAP_CONTR
      000000F9H   SFRSYM    DATA     BYTE      LINICR
      0000008EH   SFRSYM    DATA     BYTE      AUXR
      000000AFH   SFRSYM    DATA     BYTE      IE2
      00000088H   SFRSYM    DATA     BYTE      TCON
      00000089H   SFRSYM    DATA     BYTE      TMOD
      00000098H   SFRSYM    DATA     BYTE      SCON
      000000F1H   SFRSYM    DATA     BYTE      CANICR
      00000087H   SFRSYM    DATA     BYTE      PCON
      000000BCH   SFRSYM    DATA     BYTE      ADC_CONTR
      000000E7H   SFRSYM    DATA     BYTE      CMPCR2
      000000E6H   SFRSYM    DATA     BYTE      CMPCR1
      000000DEH   SFRSYM    DATA     BYTE      ADCCFG
      000000B8H   SFRSYM    DATA     BYTE      IP
      0000008FH   SFRSYM    DATA     BYTE      INTCLKO
      000000EEH   SFRSYM    DATA     BYTE      IP3H
L251 LINKER/LOCATER V4.66.93.0                                                        05/06/2026  19:47:11  PAGE 119


      000000B6H   SFRSYM    DATA     BYTE      IP2H
      000000A8H   SFRSYM    DATA     BYTE      IE
      000000BBH   SFRSYM    DATA     BYTE      P_SW3
      000000BAH   SFRSYM    DATA     BYTE      P_SW2
      000000A2H   SFRSYM    DATA     BYTE      P_SW1
      000000CEH   SFRSYM    DATA     BYTE      SPCTL
      000000F8H   SFRSYM    DATA     BYTE      P7
      000000E8H   SFRSYM    DATA     BYTE      P6
      000000C8H   SFRSYM    DATA     BYTE      P5
      000000C0H   SFRSYM    DATA     BYTE      P4
      000000B0H   SFRSYM    DATA     BYTE      P3
      000000A0H   SFRSYM    DATA     BYTE      P2
      00000090H   SFRSYM    DATA     BYTE      P1
      00000080H   SFRSYM    DATA     BYTE      P0

      00FF47D0H   BLOCK     CODE     ---       LVL=0
      00FF47D2H   BLOCK     CODE     NEAR LAB  LVL=1
      00011F7EH   SYMBOL    XDATA    FLOAT     k
      00010950H   SYMBOL    XDATA    FLOAT     Pitch_Temp
      00010954H   SYMBOL    XDATA    FLOAT     Roll_Temp
      00010958H   SYMBOL    XDATA    FLOAT     Delta_Roll
      0001095CH   SYMBOL    XDATA    CHAR      Pitch_Flag
      0001095DH   SYMBOL    XDATA    CHAR      Roll_Flag
      ---         BLOCKEND  ---      ---       LVL=1
      00FF47D0H   LINE      CODE     ---       #30
      00FF47D2H   LINE      CODE     ---       #31
      00FF47D2H   LINE      CODE     ---       #32
      00FF47E4H   LINE      CODE     ---       #39
      00FF481CH   LINE      CODE     ---       #40
      00FF4854H   LINE      CODE     ---       #42
      00FF4882H   LINE      CODE     ---       #43
      00FF48B0H   LINE      CODE     ---       #45
      00FF4916H   LINE      CODE     ---       #46
      00FF497CH   LINE      CODE     ---       #48
      00FF49AAH   LINE      CODE     ---       #50
      00FF49CBH   LINE      CODE     ---       #51
      00FF49CBH   LINE      CODE     ---       #53
      00FF49EAH   LINE      CODE     ---       #54
      00FF4A09H   LINE      CODE     ---       #57
      00FF4A12H   LINE      CODE     ---       #59
      00FF4A26H   LINE      CODE     ---       #60
      00FF4A3AH   LINE      CODE     ---       #61
      00FF4A40H   LINE      CODE     ---       #62
      00FF4A40H   LINE      CODE     ---       #64
      00FF4A49H   LINE      CODE     ---       #66
      00FF4A5DH   LINE      CODE     ---       #67
      00FF4A71H   LINE      CODE     ---       #68
      00FF4A77H   LINE      CODE     ---       #69
      00FF4A77H   LINE      CODE     ---       #72
      00FF4A9AH   LINE      CODE     ---       #74
      00FF4AB1H   LINE      CODE     ---       #75
      00FF4AB3H   LINE      CODE     ---       #76
      00FF4AD6H   LINE      CODE     ---       #78
      00FF4AEDH   LINE      CODE     ---       #79
      00FF4AEDH   LINE      CODE     ---       #82
      00FF4B10H   LINE      CODE     ---       #84
      00FF4B27H   LINE      CODE     ---       #85
      00FF4B29H   LINE      CODE     ---       #86
      00FF4B4CH   LINE      CODE     ---       #88
      00FF4B63H   LINE      CODE     ---       #89
      00FF4B63H   LINE      CODE     ---       #90
      00FF4B84H   LINE      CODE     ---       #91
      00FF4BA5H   LINE      CODE     ---       #92
      ---         BLOCKEND  ---      ---       LVL=0

L251 LINKER/LOCATER V4.66.93.0                                                        05/06/2026  19:47:11  PAGE 120


      00FF774FH   BLOCK     CODE     ---       LVL=0
      00011FFAH   SYMBOL    XDATA    WORD      i
      00FF774FH   LINE      CODE     ---       #97
      00FF774FH   LINE      CODE     ---       #98
      00FF774FH   LINE      CODE     ---       #99
      00FF7757H   LINE      CODE     ---       #100
      00FF7763H   LINE      CODE     ---       #101
      00FF776FH   LINE      CODE     ---       #102
      00FF777BH   LINE      CODE     ---       #103
      00FF7785H   LINE      CODE     ---       #105
      00FF77A6H   LINE      CODE     ---       #106
      00FF77C7H   LINE      CODE     ---       #107
      00FF77E8H   LINE      CODE     ---       #108
      00FF77EFH   LINE      CODE     ---       #109
      00FF780FH   LINE      CODE     ---       #111
      00FF7829H   LINE      CODE     ---       #112
      00FF7843H   LINE      CODE     ---       #113
      00FF785DH   LINE      CODE     ---       #115
      00FF786DH   LINE      CODE     ---       #116
      ---         BLOCKEND  ---      ---       LVL=0

      00FF6F83H   BLOCK     CODE     ---       LVL=0
      00FF6F83H   LINE      CODE     ---       #118
      00FF6F83H   LINE      CODE     ---       #120
      00FF6F86H   LINE      CODE     ---       #121
      00FF6F89H   LINE      CODE     ---       #123
      00FF6FCAH   LINE      CODE     ---       #124
      00FF700BH   LINE      CODE     ---       #125
      00FF704CH   LINE      CODE     ---       #127
      00FF708AH   LINE      CODE     ---       #128
      00FF70C8H   LINE      CODE     ---       #129
      00FF7106H   LINE      CODE     ---       #130
      ---         BLOCKEND  ---      ---       LVL=0

      00FF8F15H   BLOCK     CODE     ---       LVL=0
      00FF8F15H   LINE      CODE     ---       #136
      00FF8F15H   LINE      CODE     ---       #138
      00FF8F43H   LINE      CODE     ---       #140
      00FF8F54H   LINE      CODE     ---       #141
      00FF8F56H   LINE      CODE     ---       #144
      00FF8F8CH   LINE      CODE     ---       #148
      00FF8F8CH   LINE      CODE     ---       #149
      ---         BLOCKEND  ---      ---       LVL=0
      00011723H   SYMBOL    XDATA    FLOAT     num
      00011727H   SYMBOL    XDATA    FLOAT     halfx
      0001172BH   SYMBOL    XDATA    FLOAT     y
      0001172FH   SYMBOL    XDATA    LONG      i

      00FF9981H   BLOCK     CODE     ---       LVL=0
      00011F82H   SYMBOL    XDATA    FLOAT     x
      00FF9981H   LINE      CODE     ---       #232
      00FF998BH   LINE      CODE     ---       #234
      00FF99B5H   LINE      CODE     ---       #235
      ---         BLOCKEND  ---      ---       LVL=0

      00FF7CA3H   BLOCK     CODE     ---       LVL=0
      00011A8BH   SYMBOL    XDATA    ---       p
      00011A8FH   SYMBOL    XDATA    FLOAT     T_Q
      00011A93H   SYMBOL    XDATA    FLOAT     T_R
      00FF7CA3H   LINE      CODE     ---       #237
      00FF7CB7H   LINE      CODE     ---       #239
      00FF7CCAH   LINE      CODE     ---       #240
      00FF7CE1H   LINE      CODE     ---       #241
      00FF7D00H   LINE      CODE     ---       #242
      00FF7D1FH   LINE      CODE     ---       #243
L251 LINKER/LOCATER V4.66.93.0                                                        05/06/2026  19:47:11  PAGE 121


      00FF7D3AH   LINE      CODE     ---       #244
      00FF7D51H   LINE      CODE     ---       #245
      00FF7D6CH   LINE      CODE     ---       #246
      00FF7D90H   LINE      CODE     ---       #247
      ---         BLOCKEND  ---      ---       LVL=0

      00FF58EDH   BLOCK     CODE     ---       LVL=0
      00011D6DH   SYMBOL    XDATA    ---       p
      00011D71H   SYMBOL    XDATA    FLOAT     dat
      00FF58EDH   LINE      CODE     ---       #249
      00FF5901H   LINE      CODE     ---       #251
      00FF593FH   LINE      CODE     ---       #252
      00FF599BH   LINE      CODE     ---       #253
      00FF59F9H   LINE      CODE     ---       #254
      00FF5A62H   LINE      CODE     ---       #255
      00FF5AAFH   LINE      CODE     ---       #256
      00FF5AD9H   LINE      CODE     ---       #257
      00FF5AFFH   LINE      CODE     ---       #258
      00FF5B14H   LINE      CODE     ---       #259
      ---         BLOCKEND  ---      ---       LVL=0

      00FF9601H   BLOCK     CODE     ---       LVL=0
      00FF9601H   LINE      CODE     ---       #261
      00FF9601H   LINE      CODE     ---       #263
      00FF9604H   LINE      CODE     ---       #264
      00FF9629H   LINE      CODE     ---       #265
      00FF964EH   LINE      CODE     ---       #266
      ---         BLOCKEND  ---      ---       LVL=0

      00FF019EH   BLOCK     CODE     ---       LVL=0
      00FF019EH   LINE      CODE     ---       #268
      00FF019EH   LINE      CODE     ---       #270
      00FF01A1H   LINE      CODE     ---       #271
      00FF01A4H   LINE      CODE     ---       #272
      00FF01A7H   LINE      CODE     ---       #273
      ---         BLOCKEND  ---      ---       LVL=0

      ---         MODULE    ---      ---       seekfree_assistant
      000105DCH   PUBLIC    XDATA    ---       seekfree_assistant_oscilloscope_data
      00010617H   PUBLIC    XDATA    ---       seekfree_assistant_parameter_update_flag
      0001061FH   PUBLIC    XDATA    ---       seekfree_assistant_parameter
      0001178DH   PUBLIC    XDATA    BYTE      ?seekfree_assistant_camera_data_send?BYTE
      00011B7FH   PUBLIC    XDATA    BYTE      ?seekfree_assistant_camera_information_config?BYTE
      000112DBH   PUBLIC    XDATA    BYTE      ?seekfree_assistant_camera_boundary_config?BYTE
      000000D0H   SFRSYM    DATA     BYTE      PSW
      0000009DH   SFRSYM    DATA     BYTE      IRCBAND
      00000097H   SFRSYM    DATA     BYTE      AUXR2
      000000EFH   SFRSYM    DATA     BYTE      AUXINTIF
      000000FDH   SFRSYM    DATA     BYTE      S4CON
      000000ACH   SFRSYM    DATA     BYTE      S3CON
      0000009AH   SFRSYM    DATA     BYTE      S2CON
      000000B7H   SFRSYM    DATA     BYTE      IPH
      000000CDH   SFRSYM    DATA     BYTE      SPSTAT
      000000DDH   SFRSYM    DATA     BYTE      T4T3M
      000000C1H   SFRSYM    DATA     BYTE      WDT_CONTR
      000000DFH   SFRSYM    DATA     BYTE      IP3
      000000F4H   SFRSYM    DATA     BYTE      USBCON
      000000B5H   SFRSYM    DATA     BYTE      IP2
      000000FFH   SFRSYM    DATA     BYTE      RSTCFG
      000000C7H   SFRSYM    DATA     BYTE      IAP_CONTR
      000000F9H   SFRSYM    DATA     BYTE      LINICR
      0000008EH   SFRSYM    DATA     BYTE      AUXR
      000000AFH   SFRSYM    DATA     BYTE      IE2
      00000088H   SFRSYM    DATA     BYTE      TCON
      00000089H   SFRSYM    DATA     BYTE      TMOD
L251 LINKER/LOCATER V4.66.93.0                                                        05/06/2026  19:47:11  PAGE 122


      00000098H   SFRSYM    DATA     BYTE      SCON
      000000F1H   SFRSYM    DATA     BYTE      CANICR
      00000087H   SFRSYM    DATA     BYTE      PCON
      000000BCH   SFRSYM    DATA     BYTE      ADC_CONTR
      000000E7H   SFRSYM    DATA     BYTE      CMPCR2
      000000E6H   SFRSYM    DATA     BYTE      CMPCR1
      000000DEH   SFRSYM    DATA     BYTE      ADCCFG
      000000B8H   SFRSYM    DATA     BYTE      IP
      0000008FH   SFRSYM    DATA     BYTE      INTCLKO
      000000EEH   SFRSYM    DATA     BYTE      IP3H
      000000B6H   SFRSYM    DATA     BYTE      IP2H
      000000A8H   SFRSYM    DATA     BYTE      IE
      000000BBH   SFRSYM    DATA     BYTE      P_SW3
      000000BAH   SFRSYM    DATA     BYTE      P_SW2
      000000A2H   SFRSYM    DATA     BYTE      P_SW1
      000000CEH   SFRSYM    DATA     BYTE      SPCTL
      000000F8H   SFRSYM    DATA     BYTE      P7
      000000A8H.7 SFRSYM    DATA     BIT       EA
      000000E8H   SFRSYM    DATA     BYTE      P6
      000000C8H   SFRSYM    DATA     BYTE      P5
      000000C0H   SFRSYM    DATA     BYTE      P4
      000000B0H   SFRSYM    DATA     BYTE      P3
      000000A0H   SFRSYM    DATA     BYTE      P2
      00000090H   SFRSYM    DATA     BYTE      P1
      00000080H   SFRSYM    DATA     BYTE      P0
      000105D4H   SYMBOL    XDATA    ---       seekfree_assistant_camera_dot_data
      00010600H   SYMBOL    XDATA    ---       seekfree_assistant_fifo
      0001063FH   SYMBOL    XDATA    ---       seekfree_assistant_camera_buffer
      00010689H   SYMBOL    XDATA    ---       seekfree_assistant_camera_data
      00010691H   SYMBOL    XDATA    ---       seekfree_assistant_buffer
      00FFA55EH   SYMBOL    HCONST   ---       ?tpl?0001
      00FFA582H   SYMBOL    HCONST   ---       ?tpl?0002
      00011C7CH   SYMBOL    XDATA    ---       buffer
      00011C80H   SYMBOL    XDATA    DWORD     length
      00011C84H   SYMBOL    XDATA    BYTE      temp_sum
      0001178DH   SYMBOL    XDATA    INT       camera_type
      0001178FH   SYMBOL    XDATA    ---       image_addr
      00011793H   SYMBOL    XDATA    BYTE      boundary_num
      00011794H   SYMBOL    XDATA    WORD      width
      00011796H   SYMBOL    XDATA    WORD      height
      00011798H   SYMBOL    XDATA    DWORD     image_size
      00011B7FH   SYMBOL    XDATA    INT       camera_type
      00011B81H   SYMBOL    XDATA    ---       image_addr
      00011B85H   SYMBOL    XDATA    WORD      width
      00011B87H   SYMBOL    XDATA    WORD      height
      0001117CH   SYMBOL    XDATA    ---       seekfree_assistant_oscilloscope
      00011180H   SYMBOL    XDATA    BYTE      packet_size
      00011181H   SYMBOL    XDATA    BYTE      i
      00011182H   SYMBOL    XDATA    ---       temp_oscilloscope
      00011DA8H   SYMBOL    XDATA    ---       buffer
      00011DACH   SYMBOL    XDATA    BYTE      i
      00011DADH   SYMBOL    XDATA    WORD      dot_bytes
      000112DBH   SYMBOL    XDATA    INT       boundary_type
      000112DDH   SYMBOL    XDATA    WORD      dot_num
      000112DFH   SYMBOL    XDATA    ---       dot_x1
      000112E3H   SYMBOL    XDATA    ---       dot_x2
      000112E7H   SYMBOL    XDATA    ---       dot_x3
      000112EBH   SYMBOL    XDATA    ---       dot_y1
      000112EFH   SYMBOL    XDATA    ---       dot_y2
      000112F3H   SYMBOL    XDATA    ---       dot_y3
      000112F7H   SYMBOL    XDATA    BYTE      i
      000112F8H   SYMBOL    XDATA    BYTE      boundary_num
      000112F9H   SYMBOL    XDATA    BYTE      boundary_data_type
      00010BC1H   SYMBOL    XDATA    BYTE      temp_sum
      00010BC2H   SYMBOL    XDATA    DWORD     read_length
L251 LINKER/LOCATER V4.66.93.0                                                        05/06/2026  19:47:11  PAGE 123


      00010BC6H   SYMBOL    XDATA    WORD      struct_len
      00010BC8H   SYMBOL    XDATA    ---       receive_packet
      00010BCCH   SYMBOL    XDATA    ---       temp_buffer
      00010C4CH   SYMBOL    XDATA    DWORD     i
      00000020H.3 SYMBOL    BIT      BIT       flag

      ---         MODULE    ---      ---       seekfree_assistant_interface
      00011F86H   PUBLIC    XDATA    ---       seekfree_assistant_receive_callback
      00011F88H   PUBLIC    XDATA    ---       seekfree_assistant_transfer_callback
      000000D0H   SFRSYM    DATA     BYTE      PSW
      0000009DH   SFRSYM    DATA     BYTE      IRCBAND
      00000097H   SFRSYM    DATA     BYTE      AUXR2
      000000EFH   SFRSYM    DATA     BYTE      AUXINTIF
      000000FDH   SFRSYM    DATA     BYTE      S4CON
      000000ACH   SFRSYM    DATA     BYTE      S3CON
      0000009AH   SFRSYM    DATA     BYTE      S2CON
      000000B7H   SFRSYM    DATA     BYTE      IPH
      000000CDH   SFRSYM    DATA     BYTE      SPSTAT
      000000DDH   SFRSYM    DATA     BYTE      T4T3M
      000000C1H   SFRSYM    DATA     BYTE      WDT_CONTR
      000000DFH   SFRSYM    DATA     BYTE      IP3
      000000F4H   SFRSYM    DATA     BYTE      USBCON
      000000B5H   SFRSYM    DATA     BYTE      IP2
      000000FFH   SFRSYM    DATA     BYTE      RSTCFG
      000000C7H   SFRSYM    DATA     BYTE      IAP_CONTR
      000000F9H   SFRSYM    DATA     BYTE      LINICR
      0000008EH   SFRSYM    DATA     BYTE      AUXR
      000000AFH   SFRSYM    DATA     BYTE      IE2
      00000088H   SFRSYM    DATA     BYTE      TCON
      00000089H   SFRSYM    DATA     BYTE      TMOD
      00000098H   SFRSYM    DATA     BYTE      SCON
      000000F1H   SFRSYM    DATA     BYTE      CANICR
      00000087H   SFRSYM    DATA     BYTE      PCON
      000000BCH   SFRSYM    DATA     BYTE      ADC_CONTR
      000000E7H   SFRSYM    DATA     BYTE      CMPCR2
      000000E6H   SFRSYM    DATA     BYTE      CMPCR1
      000000DEH   SFRSYM    DATA     BYTE      ADCCFG
      000000B8H   SFRSYM    DATA     BYTE      IP
      0000008FH   SFRSYM    DATA     BYTE      INTCLKO
      000000EEH   SFRSYM    DATA     BYTE      IP3H
      000000B6H   SFRSYM    DATA     BYTE      IP2H
      000000A8H   SFRSYM    DATA     BYTE      IE
      000000BBH   SFRSYM    DATA     BYTE      P_SW3
      000000BAH   SFRSYM    DATA     BYTE      P_SW2
      000000A2H   SFRSYM    DATA     BYTE      P_SW1
      000000CEH   SFRSYM    DATA     BYTE      SPCTL
      000000F8H   SFRSYM    DATA     BYTE      P7
      000000E8H   SFRSYM    DATA     BYTE      P6
      000000C8H   SFRSYM    DATA     BYTE      P5
      000000C0H   SFRSYM    DATA     BYTE      P4
      000000B0H   SFRSYM    DATA     BYTE      P3
      000000A0H   SFRSYM    DATA     BYTE      P2
      00000090H   SFRSYM    DATA     BYTE      P1
      00000080H   SFRSYM    DATA     BYTE      P0
      00011FFCH   SYMBOL    XDATA    INT       transfer_device

      ---         MODULE    ---      ---       isr
      00FF964FH   PUBLIC    CODE     ---       INT0_IRQHandler
      00FF968FH   PUBLIC    CODE     ---       INT1_IRQHandler
      00FF96CFH   PUBLIC    CODE     ---       INT2_IRQHandler
      00FF970FH   PUBLIC    CODE     ---       INT3_IRQHandler
      00FF974FH   PUBLIC    CODE     ---       INT4_IRQHandler
      00FF83F2H   PUBLIC    CODE     ---       DMA_UART1_IRQHandler
      00FF87CEH   PUBLIC    CODE     ---       DMA_UART2_IRQHandler
      00FF885DH   PUBLIC    CODE     ---       DMA_UART3_IRQHandler
L251 LINKER/LOCATER V4.66.93.0                                                        05/06/2026  19:47:11  PAGE 124


      00FF88ECH   PUBLIC    CODE     ---       DMA_UART4_IRQHandler
      00FF978FH   PUBLIC    CODE     ---       TM0_IRQHandler
      00FF97CFH   PUBLIC    CODE     ---       TM1_IRQHandler
      00FF980FH   PUBLIC    CODE     ---       TM2_IRQHandler
      00FF984FH   PUBLIC    CODE     ---       TM3_IRQHandler
      00FF988FH   PUBLIC    CODE     ---       TM4_IRQHandler
      000000D0H   SFRSYM    DATA     BYTE      PSW
      0000009DH   SFRSYM    DATA     BYTE      IRCBAND
      00000097H   SFRSYM    DATA     BYTE      AUXR2
      000000EFH   SFRSYM    DATA     BYTE      AUXINTIF
      000000FDH   SFRSYM    DATA     BYTE      S4CON
      000000ACH   SFRSYM    DATA     BYTE      S3CON
      0000009AH   SFRSYM    DATA     BYTE      S2CON
      000000B7H   SFRSYM    DATA     BYTE      IPH
      000000CDH   SFRSYM    DATA     BYTE      SPSTAT
      000000DDH   SFRSYM    DATA     BYTE      T4T3M
      000000C1H   SFRSYM    DATA     BYTE      WDT_CONTR
      000000DFH   SFRSYM    DATA     BYTE      IP3
      000000F4H   SFRSYM    DATA     BYTE      USBCON
      000000B5H   SFRSYM    DATA     BYTE      IP2
      000000FFH   SFRSYM    DATA     BYTE      RSTCFG
      000000C7H   SFRSYM    DATA     BYTE      IAP_CONTR
      000000F9H   SFRSYM    DATA     BYTE      LINICR
      0000008EH   SFRSYM    DATA     BYTE      AUXR
      000000AFH   SFRSYM    DATA     BYTE      IE2
      00000088H   SFRSYM    DATA     BYTE      TCON
      00000089H   SFRSYM    DATA     BYTE      TMOD
      00000098H   SFRSYM    DATA     BYTE      SCON
      000000F1H   SFRSYM    DATA     BYTE      CANICR
      00000087H   SFRSYM    DATA     BYTE      PCON
      000000BCH   SFRSYM    DATA     BYTE      ADC_CONTR
      000000E7H   SFRSYM    DATA     BYTE      CMPCR2
      000000E6H   SFRSYM    DATA     BYTE      CMPCR1
      000000DEH   SFRSYM    DATA     BYTE      ADCCFG
      000000B8H   SFRSYM    DATA     BYTE      IP
      0000008FH   SFRSYM    DATA     BYTE      INTCLKO
      000000EEH   SFRSYM    DATA     BYTE      IP3H
      000000B6H   SFRSYM    DATA     BYTE      IP2H
      000000A8H   SFRSYM    DATA     BYTE      IE
      000000BBH   SFRSYM    DATA     BYTE      P_SW3
      000000BAH   SFRSYM    DATA     BYTE      P_SW2
      000000A2H   SFRSYM    DATA     BYTE      P_SW1
      000000CEH   SFRSYM    DATA     BYTE      SPCTL
      000000F8H   SFRSYM    DATA     BYTE      P7
      000000E8H   SFRSYM    DATA     BYTE      P6
      000000C8H   SFRSYM    DATA     BYTE      P5
      000000C0H   SFRSYM    DATA     BYTE      P4
      000000B0H   SFRSYM    DATA     BYTE      P3
      000000A0H   SFRSYM    DATA     BYTE      P2
      00000090H   SFRSYM    DATA     BYTE      P1
      00000080H   SFRSYM    DATA     BYTE      P0

      00FF964FH   BLOCK     CODE     ---       LVL=0
      00FF964FH   LINE      CODE     ---       #39
      00FF9663H   LINE      CODE     ---       #41
      00FF9666H   LINE      CODE     ---       #42
      00FF9672H   LINE      CODE     ---       #44
      00FF967AH   LINE      CODE     ---       #45
      ---         BLOCKEND  ---      ---       LVL=0

      00FF968FH   BLOCK     CODE     ---       LVL=0
      00FF968FH   LINE      CODE     ---       #49
      00FF96A3H   LINE      CODE     ---       #51
      00FF96A6H   LINE      CODE     ---       #52
      00FF96B2H   LINE      CODE     ---       #54
L251 LINKER/LOCATER V4.66.93.0                                                        05/06/2026  19:47:11  PAGE 125


      00FF96BAH   LINE      CODE     ---       #55
      ---         BLOCKEND  ---      ---       LVL=0

      00FF96CFH   BLOCK     CODE     ---       LVL=0
      00FF96CFH   LINE      CODE     ---       #58
      00FF96E3H   LINE      CODE     ---       #60
      00FF96E6H   LINE      CODE     ---       #61
      00FF96F2H   LINE      CODE     ---       #63
      00FF96FAH   LINE      CODE     ---       #64
      ---         BLOCKEND  ---      ---       LVL=0

      00FF970FH   BLOCK     CODE     ---       LVL=0
      00FF970FH   LINE      CODE     ---       #66
      00FF9723H   LINE      CODE     ---       #68
      00FF9726H   LINE      CODE     ---       #69
      00FF9732H   LINE      CODE     ---       #71
      00FF973AH   LINE      CODE     ---       #72
      ---         BLOCKEND  ---      ---       LVL=0

      00FF974FH   BLOCK     CODE     ---       LVL=0
      00FF974FH   LINE      CODE     ---       #75
      00FF9763H   LINE      CODE     ---       #77
      00FF9766H   LINE      CODE     ---       #78
      00FF9772H   LINE      CODE     ---       #80
      00FF977AH   LINE      CODE     ---       #81
      ---         BLOCKEND  ---      ---       LVL=0

      00FF83F2H   BLOCK     CODE     ---       LVL=0
      00FF8406H   BLOCK     CODE     NEAR LAB  LVL=1
      00012016H   SYMBOL    XDATA    BYTE      dwon_count
      ---         BLOCKEND  ---      ---       LVL=1
      00FF83F2H   LINE      CODE     ---       #85
      00FF8406H   LINE      CODE     ---       #86
      00FF8406H   LINE      CODE     ---       #89
      00FF8414H   LINE      CODE     ---       #91
      00FF8426H   LINE      CODE     ---       #92
      00FF842BH   LINE      CODE     ---       #95
      00FF8434H   LINE      CODE     ---       #97
      00FF8445H   LINE      CODE     ---       #99
      00FF8449H   LINE      CODE     ---       #100
      00FF844BH   LINE      CODE     ---       #104
      00FF8450H   LINE      CODE     ---       #105
      00FF8450H   LINE      CODE     ---       #107
      00FF845CH   LINE      CODE     ---       #109
      00FF8468H   LINE      CODE     ---       #110
      00FF8468H   LINE      CODE     ---       #113
      00FF8476H   LINE      CODE     ---       #115
      00FF8488H   LINE      CODE     ---       #116
      00FF848DH   LINE      CODE     ---       #120
      ---         BLOCKEND  ---      ---       LVL=0

      00FF87CEH   BLOCK     CODE     ---       LVL=0
      00FF87CEH   LINE      CODE     ---       #123
      00FF87E2H   LINE      CODE     ---       #125
      00FF87F0H   LINE      CODE     ---       #127
      00FF8802H   LINE      CODE     ---       #128
      00FF8809H   LINE      CODE     ---       #130
      00FF8815H   LINE      CODE     ---       #132
      00FF8821H   LINE      CODE     ---       #133
      00FF8821H   LINE      CODE     ---       #136
      00FF882FH   LINE      CODE     ---       #138
      00FF8841H   LINE      CODE     ---       #139
      00FF8848H   LINE      CODE     ---       #143
      ---         BLOCKEND  ---      ---       LVL=0

L251 LINKER/LOCATER V4.66.93.0                                                        05/06/2026  19:47:11  PAGE 126


      00FF885DH   BLOCK     CODE     ---       LVL=0
      00FF885DH   LINE      CODE     ---       #146
      00FF8871H   LINE      CODE     ---       #148
      00FF887FH   LINE      CODE     ---       #150
      00FF8891H   LINE      CODE     ---       #151
      00FF8898H   LINE      CODE     ---       #153
      00FF88A4H   LINE      CODE     ---       #155
      00FF88B0H   LINE      CODE     ---       #156
      00FF88B0H   LINE      CODE     ---       #159
      00FF88BEH   LINE      CODE     ---       #161
      00FF88D0H   LINE      CODE     ---       #162
      00FF88D7H   LINE      CODE     ---       #166
      ---         BLOCKEND  ---      ---       LVL=0

      00FF88ECH   BLOCK     CODE     ---       LVL=0
      00FF88ECH   LINE      CODE     ---       #169
      00FF8900H   LINE      CODE     ---       #171
      00FF890EH   LINE      CODE     ---       #173
      00FF8920H   LINE      CODE     ---       #174
      00FF8927H   LINE      CODE     ---       #176
      00FF8933H   LINE      CODE     ---       #178
      00FF893FH   LINE      CODE     ---       #179
      00FF893FH   LINE      CODE     ---       #182
      00FF894DH   LINE      CODE     ---       #184
      00FF895FH   LINE      CODE     ---       #185
      00FF8966H   LINE      CODE     ---       #189
      ---         BLOCKEND  ---      ---       LVL=0

      00FF978FH   BLOCK     CODE     ---       LVL=0
      00FF978FH   LINE      CODE     ---       #192
      00FF97A3H   LINE      CODE     ---       #194
      00FF97A6H   LINE      CODE     ---       #196
      00FF97B2H   LINE      CODE     ---       #198
      00FF97BAH   LINE      CODE     ---       #199
      ---         BLOCKEND  ---      ---       LVL=0

      00FF97CFH   BLOCK     CODE     ---       LVL=0
      00FF97CFH   LINE      CODE     ---       #202
      00FF97E3H   LINE      CODE     ---       #204
      00FF97E6H   LINE      CODE     ---       #206
      00FF97F2H   LINE      CODE     ---       #208
      00FF97FAH   LINE      CODE     ---       #209
      ---         BLOCKEND  ---      ---       LVL=0

      00FF980FH   BLOCK     CODE     ---       LVL=0
      00FF980FH   LINE      CODE     ---       #212
      00FF9823H   LINE      CODE     ---       #214
      00FF9826H   LINE      CODE     ---       #216
      00FF9832H   LINE      CODE     ---       #218
      00FF983AH   LINE      CODE     ---       #219
      ---         BLOCKEND  ---      ---       LVL=0

      00FF984FH   BLOCK     CODE     ---       LVL=0
      00FF984FH   LINE      CODE     ---       #222
      00FF9863H   LINE      CODE     ---       #224
      00FF9866H   LINE      CODE     ---       #226
      00FF9872H   LINE      CODE     ---       #228
      00FF987AH   LINE      CODE     ---       #229
      ---         BLOCKEND  ---      ---       LVL=0

      00FF988FH   BLOCK     CODE     ---       LVL=0
      00FF988FH   LINE      CODE     ---       #232
      00FF98A3H   LINE      CODE     ---       #234
      00FF98A6H   LINE      CODE     ---       #236
      00FF98B2H   LINE      CODE     ---       #238
L251 LINKER/LOCATER V4.66.93.0                                                        05/06/2026  19:47:11  PAGE 127


      00FF98BAH   LINE      CODE     ---       #239
      ---         BLOCKEND  ---      ---       LVL=0

      ---         MODULE    ---      ---       main
      00FF99B6H   PUBLIC    CODE     ---       main
      00FF66FFH   PUBLIC    CODE     ---       _m
      000000D0H   SFRSYM    DATA     BYTE      PSW
      0000009DH   SFRSYM    DATA     BYTE      IRCBAND
      00000097H   SFRSYM    DATA     BYTE      AUXR2
      000000EFH   SFRSYM    DATA     BYTE      AUXINTIF
      000000FDH   SFRSYM    DATA     BYTE      S4CON
      000000ACH   SFRSYM    DATA     BYTE      S3CON
      0000009AH   SFRSYM    DATA     BYTE      S2CON
      000000B7H   SFRSYM    DATA     BYTE      IPH
      000000CDH   SFRSYM    DATA     BYTE      SPSTAT
      000000DDH   SFRSYM    DATA     BYTE      T4T3M
      000000C1H   SFRSYM    DATA     BYTE      WDT_CONTR
      000000DFH   SFRSYM    DATA     BYTE      IP3
      000000F4H   SFRSYM    DATA     BYTE      USBCON
      000000B5H   SFRSYM    DATA     BYTE      IP2
      000000FFH   SFRSYM    DATA     BYTE      RSTCFG
      000000C7H   SFRSYM    DATA     BYTE      IAP_CONTR
      000000F9H   SFRSYM    DATA     BYTE      LINICR
      0000008EH   SFRSYM    DATA     BYTE      AUXR
      000000AFH   SFRSYM    DATA     BYTE      IE2
      000000F8H.7 SFRSYM    DATA     BIT       P77
      00000088H   SFRSYM    DATA     BYTE      TCON
      00000089H   SFRSYM    DATA     BYTE      TMOD
      00000098H   SFRSYM    DATA     BYTE      SCON
      000000F1H   SFRSYM    DATA     BYTE      CANICR
      00000087H   SFRSYM    DATA     BYTE      PCON
      000000BCH   SFRSYM    DATA     BYTE      ADC_CONTR
      000000E7H   SFRSYM    DATA     BYTE      CMPCR2
      000000E6H   SFRSYM    DATA     BYTE      CMPCR1
      000000DEH   SFRSYM    DATA     BYTE      ADCCFG
      000000B8H   SFRSYM    DATA     BYTE      IP
      0000008FH   SFRSYM    DATA     BYTE      INTCLKO
      000000EEH   SFRSYM    DATA     BYTE      IP3H
      000000B6H   SFRSYM    DATA     BYTE      IP2H
      000000A8H   SFRSYM    DATA     BYTE      IE
      000000BBH   SFRSYM    DATA     BYTE      P_SW3
      000000BAH   SFRSYM    DATA     BYTE      P_SW2
      000000A2H   SFRSYM    DATA     BYTE      P_SW1
      000000CEH   SFRSYM    DATA     BYTE      SPCTL
      000000F8H   SFRSYM    DATA     BYTE      P7
      000000E8H   SFRSYM    DATA     BYTE      P6
      000000C8H   SFRSYM    DATA     BYTE      P5
      000000C0H   SFRSYM    DATA     BYTE      P4
      000000B0H   SFRSYM    DATA     BYTE      P3
      000000A0H   SFRSYM    DATA     BYTE      P2
      00000090H   SFRSYM    DATA     BYTE      P1
      00000080H   SFRSYM    DATA     BYTE      P0

      00FF99B6H   BLOCK     CODE     ---       LVL=0
      00FF99B6H   LINE      CODE     ---       #2
      ---         BLOCKEND  ---      ---       LVL=0

      00FF66FFH   BLOCK     CODE     ---       LVL=0
      00FF66FFH   LINE      CODE     ---       #2
      00FF66FFH   LINE      CODE     ---       #4
      00FF670AH   LINE      CODE     ---       #5
      00FF670DH   LINE      CODE     ---       #6
      00FF6710H   LINE      CODE     ---       #7
      00FF6771H   LINE      CODE     ---       #8
      00FF67D0H   LINE      CODE     ---       #9
L251 LINKER/LOCATER V4.66.93.0                                                        05/06/2026  19:47:11  PAGE 128


      00FF6837H   LINE      CODE     ---       #10
      00FF6894H   LINE      CODE     ---       #11
      00FF68A4H   LINE      CODE     ---       #13
      00FF68A7H   LINE      CODE     ---       #14
      00FF68AEH   LINE      CODE     ---       #15
      00FF68B1H   LINE      CODE     ---       #16
      00FF68B8H   LINE      CODE     ---       #17
      00FF68BBH   LINE      CODE     ---       #19
      00FF68BBH   LINE      CODE     ---       #21
      00FF68C6H   LINE      CODE     ---       #22
      00FF68C9H   LINE      CODE     ---       #23
      00FF68CBH   LINE      CODE     ---       #26
      ---         BLOCKEND  ---      ---       LVL=0

      ---         MODULE    ---      ---       all_init
      00FF90D5H   PUBLIC    CODE     ---       ALL_init
      000000D0H   SFRSYM    DATA     BYTE      PSW
      0000009DH   SFRSYM    DATA     BYTE      IRCBAND
      00000097H   SFRSYM    DATA     BYTE      AUXR2
      000000EFH   SFRSYM    DATA     BYTE      AUXINTIF
      000000FDH   SFRSYM    DATA     BYTE      S4CON
      000000ACH   SFRSYM    DATA     BYTE      S3CON
      0000009AH   SFRSYM    DATA     BYTE      S2CON
      000000B7H   SFRSYM    DATA     BYTE      IPH
      000000CDH   SFRSYM    DATA     BYTE      SPSTAT
      000000DDH   SFRSYM    DATA     BYTE      T4T3M
      000000C1H   SFRSYM    DATA     BYTE      WDT_CONTR
      000000DFH   SFRSYM    DATA     BYTE      IP3
      000000F4H   SFRSYM    DATA     BYTE      USBCON
      000000B5H   SFRSYM    DATA     BYTE      IP2
      000000FFH   SFRSYM    DATA     BYTE      RSTCFG
      000000C7H   SFRSYM    DATA     BYTE      IAP_CONTR
      000000F9H   SFRSYM    DATA     BYTE      LINICR
      0000008EH   SFRSYM    DATA     BYTE      AUXR
      000000AFH   SFRSYM    DATA     BYTE      IE2
      00000088H   SFRSYM    DATA     BYTE      TCON
      00000089H   SFRSYM    DATA     BYTE      TMOD
      00000098H   SFRSYM    DATA     BYTE      SCON
      000000F1H   SFRSYM    DATA     BYTE      CANICR
      00000087H   SFRSYM    DATA     BYTE      PCON
      000000BCH   SFRSYM    DATA     BYTE      ADC_CONTR
      000000E7H   SFRSYM    DATA     BYTE      CMPCR2
      000000E6H   SFRSYM    DATA     BYTE      CMPCR1
      000000DEH   SFRSYM    DATA     BYTE      ADCCFG
      000000B8H   SFRSYM    DATA     BYTE      IP
      0000008FH   SFRSYM    DATA     BYTE      INTCLKO
      000000EEH   SFRSYM    DATA     BYTE      IP3H
      000000B6H   SFRSYM    DATA     BYTE      IP2H
      000000A8H   SFRSYM    DATA     BYTE      IE
      000000BBH   SFRSYM    DATA     BYTE      P_SW3
      000000BAH   SFRSYM    DATA     BYTE      P_SW2
      000000A2H   SFRSYM    DATA     BYTE      P_SW1
      000000CEH   SFRSYM    DATA     BYTE      SPCTL
      000000F8H   SFRSYM    DATA     BYTE      P7
      000000E8H   SFRSYM    DATA     BYTE      P6
      000000C8H   SFRSYM    DATA     BYTE      P5
      000000C0H   SFRSYM    DATA     BYTE      P4
      000000B0H   SFRSYM    DATA     BYTE      P3
      000000A0H   SFRSYM    DATA     BYTE      P2
      00000090H   SFRSYM    DATA     BYTE      P1
      00000080H   SFRSYM    DATA     BYTE      P0

      00FF90D5H   BLOCK     CODE     ---       LVL=0
      00FF90D5H   LINE      CODE     ---       #2
      00FF90D5H   LINE      CODE     ---       #4
L251 LINKER/LOCATER V4.66.93.0                                                        05/06/2026  19:47:11  PAGE 129


      00FF90D8H   LINE      CODE     ---       #5
      00FF90DBH   LINE      CODE     ---       #6
      00FF90DEH   LINE      CODE     ---       #7
      00FF90F5H   LINE      CODE     ---       #8
      00FF910CH   LINE      CODE     ---       #11
      00FF911CH   LINE      CODE     ---       #12
      00FF912DH   LINE      CODE     ---       #13
      00FF9130H   LINE      CODE     ---       #14
      00FF9133H   LINE      CODE     ---       #15
      00FF9136H   LINE      CODE     ---       #16
      00FF9139H   LINE      CODE     ---       #17
      00FF913CH   LINE      CODE     ---       #18
      ---         BLOCKEND  ---      ---       LVL=0

      ---         MODULE    ---      ---       encoder
      00FF897BH   PUBLIC    CODE     ---       pit_handler
      00FF0016H   PUBLIC    CODE     ---       pit_handler4
      00FF8FFDH   PUBLIC    CODE     ---       encoder_init
      00011852H   PUBLIC    XDATA    ---       adc_inductance
      0001185CH   PUBLIC    XDATA    WORD      t
      0001185EH   PUBLIC    XDATA    WORD      imu_cnt
      000000D0H   SFRSYM    DATA     BYTE      PSW
      0000009DH   SFRSYM    DATA     BYTE      IRCBAND
      00000097H   SFRSYM    DATA     BYTE      AUXR2
      000000EFH   SFRSYM    DATA     BYTE      AUXINTIF
      000000FDH   SFRSYM    DATA     BYTE      S4CON
      000000ACH   SFRSYM    DATA     BYTE      S3CON
      0000009AH   SFRSYM    DATA     BYTE      S2CON
      000000B7H   SFRSYM    DATA     BYTE      IPH
      000000CDH   SFRSYM    DATA     BYTE      SPSTAT
      000000DDH   SFRSYM    DATA     BYTE      T4T3M
      000000C1H   SFRSYM    DATA     BYTE      WDT_CONTR
      000000DFH   SFRSYM    DATA     BYTE      IP3
      000000F4H   SFRSYM    DATA     BYTE      USBCON
      000000B5H   SFRSYM    DATA     BYTE      IP2
      000000FFH   SFRSYM    DATA     BYTE      RSTCFG
      000000C7H   SFRSYM    DATA     BYTE      IAP_CONTR
      000000F9H   SFRSYM    DATA     BYTE      LINICR
      0000008EH   SFRSYM    DATA     BYTE      AUXR
      000000AFH   SFRSYM    DATA     BYTE      IE2
      00000088H   SFRSYM    DATA     BYTE      TCON
      00000089H   SFRSYM    DATA     BYTE      TMOD
      00000098H   SFRSYM    DATA     BYTE      SCON
      000000F1H   SFRSYM    DATA     BYTE      CANICR
      00000087H   SFRSYM    DATA     BYTE      PCON
      000000BCH   SFRSYM    DATA     BYTE      ADC_CONTR
      000000E7H   SFRSYM    DATA     BYTE      CMPCR2
      000000E6H   SFRSYM    DATA     BYTE      CMPCR1
      000000DEH   SFRSYM    DATA     BYTE      ADCCFG
      000000B8H   SFRSYM    DATA     BYTE      IP
      0000008FH   SFRSYM    DATA     BYTE      INTCLKO
      000000EEH   SFRSYM    DATA     BYTE      IP3H
      000000B6H   SFRSYM    DATA     BYTE      IP2H
      000000A8H   SFRSYM    DATA     BYTE      IE
      000000BBH   SFRSYM    DATA     BYTE      P_SW3
      000000BAH   SFRSYM    DATA     BYTE      P_SW2
      000000A2H   SFRSYM    DATA     BYTE      P_SW1
      000000CEH   SFRSYM    DATA     BYTE      SPCTL
      000000F8H   SFRSYM    DATA     BYTE      P7
      000000E8H   SFRSYM    DATA     BYTE      P6
      000000C8H   SFRSYM    DATA     BYTE      P5
      000000C0H   SFRSYM    DATA     BYTE      P4
      000000B0H   SFRSYM    DATA     BYTE      P3
      000000A0H   SFRSYM    DATA     BYTE      P2
      00000090H   SFRSYM    DATA     BYTE      P1
L251 LINKER/LOCATER V4.66.93.0                                                        05/06/2026  19:47:11  PAGE 130


      00000080H   SFRSYM    DATA     BYTE      P0

      00FF8FFDH   BLOCK     CODE     ---       LVL=0
      00FF8FFDH   LINE      CODE     ---       #20
      00FF8FFDH   LINE      CODE     ---       #22
      00FF9007H   LINE      CODE     ---       #23
      00FF9011H   LINE      CODE     ---       #24
      00FF902FH   LINE      CODE     ---       #25
      00FF904FH   LINE      CODE     ---       #27
      00FF905CH   LINE      CODE     ---       #28
      00FF906BH   LINE      CODE     ---       #29
      ---         BLOCKEND  ---      ---       LVL=0

      00FF897BH   BLOCK     CODE     ---       LVL=0
      00FF897BH   LINE      CODE     ---       #31
      00FF897BH   LINE      CODE     ---       #33
      00FF897EH   LINE      CODE     ---       #34
      00FF8981H   LINE      CODE     ---       #35
      00FF8990H   LINE      CODE     ---       #36
      00FF899EH   LINE      CODE     ---       #38
      00FF89A1H   LINE      CODE     ---       #39
      00FF89B0H   LINE      CODE     ---       #40
      00FF89BEH   LINE      CODE     ---       #42
      00FF89C9H   LINE      CODE     ---       #43
      00FF89EEH   LINE      CODE     ---       #44
      00FF89F1H   LINE      CODE     ---       #45
      00FF89F9H   LINE      CODE     ---       #46
      00FF8A01H   LINE      CODE     ---       #47
      00FF8A01H   LINE      CODE     ---       #48
      00FF8A04H   LINE      CODE     ---       #49
      00FF8A07H   LINE      CODE     ---       #50
      ---         BLOCKEND  ---      ---       LVL=0

      00FF0016H   BLOCK     CODE     ---       LVL=0
      00FF0016H   LINE      CODE     ---       #53
      00FF0016H   LINE      CODE     ---       #55
      00FF0019H   LINE      CODE     ---       #56
      ---         BLOCKEND  ---      ---       LVL=0

      ---         MODULE    ---      ---       moto
      00FF8A08H   PUBLIC    CODE     ---       Motor_SetSpeed
      00FF9A0AH   PUBLIC    CODE     ---       ABS
      000000D0H   SFRSYM    DATA     BYTE      PSW
      0000009DH   SFRSYM    DATA     BYTE      IRCBAND
      00000097H   SFRSYM    DATA     BYTE      AUXR2
      000000EFH   SFRSYM    DATA     BYTE      AUXINTIF
      000000FDH   SFRSYM    DATA     BYTE      S4CON
      000000ACH   SFRSYM    DATA     BYTE      S3CON
      0000009AH   SFRSYM    DATA     BYTE      S2CON
      000000B7H   SFRSYM    DATA     BYTE      IPH
      000000CDH   SFRSYM    DATA     BYTE      SPSTAT
      000000DDH   SFRSYM    DATA     BYTE      T4T3M
      000000C1H   SFRSYM    DATA     BYTE      WDT_CONTR
      000000DFH   SFRSYM    DATA     BYTE      IP3
      000000F4H   SFRSYM    DATA     BYTE      USBCON
      000000B5H   SFRSYM    DATA     BYTE      IP2
      000000FFH   SFRSYM    DATA     BYTE      RSTCFG
      000000C7H   SFRSYM    DATA     BYTE      IAP_CONTR
      000000F9H   SFRSYM    DATA     BYTE      LINICR
      0000008EH   SFRSYM    DATA     BYTE      AUXR
      000000AFH   SFRSYM    DATA     BYTE      IE2
      00000088H   SFRSYM    DATA     BYTE      TCON
      00000089H   SFRSYM    DATA     BYTE      TMOD
      00000098H   SFRSYM    DATA     BYTE      SCON
      000000F1H   SFRSYM    DATA     BYTE      CANICR
L251 LINKER/LOCATER V4.66.93.0                                                        05/06/2026  19:47:11  PAGE 131


      00000087H   SFRSYM    DATA     BYTE      PCON
      000000BCH   SFRSYM    DATA     BYTE      ADC_CONTR
      000000E7H   SFRSYM    DATA     BYTE      CMPCR2
      000000E6H   SFRSYM    DATA     BYTE      CMPCR1
      000000DEH   SFRSYM    DATA     BYTE      ADCCFG
      000000B8H   SFRSYM    DATA     BYTE      IP
      0000008FH   SFRSYM    DATA     BYTE      INTCLKO
      000000EEH   SFRSYM    DATA     BYTE      IP3H
      000000B6H   SFRSYM    DATA     BYTE      IP2H
      000000A8H   SFRSYM    DATA     BYTE      IE
      000000BBH   SFRSYM    DATA     BYTE      P_SW3
      000000BAH   SFRSYM    DATA     BYTE      P_SW2
      000000A2H   SFRSYM    DATA     BYTE      P_SW1
      000000CEH   SFRSYM    DATA     BYTE      SPCTL
      000000F8H   SFRSYM    DATA     BYTE      P7
      000000E8H   SFRSYM    DATA     BYTE      P6
      000000C8H   SFRSYM    DATA     BYTE      P5
      000000C0H   SFRSYM    DATA     BYTE      P4
      000000B0H   SFRSYM    DATA     BYTE      P3
      000000A0H   SFRSYM    DATA     BYTE      P2
      00000090H   SFRSYM    DATA     BYTE      P1
      00000080H   SFRSYM    DATA     BYTE      P0

      00FF9A0AH   BLOCK     CODE     ---       LVL=0
      00011FFEH   SYMBOL    XDATA    INT       P
      00FF9A0AH   LINE      CODE     ---       #2
      00FF9A10H   LINE      CODE     ---       #4
      00FF9A1CH   LINE      CODE     ---       #5
      00FF9A24H   LINE      CODE     ---       #7
      00FF9A30H   LINE      CODE     ---       #8
      ---         BLOCKEND  ---      ---       LVL=0

      00FF8A08H   BLOCK     CODE     ---       LVL=0
      00011F8AH   SYMBOL    XDATA    INT       speed_left
      00011F8CH   SYMBOL    XDATA    INT       speed_right
      00FF8A08H   LINE      CODE     ---       #10
      00FF8A14H   LINE      CODE     ---       #13
      00FF8A20H   LINE      CODE     ---       #15
      00FF8A28H   LINE      CODE     ---       #16
      00FF8A2AH   LINE      CODE     ---       #17
      00FF8A36H   LINE      CODE     ---       #19
      00FF8A3FH   LINE      CODE     ---       #20
      00FF8A3FH   LINE      CODE     ---       #23
      00FF8A4BH   LINE      CODE     ---       #25
      00FF8A53H   LINE      CODE     ---       #26
      00FF8A55H   LINE      CODE     ---       #27
      00FF8A61H   LINE      CODE     ---       #29
      00FF8A6AH   LINE      CODE     ---       #30
      00FF8A6AH   LINE      CODE     ---       #32
      00FF8A7EH   LINE      CODE     ---       #34
      00FF8A92H   LINE      CODE     ---       #35
      ---         BLOCKEND  ---      ---       LVL=0
      00011E7BH   SYMBOL    XDATA    ---       inductance_norm_data
      00011E7FH   SYMBOL    XDATA    WORD      sum

      ---         MODULE    ---      ---       led
      000000D0H   SFRSYM    DATA     BYTE      PSW
      0000009DH   SFRSYM    DATA     BYTE      IRCBAND
      00000097H   SFRSYM    DATA     BYTE      AUXR2
      000000EFH   SFRSYM    DATA     BYTE      AUXINTIF
      000000FDH   SFRSYM    DATA     BYTE      S4CON
      000000ACH   SFRSYM    DATA     BYTE      S3CON
      0000009AH   SFRSYM    DATA     BYTE      S2CON
      000000B7H   SFRSYM    DATA     BYTE      IPH
      000000CDH   SFRSYM    DATA     BYTE      SPSTAT
L251 LINKER/LOCATER V4.66.93.0                                                        05/06/2026  19:47:11  PAGE 132


      000000DDH   SFRSYM    DATA     BYTE      T4T3M
      000000C1H   SFRSYM    DATA     BYTE      WDT_CONTR
      000000DFH   SFRSYM    DATA     BYTE      IP3
      000000F4H   SFRSYM    DATA     BYTE      USBCON
      000000B5H   SFRSYM    DATA     BYTE      IP2
      000000FFH   SFRSYM    DATA     BYTE      RSTCFG
      000000C7H   SFRSYM    DATA     BYTE      IAP_CONTR
      000000F9H   SFRSYM    DATA     BYTE      LINICR
      0000008EH   SFRSYM    DATA     BYTE      AUXR
      000000AFH   SFRSYM    DATA     BYTE      IE2
      00000088H   SFRSYM    DATA     BYTE      TCON
      00000089H   SFRSYM    DATA     BYTE      TMOD
      00000098H   SFRSYM    DATA     BYTE      SCON
      000000F1H   SFRSYM    DATA     BYTE      CANICR
      00000087H   SFRSYM    DATA     BYTE      PCON
      000000BCH   SFRSYM    DATA     BYTE      ADC_CONTR
      000000E7H   SFRSYM    DATA     BYTE      CMPCR2
      000000E6H   SFRSYM    DATA     BYTE      CMPCR1
      000000DEH   SFRSYM    DATA     BYTE      ADCCFG
      000000B8H   SFRSYM    DATA     BYTE      IP
      0000008FH   SFRSYM    DATA     BYTE      INTCLKO
      000000EEH   SFRSYM    DATA     BYTE      IP3H
      000000B6H   SFRSYM    DATA     BYTE      IP2H
      000000A8H   SFRSYM    DATA     BYTE      IE
      000000BBH   SFRSYM    DATA     BYTE      P_SW3
      000000BAH   SFRSYM    DATA     BYTE      P_SW2
      000000A2H   SFRSYM    DATA     BYTE      P_SW1
      000000CEH   SFRSYM    DATA     BYTE      SPCTL
      000000F8H   SFRSYM    DATA     BYTE      P7
      000000E8H   SFRSYM    DATA     BYTE      P6
      000000C8H   SFRSYM    DATA     BYTE      P5
      000000C0H   SFRSYM    DATA     BYTE      P4
      000000B0H   SFRSYM    DATA     BYTE      P3
      000000A0H   SFRSYM    DATA     BYTE      P2
      00000090H   SFRSYM    DATA     BYTE      P1
      00000080H   SFRSYM    DATA     BYTE      P0
      00012000H   SYMBOL    XDATA    INT       pin
      00012002H   SYMBOL    XDATA    INT       pin
      00012004H   SYMBOL    XDATA    INT       pin

      ---         MODULE    ---      ---       trank
      00FF91A3H   PUBLIC    CODE     ---       Dir_Control_gyro
      00FF7107H   PUBLIC    CODE     ---       Calculate_Differential_Drive
      00FF56B0H   PUBLIC    CODE     ---       PID_Calc
      00FF8B1CH   PUBLIC    CODE     ---       Dual_Loop_Control
      00FF5B15H   PUBLIC    CODE     ---       IncPID_Calc
      00FF68CCH   PUBLIC    CODE     ---       PID_Init
      00FF8032H   PUBLIC    CODE     ---       Dir_Control
      00010711H   PUBLIC    XDATA    FLOAT     eleOut_0
      00010715H   PUBLIC    XDATA    FLOAT     eleOut_1
      00010719H   PUBLIC    XDATA    LONG      speed_right
      0001071DH   PUBLIC    XDATA    FLOAT     Turn_target
      00010721H   PUBLIC    XDATA    LONG      speed_left
      00010725H   PUBLIC    XDATA    ---       right_spid
      00010769H   PUBLIC    XDATA    FLOAT     eleValue
      0001076DH   PUBLIC    XDATA    ---       left_spid
      000107B1H   PUBLIC    XDATA    INT       Gyro_Z
      000107B3H   PUBLIC    XDATA    ---       Gyro_PID
      000107F7H   PUBLIC    XDATA    ---       Turn_PID
      0001083BH   PUBLIC    XDATA    FLOAT     elemid
      0001136FH   PUBLIC    XDATA    BYTE      ?PID_Init?BYTE
      00011A97H   PUBLIC    XDATA    BYTE      ?PID_Calc?BYTE
      000000D0H   SFRSYM    DATA     BYTE      PSW
      0000009DH   SFRSYM    DATA     BYTE      IRCBAND
      00000097H   SFRSYM    DATA     BYTE      AUXR2
L251 LINKER/LOCATER V4.66.93.0                                                        05/06/2026  19:47:11  PAGE 133


      000000EFH   SFRSYM    DATA     BYTE      AUXINTIF
      000000FDH   SFRSYM    DATA     BYTE      S4CON
      000000ACH   SFRSYM    DATA     BYTE      S3CON
      0000009AH   SFRSYM    DATA     BYTE      S2CON
      000000B7H   SFRSYM    DATA     BYTE      IPH
      000000CDH   SFRSYM    DATA     BYTE      SPSTAT
      000000DDH   SFRSYM    DATA     BYTE      T4T3M
      000000C1H   SFRSYM    DATA     BYTE      WDT_CONTR
      000000DFH   SFRSYM    DATA     BYTE      IP3
      000000F4H   SFRSYM    DATA     BYTE      USBCON
      000000B5H   SFRSYM    DATA     BYTE      IP2
      000000FFH   SFRSYM    DATA     BYTE      RSTCFG
      000000C7H   SFRSYM    DATA     BYTE      IAP_CONTR
      000000F9H   SFRSYM    DATA     BYTE      LINICR
      0000008EH   SFRSYM    DATA     BYTE      AUXR
      000000AFH   SFRSYM    DATA     BYTE      IE2
      00000088H   SFRSYM    DATA     BYTE      TCON
      00000089H   SFRSYM    DATA     BYTE      TMOD
      00000098H   SFRSYM    DATA     BYTE      SCON
      000000F1H   SFRSYM    DATA     BYTE      CANICR
      00000087H   SFRSYM    DATA     BYTE      PCON
      000000BCH   SFRSYM    DATA     BYTE      ADC_CONTR
      000000E7H   SFRSYM    DATA     BYTE      CMPCR2
      000000E6H   SFRSYM    DATA     BYTE      CMPCR1
      000000DEH   SFRSYM    DATA     BYTE      ADCCFG
      000000B8H   SFRSYM    DATA     BYTE      IP
      0000008FH   SFRSYM    DATA     BYTE      INTCLKO
      000000EEH   SFRSYM    DATA     BYTE      IP3H
      000000B6H   SFRSYM    DATA     BYTE      IP2H
      000000A8H   SFRSYM    DATA     BYTE      IE
      000000BBH   SFRSYM    DATA     BYTE      P_SW3
      000000BAH   SFRSYM    DATA     BYTE      P_SW2
      000000A2H   SFRSYM    DATA     BYTE      P_SW1
      000000CEH   SFRSYM    DATA     BYTE      SPCTL
      000000F8H   SFRSYM    DATA     BYTE      P7
      000000E8H   SFRSYM    DATA     BYTE      P6
      000000C8H   SFRSYM    DATA     BYTE      P5
      000000C0H   SFRSYM    DATA     BYTE      P4
      000000B0H   SFRSYM    DATA     BYTE      P3
      000000A0H   SFRSYM    DATA     BYTE      P2
      00000090H   SFRSYM    DATA     BYTE      P1
      00000080H   SFRSYM    DATA     BYTE      P0

      00FF68CCH   BLOCK     CODE     ---       LVL=0
      0001136FH   SYMBOL    XDATA    ---       pid
      00011373H   SYMBOL    XDATA    FLOAT     kp
      00011377H   SYMBOL    XDATA    FLOAT     kp2
      0001137BH   SYMBOL    XDATA    FLOAT     ki
      0001137FH   SYMBOL    XDATA    FLOAT     kd
      00011383H   SYMBOL    XDATA    FLOAT     max_out
      00011387H   SYMBOL    XDATA    FLOAT     max_i
      00FF68CCH   LINE      CODE     ---       #28
      00FF68E0H   LINE      CODE     ---       #30
      00FF68FBH   LINE      CODE     ---       #31
      00FF691AH   LINE      CODE     ---       #33
      00FF6937H   LINE      CODE     ---       #34
      00FF6956H   LINE      CODE     ---       #35
      00FF6976H   LINE      CODE     ---       #36
      00FF6996H   LINE      CODE     ---       #38
      00FF69ADH   LINE      CODE     ---       #39
      00FF69C4H   LINE      CODE     ---       #40
      00FF69DBH   LINE      CODE     ---       #41
      00FF69F2H   LINE      CODE     ---       #42
      00FF6A09H   LINE      CODE     ---       #43
      00FF6A20H   LINE      CODE     ---       #44
L251 LINKER/LOCATER V4.66.93.0                                                        05/06/2026  19:47:11  PAGE 134


      00FF6A37H   LINE      CODE     ---       #45
      00FF6A4EH   LINE      CODE     ---       #46
      00FF6A65H   LINE      CODE     ---       #47
      00FF6A7CH   LINE      CODE     ---       #48
      00FF6A93H   LINE      CODE     ---       #51
      ---         BLOCKEND  ---      ---       LVL=0

      00FF56B0H   BLOCK     CODE     ---       LVL=0
      00011A97H   SYMBOL    XDATA    ---       pid
      00011A9BH   SYMBOL    XDATA    FLOAT     target
      00011A9FH   SYMBOL    XDATA    FLOAT     measure
      00FF56B0H   LINE      CODE     ---       #56
      00FF56C4H   LINE      CODE     ---       #58
      00FF56E8H   LINE      CODE     ---       #59
      00FF5707H   LINE      CODE     ---       #62
      00FF5750H   LINE      CODE     ---       #65
      00FF5790H   LINE      CODE     ---       #66
      00FF57F3H   LINE      CODE     ---       #69
      00FF5851H   LINE      CODE     ---       #73
      00FF58ADH   LINE      CODE     ---       #75
      00FF58D7H   LINE      CODE     ---       #77
      00FF58ECH   LINE      CODE     ---       #78
      ---         BLOCKEND  ---      ---       LVL=0

      00FF8032H   BLOCK     CODE     ---       LVL=0
      00FF8032H   LINE      CODE     ---       #83
      00FF8032H   LINE      CODE     ---       #86
      00FF805AH   LINE      CODE     ---       #89
      00FF8085H   LINE      CODE     ---       #90
      00FF8087H   LINE      CODE     ---       #91
      00FF8095H   LINE      CODE     ---       #93
      00FF80A7H   LINE      CODE     ---       #94
      00FF80A9H   LINE      CODE     ---       #95
      00FF80B7H   LINE      CODE     ---       #97
      00FF80C9H   LINE      CODE     ---       #98
      00FF80C9H   LINE      CODE     ---       #100
      00FF80FAH   LINE      CODE     ---       #101
      ---         BLOCKEND  ---      ---       LVL=0

      00FF91A3H   BLOCK     CODE     ---       LVL=0
      00FF91A3H   LINE      CODE     ---       #103
      00FF91A3H   LINE      CODE     ---       #105
      00FF91D7H   LINE      CODE     ---       #106
      00FF9208H   LINE      CODE     ---       #107
      ---         BLOCKEND  ---      ---       LVL=0

      00FF7107H   BLOCK     CODE     ---       LVL=0
      00011F8EH   SYMBOL    XDATA    FLOAT     k
      00FF7107H   LINE      CODE     ---       #110
      00FF7107H   LINE      CODE     ---       #111
      00FF7107H   LINE      CODE     ---       #112
      00FF7113H   LINE      CODE     ---       #113
      00FF7132H   LINE      CODE     ---       #114
      00FF715FH   LINE      CODE     ---       #116
      00FF7170H   LINE      CODE     ---       #118
      00FF71A4H   LINE      CODE     ---       #119
      00FF71CFH   LINE      CODE     ---       #120
      00FF71CFH   LINE      CODE     ---       #121
      00FF71E0H   LINE      CODE     ---       #123
      00FF71FAH   LINE      CODE     ---       #124
      00FF7225H   LINE      CODE     ---       #125
      00FF7259H   LINE      CODE     ---       #126
      ---         BLOCKEND  ---      ---       LVL=0

      00FF5B15H   BLOCK     CODE     ---       LVL=0
L251 LINKER/LOCATER V4.66.93.0                                                        05/06/2026  19:47:11  PAGE 135


      00011E81H   SYMBOL    XDATA    ---       pid
      00011E85H   SYMBOL    XDATA    INT       current_speed
      00FF5B15H   LINE      CODE     ---       #131
      00FF5B25H   LINE      CODE     ---       #134
      00FF5B62H   LINE      CODE     ---       #135
      00FF5BA4H   LINE      CODE     ---       #138
      00FF5C16H   LINE      CODE     ---       #141
      00FF5C4AH   LINE      CODE     ---       #143
      00FF5C7CH   LINE      CODE     ---       #144
      00FF5CA9H   LINE      CODE     ---       #145
      00FF5CDFH   LINE      CODE     ---       #146
      00FF5D10H   LINE      CODE     ---       #147
      00FF5D3AH   LINE      CODE     ---       #148
      ---         BLOCKEND  ---      ---       LVL=0

      00FF8B1CH   BLOCK     CODE     ---       LVL=0
      00FF8B1CH   LINE      CODE     ---       #154
      00FF8B1CH   LINE      CODE     ---       #156
      00FF8B35H   LINE      CODE     ---       #157
      00FF8B4AH   LINE      CODE     ---       #159
      00FF8B4FH   LINE      CODE     ---       #160
      00FF8B56H   LINE      CODE     ---       #162
      00FF8B6BH   LINE      CODE     ---       #163
      00FF8B80H   LINE      CODE     ---       #165
      00FF8BA3H   LINE      CODE     ---       #166
      ---         BLOCKEND  ---      ---       LVL=0

      ---         MODULE    ---      ---       inductance
      00FF7619H   PUBLIC    CODE     ---       Inductance_Count_Err2
      00FF74E2H   PUBLIC    CODE     ---       Median_Average_Filter
      00FF8A93H   PUBLIC    CODE     ---       ADC_Normalize_0_100
      00FF6DE9H   PUBLIC    CODE     ---       Inductance_Read
      00FF906CH   PUBLIC    CODE     ---       range_protect_float
      00FF9AA1H   PUBLIC    CODE     ---       Inductance_Init
      00010D08H   PUBLIC    XDATA    FLOAT     STR_PARA
      00010D0CH   PUBLIC    XDATA    ---       inductance_filter_data
      00010D16H   PUBLIC    XDATA    ---       inductance_init_data
      00010D5CH   PUBLIC    XDATA    FLOAT     CUR_PARA
      00011AA3H   PUBLIC    XDATA    BYTE      ?range_protect_float?BYTE
      000000D0H   SFRSYM    DATA     BYTE      PSW
      0000009DH   SFRSYM    DATA     BYTE      IRCBAND
      00000097H   SFRSYM    DATA     BYTE      AUXR2
      000000EFH   SFRSYM    DATA     BYTE      AUXINTIF
      000000FDH   SFRSYM    DATA     BYTE      S4CON
      000000ACH   SFRSYM    DATA     BYTE      S3CON
      0000009AH   SFRSYM    DATA     BYTE      S2CON
      000000B7H   SFRSYM    DATA     BYTE      IPH
      000000CDH   SFRSYM    DATA     BYTE      SPSTAT
      000000DDH   SFRSYM    DATA     BYTE      T4T3M
      000000C1H   SFRSYM    DATA     BYTE      WDT_CONTR
      000000DFH   SFRSYM    DATA     BYTE      IP3
      000000F4H   SFRSYM    DATA     BYTE      USBCON
      000000B5H   SFRSYM    DATA     BYTE      IP2
      000000FFH   SFRSYM    DATA     BYTE      RSTCFG
      000000C7H   SFRSYM    DATA     BYTE      IAP_CONTR
      000000F9H   SFRSYM    DATA     BYTE      LINICR
      0000008EH   SFRSYM    DATA     BYTE      AUXR
      000000AFH   SFRSYM    DATA     BYTE      IE2
      00000088H   SFRSYM    DATA     BYTE      TCON
      00000089H   SFRSYM    DATA     BYTE      TMOD
      00000098H   SFRSYM    DATA     BYTE      SCON
      000000F1H   SFRSYM    DATA     BYTE      CANICR
      00000087H   SFRSYM    DATA     BYTE      PCON
      000000BCH   SFRSYM    DATA     BYTE      ADC_CONTR
      000000E7H   SFRSYM    DATA     BYTE      CMPCR2
L251 LINKER/LOCATER V4.66.93.0                                                        05/06/2026  19:47:11  PAGE 136


      000000E6H   SFRSYM    DATA     BYTE      CMPCR1
      000000DEH   SFRSYM    DATA     BYTE      ADCCFG
      000000B8H   SFRSYM    DATA     BYTE      IP
      0000008FH   SFRSYM    DATA     BYTE      INTCLKO
      000000EEH   SFRSYM    DATA     BYTE      IP3H
      000000B6H   SFRSYM    DATA     BYTE      IP2H
      000000A8H   SFRSYM    DATA     BYTE      IE
      000000BBH   SFRSYM    DATA     BYTE      P_SW3
      000000BAH   SFRSYM    DATA     BYTE      P_SW2
      000000A2H   SFRSYM    DATA     BYTE      P_SW1
      000000CEH   SFRSYM    DATA     BYTE      SPCTL
      000000F8H   SFRSYM    DATA     BYTE      P7
      000000E8H   SFRSYM    DATA     BYTE      P6
      000000C8H   SFRSYM    DATA     BYTE      P5
      000000C0H   SFRSYM    DATA     BYTE      P4
      000000B0H   SFRSYM    DATA     BYTE      P3
      000000A0H   SFRSYM    DATA     BYTE      P2
      00000090H   SFRSYM    DATA     BYTE      P1
      00000080H   SFRSYM    DATA     BYTE      P0
      00011E87H   SYMBOL    XDATA    INT       value
      00011E89H   SYMBOL    XDATA    INT       min_value
      00011E8BH   SYMBOL    XDATA    INT       max_value

      00FF906CH   BLOCK     CODE     ---       LVL=0
      00011AA3H   SYMBOL    XDATA    FLOAT     value
      00011AA7H   SYMBOL    XDATA    FLOAT     min_value
      00011AABH   SYMBOL    XDATA    FLOAT     max_value
      00FF906CH   LINE      CODE     ---       #31
      00FF9080H   LINE      CODE     ---       #33
      00FF90D4H   LINE      CODE     ---       #34
      ---         BLOCKEND  ---      ---       LVL=0

      00FF9AA1H   BLOCK     CODE     ---       LVL=0
      00FF9AA1H   LINE      CODE     ---       #42
      00FF9AA1H   LINE      CODE     ---       #44
      00FF9AAAH   LINE      CODE     ---       #45
      00FF9AB3H   LINE      CODE     ---       #46
      00FF9ABCH   LINE      CODE     ---       #47
      00FF9AC5H   LINE      CODE     ---       #48
      ---         BLOCKEND  ---      ---       LVL=0

      00FF74E2H   BLOCK     CODE     ---       LVL=0
      00011860H   SYMBOL    XDATA    ---       arr
      00011864H   SYMBOL    XDATA    INT       times
      00FF74F2H   BLOCK     CODE     NEAR LAB  LVL=1
      00011866H   SYMBOL    XDATA    INT       min
      00011868H   SYMBOL    XDATA    INT       max
      0001186AH   SYMBOL    XDATA    INT       sum
      0001186CH   SYMBOL    XDATA    INT       i
      ---         BLOCKEND  ---      ---       LVL=1
      00FF74E2H   LINE      CODE     ---       #58
      00FF74F2H   LINE      CODE     ---       #59
      00FF74F2H   LINE      CODE     ---       #61
      00FF7528H   LINE      CODE     ---       #64
      00FF7533H   LINE      CODE     ---       #66
      00FF7554H   LINE      CODE     ---       #67
      00FF7571H   LINE      CODE     ---       #68
      00FF7592H   LINE      CODE     ---       #69
      00FF75AFH   LINE      CODE     ---       #70
      00FF75D1H   LINE      CODE     ---       #71
      00FF75F3H   LINE      CODE     ---       #75
      00FF7618H   LINE      CODE     ---       #76
      ---         BLOCKEND  ---      ---       LVL=0

      00FF8A93H   BLOCK     CODE     ---       LVL=0
L251 LINKER/LOCATER V4.66.93.0                                                        05/06/2026  19:47:11  PAGE 137


      00011D75H   SYMBOL    XDATA    WORD      adc_val
      00011D77H   SYMBOL    XDATA    WORD      adc_max
      00FF8A9FH   BLOCK     CODE     NEAR LAB  LVL=1
      00011D79H   SYMBOL    XDATA    FLOAT     temp
      ---         BLOCKEND  ---      ---       LVL=1
      00FF8A93H   LINE      CODE     ---       #87
      00FF8A9FH   LINE      CODE     ---       #88
      00FF8A9FH   LINE      CODE     ---       #91
      00FF8ACFH   LINE      CODE     ---       #93
      00FF8AE4H   LINE      CODE     ---       #94
      00FF8AF4H   LINE      CODE     ---       #95
      00FF8B05H   LINE      CODE     ---       #96
      00FF8B11H   LINE      CODE     ---       #97
      00FF8B1BH   LINE      CODE     ---       #98
      ---         BLOCKEND  ---      ---       LVL=0
      0001156AH   SYMBOL    XDATA    INT       L
      0001156CH   SYMBOL    XDATA    INT       LM
      0001156EH   SYMBOL    XDATA    INT       RM
      00011570H   SYMBOL    XDATA    INT       R
      00011572H   SYMBOL    XDATA    FLOAT     scaled_err
      00011576H   SYMBOL    XDATA    FLOAT     numerator
      0001157AH   SYMBOL    XDATA    FLOAT     denominator

      00FF7619H   BLOCK     CODE     ---       LVL=0
      0001157EH   SYMBOL    XDATA    INT       L
      00011580H   SYMBOL    XDATA    INT       LM
      00011582H   SYMBOL    XDATA    INT       RM
      00011584H   SYMBOL    XDATA    INT       R
      00FF7631H   BLOCK     CODE     NEAR LAB  LVL=1
      00011586H   SYMBOL    XDATA    FLOAT     scaled_err
      0001158AH   SYMBOL    XDATA    FLOAT     numerator
      0001158EH   SYMBOL    XDATA    FLOAT     denominator
      ---         BLOCKEND  ---      ---       LVL=1
      00FF7619H   LINE      CODE     ---       #122
      00FF7631H   LINE      CODE     ---       #123
      00FF7631H   LINE      CODE     ---       #126
      00FF7691H   LINE      CODE     ---       #127
      00FF76F2H   LINE      CODE     ---       #129
      00FF7713H   LINE      CODE     ---       #131
      00FF7744H   LINE      CODE     ---       #133
      00FF774EH   LINE      CODE     ---       #134
      ---         BLOCKEND  ---      ---       LVL=0

      00FF6DE9H   BLOCK     CODE     ---       LVL=0
      00011EF1H   SYMBOL    XDATA    ---       inductance_norm_data
      00FF6DF3H   BLOCK     CODE     NEAR LAB  LVL=1
      00011EF5H   SYMBOL    XDATA    BYTE      i
      ---         BLOCKEND  ---      ---       LVL=1
      00FF6DE9H   LINE      CODE     ---       #142
      00FF6DF3H   LINE      CODE     ---       #143
      00FF6DF3H   LINE      CODE     ---       #148
      00FF6DFBH   LINE      CODE     ---       #150
      00FF6E1DH   LINE      CODE     ---       #151
      00FF6E3FH   LINE      CODE     ---       #152
      00FF6E61H   LINE      CODE     ---       #153
      00FF6E83H   LINE      CODE     ---       #154
      00FF6E9DH   LINE      CODE     ---       #157
      00FF6EA5H   LINE      CODE     ---       #160
      00FF6EDBH   LINE      CODE     ---       #161
      00FF6EF2H   LINE      CODE     ---       #163
      00FF6F15H   LINE      CODE     ---       #164
      00FF6F38H   LINE      CODE     ---       #165
      00FF6F5DH   LINE      CODE     ---       #166
      00FF6F82H   LINE      CODE     ---       #167
      ---         BLOCKEND  ---      ---       LVL=0
L251 LINKER/LOCATER V4.66.93.0                                                        05/06/2026  19:47:11  PAGE 138



      ---         MODULE    ---      ---       menu
      00FF8DA8H   PUBLIC    CODE     ---       Send_Data_To_PC
      00FF0046H   PUBLIC    CODE     ---       Oscilloscope_Init
      0001095EH   PUBLIC    XDATA    ---       gyro_buffer
      000109BEH   PUBLIC    XDATA    ---       send_buf
      00010A3EH   PUBLIC    XDATA    ---       data_buffer
      0001143FH   PUBLIC    XDATA    BYTE      ?Parameter_Debug?BYTE
      000113DAH   PUBLIC    XDATA    BYTE      ?Oscilloscope_Display?BYTE
      000000D0H   SFRSYM    DATA     BYTE      PSW
      0000009DH   SFRSYM    DATA     BYTE      IRCBAND
      00000097H   SFRSYM    DATA     BYTE      AUXR2
      000000EFH   SFRSYM    DATA     BYTE      AUXINTIF
      000000FDH   SFRSYM    DATA     BYTE      S4CON
      000000ACH   SFRSYM    DATA     BYTE      S3CON
      0000009AH   SFRSYM    DATA     BYTE      S2CON
      000000B7H   SFRSYM    DATA     BYTE      IPH
      000000CDH   SFRSYM    DATA     BYTE      SPSTAT
      000000DDH   SFRSYM    DATA     BYTE      T4T3M
      000000C1H   SFRSYM    DATA     BYTE      WDT_CONTR
      000000DFH   SFRSYM    DATA     BYTE      IP3
      000000F4H   SFRSYM    DATA     BYTE      USBCON
      000000B5H   SFRSYM    DATA     BYTE      IP2
      000000FFH   SFRSYM    DATA     BYTE      RSTCFG
      000000C7H   SFRSYM    DATA     BYTE      IAP_CONTR
      000000F9H   SFRSYM    DATA     BYTE      LINICR
      0000008EH   SFRSYM    DATA     BYTE      AUXR
      000000AFH   SFRSYM    DATA     BYTE      IE2
      00000088H   SFRSYM    DATA     BYTE      TCON
      00000089H   SFRSYM    DATA     BYTE      TMOD
      00000098H   SFRSYM    DATA     BYTE      SCON
      000000F1H   SFRSYM    DATA     BYTE      CANICR
      00000087H   SFRSYM    DATA     BYTE      PCON
      000000BCH   SFRSYM    DATA     BYTE      ADC_CONTR
      000000E7H   SFRSYM    DATA     BYTE      CMPCR2
      000000E6H   SFRSYM    DATA     BYTE      CMPCR1
      000000DEH   SFRSYM    DATA     BYTE      ADCCFG
      000000B8H   SFRSYM    DATA     BYTE      IP
      0000008FH   SFRSYM    DATA     BYTE      INTCLKO
      000000EEH   SFRSYM    DATA     BYTE      IP3H
      000000B6H   SFRSYM    DATA     BYTE      IP2H
      000000A8H   SFRSYM    DATA     BYTE      IE
      000000BBH   SFRSYM    DATA     BYTE      P_SW3
      000000BAH   SFRSYM    DATA     BYTE      P_SW2
      000000A2H   SFRSYM    DATA     BYTE      P_SW1
      000000CEH   SFRSYM    DATA     BYTE      SPCTL
      000000F8H   SFRSYM    DATA     BYTE      P7
      000000E8H   SFRSYM    DATA     BYTE      P6
      000000C8H   SFRSYM    DATA     BYTE      P5
      000000C0H   SFRSYM    DATA     BYTE      P4
      000000B0H   SFRSYM    DATA     BYTE      P3
      000000A0H   SFRSYM    DATA     BYTE      P2
      00000090H   SFRSYM    DATA     BYTE      P1
      00000080H   SFRSYM    DATA     BYTE      P0
      0001097EH   SYMBOL    XDATA    ---       temp_uart_buffer
      00011F92H   SYMBOL    XDATA    ---       inductance_data

      00FF8DA8H   BLOCK     CODE     ---       LVL=0
      00FF8DA8H   LINE      CODE     ---       #71
      00FF8DA8H   LINE      CODE     ---       #78
      00FF8E18H   LINE      CODE     ---       #82
      00FF8E23H   LINE      CODE     ---       #83
      ---         BLOCKEND  ---      ---       LVL=0
      0001143FH   SYMBOL    XDATA    ---       param1
      00011443H   SYMBOL    XDATA    ---       param2
L251 LINKER/LOCATER V4.66.93.0                                                        05/06/2026  19:47:11  PAGE 139


      00011447H   SYMBOL    XDATA    ---       param3
      0001144BH   SYMBOL    XDATA    ---       param4
      0001144FH   SYMBOL    XDATA    ---       target1
      00011453H   SYMBOL    XDATA    ---       target2
      00011457H   SYMBOL    XDATA    BYTE      i

      00FF0046H   BLOCK     CODE     ---       LVL=0
      00FF0046H   LINE      CODE     ---       #111
      00FF0046H   LINE      CODE     ---       #113
      00FF0050H   LINE      CODE     ---       #114
      ---         BLOCKEND  ---      ---       LVL=0
      000113DAH   SYMBOL    XDATA    FLOAT     num1
      000113DEH   SYMBOL    XDATA    FLOAT     num2
      000113E2H   SYMBOL    XDATA    FLOAT     num3
      000113E6H   SYMBOL    XDATA    INT       num4
      000113E8H   SYMBOL    XDATA    INT       num5
      000113EAH   SYMBOL    XDATA    INT       num6
      000113ECH   SYMBOL    XDATA    FLOAT     num7
      000113F0H   SYMBOL    XDATA    FLOAT     num8

      ---         MODULE    ---      ---       element
      00FF5181H   PUBLIC    CODE     ---       Element_Control
      00011D7DH   PUBLIC    XDATA    WORD      times
      00011D7FH   PUBLIC    XDATA    FLOAT     Nowangel
      00011D83H   PUBLIC    XDATA    INT       TrackState
      000000D0H   SFRSYM    DATA     BYTE      PSW
      0000009DH   SFRSYM    DATA     BYTE      IRCBAND
      00000097H   SFRSYM    DATA     BYTE      AUXR2
      000000EFH   SFRSYM    DATA     BYTE      AUXINTIF
      000000FDH   SFRSYM    DATA     BYTE      S4CON
      000000ACH   SFRSYM    DATA     BYTE      S3CON
      0000009AH   SFRSYM    DATA     BYTE      S2CON
      000000B7H   SFRSYM    DATA     BYTE      IPH
      000000CDH   SFRSYM    DATA     BYTE      SPSTAT
      000000DDH   SFRSYM    DATA     BYTE      T4T3M
      000000C1H   SFRSYM    DATA     BYTE      WDT_CONTR
      000000DFH   SFRSYM    DATA     BYTE      IP3
      000000F4H   SFRSYM    DATA     BYTE      USBCON
      000000B5H   SFRSYM    DATA     BYTE      IP2
      000000FFH   SFRSYM    DATA     BYTE      RSTCFG
      000000C7H   SFRSYM    DATA     BYTE      IAP_CONTR
      000000F9H   SFRSYM    DATA     BYTE      LINICR
      0000008EH   SFRSYM    DATA     BYTE      AUXR
      000000AFH   SFRSYM    DATA     BYTE      IE2
      00000088H   SFRSYM    DATA     BYTE      TCON
      00000089H   SFRSYM    DATA     BYTE      TMOD
      00000098H   SFRSYM    DATA     BYTE      SCON
      000000F1H   SFRSYM    DATA     BYTE      CANICR
      00000087H   SFRSYM    DATA     BYTE      PCON
      000000BCH   SFRSYM    DATA     BYTE      ADC_CONTR
      000000E7H   SFRSYM    DATA     BYTE      CMPCR2
      000000E6H   SFRSYM    DATA     BYTE      CMPCR1
      000000DEH   SFRSYM    DATA     BYTE      ADCCFG
      000000B8H   SFRSYM    DATA     BYTE      IP
      0000008FH   SFRSYM    DATA     BYTE      INTCLKO
      000000EEH   SFRSYM    DATA     BYTE      IP3H
      000000B6H   SFRSYM    DATA     BYTE      IP2H
      000000A8H   SFRSYM    DATA     BYTE      IE
      000000BBH   SFRSYM    DATA     BYTE      P_SW3
      000000BAH   SFRSYM    DATA     BYTE      P_SW2
      000000A2H   SFRSYM    DATA     BYTE      P_SW1
      000000CEH   SFRSYM    DATA     BYTE      SPCTL
      000000F8H   SFRSYM    DATA     BYTE      P7
      000000E8H   SFRSYM    DATA     BYTE      P6
      000000C8H   SFRSYM    DATA     BYTE      P5
L251 LINKER/LOCATER V4.66.93.0                                                        05/06/2026  19:47:11  PAGE 140


      000000C0H   SFRSYM    DATA     BYTE      P4
      000000B0H   SFRSYM    DATA     BYTE      P3
      000000A0H   SFRSYM    DATA     BYTE      P2
      00000090H   SFRSYM    DATA     BYTE      P1
      00000080H   SFRSYM    DATA     BYTE      P0

      00FF5181H   BLOCK     CODE     ---       LVL=0
      00011F96H   SYMBOL    XDATA    ---       param
      00FF5181H   LINE      CODE     ---       #11
      00FF518BH   LINE      CODE     ---       #14
      00FF51C4H   LINE      CODE     ---       #16
      00FF51C4H   LINE      CODE     ---       #18
      00FF51F6H   LINE      CODE     ---       #20
      00FF5205H   LINE      CODE     ---       #21
      00FF5216H   LINE      CODE     ---       #23
      00FF5220H   LINE      CODE     ---       #24
      00FF5228H   LINE      CODE     ---       #25
      00FF522BH   LINE      CODE     ---       #29
      00FF525FH   LINE      CODE     ---       #31
      00FF526EH   LINE      CODE     ---       #32
      00FF527FH   LINE      CODE     ---       #34
      00FF5289H   LINE      CODE     ---       #35
      00FF5291H   LINE      CODE     ---       #36
      00FF5291H   LINE      CODE     ---       #38
      00FF5294H   LINE      CODE     ---       #40
      00FF5294H   LINE      CODE     ---       #41
      00FF52CAH   LINE      CODE     ---       #43
      00FF52D9H   LINE      CODE     ---       #44
      00FF52EAH   LINE      CODE     ---       #46
      00FF52F4H   LINE      CODE     ---       #47
      00FF5308H   LINE      CODE     ---       #48
      00FF5310H   LINE      CODE     ---       #49
      00FF5310H   LINE      CODE     ---       #51
      00FF5313H   LINE      CODE     ---       #53
      00FF5313H   LINE      CODE     ---       #54
      00FF5343H   LINE      CODE     ---       #56
      00FF5352H   LINE      CODE     ---       #57
      00FF5360H   LINE      CODE     ---       #59
      00FF536AH   LINE      CODE     ---       #60
      00FF537EH   LINE      CODE     ---       #61
      00FF5386H   LINE      CODE     ---       #62
      00FF5386H   LINE      CODE     ---       #65
      00FF5386H   LINE      CODE     ---       #66
      00FF5386H   LINE      CODE     ---       #68
      00FF53AEH   LINE      CODE     ---       #70
      00FF53B8H   LINE      CODE     ---       #71
      00FF53B8H   LINE      CODE     ---       #72
      00FF53BAH   LINE      CODE     ---       #74
      00FF53BAH   LINE      CODE     ---       #76
      00FF53DFH   LINE      CODE     ---       #78
      00FF53E9H   LINE      CODE     ---       #79
      00FF53FDH   LINE      CODE     ---       #80
      00FF53FDH   LINE      CODE     ---       #81
      00FF53FFH   LINE      CODE     ---       #83
      00FF53FFH   LINE      CODE     ---       #85
      00FF5424H   LINE      CODE     ---       #87
      00FF542CH   LINE      CODE     ---       #88
      00FF542CH   LINE      CODE     ---       #89
      00FF542CH   LINE      CODE     ---       #90
      00FF542CH   LINE      CODE     ---       #91
      ---         BLOCKEND  ---      ---       LVL=0

      ---         MODULE    ---      ---       ?C?FPADD
      00FF21D4H   PUBLIC    CODE     ---       ?C?FPADD
      00FF21D1H   PUBLIC    CODE     ---       ?C?FPSUB
L251 LINKER/LOCATER V4.66.93.0                                                        05/06/2026  19:47:11  PAGE 141



      ---         MODULE    ---      ---       ?C?FPMUL
      00FF228CH   PUBLIC    CODE     ---       ?C?FPMUL

      ---         MODULE    ---      ---       ?C?FPDIV
      00FF232CH   PUBLIC    CODE     ---       ?C?FPDIV

      ---         MODULE    ---      ---       ?C?FPCMP
      00FF23AFH   PUBLIC    CODE     ---       ?C?FPCMP
      00FF23ADH   PUBLIC    CODE     ---       ?C?FPCMP3

      ---         MODULE    ---      ---       ?C?FPNEG
      00FF23F3H   PUBLIC    CODE     ---       ?C?FPNEG

      ---         MODULE    ---      ---       ?C?FCAST
      00FF240BH   PUBLIC    CODE     NEAR LAB  ?C?FCASTC
      00FF2406H   PUBLIC    CODE     NEAR LAB  ?C?FCASTI
      00FF2401H   PUBLIC    CODE     NEAR LAB  ?C?FCASTL

      ---         MODULE    ---      ---       ?C?CASTF
      00FF243EH   PUBLIC    CODE     NEAR LAB  ?C?CASTF

      ---         MODULE    ---      ---       PRINTF
      000111F6H   PUBLIC    XDATA    ---       ?PRINTF?BYTE
      00FF247BH   PUBLIC    CODE     NEAR LAB  PRINTF

      ---         MODULE    ---      ---       SPRINTF
      000111F6H   PUBLIC    XDATA    ---       ?SPRINTF?BYTE
      00FF24A7H   PUBLIC    CODE     NEAR LAB  SPRINTF

      ---         MODULE    ---      ---       SQRT?_
      00FF24C7H   PUBLIC    CODE     ---       SQRT?_

      ---         MODULE    ---      ---       pow

      ---         MODULE    ---      ---       SIN?_
      00FF259FH   PUBLIC    CODE     ---       COS?_
      00FF25BCH   PUBLIC    CODE     ---       SIN?_
      00FF25E9H   PUBLIC    CODE     ---       TAN?_

      ---         MODULE    ---      ---       ATAN?_
      00FF26AFH   PUBLIC    CODE     ---       ATAN?_

      ---         MODULE    ---      ---       ASIN?_
      00FF2781H   PUBLIC    CODE     ---       ASIN?_

      ---         MODULE    ---      ---       ?C?FPGETOPN
      00FF27A1H   PUBLIC    CODE     ---       ?C?FPGETOPN2
      00FF27DEH   PUBLIC    CODE     ---       ?C?FPNANRESULT
      00FF27E6H   PUBLIC    CODE     ---       ?C?FPOVERFLOW
      00FF27BAH   PUBLIC    CODE     ---       ?C?FPRESULT
      00FF27D0H   PUBLIC    CODE     ---       ?C?FPRESULT2
      00FF27E3H   PUBLIC    CODE     ---       ?C?FPUNDERFLOW

      ---         MODULE    ---      ---       _CHKFLOAT_?_
      00FF27F2H   PUBLIC    CODE     ---       _CHKFLOAT_?_

      ---         MODULE    ---      ---       ?C?PRNFMT
      00FF283CH   PUBLIC    CODE     ---       ?C?PRNFMT

      ---         MODULE    ---      ---       ?C?FPSERIES
      00FF2C4BH   PUBLIC    CODE     ---       ?C?FP2SERIES
      00FF2C54H   PUBLIC    CODE     ---       ?C?FPSERIES

      ---         MODULE    ---      ---       EXP?_
L251 LINKER/LOCATER V4.66.93.0                                                        05/06/2026  19:47:11  PAGE 142


      00FF2CB1H   PUBLIC    CODE     ---       EXP?_

      ---         MODULE    ---      ---       LOG?_
      00FF2D40H   PUBLIC    CODE     NEAR LAB  LOG?_

      ---         MODULE    ---      ---       ?C?FPCONVERT
      00FF2E13H   PUBLIC    CODE     ---       ?C?FPCONVERT
      00FF2ECBH   PUBLIC    CODE     ---       ?C?FPROUND

      ---         MODULE    ---      ---       ?C?FTNPWR
      00FF2F3EH   PUBLIC    CODE     ---       ?C?FTNPWR

      ---         MODULE    ---      ---       ?C?INITHDATA
      00FF957AH   PUBLIC    CODE     ---       ?C?INITHDATA

      ---         MODULE    ---      ---       ?C?SIDIV
      00FF2F75H   PUBLIC    CODE     ---       ?C?SIDIV

      ---         MODULE    ---      ---       ?C?LMUL
      00FF2FA7H   PUBLIC    CODE     ---       ?C?LMUL

      ---         MODULE    ---      ---       ?C?LIMUL
      00FF2FB8H   PUBLIC    CODE     ---       ?C?LIMUL

      ---         MODULE    ---      ---       ?C?ULDIV
      00FF2FC3H   PUBLIC    CODE     NEAR LAB  ?C?ULDIV
      00FF2FC1H   PUBLIC    CODE     NEAR LAB  ?C?ULIDIV

      ---         MODULE    ---      ---       ?C?SLDIV
      00FF3014H   PUBLIC    CODE     NEAR LAB  ?C?SLDIV

      ---         MODULE    ---      ---       ?C?BMOVEPP
      00FF304AH   PUBLIC    CODE     ---       ?C?BMOVEPP
      00FF3048H   PUBLIC    CODE     ---       ?C?BMOVEPP8

      ---         MODULE    ---      ---       STRNCMP

      ---         MODULE    ---      ---       STRNCPY

      ---         MODULE    ---      ---       STRLEN
      00FF9B59H   PUBLIC    CODE     ---       strlen?_

      ---         MODULE    ---      ---       STRCHR

      ---         MODULE    ---      ---       memcpy
      00FF9AC6H   PUBLIC    CODE     ---       memcpy?_

      ---         MODULE    ---      ---       memset

      ---         MODULE    ---      ---       ?C?INITHDATA_END
      00FFA0B6H   PUBLIC    HCONST   WORD      ?C?INITHDATA_END

Program Size: data=8.4 edata+hdata=2060 xdata=8215 const=4059 code=39708
L251 RUN COMPLETE.  0 WARNING(S),  0 ERROR(S)
