L251 LINKER/LOCATER V4.66.93.0                                                          03/25/2026  17:12:38  PAGE 1


L251 LINKER/LOCATER V4.66.93.0, INVOKED BY:
D:\KEIL_V5\C251\BIN\L251.EXE .\out_file\START251.obj, .\out_file\stc32g_isr.obj, .\out_file\zf_common_clock.obj, .\out_f
>> ile\zf_common_debug.obj, .\out_file\zf_common_fifo.obj, .\out_file\zf_common_font.obj, .\out_file\zf_common_function.
>> obj, .\out_file\zf_common_typedef.obj, .\out_file\zf_common_interrupt.obj, .\out_file\zf_driver_adc.obj, .\out_file\z
>> f_driver_delay.obj, .\out_file\zf_driver_eeprom.obj, .\out_file\zf_driver_encoder.obj, .\out_file\zf_driver_exti.obj,
>>  .\out_file\zf_driver_gpio.obj, .\out_file\zf_driver_pit.obj, .\out_file\zf_driver_pwm.obj, .\out_file\zf_driver_soft
>> _iic.obj, .\out_file\zf_driver_soft_spi.obj, .\out_file\zf_driver_spi.obj, .\out_file\zf_driver_timer.obj, .\out_file
>> \zf_driver_uart.obj, .\out_file\zf_device_ble6a20.obj, .\out_file\zf_device_config.obj, .\out_file\zf_device_dl1a.obj
>> , .\out_file\zf_device_dl1b.obj, .\out_file\zf_device_gps_tau1201.obj, .\out_file\zf_device_icm20602.obj, .\out_file\
>> zf_device_imu660ra.obj, .\out_file\zf_device_imu660rb.obj, .\out_file\zf_device_imu963ra.obj, .\out_file\zf_device_ip
>> s114.obj, .\out_file\zf_device_ips200.obj, .\out_file\zf_device_ips200pro.obj, .\out_file\zf_device_tft180.obj, .\out
>> _file\zf_device_tsl1401.obj, .\out_file\zf_device_type.obj, .\out_file\zf_device_wireless_uart.obj, .\out_file\seekfr
>> ee_assistant.obj, .\out_file\seekfree_assistant_interface.obj, .\out_file\isr.obj, .\out_file\main.obj, .\out_file\im
>> u.obj, .\out_file\eeprom.obj, .\out_file\inductance.obj, .\out_file\voltage_warning.obj, .\out_file\motor.obj, .\out_
>> file\buzzer.obj, .\out_file\led.obj, .\out_file\init.obj, .\out_file\control.obj TO .\out_file\SEEKFREE PRINT (.\out_
>> file\SEEKFREE.map) CASE DISABLEWARNING (57, 16) REMOVEUNUSED CLASSES (EDATA (0X0-0XFFF), HDATA (0X0-0XFFF))


CPU MODE:     251 SOURCE MODE
INTR FRAME:   4 BYTES SAVED ON INTERRUPT
MEMORY MODEL: LARGE WITH FLOATING POINT ARITHMETIC


INPUT MODULES INCLUDED:
  .\out_file\START251.obj (?C_START)
         COMMENT TYPE 0: A251 V4.69.13.0
  .\out_file\stc32g_isr.obj (stc32g_isr)
         COMMENT TYPE 0: A251 V4.69.13.0
  .\out_file\zf_common_clock.obj (zf_common_clock)
         COMMENT TYPE 0: C251 V5.60.0
  .\out_file\zf_common_debug.obj (zf_common_debug)
         COMMENT TYPE 0: C251 V5.60.0
  .\out_file\zf_common_fifo.obj (zf_common_fifo)
         COMMENT TYPE 0: C251 V5.60.0
  .\out_file\zf_common_font.obj (zf_common_font)
         COMMENT TYPE 0: C251 V5.60.0
  .\out_file\zf_common_function.obj (zf_common_function)
         COMMENT TYPE 0: C251 V5.60.0
  .\out_file\zf_common_typedef.obj (zf_common_typedef)
         COMMENT TYPE 0: C251 V5.60.0
  .\out_file\zf_common_interrupt.obj (zf_common_interrupt)
         COMMENT TYPE 0: C251 V5.60.0
  .\out_file\zf_driver_adc.obj (zf_driver_adc)
         COMMENT TYPE 0: C251 V5.60.0
  .\out_file\zf_driver_delay.obj (zf_driver_delay)
         COMMENT TYPE 0: C251 V5.60.0
  .\out_file\zf_driver_eeprom.obj (zf_driver_eeprom)
         COMMENT TYPE 0: C251 V5.60.0
  .\out_file\zf_driver_encoder.obj (zf_driver_encoder)
         COMMENT TYPE 0: C251 V5.60.0
  .\out_file\zf_driver_exti.obj (zf_driver_exti)
         COMMENT TYPE 0: C251 V5.60.0
  .\out_file\zf_driver_gpio.obj (zf_driver_gpio)
         COMMENT TYPE 0: C251 V5.60.0
  .\out_file\zf_driver_pit.obj (zf_driver_pit)
         COMMENT TYPE 0: C251 V5.60.0
  .\out_file\zf_driver_pwm.obj (zf_driver_pwm)
         COMMENT TYPE 0: C251 V5.60.0
  .\out_file\zf_driver_soft_iic.obj (zf_driver_soft_iic)
         COMMENT TYPE 0: C251 V5.60.0
  .\out_file\zf_driver_soft_spi.obj (zf_driver_soft_spi)
         COMMENT TYPE 0: C251 V5.60.0
  .\out_file\zf_driver_spi.obj (zf_driver_spi)
         COMMENT TYPE 0: C251 V5.60.0
  .\out_file\zf_driver_timer.obj (zf_driver_timer)
         COMMENT TYPE 0: C251 V5.60.0
L251 LINKER/LOCATER V4.66.93.0                                                        03/25/2026  17:12:38  PAGE 2


  .\out_file\zf_driver_uart.obj (zf_driver_uart)
         COMMENT TYPE 0: C251 V5.60.0
  .\out_file\zf_device_ble6a20.obj (zf_device_ble6a20)
         COMMENT TYPE 0: C251 V5.60.0
  .\out_file\zf_device_config.obj (zf_device_config)
         COMMENT TYPE 0: C251 V5.60.0
  .\out_file\zf_device_dl1a.obj (zf_device_dl1a)
         COMMENT TYPE 0: C251 V5.60.0
  .\out_file\zf_device_dl1b.obj (zf_device_dl1b)
         COMMENT TYPE 0: C251 V5.60.0
  .\out_file\zf_device_gps_tau1201.obj (zf_device_gps_tau1201)
         COMMENT TYPE 0: C251 V5.60.0
  .\out_file\zf_device_icm20602.obj (zf_device_icm20602)
         COMMENT TYPE 0: C251 V5.60.0
  .\out_file\zf_device_imu660ra.obj (zf_device_imu660ra)
         COMMENT TYPE 0: C251 V5.60.0
  .\out_file\zf_device_imu660rb.obj (zf_device_imu660rb)
         COMMENT TYPE 0: C251 V5.60.0
  .\out_file\zf_device_imu963ra.obj (zf_device_imu963ra)
         COMMENT TYPE 0: C251 V5.60.0
  .\out_file\zf_device_ips114.obj (zf_device_ips114)
         COMMENT TYPE 0: C251 V5.60.0
  .\out_file\zf_device_ips200.obj (zf_device_ips200)
         COMMENT TYPE 0: C251 V5.60.0
  .\out_file\zf_device_ips200pro.obj (zf_device_ips200pro)
         COMMENT TYPE 0: C251 V5.60.0
  .\out_file\zf_device_tft180.obj (zf_device_tft180)
         COMMENT TYPE 0: C251 V5.60.0
  .\out_file\zf_device_tsl1401.obj (zf_device_tsl1401)
         COMMENT TYPE 0: C251 V5.60.0
  .\out_file\zf_device_type.obj (zf_device_type)
         COMMENT TYPE 0: C251 V5.60.0
  .\out_file\zf_device_wireless_uart.obj (zf_device_wireless_uart)
         COMMENT TYPE 0: C251 V5.60.0
  .\out_file\seekfree_assistant.obj (seekfree_assistant)
         COMMENT TYPE 0: C251 V5.60.0
  .\out_file\seekfree_assistant_interface.obj (seekfree_assistant_interface)
         COMMENT TYPE 0: C251 V5.60.0
  .\out_file\isr.obj (isr)
         COMMENT TYPE 0: C251 V5.60.0
  .\out_file\main.obj (main)
         COMMENT TYPE 0: C251 V5.60.0
  .\out_file\imu.obj (imu)
         COMMENT TYPE 0: C251 V5.60.0
  .\out_file\eeprom.obj (eeprom)
         COMMENT TYPE 0: C251 V5.60.0
  .\out_file\inductance.obj (inductance)
         COMMENT TYPE 0: C251 V5.60.0
  .\out_file\voltage_warning.obj (voltage_warning)
         COMMENT TYPE 0: C251 V5.60.0
  .\out_file\motor.obj (motor)
         COMMENT TYPE 0: C251 V5.60.0
  .\out_file\buzzer.obj (buzzer)
         COMMENT TYPE 0: C251 V5.60.0
  .\out_file\led.obj (led)
         COMMENT TYPE 0: C251 V5.60.0
  .\out_file\init.obj (init)
         COMMENT TYPE 0: C251 V5.60.0
  .\out_file\control.obj (control)
         COMMENT TYPE 0: C251 V5.60.0
  D:\KEIL_V5\C251\LIB\C2SFPL.LIB (?C?FPADD)
         COMMENT TYPE 0: A251 V4.69.6.0
  D:\KEIL_V5\C251\LIB\C2SFPL.LIB (?C?FPMUL)
         COMMENT TYPE 0: A251 V4.69.6.0
  D:\KEIL_V5\C251\LIB\C2SFPL.LIB (?C?FPDIV)
L251 LINKER/LOCATER V4.66.93.0                                                        03/25/2026  17:12:38  PAGE 3


         COMMENT TYPE 0: A251 V4.69.6.0
  D:\KEIL_V5\C251\LIB\C2SFPL.LIB (?C?FPCMP)
         COMMENT TYPE 0: A251 V4.69.6.0
  D:\KEIL_V5\C251\LIB\C2SFPL.LIB (?C?FPNEG)
         COMMENT TYPE 0: A251 V4.69.6.0
  D:\KEIL_V5\C251\LIB\C2SFPL.LIB (?C?FCAST)
         COMMENT TYPE 0: A251 V4.69.6.0
  D:\KEIL_V5\C251\LIB\C2SFPL.LIB (?C?CASTF)
         COMMENT TYPE 0: A251 V4.69.6.0
  D:\KEIL_V5\C251\LIB\C2SFPL.LIB (PRINTF)
         COMMENT TYPE 0: A251 V4.69.6.0
  D:\KEIL_V5\C251\LIB\C2SFPL.LIB (SPRINTF)
         COMMENT TYPE 0: A251 V4.69.6.0
  D:\KEIL_V5\C251\LIB\C2SFPL.LIB (SQRT?_)
         COMMENT TYPE 0: A251 V4.69.6.0
  D:\KEIL_V5\C251\LIB\C2SFPL.LIB (pow)
         COMMENT TYPE 0: C251 V5.58.7
  D:\KEIL_V5\C251\LIB\C2SFPL.LIB (SIN?_)
         COMMENT TYPE 0: A251 V4.69.6.0
  D:\KEIL_V5\C251\LIB\C2SFPL.LIB (ATAN?_)
         COMMENT TYPE 0: A251 V4.69.6.0
  D:\KEIL_V5\C251\LIB\C2SFPL.LIB (ASIN?_)
         COMMENT TYPE 0: A251 V4.69.6.0
  D:\KEIL_V5\C251\LIB\C2SFPL.LIB (?C?FPGETOPN)
         COMMENT TYPE 0: A251 V4.69.6.0
  D:\KEIL_V5\C251\LIB\C2SFPL.LIB (_CHKFLOAT_?_)
         COMMENT TYPE 0: A251 V4.69.6.0
  D:\KEIL_V5\C251\LIB\C2SFPL.LIB (?C?PRNFMT)
         COMMENT TYPE 0: A251 V4.69.6.0
  D:\KEIL_V5\C251\LIB\C2SFPL.LIB (?C?FPSERIES)
         COMMENT TYPE 0: A251 V4.69.6.0
  D:\KEIL_V5\C251\LIB\C2SFPL.LIB (EXP?_)
         COMMENT TYPE 0: A251 V4.69.6.0
  D:\KEIL_V5\C251\LIB\C2SFPL.LIB (LOG?_)
         COMMENT TYPE 0: A251 V4.69.6.0
  D:\KEIL_V5\C251\LIB\C2SFPL.LIB (?C?FPCONVERT)
         COMMENT TYPE 0: A251 V4.69.6.0
  D:\KEIL_V5\C251\LIB\C2SFPL.LIB (?C?FTNPWR)
         COMMENT TYPE 0: A251 V4.69.6.0
  D:\KEIL_V5\C251\LIB\C2SL.LIB (?C?INITHDATA)
         COMMENT TYPE 0: A251 V4.69.6.0
  D:\KEIL_V5\C251\LIB\C2SL.LIB (?C?SIDIV)
         COMMENT TYPE 0: A251 V4.69.6.0
  D:\KEIL_V5\C251\LIB\C2SL.LIB (?C?LMUL)
         COMMENT TYPE 0: A251 V4.69.6.0
  D:\KEIL_V5\C251\LIB\C2SL.LIB (?C?LIMUL)
         COMMENT TYPE 0: A251 V4.69.6.0
  D:\KEIL_V5\C251\LIB\C2SL.LIB (?C?ULDIV)
         COMMENT TYPE 0: A251 V4.69.6.0
  D:\KEIL_V5\C251\LIB\C2SL.LIB (?C?SLDIV)
         COMMENT TYPE 0: A251 V4.69.6.0
  D:\KEIL_V5\C251\LIB\C2SL.LIB (?C?BMOVEPP)
         COMMENT TYPE 0: A251 V4.69.6.0
  D:\KEIL_V5\C251\LIB\C2SL.LIB (STRNCMP)
         COMMENT TYPE 0: C251 V5.58.7
  D:\KEIL_V5\C251\LIB\C2SL.LIB (STRNCPY)
         COMMENT TYPE 0: C251 V5.58.7
  D:\KEIL_V5\C251\LIB\C2SL.LIB (STRLEN)
         COMMENT TYPE 0: C251 V5.58.7
  D:\KEIL_V5\C251\LIB\C2SL.LIB (STRCHR)
         COMMENT TYPE 0: C251 V5.58.7
  D:\KEIL_V5\C251\LIB\C2SL.LIB (memcpy)
         COMMENT TYPE 0: C251 V5.58.7
  D:\KEIL_V5\C251\LIB\C2SL.LIB (memset)
         COMMENT TYPE 0: C251 V5.58.7
L251 LINKER/LOCATER V4.66.93.0                                                        03/25/2026  17:12:38  PAGE 4


  D:\KEIL_V5\C251\LIB\C2SL.LIB (?C?INITHDATA_END)
         COMMENT TYPE 0: A251 V4.69.6.0


ACTIVE MEMORY CLASSES OF MODULE:  .\out_file\SEEKFREE (?C_START)

BASE        START       END         USED      MEMORY CLASS
==========================================================
000000H     000000H     000FFFH     00080CH   EDATA
000000H     000000H     000FFFH               HDATA
FF0000H     FF0000H     FFFFFFH     0067AFH   CODE
010000H     010000H     01FFFFH     001D34H   XDATA
000000H     FF0000H     FFFFFFH     000F01H   HCONST
000020H.0   000020H.0   00002FH.7   000000H.4 BIT
FF0000H     FF0000H     FFFFFFH     000004H   CONST
000000H     000000H     00007FH     000008H   DATA


MEMORY MAP OF MODULE:  .\out_file\SEEKFREE (?C_START)


START     STOP      LENGTH    ALIGN  RELOC    MEMORY CLASS   SEGMENT NAME
=========================================================================
000000H   000007H   000008H   ---    AT..     DATA           "REG BANK 0"
000008H   00000FH   000008H   BYTE   UNIT     EDATA          ?ED?DL1A_ENCODE_TIMEOUT?ZF_DEVICE_DL1A
000010H   000013H   000004H   BYTE   UNIT     EDATA          ?ED?ICM20602_SIMSPI_R_REG_BYTES?ZF_DEVICE_ICM20602
000014H.0 00001FH.7 00000CH.0 ---    ---      **GAP**
000020H.0 000020H.0 000000H.1 BIT    UNIT     BIT            ?BI?IAP_READ_BYTE?ZF_DRIVER_EEPROM
000020H.1 000020H.1 000000H.1 BIT    UNIT     BIT            ?BI?IAP_WRITE_BYTE?ZF_DRIVER_EEPROM
000020H.2 000020H.2 000000H.1 BIT    UNIT     BIT            ?BI?IAP_ERASE_PAGE?ZF_DRIVER_EEPROM
000020H.3 000020H.3 000000H.1 BIT    UNIT     BIT            ?BI?SEEKFREE_ASSISTANT_DATA_ANALYSIS?SEEKFREE_ASSISTANT
000020H.4 000020H   000000H.4 ---    ---      **GAP**
000021H   000820H   000800H   BYTE   UNIT     EDATA          ?STACK
000821H   00FFFFH   00F7DFH   ---    ---      **GAP**
010000H   010209H   00020AH   BYTE   UNIT     XDATA          ?XD?EXTERN_IAP_WRITE_BUFF?ZF_DRIVER_EEPROM
01020AH   01040BH   000202H   BYTE   INSEG    XDATA          ?XD?ZF_DEVICE_TSL1401
01040CH   0105D3H   0001C8H   BYTE   INSEG    XDATA          ?XD?ZF_DEVICE_GPS_TAU1201
0105D4H   010710H   00013DH   BYTE   INSEG    XDATA          ?XD?SEEKFREE_ASSISTANT
010711H   01082FH   00011FH   BYTE   INSEG    XDATA          ?XD?IMU
010830H   0108FDH   0000CEH   BYTE   UNIT     XDATA          ?XD?DL1A_INIT?ZF_DEVICE_DL1A
0108FEH   010992H   000095H   BYTE   UNIT     XDATA          ?XD?GPS_INIT?ZF_DEVICE_GPS_TAU1201
010993H   010A21H   00008FH   BYTE   UNIT     XDATA          ?XD?SEEKFREE_ASSISTANT_DATA_ANALYSIS?SEEKFREE_ASSISTANT
010A22H   010A80H   00005FH   BYTE   UNIT     XDATA          ?XD?ZF_SPRINTF?ZF_COMMON_FUNCTION
010A81H   010AD9H   000059H   BYTE   INSEG    XDATA          ?XD?ZF_COMMON_DEBUG
010ADAH   010B30H   000057H   BYTE   INSEG    XDATA          ?XD?ZF_DEVICE_BLE6A20
010B31H   010B87H   000057H   BYTE   INSEG    XDATA          ?XD?ZF_DEVICE_WIRELESS_UART
010B88H   010BDAH   000053H   BYTE   UNIT     XDATA          ?XD?VSNPRINTF?ZF_COMMON_FUNCTION
010BDBH   010C27H   00004DH   BYTE   INSEG    XDATA          ?XD?ZF_DEVICE_IPS200PRO
010C28H   010C72H   00004BH   BYTE   UNIT     XDATA          ?XD?INDUCTANCE_READ?INDUCTANCE
010C73H   010CBCH   00004AH   BYTE   UNIT     XDATA          ?XD?UART_WRITE_BUFFER?ZF_DRIVER_UART
010CBDH   010D01H   000045H   BYTE   UNIT     XDATA          ?XD?IPS200PRO_TABLE_CELL_PRINTF?ZF_DEVICE_IPS200PRO
010D02H   010D40H   00003FH   BYTE   UNIT     XDATA          ?XD?IPS200PRO_LABEL_PRINTF?ZF_DEVICE_IPS200PRO
010D41H   010D78H   000038H   BYTE   UNIT     XDATA          ?XD?FUNC_DOUBLE_TO_STR?ZF_COMMON_FUNCTION
010D79H   010DA8H   000030H   BYTE   UNIT     XDATA          ?XD?GET_TWO_POINTS_DISTANCE?ZF_DEVICE_GPS_TAU1201
010DA9H   010DD8H   000030H   BYTE   UNIT     XDATA          ?XD?IPS114_SHOW_FLOAT?ZF_DEVICE_IPS114
010DD9H   010E08H   000030H   BYTE   UNIT     XDATA          ?XD?IPS200_SHOW_FLOAT?ZF_DEVICE_IPS200
010E09H   010E38H   000030H   BYTE   UNIT     XDATA          ?XD?TFT180_SHOW_FLOAT?ZF_DEVICE_TFT180
010E39H   010E67H   00002FH   BYTE   UNIT     XDATA          ?XD?DL1A_SET_MEASUREMENT_TIMING_BUDGET?ZF_DEVICE_DL1A
010E68H   010E93H   00002CH   BYTE   UNIT     XDATA          ?XD?IPS114_SHOW_INT32?ZF_DEVICE_IPS114
010E94H   010EBFH   00002CH   BYTE   UNIT     XDATA          ?XD?IPS200_SHOW_INT32?ZF_DEVICE_IPS200
010EC0H   010EEBH   00002CH   BYTE   UNIT     XDATA          ?XD?TFT180_SHOW_INT32?ZF_DEVICE_TFT180
010EECH   010F16H   00002BH   BYTE   UNIT     XDATA          ?XD?GPS_GNRMC_PARSE?ZF_DEVICE_GPS_TAU1201
010F17H   010F40H   00002AH   BYTE   UNIT     XDATA          ?XD?FUNC_FLOAT_TO_STR?ZF_COMMON_FUNCTION
010F41H   010F6AH   00002AH   BYTE   UNIT     XDATA          ?XD?SEEKFREE_ASSISTANT_OSCILLOSCOPE_SEND?SEEKFREE_ASSISTAN
                                                             -T
L251 LINKER/LOCATER V4.66.93.0                                                        03/25/2026  17:12:38  PAGE 5


010F6BH   010F92H   000028H   BYTE   UNIT     XDATA          ?XD?IPS200PRO_IMAGE_DISPLAY?ZF_DEVICE_IPS200PRO
010F93H   010FBAH   000028H   BYTE   UNIT     XDATA          _XDATA_GROUP_
010FBBH   010FDFH   000025H   BYTE   UNIT     XDATA          ?XD?FUNC_HEX_TO_STR?ZF_COMMON_FUNCTION
010FE0H   011001H   000022H   BYTE   UNIT     XDATA          ?XD?IPS200PRO_IMAGE_DRAW_RECTANGLE?ZF_DEVICE_IPS200PRO
011002H   011021H   000020H   BYTE   UNIT     XDATA          ?XD?IPS114_SHOW_WAVE?ZF_DEVICE_IPS114
011022H   011041H   000020H   BYTE   UNIT     XDATA          ?XD?IPS200_SHOW_WAVE?ZF_DEVICE_IPS200
011042H   011061H   000020H   BYTE   UNIT     XDATA          ?XD?TFT180_SHOW_WAVE?ZF_DEVICE_TFT180
011062H   011080H   00001FH   BYTE   UNIT     XDATA          ?XD?DL1A_GET_MEASUREMENT_TIMING_BUDGET?ZF_DEVICE_DL1A
011081H   01109FH   00001FH   BYTE   UNIT     XDATA          ?XD?IPS200PRO_WRITE_PACKET?ZF_DEVICE_IPS200PRO
0110A0H   0110BEH   00001FH   BYTE   UNIT     XDATA          ?XD?SEEKFREE_ASSISTANT_CAMERA_BOUNDARY_CONFIG?SEEKFREE_ASS
                                                             -ISTANT
0110BFH   0110DCH   00001EH   BYTE   INSEG    XDATA          ?XD?ZF_COMMON_TYPEDEF
0110DDH   0110FAH   00001EH   BYTE   INSEG    XDATA          ?XD?ZF_DEVICE_IMU963RA
0110FBH   011117H   00001DH   BYTE   UNIT     XDATA          ?XD?FUNC_INT_TO_STR?ZF_COMMON_FUNCTION
011118H   011133H   00001CH   BYTE   UNIT     XDATA          ?XD?GET_TWO_POINTS_AZIMUTH?ZF_DEVICE_GPS_TAU1201
011134H   01114EH   00001BH   BYTE   UNIT     XDATA          ?XD?IPS200PRO_CREATE_WIDGETS?ZF_DEVICE_IPS200PRO
01114FH   011168H   00001AH   BYTE   UNIT     XDATA          ?XD?IPS200PRO_WAVEFORM_ADD_VALUE?ZF_DEVICE_IPS200PRO
011169H   011182H   00001AH   BYTE   UNIT     XDATA          ?XD?IPS200PRO_IMAGE_DRAW_LINE?ZF_DEVICE_IPS200PRO
011183H   01119BH   000019H   BYTE   UNIT     XDATA          ?XD?FUNC_UINT_TO_STR?ZF_COMMON_FUNCTION
01119CH   0111B4H   000019H   BYTE   UNIT     XDATA          ?XD?IPS114_SHOW_CHINESE?ZF_DEVICE_IPS114
0111B5H   0111CDH   000019H   BYTE   UNIT     XDATA          ?XD?IPS200_SHOW_CHINESE?ZF_DEVICE_IPS200
0111CEH   0111E5H   000018H   BYTE   UNIT     XDATA          ?XD?FIFO_READ_BUFFER?ZF_COMMON_FIFO
0111E6H   0111FDH   000018H   BYTE   UNIT     XDATA          ?XD?GET_FLOAT_NUMBER?ZF_DEVICE_GPS_TAU1201
0111FEH   011215H   000018H   BYTE   UNIT     XDATA          ?XD?GET_DOUBLE_NUMBER?ZF_DEVICE_GPS_TAU1201
011216H   01122AH   000015H   BYTE   UNIT     XDATA          ?XD?SOFT_SPI_INIT?ZF_DRIVER_SOFT_SPI
01122BH   01123FH   000015H   BYTE   UNIT     XDATA          ?XD?IPS200PRO_GET_INFORMATION?ZF_DEVICE_IPS200PRO
011240H   011253H   000014H   BYTE   UNIT     XDATA          ?XD?DEBUG_ASSERT_HANDLER?ZF_COMMON_DEBUG
011254H   011267H   000014H   BYTE   UNIT     XDATA          ?XD?NUMBER_CONVERSION_ASCII?ZF_COMMON_FUNCTION
011268H   01127BH   000014H   BYTE   UNIT     XDATA          ?XD?PWM_SET_FREQ?ZF_DRIVER_PWM
01127CH   01128FH   000014H   BYTE   UNIT     XDATA          ?XD?SOFT_IIC_TRANSFER_8BIT_ARRAY?ZF_DRIVER_SOFT_IIC
011290H   0112A3H   000014H   BYTE   UNIT     XDATA          ?XD?SOFT_IIC_TRANSFER_16BIT_ARRAY?ZF_DRIVER_SOFT_IIC
0112A4H   0112B7H   000014H   BYTE   UNIT     XDATA          ?XD?SPI_INIT?ZF_DRIVER_SPI
0112B8H   0112CBH   000014H   BYTE   INSEG    XDATA          ?XD?ZF_DEVICE_ICM20602
0112CCH   0112DFH   000014H   BYTE   INSEG    XDATA          ?XD?ZF_DEVICE_IMU660RA
0112E0H   0112F3H   000014H   BYTE   UNIT     XDATA          ?XD?INDUCTANCE_COUNT_ERR?INDUCTANCE
0112F4H   011306H   000013H   BYTE   UNIT     XDATA          ?XD?IMU660RA_READ_REGISTERS?ZF_DEVICE_IMU660RA
011307H   011319H   000013H   BYTE   UNIT     XDATA          ?XD?IPS200PRO_SET_COLOR?ZF_DEVICE_IPS200PRO
01131AH   01132CH   000013H   BYTE   UNIT     XDATA          ?XD?IPS200PRO_SET_POSITION?ZF_DEVICE_IPS200PRO
01132DH   01133FH   000013H   BYTE   UNIT     XDATA          ?XD?IPS200PRO_WAVEFORM_LINE_STATE?ZF_DEVICE_IPS200PRO
011340H   011352H   000013H   BYTE   UNIT     XDATA          ?XD?IPS200PRO_CONTAINER_RADIUS?ZF_DEVICE_IPS200PRO
011353H   011364H   000012H   BYTE   UNIT     XDATA          ?XD?FIFO_WRITE_BUFFER?ZF_COMMON_FIFO
011365H   011376H   000012H   BYTE   UNIT     XDATA          ?XD?PWM_INIT?ZF_DRIVER_PWM
011377H   011388H   000012H   BYTE   UNIT     XDATA          ?XD?IPS200PRO_TABLE_SET_COL_WIDTH?ZF_DEVICE_IPS200PRO
011389H   01139AH   000012H   BYTE   UNIT     XDATA          ?XD?IPS200PRO_CALENDAR_DISPLAY?ZF_DEVICE_IPS200PRO
01139BH   0113ABH   000011H   BYTE   UNIT     XDATA          ?XD?FUNC_STR_TO_FLOAT?ZF_COMMON_FUNCTION
0113ACH   0113BCH   000011H   BYTE   UNIT     XDATA          ?XD?FUNC_STR_TO_DOUBLE?ZF_COMMON_FUNCTION
0113BDH   0113CDH   000011H   BYTE   UNIT     XDATA          ?XD?GET_INT_NUMBER?ZF_DEVICE_GPS_TAU1201
0113CEH   0113DEH   000011H   BYTE   UNIT     XDATA          ?XD?IPS200PRO_SET_DATE?ZF_DEVICE_IPS200PRO
0113DFH   0113EFH   000011H   BYTE   UNIT     XDATA          ?XD?IPS200PRO_SET_PARENT?ZF_DEVICE_IPS200PRO
0113F0H   011400H   000011H   BYTE   UNIT     XDATA          ?XD?IPS200PRO_GET_DATE?ZF_DEVICE_IPS200PRO
011401H   011411H   000011H   BYTE   UNIT     XDATA          ?XD?IPS200PRO_GET_TIME?ZF_DEVICE_IPS200PRO
011412H   011422H   000011H   BYTE   UNIT     XDATA          ?XD?IPS200PRO_GET_FREE_STACK_SIZE?ZF_DEVICE_IPS200PRO
011423H   011433H   000011H   BYTE   UNIT     XDATA          ?XD?IPS200PRO_TABLE_SELECT?ZF_DEVICE_IPS200PRO
011434H   011444H   000011H   BYTE   UNIT     XDATA          ?XD?IPS200PRO_PROGRESS_BAR_SET_VALUE?ZF_DEVICE_IPS200PRO
011445H   011454H   000010H   BYTE   UNIT     XDATA          ?XD?SOFT_SPI_TRANSFER_8BIT?ZF_DRIVER_SOFT_SPI
011455H   011464H   000010H   BYTE   UNIT     XDATA          ?XD?SOFT_SPI_TRANSFER_16BIT?ZF_DRIVER_SOFT_SPI
011465H   011474H   000010H   BYTE   UNIT     XDATA          ?XD?IPS200PRO_SET_TIME?ZF_DEVICE_IPS200PRO
011475H   011484H   000010H   BYTE   UNIT     XDATA          ?XD?IPS200PRO_PAGE_SET_TITLE_POSITION_WIDTH?ZF_DEVICE_IPS2
                                                             -00PRO
011485H   011494H   000010H   BYTE   UNIT     XDATA          ?XD?FAST_SQRT?IMU
011495H   0114A3H   00000FH   BYTE   UNIT     XDATA          ?XD?IPS200PRO_SET_FONT?ZF_DEVICE_IPS200PRO
0114A4H   0114B2H   00000FH   BYTE   UNIT     XDATA          ?XD?IPS200PRO_PAGE_SWITCH?ZF_DEVICE_IPS200PRO
0114B3H   0114C1H   00000FH   BYTE   UNIT     XDATA          ?XD?IPS200PRO_PAGE_SET_TITLE_NAME?ZF_DEVICE_IPS200PRO
0114C2H   0114D0H   00000FH   BYTE   UNIT     XDATA          ?XD?IPS200PRO_LABEL_SHOW_STRING?ZF_DEVICE_IPS200PRO
0114D1H   0114DFH   00000FH   BYTE   UNIT     XDATA          ?XD?IPS200PRO_LABEL_MODE?ZF_DEVICE_IPS200PRO
L251 LINKER/LOCATER V4.66.93.0                                                        03/25/2026  17:12:38  PAGE 6


0114E0H   0114EEH   00000FH   BYTE   UNIT     XDATA          ?XD?IPS200PRO_METER_SET_VALUE?ZF_DEVICE_IPS200PRO
0114EFH   0114FDH   00000FH   BYTE   UNIT     XDATA          ?XD?SEEKFREE_ASSISTANT_CAMERA_DATA_SEND?SEEKFREE_ASSISTANT
0114FEH   01150BH   00000EH   BYTE   UNIT     XDATA          ?XD?FIFO_INIT?ZF_COMMON_FIFO
01150CH   011519H   00000EH   BYTE   UNIT     XDATA          ?XD?FUNC_STR_TO_HEX?ZF_COMMON_FUNCTION
01151AH   011527H   00000EH   BYTE   UNIT     XDATA          ?XD?PWM_SET_DUTY?ZF_DRIVER_PWM
011528H   011535H   00000EH   BYTE   UNIT     XDATA          ?XD?SOFT_IIC_WRITE_16BIT_REGISTERS?ZF_DRIVER_SOFT_IIC
011536H   011543H   00000EH   BYTE   UNIT     XDATA          ?XD?SOFT_IIC_READ_16BIT_REGISTERS?ZF_DRIVER_SOFT_IIC
011544H   011551H   00000EH   BYTE   UNIT     XDATA          ?XD?SOFT_SPI_WRITE_16BIT_REGISTERS?ZF_DRIVER_SOFT_SPI
011552H   01155FH   00000EH   BYTE   UNIT     XDATA          ?XD?SOFT_SPI_READ_16BIT_REGISTERS?ZF_DRIVER_SOFT_SPI
011560H   01156DH   00000EH   BYTE   UNIT     XDATA          ?XD?SPI_TRANSFER_8BIT?ZF_DRIVER_SPI
01156EH   01157BH   00000EH   BYTE   UNIT     XDATA          ?XD?SPI_TRANSFER_16BIT?ZF_DRIVER_SPI
01157CH   011589H   00000EH   BYTE   UNIT     XDATA          ?XD?GPS_GNGGA_PARSE?ZF_DEVICE_GPS_TAU1201
01158AH   011597H   00000EH   BYTE   UNIT     XDATA          ?XD?IPS200PRO_SEND_BUFFER?ZF_DEVICE_IPS200PRO
011598H   0115A5H   00000EH   BYTE   UNIT     XDATA          ?XD?IPS200PRO_SET_HIDDEN?ZF_DEVICE_IPS200PRO
0115A6H   0115B3H   00000EH   BYTE   UNIT     XDATA          ?XD?IPS200PRO_WAVEFORM_LINE_TYPE?ZF_DEVICE_IPS200PRO
0115B4H   0115C1H   00000EH   BYTE   UNIT     XDATA          ?XD?MEDIAN_AVERAGE_FILTER?INDUCTANCE
0115C2H   0115CFH   00000EH   BYTE   UNIT     XDATA          ?XD?ADC_NORMALIZE?INDUCTANCE
0115D0H   0115DCH   00000DH   BYTE   UNIT     XDATA          ?XD?PRINTF_REVERSE_ORDER?ZF_COMMON_FUNCTION
0115DDH   0115E9H   00000DH   BYTE   UNIT     XDATA          ?XD?SOFT_IIC_WRITE_8BIT_REGISTERS?ZF_DRIVER_SOFT_IIC
0115EAH   0115F6H   00000DH   BYTE   UNIT     XDATA          ?XD?SOFT_IIC_READ_8BIT_REGISTERS?ZF_DRIVER_SOFT_IIC
0115F7H   011603H   00000DH   BYTE   UNIT     XDATA          ?XD?SOFT_IIC_INIT?ZF_DRIVER_SOFT_IIC
011604H   011610H   00000DH   BYTE   UNIT     XDATA          ?XD?SOFT_SPI_WRITE_8BIT_REGISTERS?ZF_DRIVER_SOFT_SPI
011611H   01161DH   00000DH   BYTE   UNIT     XDATA          ?XD?SOFT_SPI_READ_8BIT_REGISTERS?ZF_DRIVER_SOFT_SPI
01161EH   01162AH   00000DH   BYTE   INSEG    XDATA          ?XD?ZF_DEVICE_DL1A
01162BH   011637H   00000DH   BYTE   INSEG    XDATA          ?XD?ZF_DEVICE_DL1B
011638H   011644H   00000DH   BYTE   UNIT     XDATA          ?XD?GET_PARAMETER_INDEX?ZF_DEVICE_GPS_TAU1201
011645H   011651H   00000DH   BYTE   UNIT     XDATA          ?XD?IPS200PRO_RECEIVE_BUFFER?ZF_DEVICE_IPS200PRO
011652H   01165EH   00000DH   BYTE   UNIT     XDATA          ?XD?IPS200PRO_SET_FORMAT?ZF_DEVICE_IPS200PRO
01165FH   01166BH   00000DH   BYTE   UNIT     XDATA          ?XD?IPS200PRO_SET_DIRECTION?ZF_DEVICE_IPS200PRO
01166CH   011678H   00000DH   BYTE   UNIT     XDATA          ?XD?IPS200PRO_SET_DEFAULT_FONT?ZF_DEVICE_IPS200PRO
011679H   011684H   00000CH   BYTE   UNIT     XDATA          ?XD?SOFT_IIC_WRITE_8BIT_ARRAY?ZF_DRIVER_SOFT_IIC
011685H   011690H   00000CH   BYTE   UNIT     XDATA          ?XD?SOFT_IIC_WRITE_16BIT_ARRAY?ZF_DRIVER_SOFT_IIC
011691H   01169CH   00000CH   BYTE   UNIT     XDATA          ?XD?SOFT_IIC_READ_8BIT_ARRAY?ZF_DRIVER_SOFT_IIC
01169DH   0116A8H   00000CH   BYTE   UNIT     XDATA          ?XD?SOFT_IIC_READ_16BIT_ARRAY?ZF_DRIVER_SOFT_IIC
0116A9H   0116B4H   00000CH   BYTE   UNIT     XDATA          ?XD?SOFT_SPI_WRITE_8BIT_ARRAY?ZF_DRIVER_SOFT_SPI
0116B5H   0116C0H   00000CH   BYTE   UNIT     XDATA          ?XD?SOFT_SPI_WRITE_16BIT_ARRAY?ZF_DRIVER_SOFT_SPI
0116C1H   0116CCH   00000CH   BYTE   UNIT     XDATA          ?XD?SOFT_SPI_READ_8BIT_ARRAY?ZF_DRIVER_SOFT_SPI
0116CDH   0116D8H   00000CH   BYTE   UNIT     XDATA          ?XD?SOFT_SPI_READ_16BIT_ARRAY?ZF_DRIVER_SOFT_SPI
0116D9H   0116E4H   00000CH   BYTE   UNIT     XDATA          ?XD?SPI_WRITE_16BIT_REGISTERS?ZF_DRIVER_SPI
0116E5H   0116F0H   00000CH   BYTE   UNIT     XDATA          ?XD?SPI_READ_16BIT_REGISTERS?ZF_DRIVER_SPI
0116F1H   0116FCH   00000CH   BYTE   INSEG    XDATA          ?XD?ZF_DRIVER_TIMER
0116FDH   011708H   00000CH   BYTE   INSEG    XDATA          ?XD?ZF_DRIVER_UART
011709H   011714H   00000CH   BYTE   UNIT     XDATA          ?XD?UART_INIT?ZF_DRIVER_UART
011715H   011720H   00000CH   BYTE   UNIT     XDATA          ?XD?BLE6A20_SEND_BUFFER?ZF_DEVICE_BLE6A20
011721H   01172CH   00000CH   BYTE   UNIT     XDATA          ?XD?BLE6A20_READ_BUFFER?ZF_DEVICE_BLE6A20
01172DH   011738H   00000CH   BYTE   UNIT     XDATA          ?XD?DL1A_GET_SPAD_INFO?ZF_DEVICE_DL1A
011739H   011744H   00000CH   BYTE   UNIT     XDATA          ?XD?DL1A_GET_SEQUENCE_STEP_TIMEOUTS?ZF_DEVICE_DL1A
011745H   011750H   00000CH   BYTE   UNIT     XDATA          ?XD?GPS_DATA_PARSE?ZF_DEVICE_GPS_TAU1201
011751H   01175CH   00000CH   BYTE   INSEG    XDATA          ?XD?ZF_DEVICE_IMU660RB
01175DH   011768H   00000CH   BYTE   UNIT     XDATA          ?XD?IPS114_SHOW_INT16?ZF_DEVICE_IPS114
011769H   011774H   00000CH   BYTE   UNIT     XDATA          ?XD?IPS114_SHOW_UINT16?ZF_DEVICE_IPS114
011775H   011780H   00000CH   BYTE   UNIT     XDATA          ?XD?IPS200_SHOW_INT16?ZF_DEVICE_IPS200
011781H   01178CH   00000CH   BYTE   UNIT     XDATA          ?XD?IPS200_SHOW_UINT16?ZF_DEVICE_IPS200
01178DH   011798H   00000CH   BYTE   UNIT     XDATA          ?XD?IPS200PRO_SET_BACKLIGHT?ZF_DEVICE_IPS200PRO
011799H   0117A4H   00000CH   BYTE   UNIT     XDATA          ?XD?IPS200PRO_SET_CRC_STATE?ZF_DEVICE_IPS200PRO
0117A5H   0117B0H   00000CH   BYTE   UNIT     XDATA          ?XD?IPS200PRO_SET_OPTIMIZE?ZF_DEVICE_IPS200PRO
0117B1H   0117BCH   00000CH   BYTE   UNIT     XDATA          ?XD?TFT180_SHOW_INT16?ZF_DEVICE_TFT180
0117BDH   0117C8H   00000CH   BYTE   UNIT     XDATA          ?XD?TFT180_SHOW_UINT16?ZF_DEVICE_TFT180
0117C9H   0117D4H   00000CH   BYTE   UNIT     XDATA          ?XD?WIRELESS_UART_SEND_BUFFER?ZF_DEVICE_WIRELESS_UART
0117D5H   0117E0H   00000CH   BYTE   UNIT     XDATA          ?XD?WIRELESS_UART_READ_BUFFER?ZF_DEVICE_WIRELESS_UART
0117E1H   0117ECH   00000CH   BYTE   UNIT     XDATA          ?XD?KALMANCREATE?IMU
0117EDH   0117F8H   00000CH   BYTE   UNIT     XDATA          ?XD?EEPROM_READ_VALUE?EEPROM
0117F9H   011804H   00000CH   BYTE   UNIT     XDATA          ?XD?RANGE_PROTECT?INDUCTANCE
011805H   01180FH   00000BH   BYTE   UNIT     XDATA          ?XD?PIT_INIT?ZF_DRIVER_PIT
011810H   01181AH   00000BH   BYTE   UNIT     XDATA          ?XD?SOFT_SPI_16BIT_DATA_HANDLER?ZF_DRIVER_SOFT_SPI
L251 LINKER/LOCATER V4.66.93.0                                                        03/25/2026  17:12:38  PAGE 7


01181BH   011825H   00000BH   BYTE   UNIT     XDATA          ?XD?SPI_WRITE_8BIT_REGISTERS?ZF_DRIVER_SPI
011826H   011830H   00000BH   BYTE   UNIT     XDATA          ?XD?SPI_READ_8BIT_REGISTERS?ZF_DRIVER_SPI
011831H   01183BH   00000BH   BYTE   UNIT     XDATA          ?XD?GPS_UART_CALLBACK?ZF_DEVICE_GPS_TAU1201
01183CH   011846H   00000BH   BYTE   UNIT     XDATA          ?XD?IPS200PRO_DELETE_WIDGETS?ZF_DEVICE_IPS200PRO
011847H   011851H   00000BH   BYTE   UNIT     XDATA          ?XD?IPS200PRO_WAVEFORM_CLEAR?ZF_DEVICE_IPS200PRO
011852H   01185BH   00000AH   BYTE   UNIT     XDATA          ?XD?IAP_READ_BUFF?ZF_DRIVER_EEPROM
01185CH   011865H   00000AH   BYTE   UNIT     XDATA          ?XD?IAP_WRITE_BUFF?ZF_DRIVER_EEPROM
011866H   01186FH   00000AH   BYTE   UNIT     XDATA          ?XD?SPI_WRITE_8BIT_ARRAY?ZF_DRIVER_SPI
011870H   011879H   00000AH   BYTE   UNIT     XDATA          ?XD?SPI_WRITE_16BIT_ARRAY?ZF_DRIVER_SPI
01187AH   011883H   00000AH   BYTE   UNIT     XDATA          ?XD?SPI_READ_8BIT_ARRAY?ZF_DRIVER_SPI
011884H   01188DH   00000AH   BYTE   UNIT     XDATA          ?XD?SPI_READ_16BIT_ARRAY?ZF_DRIVER_SPI
01188EH   011897H   00000AH   BYTE   UNIT     XDATA          ?XD?IPS114_SHOW_STRING?ZF_DEVICE_IPS114
011898H   0118A1H   00000AH   BYTE   INSEG    XDATA          ?XD?ZF_DEVICE_IPS200
0118A2H   0118ABH   00000AH   BYTE   UNIT     XDATA          ?XD?IPS200_SHOW_STRING?ZF_DEVICE_IPS200
0118ACH   0118B5H   00000AH   BYTE   UNIT     XDATA          ?XD?TFT180_SHOW_STRING?ZF_DEVICE_TFT180
0118B6H   0118BFH   00000AH   BYTE   UNIT     XDATA          ?XD?SEEKFREE_ASSISTANT_CAMERA_INFORMATION_CONFIG?SEEKFREE_
                                                             -ASSISTANT
0118C0H   0118C9H   00000AH   BYTE   UNIT     XDATA          ?XD?EEPROM_READ?EEPROM
0118CAH   0118D2H   000009H   BYTE   UNIT     XDATA          ?XD?FUNC_STR_TO_INT?ZF_COMMON_FUNCTION
0118D3H   0118DBH   000009H   BYTE   UNIT     XDATA          ?XD?DL1A_TIMEOUT_MICROSECONDS_TO_MCLKS?ZF_DEVICE_DL1A
0118DCH   0118E4H   000009H   BYTE   UNIT     XDATA          ?XD?DL1A_SET_SIGNAL_RATE_LIMIT?ZF_DEVICE_DL1A
0118E5H   0118EDH   000009H   BYTE   UNIT     XDATA          ?XD?ICM20602_SIMSPI_R_REG_BYTES?ZF_DEVICE_ICM20602
0118EEH   0118F6H   000009H   BYTE   UNIT     XDATA          ?XD?ICM20602_READ_REGISTERS?ZF_DEVICE_ICM20602
0118F7H   0118FFH   000009H   BYTE   UNIT     XDATA          ?XD?IMU660RA_SIMSPI_W_REG_BYTES?ZF_DEVICE_IMU660RA
011900H   011908H   000009H   BYTE   UNIT     XDATA          ?XD?IMU660RA_SIMSPI_R_REG_BYTES?ZF_DEVICE_IMU660RA
011909H   011911H   000009H   BYTE   UNIT     XDATA          ?XD?IMU660RA_WRITE_REGISTERS?ZF_DEVICE_IMU660RA
011912H   01191AH   000009H   BYTE   UNIT     XDATA          ?XD?IMU660RB_SIMSPI_R_REG_BYTES?ZF_DEVICE_IMU660RB
01191BH   011923H   000009H   BYTE   UNIT     XDATA          ?XD?IMU660RB_READ_REGISTERS?ZF_DEVICE_IMU660RB
011924H   01192CH   000009H   BYTE   UNIT     XDATA          ?XD?IMU963RA_READ_ACC_GYRO_REGISTERS?ZF_DEVICE_IMU963RA
01192DH   011935H   000009H   BYTE   UNIT     XDATA          ?XD?IPS114_SHOW_INT8?ZF_DEVICE_IPS114
011936H   01193EH   000009H   BYTE   UNIT     XDATA          ?XD?IPS114_SHOW_UINT8?ZF_DEVICE_IPS114
01193FH   011947H   000009H   BYTE   UNIT     XDATA          ?XD?IPS200_SHOW_INT8?ZF_DEVICE_IPS200
011948H   011950H   000009H   BYTE   UNIT     XDATA          ?XD?IPS200_SHOW_UINT8?ZF_DEVICE_IPS200
011951H   011959H   000009H   BYTE   UNIT     XDATA          ?XD?IPS200PRO_LABEL_CREATE?ZF_DEVICE_IPS200PRO
01195AH   011962H   000009H   BYTE   UNIT     XDATA          ?XD?IPS200PRO_TABLE_CREATE?ZF_DEVICE_IPS200PRO
011963H   01196BH   000009H   BYTE   UNIT     XDATA          ?XD?IPS200PRO_METER_CREATE?ZF_DEVICE_IPS200PRO
01196CH   011974H   000009H   BYTE   UNIT     XDATA          ?XD?IPS200PRO_CLOCK_CREATE?ZF_DEVICE_IPS200PRO
011975H   01197DH   000009H   BYTE   UNIT     XDATA          ?XD?IPS200PRO_PROGRESS_BAR_CREATE?ZF_DEVICE_IPS200PRO
01197EH   011986H   000009H   BYTE   UNIT     XDATA          ?XD?IPS200PRO_CALENDAR_CREATE?ZF_DEVICE_IPS200PRO
011987H   01198FH   000009H   BYTE   UNIT     XDATA          ?XD?IPS200PRO_WAVEFORM_CREATE?ZF_DEVICE_IPS200PRO
011990H   011998H   000009H   BYTE   UNIT     XDATA          ?XD?IPS200PRO_IMAGE_CREATE?ZF_DEVICE_IPS200PRO
011999H   0119A1H   000009H   BYTE   UNIT     XDATA          ?XD?IPS200PRO_CONTAINER_CREATE?ZF_DEVICE_IPS200PRO
0119A2H   0119AAH   000009H   BYTE   UNIT     XDATA          ?XD?IPS200PRO_INIT?ZF_DEVICE_IPS200PRO
0119ABH   0119B3H   000009H   BYTE   UNIT     XDATA          ?XD?TFT180_SHOW_INT8?ZF_DEVICE_TFT180
0119B4H   0119BCH   000009H   BYTE   UNIT     XDATA          ?XD?TFT180_SHOW_UINT8?ZF_DEVICE_TFT180
0119BDH   0119C5H   000009H   BYTE   UNIT     XDATA          ?XD?SEEKFREE_ASSISTANT_SUM?SEEKFREE_ASSISTANT
0119C6H   0119CDH   000008H   BYTE   UNIT     XDATA          ?XD?DEBUG_SEND_BUFFER?ZF_COMMON_DEBUG
0119CEH   0119D5H   000008H   BYTE   UNIT     XDATA          ?XD?DEBUG_READ_BUFFER?ZF_COMMON_DEBUG
0119D6H   0119DDH   000008H   BYTE   UNIT     XDATA          ?XD?FIFO_HEAD_OFFSET?ZF_COMMON_FIFO
0119DEH   0119E5H   000008H   BYTE   UNIT     XDATA          ?XD?FIFO_END_OFFSET?ZF_COMMON_FIFO
0119E6H   0119EDH   000008H   BYTE   UNIT     XDATA          ?XD?FUNC_GET_GREATEST_COMMON_DIVISOR?ZF_COMMON_FUNCTION
0119EEH   0119F5H   000008H   BYTE   UNIT     XDATA          ?XD?FUNC_STR_TO_UINT?ZF_COMMON_FUNCTION
0119F6H   0119FDH   000008H   BYTE   UNIT     XDATA          ?XD?ADC_MEAN_FILTER_CONVERT?ZF_DRIVER_ADC
0119FEH   011A05H   000008H   BYTE   UNIT     XDATA          ?XD?SOFT_IIC_DELAY?ZF_DRIVER_SOFT_IIC
011A06H   011A0DH   000008H   BYTE   UNIT     XDATA          ?XD?SOFT_IIC_WRITE_16BIT_REGISTER?ZF_DRIVER_SOFT_IIC
011A0EH   011A15H   000008H   BYTE   UNIT     XDATA          ?XD?SOFT_IIC_READ_16BIT_REGISTER?ZF_DRIVER_SOFT_IIC
011A16H   011A1DH   000008H   BYTE   UNIT     XDATA          ?XD?SOFT_SPI_DELAY?ZF_DRIVER_SOFT_SPI
011A1EH   011A25H   000008H   BYTE   UNIT     XDATA          ?XD?SOFT_SPI_8BIT_DATA_HANDLER?ZF_DRIVER_SOFT_SPI
011A26H   011A2DH   000008H   BYTE   UNIT     XDATA          ?XD?SOFT_SPI_WRITE_16BIT_REGISTER?ZF_DRIVER_SOFT_SPI
011A2EH   011A35H   000008H   BYTE   UNIT     XDATA          ?XD?SOFT_SPI_READ_16BIT_REGISTER?ZF_DRIVER_SOFT_SPI
011A36H   011A3DH   000008H   BYTE   UNIT     XDATA          ?XD?UART_WRITE_STRING?ZF_DRIVER_UART
011A3EH   011A45H   000008H   BYTE   UNIT     XDATA          ?XD?BLE6A20_SEND_STRING?ZF_DEVICE_BLE6A20
011A46H   011A4DH   000008H   BYTE   INSEG    XDATA          ?XD?ZF_DEVICE_IPS114
011A4EH   011A55H   000008H   BYTE   UNIT     XDATA          ?XD?IPS114_SET_REGION?ZF_DEVICE_IPS114
011A56H   011A5DH   000008H   BYTE   UNIT     XDATA          ?XD?IPS114_SHOW_CHAR?ZF_DEVICE_IPS114
L251 LINKER/LOCATER V4.66.93.0                                                        03/25/2026  17:12:38  PAGE 8


011A5EH   011A65H   000008H   BYTE   UNIT     XDATA          ?XD?IPS200_SET_REGION?ZF_DEVICE_IPS200
011A66H   011A6DH   000008H   BYTE   UNIT     XDATA          ?XD?IPS200_SHOW_CHAR?ZF_DEVICE_IPS200
011A6EH   011A75H   000008H   BYTE   UNIT     XDATA          ?XD?IPS200PRO_READ_PARAMETER?ZF_DEVICE_IPS200PRO
011A76H   011A7DH   000008H   BYTE   INSEG    XDATA          ?XD?ZF_DEVICE_TFT180
011A7EH   011A85H   000008H   BYTE   UNIT     XDATA          ?XD?TFT180_SET_REGION?ZF_DEVICE_TFT180
011A86H   011A8DH   000008H   BYTE   UNIT     XDATA          ?XD?TFT180_SHOW_CHAR?ZF_DEVICE_TFT180
011A8EH   011A95H   000008H   BYTE   INSEG    XDATA          ?XD?ZF_DEVICE_TYPE
011A96H   011A9DH   000008H   BYTE   UNIT     XDATA          ?XD?SET_WIRELESS_TYPE?ZF_DEVICE_TYPE
011A9EH   011AA5H   000008H   BYTE   UNIT     XDATA          ?XD?SET_GPS_TYPE?ZF_DEVICE_TYPE
011AA6H   011AADH   000008H   BYTE   UNIT     XDATA          ?XD?WIRELESS_UART_SEND_STRING?ZF_DEVICE_WIRELESS_UART
011AAEH   011AB5H   000008H   BYTE   UNIT     XDATA          ?XD?KALMANFILTER?IMU
011AB6H   011ABDH   000008H   BYTE   UNIT     XDATA          ?XD?EEPROM_WRITE_VALUE?EEPROM
011ABEH   011AC4H   000007H   BYTE   UNIT     XDATA          ?XD?GPIO_INIT?ZF_DRIVER_GPIO
011AC5H   011ACBH   000007H   BYTE   UNIT     XDATA          ?XD?SOFT_IIC_READ_DATA?ZF_DRIVER_SOFT_IIC
011ACCH   011AD2H   000007H   BYTE   UNIT     XDATA          ?XD?UART_QUERY_BYTE?ZF_DRIVER_UART
011AD3H   011AD9H   000007H   BYTE   UNIT     XDATA          ?XD?DL1A_TIMEOUT_MCLKS_TO_MICROSECONDS?ZF_DEVICE_DL1A
011ADAH   011AE0H   000007H   BYTE   UNIT     XDATA          ?XD?IMU963RA_GET_MAG?ZF_DEVICE_IMU963RA
011AE1H   011AE7H   000007H   BYTE   UNIT     XDATA          ?XD?SEEKFREE_ASSISTANT_CAMERA_DOT_SEND?SEEKFREE_ASSISTANT
011AE8H   011AEDH   000006H   BYTE   UNIT     XDATA          ?XD?FIFO_CLEAR?ZF_COMMON_FIFO
011AEEH   011AF3H   000006H   BYTE   INSEG    XDATA          ?XD?ZF_DRIVER_ENCODER
011AF4H   011AF9H   000006H   BYTE   UNIT     XDATA          ?XD?ENCODER_DIR_INIT?ZF_DRIVER_ENCODER
011AFAH   011AFFH   000006H   BYTE   UNIT     XDATA          ?XD?GPIO_SET_LEVEL_SPEED?ZF_DRIVER_GPIO
011B00H   011B05H   000006H   BYTE   UNIT     XDATA          ?XD?SOFT_IIC_SEND_DATA?ZF_DRIVER_SOFT_IIC
011B06H   011B0BH   000006H   BYTE   UNIT     XDATA          ?XD?SOFT_IIC_WRITE_16BIT?ZF_DRIVER_SOFT_IIC
011B0CH   011B11H   000006H   BYTE   UNIT     XDATA          ?XD?SOFT_IIC_WRITE_8BIT_REGISTER?ZF_DRIVER_SOFT_IIC
011B12H   011B17H   000006H   BYTE   UNIT     XDATA          ?XD?SOFT_IIC_READ_16BIT?ZF_DRIVER_SOFT_IIC
011B18H   011B1DH   000006H   BYTE   UNIT     XDATA          ?XD?SOFT_IIC_READ_8BIT_REGISTER?ZF_DRIVER_SOFT_IIC
011B1EH   011B23H   000006H   BYTE   UNIT     XDATA          ?XD?SOFT_IIC_SCCB_WRITE_REGISTER?ZF_DRIVER_SOFT_IIC
011B24H   011B29H   000006H   BYTE   UNIT     XDATA          ?XD?SOFT_IIC_SCCB_READ_REGISTER?ZF_DRIVER_SOFT_IIC
011B2AH   011B2FH   000006H   BYTE   UNIT     XDATA          ?XD?SOFT_SPI_WRITE_16BIT?ZF_DRIVER_SOFT_SPI
011B30H   011B35H   000006H   BYTE   UNIT     XDATA          ?XD?SOFT_SPI_WRITE_8BIT_REGISTER?ZF_DRIVER_SOFT_SPI
011B36H   011B3BH   000006H   BYTE   UNIT     XDATA          ?XD?SOFT_SPI_READ_8BIT_REGISTER?ZF_DRIVER_SOFT_SPI
011B3CH   011B41H   000006H   BYTE   UNIT     XDATA          ?XD?SPI_WRITE_16BIT_REGISTER?ZF_DRIVER_SPI
011B42H   011B47H   000006H   BYTE   UNIT     XDATA          ?XD?SPI_READ_16BIT_REGISTER?ZF_DRIVER_SPI
011B48H   011B4DH   000006H   BYTE   UNIT     XDATA          ?XD?ICM20602_GET_ACC?ZF_DEVICE_ICM20602
011B4EH   011B53H   000006H   BYTE   UNIT     XDATA          ?XD?ICM20602_GET_GYRO?ZF_DEVICE_ICM20602
011B54H   011B59H   000006H   BYTE   UNIT     XDATA          ?XD?IMU660RA_GET_ACC?ZF_DEVICE_IMU660RA
011B5AH   011B5FH   000006H   BYTE   UNIT     XDATA          ?XD?IMU660RA_GET_GYRO?ZF_DEVICE_IMU660RA
011B60H   011B65H   000006H   BYTE   UNIT     XDATA          ?XD?IMU660RB_GET_ACC?ZF_DEVICE_IMU660RB
011B66H   011B6BH   000006H   BYTE   UNIT     XDATA          ?XD?IMU660RB_GET_GYRO?ZF_DEVICE_IMU660RB
011B6CH   011B71H   000006H   BYTE   UNIT     XDATA          ?XD?IMU660RB_ACC_TRANSITION?ZF_DEVICE_IMU660RB
011B72H   011B77H   000006H   BYTE   UNIT     XDATA          ?XD?IMU660RB_GYRO_TRANSITION?ZF_DEVICE_IMU660RB
011B78H   011B7DH   000006H   BYTE   UNIT     XDATA          ?XD?IMU963RA_WRITE_MAG_REGISTER?ZF_DEVICE_IMU963RA
011B7EH   011B83H   000006H   BYTE   UNIT     XDATA          ?XD?IMU963RA_GET_ACC?ZF_DEVICE_IMU963RA
011B84H   011B89H   000006H   BYTE   UNIT     XDATA          ?XD?IMU963RA_GET_GYRO?ZF_DEVICE_IMU963RA
011B8AH   011B8FH   000006H   BYTE   UNIT     XDATA          ?XD?IPS114_CLEAR?ZF_DEVICE_IPS114
011B90H   011B95H   000006H   BYTE   UNIT     XDATA          ?XD?IPS114_DRAW_POINT?ZF_DEVICE_IPS114
011B96H   011B9BH   000006H   BYTE   UNIT     XDATA          ?XD?IPS200_CLEAR?ZF_DEVICE_IPS200
011B9CH   011BA1H   000006H   BYTE   UNIT     XDATA          ?XD?IPS200_DRAW_POINT?ZF_DEVICE_IPS200
011BA2H   011BA7H   000006H   BYTE   UNIT     XDATA          ?XD?TFT180_CLEAR?ZF_DEVICE_TFT180
011BA8H   011BADH   000006H   BYTE   UNIT     XDATA          ?XD?TFT180_DRAW_POINT?ZF_DEVICE_TFT180
011BAEH   011BB3H   000006H   BYTE   UNIT     XDATA          ?XD?SET_TOF_TYPE?ZF_DEVICE_TYPE
011BB4H   011BB9H   000006H   BYTE   INSEG    XDATA          ?XD?VOLTAGE_WARNING
011BBAH   011BBEH   000005H   BYTE   UNIT     XDATA          ?XD?IAP_READ_BYTE?ZF_DRIVER_EEPROM
011BBFH   011BC3H   000005H   BYTE   UNIT     XDATA          ?XD?IAP_WRITE_BYTE?ZF_DRIVER_EEPROM
011BC4H   011BC8H   000005H   BYTE   UNIT     XDATA          ?XD?GPIO_GET_LEVEL?ZF_DRIVER_GPIO
011BC9H   011BCDH   000005H   BYTE   UNIT     XDATA          ?XD?GPIO_SET_LEVEL?ZF_DRIVER_GPIO
011BCEH   011BD2H   000005H   BYTE   UNIT     XDATA          ?XD?SOFT_IIC_SEND_ACK?ZF_DRIVER_SOFT_IIC
011BD3H   011BD7H   000005H   BYTE   UNIT     XDATA          ?XD?SOFT_IIC_WAIT_ACK?ZF_DRIVER_SOFT_IIC
011BD8H   011BDCH   000005H   BYTE   UNIT     XDATA          ?XD?SOFT_IIC_WRITE_8BIT?ZF_DRIVER_SOFT_IIC
011BDDH   011BE1H   000005H   BYTE   UNIT     XDATA          ?XD?SOFT_IIC_READ_8BIT?ZF_DRIVER_SOFT_IIC
011BE2H   011BE6H   000005H   BYTE   UNIT     XDATA          ?XD?SOFT_SPI_WRITE_8BIT?ZF_DRIVER_SOFT_SPI
011BE7H   011BEBH   000005H   BYTE   UNIT     XDATA          ?XD?SOFT_SPI_READ_8BIT?ZF_DRIVER_SOFT_SPI
011BECH   011BF0H   000005H   BYTE   UNIT     XDATA          ?XD?SOFT_SPI_READ_16BIT?ZF_DRIVER_SOFT_SPI
011BF1H   011BF5H   000005H   BYTE   UNIT     XDATA          ?XD?TIMER_FUNCITON_CHECK?ZF_DRIVER_TIMER
L251 LINKER/LOCATER V4.66.93.0                                                        03/25/2026  17:12:38  PAGE 9


011BF6H   011BFAH   000005H   BYTE   UNIT     XDATA          ?XD?UART_FUNCITON_CHECK?ZF_DRIVER_UART
011BFBH   011BFFH   000005H   BYTE   UNIT     XDATA          ?XD?DL1A_GET_SEQUENCE_STEP_ENABLES?ZF_DEVICE_DL1A
011C00H   011C04H   000005H   BYTE   UNIT     XDATA          ?XD?DL1A_PERFORM_SINGLE_REF_CALIBRATION?ZF_DEVICE_DL1A
011C05H   011C09H   000005H   BYTE   UNIT     XDATA          ?XD?DL1B_GET_DISTANCE?ZF_DEVICE_DL1B
011C0AH   011C0EH   000005H   BYTE   UNIT     XDATA          ?XD?UTC_TO_BTC?ZF_DEVICE_GPS_TAU1201
011C0FH   011C13H   000005H   BYTE   UNIT     XDATA          ?XD?ICM20602_SIMSPI_R_REG_BYTE?ZF_DEVICE_ICM20602
011C14H   011C18H   000005H   BYTE   UNIT     XDATA          ?XD?IMU660RB_SIMSPI_R_REG_BYTE?ZF_DEVICE_IMU660RB
011C19H   011C1DH   000005H   BYTE   UNIT     XDATA          ?XD?IPS200PRO_PAGE_CREATE?ZF_DEVICE_IPS200PRO
011C1EH   011C21H   000004H   BYTE   INSEG    XDATA          ?XD?ZF_COMMON_CLOCK
011C22H   011C25H   000004H   BYTE   UNIT     XDATA          ?XD?SET_SYS_CLK?ZF_COMMON_CLOCK
011C26H   011C29H   000004H   BYTE   UNIT     XDATA          ?XD?CLOCK_INIT?ZF_COMMON_CLOCK
011C2AH   011C2DH   000004H   BYTE   UNIT     XDATA          ?XD?FIFO_USED?ZF_COMMON_FIFO
011C2EH   011C31H   000004H   BYTE   UNIT     XDATA          ?XD?FUNC_SOFT_DELAY?ZF_COMMON_FUNCTION
011C32H   011C35H   000004H   BYTE   UNIT     XDATA          ?XD?ADC_CONVERT?ZF_DRIVER_ADC
011C36H   011C39H   000004H   BYTE   UNIT     XDATA          ?XD?ADC_INIT?ZF_DRIVER_ADC
011C3AH   011C3DH   000004H   BYTE   INSEG    XDATA          ?XD?ZF_DRIVER_DELAY
011C3EH   011C41H   000004H   BYTE   UNIT     XDATA          ?XD?IAP_ERASE_PAGE?ZF_DRIVER_EEPROM
011C42H   011C45H   000004H   BYTE   UNIT     XDATA          ?XD?ENCODER_GET_COUNT?ZF_DRIVER_ENCODER
011C46H   011C49H   000004H   BYTE   UNIT     XDATA          ?XD?EXTI_INIT?ZF_DRIVER_EXTI
011C4AH   011C4DH   000004H   BYTE   UNIT     XDATA          ?XD?GPIO_SET_MODE?ZF_DRIVER_GPIO
011C4EH   011C51H   000004H   BYTE   UNIT     XDATA          ?XD?GPIO_SET_DIR?ZF_DRIVER_GPIO
011C52H   011C55H   000004H   BYTE   UNIT     XDATA          ?XD?GPIO_SET_IMPEDANCE?ZF_DRIVER_GPIO
011C56H   011C59H   000004H   BYTE   UNIT     XDATA          ?XD?SOFT_IIC_START?ZF_DRIVER_SOFT_IIC
011C5AH   011C5DH   000004H   BYTE   UNIT     XDATA          ?XD?SOFT_IIC_STOP?ZF_DRIVER_SOFT_IIC
011C5EH   011C61H   000004H   BYTE   UNIT     XDATA          ?XD?SPI_READ_DAT?ZF_DRIVER_SPI
011C62H   011C65H   000004H   BYTE   UNIT     XDATA          ?XD?SPI_WRITE_16BIT?ZF_DRIVER_SPI
011C66H   011C69H   000004H   BYTE   UNIT     XDATA          ?XD?SPI_WRITE_8BIT_REGISTER?ZF_DRIVER_SPI
011C6AH   011C6DH   000004H   BYTE   UNIT     XDATA          ?XD?SPI_READ_16BIT?ZF_DRIVER_SPI
011C6EH   011C71H   000004H   BYTE   UNIT     XDATA          ?XD?ICM20602_SELF_CHECK?ZF_DEVICE_ICM20602
011C72H   011C75H   000004H   BYTE   UNIT     XDATA          ?XD?ICM20602_INIT?ZF_DEVICE_ICM20602
011C76H   011C79H   000004H   BYTE   UNIT     XDATA          ?XD?IMU660RA_SELF_CHECK?ZF_DEVICE_IMU660RA
011C7AH   011C7DH   000004H   BYTE   UNIT     XDATA          ?XD?IMU660RB_SELF_CHECK?ZF_DEVICE_IMU660RB
011C7EH   011C81H   000004H   BYTE   UNIT     XDATA          ?XD?IMU963RA_READ_MAG_REGISTER?ZF_DEVICE_IMU963RA
011C82H   011C85H   000004H   BYTE   UNIT     XDATA          ?XD?IMU963RA_ACC_GYRO_SELF_CHECK?ZF_DEVICE_IMU963RA
011C86H   011C89H   000004H   BYTE   UNIT     XDATA          ?XD?IMU963RA_MAG_SELF_CHECK?ZF_DEVICE_IMU963RA
011C8AH   011C8DH   000004H   BYTE   UNIT     XDATA          ?XD?IPS114_SET_COLOR?ZF_DEVICE_IPS114
011C8EH   011C91H   000004H   BYTE   UNIT     XDATA          ?XD?IPS200_SET_COLOR?ZF_DEVICE_IPS200
011C92H   011C95H   000004H   BYTE   UNIT     XDATA          ?XD?IPS200PRO_WAIT_IDLE?ZF_DEVICE_IPS200PRO
011C96H   011C99H   000004H   BYTE   UNIT     XDATA          ?XD?IPS200PRO_PAGE_HIDDEN?ZF_DEVICE_IPS200PRO
011C9AH   011C9DH   000004H   BYTE   UNIT     XDATA          ?XD?TFT180_SET_COLOR?ZF_DEVICE_TFT180
011C9EH   011CA1H   000004H   BYTE   UNIT     XDATA          ?XD?TSL1401_SEND_DATA?ZF_DEVICE_TSL1401
011CA2H   011CA5H   000004H   BYTE   INSEG    XDATA          ?XD?SEEKFREE_ASSISTANT_INTERFACE
011CA6H   011CA9H   000004H   BYTE   UNIT     XDATA          ?XD?FIRST_COMPLEMENT_INIT?IMU
011CAAH   011CADH   000004H   BYTE   UNIT     XDATA          ?XD?MY_ABS?IMU
011CAEH   011CB1H   000004H   BYTE   UNIT     XDATA          ?XD?VOLTAGE_WARNING_TASK?VOLTAGE_WARNING
011CB2H   011CB4H   000003H   BYTE   UNIT     XDATA          ?XD?INTERRUPT_SET_PRIORITY?ZF_COMMON_INTERRUPT
011CB5H   011CB7H   000003H   BYTE   UNIT     XDATA          ?XD?SPI_WRITE_DAT?ZF_DRIVER_SPI
011CB8H   011CBAH   000003H   BYTE   UNIT     XDATA          ?XD?SPI_WRITE_8BIT?ZF_DRIVER_SPI
011CBBH   011CBDH   000003H   BYTE   UNIT     XDATA          ?XD?SPI_READ_8BIT_REGISTER?ZF_DRIVER_SPI
011CBEH   011CC0H   000003H   BYTE   UNIT     XDATA          ?XD?UART_WRITE_BYTE?ZF_DRIVER_UART
011CC1H   011CC3H   000003H   BYTE   UNIT     XDATA          ?XD?UART_RX_INTERRUPT?ZF_DRIVER_UART
011CC4H   011CC6H   000003H   BYTE   UNIT     XDATA          ?XD?UART_READ_BYTE?ZF_DRIVER_UART
011CC7H   011CC9H   000003H   BYTE   UNIT     XDATA          ?XD?BLE6A20_SEND_BYTE?ZF_DEVICE_BLE6A20
011CCAH   011CCCH   000003H   BYTE   UNIT     XDATA          ?XD?DL1A_GET_VCSEL_PULSE_PERIOD?ZF_DEVICE_DL1A
011CCDH   011CCFH   000003H   BYTE   UNIT     XDATA          ?XD?DL1A_GET_DISTANCE?ZF_DEVICE_DL1A
011CD0H   011CD2H   000003H   BYTE   UNIT     XDATA          ?XD?IMU660RA_READ_REGISTER?ZF_DEVICE_IMU660RA
011CD3H   011CD5H   000003H   BYTE   UNIT     XDATA          ?XD?WIRELESS_UART_SEND_BYTE?ZF_DEVICE_WIRELESS_UART
011CD6H   011CD7H   000002H   BYTE   UNIT     XDATA          ?XD?DELAY_CYCLES?ZF_DRIVER_DELAY
011CD8H   011CD9H   000002H   BYTE   UNIT     XDATA          ?XD?SYSTEM_DELAY_MS?ZF_DRIVER_DELAY
011CDAH   011CDBH   000002H   BYTE   UNIT     XDATA          ?XD?SYSTEM_DELAY_US?ZF_DRIVER_DELAY
011CDCH   011CDDH   000002H   BYTE   UNIT     XDATA          ?XD?ENCODER_CLEAR_COUNT?ZF_DRIVER_ENCODER
011CDEH   011CDFH   000002H   BYTE   UNIT     XDATA          ?XD?EXTI_ENABLE?ZF_DRIVER_EXTI
011CE0H   011CE1H   000002H   BYTE   UNIT     XDATA          ?XD?EXTI_DISABLE?ZF_DRIVER_EXTI
011CE2H   011CE3H   000002H   BYTE   UNIT     XDATA          ?XD?GPIO_TOGGLE_LEVEL?ZF_DRIVER_GPIO
011CE4H   011CE5H   000002H   BYTE   UNIT     XDATA          ?XD?SPI_READ_8BIT?ZF_DRIVER_SPI
L251 LINKER/LOCATER V4.66.93.0                                                        03/25/2026  17:12:38  PAGE 10


011CE6H   011CE7H   000002H   BYTE   UNIT     XDATA          ?XD?UART_RX_START_BUFF?ZF_DRIVER_UART
011CE8H   011CE9H   000002H   BYTE   UNIT     XDATA          ?XD?UART_DMA_INIT?ZF_DRIVER_UART
011CEAH   011CEBH   000002H   BYTE   UNIT     XDATA          ?XD?DL1A_DECODE_TIMEOUT?ZF_DEVICE_DL1A
011CECH   011CEDH   000002H   BYTE   UNIT     XDATA          ?XD?DL1A_ENCODE_TIMEOUT?ZF_DEVICE_DL1A
011CEEH   011CEFH   000002H   BYTE   UNIT     XDATA          ?XD?ICM20602_SIMSPI_WR_BYTE?ZF_DEVICE_ICM20602
011CF0H   011CF1H   000002H   BYTE   UNIT     XDATA          ?XD?ICM20602_SIMSPI_W_REG_BYTE?ZF_DEVICE_ICM20602
011CF2H   011CF3H   000002H   BYTE   UNIT     XDATA          ?XD?ICM20602_WRITE_REGISTER?ZF_DEVICE_ICM20602
011CF4H   011CF5H   000002H   BYTE   UNIT     XDATA          ?XD?ICM20602_READ_REGISTER?ZF_DEVICE_ICM20602
011CF6H   011CF7H   000002H   BYTE   UNIT     XDATA          ?XD?IMU660RA_SIMSPI_WR_BYTE?ZF_DEVICE_IMU660RA
011CF8H   011CF9H   000002H   BYTE   UNIT     XDATA          ?XD?IMU660RA_SIMSPI_W_REG_BYTE?ZF_DEVICE_IMU660RA
011CFAH   011CFBH   000002H   BYTE   UNIT     XDATA          ?XD?IMU660RA_WRITE_REGISTER?ZF_DEVICE_IMU660RA
011CFCH   011CFDH   000002H   BYTE   UNIT     XDATA          ?XD?IMU660RB_SIMSPI_WR_BYTE?ZF_DEVICE_IMU660RB
011CFEH   011CFFH   000002H   BYTE   UNIT     XDATA          ?XD?IMU660RB_SIMSPI_W_REG_BYTE?ZF_DEVICE_IMU660RB
011D00H   011D01H   000002H   BYTE   UNIT     XDATA          ?XD?IMU660RB_WRITE_REGISTER?ZF_DEVICE_IMU660RB
011D02H   011D03H   000002H   BYTE   UNIT     XDATA          ?XD?IMU660RB_READ_REGISTER?ZF_DEVICE_IMU660RB
011D04H   011D05H   000002H   BYTE   UNIT     XDATA          ?XD?IMU963RA_WRITE_ACC_GYRO_REGISTER?ZF_DEVICE_IMU963RA
011D06H   011D07H   000002H   BYTE   UNIT     XDATA          ?XD?IMU963RA_READ_ACC_GYRO_REGISTER?ZF_DEVICE_IMU963RA
011D08H   011D09H   000002H   BYTE   UNIT     XDATA          ?XD?IMU963RA_CONNECT_MAG?ZF_DEVICE_IMU963RA
011D0AH   011D0BH   000002H   BYTE   UNIT     XDATA          ?XD?IPS114_SET_DIR?ZF_DEVICE_IPS114
011D0CH   011D0DH   000002H   BYTE   UNIT     XDATA          ?XD?IPS200_SET_DIR?ZF_DEVICE_IPS200
011D0EH   011D0FH   000002H   BYTE   UNIT     XDATA          ?XD?TFT180_SET_DIR?ZF_DEVICE_TFT180
011D10H   011D11H   000002H   BYTE   UNIT     XDATA          ?XD?SEEKFREE_ASSISTANT_INTERFACE_INIT?SEEKFREE_ASSISTANT_I
                                                             -NTERFACE
011D12H   011D13H   000002H   BYTE   INSEG    XDATA          ?XD?MAIN
011D14H   011D15H   000002H   BYTE   UNIT     XDATA          ?XD?IMU_GYRO_OFFSET_INIT?IMU
011D16H   011D17H   000002H   BYTE   INSEG    XDATA          ?XD?EEPROM
011D18H   011D19H   000002H   BYTE   UNIT     XDATA          ?XD?MOTOR_L?MOTOR
011D1AH   011D1BH   000002H   BYTE   UNIT     XDATA          ?XD?MOTOR_R?MOTOR
011D1CH   011D1DH   000002H   BYTE   UNIT     XDATA          ?XD?LED_ON?LED
011D1EH   011D1FH   000002H   BYTE   UNIT     XDATA          ?XD?LED_OFF?LED
011D20H   011D21H   000002H   BYTE   UNIT     XDATA          ?XD?LED_SWITCH?LED
011D22H   011D22H   000001H   BYTE   UNIT     XDATA          ?XD?DEBUG_INTERRUPR_HANDLER?ZF_COMMON_DEBUG
011D23H   011D23H   000001H   BYTE   UNIT     XDATA          ?XD?PUTCHAR?ZF_COMMON_DEBUG
011D24H   011D24H   000001H   BYTE   UNIT     XDATA          ?XD?DEBUG_INIT?ZF_COMMON_DEBUG
011D25H   011D25H   000001H   BYTE   INSEG    XDATA          ?XD?ZF_DRIVER_ADC
011D26H   011D26H   000001H   BYTE   UNIT     XDATA          ?XD?IAP_SET_TPS?ZF_DRIVER_EEPROM
011D27H   011D27H   000001H   BYTE   UNIT     XDATA          ?XD?BLE6A20_CALLBACK?ZF_DEVICE_BLE6A20
011D28H   011D28H   000001H   BYTE   UNIT     XDATA          ?XD?BLE6A20_INIT?ZF_DEVICE_BLE6A20
011D29H   011D29H   000001H   BYTE   UNIT     XDATA          ?XD?DL1B_INIT?ZF_DEVICE_DL1B
011D2AH   011D2AH   000001H   BYTE   UNIT     XDATA          ?XD?IMU660RA_INIT?ZF_DEVICE_IMU660RA
011D2BH   011D2BH   000001H   BYTE   UNIT     XDATA          ?XD?IMU660RB_INIT?ZF_DEVICE_IMU660RB
011D2CH   011D2CH   000001H   BYTE   UNIT     XDATA          ?XD?IMU963RA_INIT?ZF_DEVICE_IMU963RA
011D2DH   011D2DH   000001H   BYTE   UNIT     XDATA          ?XD?IPS114_WRITE_INDEX?ZF_DEVICE_IPS114
011D2EH   011D2EH   000001H   BYTE   UNIT     XDATA          ?XD?IPS200_WRITE_INDEX?ZF_DEVICE_IPS200
011D2FH   011D2FH   000001H   BYTE   UNIT     XDATA          ?XD?TFT180_WRITE_INDEX?ZF_DEVICE_TFT180
011D30H   011D30H   000001H   BYTE   UNIT     XDATA          ?XD?TSL1401_COLLECT_PIT_HANDLER?ZF_DEVICE_TSL1401
011D31H   011D31H   000001H   BYTE   UNIT     XDATA          ?XD?WIRELESS_UART_CALLBACK?ZF_DEVICE_WIRELESS_UART
011D32H   011D32H   000001H   BYTE   UNIT     XDATA          ?XD?WIRELESS_UART_INIT?ZF_DEVICE_WIRELESS_UART
011D33H   011D33H   000001H   BYTE   INSEG    XDATA          ?XD?ISR
011D34H   FEFFFFH   FDE2CCH   ---    ---      **GAP**
FF0000H   FF0002H   000003H   ---    OFFS..   CODE           ?CO?START251?4
FF0003H   FF0005H   000003H   ---    OFFS..   CODE           ?PR?IV?0
FF0006H   FF0009H   000004H   BYTE   INSEG    CODE           ?PR?INTERRUPT_GLOBAL_DISABLE?ZF_COMMON_INTERRUPT
FF000AH   FF000AH   000001H   ---    ---      **GAP**
FF000BH   FF000DH   000003H   ---    OFFS..   CODE           ?PR?IV?1
FF000EH   FF0011H   000004H   BYTE   INSEG    CODE           ?PR?INTERRUPT_GLOBAL_ENABLE?ZF_COMMON_INTERRUPT
FF0012H   FF0012H   000001H   ---    ---      **GAP**
FF0013H   FF0015H   000003H   ---    OFFS..   CODE           ?PR?IV?2
FF0016H   FF0019H   000004H   BYTE   UNIT     CONST          ?CO?PRINTF
FF001AH   FF001AH   000001H   ---    ---      **GAP**
FF001BH   FF001DH   000003H   ---    OFFS..   CODE           ?PR?IV?3
FF001EH   FF0022H   000005H   BYTE   UNIT     HCONST         ?HC?VOLTAGE_WARNING
FF0023H   FF0025H   000003H   ---    OFFS..   CODE           ?PR?IV?4
FF0026H   FF0037H   000012H   BYTE   INSEG    CODE           ?PR?PUTCHAR?ZF_COMMON_DEBUG
FF0038H   FF003EH   000007H   BYTE   UNIT     HCONST         ?HC?MAIN
L251 LINKER/LOCATER V4.66.93.0                                                        03/25/2026  17:12:38  PAGE 11


FF003FH   FF0042H   000004H   ---    ---      **GAP**
FF0043H   FF0045H   000003H   ---    OFFS..   CODE           ?PR?IV?8
FF0046H   FF0052H   00000DH   ---    ---      **GAP**
FF0053H   FF0055H   000003H   ---    OFFS..   CODE           ?PR?IV?10
FF0056H   FF005AH   000005H   ---    ---      **GAP**
FF005BH   FF005DH   000003H   ---    OFFS..   CODE           ?PR?IV?11
FF005EH   FF0062H   000005H   ---    ---      **GAP**
FF0063H   FF0065H   000003H   ---    OFFS..   CODE           ?PR?IV?12
FF0066H   FF0077H   000012H   BYTE   INSEG    CODE           ?PR?LED_OFF?LED
FF0078H   FF0082H   00000BH   ---    ---      **GAP**
FF0083H   FF0085H   000003H   ---    OFFS..   CODE           ?PR?IV?16
FF0086H   FF008AH   000005H   ---    ---      **GAP**
FF008BH   FF008DH   000003H   ---    OFFS..   CODE           ?PR?IV?17
FF008EH   FF0092H   000005H   ---    ---      **GAP**
FF0093H   FF0095H   000003H   ---    OFFS..   CODE           ?PR?IV?18
FF0096H   FF009AH   000005H   ---    ---      **GAP**
FF009BH   FF009DH   000003H   ---    OFFS..   CODE           ?PR?IV?19
FF009EH   FF00A2H   000005H   ---    ---      **GAP**
FF00A3H   FF00A5H   000003H   ---    OFFS..   CODE           ?PR?IV?20
FF00A6H   FF0199H   0000F4H   BYTE   INSEG    CODE           ?PR?SOFT_IIC_SEND_DATA?ZF_DRIVER_SOFT_IIC
FF019AH   FF019AH   000001H   ---    ---      **GAP**
FF019BH   FF019DH   000003H   ---    OFFS..   CODE           ?CO?stc32g_isr?1
FF019EH   FF01AAH   00000DH   ---    ---      **GAP**
FF01ABH   FF01ADH   000003H   ---    OFFS..   CODE           ?CO?stc32g_isr?2
FF01AEH   FF01BAH   00000DH   ---    ---      **GAP**
FF01BBH   FF01BDH   000003H   ---    OFFS..   CODE           ?CO?stc32g_isr?3
FF01BEH   FF01CAH   00000DH   ---    ---      **GAP**
FF01CBH   FF01CDH   000003H   ---    OFFS..   CODE           ?CO?stc32g_isr?4
FF01CEH   FF21CDH   002000H   BYTE   UNIT     CODE           ?CO?ZF_DEVICE_CONFIG
FF21CEH   FF3070H   000EA3H   BYTE   UNIT     CODE           ?C?LIB_CODE
FF3071H   FF3660H   0005F0H   BYTE   UNIT     CODE           ?CO?ZF_COMMON_FONT
FF3661H   FF3C08H   0005A8H   BYTE   INSEG    CODE           ?PR?FIFO_WRITE_BUFFER?ZF_COMMON_FIFO
FF3C09H   FF418CH   000584H   BYTE   INSEG    CODE           ?PR?GPIO_SET_DIR?ZF_DRIVER_GPIO
FF418DH   FF447DH   0002F1H   BYTE   INSEG    CODE           ?PR?UART_INIT?ZF_DRIVER_UART
FF447EH   FF4769H   0002ECH   BYTE   INSEG    CODE           ?PR?GPIO_SET_MODE?ZF_DRIVER_GPIO
FF476AH   FF49ECH   000283H   BYTE   INSEG    CODE           ?PR?PIT_INIT?ZF_DRIVER_PIT
FF49EDH   FF4C01H   000215H   BYTE   INSEG    CODE           ?PR?GPIO_SET_LEVEL?ZF_DRIVER_GPIO
FF4C02H   FF4E12H   000211H   BYTE   INSEG    CODE           ?PR?SET_SYS_CLK?ZF_COMMON_CLOCK
FF4E13H   FF4FE8H   0001D6H   BYTE   INSEG    CODE           ?PR?UART_WRITE_BUFFER?ZF_DRIVER_UART
FF4FE9H   FF519AH   0001B2H   BYTE   INSEG    CODE           ?PR?GPIO_SET_IMPEDANCE?ZF_DRIVER_GPIO
FF519BH   FF533DH   0001A3H   BYTE   INSEG    CODE           ?PR?UART_DMA_INIT?ZF_DRIVER_UART
FF533EH   FF5483H   000146H   BYTE   INSEG    CODE           ?PR?GPIO_GET_LEVEL?ZF_DRIVER_GPIO
FF5484H   FF55C5H   000142H   BYTE   INSEG    CODE           ?PR?SOFT_IIC_READ_DATA?ZF_DRIVER_SOFT_IIC
FF55C6H   FF56D4H   00010FH   BYTE   INSEG    CODE           ?PR?GPIO_INIT?ZF_DRIVER_GPIO
FF56D5H   FF57B7H   0000E3H   BYTE   INSEG    CODE           ?PR?FIFO_INIT?ZF_COMMON_FIFO
FF57B8H   FF589AH   0000E3H   BYTE   INSEG    CODE           ?PR?SOFT_IIC_WAIT_ACK?ZF_DRIVER_SOFT_IIC
FF589BH   FF5975H   0000DBH   BYTE   INSEG    CODE           ?PR?SOFT_IIC_SEND_ACK?ZF_DRIVER_SOFT_IIC
FF5976H   FF5A37H   0000C2H   BYTE   INSEG    CODE           ?PR?UART_RX_START_BUFF?ZF_DRIVER_UART
FF5A38H   FF5AF6H   0000BFH   BYTE   INSEG    CODE           ?PR?SOFT_IIC_STOP?ZF_DRIVER_SOFT_IIC
FF5AF7H   FF5BA6H   0000B0H   BYTE   INSEG    CODE           ?PR?DMA_UART1_IRQHANDLER?ISR
FF5BA7H   FF5C4DH   0000A7H   BYTE   INSEG    CODE           ?PR?DEBUG_INIT?ZF_COMMON_DEBUG
FF5C4EH   FF5CF4H   0000A7H   BYTE   INSEG    CODE           ?PR?SOFT_IIC_START?ZF_DRIVER_SOFT_IIC
FF5CF5H   FF5D94H   0000A0H   BYTE   INSEG    CODE           ?PR?FIFO_HEAD_OFFSET?ZF_COMMON_FIFO
FF5D95H   FF5E33H   00009FH   BYTE   INSEG    CODE           ?PR?UART_QUERY_BYTE?ZF_DRIVER_UART
FF5E34H   FF5EC2H   00008FH   BYTE   INSEG    CODE           ?PR?DMA_UART2_IRQHANDLER?ISR
FF5EC3H   FF5F51H   00008FH   BYTE   INSEG    CODE           ?PR?DMA_UART3_IRQHANDLER?ISR
FF5F52H   FF5FE0H   00008FH   BYTE   INSEG    CODE           ?PR?DMA_UART4_IRQHANDLER?ISR
FF5FE1H   FF6061H   000081H   BYTE   INSEG    CODE           ?PR?CLOCK_INIT?ZF_COMMON_CLOCK
FF6062H   FF60E2H   000081H   BYTE   INSEG    CODE           ?PR?TIMER_FUNCITON_CHECK?ZF_DRIVER_TIMER
FF60E3H   FF6163H   000081H   BYTE   INSEG    CODE           ?PR?UART_FUNCITON_CHECK?ZF_DRIVER_UART
FF6164H   FF61DCH   000079H   BYTE   INSEG    CODE           ?PR?DEBUG_ASSERT_HANDLER?ZF_COMMON_DEBUG
FF61DDH   FF6254H   000078H   BYTE   INSEG    CODE           ?PR?SPI_READ_DAT?ZF_DRIVER_SPI
FF6255H   FF62BAH   000066H   BYTE   INSEG    CODE           ?PR?UART_RX_INTERRUPT?ZF_DRIVER_UART
FF62BBH   FF6312H   000058H   BYTE   INSEG    CODE           ?PR?SYSTEM_DELAY_INIT?ZF_DRIVER_DELAY
FF6313H   FF6333H   000021H   BYTE   UNIT     CODE           ?C_C51STARTUP
L251 LINKER/LOCATER V4.66.93.0                                                        03/25/2026  17:12:38  PAGE 12


FF6334H   FF6364H   000031H   BYTE   UNIT     CODE           ?C_C51STARTUP?2
FF6365H   FF6367H   000003H   BYTE   UNIT     CODE           ?C_C51STARTUP?3
FF6368H   FF63BAH   000053H   BYTE   INSEG    CODE           ?PR?IMU660RA_SIMSPI_WR_BYTE?ZF_DEVICE_IMU660RA
FF63BBH   FF6406H   00004CH   BYTE   INSEG    CODE           ?PR?PIT_HANDLER?MAIN
FF6407H   FF6446H   000040H   BYTE   INSEG    CODE           ?PR?INT0_IRQHANDLER?ISR
FF6447H   FF6486H   000040H   BYTE   INSEG    CODE           ?PR?INT1_IRQHANDLER?ISR
FF6487H   FF64C6H   000040H   BYTE   INSEG    CODE           ?PR?INT2_IRQHANDLER?ISR
FF64C7H   FF6506H   000040H   BYTE   INSEG    CODE           ?PR?INT3_IRQHANDLER?ISR
FF6507H   FF6546H   000040H   BYTE   INSEG    CODE           ?PR?INT4_IRQHANDLER?ISR
FF6547H   FF6586H   000040H   BYTE   INSEG    CODE           ?PR?TM0_IRQHANDLER?ISR
FF6587H   FF65C6H   000040H   BYTE   INSEG    CODE           ?PR?TM1_IRQHANDLER?ISR
FF65C7H   FF6606H   000040H   BYTE   INSEG    CODE           ?PR?TM2_IRQHANDLER?ISR
FF6607H   FF6646H   000040H   BYTE   INSEG    CODE           ?PR?TM3_IRQHANDLER?ISR
FF6647H   FF6686H   000040H   BYTE   INSEG    CODE           ?PR?TM4_IRQHANDLER?ISR
FF6687H   FF66C2H   00003CH   BYTE   INSEG    CODE           ?PR?DEBUG_INTERRUPR_HANDLER?ZF_COMMON_DEBUG
FF66C3H   FF66FEH   00003CH   BYTE   INSEG    CODE           ?PR?SOFT_IIC_DELAY?ZF_DRIVER_SOFT_IIC
FF66FFH   FF6734H   000036H   BYTE   INSEG    CODE           ?PR?_M?MAIN
FF6735H   FF6760H   00002CH   BYTE   INSEG    CODE           ?PR?MAIN?MAIN
FF6761H   FF678AH   00002AH   BYTE   INSEG    CODE           ?PR?LED_INIT?LED
FF678BH   FF67AFH   000025H   BYTE   INSEG    CODE           ?PR?SYSTEM_DELAY_MS?ZF_DRIVER_DELAY
FF67B0H   FF67D4H   000025H   BYTE   INSEG    CODE           ?PR?MEMCPY?_?MEMCPY
FF67D5H   FF67F4H   000020H   BYTE   INSEG    CODE           ?PR?UART_WRITE_BYTE?ZF_DRIVER_UART
FF67F5H   FF6812H   00001EH   BYTE   INSEG    CODE           ?PR?DELAY_CYCLES?ZF_DRIVER_DELAY
FF6813H   FF6823H   000011H   BYTE   INSEG    CODE           ?PR?LED_ON?LED
FF6824H   FF6CE7H   0004C4H   BYTE   UNIT     HCONST         ?C_INITHDATA
FF6CE8H   FF6EE7H   000200H   BYTE   UNIT     HCONST         ?HC?ZF_DRIVER_EEPROM
FF6EE8H   FF7016H   00012FH   BYTE   UNIT     HCONST         ?HC?ZF_DEVICE_DL1A
FF7017H   FF70E6H   0000D0H   BYTE   UNIT     HCONST         ?HC?ZF_DEVICE_IMU963RA
FF70E7H   FF718DH   0000A7H   BYTE   UNIT     HCONST         ?HC?ZF_DEVICE_IMU660RA
FF718EH   FF7231H   0000A4H   BYTE   UNIT     HCONST         ?HC?SEEKFREE_ASSISTANT
FF7232H   FF72D3H   0000A2H   BYTE   UNIT     HCONST         ?HC?ZF_DEVICE_GPS_TAU1201
FF72D4H   FF735DH   00008AH   BYTE   UNIT     HCONST         ?HC?ZF_DRIVER_PWM
FF735EH   FF73E5H   000088H   BYTE   UNIT     HCONST         ?HC?ZF_DEVICE_ICM20602
FF73E6H   FF7450H   00006BH   BYTE   UNIT     HCONST         ?HC?ZF_DRIVER_UART
FF7451H   FF74A7H   000057H   BYTE   UNIT     HCONST         ?HC?ZF_COMMON_FUNCTION
FF74A8H   FF74DBH   000034H   BYTE   UNIT     HCONST         ?HC?ZF_DEVICE_WIRELESS_UART
FF74DCH   FF750EH   000033H   BYTE   UNIT     HCONST         ?HC?ZF_DEVICE_IPS114
FF750FH   FF7541H   000033H   BYTE   UNIT     HCONST         ?HC?ZF_DEVICE_IPS200
FF7542H   FF7574H   000033H   BYTE   UNIT     HCONST         ?HC?ZF_DEVICE_TFT180
FF7575H   FF75A3H   00002FH   BYTE   UNIT     HCONST         ?HC?ZF_DRIVER_SOFT_IIC
FF75A4H   FF75D2H   00002FH   BYTE   UNIT     HCONST         ?HC?ZF_DRIVER_SOFT_SPI
FF75D3H   FF7600H   00002EH   BYTE   UNIT     HCONST         ?HC?ZF_DRIVER_ENCODER
FF7601H   FF762EH   00002EH   BYTE   UNIT     HCONST         ?HC?ZF_DEVICE_BLE6A20
FF762FH   FF7659H   00002BH   BYTE   UNIT     HCONST         ?HC?ZF_COMMON_FIFO
FF765AH   FF7684H   00002BH   BYTE   UNIT     HCONST         ?HC?ZF_DRIVER_GPIO
FF7685H   FF76AEH   00002AH   BYTE   UNIT     HCONST         ?HC?ZF_DRIVER_ADC
FF76AFH   FF76D8H   00002AH   BYTE   UNIT     HCONST         ?HC?ZF_DRIVER_SPI
FF76D9H   FF76FDH   000025H   BYTE   UNIT     HCONST         ?HC?ZF_COMMON_DEBUG
FF76FEH   FF7718H   00001BH   BYTE   UNIT     HCONST         ?HC?ZF_DEVICE_IMU660RB

* * * * * * * * *   R E M O V E D     S E G M E N T S   * * * * * * * *
   *DEL*:           00004EH   BYTE   INSEG    CODE           ?PR?DEBUG_READ_BUFFER?ZF_COMMON_DEBUG
   *DEL*:           000067H   BYTE   INSEG    CODE           ?PR?DEBUG_SEND_BUFFER?ZF_COMMON_DEBUG
   *DEL*:           0005B1H   BYTE   INSEG    CODE           ?PR?FIFO_READ_BUFFER?ZF_COMMON_FIFO
   *DEL*:           000186H   BYTE   INSEG    CODE           ?PR?FIFO_CLEAR?ZF_COMMON_FIFO
   *DEL*:           0000A0H   BYTE   INSEG    CODE           ?PR?FIFO_END_OFFSET?ZF_COMMON_FIFO
   *DEL*:           000059H   BYTE   INSEG    CODE           ?PR?FIFO_USED?ZF_COMMON_FIFO
   *DEL*:           0003B0H   BYTE   INSEG    CODE           ?PR?FUNC_DOUBLE_TO_STR?ZF_COMMON_FUNCTION
   *DEL*:           000275H   BYTE   INSEG    CODE           ?PR?FUNC_STR_TO_DOUBLE?ZF_COMMON_FUNCTION
   *DEL*:           000197H   BYTE   INSEG    CODE           ?PR?NUMBER_CONVERSION_ASCII?ZF_COMMON_FUNCTION
   *DEL*:           0003B0H   BYTE   INSEG    CODE           ?PR?FUNC_FLOAT_TO_STR?ZF_COMMON_FUNCTION
   *DEL*:           000275H   BYTE   INSEG    CODE           ?PR?FUNC_STR_TO_FLOAT?ZF_COMMON_FUNCTION
   *DEL*:           000028H   BYTE   INSEG    CODE           ?PR?FUNC_SOFT_DELAY?ZF_COMMON_FUNCTION
   *DEL*:           00091FH   BYTE   INSEG    CODE           ?PR?ZF_SPRINTF?ZF_COMMON_FUNCTION
   *DEL*:           00011BH   BYTE   INSEG    CODE           ?PR?FUNC_UINT_TO_STR?ZF_COMMON_FUNCTION
L251 LINKER/LOCATER V4.66.93.0                                                        03/25/2026  17:12:38  PAGE 13


   *DEL*:           0000C0H   BYTE   INSEG    CODE           ?PR?FUNC_STR_TO_UINT?ZF_COMMON_FUNCTION
   *DEL*:           000184H   BYTE   INSEG    CODE           ?PR?FUNC_HEX_TO_STR?ZF_COMMON_FUNCTION
   *DEL*:           0001ECH   BYTE   INSEG    CODE           ?PR?FUNC_STR_TO_HEX?ZF_COMMON_FUNCTION
   *DEL*:           0001B5H   BYTE   INSEG    CODE           ?PR?FUNC_INT_TO_STR?ZF_COMMON_FUNCTION
   *DEL*:           000141H   BYTE   INSEG    CODE           ?PR?FUNC_STR_TO_INT?ZF_COMMON_FUNCTION
   *DEL*:           0000A6H   BYTE   INSEG    CODE           ?PR?FUNC_GET_GREATEST_COMMON_DIVISOR?ZF_COMMON_FUNCTION
   *DEL*:           0006E4H   BYTE   INSEG    CODE           ?PR?VSNPRINTF?ZF_COMMON_FUNCTION
   *DEL*:           0000F9H   BYTE   INSEG    CODE           ?PR?PRINTF_REVERSE_ORDER?ZF_COMMON_FUNCTION
   *DEL*:           0000CDH   BYTE   INSEG    CODE           ?PR?INTERRUPT_SET_PRIORITY?ZF_COMMON_INTERRUPT
   *DEL*:           000090H   BYTE   INSEG    CODE           ?PR?ADC_MEAN_FILTER_CONVERT?ZF_DRIVER_ADC
   *DEL*:           000065H   BYTE   INSEG    CODE           ?PR?ADC_CONVERT?ZF_DRIVER_ADC
   *DEL*:           0000C5H   BYTE   INSEG    CODE           ?PR?ADC_INIT?ZF_DRIVER_ADC
   *DEL*:           000025H   BYTE   INSEG    CODE           ?PR?SYSTEM_DELAY_US?ZF_DRIVER_DELAY
   *DEL*:           00002AH   BYTE   INSEG    CODE           ?PR?IAP_SET_TPS?ZF_DRIVER_EEPROM
   *DEL*:           00000DH   BYTE   INSEG    CODE           ?PR?EEPROM_TRIG?ZF_DRIVER_EEPROM
   *DEL*:           00004FH   BYTE   INSEG    CODE           ?PR?IAP_ERASE_PAGE?ZF_DRIVER_EEPROM
   *DEL*:           000004H   BYTE   INSEG    CODE           ?PR?IAP_IDLE?ZF_DRIVER_EEPROM
   *DEL*:           000075H   BYTE   INSEG    CODE           ?PR?IAP_READ_BUFF?ZF_DRIVER_EEPROM
   *DEL*:           000119H   BYTE   INSEG    CODE           ?PR?EXTERN_IAP_WRITE_BUFF?ZF_DRIVER_EEPROM
   *DEL*:           000072H   BYTE   INSEG    CODE           ?PR?IAP_WRITE_BUFF?ZF_DRIVER_EEPROM
   *DEL*:           000052H   BYTE   INSEG    CODE           ?PR?IAP_READ_BYTE?ZF_DRIVER_EEPROM
   *DEL*:           000008H   BYTE   INSEG    CODE           ?PR?IAP_INIT?ZF_DRIVER_EEPROM
   *DEL*:           000052H   BYTE   INSEG    CODE           ?PR?IAP_WRITE_BYTE?ZF_DRIVER_EEPROM
   *DEL*:           000012H   BYTE   INSEG    CODE           ?PR?IAP_GET_CMD_STATE?ZF_DRIVER_EEPROM
   *DEL*:           000109H   BYTE   INSEG    CODE           ?PR?ENCODER_GET_COUNT?ZF_DRIVER_ENCODER
   *DEL*:           00010DH   BYTE   INSEG    CODE           ?PR?ENCODER_DIR_INIT?ZF_DRIVER_ENCODER
   *DEL*:           000065H   BYTE   INSEG    CODE           ?PR?ENCODER_CLEAR_COUNT?ZF_DRIVER_ENCODER
   *DEL*:           000045H   BYTE   INSEG    CODE           ?PR?EXTI_ENABLE?ZF_DRIVER_EXTI
   *DEL*:           000013H   BYTE   INSEG    CODE           ?PR?EXTI_ALL_CLOSE?ZF_DRIVER_EXTI
   *DEL*:           00005BH   BYTE   INSEG    CODE           ?PR?EXTI_INIT?ZF_DRIVER_EXTI
   *DEL*:           000045H   BYTE   INSEG    CODE           ?PR?EXTI_DISABLE?ZF_DRIVER_EXTI
   *DEL*:           000023H   BYTE   INSEG    CODE           ?PR?GPIO_TOGGLE_LEVEL?ZF_DRIVER_GPIO
   *DEL*:           000313H   BYTE   INSEG    CODE           ?PR?GPIO_SET_LEVEL_SPEED?ZF_DRIVER_GPIO
   *DEL*:           0002D5H   BYTE   INSEG    CODE           ?PR?PWM_SET_FREQ?ZF_DRIVER_PWM
   *DEL*:           0001D4H   BYTE   INSEG    CODE           ?PR?PWM_SET_DUTY?ZF_DRIVER_PWM
   *DEL*:           000643H   BYTE   INSEG    CODE           ?PR?PWM_INIT?ZF_DRIVER_PWM
   *DEL*:           000091H   BYTE   INSEG    CODE           ?PR?SOFT_IIC_WRITE_8BIT_REGISTER?ZF_DRIVER_SOFT_IIC
   *DEL*:           000186H   BYTE   INSEG    CODE           ?PR?SOFT_IIC_READ_16BIT_REGISTERS?ZF_DRIVER_SOFT_IIC
   *DEL*:           0000D2H   BYTE   INSEG    CODE           ?PR?SOFT_IIC_SCCB_READ_REGISTER?ZF_DRIVER_SOFT_IIC
   *DEL*:           000117H   BYTE   INSEG    CODE           ?PR?SOFT_IIC_READ_16BIT_REGISTER?ZF_DRIVER_SOFT_IIC
   *DEL*:           0001F3H   BYTE   INSEG    CODE           ?PR?SOFT_IIC_TRANSFER_16BIT_ARRAY?ZF_DRIVER_SOFT_IIC
   *DEL*:           00012FH   BYTE   INSEG    CODE           ?PR?SOFT_IIC_WRITE_16BIT_REGISTERS?ZF_DRIVER_SOFT_IIC
   *DEL*:           000091H   BYTE   INSEG    CODE           ?PR?SOFT_IIC_SCCB_WRITE_REGISTER?ZF_DRIVER_SOFT_IIC
   *DEL*:           000085H   BYTE   INSEG    CODE           ?PR?SOFT_IIC_READ_8BIT?ZF_DRIVER_SOFT_IIC
   *DEL*:           0000F7H   BYTE   INSEG    CODE           ?PR?SOFT_IIC_READ_8BIT_ARRAY?ZF_DRIVER_SOFT_IIC
   *DEL*:           0000DDH   BYTE   INSEG    CODE           ?PR?SOFT_IIC_WRITE_16BIT_REGISTER?ZF_DRIVER_SOFT_IIC
   *DEL*:           00007AH   BYTE   INSEG    CODE           ?PR?SOFT_IIC_WRITE_8BIT?ZF_DRIVER_SOFT_IIC
   *DEL*:           0000D3H   BYTE   INSEG    CODE           ?PR?SOFT_IIC_WRITE_8BIT_ARRAY?ZF_DRIVER_SOFT_IIC
   *DEL*:           0000B0H   BYTE   INSEG    CODE           ?PR?SOFT_IIC_READ_16BIT?ZF_DRIVER_SOFT_IIC
   *DEL*:           000129H   BYTE   INSEG    CODE           ?PR?SOFT_IIC_READ_16BIT_ARRAY?ZF_DRIVER_SOFT_IIC
   *DEL*:           0000DFH   BYTE   INSEG    CODE           ?PR?SOFT_IIC_INIT?ZF_DRIVER_SOFT_IIC
   *DEL*:           000137H   BYTE   INSEG    CODE           ?PR?SOFT_IIC_READ_8BIT_REGISTERS?ZF_DRIVER_SOFT_IIC
   *DEL*:           0000A1H   BYTE   INSEG    CODE           ?PR?SOFT_IIC_WRITE_16BIT?ZF_DRIVER_SOFT_IIC
   *DEL*:           0000FDH   BYTE   INSEG    CODE           ?PR?SOFT_IIC_WRITE_16BIT_ARRAY?ZF_DRIVER_SOFT_IIC
   *DEL*:           0000C5H   BYTE   INSEG    CODE           ?PR?SOFT_IIC_READ_8BIT_REGISTER?ZF_DRIVER_SOFT_IIC
   *DEL*:           000197H   BYTE   INSEG    CODE           ?PR?SOFT_IIC_TRANSFER_8BIT_ARRAY?ZF_DRIVER_SOFT_IIC
   *DEL*:           0000E8H   BYTE   INSEG    CODE           ?PR?SOFT_IIC_WRITE_8BIT_REGISTERS?ZF_DRIVER_SOFT_IIC
   *DEL*:           0002EFH   BYTE   INSEG    CODE           ?PR?SOFT_SPI_INIT?ZF_DRIVER_SOFT_SPI
   *DEL*:           000111H   BYTE   INSEG    CODE           ?PR?SOFT_SPI_READ_8BIT_REGISTERS?ZF_DRIVER_SOFT_SPI
   *DEL*:           000099H   BYTE   INSEG    CODE           ?PR?SOFT_SPI_WRITE_16BIT?ZF_DRIVER_SOFT_SPI
   *DEL*:           000216H   BYTE   INSEG    CODE           ?PR?SOFT_SPI_8BIT_DATA_HANDLER?ZF_DRIVER_SOFT_SPI
   *DEL*:           0000EEH   BYTE   INSEG    CODE           ?PR?SOFT_SPI_WRITE_16BIT_ARRAY?ZF_DRIVER_SOFT_SPI
   *DEL*:           0000B0H   BYTE   INSEG    CODE           ?PR?SOFT_SPI_READ_8BIT_REGISTER?ZF_DRIVER_SOFT_SPI
   *DEL*:           000159H   BYTE   INSEG    CODE           ?PR?SOFT_SPI_TRANSFER_8BIT?ZF_DRIVER_SOFT_SPI
   *DEL*:           000103H   BYTE   INSEG    CODE           ?PR?SOFT_SPI_WRITE_8BIT_REGISTERS?ZF_DRIVER_SOFT_SPI
L251 LINKER/LOCATER V4.66.93.0                                                        03/25/2026  17:12:38  PAGE 14


   *DEL*:           0000ACH   BYTE   INSEG    CODE           ?PR?SOFT_SPI_WRITE_8BIT_REGISTER?ZF_DRIVER_SOFT_SPI
   *DEL*:           00010EH   BYTE   INSEG    CODE           ?PR?SOFT_SPI_READ_16BIT_REGISTERS?ZF_DRIVER_SOFT_SPI
   *DEL*:           000250H   BYTE   INSEG    CODE           ?PR?SOFT_SPI_16BIT_DATA_HANDLER?ZF_DRIVER_SOFT_SPI
   *DEL*:           0000BCH   BYTE   INSEG    CODE           ?PR?SOFT_SPI_READ_16BIT_REGISTER?ZF_DRIVER_SOFT_SPI
   *DEL*:           00015BH   BYTE   INSEG    CODE           ?PR?SOFT_SPI_TRANSFER_16BIT?ZF_DRIVER_SOFT_SPI
   *DEL*:           0000FDH   BYTE   INSEG    CODE           ?PR?SOFT_SPI_WRITE_16BIT_REGISTERS?ZF_DRIVER_SOFT_SPI
   *DEL*:           00009BH   BYTE   INSEG    CODE           ?PR?SOFT_SPI_READ_8BIT?ZF_DRIVER_SOFT_SPI
   *DEL*:           0000FCH   BYTE   INSEG    CODE           ?PR?SOFT_SPI_READ_8BIT_ARRAY?ZF_DRIVER_SOFT_SPI
   *DEL*:           0000B2H   BYTE   INSEG    CODE           ?PR?SOFT_SPI_WRITE_16BIT_REGISTER?ZF_DRIVER_SOFT_SPI
   *DEL*:           000095H   BYTE   INSEG    CODE           ?PR?SOFT_SPI_WRITE_8BIT?ZF_DRIVER_SOFT_SPI
   *DEL*:           0000EEH   BYTE   INSEG    CODE           ?PR?SOFT_SPI_WRITE_8BIT_ARRAY?ZF_DRIVER_SOFT_SPI
   *DEL*:           00003CH   BYTE   INSEG    CODE           ?PR?SOFT_SPI_DELAY?ZF_DRIVER_SOFT_SPI
   *DEL*:           0000A0H   BYTE   INSEG    CODE           ?PR?SOFT_SPI_READ_16BIT?ZF_DRIVER_SOFT_SPI
   *DEL*:           0000FFH   BYTE   INSEG    CODE           ?PR?SOFT_SPI_READ_16BIT_ARRAY?ZF_DRIVER_SOFT_SPI
   *DEL*:           00002BH   BYTE   INSEG    CODE           ?PR?SPI_WRITE_8BIT_REGISTER?ZF_DRIVER_SPI
   *DEL*:           0000BCH   BYTE   INSEG    CODE           ?PR?SPI_READ_16BIT_REGISTERS?ZF_DRIVER_SPI
   *DEL*:           000079H   BYTE   INSEG    CODE           ?PR?SPI_READ_16BIT_REGISTER?ZF_DRIVER_SPI
   *DEL*:           00010DH   BYTE   INSEG    CODE           ?PR?SPI_TRANSFER_16BIT?ZF_DRIVER_SPI
   *DEL*:           00008AH   BYTE   INSEG    CODE           ?PR?SPI_WRITE_16BIT_REGISTERS?ZF_DRIVER_SPI
   *DEL*:           000011H   BYTE   INSEG    CODE           ?PR?SPI_READ_8BIT?ZF_DRIVER_SPI
   *DEL*:           00005DH   BYTE   INSEG    CODE           ?PR?SPI_READ_8BIT_ARRAY?ZF_DRIVER_SPI
   *DEL*:           00006FH   BYTE   INSEG    CODE           ?PR?SPI_WRITE_16BIT_REGISTER?ZF_DRIVER_SPI
   *DEL*:           000018H   BYTE   INSEG    CODE           ?PR?SPI_WRITE_8BIT?ZF_DRIVER_SPI
   *DEL*:           00004FH   BYTE   INSEG    CODE           ?PR?SPI_WRITE_8BIT_ARRAY?ZF_DRIVER_SPI
   *DEL*:           000045H   BYTE   INSEG    CODE           ?PR?SPI_READ_16BIT?ZF_DRIVER_SPI
   *DEL*:           000088H   BYTE   INSEG    CODE           ?PR?SPI_READ_16BIT_ARRAY?ZF_DRIVER_SPI
   *DEL*:           0004D9H   BYTE   INSEG    CODE           ?PR?SPI_INIT?ZF_DRIVER_SPI
   *DEL*:           00006EH   BYTE   INSEG    CODE           ?PR?SPI_READ_8BIT_REGISTERS?ZF_DRIVER_SPI
   *DEL*:           00003BH   BYTE   INSEG    CODE           ?PR?SPI_WRITE_16BIT?ZF_DRIVER_SPI
   *DEL*:           000075H   BYTE   INSEG    CODE           ?PR?SPI_WRITE_16BIT_ARRAY?ZF_DRIVER_SPI
   *DEL*:           000022H   BYTE   INSEG    CODE           ?PR?SPI_READ_8BIT_REGISTER?ZF_DRIVER_SPI
   *DEL*:           0000A4H   BYTE   INSEG    CODE           ?PR?SPI_TRANSFER_8BIT?ZF_DRIVER_SPI
   *DEL*:           000060H   BYTE   INSEG    CODE           ?PR?SPI_WRITE_8BIT_REGISTERS?ZF_DRIVER_SPI
   *DEL*:           00005CH   BYTE   INSEG    CODE           ?PR?SPI_WRITE_DAT?ZF_DRIVER_SPI
   *DEL*:           00003DH   BYTE   INSEG    CODE           ?PR?UART_WRITE_STRING?ZF_DRIVER_UART
   *DEL*:           000072H   BYTE   INSEG    CODE           ?PR?UART_READ_BYTE?ZF_DRIVER_UART
   *DEL*:           000084H   BYTE   INSEG    CODE           ?PR?BLE6A20_READ_BUFFER?ZF_DEVICE_BLE6A20
   *DEL*:           000110H   BYTE   INSEG    CODE           ?PR?BLE6A20_SEND_BUFFER?ZF_DEVICE_BLE6A20
   *DEL*:           00005DH   BYTE   INSEG    CODE           ?PR?BLE6A20_SEND_STRING?ZF_DEVICE_BLE6A20
   *DEL*:           000026H   BYTE   INSEG    CODE           ?PR?BLE6A20_CALLBACK?ZF_DEVICE_BLE6A20
   *DEL*:           000088H   BYTE   INSEG    CODE           ?PR?BLE6A20_INIT?ZF_DEVICE_BLE6A20
   *DEL*:           00006DH   BYTE   INSEG    CODE           ?PR?BLE6A20_SEND_BYTE?ZF_DEVICE_BLE6A20
   *DEL*:           00006FH   BYTE   INSEG    CODE           ?PR?DL1A_TIMEOUT_MICROSECONDS_TO_MCLKS?ZF_DEVICE_DL1A
   *DEL*:           000069H   BYTE   INSEG    CODE           ?PR?DL1A_TIMEOUT_MCLKS_TO_MICROSECONDS?ZF_DEVICE_DL1A
   *DEL*:           0000A2H   BYTE   INSEG    CODE           ?PR?DL1A_SET_SIGNAL_RATE_LIMIT?ZF_DEVICE_DL1A
   *DEL*:           000030H   BYTE   INSEG    CODE           ?PR?DL1A_DECODE_TIMEOUT?ZF_DEVICE_DL1A
   *DEL*:           000259H   BYTE   INSEG    CODE           ?PR?DL1A_GET_SPAD_INFO?ZF_DEVICE_DL1A
   *DEL*:           000085H   BYTE   INSEG    CODE           ?PR?DL1A_ENCODE_TIMEOUT?ZF_DEVICE_DL1A
   *DEL*:           0000CBH   BYTE   INSEG    CODE           ?PR?DL1A_GET_SEQUENCE_STEP_ENABLES?ZF_DEVICE_DL1A
   *DEL*:           0000D3H   BYTE   INSEG    CODE           ?PR?DL1A_GET_DISTANCE?ZF_DEVICE_DL1A
   *DEL*:           0000D6H   BYTE   INSEG    CODE           ?PR?DL1A_PERFORM_SINGLE_REF_CALIBRATION?ZF_DEVICE_DL1A
   *DEL*:           00021AH   BYTE   INSEG    CODE           ?PR?DL1A_GET_SEQUENCE_STEP_TIMEOUTS?ZF_DEVICE_DL1A
   *DEL*:           000001H   BYTE   INSEG    CODE           ?PR?DL1A_INT_HANDLER?ZF_DEVICE_DL1A
   *DEL*:           000119H   BYTE   INSEG    CODE           ?PR?DL1A_GET_MEASUREMENT_TIMING_BUDGET?ZF_DEVICE_DL1A
   *DEL*:           000210H   BYTE   INSEG    CODE           ?PR?DL1A_SET_MEASUREMENT_TIMING_BUDGET?ZF_DEVICE_DL1A
   *DEL*:           000602H   BYTE   INSEG    CODE           ?PR?DL1A_INIT?ZF_DEVICE_DL1A
   *DEL*:           00009EH   BYTE   INSEG    CODE           ?PR?DL1A_GET_VCSEL_PULSE_PERIOD?ZF_DEVICE_DL1A
   *DEL*:           0001E4H   BYTE   INSEG    CODE           ?PR?DL1B_GET_DISTANCE?ZF_DEVICE_DL1B
   *DEL*:           000001H   BYTE   INSEG    CODE           ?PR?DL1B_INT_HANDLER?ZF_DEVICE_DL1B
   *DEL*:           00000AH   BYTE   INSEG    CODE           ?PR?DL1B_INIT?ZF_DEVICE_DL1B
   *DEL*:           000094H   BYTE   INSEG    CODE           ?PR?GET_DOUBLE_NUMBER?ZF_DEVICE_GPS_TAU1201
   *DEL*:           000094H   BYTE   INSEG    CODE           ?PR?GET_FLOAT_NUMBER?ZF_DEVICE_GPS_TAU1201
   *DEL*:           0001CEH   BYTE   INSEG    CODE           ?PR?UTC_TO_BTC?ZF_DEVICE_GPS_TAU1201
   *DEL*:           000214H   BYTE   INSEG    CODE           ?PR?GET_TWO_POINTS_DISTANCE?ZF_DEVICE_GPS_TAU1201
   *DEL*:           000102H   BYTE   INSEG    CODE           ?PR?GPS_GNGGA_PARSE?ZF_DEVICE_GPS_TAU1201
L251 LINKER/LOCATER V4.66.93.0                                                        03/25/2026  17:12:38  PAGE 15


   *DEL*:           000668H   BYTE   INSEG    CODE           ?PR?GPS_GNRMC_PARSE?ZF_DEVICE_GPS_TAU1201
   *DEL*:           000212H   BYTE   INSEG    CODE           ?PR?GPS_DATA_PARSE?ZF_DEVICE_GPS_TAU1201
   *DEL*:           000088H   BYTE   INSEG    CODE           ?PR?GET_INT_NUMBER?ZF_DEVICE_GPS_TAU1201
   *DEL*:           0002B0H   BYTE   INSEG    CODE           ?PR?GPS_INIT?ZF_DEVICE_GPS_TAU1201
   *DEL*:           0000D3H   BYTE   INSEG    CODE           ?PR?GET_PARAMETER_INDEX?ZF_DEVICE_GPS_TAU1201
   *DEL*:           00033DH   BYTE   INSEG    CODE           ?PR?GET_TWO_POINTS_AZIMUTH?ZF_DEVICE_GPS_TAU1201
   *DEL*:           000191H   BYTE   INSEG    CODE           ?PR?GPS_UART_CALLBACK?ZF_DEVICE_GPS_TAU1201
   *DEL*:           000024H   BYTE   INSEG    CODE           ?PR?ICM20602_READ_REGISTER?ZF_DEVICE_ICM20602
   *DEL*:           00001EH   BYTE   INSEG    CODE           ?PR?ICM20602_WRITE_REGISTER?ZF_DEVICE_ICM20602
   *DEL*:           000050H   BYTE   INSEG    CODE           ?PR?ICM20602_SIMSPI_WR_BYTE?ZF_DEVICE_ICM20602
   *DEL*:           000051H   BYTE   INSEG    CODE           ?PR?ICM20602_SELF_CHECK?ZF_DEVICE_ICM20602
   *DEL*:           000076H   BYTE   INSEG    CODE           ?PR?ICM20602_SIMSPI_R_REG_BYTES?ZF_DEVICE_ICM20602
   *DEL*:           000031H   BYTE   INSEG    CODE           ?PR?ICM20602_SIMSPI_R_REG_BYTE?ZF_DEVICE_ICM20602
   *DEL*:           00001DH   BYTE   INSEG    CODE           ?PR?ICM20602_SIMSPI_W_REG_BYTE?ZF_DEVICE_ICM20602
   *DEL*:           0001F1H   BYTE   INSEG    CODE           ?PR?ICM20602_INIT?ZF_DEVICE_ICM20602
   *DEL*:           00005AH   BYTE   INSEG    CODE           ?PR?ICM20602_GET_ACC?ZF_DEVICE_ICM20602
   *DEL*:           000040H   BYTE   INSEG    CODE           ?PR?ICM20602_READ_REGISTERS?ZF_DEVICE_ICM20602
   *DEL*:           00005AH   BYTE   INSEG    CODE           ?PR?ICM20602_GET_GYRO?ZF_DEVICE_ICM20602
   *DEL*:           00005AH   BYTE   INSEG    CODE           ?PR?IMU660RA_GET_GYRO?ZF_DEVICE_IMU660RA
   *DEL*:           000028H   BYTE   INSEG    CODE           ?PR?IMU660RA_READ_REGISTER?ZF_DEVICE_IMU660RA
   *DEL*:           00003AH   BYTE   INSEG    CODE           ?PR?IMU660RA_WRITE_REGISTERS?ZF_DEVICE_IMU660RA
   *DEL*:           00001EH   BYTE   INSEG    CODE           ?PR?IMU660RA_WRITE_REGISTER?ZF_DEVICE_IMU660RA
   *DEL*:           000065H   BYTE   INSEG    CODE           ?PR?IMU660RA_SELF_CHECK?ZF_DEVICE_IMU660RA
   *DEL*:           000070H   BYTE   INSEG    CODE           ?PR?IMU660RA_SIMSPI_R_REG_BYTES?ZF_DEVICE_IMU660RA
   *DEL*:           00005CH   BYTE   INSEG    CODE           ?PR?IMU660RA_SIMSPI_W_REG_BYTES?ZF_DEVICE_IMU660RA
   *DEL*:           00001DH   BYTE   INSEG    CODE           ?PR?IMU660RA_SIMSPI_W_REG_BYTE?ZF_DEVICE_IMU660RA
   *DEL*:           0001F4H   BYTE   INSEG    CODE           ?PR?IMU660RA_INIT?ZF_DEVICE_IMU660RA
   *DEL*:           00005AH   BYTE   INSEG    CODE           ?PR?IMU660RA_GET_ACC?ZF_DEVICE_IMU660RA
   *DEL*:           0000B1H   BYTE   INSEG    CODE           ?PR?IMU660RA_READ_REGISTERS?ZF_DEVICE_IMU660RA
   *DEL*:           00005AH   BYTE   INSEG    CODE           ?PR?IMU660RB_GET_GYRO?ZF_DEVICE_IMU660RB
   *DEL*:           000024H   BYTE   INSEG    CODE           ?PR?IMU660RB_READ_REGISTER?ZF_DEVICE_IMU660RB
   *DEL*:           000114H   BYTE   INSEG    CODE           ?PR?IMU660RB_GYRO_TRANSITION?ZF_DEVICE_IMU660RB
   *DEL*:           00001EH   BYTE   INSEG    CODE           ?PR?IMU660RB_WRITE_REGISTER?ZF_DEVICE_IMU660RB
   *DEL*:           000053H   BYTE   INSEG    CODE           ?PR?IMU660RB_SIMSPI_WR_BYTE?ZF_DEVICE_IMU660RB
   *DEL*:           00004FH   BYTE   INSEG    CODE           ?PR?IMU660RB_SELF_CHECK?ZF_DEVICE_IMU660RB
   *DEL*:           000070H   BYTE   INSEG    CODE           ?PR?IMU660RB_SIMSPI_R_REG_BYTES?ZF_DEVICE_IMU660RB
   *DEL*:           000037H   BYTE   INSEG    CODE           ?PR?IMU660RB_SIMSPI_R_REG_BYTE?ZF_DEVICE_IMU660RB
   *DEL*:           00001DH   BYTE   INSEG    CODE           ?PR?IMU660RB_SIMSPI_W_REG_BYTE?ZF_DEVICE_IMU660RB
   *DEL*:           000071H   BYTE   INSEG    CODE           ?PR?IMU660RB_INIT?ZF_DEVICE_IMU660RB
   *DEL*:           00005AH   BYTE   INSEG    CODE           ?PR?IMU660RB_GET_ACC?ZF_DEVICE_IMU660RB
   *DEL*:           0000BEH   BYTE   INSEG    CODE           ?PR?IMU660RB_ACC_TRANSITION?ZF_DEVICE_IMU660RB
   *DEL*:           000040H   BYTE   INSEG    CODE           ?PR?IMU660RB_READ_REGISTERS?ZF_DEVICE_IMU660RB
   *DEL*:           00005AH   BYTE   INSEG    CODE           ?PR?IMU963RA_GET_GYRO?ZF_DEVICE_IMU963RA
   *DEL*:           000072H   BYTE   INSEG    CODE           ?PR?IMU963RA_READ_MAG_REGISTER?ZF_DEVICE_IMU963RA
   *DEL*:           00003DH   BYTE   INSEG    CODE           ?PR?IMU963RA_CONNECT_MAG?ZF_DEVICE_IMU963RA
   *DEL*:           00004CH   BYTE   INSEG    CODE           ?PR?IMU963RA_READ_ACC_GYRO_REGISTERS?ZF_DEVICE_IMU963RA
   *DEL*:           000089H   BYTE   INSEG    CODE           ?PR?IMU963RA_WRITE_MAG_REGISTER?ZF_DEVICE_IMU963RA
   *DEL*:           000027H   BYTE   INSEG    CODE           ?PR?IMU963RA_READ_ACC_GYRO_REGISTER?ZF_DEVICE_IMU963RA
   *DEL*:           000054H   BYTE   INSEG    CODE           ?PR?IMU963RA_MAG_SELF_CHECK?ZF_DEVICE_IMU963RA
   *DEL*:           000020H   BYTE   INSEG    CODE           ?PR?IMU963RA_WRITE_ACC_GYRO_REGISTER?ZF_DEVICE_IMU963RA
   *DEL*:           000345H   BYTE   INSEG    CODE           ?PR?IMU963RA_INIT?ZF_DEVICE_IMU963RA
   *DEL*:           000068H   BYTE   INSEG    CODE           ?PR?IMU963RA_ACC_GYRO_SELF_CHECK?ZF_DEVICE_IMU963RA
   *DEL*:           00005AH   BYTE   INSEG    CODE           ?PR?IMU963RA_GET_ACC?ZF_DEVICE_IMU963RA
   *DEL*:           000079H   BYTE   INSEG    CODE           ?PR?IMU963RA_GET_MAG?ZF_DEVICE_IMU963RA
   *DEL*:           0001EBH   BYTE   INSEG    CODE           ?PR?IPS114_SHOW_FLOAT?ZF_DEVICE_IPS114
   *DEL*:           000083H   BYTE   INSEG    CODE           ?PR?IPS114_DRAW_POINT?ZF_DEVICE_IPS114
   *DEL*:           0000C4H   BYTE   INSEG    CODE           ?PR?IPS114_SHOW_STRING?ZF_DEVICE_IPS114
   *DEL*:           00011CH   BYTE   INSEG    CODE           ?PR?IPS114_SHOW_CHAR?ZF_DEVICE_IPS114
   *DEL*:           000119H   BYTE   INSEG    CODE           ?PR?IPS114_SHOW_UINT16?ZF_DEVICE_IPS114
   *DEL*:           000025H   BYTE   INSEG    CODE           ?PR?IPS114_SET_COLOR?ZF_DEVICE_IPS114
   *DEL*:           00015EH   BYTE   INSEG    CODE           ?PR?IPS114_SHOW_INT32?ZF_DEVICE_IPS114
   *DEL*:           00016DH   BYTE   INSEG    CODE           ?PR?IPS114_SHOW_INT16?ZF_DEVICE_IPS114
   *DEL*:           000214H   BYTE   INSEG    CODE           ?PR?IPS114_SHOW_WAVE?ZF_DEVICE_IPS114
   *DEL*:           00003BH   BYTE   INSEG    CODE           ?PR?IPS114_SET_DIR?ZF_DEVICE_IPS114
   *DEL*:           000200H   BYTE   INSEG    CODE           ?PR?IPS114_SHOW_CHINESE?ZF_DEVICE_IPS114
L251 LINKER/LOCATER V4.66.93.0                                                        03/25/2026  17:12:38  PAGE 16


   *DEL*:           000085H   BYTE   INSEG    CODE           ?PR?IPS114_CLEAR?ZF_DEVICE_IPS114
   *DEL*:           0000E9H   BYTE   INSEG    CODE           ?PR?IPS114_SHOW_UINT8?ZF_DEVICE_IPS114
   *DEL*:           00012EH   BYTE   INSEG    CODE           ?PR?IPS114_SHOW_INT8?ZF_DEVICE_IPS114
   *DEL*:           000022H   BYTE   INSEG    CODE           ?PR?IPS114_WRITE_INDEX?ZF_DEVICE_IPS114
   *DEL*:           000245H   BYTE   INSEG    CODE           ?PR?IPS114_SET_REGION?ZF_DEVICE_IPS114
   *DEL*:           0002C2H   BYTE   INSEG    CODE           ?PR?IPS114_INIT?ZF_DEVICE_IPS114
   *DEL*:           0001EBH   BYTE   INSEG    CODE           ?PR?IPS200_SHOW_FLOAT?ZF_DEVICE_IPS200
   *DEL*:           000083H   BYTE   INSEG    CODE           ?PR?IPS200_DRAW_POINT?ZF_DEVICE_IPS200
   *DEL*:           0000C4H   BYTE   INSEG    CODE           ?PR?IPS200_SHOW_STRING?ZF_DEVICE_IPS200
   *DEL*:           00011CH   BYTE   INSEG    CODE           ?PR?IPS200_SHOW_CHAR?ZF_DEVICE_IPS200
   *DEL*:           000119H   BYTE   INSEG    CODE           ?PR?IPS200_SHOW_UINT16?ZF_DEVICE_IPS200
   *DEL*:           000025H   BYTE   INSEG    CODE           ?PR?IPS200_SET_COLOR?ZF_DEVICE_IPS200
   *DEL*:           00015EH   BYTE   INSEG    CODE           ?PR?IPS200_SHOW_INT32?ZF_DEVICE_IPS200
   *DEL*:           00016DH   BYTE   INSEG    CODE           ?PR?IPS200_SHOW_INT16?ZF_DEVICE_IPS200
   *DEL*:           000214H   BYTE   INSEG    CODE           ?PR?IPS200_SHOW_WAVE?ZF_DEVICE_IPS200
   *DEL*:           000013H   BYTE   INSEG    CODE           ?PR?IPS200_SET_DIR?ZF_DEVICE_IPS200
   *DEL*:           000200H   BYTE   INSEG    CODE           ?PR?IPS200_SHOW_CHINESE?ZF_DEVICE_IPS200
   *DEL*:           000085H   BYTE   INSEG    CODE           ?PR?IPS200_CLEAR?ZF_DEVICE_IPS200
   *DEL*:           0000E9H   BYTE   INSEG    CODE           ?PR?IPS200_SHOW_UINT8?ZF_DEVICE_IPS200
   *DEL*:           00012EH   BYTE   INSEG    CODE           ?PR?IPS200_SHOW_INT8?ZF_DEVICE_IPS200
   *DEL*:           000022H   BYTE   INSEG    CODE           ?PR?IPS200_WRITE_INDEX?ZF_DEVICE_IPS200
   *DEL*:           0000ECH   BYTE   INSEG    CODE           ?PR?IPS200_SET_REGION?ZF_DEVICE_IPS200
   *DEL*:           0002C2H   BYTE   INSEG    CODE           ?PR?IPS200_INIT?ZF_DEVICE_IPS200
   *DEL*:           000095H   BYTE   INSEG    CODE           ?PR?IPS200PRO_PROGRESS_BAR_CREATE?ZF_DEVICE_IPS200PRO
   *DEL*:           000053H   BYTE   INSEG    CODE           ?PR?IPS200PRO_SET_CRC_STATE?ZF_DEVICE_IPS200PRO
   *DEL*:           000070H   BYTE   INSEG    CODE           ?PR?IPS200PRO_TABLE_SELECT?ZF_DEVICE_IPS200PRO
   *DEL*:           000036H   BYTE   INSEG    CODE           ?PR?IPS200PRO_PAGE_HIDDEN?ZF_DEVICE_IPS200PRO
   *DEL*:           000055H   BYTE   INSEG    CODE           ?PR?IPS200PRO_SET_DIRECTION?ZF_DEVICE_IPS200PRO
   *DEL*:           00009EH   BYTE   INSEG    CODE           ?PR?IPS200PRO_PAGE_CREATE?ZF_DEVICE_IPS200PRO
   *DEL*:           00010CH   BYTE   INSEG    CODE           ?PR?IPS200PRO_WAVEFORM_ADD_VALUE?ZF_DEVICE_IPS200PRO
   *DEL*:           000095H   BYTE   INSEG    CODE           ?PR?IPS200PRO_METER_CREATE?ZF_DEVICE_IPS200PRO
   *DEL*:           0000E3H   BYTE   INSEG    CODE           ?PR?IPS200PRO_LABEL_PRINTF?ZF_DEVICE_IPS200PRO
   *DEL*:           000072H   BYTE   INSEG    CODE           ?PR?IPS200PRO_WAVEFORM_LINE_STATE?ZF_DEVICE_IPS200PRO
   *DEL*:           000114H   BYTE   INSEG    CODE           ?PR?IPS200PRO_TABLE_CELL_PRINTF?ZF_DEVICE_IPS200PRO
   *DEL*:           000286H   BYTE   INSEG    CODE           ?PR?IPS200PRO_WRITE_PACKET?ZF_DEVICE_IPS200PRO
   *DEL*:           00009AH   BYTE   INSEG    CODE           ?PR?IPS200PRO_SEND_BUFFER?ZF_DEVICE_IPS200PRO
   *DEL*:           000060H   BYTE   INSEG    CODE           ?PR?IPS200PRO_LABEL_MODE?ZF_DEVICE_IPS200PRO
   *DEL*:           000060H   BYTE   INSEG    CODE           ?PR?IPS200PRO_PAGE_SWITCH?ZF_DEVICE_IPS200PRO
   *DEL*:           000053H   BYTE   INSEG    CODE           ?PR?IPS200PRO_CALENDAR_CREATE?ZF_DEVICE_IPS200PRO
   *DEL*:           000087H   BYTE   INSEG    CODE           ?PR?IPS200PRO_CALENDAR_DISPLAY?ZF_DEVICE_IPS200PRO
   *DEL*:           00005EH   BYTE   INSEG    CODE           ?PR?IPS200PRO_WAVEFORM_LINE_TYPE?ZF_DEVICE_IPS200PRO
   *DEL*:           000062H   BYTE   INSEG    CODE           ?PR?IPS200PRO_SET_HIDDEN?ZF_DEVICE_IPS200PRO
   *DEL*:           000095H   BYTE   INSEG    CODE           ?PR?IPS200PRO_CONTAINER_CREATE?ZF_DEVICE_IPS200PRO
   *DEL*:           0000E6H   BYTE   INSEG    CODE           ?PR?IPS200PRO_IMAGE_DRAW_LINE?ZF_DEVICE_IPS200PRO
   *DEL*:           000081H   BYTE   INSEG    CODE           ?PR?IPS200PRO_LABEL_SHOW_STRING?ZF_DEVICE_IPS200PRO
   *DEL*:           000053H   BYTE   INSEG    CODE           ?PR?IPS200PRO_SET_OPTIMIZE?ZF_DEVICE_IPS200PRO
   *DEL*:           000076H   BYTE   INSEG    CODE           ?PR?IPS200PRO_SET_POSITION?ZF_DEVICE_IPS200PRO
   *DEL*:           000055H   BYTE   INSEG    CODE           ?PR?IPS200PRO_SET_DEFAULT_FONT?ZF_DEVICE_IPS200PRO
   *DEL*:           000066H   BYTE   INSEG    CODE           ?PR?IPS200PRO_PAGE_SET_TITLE_POSITION_WIDTH?ZF_DEVICE_IPS2
                                                             -00PRO
   *DEL*:           0000C1H   BYTE   INSEG    CODE           ?PR?IPS200PRO_IMAGE_DRAW_RECTANGLE?ZF_DEVICE_IPS200PRO
   *DEL*:           0000EDH   BYTE   INSEG    CODE           ?PR?IPS200PRO_INIT?ZF_DEVICE_IPS200PRO
   *DEL*:           000072H   BYTE   INSEG    CODE           ?PR?IPS200PRO_CONTAINER_RADIUS?ZF_DEVICE_IPS200PRO
   *DEL*:           00006DH   BYTE   INSEG    CODE           ?PR?IPS200PRO_WAIT_IDLE?ZF_DEVICE_IPS200PRO
   *DEL*:           000055H   BYTE   INSEG    CODE           ?PR?IPS200PRO_SET_FORMAT?ZF_DEVICE_IPS200PRO
   *DEL*:           000067H   BYTE   INSEG    CODE           ?PR?IPS200PRO_SET_PARENT?ZF_DEVICE_IPS200PRO
   *DEL*:           000070H   BYTE   INSEG    CODE           ?PR?IPS200PRO_PROGRESS_BAR_SET_VALUE?ZF_DEVICE_IPS200PRO
   *DEL*:           00004AH   BYTE   INSEG    CODE           ?PR?IPS200PRO_GET_DATE?ZF_DEVICE_IPS200PRO
   *DEL*:           000095H   BYTE   INSEG    CODE           ?PR?IPS200PRO_WAVEFORM_CREATE?ZF_DEVICE_IPS200PRO
   *DEL*:           0000B6H   BYTE   INSEG    CODE           ?PR?IPS200PRO_READ_PARAMETER?ZF_DEVICE_IPS200PRO
   *DEL*:           0000A1H   BYTE   INSEG    CODE           ?PR?IPS200PRO_RECEIVE_BUFFER?ZF_DEVICE_IPS200PRO
   *DEL*:           000086H   BYTE   INSEG    CODE           ?PR?IPS200PRO_SET_DATE?ZF_DEVICE_IPS200PRO
   *DEL*:           000060H   BYTE   INSEG    CODE           ?PR?IPS200PRO_METER_SET_VALUE?ZF_DEVICE_IPS200PRO
   *DEL*:           000076H   BYTE   INSEG    CODE           ?PR?IPS200PRO_SET_COLOR?ZF_DEVICE_IPS200PRO
   *DEL*:           00005FH   BYTE   INSEG    CODE           ?PR?IPS200PRO_GET_INFORMATION?ZF_DEVICE_IPS200PRO
L251 LINKER/LOCATER V4.66.93.0                                                        03/25/2026  17:12:38  PAGE 17


   *DEL*:           000052H   BYTE   INSEG    CODE           ?PR?IPS200PRO_DELETE_WIDGETS?ZF_DEVICE_IPS200PRO
   *DEL*:           00004CH   BYTE   INSEG    CODE           ?PR?IPS200PRO_GET_TIME?ZF_DEVICE_IPS200PRO
   *DEL*:           0000B5H   BYTE   INSEG    CODE           ?PR?IPS200PRO_CREATE_WIDGETS?ZF_DEVICE_IPS200PRO
   *DEL*:           00004EH   BYTE   INSEG    CODE           ?PR?IPS200PRO_WAVEFORM_CLEAR?ZF_DEVICE_IPS200PRO
   *DEL*:           00006FH   BYTE   INSEG    CODE           ?PR?IPS200PRO_PAGE_SET_TITLE_NAME?ZF_DEVICE_IPS200PRO
   *DEL*:           000095H   BYTE   INSEG    CODE           ?PR?IPS200PRO_LABEL_CREATE?ZF_DEVICE_IPS200PRO
   *DEL*:           000070H   BYTE   INSEG    CODE           ?PR?IPS200PRO_TABLE_SET_COL_WIDTH?ZF_DEVICE_IPS200PRO
   *DEL*:           000053H   BYTE   INSEG    CODE           ?PR?IPS200PRO_SET_BACKLIGHT?ZF_DEVICE_IPS200PRO
   *DEL*:           000095H   BYTE   INSEG    CODE           ?PR?IPS200PRO_IMAGE_CREATE?ZF_DEVICE_IPS200PRO
   *DEL*:           00004DH   BYTE   INSEG    CODE           ?PR?IPS200PRO_GET_FREE_STACK_SIZE?ZF_DEVICE_IPS200PRO
   *DEL*:           000091H   BYTE   INSEG    CODE           ?PR?IPS200PRO_SET_TIME?ZF_DEVICE_IPS200PRO
   *DEL*:           0001BFH   BYTE   INSEG    CODE           ?PR?IPS200PRO_IMAGE_DISPLAY?ZF_DEVICE_IPS200PRO
   *DEL*:           000095H   BYTE   INSEG    CODE           ?PR?IPS200PRO_TABLE_CREATE?ZF_DEVICE_IPS200PRO
   *DEL*:           000095H   BYTE   INSEG    CODE           ?PR?IPS200PRO_CLOCK_CREATE?ZF_DEVICE_IPS200PRO
   *DEL*:           000064H   BYTE   INSEG    CODE           ?PR?IPS200PRO_SET_FONT?ZF_DEVICE_IPS200PRO
   *DEL*:           000176H   BYTE   INSEG    CODE           ?PR?TFT180_SET_REGION?ZF_DEVICE_TFT180
   *DEL*:           00036EH   BYTE   INSEG    CODE           ?PR?TFT180_INIT?ZF_DEVICE_TFT180
   *DEL*:           0001EBH   BYTE   INSEG    CODE           ?PR?TFT180_SHOW_FLOAT?ZF_DEVICE_TFT180
   *DEL*:           000083H   BYTE   INSEG    CODE           ?PR?TFT180_DRAW_POINT?ZF_DEVICE_TFT180
   *DEL*:           0000C4H   BYTE   INSEG    CODE           ?PR?TFT180_SHOW_STRING?ZF_DEVICE_TFT180
   *DEL*:           00011CH   BYTE   INSEG    CODE           ?PR?TFT180_SHOW_CHAR?ZF_DEVICE_TFT180
   *DEL*:           000119H   BYTE   INSEG    CODE           ?PR?TFT180_SHOW_UINT16?ZF_DEVICE_TFT180
   *DEL*:           000025H   BYTE   INSEG    CODE           ?PR?TFT180_SET_COLOR?ZF_DEVICE_TFT180
   *DEL*:           00015EH   BYTE   INSEG    CODE           ?PR?TFT180_SHOW_INT32?ZF_DEVICE_TFT180
   *DEL*:           00016DH   BYTE   INSEG    CODE           ?PR?TFT180_SHOW_INT16?ZF_DEVICE_TFT180
   *DEL*:           000214H   BYTE   INSEG    CODE           ?PR?TFT180_SHOW_WAVE?ZF_DEVICE_TFT180
   *DEL*:           00003BH   BYTE   INSEG    CODE           ?PR?TFT180_SET_DIR?ZF_DEVICE_TFT180
   *DEL*:           000079H   BYTE   INSEG    CODE           ?PR?TFT180_CLEAR?ZF_DEVICE_TFT180
   *DEL*:           0000E9H   BYTE   INSEG    CODE           ?PR?TFT180_SHOW_UINT8?ZF_DEVICE_TFT180
   *DEL*:           00012EH   BYTE   INSEG    CODE           ?PR?TFT180_SHOW_INT8?ZF_DEVICE_TFT180
   *DEL*:           000022H   BYTE   INSEG    CODE           ?PR?TFT180_WRITE_INDEX?ZF_DEVICE_TFT180
   *DEL*:           0000C0H   BYTE   INSEG    CODE           ?PR?TSL1401_SEND_DATA?ZF_DEVICE_TSL1401
   *DEL*:           00003DH   BYTE   INSEG    CODE           ?PR?TSL1401_INIT?ZF_DEVICE_TSL1401
   *DEL*:           0000BEH   BYTE   INSEG    CODE           ?PR?TSL1401_COLLECT_PIT_HANDLER?ZF_DEVICE_TSL1401
   *DEL*:           00002DH   BYTE   INSEG    CODE           ?PR?SET_TOF_TYPE?ZF_DEVICE_TYPE
   *DEL*:           00009FH   BYTE   INSEG    CODE           ?PR?SET_GPS_TYPE?ZF_DEVICE_TYPE
   *DEL*:           00009FH   BYTE   INSEG    CODE           ?PR?SET_WIRELESS_TYPE?ZF_DEVICE_TYPE
   *DEL*:           000110H   BYTE   INSEG    CODE           ?PR?WIRELESS_UART_SEND_BUFFER?ZF_DEVICE_WIRELESS_UART
   *DEL*:           00005DH   BYTE   INSEG    CODE           ?PR?WIRELESS_UART_SEND_STRING?ZF_DEVICE_WIRELESS_UART
   *DEL*:           000026H   BYTE   INSEG    CODE           ?PR?WIRELESS_UART_CALLBACK?ZF_DEVICE_WIRELESS_UART
   *DEL*:           000081H   BYTE   INSEG    CODE           ?PR?WIRELESS_UART_INIT?ZF_DEVICE_WIRELESS_UART
   *DEL*:           00006DH   BYTE   INSEG    CODE           ?PR?WIRELESS_UART_SEND_BYTE?ZF_DEVICE_WIRELESS_UART
   *DEL*:           000084H   BYTE   INSEG    CODE           ?PR?WIRELESS_UART_READ_BUFFER?ZF_DEVICE_WIRELESS_UART
   *DEL*:           0004A1H   BYTE   INSEG    CODE           ?PR?SEEKFREE_ASSISTANT_CAMERA_BOUNDARY_CONFIG?SEEKFREE_ASS
                                                             -ISTANT
   *DEL*:           000142H   BYTE   INSEG    CODE           ?PR?SEEKFREE_ASSISTANT_CAMERA_DOT_SEND?SEEKFREE_ASSISTANT
   *DEL*:           0001A3H   BYTE   INSEG    CODE           ?PR?SEEKFREE_ASSISTANT_OSCILLOSCOPE_SEND?SEEKFREE_ASSISTAN
                                                             -T
   *DEL*:           00002EH   BYTE   INSEG    CODE           ?PR?SEEKFREE_ASSISTANT_INIT?SEEKFREE_ASSISTANT
   *DEL*:           00005AH   BYTE   INSEG    CODE           ?PR?SEEKFREE_ASSISTANT_SUM?SEEKFREE_ASSISTANT
   *DEL*:           000061H   BYTE   INSEG    CODE           ?PR?SEEKFREE_ASSISTANT_CAMERA_INFORMATION_CONFIG?SEEKFREE_
                                                             -ASSISTANT
   *DEL*:           0002B2H   BYTE   INSEG    CODE           ?PR?SEEKFREE_ASSISTANT_DATA_ANALYSIS?SEEKFREE_ASSISTANT
   *DEL*:           00015CH   BYTE   INSEG    CODE           ?PR?SEEKFREE_ASSISTANT_CAMERA_DATA_SEND?SEEKFREE_ASSISTANT
   *DEL*:           00004AH   BYTE   INSEG    CODE           ?PR?SEEKFREE_ASSISTANT_CAMERA_SEND?SEEKFREE_ASSISTANT
   *DEL*:           000059H   BYTE   INSEG    CODE           ?PR?SEEKFREE_ASSISTANT_INTERFACE_INIT?SEEKFREE_ASSISTANT_I
                                                             -NTERFACE
   *DEL*:           0001ABH   BYTE   INSEG    CODE           ?PR?IMU_HANDLE_360?IMU
   *DEL*:           000113H   BYTE   INSEG    CODE           ?PR?IMU_HANDLE_180?IMU
   *DEL*:           0003D8H   BYTE   INSEG    CODE           ?PR?FIRST_COMPLEMENT_INIT?IMU
   *DEL*:           000037H   BYTE   INSEG    CODE           ?PR?IMU_HANDLE_0?IMU
   *DEL*:           0000EEH   BYTE   INSEG    CODE           ?PR?KALMANCREATE?IMU
   *DEL*:           000228H   BYTE   INSEG    CODE           ?PR?KALMANFILTER?IMU
   *DEL*:           000079H   BYTE   INSEG    CODE           ?PR?MAIN_LOOP?IMU
   *DEL*:           00011FH   BYTE   INSEG    CODE           ?PR?IMU_GYRO_OFFSET_INIT?IMU
L251 LINKER/LOCATER V4.66.93.0                                                        03/25/2026  17:12:38  PAGE 18


   *DEL*:           00000AH   BYTE   INSEG    CODE           ?PR?GYRO_PROC?IMU
   *DEL*:           00004EH   BYTE   INSEG    CODE           ?PR?GYRO_INIT?IMU
   *DEL*:           000131H   BYTE   INSEG    CODE           ?PR?FAST_SQRT?IMU
   *DEL*:           000035H   BYTE   INSEG    CODE           ?PR?MY_ABS?IMU
   *DEL*:           000184H   BYTE   INSEG    CODE           ?PR?IMU_GETVALUES?IMU
   *DEL*:           0000C9H   BYTE   INSEG    CODE           ?PR?IMU_YAW_INTEGRAL?IMU
   *DEL*:           000038H   BYTE   INSEG    CODE           ?PR?EEPROM_READ?EEPROM
   *DEL*:           000074H   BYTE   INSEG    CODE           ?PR?EEPROM_READ_VALUE?EEPROM
   *DEL*:           00007DH   BYTE   INSEG    CODE           ?PR?EEPROM_WRITE_VALUE?EEPROM
   *DEL*:           000032H   BYTE   INSEG    CODE           ?PR?EEPROM_INIT?EEPROM
   *DEL*:           00008BH   BYTE   INSEG    CODE           ?PR?ADC_NORMALIZE?INDUCTANCE
   *DEL*:           000137H   BYTE   INSEG    CODE           ?PR?MEDIAN_AVERAGE_FILTER?INDUCTANCE
   *DEL*:           00010AH   BYTE   INSEG    CODE           ?PR?INDUCTANCE_READ?INDUCTANCE
   *DEL*:           000069H   BYTE   INSEG    CODE           ?PR?RANGE_PROTECT?INDUCTANCE
   *DEL*:           000025H   BYTE   INSEG    CODE           ?PR?INDUCTANCE_INIT?INDUCTANCE
   *DEL*:           00011DH   BYTE   INSEG    CODE           ?PR?INDUCTANCE_COUNT_ERR?INDUCTANCE
   *DEL*:           000090H   BYTE   INSEG    CODE           ?PR?VOLTAGE_WARNING_TASK?VOLTAGE_WARNING
   *DEL*:           00000AH   BYTE   INSEG    CODE           ?PR?VOLTAGE_WARNING_INIT?VOLTAGE_WARNING
   *DEL*:           000051H   BYTE   INSEG    CODE           ?PR?MOTOR_INIT?MOTOR
   *DEL*:           000068H   BYTE   INSEG    CODE           ?PR?MOTOR_L?MOTOR
   *DEL*:           000068H   BYTE   INSEG    CODE           ?PR?MOTOR_R?MOTOR
   *DEL*:           00000AH   BYTE   INSEG    CODE           ?PR?BUZZER_OFF?BUZZER
   *DEL*:           000009H   BYTE   INSEG    CODE           ?PR?BUZZER_ON?BUZZER
   *DEL*:           000012H   BYTE   INSEG    CODE           ?PR?BUZZER_INIT?BUZZER
   *DEL*:           000023H   BYTE   INSEG    CODE           ?PR?LED_SWITCH?LED
   *DEL*:           000040H   BYTE   INSEG    CODE           ?PR?CAR_INIT?INIT
   *DEL*:           0000F2H   BYTE   INSEG    CODE           ?PR?POW?_?POW
   *DEL*:           000037H   BYTE   INSEG    CODE           ?PR?STRNCMP?_?STRNCMP
   *DEL*:           000030H   BYTE   INSEG    CODE           ?PR?STRNCPY?_?STRNCPY
   *DEL*:           00000EH   BYTE   INSEG    CODE           ?PR?STRLEN?_?STRLEN
   *DEL*:           00001FH   BYTE   INSEG    CODE           ?PR?STRCHR?_?STRCHR
   *DEL*:           00001AH   BYTE   INSEG    CODE           ?PR?MEMSET?_?MEMSET



OVERLAY MAP OF MODULE:   .\out_file\SEEKFREE (?C_START)


FUNCTION/MODULE                               XDATA_GROUP
--> CALLED FUNCTION/MODULE                    START  STOP
=========================================================
?C_C51STARTUP                                 ----- -----

*** NEW ROOT ********************************

?C_C51STARTUP?3                               ----- -----
  +--> main/main

main/main                                     ----- -----
  +--> _m/main
  +--> SPRINTF/SPRINTF

_m/main                                       ----- -----
  +--> clock_init/zf_common_clock
  +--> debug_init/zf_common_debug
  +--> pit_handler/main
  +--> interrupt_global_disable/zf_common_interrupt
  +--> pit_init/zf_driver_pit
  +--> LED_Init/led
  +--> interrupt_global_enable/zf_common_interrupt
  +--> gpio_set_level/zf_driver_gpio

clock_init/zf_common_clock                    ----- -----
  +--> set_sys_clk/zf_common_clock
  +--> system_delay_init/zf_driver_delay
L251 LINKER/LOCATER V4.66.93.0                                                        03/25/2026  17:12:38  PAGE 19


  +--> interrupt_global_enable/zf_common_interrupt

set_sys_clk/zf_common_clock                   ----- -----

system_delay_init/zf_driver_delay             ----- -----
  +--> ?C?SLDIV/?C?SLDIV

?C?SLDIV/?C?SLDIV                             ----- -----
  +--> ?C?ULIDIV/?C?ULDIV

?C?ULIDIV/?C?ULDIV                            ----- -----

interrupt_global_enable/zf_common_interr+     ----- -----
... upt

debug_init/zf_common_debug                    ----- -----
  +--> uart_init/zf_driver_uart
  +--> fifo_init/zf_common_fifo
  +--> uart_rx_interrupt/zf_driver_uart
  +--> debug_interrupr_handler/zf_common_debug

uart_init/zf_driver_uart                      ----- -----
  +--> uart_funciton_check/zf_driver_uart
  +--> debug_assert_handler/zf_common_debug
  +--> timer_funciton_check/zf_driver_timer
  +--> gpio_init/zf_driver_gpio
  +--> ?C?ULIDIV/?C?ULDIV
  +--> uart_dma_init/zf_driver_uart

uart_funciton_check/zf_driver_uart            ----- -----

debug_assert_handler/zf_common_debug          ----- -----
  +--> PRINTF/PRINTF
  +--> system_delay_ms/zf_driver_delay

PRINTF/PRINTF                                 0F93H 0FBAH
  +--> OUT/PRINTF

OUT/PRINTF                                    ----- -----
  +--> PUTCH/PRINTF

PUTCH/PRINTF                                  ----- -----
  +--> putchar/zf_common_debug
  +--> OUT/PRINTF

putchar/zf_common_debug                       ----- -----
  +--> uart_write_byte/zf_driver_uart

uart_write_byte/zf_driver_uart                ----- -----
  +--> uart_write_buffer/zf_driver_uart

uart_write_buffer/zf_driver_uart              ----- -----
  +--> memcpy?_/memcpy

memcpy?_/memcpy                               ----- -----

system_delay_ms/zf_driver_delay               ----- -----
  +--> delay_cycles/zf_driver_delay

delay_cycles/zf_driver_delay                  ----- -----

timer_funciton_check/zf_driver_timer          ----- -----

gpio_init/zf_driver_gpio                      ----- -----
  +--> debug_assert_handler/zf_common_debug
L251 LINKER/LOCATER V4.66.93.0                                                        03/25/2026  17:12:38  PAGE 20


  +--> gpio_set_dir/zf_driver_gpio
  +--> gpio_set_mode/zf_driver_gpio
  +--> gpio_set_impedance/zf_driver_gpio
  +--> gpio_set_level/zf_driver_gpio

gpio_set_dir/zf_driver_gpio                   ----- -----
  +--> debug_assert_handler/zf_common_debug

gpio_set_mode/zf_driver_gpio                  ----- -----

gpio_set_impedance/zf_driver_gpio             ----- -----

gpio_set_level/zf_driver_gpio                 ----- -----

uart_dma_init/zf_driver_uart                  ----- -----

fifo_init/zf_common_fifo                      ----- -----
  +--> debug_assert_handler/zf_common_debug

uart_rx_interrupt/zf_driver_uart              ----- -----

debug_interrupr_handler/zf_common_debug       ----- -----
  +--> uart_query_byte/zf_driver_uart
  +--> fifo_write_buffer/zf_common_fifo

uart_query_byte/zf_driver_uart                ----- -----
  +--> uart_rx_start_buff/zf_driver_uart

uart_rx_start_buff/zf_driver_uart             ----- -----

fifo_write_buffer/zf_common_fifo              ----- -----
  +--> debug_assert_handler/zf_common_debug
  +--> memcpy?_/memcpy
  +--> fifo_head_offset/zf_common_fifo

fifo_head_offset/zf_common_fifo               ----- -----

pit_handler/main                              ----- -----
  +--> PRINTF/PRINTF
  +--> gpio_set_level/zf_driver_gpio
  +--> LED_On/led

LED_On/led                                    ----- -----
  +--> gpio_set_level/zf_driver_gpio

interrupt_global_disable/zf_common_inter+     ----- -----
... rupt

pit_init/zf_driver_pit                        ----- -----
  +--> ?C?ULIDIV/?C?ULDIV

LED_Init/led                                  ----- -----
  +--> gpio_init/zf_driver_gpio
  +--> LED_Off/led

LED_Off/led                                   ----- -----
  +--> gpio_set_level/zf_driver_gpio

SPRINTF/SPRINTF                               0F93H 0FBAH
  +--> OUT/SPRINTF

OUT/SPRINTF                                   ----- -----
  +--> PUTCH/SPRINTF

PUTCH/SPRINTF                                 ----- -----
L251 LINKER/LOCATER V4.66.93.0                                                        03/25/2026  17:12:38  PAGE 21



*** NEW ROOT ********************************

INT0_IRQHandler/isr                           ----- -----

*** NEW ROOT ********************************

INT1_IRQHandler/isr                           ----- -----

*** NEW ROOT ********************************

INT2_IRQHandler/isr                           ----- -----

*** NEW ROOT ********************************

INT3_IRQHandler/isr                           ----- -----

*** NEW ROOT ********************************

INT4_IRQHandler/isr                           ----- -----

*** NEW ROOT ********************************

DMA_UART1_IRQHandler/isr                      ----- -----
  +--> uart_rx_start_buff/zf_driver_uart

*** NEW ROOT ********************************

DMA_UART2_IRQHandler/isr                      ----- -----
  +--> uart_rx_start_buff/zf_driver_uart

*** NEW ROOT ********************************

DMA_UART3_IRQHandler/isr                      ----- -----
  +--> uart_rx_start_buff/zf_driver_uart

*** NEW ROOT ********************************

DMA_UART4_IRQHandler/isr                      ----- -----
  +--> uart_rx_start_buff/zf_driver_uart

*** NEW ROOT ********************************

TM0_IRQHandler/isr                            ----- -----

*** NEW ROOT ********************************

TM1_IRQHandler/isr                            ----- -----

*** NEW ROOT ********************************

TM2_IRQHandler/isr                            ----- -----

*** NEW ROOT ********************************

TM3_IRQHandler/isr                            ----- -----

*** NEW ROOT ********************************

TM4_IRQHandler/isr                            ----- -----

*** NEW ROOT ********************************

?C_C51STARTUP?2                               ----- -----

L251 LINKER/LOCATER V4.66.93.0                                                        03/25/2026  17:12:38  PAGE 22




PUBLIC SYMBOLS OF MODULE:  .\out_file\SEEKFREE (?C_START)


      VALUE       CLASS    TYPE      PUBLIC SYMBOL NAME
      =================================================
      000115C2H   XDATA    BYTE      ?Adc_Normalize?BYTE
      00FF304AH   CODE     ---       ?C?BMOVEPP
      00FF3048H   CODE     ---       ?C?BMOVEPP8
      00FF243EH   CODE     NEAR LAB  ?C?CASTF
      000000FFH   NUMBER   ---       ?C?CODESEG
      00FF240BH   CODE     NEAR LAB  ?C?FCASTC
      00FF2406H   CODE     NEAR LAB  ?C?FCASTI
      00FF2401H   CODE     NEAR LAB  ?C?FCASTL
      00FF2C4BH   CODE     ---       ?C?FP2SERIES
      00FF21D4H   CODE     ---       ?C?FPADD
      00FF23AFH   CODE     ---       ?C?FPCMP
      00FF23ADH   CODE     ---       ?C?FPCMP3
      00FF2E13H   CODE     ---       ?C?FPCONVERT
      00FF232CH   CODE     ---       ?C?FPDIV
      00FF27A1H   CODE     ---       ?C?FPGETOPN2
      00FF228CH   CODE     ---       ?C?FPMUL
      00FF27DEH   CODE     ---       ?C?FPNANRESULT
      00FF23F3H   CODE     ---       ?C?FPNEG
      00FF27E6H   CODE     ---       ?C?FPOVERFLOW
      00FF27BAH   CODE     ---       ?C?FPRESULT
      00FF27D0H   CODE     ---       ?C?FPRESULT2
      00FF2ECBH   CODE     ---       ?C?FPROUND
      00FF2C54H   CODE     ---       ?C?FPSERIES
      00FF21D1H   CODE     ---       ?C?FPSUB
      00FF27E3H   CODE     ---       ?C?FPUNDERFLOW
      00FF2F3EH   CODE     ---       ?C?FTNPWR
      00FF6334H   CODE     ---       ?C?INITHDATA
      00FF6CE6H   HCONST   WORD      ?C?INITHDATA_END
      00FF2FB8H   CODE     ---       ?C?LIMUL
      00FF2FA7H   CODE     ---       ?C?LMUL
      00FF283CH   CODE     ---       ?C?PRNFMT
      00FF2F75H   CODE     ---       ?C?SIDIV
      00FF3014H   CODE     NEAR LAB  ?C?SLDIV
      00FF0000H   CODE     ---       ?C?STARTUP
      00FF2FC3H   CODE     NEAR LAB  ?C?ULDIV
      00FF2FC1H   CODE     NEAR LAB  ?C?ULIDIV
      00000001H   NUMBER   ---       ?C?XDATASEG
      00FF0000H   CODE     ---       ?C_STARTUP
      000118C0H   XDATA    BYTE      ?eeprom_read?BYTE
      000114FEH   XDATA    BYTE      ?fifo_init?BYTE
      000111CEH   XDATA    BYTE      ?fifo_read_buffer?BYTE
      00011353H   XDATA    BYTE      ?fifo_write_buffer?BYTE
      00011118H   XDATA    BYTE      ?get_two_points_azimuth?BYTE
      00010D79H   XDATA    BYTE      ?get_two_points_distance?BYTE
      00011852H   XDATA    BYTE      ?iap_read_buff?BYTE
      0001185CH   XDATA    BYTE      ?iap_write_buff?BYTE
      0001119CH   XDATA    BYTE      ?ips114_show_chinese?BYTE
      00010DA9H   XDATA    BYTE      ?ips114_show_float?BYTE
      00011002H   XDATA    BYTE      ?ips114_show_wave?BYTE
      000111B5H   XDATA    BYTE      ?ips200_show_chinese?BYTE
      00010DD9H   XDATA    BYTE      ?ips200_show_float?BYTE
      00011022H   XDATA    BYTE      ?ips200_show_wave?BYTE
      00011134H   XDATA    BYTE      ?ips200pro_create_widgets?BYTE
      00010F6BH   XDATA    BYTE      ?ips200pro_image_display?BYTE
      00011169H   XDATA    BYTE      ?ips200pro_image_draw_line?BYTE
      00010FE0H   XDATA    BYTE      ?ips200pro_image_draw_rectangle?BYTE
      00010D2AH   XDATA    BYTE      ?ips200pro_label_printf?BYTE
      00011645H   XDATA    BYTE      ?ips200pro_receive_buffer?BYTE
L251 LINKER/LOCATER V4.66.93.0                                                        03/25/2026  17:12:38  PAGE 23


      0001158AH   XDATA    BYTE      ?ips200pro_send_buffer?BYTE
      00010CE5H   XDATA    BYTE      ?ips200pro_table_cell_printf?BYTE
      0001114FH   XDATA    BYTE      ?ips200pro_waveform_add_value?BYTE
      00011081H   XDATA    BYTE      ?ips200pro_write_packet?BYTE
      000117E1H   XDATA    BYTE      ?KalmanCreate?BYTE
      00010FBBH   XDATA    ---       ?printf?BYTE
      00011365H   XDATA    BYTE      ?pwm_init?BYTE
      00011268H   XDATA    BYTE      ?pwm_set_freq?BYTE
      000117F9H   XDATA    BYTE      ?range_protect?BYTE
      000110A0H   XDATA    BYTE      ?seekfree_assistant_camera_boundary_config?BYTE
      000114EFH   XDATA    BYTE      ?seekfree_assistant_camera_data_send?BYTE
      000118B6H   XDATA    BYTE      ?seekfree_assistant_camera_information_config?BYTE
      000115F7H   XDATA    BYTE      ?soft_iic_init?BYTE
      0001169DH   XDATA    BYTE      ?soft_iic_read_16bit_array?BYTE
      00011536H   XDATA    BYTE      ?soft_iic_read_16bit_registers?BYTE
      00011691H   XDATA    BYTE      ?soft_iic_read_8bit_array?BYTE
      000115EAH   XDATA    BYTE      ?soft_iic_read_8bit_registers?BYTE
      00011290H   XDATA    BYTE      ?soft_iic_transfer_16bit_array?BYTE
      0001127CH   XDATA    BYTE      ?soft_iic_transfer_8bit_array?BYTE
      00011685H   XDATA    BYTE      ?soft_iic_write_16bit_array?BYTE
      00011528H   XDATA    BYTE      ?soft_iic_write_16bit_registers?BYTE
      00011679H   XDATA    BYTE      ?soft_iic_write_8bit_array?BYTE
      000115DDH   XDATA    BYTE      ?soft_iic_write_8bit_registers?BYTE
      00011216H   XDATA    BYTE      ?soft_spi_init?BYTE
      000116CDH   XDATA    BYTE      ?soft_spi_read_16bit_array?BYTE
      00011552H   XDATA    BYTE      ?soft_spi_read_16bit_registers?BYTE
      000116C1H   XDATA    BYTE      ?soft_spi_read_8bit_array?BYTE
      00011611H   XDATA    BYTE      ?soft_spi_read_8bit_registers?BYTE
      00011455H   XDATA    BYTE      ?soft_spi_transfer_16bit?BYTE
      00011445H   XDATA    BYTE      ?soft_spi_transfer_8bit?BYTE
      000116B5H   XDATA    BYTE      ?soft_spi_write_16bit_array?BYTE
      00011544H   XDATA    BYTE      ?soft_spi_write_16bit_registers?BYTE
      000116A9H   XDATA    BYTE      ?soft_spi_write_8bit_array?BYTE
      00011604H   XDATA    BYTE      ?soft_spi_write_8bit_registers?BYTE
      000112A4H   XDATA    BYTE      ?spi_init?BYTE
      00011884H   XDATA    BYTE      ?spi_read_16bit_array?BYTE
      000116E5H   XDATA    BYTE      ?spi_read_16bit_registers?BYTE
      0001187AH   XDATA    BYTE      ?spi_read_8bit_array?BYTE
      00011826H   XDATA    BYTE      ?spi_read_8bit_registers?BYTE
      0001156EH   XDATA    BYTE      ?spi_transfer_16bit?BYTE
      00011560H   XDATA    BYTE      ?spi_transfer_8bit?BYTE
      00011870H   XDATA    BYTE      ?spi_write_16bit_array?BYTE
      000116D9H   XDATA    BYTE      ?spi_write_16bit_registers?BYTE
      00011866H   XDATA    BYTE      ?spi_write_8bit_array?BYTE
      0001181BH   XDATA    BYTE      ?spi_write_8bit_registers?BYTE
      00010FBBH   XDATA    ---       ?sprintf?BYTE
      00010E09H   XDATA    BYTE      ?tft180_show_float?BYTE
      00011042H   XDATA    BYTE      ?tft180_show_wave?BYTE
      00011709H   XDATA    BYTE      ?uart_init?BYTE
      00010B88H   XDATA    BYTE      ?vsnprintf?BYTE
      00010A4AH   XDATA    BYTE      ?zf_sprintf?BYTE
      00FF27F2H   CODE     ---       _chkfloat_?_
      00FF66FFH   CODE     ---       _m
*SFR* 000000D0H.6 DATA     BIT       AC
*SFR* 000000E0H   DATA     BYTE      ACC
      00011BB4H   XDATA    WORD      ad_result
*SFR* 000000BCH   DATA     BYTE      ADC_CONTR
*DEL*:00000000H   CODE     ---       adc_convert
*DEL*:00000000H   CODE     ---       adc_init
*DEL*:00000000H   CODE     ---       adc_mean_filter_convert
*DEL*:00000000H   CODE     ---       Adc_Normalize
*SFR* 000000BDH   DATA     BYTE      ADC_RES
*SFR* 000000BEH   DATA     BYTE      ADC_RESL
*SFR* 000000DEH   DATA     BYTE      ADCCFG
      00FF3071H   CODE     ---       ascii_font_8x16
L251 LINKER/LOCATER V4.66.93.0                                                        03/25/2026  17:12:38  PAGE 24


      00FF2781H   CODE     ---       asin?_
      00FF26AFH   CODE     ---       atan?_
*SFR* 000000EFH   DATA     BYTE      AUXINTIF
*SFR* 0000008EH   DATA     BYTE      AUXR
*SFR* 00000097H   DATA     BYTE      AUXR2
*SFR* 000000F0H   DATA     BYTE      B
      00011BB6H   XDATA    FLOAT     battery_voltage
*DEL*:00000000H   CODE     ---       ble6a20_callback
*DEL*:00000000H   CODE     ---       ble6a20_init
*DEL*:00000000H   CODE     ---       ble6a20_read_buffer
*DEL*:00000000H   CODE     ---       ble6a20_send_buffer
*DEL*:00000000H   CODE     ---       ble6a20_send_byte
*DEL*:00000000H   CODE     ---       ble6a20_send_string
      00011D16H   XDATA    ---       buff
*DEL*:00000000H   CODE     ---       Buzzer_Init
*DEL*:00000000H   CODE     ---       Buzzer_Off
*DEL*:00000000H   CODE     ---       Buzzer_On
*SFR* 000000C8H.1 DATA     BIT       C_T2
*SFR* 000000F1H   DATA     BYTE      CANICR
*DEL*:00000000H   CODE     ---       Car_Init
*SFR* 000000FAH   DATA     BYTE      CCAP0H
*SFR* 000000EAH   DATA     BYTE      CCAP0L
*SFR* 000000FBH   DATA     BYTE      CCAP1H
*SFR* 000000EBH   DATA     BYTE      CCAP1L
*SFR* 000000FCH   DATA     BYTE      CCAP2H
*SFR* 000000ECH   DATA     BYTE      CCAP2L
*SFR* 000000FDH   DATA     BYTE      CCAP3H
*SFR* 000000EDH   DATA     BYTE      CCAP3L
*SFR* 000000FEH   DATA     BYTE      CCAP4H
*SFR* 000000EEH   DATA     BYTE      CCAP4L
*SFR* 000000DAH   DATA     BYTE      CCAPM0
*SFR* 000000DBH   DATA     BYTE      CCAPM1
*SFR* 000000DCH   DATA     BYTE      CCAPM2
*SFR* 000000DDH   DATA     BYTE      CCAPM3
*SFR* 000000DEH   DATA     BYTE      CCAPM4
*SFR* 000000D8H.0 DATA     BIT       CCF0
*SFR* 000000D8H.1 DATA     BIT       CCF1
*SFR* 000000D8H.2 DATA     BIT       CCF2
*SFR* 000000D8H.3 DATA     BIT       CCF3
*SFR* 000000D8H.4 DATA     BIT       CCF4
*SFR* 000000D8H   DATA     BYTE      CCON
*SFR* 00000090H.3 DATA     BIT       CEX0
*SFR* 00000090H.4 DATA     BIT       CEX1
*SFR* 00000090H.5 DATA     BIT       CEX2
*SFR* 00000090H.6 DATA     BIT       CEX3
*SFR* 00000090H.7 DATA     BIT       CEX4
*SFR* 000000D8H.7 DATA     BIT       CF
*SFR* 000000F9H   DATA     BYTE      CH
*SFR* 000000EAH   DATA     BYTE      CKCON
*SFR* 000000E9H   DATA     BYTE      CL
      00FF5FE1H   CODE     ---       clock_init
*SFR* 000000D9H   DATA     BYTE      CMOD
*SFR* 000000E6H   DATA     BYTE      CMPCR1
*SFR* 000000E7H   DATA     BYTE      CMPCR2
      00FF259FH   CODE     ---       cos?_
*SFR* 000000C8H.0 DATA     BIT       CP_RL2
*SFR* 000000D8H.6 DATA     BIT       CR
*SFR* 000000D0H.7 DATA     BIT       CY
      000107F6H   XDATA    FLOAT     Daty_X
      000107FAH   XDATA    FLOAT     Daty_Y
      000107FEH   XDATA    FLOAT     Daty_Z
      00FF6164H   CODE     ---       debug_assert_handler
      00FF5BA7H   CODE     ---       debug_init
      00FF6687H   CODE     ---       debug_interrupr_handler
*DEL*:00000000H   CODE     ---       debug_read_buffer
L251 LINKER/LOCATER V4.66.93.0                                                        03/25/2026  17:12:38  PAGE 25


*DEL*:00000000H   CODE     ---       debug_send_buffer
      00010A81H   XDATA    ---       debug_uart_buffer
      00010AC2H   XDATA    ---       debug_uart_fifo
      00011627H   XDATA    WORD      dl1a_distance_mm
      00011629H   XDATA    BYTE      dl1a_finsh_flag
*DEL*:00000000H   CODE     ---       dl1a_get_distance
*DEL*:00000000H   CODE     ---       dl1a_init
*DEL*:00000000H   CODE     ---       dl1a_int_handler
      00011634H   XDATA    WORD      dl1b_distance_mm
      00011636H   XDATA    BYTE      dl1b_finsh_flag
*DEL*:00000000H   CODE     ---       dl1b_get_distance
*DEL*:00000000H   CODE     ---       dl1b_init
*DEL*:00000000H   CODE     ---       dl1b_int_handler
      00FF5AF7H   CODE     ---       DMA_UART1_IRQHandler
      00FF5E34H   CODE     ---       DMA_UART2_IRQHandler
      00FF5EC3H   CODE     ---       DMA_UART3_IRQHandler
      00FF5F52H   CODE     ---       DMA_UART4_IRQHandler
*SFR* 00000083H   DATA     BYTE      DPH
*SFR* 00000082H   DATA     BYTE      DPL
*SFR* 00000084H   DATA     BYTE      DPXL
*SFR* 000000A8H.7 DATA     BIT       EA
*SFR* 000000BAH.7 DATA     BIT       EAXFR
*SFR* 000000A8H.6 DATA     BIT       EC
*SFR* 00000090H.2 DATA     BIT       ECI
*DEL*:00000000H   CODE     ---       eeprom_init
*DEL*:00000000H   CODE     ---       eeprom_read
*DEL*:00000000H   CODE     ---       eeprom_read_value
*DEL*:00000000H   CODE     ---       eeprom_trig
*DEL*:00000000H   CODE     ---       eeprom_write_value
*DEL*:00000000H   CODE     ---       encoder_clear_count
*DEL*:00000000H   CODE     ---       encoder_dir_init
*DEL*:00000000H   CODE     ---       encoder_get_count
*SFR* 000000A8H.4 DATA     BIT       ES
*SFR* 000000A8H.1 DATA     BIT       ET0
*SFR* 000000A8H.3 DATA     BIT       ET1
*SFR* 000000A8H.5 DATA     BIT       ET2
*SFR* 000000A8H.0 DATA     BIT       EX0
*SFR* 000000A8H.2 DATA     BIT       EX1
*SFR* 0000008FH.4 DATA     BIT       EX2
*SFR* 0000008FH.5 DATA     BIT       EX3
*SFR* 0000008FH.6 DATA     BIT       EX4
*SFR* 000000C8H.3 DATA     BIT       EXEN2
*SFR* 000000C8H.6 DATA     BIT       EXF2
      00FF2CB1H   CODE     ---       exp?_
*DEL*:00000000H   CODE     ---       extern_iap_write_buff
*DEL*:00000000H   CODE     ---       exti_all_close
*DEL*:00000000H   CODE     ---       exti_disable
*DEL*:00000000H   CODE     ---       exti_enable
*DEL*:00000000H   CODE     ---       exti_init
*SFR* 000000D0H.5 DATA     BIT       F0
*DEL*:00000000H   CODE     ---       fast_sqrt
*SFR* 00000098H.7 DATA     BIT       FE
*DEL*:00000000H   CODE     ---       fifo_clear
      00FF56D5H   CODE     ---       fifo_init
*DEL*:00000000H   CODE     ---       fifo_read_buffer
*DEL*:00000000H   CODE     ---       fifo_used
      00FF3661H   CODE     ---       fifo_write_buffer
      000107CAH   XDATA    ---       first_complement
*DEL*:00000000H   CODE     ---       First_complement_Init
*DEL*:00000000H   CODE     ---       func_double_to_str
*DEL*:00000000H   CODE     ---       func_float_to_str
*DEL*:00000000H   CODE     ---       func_get_greatest_common_divisor
*DEL*:00000000H   CODE     ---       func_hex_to_str
*DEL*:00000000H   CODE     ---       func_int_to_str
*DEL*:00000000H   CODE     ---       func_soft_delay
L251 LINKER/LOCATER V4.66.93.0                                                        03/25/2026  17:12:38  PAGE 26


*DEL*:00000000H   CODE     ---       func_str_to_double
*DEL*:00000000H   CODE     ---       func_str_to_float
*DEL*:00000000H   CODE     ---       func_str_to_hex
*DEL*:00000000H   CODE     ---       func_str_to_int
*DEL*:00000000H   CODE     ---       func_str_to_uint
*DEL*:00000000H   CODE     ---       func_uint_to_str
*DEL*:00000000H   CODE     ---       get_two_points_azimuth
*DEL*:00000000H   CODE     ---       get_two_points_distance
      00FF533EH   CODE     ---       gpio_get_level
      00FF55C6H   CODE     ---       gpio_init
      00FF4FE9H   CODE     ---       gpio_set_impedance
      00FF49EDH   CODE     ---       gpio_set_level
*DEL*:00000000H   CODE     ---       gpio_set_level_speed
*DEL*:00000000H   CODE     ---       gpio_toggle_level
*DEL*:00000000H   CODE     ---       gps_data_parse
      000105D0H   XDATA    INT       gps_gga_state
*DEL*:00000000H   CODE     ---       gps_init
      000105D2H   XDATA    INT       gps_rmc_state
      000104A4H   XDATA    ---       gps_tau1201
      00010423H   XDATA    BYTE      gps_tau1201_flag
      00011A94H   XDATA    INT       gps_type
*DEL*:00000000H   CODE     ---       gps_uart_callback
*DEL*:00000000H   CODE     ---       gyro_init
      00010812H   XDATA    ---       Gyro_Offset
      0001077AH   XDATA    FLOAT     gyro_Offset_flag
*DEL*:00000000H   CODE     ---       gyro_proc
      000107BEH   XDATA    FLOAT     gyrox
      000107C2H   XDATA    FLOAT     gyroy
      000107C6H   XDATA    FLOAT     gyroz
*SFR* 000000F6H   DATA     BYTE      IAP_ADDRE
*SFR* 000000C3H   DATA     BYTE      IAP_ADDRH
*SFR* 000000C4H   DATA     BYTE      IAP_ADDRL
*SFR* 000000C5H   DATA     BYTE      IAP_CMD
*SFR* 000000C7H   DATA     BYTE      IAP_CONTR
*SFR* 000000C2H   DATA     BYTE      IAP_DATA
*DEL*:00000000H   CODE     ---       iap_erase_page
*DEL*:00000000H   CODE     ---       iap_get_cmd_state
*DEL*:00000000H   CODE     ---       iap_idle
*DEL*:00000000H   CODE     ---       iap_init
*DEL*:00000000H   CODE     ---       iap_read_buff
*DEL*:00000000H   CODE     ---       iap_read_byte
*DEL*:00000000H   CODE     ---       iap_set_tps
*SFR* 000000F5H   DATA     BYTE      IAP_TPS
*SFR* 000000C6H   DATA     BYTE      IAP_TRIG
*DEL*:00000000H   CODE     ---       iap_write_buff
*DEL*:00000000H   CODE     ---       iap_write_byte
      000112B8H   XDATA    INT       icm20602_acc_x
      000112BAH   XDATA    INT       icm20602_acc_y
      000112BCH   XDATA    INT       icm20602_acc_z
*DEL*:00000000H   CODE     ---       icm20602_get_acc
*DEL*:00000000H   CODE     ---       icm20602_get_gyro
      000112BEH   XDATA    INT       icm20602_gyro_x
      000112C0H   XDATA    INT       icm20602_gyro_y
      000112C2H   XDATA    INT       icm20602_gyro_z
*DEL*:00000000H   CODE     ---       icm20602_init
      000112C4H   XDATA    ---       icm20602_transition_factor
*SFR* 000000A8H   DATA     BYTE      IE
*SFR* 000000A8H   DATA     BYTE      IE0
*SFR* 00000088H.1 DATA     BIT       IE0_
*SFR* 000000B1H   DATA     BYTE      IE1
*SFR* 00000088H.3 DATA     BIT       IE1_
*SFR* 000000AFH   DATA     BYTE      IE2
      000112CCH   XDATA    INT       imu660ra_acc_x
      000112CEH   XDATA    INT       imu660ra_acc_y
      000112D0H   XDATA    INT       imu660ra_acc_z
L251 LINKER/LOCATER V4.66.93.0                                                        03/25/2026  17:12:38  PAGE 27


      00FF01CEH   CODE     ---       imu660ra_config_file
*DEL*:00000000H   CODE     ---       imu660ra_get_acc
*DEL*:00000000H   CODE     ---       imu660ra_get_gyro
      000112D2H   XDATA    INT       imu660ra_gyro_x
      000112D4H   XDATA    INT       imu660ra_gyro_y
      000112D6H   XDATA    INT       imu660ra_gyro_z
*DEL*:00000000H   CODE     ---       imu660ra_init
      000112D8H   XDATA    ---       imu660ra_transition_factor
*DEL*:00000000H   CODE     ---       imu660rb_acc_transition
      00011751H   XDATA    INT       imu660rb_acc_x
      00011753H   XDATA    INT       imu660rb_acc_y
      00011755H   XDATA    INT       imu660rb_acc_z
*DEL*:00000000H   CODE     ---       imu660rb_get_acc
*DEL*:00000000H   CODE     ---       imu660rb_get_gyro
*DEL*:00000000H   CODE     ---       imu660rb_gyro_transition
      00011757H   XDATA    INT       imu660rb_gyro_x
      00011759H   XDATA    INT       imu660rb_gyro_y
      0001175BH   XDATA    INT       imu660rb_gyro_z
*DEL*:00000000H   CODE     ---       imu660rb_init
      000110DDH   XDATA    INT       imu963ra_acc_x
      000110DFH   XDATA    INT       imu963ra_acc_y
      000110E1H   XDATA    INT       imu963ra_acc_z
*DEL*:00000000H   CODE     ---       imu963ra_get_acc
*DEL*:00000000H   CODE     ---       imu963ra_get_gyro
*DEL*:00000000H   CODE     ---       imu963ra_get_mag
      000110E9H   XDATA    INT       imu963ra_gyro_x
      000110EBH   XDATA    INT       imu963ra_gyro_y
      000110EDH   XDATA    INT       imu963ra_gyro_z
*DEL*:00000000H   CODE     ---       imu963ra_init
      000110E3H   XDATA    INT       imu963ra_mag_x
      000110E5H   XDATA    INT       imu963ra_mag_y
      000110E7H   XDATA    INT       imu963ra_mag_z
      000110EFH   XDATA    ---       imu963ra_transition_factor
      000107DEH   XDATA    ---       IMU_Data
*DEL*:00000000H   CODE     ---       IMU_GetValues
*DEL*:00000000H   CODE     ---       IMU_gyro_Offset_Init
*DEL*:00000000H   CODE     ---       IMU_Handle_0
*DEL*:00000000H   CODE     ---       IMU_Handle_180
*DEL*:00000000H   CODE     ---       IMU_Handle_360
*DEL*:00000000H   CODE     ---       IMU_YAW_integral
*DEL*:00000000H   CODE     ---       Inductance_Count_Err
*DEL*:00000000H   CODE     ---       Inductance_Init
*DEL*:00000000H   CODE     ---       Inductance_Read
*SFR* 000000B0H.2 DATA     BIT       INT0
      000110CBH   XDATA    ---       int0_irq_handler
      00FF6407H   CODE     ---       INT0_IRQHandler
*SFR* 000000B0H.3 DATA     BIT       INT1
      000110CFH   XDATA    ---       int1_irq_handler
      00FF6447H   CODE     ---       INT1_IRQHandler
      000110D3H   XDATA    ---       int2_irq_handler
      00FF6487H   CODE     ---       INT2_IRQHandler
      000110D7H   XDATA    ---       int3_irq_handler
      00FF64C7H   CODE     ---       INT3_IRQHandler
      000110DBH   XDATA    ---       int4_irq_handler
      00FF6507H   CODE     ---       INT4_IRQHandler
*SFR* 0000008FH   DATA     BYTE      INTCLKO
      00FF0006H   CODE     ---       interrupt_global_disable
      00FF000EH   CODE     ---       interrupt_global_enable
*DEL*:00000000H   CODE     ---       interrupt_set_priority
*SFR* 000000B8H   DATA     BYTE      IP
*SFR* 000000B5H   DATA     BYTE      IP2
*SFR* 000000B6H   DATA     BYTE      IP2H
*SFR* 000000DFH   DATA     BYTE      IP3
*SFR* 000000EEH   DATA     BYTE      IP3H
*SFR* 000000B7H   DATA     BYTE      IPH
L251 LINKER/LOCATER V4.66.93.0                                                        03/25/2026  17:12:38  PAGE 28


*SFR* 000000B7H   DATA     BYTE      IPH0
*SFR* 000000B8H   DATA     BYTE      IPL0
      00011A48H   XDATA    WORD      ips114_bgcolor
*DEL*:00000000H   CODE     ---       ips114_clear
      00011A4AH   XDATA    INT       ips114_display_dir
*DEL*:00000000H   CODE     ---       ips114_draw_point
*DEL*:00000000H   CODE     ---       ips114_init
      00011A46H   XDATA    WORD      ips114_pencolor
*DEL*:00000000H   CODE     ---       ips114_set_color
*DEL*:00000000H   CODE     ---       ips114_set_dir
*DEL*:00000000H   CODE     ---       ips114_show_char
*DEL*:00000000H   CODE     ---       ips114_show_chinese
*DEL*:00000000H   CODE     ---       ips114_show_float
*DEL*:00000000H   CODE     ---       ips114_show_int16
*DEL*:00000000H   CODE     ---       ips114_show_int32
*DEL*:00000000H   CODE     ---       ips114_show_int8
*DEL*:00000000H   CODE     ---       ips114_show_string
*DEL*:00000000H   CODE     ---       ips114_show_uint16
*DEL*:00000000H   CODE     ---       ips114_show_uint8
*DEL*:00000000H   CODE     ---       ips114_show_wave
      00011A4CH   XDATA    BYTE      ips114_x_max
      00011A4DH   XDATA    BYTE      ips114_y_max
      0001189AH   XDATA    WORD      ips200_bgcolor
*DEL*:00000000H   CODE     ---       ips200_clear
      0001189CH   XDATA    INT       ips200_display_dir
*DEL*:00000000H   CODE     ---       ips200_draw_point
*DEL*:00000000H   CODE     ---       ips200_init
      00011898H   XDATA    WORD      ips200_pencolor
*DEL*:00000000H   CODE     ---       ips200_set_color
*DEL*:00000000H   CODE     ---       ips200_set_dir
*DEL*:00000000H   CODE     ---       ips200_show_char
*DEL*:00000000H   CODE     ---       ips200_show_chinese
*DEL*:00000000H   CODE     ---       ips200_show_float
*DEL*:00000000H   CODE     ---       ips200_show_int16
*DEL*:00000000H   CODE     ---       ips200_show_int32
*DEL*:00000000H   CODE     ---       ips200_show_int8
*DEL*:00000000H   CODE     ---       ips200_show_string
*DEL*:00000000H   CODE     ---       ips200_show_uint16
*DEL*:00000000H   CODE     ---       ips200_show_uint8
*DEL*:00000000H   CODE     ---       ips200_show_wave
      0001189EH   XDATA    WORD      ips200_x_max
      000118A0H   XDATA    WORD      ips200_y_max
*DEL*:00000000H   CODE     ---       ips200pro_calendar_create
*DEL*:00000000H   CODE     ---       ips200pro_calendar_display
*DEL*:00000000H   CODE     ---       ips200pro_clock_create
*DEL*:00000000H   CODE     ---       ips200pro_container_create
*DEL*:00000000H   CODE     ---       ips200pro_container_radius
*DEL*:00000000H   CODE     ---       ips200pro_create_widgets
*DEL*:00000000H   CODE     ---       ips200pro_delete_widgets
*DEL*:00000000H   CODE     ---       ips200pro_get_date
*DEL*:00000000H   CODE     ---       ips200pro_get_free_stack_size
*DEL*:00000000H   CODE     ---       ips200pro_get_information
*DEL*:00000000H   CODE     ---       ips200pro_get_time
*DEL*:00000000H   CODE     ---       ips200pro_image_create
*DEL*:00000000H   CODE     ---       ips200pro_image_display
*DEL*:00000000H   CODE     ---       ips200pro_image_draw_line
*DEL*:00000000H   CODE     ---       ips200pro_image_draw_rectangle
      00010C0EH   XDATA    ---       ips200pro_information
*DEL*:00000000H   CODE     ---       ips200pro_init
*DEL*:00000000H   CODE     ---       ips200pro_label_create
*DEL*:00000000H   CODE     ---       ips200pro_label_mode
*DEL*:00000000H   CODE     ---       ips200pro_label_printf
*DEL*:00000000H   CODE     ---       ips200pro_label_show_string
*DEL*:00000000H   CODE     ---       ips200pro_meter_create
*DEL*:00000000H   CODE     ---       ips200pro_meter_set_value
L251 LINKER/LOCATER V4.66.93.0                                                        03/25/2026  17:12:38  PAGE 29


*DEL*:00000000H   CODE     ---       ips200pro_page_create
*DEL*:00000000H   CODE     ---       ips200pro_page_hidden
*DEL*:00000000H   CODE     ---       ips200pro_page_set_title_name
*DEL*:00000000H   CODE     ---       ips200pro_page_set_title_position_width
*DEL*:00000000H   CODE     ---       ips200pro_page_switch
*DEL*:00000000H   CODE     ---       ips200pro_progress_bar_create
*DEL*:00000000H   CODE     ---       ips200pro_progress_bar_set_value
*DEL*:00000000H   CODE     ---       ips200pro_read_parameter
*DEL*:00000000H   CODE     ---       ips200pro_receive_buffer
*DEL*:00000000H   CODE     ---       ips200pro_send_buffer
*DEL*:00000000H   CODE     ---       ips200pro_set_backlight
*DEL*:00000000H   CODE     ---       ips200pro_set_color
*DEL*:00000000H   CODE     ---       ips200pro_set_crc_state
*DEL*:00000000H   CODE     ---       ips200pro_set_date
*DEL*:00000000H   CODE     ---       ips200pro_set_default_font
*DEL*:00000000H   CODE     ---       ips200pro_set_direction
*DEL*:00000000H   CODE     ---       ips200pro_set_font
*DEL*:00000000H   CODE     ---       ips200pro_set_format
*DEL*:00000000H   CODE     ---       ips200pro_set_hidden
*DEL*:00000000H   CODE     ---       ips200pro_set_optimize
*DEL*:00000000H   CODE     ---       ips200pro_set_parent
*DEL*:00000000H   CODE     ---       ips200pro_set_position
*DEL*:00000000H   CODE     ---       ips200pro_set_time
*DEL*:00000000H   CODE     ---       ips200pro_table_cell_printf
*DEL*:00000000H   CODE     ---       ips200pro_table_create
*DEL*:00000000H   CODE     ---       ips200pro_table_select
*DEL*:00000000H   CODE     ---       ips200pro_table_set_col_width
      00010C17H   XDATA    ---       ips200pro_time
*DEL*:00000000H   CODE     ---       ips200pro_waveform_add_value
*DEL*:00000000H   CODE     ---       ips200pro_waveform_clear
*DEL*:00000000H   CODE     ---       ips200pro_waveform_create
*DEL*:00000000H   CODE     ---       ips200pro_waveform_line_state
*DEL*:00000000H   CODE     ---       ips200pro_waveform_line_type
*DEL*:00000000H   CODE     ---       ips200pro_write_packet
*SFR* 0000009DH   DATA     BYTE      IRCBAND
*SFR* 0000009FH   DATA     BYTE      IRTRIM
*SFR* 00000088H.0 DATA     BIT       IT0
*SFR* 00000088H.2 DATA     BIT       IT1
      00010719H   XDATA    ---       Kalman1
      00010749H   XDATA    ---       Kalman2
*DEL*:00000000H   CODE     ---       KalmanCreate
*DEL*:00000000H   CODE     ---       KalmanFilter
      00FF6761H   CODE     ---       LED_Init
      00FF0066H   CODE     ---       LED_Off
      00FF6813H   CODE     ---       LED_On
*DEL*:00000000H   CODE     ---       LED_Switch
*SFR* 000000F9H   DATA     BYTE      LINICR
      00FF2D40H   CODE     NEAR LAB  log?_
      00FF6735H   CODE     ---       MAIN
*DEL*:00000000H   CODE     ---       main_loop
      00010806H   XDATA    FLOAT     Max_Delta_Pitch
      0001081EH   XDATA    FLOAT     Max_Delta_Roll
*DEL*:00000000H   CODE     ---       Median_Average_Filter
      00FF67B0H   CODE     ---       memcpy?_
*DEL*:00000000H   CODE     ---       memset?_
*DEL*:00000000H   CODE     ---       motor_init
*DEL*:00000000H   CODE     ---       motor_L
*DEL*:00000000H   CODE     ---       motor_R
*DEL*:00000000H   CODE     ---       My_abs
*SFR* 000000D0H.2 DATA     BIT       OV
*SFR* 000000D0H.0 DATA     BIT       P
*SFR* 00000080H   DATA     BYTE      P0
*SFR* 00000094H   DATA     BYTE      P0M0
*SFR* 00000093H   DATA     BYTE      P0M1
*SFR* 00000090H   DATA     BYTE      P1
L251 LINKER/LOCATER V4.66.93.0                                                        03/25/2026  17:12:38  PAGE 30


*SFR* 00000092H   DATA     BYTE      P1M0
*SFR* 00000091H   DATA     BYTE      P1M1
*SFR* 000000A0H   DATA     BYTE      P2
*SFR* 000000A0H.0 DATA     BIT       P20
*SFR* 000000A0H.1 DATA     BIT       P21
*SFR* 000000A0H.2 DATA     BIT       P22
*SFR* 00000096H   DATA     BYTE      P2M0
*SFR* 00000095H   DATA     BYTE      P2M1
*SFR* 000000B0H   DATA     BYTE      P3
*SFR* 000000B2H   DATA     BYTE      P3M0
*SFR* 000000B1H   DATA     BYTE      P3M1
*SFR* 000000C0H   DATA     BYTE      P4
*SFR* 000000C0H.0 DATA     BIT       P40
*SFR* 000000C0H.1 DATA     BIT       P41
*SFR* 000000C0H.2 DATA     BIT       P42
*SFR* 000000C0H.3 DATA     BIT       P43
*SFR* 000000B4H   DATA     BYTE      P4M0
*SFR* 000000B3H   DATA     BYTE      P4M1
*SFR* 000000C8H   DATA     BYTE      P5
*SFR* 000000CAH   DATA     BYTE      P5M0
*SFR* 000000C9H   DATA     BYTE      P5M1
*SFR* 000000E8H   DATA     BYTE      P6
*SFR* 000000CCH   DATA     BYTE      P6M0
*SFR* 000000CBH   DATA     BYTE      P6M1
*SFR* 000000F8H   DATA     BYTE      P7
*SFR* 000000E2H   DATA     BYTE      P7M0
*SFR* 000000E1H   DATA     BYTE      P7M1
*SFR* 000000A2H   DATA     BYTE      P_SW1
*SFR* 000000BAH   DATA     BYTE      P_SW2
*SFR* 000000BBH   DATA     BYTE      P_SW3
*SFR* 00000087H   DATA     BYTE      PCON
      00011D12H   XDATA    WORD      pit0_count
      00FF63BBH   CODE     ---       pit_handler
      00FF476AH   CODE     ---       pit_init
      0001077EH   XDATA    FLOAT     pitch
      00010715H   XDATA    FLOAT     Pitch_Max
      00010711H   XDATA    FLOAT     Pitch_Min
*DEL*:00000000H   CODE     ---       pow?_
*SFR* 000000B8H.6 DATA     BIT       PPC
      00FF247BH   CODE     NEAR LAB  printf
*SFR* 000000B8H.4 DATA     BIT       PS
*SFR* 000000D0H   DATA     BYTE      PSW
*SFR* 000000D1H   DATA     BYTE      PSW1
*SFR* 000000B8H.1 DATA     BIT       PT0
*SFR* 000000B8H.3 DATA     BIT       PT1
*SFR* 000000B8H.5 DATA     BIT       PT2
      00FF0026H   CODE     ---       putchar
      00FF7326H   HCONST   ---       PWM_ARR_ADDR
      00FF732EH   HCONST   ---       PWM_CCER_ADDR
      00FF733EH   HCONST   ---       PWM_CCMR_ADDR
      00FF7306H   HCONST   ---       PWM_CCR_ADDR
*DEL*:00000000H   CODE     ---       pwm_init
      00FF72FEH   HCONST   ---       PWM_PSCR_ADDR
*DEL*:00000000H   CODE     ---       pwm_set_duty
*DEL*:00000000H   CODE     ---       pwm_set_freq
*SFR* 000000B8H.0 DATA     BIT       PX0
*SFR* 000000B8H.2 DATA     BIT       PX1
*DEL*:00000000H   CODE     ---       range_protect
*SFR* 00000098H.2 DATA     BIT       RB8
*SFR* 000000CBH   DATA     BYTE      RCAP2H
*SFR* 000000CAH   DATA     BYTE      RCAP2L
*SFR* 000000C8H.5 DATA     BIT       RCLK
*SFR* 000000B0H.7 DATA     BIT       RD
*SFR* 00000098H.4 DATA     BIT       REN
*SFR* 00000098H.0 DATA     BIT       RI
L251 LINKER/LOCATER V4.66.93.0                                                        03/25/2026  17:12:38  PAGE 31


      000107BAH   XDATA    FLOAT     roll
      000107B6H   XDATA    FLOAT     Roll_Max
      00010782H   XDATA    FLOAT     Roll_Min
      00010779H   XDATA    CHAR      Round
*SFR* 000000D0H.3 DATA     BIT       RS0
*SFR* 000000D0H.4 DATA     BIT       RS1
*SFR* 000000FFH   DATA     BYTE      RSTCFG
*SFR* 000000B0H.0 DATA     BIT       RXD
*SFR* 0000009BH   DATA     BYTE      S2BUF
*SFR* 0000009AH   DATA     BYTE      S2CON
*SFR* 0000009AH.1 DATA     BIT       S2TI
*SFR* 000000ACH   DATA     BYTE      S3CON
*SFR* 000000FDH   DATA     BYTE      S4CON
*SFR* 000000A9H   DATA     BYTE      SADDR
*SFR* 000000B9H   DATA     BYTE      SADEN
*SFR* 00000099H   DATA     BYTE      SBUF
*SFR* 00000098H   DATA     BYTE      SCON
*DEL*:00000000H   CODE     ---       seekfree_assistant_camera_boundary_config
*DEL*:00000000H   CODE     ---       seekfree_assistant_camera_data_send
*DEL*:00000000H   CODE     ---       seekfree_assistant_camera_dot_send
*DEL*:00000000H   CODE     ---       seekfree_assistant_camera_information_config
*DEL*:00000000H   CODE     ---       seekfree_assistant_camera_send
*DEL*:00000000H   CODE     ---       seekfree_assistant_data_analysis
*DEL*:00000000H   CODE     ---       seekfree_assistant_init
*DEL*:00000000H   CODE     ---       seekfree_assistant_interface_init
      000105DCH   XDATA    ---       seekfree_assistant_oscilloscope_data
*DEL*:00000000H   CODE     ---       seekfree_assistant_oscilloscope_send
      0001061FH   XDATA    ---       seekfree_assistant_parameter
      00010617H   XDATA    ---       seekfree_assistant_parameter_update_flag
      00011CA2H   XDATA    ---       seekfree_assistant_receive_callback
      00011CA4H   XDATA    ---       seekfree_assistant_transfer_callback
*DEL*:00000000H   CODE     ---       set_gps_type
      00FF4C02H   CODE     ---       set_sys_clk
*DEL*:00000000H   CODE     ---       set_tof_type
*DEL*:00000000H   CODE     ---       set_wireless_type
      00FF25BCH   CODE     ---       sin?_
*SFR* 00000098H.7 DATA     BIT       SM0
*SFR* 00000098H.6 DATA     BIT       SM1
*SFR* 00000098H.5 DATA     BIT       SM2
      00FF66C3H   CODE     ---       soft_iic_delay
*DEL*:00000000H   CODE     ---       soft_iic_init
*DEL*:00000000H   CODE     ---       soft_iic_read_16bit
*DEL*:00000000H   CODE     ---       soft_iic_read_16bit_array
*DEL*:00000000H   CODE     ---       soft_iic_read_16bit_register
*DEL*:00000000H   CODE     ---       soft_iic_read_16bit_registers
*DEL*:00000000H   CODE     ---       soft_iic_read_8bit
*DEL*:00000000H   CODE     ---       soft_iic_read_8bit_array
*DEL*:00000000H   CODE     ---       soft_iic_read_8bit_register
*DEL*:00000000H   CODE     ---       soft_iic_read_8bit_registers
      00FF5484H   CODE     ---       soft_iic_read_data
*DEL*:00000000H   CODE     ---       soft_iic_sccb_read_register
*DEL*:00000000H   CODE     ---       soft_iic_sccb_write_register
      00FF589BH   CODE     ---       soft_iic_send_ack
      00FF00A6H   CODE     ---       soft_iic_send_data
      00FF5C4EH   CODE     ---       soft_iic_start
      00FF5A38H   CODE     ---       soft_iic_stop
*DEL*:00000000H   CODE     ---       soft_iic_transfer_16bit_array
*DEL*:00000000H   CODE     ---       soft_iic_transfer_8bit_array
      00FF57B8H   CODE     ---       soft_iic_wait_ack
*DEL*:00000000H   CODE     ---       soft_iic_write_16bit
*DEL*:00000000H   CODE     ---       soft_iic_write_16bit_array
*DEL*:00000000H   CODE     ---       soft_iic_write_16bit_register
*DEL*:00000000H   CODE     ---       soft_iic_write_16bit_registers
*DEL*:00000000H   CODE     ---       soft_iic_write_8bit
*DEL*:00000000H   CODE     ---       soft_iic_write_8bit_array
L251 LINKER/LOCATER V4.66.93.0                                                        03/25/2026  17:12:38  PAGE 32


*DEL*:00000000H   CODE     ---       soft_iic_write_8bit_register
*DEL*:00000000H   CODE     ---       soft_iic_write_8bit_registers
*DEL*:00000000H   CODE     ---       soft_spi_delay
*DEL*:00000000H   CODE     ---       soft_spi_init
*DEL*:00000000H   CODE     ---       soft_spi_read_16bit
*DEL*:00000000H   CODE     ---       soft_spi_read_16bit_array
*DEL*:00000000H   CODE     ---       soft_spi_read_16bit_register
*DEL*:00000000H   CODE     ---       soft_spi_read_16bit_registers
*DEL*:00000000H   CODE     ---       soft_spi_read_8bit
*DEL*:00000000H   CODE     ---       soft_spi_read_8bit_array
*DEL*:00000000H   CODE     ---       soft_spi_read_8bit_register
*DEL*:00000000H   CODE     ---       soft_spi_read_8bit_registers
*DEL*:00000000H   CODE     ---       soft_spi_transfer_16bit
*DEL*:00000000H   CODE     ---       soft_spi_transfer_8bit
*DEL*:00000000H   CODE     ---       soft_spi_write_16bit
*DEL*:00000000H   CODE     ---       soft_spi_write_16bit_array
*DEL*:00000000H   CODE     ---       soft_spi_write_16bit_register
*DEL*:00000000H   CODE     ---       soft_spi_write_16bit_registers
*DEL*:00000000H   CODE     ---       soft_spi_write_8bit
*DEL*:00000000H   CODE     ---       soft_spi_write_8bit_array
*DEL*:00000000H   CODE     ---       soft_spi_write_8bit_register
*DEL*:00000000H   CODE     ---       soft_spi_write_8bit_registers
*SFR* 00000081H   DATA     BYTE      SP
*SFR* 000000CEH   DATA     BYTE      SPCTL
*SFR* 000000CFH   DATA     BYTE      SPDAT
*SFR* 000000BEH   DATA     BYTE      SPH
*DEL*:00000000H   CODE     ---       spi_init
*DEL*:00000000H   CODE     ---       spi_read_16bit
*DEL*:00000000H   CODE     ---       spi_read_16bit_array
*DEL*:00000000H   CODE     ---       spi_read_16bit_register
*DEL*:00000000H   CODE     ---       spi_read_16bit_registers
*DEL*:00000000H   CODE     ---       spi_read_8bit
*DEL*:00000000H   CODE     ---       spi_read_8bit_array
*DEL*:00000000H   CODE     ---       spi_read_8bit_register
*DEL*:00000000H   CODE     ---       spi_read_8bit_registers
      00FF61DDH   CODE     ---       spi_read_dat
*DEL*:00000000H   CODE     ---       spi_transfer_16bit
*DEL*:00000000H   CODE     ---       spi_transfer_8bit
*DEL*:00000000H   CODE     ---       spi_write_16bit
*DEL*:00000000H   CODE     ---       spi_write_16bit_array
*DEL*:00000000H   CODE     ---       spi_write_16bit_register
*DEL*:00000000H   CODE     ---       spi_write_16bit_registers
*DEL*:00000000H   CODE     ---       spi_write_8bit
*DEL*:00000000H   CODE     ---       spi_write_8bit_array
*DEL*:00000000H   CODE     ---       spi_write_8bit_register
*DEL*:00000000H   CODE     ---       spi_write_8bit_registers
*DEL*:00000000H   CODE     ---       spi_write_dat
      00FF24A7H   CODE     NEAR LAB  sprintf
*SFR* 000000CDH   DATA     BYTE      SPSTAT
      00FF24C7H   CODE     ---       sqrt?_
*DEL*:00000000H   CODE     ---       strchr?_
*DEL*:00000000H   CODE     ---       strlen?_
*DEL*:00000000H   CODE     ---       strncmp?_
*DEL*:00000000H   CODE     ---       strncpy?_
      00011C1EH   XDATA    LONG      system_clock
      00FF62BBH   CODE     ---       system_delay_init
      00FF678BH   CODE     ---       system_delay_ms
*DEL*:00000000H   CODE     ---       system_delay_us
*SFR* 000000B0H.4 DATA     BIT       T0
*SFR* 000000B0H.5 DATA     BIT       T1
*SFR* 00000090H.0 DATA     BIT       T2
*SFR* 000000C8H   DATA     BYTE      T2CON
*SFR* 00000090H.1 DATA     BIT       T2EX
*SFR* 000000D6H   DATA     BYTE      T2H
*SFR* 000000D7H   DATA     BYTE      T2L
L251 LINKER/LOCATER V4.66.93.0                                                        03/25/2026  17:12:38  PAGE 33


*SFR* 000000C9H   DATA     BYTE      T2MOD
*SFR* 000000D4H   DATA     BYTE      T3H
*SFR* 000000D5H   DATA     BYTE      T3L
*SFR* 000000D2H   DATA     BYTE      T4H
*SFR* 000000D3H   DATA     BYTE      T4L
*SFR* 000000DDH   DATA     BYTE      T4T3M
      00FF25E9H   CODE     ---       TAN?_
*SFR* 00000098H.3 DATA     BIT       TB8
*SFR* 000000C8H.4 DATA     BIT       TCLK
*SFR* 00000088H   DATA     BYTE      TCON
*SFR* 00000088H.5 DATA     BIT       TF0
*SFR* 00000088H.7 DATA     BIT       TF1
*SFR* 000000C8H.7 DATA     BIT       TF2
      00011A78H   XDATA    WORD      tft180_bgcolor
*DEL*:00000000H   CODE     ---       tft180_clear
      00011A7AH   XDATA    INT       tft180_display_dir
*DEL*:00000000H   CODE     ---       tft180_draw_point
*DEL*:00000000H   CODE     ---       tft180_init
      00011A76H   XDATA    WORD      tft180_pencolor
*DEL*:00000000H   CODE     ---       tft180_set_color
*DEL*:00000000H   CODE     ---       tft180_set_dir
*DEL*:00000000H   CODE     ---       tft180_show_char
*DEL*:00000000H   CODE     ---       tft180_show_float
*DEL*:00000000H   CODE     ---       tft180_show_int16
*DEL*:00000000H   CODE     ---       tft180_show_int32
*DEL*:00000000H   CODE     ---       tft180_show_int8
*DEL*:00000000H   CODE     ---       tft180_show_string
*DEL*:00000000H   CODE     ---       tft180_show_uint16
*DEL*:00000000H   CODE     ---       tft180_show_uint8
*DEL*:00000000H   CODE     ---       tft180_show_wave
      00011A7CH   XDATA    BYTE      tft180_x_max
      00011A7DH   XDATA    BYTE      tft180_y_max
*SFR* 0000008CH   DATA     BYTE      TH0
*SFR* 0000008DH   DATA     BYTE      TH1
*SFR* 000000CDH   DATA     BYTE      TH2
*SFR* 00000098H.1 DATA     BIT       TI
      000110C9H   XDATA    ---       tim0_irq_handler
      000110BFH   XDATA    ---       tim11_irq_handler
      000110CDH   XDATA    ---       tim1_irq_handler
      000110D1H   XDATA    ---       tim2_irq_handler
      000110D5H   XDATA    ---       tim3_irq_handler
      000110D9H   XDATA    ---       tim4_irq_handler
      00FF6062H   CODE     ---       timer_funciton_check
*SFR* 0000008AH   DATA     BYTE      TL0
*SFR* 0000008BH   DATA     BYTE      TL1
*SFR* 000000CCH   DATA     BYTE      TL2
      00FF6547H   CODE     ---       TM0_IRQHandler
      00FF6587H   CODE     ---       TM1_IRQHandler
      00FF65C7H   CODE     ---       TM2_IRQHandler
      00FF6607H   CODE     ---       TM3_IRQHandler
      00FF6647H   CODE     ---       TM4_IRQHandler
*SFR* 00000089H   DATA     BYTE      TMOD
      00011A8EH   XDATA    ---       tof_module_exti_handler
      00011A92H   XDATA    INT       tof_type
*SFR* 00000088H.4 DATA     BIT       TR0
*SFR* 00000088H.6 DATA     BIT       TR1
*SFR* 000000C8H.2 DATA     BIT       TR2
*DEL*:00000000H   CODE     ---       tsl1401_collect_pit_handler
      0001020BH   XDATA    ---       tsl1401_data
      0001020AH   XDATA    BYTE      tsl1401_finish_flag
*DEL*:00000000H   CODE     ---       tsl1401_init
*DEL*:00000000H   CODE     ---       tsl1401_send_data
*SFR* 000000B0H.1 DATA     BIT       TXD
      000110C1H   XDATA    ---       uart1_irq_handler
      000110C3H   XDATA    ---       uart2_irq_handler
L251 LINKER/LOCATER V4.66.93.0                                                        03/25/2026  17:12:38  PAGE 34


      000110C5H   XDATA    ---       uart3_irq_handler
      000110C7H   XDATA    ---       uart4_irq_handler
      00FF519BH   CODE     ---       uart_dma_init
      00FF60E3H   CODE     ---       uart_funciton_check
      00FF418DH   CODE     ---       uart_init
      00FF5D95H   CODE     ---       uart_query_byte
*DEL*:00000000H   CODE     ---       uart_read_byte
      00011705H   XDATA    ---       uart_rx_buff
      00FF6255H   CODE     ---       uart_rx_interrupt
      00FF5976H   CODE     ---       uart_rx_start_buff
      00FF4E13H   CODE     ---       uart_write_buffer
      00FF67D5H   CODE     ---       uart_write_byte
*DEL*:00000000H   CODE     ---       uart_write_string
*SFR* 000000F4H   DATA     BYTE      USBCON
*DEL*:00000000H   CODE     ---       voltage_warning_init
*DEL*:00000000H   CODE     ---       voltage_warning_task
*SFR* 000000A6H   DATA     BYTE      VRTRIM
*DEL*:00000000H   CODE     ---       vsnprintf
*SFR* 000000C1H   DATA     BYTE      WDT_CONTR
*SFR* 000000A6H   DATA     BYTE      WDTRST
      00011A90H   XDATA    INT       wireless_type
*DEL*:00000000H   CODE     ---       wireless_uart_callback
*DEL*:00000000H   CODE     ---       wireless_uart_init
*DEL*:00000000H   CODE     ---       wireless_uart_read_buffer
*DEL*:00000000H   CODE     ---       wireless_uart_send_buffer
*DEL*:00000000H   CODE     ---       wireless_uart_send_byte
*DEL*:00000000H   CODE     ---       wireless_uart_send_string
*SFR* 000000B0H.6 DATA     BIT       WR
*SFR* 000000E9H   DATA     BYTE      WTST
      0001080AH   XDATA    FLOAT     yaw
      00010802H   XDATA    FLOAT     yaw_limit_360
      0001080EH   XDATA    FLOAT     yaw_total
      00010786H   XDATA    ---       Zero
*DEL*:00000000H   CODE     ---       zf_sprintf



SYMBOL TABLE OF MODULE:  .\out_file\SEEKFREE (?C_START)

      VALUE       REP       CLASS    TYPE      SYMBOL NAME
      ====================================================
      ---         MODULE    ---      ---       ?C_START
      00FF0000H   PUBLIC    CODE     ---       ?C?STARTUP
      00FF0000H   PUBLIC    CODE     ---       ?C_STARTUP
      000000D0H.6 SFRSYM    DATA     BIT       AC
      000000E0H   SFRSYM    DATA     BYTE      ACC
      000000F0H   SFRSYM    DATA     BYTE      B
      000000FAH   SFRSYM    DATA     BYTE      CCAP0H
      000000EAH   SFRSYM    DATA     BYTE      CCAP0L
      000000FBH   SFRSYM    DATA     BYTE      CCAP1H
      000000EBH   SFRSYM    DATA     BYTE      CCAP1L
      000000FCH   SFRSYM    DATA     BYTE      CCAP2H
      000000ECH   SFRSYM    DATA     BYTE      CCAP2L
      000000FDH   SFRSYM    DATA     BYTE      CCAP3H
      000000EDH   SFRSYM    DATA     BYTE      CCAP3L
      000000FEH   SFRSYM    DATA     BYTE      CCAP4H
      000000EEH   SFRSYM    DATA     BYTE      CCAP4L
      000000DAH   SFRSYM    DATA     BYTE      CCAPM0
      000000DBH   SFRSYM    DATA     BYTE      CCAPM1
      000000DCH   SFRSYM    DATA     BYTE      CCAPM2
      000000DDH   SFRSYM    DATA     BYTE      CCAPM3
      000000DEH   SFRSYM    DATA     BYTE      CCAPM4
      000000D8H.0 SFRSYM    DATA     BIT       CCF0
      000000D8H.1 SFRSYM    DATA     BIT       CCF1
      000000D8H.2 SFRSYM    DATA     BIT       CCF2
L251 LINKER/LOCATER V4.66.93.0                                                        03/25/2026  17:12:38  PAGE 35


      000000D8H.3 SFRSYM    DATA     BIT       CCF3
      000000D8H.4 SFRSYM    DATA     BIT       CCF4
      000000D8H   SFRSYM    DATA     BYTE      CCON
      00000090H.3 SFRSYM    DATA     BIT       CEX0
      00000090H.4 SFRSYM    DATA     BIT       CEX1
      00000090H.5 SFRSYM    DATA     BIT       CEX2
      00000090H.6 SFRSYM    DATA     BIT       CEX3
      00000090H.7 SFRSYM    DATA     BIT       CEX4
      000000D8H.7 SFRSYM    DATA     BIT       CF
      000000F9H   SFRSYM    DATA     BYTE      CH
      000000E9H   SFRSYM    DATA     BYTE      CL
      000000D9H   SFRSYM    DATA     BYTE      CMOD
      000000C8H.0 SFRSYM    DATA     BIT       CP_RL2
      000000D8H.6 SFRSYM    DATA     BIT       CR
      000000D0H.7 SFRSYM    DATA     BIT       CY
      000000C8H.1 SFRSYM    DATA     BIT       C_T2
      00000083H   SFRSYM    DATA     BYTE      DPH
      00000082H   SFRSYM    DATA     BYTE      DPL
      00000084H   SFRSYM    DATA     BYTE      DPXL
      000000A8H.7 SFRSYM    DATA     BIT       EA
      000000A8H.6 SFRSYM    DATA     BIT       EC
      00000090H.2 SFRSYM    DATA     BIT       ECI
      000000A8H.4 SFRSYM    DATA     BIT       ES
      000000A8H.1 SFRSYM    DATA     BIT       ET0
      000000A8H.3 SFRSYM    DATA     BIT       ET1
      000000A8H.5 SFRSYM    DATA     BIT       ET2
      000000A8H.0 SFRSYM    DATA     BIT       EX0
      000000A8H.2 SFRSYM    DATA     BIT       EX1
      000000C8H.3 SFRSYM    DATA     BIT       EXEN2
      000000C8H.6 SFRSYM    DATA     BIT       EXF2
      000000D0H.5 SFRSYM    DATA     BIT       F0
      00000098H.7 SFRSYM    DATA     BIT       FE
      000000A8H   SFRSYM    DATA     BYTE      IE0
      00000088H.1 SFRSYM    DATA     BIT       IE0_
      000000B1H   SFRSYM    DATA     BYTE      IE1
      00000088H.3 SFRSYM    DATA     BIT       IE1_
      000000B0H.2 SFRSYM    DATA     BIT       INT0
      000000B0H.3 SFRSYM    DATA     BIT       INT1
      000000B7H   SFRSYM    DATA     BYTE      IPH0
      000000B8H   SFRSYM    DATA     BYTE      IPL0
      00000088H.0 SFRSYM    DATA     BIT       IT0
      00000088H.2 SFRSYM    DATA     BIT       IT1
      000000D0H.2 SFRSYM    DATA     BIT       OV
      000000D0H.0 SFRSYM    DATA     BIT       P
      00000080H   SFRSYM    DATA     BYTE      P0
      00000090H   SFRSYM    DATA     BYTE      P1
      000000A0H   SFRSYM    DATA     BYTE      P2
      000000B0H   SFRSYM    DATA     BYTE      P3
      00000087H   SFRSYM    DATA     BYTE      PCON
      000000B8H.6 SFRSYM    DATA     BIT       PPC
      000000B8H.4 SFRSYM    DATA     BIT       PS
      000000D0H   SFRSYM    DATA     BYTE      PSW
      000000D1H   SFRSYM    DATA     BYTE      PSW1
      000000B8H.1 SFRSYM    DATA     BIT       PT0
      000000B8H.3 SFRSYM    DATA     BIT       PT1
      000000B8H.5 SFRSYM    DATA     BIT       PT2
      000000B8H.0 SFRSYM    DATA     BIT       PX0
      000000B8H.2 SFRSYM    DATA     BIT       PX1
      00000098H.2 SFRSYM    DATA     BIT       RB8
      000000CBH   SFRSYM    DATA     BYTE      RCAP2H
      000000CAH   SFRSYM    DATA     BYTE      RCAP2L
      000000C8H.5 SFRSYM    DATA     BIT       RCLK
      000000B0H.7 SFRSYM    DATA     BIT       RD
      00000098H.4 SFRSYM    DATA     BIT       REN
      00000098H.0 SFRSYM    DATA     BIT       RI
L251 LINKER/LOCATER V4.66.93.0                                                        03/25/2026  17:12:38  PAGE 36


      000000D0H.3 SFRSYM    DATA     BIT       RS0
      000000D0H.4 SFRSYM    DATA     BIT       RS1
      000000B0H.0 SFRSYM    DATA     BIT       RXD
      000000A9H   SFRSYM    DATA     BYTE      SADDR
      000000B9H   SFRSYM    DATA     BYTE      SADEN
      00000099H   SFRSYM    DATA     BYTE      SBUF
      00000098H   SFRSYM    DATA     BYTE      SCON
      00000098H.7 SFRSYM    DATA     BIT       SM0
      00000098H.6 SFRSYM    DATA     BIT       SM1
      00000098H.5 SFRSYM    DATA     BIT       SM2
      00000081H   SFRSYM    DATA     BYTE      SP
      000000BEH   SFRSYM    DATA     BYTE      SPH
      000000B0H.4 SFRSYM    DATA     BIT       T0
      000000B0H.5 SFRSYM    DATA     BIT       T1
      00000090H.0 SFRSYM    DATA     BIT       T2
      000000C8H   SFRSYM    DATA     BYTE      T2CON
      00000090H.1 SFRSYM    DATA     BIT       T2EX
      000000C9H   SFRSYM    DATA     BYTE      T2MOD
      00000098H.3 SFRSYM    DATA     BIT       TB8
      000000C8H.4 SFRSYM    DATA     BIT       TCLK
      00000088H   SFRSYM    DATA     BYTE      TCON
      00000088H.5 SFRSYM    DATA     BIT       TF0
      00000088H.7 SFRSYM    DATA     BIT       TF1
      000000C8H.7 SFRSYM    DATA     BIT       TF2
      0000008CH   SFRSYM    DATA     BYTE      TH0
      0000008DH   SFRSYM    DATA     BYTE      TH1
      000000CDH   SFRSYM    DATA     BYTE      TH2
      00000098H.1 SFRSYM    DATA     BIT       TI
      0000008AH   SFRSYM    DATA     BYTE      TL0
      0000008BH   SFRSYM    DATA     BYTE      TL1
      000000CCH   SFRSYM    DATA     BYTE      TL2
      00000089H   SFRSYM    DATA     BYTE      TMOD
      00000088H.4 SFRSYM    DATA     BIT       TR0
      00000088H.6 SFRSYM    DATA     BIT       TR1
      000000C8H.2 SFRSYM    DATA     BIT       TR2
      000000B0H.1 SFRSYM    DATA     BIT       TXD
      000000A6H   SFRSYM    DATA     BYTE      WDTRST
      000000B0H.6 SFRSYM    DATA     BIT       WR
      00000800H   SYMBOL    NUMBER   ---       EDATALEN
      00FF631BH   SYMBOL    CODE     ---       EDATALOOP
      00000001H   SYMBOL    NUMBER   ---       EDF
      00000001H   SYMBOL    NUMBER   ---       EMAP
      00000000H   SYMBOL    NUMBER   ---       HDATALEN
      00010000H   SYMBOL    NUMBER   ---       HDATASTART
      00000000H   SYMBOL    NUMBER   ---       IBPSTACK
      00000100H   SYMBOL    NUMBER   ---       IBPSTACKTOP
      00000001H   SYMBOL    NUMBER   ---       INTR
      00000001H   SYMBOL    NUMBER   ---       PAGM
      00000003H   SYMBOL    NUMBER   ---       RDRG
      00000001H   SYMBOL    NUMBER   ---       SRCM
      00000800H   SYMBOL    NUMBER   ---       STACKSIZE
      00FF6313H   SYMBOL    CODE     ---       STARTUP1
      00000003H   SYMBOL    NUMBER   ---       WSA
      00000003H   SYMBOL    NUMBER   ---       WSB
      00000001H   SYMBOL    NUMBER   ---       XALE
      00000000H   SYMBOL    NUMBER   ---       XBPSTACK
      00010000H   SYMBOL    NUMBER   ---       XBPSTACKTOP
      00008000H   SYMBOL    NUMBER   ---       XDATALEN
      00FF632AH   SYMBOL    CODE     ---       XDATALOOP
      00010000H   SYMBOL    NUMBER   ---       XDATASTART

      00FF0000H   BLOCK     CODE     NEAR LAB  LVL=0
      00FF0000H   LINE      CODE     ---       #183
      ---         BLOCKEND  ---      ---       LVL=0

L251 LINKER/LOCATER V4.66.93.0                                                        03/25/2026  17:12:38  PAGE 37


      00FF6313H   BLOCK     CODE     NEAR LAB  LVL=0
      00FF6313H   LINE      CODE     ---       #188
      00FF6316H   LINE      CODE     ---       #191
      00FF631AH   LINE      CODE     ---       #192
      00FF631BH   LINE      CODE     ---       #193
      00FF631EH   LINE      CODE     ---       #194
      00FF6320H   LINE      CODE     ---       #195
      00FF6322H   LINE      CODE     ---       #199
      00FF6325H   LINE      CODE     ---       #200
      00FF6329H   LINE      CODE     ---       #201
      00FF632AH   LINE      CODE     ---       #202
      00FF632BH   LINE      CODE     ---       #203
      00FF632CH   LINE      CODE     ---       #204
      00FF632EH   LINE      CODE     ---       #205
      00FF6330H   LINE      CODE     ---       #235
      ---         BLOCKEND  ---      ---       LVL=0

      00FF6365H   BLOCK     CODE     NEAR LAB  LVL=0
      00FF6365H   LINE      CODE     ---       #238
      ---         BLOCKEND  ---      ---       LVL=0

      ---         MODULE    ---      ---       stc32g_isr

      00FF019BH   BLOCK     CODE     NEAR LAB  LVL=0
      00FF019BH   LINE      CODE     ---       #3
      ---         BLOCKEND  ---      ---       LVL=0

      00FF01ABH   BLOCK     CODE     NEAR LAB  LVL=0
      00FF01ABH   LINE      CODE     ---       #6
      ---         BLOCKEND  ---      ---       LVL=0

      00FF01BBH   BLOCK     CODE     NEAR LAB  LVL=0
      00FF01BBH   LINE      CODE     ---       #9
      ---         BLOCKEND  ---      ---       LVL=0

      00FF01CBH   BLOCK     CODE     NEAR LAB  LVL=0
      00FF01CBH   LINE      CODE     ---       #12
      ---         BLOCKEND  ---      ---       LVL=0

      ---         MODULE    ---      ---       zf_common_clock
      00FF5FE1H   PUBLIC    CODE     ---       clock_init
      00FF4C02H   PUBLIC    CODE     ---       set_sys_clk
      00011C1EH   PUBLIC    XDATA    LONG      system_clock
      00000094H   SFRSYM    DATA     BYTE      P0M0
      000000D0H   SFRSYM    DATA     BYTE      PSW
      000000BAH.7 SFRSYM    DATA     BIT       EAXFR
      0000009DH   SFRSYM    DATA     BYTE      IRCBAND
      00000097H   SFRSYM    DATA     BYTE      AUXR2
      000000EAH   SFRSYM    DATA     BYTE      CKCON
      000000EFH   SFRSYM    DATA     BYTE      AUXINTIF
      000000FDH   SFRSYM    DATA     BYTE      S4CON
      000000ACH   SFRSYM    DATA     BYTE      S3CON
      0000009AH   SFRSYM    DATA     BYTE      S2CON
      000000A6H   SFRSYM    DATA     BYTE      VRTRIM
      000000B7H   SFRSYM    DATA     BYTE      IPH
      000000CDH   SFRSYM    DATA     BYTE      SPSTAT
      000000DDH   SFRSYM    DATA     BYTE      T4T3M
      0000009FH   SFRSYM    DATA     BYTE      IRTRIM
      000000C1H   SFRSYM    DATA     BYTE      WDT_CONTR
      000000E9H   SFRSYM    DATA     BYTE      WTST
      000000DFH   SFRSYM    DATA     BYTE      IP3
      000000F4H   SFRSYM    DATA     BYTE      USBCON
      000000B5H   SFRSYM    DATA     BYTE      IP2
      000000FFH   SFRSYM    DATA     BYTE      RSTCFG
      000000C7H   SFRSYM    DATA     BYTE      IAP_CONTR
L251 LINKER/LOCATER V4.66.93.0                                                        03/25/2026  17:12:38  PAGE 38


      000000F9H   SFRSYM    DATA     BYTE      LINICR
      0000008EH   SFRSYM    DATA     BYTE      AUXR
      000000AFH   SFRSYM    DATA     BYTE      IE2
      00000088H   SFRSYM    DATA     BYTE      TCON
      00000089H   SFRSYM    DATA     BYTE      TMOD
      00000098H   SFRSYM    DATA     BYTE      SCON
      000000F1H   SFRSYM    DATA     BYTE      CANICR
      00000087H   SFRSYM    DATA     BYTE      PCON
      000000BCH   SFRSYM    DATA     BYTE      ADC_CONTR
      000000E7H   SFRSYM    DATA     BYTE      CMPCR2
      000000E6H   SFRSYM    DATA     BYTE      CMPCR1
      000000DEH   SFRSYM    DATA     BYTE      ADCCFG
      000000B8H   SFRSYM    DATA     BYTE      IP
      0000008FH   SFRSYM    DATA     BYTE      INTCLKO
      000000EEH   SFRSYM    DATA     BYTE      IP3H
      000000B6H   SFRSYM    DATA     BYTE      IP2H
      000000A8H   SFRSYM    DATA     BYTE      IE
      000000BBH   SFRSYM    DATA     BYTE      P_SW3
      000000BAH   SFRSYM    DATA     BYTE      P_SW2
      000000A2H   SFRSYM    DATA     BYTE      P_SW1
      000000CEH   SFRSYM    DATA     BYTE      SPCTL
      000000F8H   SFRSYM    DATA     BYTE      P7
      000000E1H   SFRSYM    DATA     BYTE      P7M1
      000000E8H   SFRSYM    DATA     BYTE      P6
      000000C8H   SFRSYM    DATA     BYTE      P5
      000000CBH   SFRSYM    DATA     BYTE      P6M1
      000000E2H   SFRSYM    DATA     BYTE      P7M0
      000000C0H   SFRSYM    DATA     BYTE      P4
      000000C9H   SFRSYM    DATA     BYTE      P5M1
      000000CCH   SFRSYM    DATA     BYTE      P6M0
      000000B0H   SFRSYM    DATA     BYTE      P3
      000000B3H   SFRSYM    DATA     BYTE      P4M1
      000000CAH   SFRSYM    DATA     BYTE      P5M0
      000000A0H   SFRSYM    DATA     BYTE      P2
      000000B1H   SFRSYM    DATA     BYTE      P3M1
      000000B4H   SFRSYM    DATA     BYTE      P4M0
      00000090H   SFRSYM    DATA     BYTE      P1
      00000095H   SFRSYM    DATA     BYTE      P2M1
      000000B2H   SFRSYM    DATA     BYTE      P3M0
      00000080H   SFRSYM    DATA     BYTE      P0
      00000091H   SFRSYM    DATA     BYTE      P1M1
      00000096H   SFRSYM    DATA     BYTE      P2M0
      00000092H   SFRSYM    DATA     BYTE      P1M0
      00000093H   SFRSYM    DATA     BYTE      P0M1

      00FF4C02H   BLOCK     CODE     ---       LVL=0
      00011C22H   SYMBOL    XDATA    DWORD     sys_clk
      00FF4C02H   LINE      CODE     ---       #54
      00FF4C0CH   LINE      CODE     ---       #57
      00FF4C0FH   LINE      CODE     ---       #59
      00FF4C64H   LINE      CODE     ---       #61
      00FF4C64H   LINE      CODE     ---       #63
      00FF4C71H   LINE      CODE     ---       #64
      00FF4C7EH   LINE      CODE     ---       #65
      00FF4C8BH   LINE      CODE     ---       #66
      00FF4C8FH   LINE      CODE     ---       #67
      00FF4C9BH   LINE      CODE     ---       #68
      00FF4C9EH   LINE      CODE     ---       #70
      00FF4C9EH   LINE      CODE     ---       #72
      00FF4CABH   LINE      CODE     ---       #73
      00FF4CB8H   LINE      CODE     ---       #74
      00FF4CC5H   LINE      CODE     ---       #75
      00FF4CC9H   LINE      CODE     ---       #76
      00FF4CD5H   LINE      CODE     ---       #77
      00FF4CD8H   LINE      CODE     ---       #79
L251 LINKER/LOCATER V4.66.93.0                                                        03/25/2026  17:12:38  PAGE 39


      00FF4CD8H   LINE      CODE     ---       #81
      00FF4CE5H   LINE      CODE     ---       #82
      00FF4CF2H   LINE      CODE     ---       #83
      00FF4CFFH   LINE      CODE     ---       #84
      00FF4D03H   LINE      CODE     ---       #85
      00FF4D0FH   LINE      CODE     ---       #86
      00FF4D12H   LINE      CODE     ---       #88
      00FF4D12H   LINE      CODE     ---       #90
      00FF4D1FH   LINE      CODE     ---       #91
      00FF4D2CH   LINE      CODE     ---       #92
      00FF4D39H   LINE      CODE     ---       #93
      00FF4D3DH   LINE      CODE     ---       #94
      00FF4D49H   LINE      CODE     ---       #95
      00FF4D4CH   LINE      CODE     ---       #97
      00FF4D4CH   LINE      CODE     ---       #99
      00FF4D59H   LINE      CODE     ---       #100
      00FF4D66H   LINE      CODE     ---       #101
      00FF4D73H   LINE      CODE     ---       #102
      00FF4D77H   LINE      CODE     ---       #103
      00FF4D83H   LINE      CODE     ---       #104
      00FF4D86H   LINE      CODE     ---       #106
      00FF4D86H   LINE      CODE     ---       #108
      00FF4D93H   LINE      CODE     ---       #109
      00FF4DA0H   LINE      CODE     ---       #110
      00FF4DADH   LINE      CODE     ---       #111
      00FF4DB1H   LINE      CODE     ---       #112
      00FF4DBDH   LINE      CODE     ---       #113
      00FF4DBFH   LINE      CODE     ---       #115
      00FF4DBFH   LINE      CODE     ---       #116
      00FF4DD1H   LINE      CODE     ---       #118
      00FF4DDEH   LINE      CODE     ---       #119
      00FF4DEBH   LINE      CODE     ---       #120
      00FF4DF8H   LINE      CODE     ---       #121
      00FF4DFCH   LINE      CODE     ---       #122
      00FF4E08H   LINE      CODE     ---       #123
      00FF4E08H   LINE      CODE     ---       #124
      00FF4E08H   LINE      CODE     ---       #126
      00FF4E12H   LINE      CODE     ---       #127
      ---         BLOCKEND  ---      ---       LVL=0

      00FF5FE1H   BLOCK     CODE     ---       LVL=0
      00011C26H   SYMBOL    XDATA    DWORD     clock
      00FF5FE1H   LINE      CODE     ---       #132
      00FF5FEBH   LINE      CODE     ---       #134
      00FF5FEFH   LINE      CODE     ---       #135
      00FF5FF3H   LINE      CODE     ---       #136
      00FF5FF6H   LINE      CODE     ---       #137
      00FF5FF9H   LINE      CODE     ---       #147
      00FF6010H   LINE      CODE     ---       #153
      00FF6013H   LINE      CODE     ---       #156
      00FF6016H   LINE      CODE     ---       #157
      00FF6019H   LINE      CODE     ---       #158
      00FF601CH   LINE      CODE     ---       #159
      00FF601FH   LINE      CODE     ---       #160
      00FF6022H   LINE      CODE     ---       #161
      00FF6025H   LINE      CODE     ---       #162
      00FF6028H   LINE      CODE     ---       #163
      00FF602BH   LINE      CODE     ---       #164
      00FF602EH   LINE      CODE     ---       #165
      00FF6031H   LINE      CODE     ---       #166
      00FF6034H   LINE      CODE     ---       #167
      00FF6037H   LINE      CODE     ---       #168
      00FF603AH   LINE      CODE     ---       #169
      00FF603DH   LINE      CODE     ---       #170
      00FF6040H   LINE      CODE     ---       #171
L251 LINKER/LOCATER V4.66.93.0                                                        03/25/2026  17:12:38  PAGE 40


      00FF6043H   LINE      CODE     ---       #173
      00FF6046H   LINE      CODE     ---       #174
      00FF6049H   LINE      CODE     ---       #175
      00FF604CH   LINE      CODE     ---       #176
      00FF604FH   LINE      CODE     ---       #177
      00FF6052H   LINE      CODE     ---       #178
      00FF6055H   LINE      CODE     ---       #179
      00FF6058H   LINE      CODE     ---       #180
      00FF605BH   LINE      CODE     ---       #181
      00FF605EH   LINE      CODE     ---       #183
      00FF6061H   LINE      CODE     ---       #184
      ---         BLOCKEND  ---      ---       LVL=0

      ---         MODULE    ---      ---       zf_common_debug
      00FF6687H   PUBLIC    CODE     ---       debug_interrupr_handler
      00FF5BA7H   PUBLIC    CODE     ---       debug_init
      00FF6164H   PUBLIC    CODE     ---       debug_assert_handler
      00FF0026H   PUBLIC    CODE     ---       putchar
      00010A81H   PUBLIC    XDATA    ---       debug_uart_buffer
      00010AC2H   PUBLIC    XDATA    ---       debug_uart_fifo
      000000D0H   SFRSYM    DATA     BYTE      PSW
      0000009DH   SFRSYM    DATA     BYTE      IRCBAND
      00000097H   SFRSYM    DATA     BYTE      AUXR2
      000000EFH   SFRSYM    DATA     BYTE      AUXINTIF
      000000FDH   SFRSYM    DATA     BYTE      S4CON
      000000ACH   SFRSYM    DATA     BYTE      S3CON
      0000009AH   SFRSYM    DATA     BYTE      S2CON
      000000B7H   SFRSYM    DATA     BYTE      IPH
      000000CDH   SFRSYM    DATA     BYTE      SPSTAT
      000000DDH   SFRSYM    DATA     BYTE      T4T3M
      000000C1H   SFRSYM    DATA     BYTE      WDT_CONTR
      000000DFH   SFRSYM    DATA     BYTE      IP3
      000000F4H   SFRSYM    DATA     BYTE      USBCON
      000000B5H   SFRSYM    DATA     BYTE      IP2
      000000FFH   SFRSYM    DATA     BYTE      RSTCFG
      000000C7H   SFRSYM    DATA     BYTE      IAP_CONTR
      000000F9H   SFRSYM    DATA     BYTE      LINICR
      0000008EH   SFRSYM    DATA     BYTE      AUXR
      000000AFH   SFRSYM    DATA     BYTE      IE2
      00000088H   SFRSYM    DATA     BYTE      TCON
      00000089H   SFRSYM    DATA     BYTE      TMOD
      00000098H   SFRSYM    DATA     BYTE      SCON
      000000F1H   SFRSYM    DATA     BYTE      CANICR
      00000087H   SFRSYM    DATA     BYTE      PCON
      000000BCH   SFRSYM    DATA     BYTE      ADC_CONTR
      000000E7H   SFRSYM    DATA     BYTE      CMPCR2
      000000E6H   SFRSYM    DATA     BYTE      CMPCR1
      000000DEH   SFRSYM    DATA     BYTE      ADCCFG
      000000B8H   SFRSYM    DATA     BYTE      IP
      0000008FH   SFRSYM    DATA     BYTE      INTCLKO
      000000EEH   SFRSYM    DATA     BYTE      IP3H
      000000B6H   SFRSYM    DATA     BYTE      IP2H
      000000A8H   SFRSYM    DATA     BYTE      IE
      000000BBH   SFRSYM    DATA     BYTE      P_SW3
      000000BAH   SFRSYM    DATA     BYTE      P_SW2
      000000A2H   SFRSYM    DATA     BYTE      P_SW1
      000000CEH   SFRSYM    DATA     BYTE      SPCTL
      000000F8H   SFRSYM    DATA     BYTE      P7
      000000E8H   SFRSYM    DATA     BYTE      P6
      000000C8H   SFRSYM    DATA     BYTE      P5
      000000C0H   SFRSYM    DATA     BYTE      P4
      000000B0H   SFRSYM    DATA     BYTE      P3
      000000A0H   SFRSYM    DATA     BYTE      P2
      00000090H   SFRSYM    DATA     BYTE      P1
      00000080H   SFRSYM    DATA     BYTE      P0
L251 LINKER/LOCATER V4.66.93.0                                                        03/25/2026  17:12:38  PAGE 41


      00FF76F1H   SYMBOL    HCONST   ---       ?tpl?0001
      00010AC1H   SYMBOL    XDATA    BYTE      zf_debug_assert_enable
      00010AD9H   SYMBOL    XDATA    BYTE      zf_debug_init_flag
      000119C6H   SYMBOL    XDATA    ---       buff
      000119CAH   SYMBOL    XDATA    DWORD     len
      000119CEH   SYMBOL    XDATA    ---       buff
      000119D2H   SYMBOL    XDATA    DWORD     len

      00FF6687H   BLOCK     CODE     ---       LVL=0
      00011D22H   SYMBOL    XDATA    BYTE      dat
      00FF6687H   LINE      CODE     ---       #281
      00FF668BH   LINE      CODE     ---       #283
      00FF6694H   LINE      CODE     ---       #285
      00FF66A1H   LINE      CODE     ---       #286
      00FF66C2H   LINE      CODE     ---       #287
      ---         BLOCKEND  ---      ---       LVL=0

      00FF0026H   BLOCK     CODE     ---       LVL=0
      00011D23H   SYMBOL    XDATA    CHAR      c
      00FF0026H   LINE      CODE     ---       #303
      00FF002AH   LINE      CODE     ---       #305
      00FF0033H   LINE      CODE     ---       #307
      00FF0037H   LINE      CODE     ---       #308
      ---         BLOCKEND  ---      ---       LVL=0

      00FF6164H   BLOCK     CODE     ---       LVL=0
      00011240H   SYMBOL    XDATA    BYTE      pass
      00011241H   SYMBOL    XDATA    ---       file
      00011245H   SYMBOL    XDATA    INT       line
      00FF6178H   BLOCK     CODE     NEAR LAB  LVL=1
      00011247H   SYMBOL    XDATA    ---       log_str
      ---         BLOCKEND  ---      ---       LVL=1
      00FF6164H   LINE      CODE     ---       #346
      00FF6178H   LINE      CODE     ---       #347
      00FF6178H   LINE      CODE     ---       #348
      00FF618DH   LINE      CODE     ---       #350
      00FF618FH   LINE      CODE     ---       #366
      00FF61CCH   LINE      CODE     ---       #369
      00FF61D3H   LINE      CODE     ---       #370
      00FF61DCH   LINE      CODE     ---       #371
      ---         BLOCKEND  ---      ---       LVL=0

      00FF5BA7H   BLOCK     CODE     ---       LVL=0
      00011D24H   SYMBOL    XDATA    BYTE      uartx
      00FF5BA7H   LINE      CODE     ---       #453
      00FF5BA7H   LINE      CODE     ---       #454
      00FF5BA7H   LINE      CODE     ---       #455
      00FF5BACH   LINE      CODE     ---       #461
      00FF5BC7H   LINE      CODE     ---       #468
      00FF5BF4H   LINE      CODE     ---       #469
      00FF5BFBH   LINE      CODE     ---       #472
      00FF5C04H   LINE      CODE     ---       #474
      00FF5C0EH   LINE      CODE     ---       #475
      00FF5C10H   LINE      CODE     ---       #476
      00FF5C19H   LINE      CODE     ---       #478
      00FF5C23H   LINE      CODE     ---       #479
      00FF5C25H   LINE      CODE     ---       #480
      00FF5C2EH   LINE      CODE     ---       #482
      00FF5C38H   LINE      CODE     ---       #483
      00FF5C3AH   LINE      CODE     ---       #484
      00FF5C43H   LINE      CODE     ---       #486
      00FF5C4DH   LINE      CODE     ---       #487
      ---         BLOCKEND  ---      ---       LVL=0

      ---         MODULE    ---      ---       zf_common_fifo
L251 LINKER/LOCATER V4.66.93.0                                                        03/25/2026  17:12:38  PAGE 42


      00FF3661H   PUBLIC    CODE     ---       fifo_write_buffer
      00FF56D5H   PUBLIC    CODE     ---       fifo_init
      00011353H   PUBLIC    XDATA    BYTE      ?fifo_write_buffer?BYTE
      000111CEH   PUBLIC    XDATA    BYTE      ?fifo_read_buffer?BYTE
      000114FEH   PUBLIC    XDATA    BYTE      ?fifo_init?BYTE
      000000D0H   SFRSYM    DATA     BYTE      PSW
      0000009DH   SFRSYM    DATA     BYTE      IRCBAND
      00000097H   SFRSYM    DATA     BYTE      AUXR2
      000000EFH   SFRSYM    DATA     BYTE      AUXINTIF
      000000FDH   SFRSYM    DATA     BYTE      S4CON
      000000ACH   SFRSYM    DATA     BYTE      S3CON
      0000009AH   SFRSYM    DATA     BYTE      S2CON
      000000B7H   SFRSYM    DATA     BYTE      IPH
      000000CDH   SFRSYM    DATA     BYTE      SPSTAT
      000000DDH   SFRSYM    DATA     BYTE      T4T3M
      000000C1H   SFRSYM    DATA     BYTE      WDT_CONTR
      000000DFH   SFRSYM    DATA     BYTE      IP3
      000000F4H   SFRSYM    DATA     BYTE      USBCON
      000000B5H   SFRSYM    DATA     BYTE      IP2
      000000FFH   SFRSYM    DATA     BYTE      RSTCFG
      000000C7H   SFRSYM    DATA     BYTE      IAP_CONTR
      000000F9H   SFRSYM    DATA     BYTE      LINICR
      0000008EH   SFRSYM    DATA     BYTE      AUXR
      000000AFH   SFRSYM    DATA     BYTE      IE2
      00000088H   SFRSYM    DATA     BYTE      TCON
      00000089H   SFRSYM    DATA     BYTE      TMOD
      00000098H   SFRSYM    DATA     BYTE      SCON
      000000F1H   SFRSYM    DATA     BYTE      CANICR
      00000087H   SFRSYM    DATA     BYTE      PCON
      000000BCH   SFRSYM    DATA     BYTE      ADC_CONTR
      000000E7H   SFRSYM    DATA     BYTE      CMPCR2
      000000E6H   SFRSYM    DATA     BYTE      CMPCR1
      000000DEH   SFRSYM    DATA     BYTE      ADCCFG
      000000B8H   SFRSYM    DATA     BYTE      IP
      0000008FH   SFRSYM    DATA     BYTE      INTCLKO
      000000EEH   SFRSYM    DATA     BYTE      IP3H
      000000B6H   SFRSYM    DATA     BYTE      IP2H
      000000A8H   SFRSYM    DATA     BYTE      IE
      000000BBH   SFRSYM    DATA     BYTE      P_SW3
      000000BAH   SFRSYM    DATA     BYTE      P_SW2
      000000A2H   SFRSYM    DATA     BYTE      P_SW1
      000000CEH   SFRSYM    DATA     BYTE      SPCTL
      000000F8H   SFRSYM    DATA     BYTE      P7
      000000E8H   SFRSYM    DATA     BYTE      P6
      000000C8H   SFRSYM    DATA     BYTE      P5
      000000C0H   SFRSYM    DATA     BYTE      P4
      000000B0H   SFRSYM    DATA     BYTE      P3
      000000A0H   SFRSYM    DATA     BYTE      P2
      00000090H   SFRSYM    DATA     BYTE      P1
      00000080H   SFRSYM    DATA     BYTE      P0
      00FF5CF5H   SYMBOL    CODE     ---       fifo_head_offset

      00FF5CF5H   BLOCK     CODE     ---       LVL=0
      000119D6H   SYMBOL    XDATA    ---       fifo
      000119DAH   SYMBOL    XDATA    DWORD     offset
      00FF5CF5H   LINE      CODE     ---       #51
      00FF5D09H   LINE      CODE     ---       #53
      00FF5D31H   LINE      CODE     ---       #55
      00FF5D33H   LINE      CODE     ---       #57
      00FF5D66H   LINE      CODE     ---       #58
      00FF5D94H   LINE      CODE     ---       #59
      ---         BLOCKEND  ---      ---       LVL=0
      000119DEH   SYMBOL    XDATA    ---       fifo
      000119E2H   SYMBOL    XDATA    DWORD     offset
      00011AE8H   SYMBOL    XDATA    ---       fifo
L251 LINKER/LOCATER V4.66.93.0                                                        03/25/2026  17:12:38  PAGE 43


      00011AECH   SYMBOL    XDATA    INT       return_state
      00011C2AH   SYMBOL    XDATA    ---       fifo

      00FF3661H   BLOCK     CODE     ---       LVL=0
      00011353H   SYMBOL    XDATA    ---       fifo
      00011357H   SYMBOL    XDATA    ---       dat
      0001135BH   SYMBOL    XDATA    DWORD     length
      00FF3675H   BLOCK     CODE     NEAR LAB  LVL=1
      0001135FH   SYMBOL    XDATA    INT       return_state
      00011361H   SYMBOL    XDATA    DWORD     temp_length
      ---         BLOCKEND  ---      ---       LVL=1
      00FF3661H   LINE      CODE     ---       #178
      00FF3675H   LINE      CODE     ---       #179
      00FF3675H   LINE      CODE     ---       #180
      00FF367DH   LINE      CODE     ---       #181
      00FF3689H   LINE      CODE     ---       #182
      00FF36ABH   LINE      CODE     ---       #184
      00FF36ABH   LINE      CODE     ---       #186
      00FF36B9H   LINE      CODE     ---       #188
      00FF36C3H   LINE      CODE     ---       #189
      00FF36C6H   LINE      CODE     ---       #190
      00FF36C6H   LINE      CODE     ---       #191
      00FF36E1H   LINE      CODE     ---       #193
      00FF36EBH   LINE      CODE     ---       #194
      00FF36EEH   LINE      CODE     ---       #195
      00FF36EEH   LINE      CODE     ---       #196
      00FF3702H   LINE      CODE     ---       #198
      00FF3728H   LINE      CODE     ---       #200
      00FF375EH   LINE      CODE     ---       #202
      00FF3779H   LINE      CODE     ---       #204
      00FF379DH   LINE      CODE     ---       #206
      00FF379DH   LINE      CODE     ---       #208
      00FF37E4H   LINE      CODE     ---       #211
      00FF37FBH   LINE      CODE     ---       #212
      00FF3860H   LINE      CODE     ---       #216
      00FF3883H   LINE      CODE     ---       #217
      00FF3886H   LINE      CODE     ---       #218
      00FF3886H   LINE      CODE     ---       #220
      00FF38D1H   LINE      CODE     ---       #223
      00FF38E8H   LINE      CODE     ---       #224
      00FF394FH   LINE      CODE     ---       #228
      00FF3972H   LINE      CODE     ---       #229
      00FF3975H   LINE      CODE     ---       #230
      00FF3975H   LINE      CODE     ---       #232
      00FF39C4H   LINE      CODE     ---       #235
      00FF39DBH   LINE      CODE     ---       #236
      00FF3A48H   LINE      CODE     ---       #240
      00FF3A6BH   LINE      CODE     ---       #241
      00FF3A6BH   LINE      CODE     ---       #242
      00FF3A6BH   LINE      CODE     ---       #243
      00FF3A6EH   LINE      CODE     ---       #246
      00FF3A8FH   LINE      CODE     ---       #248
      00FF3A8FH   LINE      CODE     ---       #250
      00FF3AD6H   LINE      CODE     ---       #253
      00FF3AEDH   LINE      CODE     ---       #254
      00FF3AF0H   LINE      CODE     ---       #255
      00FF3AF0H   LINE      CODE     ---       #257
      00FF3B3BH   LINE      CODE     ---       #260
      00FF3B52H   LINE      CODE     ---       #261
      00FF3B54H   LINE      CODE     ---       #262
      00FF3B54H   LINE      CODE     ---       #264
      00FF3BA3H   LINE      CODE     ---       #267
      00FF3BBAH   LINE      CODE     ---       #268
      00FF3BBAH   LINE      CODE     ---       #269
      00FF3BBAH   LINE      CODE     ---       #270
L251 LINKER/LOCATER V4.66.93.0                                                        03/25/2026  17:12:38  PAGE 44


      00FF3BBAH   LINE      CODE     ---       #272
      00FF3BE2H   LINE      CODE     ---       #273
      00FF3BE4H   LINE      CODE     ---       #276
      00FF3BEEH   LINE      CODE     ---       #277
      00FF3BEEH   LINE      CODE     ---       #278
      00FF3C02H   LINE      CODE     ---       #279
      00FF3C02H   LINE      CODE     ---       #281
      00FF3C08H   LINE      CODE     ---       #282
      ---         BLOCKEND  ---      ---       LVL=0
      000111CEH   SYMBOL    XDATA    ---       fifo
      000111D2H   SYMBOL    XDATA    ---       dat
      000111D6H   SYMBOL    XDATA    ---       length
      000111DAH   SYMBOL    XDATA    INT       flag
      000111DCH   SYMBOL    XDATA    INT       return_state
      000111DEH   SYMBOL    XDATA    DWORD     temp_length
      000111E2H   SYMBOL    XDATA    DWORD     fifo_data_length

      00FF56D5H   BLOCK     CODE     ---       LVL=0
      000114FEH   SYMBOL    XDATA    ---       fifo
      00011502H   SYMBOL    XDATA    INT       type
      00011504H   SYMBOL    XDATA    ---       buffer_addr
      00011508H   SYMBOL    XDATA    DWORD     siz
      00FF56D5H   LINE      CODE     ---       #549
      00FF56E5H   LINE      CODE     ---       #551
      00FF5707H   LINE      CODE     ---       #552
      00FF5707H   LINE      CODE     ---       #554
      00FF5726H   LINE      CODE     ---       #555
      00FF5734H   LINE      CODE     ---       #556
      00FF5749H   LINE      CODE     ---       #557
      00FF5760H   LINE      CODE     ---       #558
      00FF5777H   LINE      CODE     ---       #559
      00FF5796H   LINE      CODE     ---       #560
      00FF57B5H   LINE      CODE     ---       #561
      00FF57B5H   LINE      CODE     ---       #562
      00FF57B7H   LINE      CODE     ---       #563
      ---         BLOCKEND  ---      ---       LVL=0

      ---         MODULE    ---      ---       zf_common_font
      00FF3071H   PUBLIC    CODE     ---       ascii_font_8x16
      000000D0H   SFRSYM    DATA     BYTE      PSW
      0000009DH   SFRSYM    DATA     BYTE      IRCBAND
      00000097H   SFRSYM    DATA     BYTE      AUXR2
      000000EFH   SFRSYM    DATA     BYTE      AUXINTIF
      000000FDH   SFRSYM    DATA     BYTE      S4CON
      000000ACH   SFRSYM    DATA     BYTE      S3CON
      0000009AH   SFRSYM    DATA     BYTE      S2CON
      000000B7H   SFRSYM    DATA     BYTE      IPH
      000000CDH   SFRSYM    DATA     BYTE      SPSTAT
      000000DDH   SFRSYM    DATA     BYTE      T4T3M
      000000C1H   SFRSYM    DATA     BYTE      WDT_CONTR
      000000DFH   SFRSYM    DATA     BYTE      IP3
      000000F4H   SFRSYM    DATA     BYTE      USBCON
      000000B5H   SFRSYM    DATA     BYTE      IP2
      000000FFH   SFRSYM    DATA     BYTE      RSTCFG
      000000C7H   SFRSYM    DATA     BYTE      IAP_CONTR
      000000F9H   SFRSYM    DATA     BYTE      LINICR
      0000008EH   SFRSYM    DATA     BYTE      AUXR
      000000AFH   SFRSYM    DATA     BYTE      IE2
      00000088H   SFRSYM    DATA     BYTE      TCON
      00000089H   SFRSYM    DATA     BYTE      TMOD
      00000098H   SFRSYM    DATA     BYTE      SCON
      000000F1H   SFRSYM    DATA     BYTE      CANICR
      00000087H   SFRSYM    DATA     BYTE      PCON
      000000BCH   SFRSYM    DATA     BYTE      ADC_CONTR
      000000E7H   SFRSYM    DATA     BYTE      CMPCR2
L251 LINKER/LOCATER V4.66.93.0                                                        03/25/2026  17:12:38  PAGE 45


      000000E6H   SFRSYM    DATA     BYTE      CMPCR1
      000000DEH   SFRSYM    DATA     BYTE      ADCCFG
      000000B8H   SFRSYM    DATA     BYTE      IP
      0000008FH   SFRSYM    DATA     BYTE      INTCLKO
      000000EEH   SFRSYM    DATA     BYTE      IP3H
      000000B6H   SFRSYM    DATA     BYTE      IP2H
      000000A8H   SFRSYM    DATA     BYTE      IE
      000000BBH   SFRSYM    DATA     BYTE      P_SW3
      000000BAH   SFRSYM    DATA     BYTE      P_SW2
      000000A2H   SFRSYM    DATA     BYTE      P_SW1
      000000CEH   SFRSYM    DATA     BYTE      SPCTL
      000000F8H   SFRSYM    DATA     BYTE      P7
      000000E8H   SFRSYM    DATA     BYTE      P6
      000000C8H   SFRSYM    DATA     BYTE      P5
      000000C0H   SFRSYM    DATA     BYTE      P4
      000000B0H   SFRSYM    DATA     BYTE      P3
      000000A0H   SFRSYM    DATA     BYTE      P2
      00000090H   SFRSYM    DATA     BYTE      P1
      00000080H   SFRSYM    DATA     BYTE      P0

      ---         MODULE    ---      ---       zf_common_function
      00010B88H   PUBLIC    XDATA    BYTE      ?vsnprintf?BYTE
      00010A4AH   PUBLIC    XDATA    BYTE      ?zf_sprintf?BYTE
      000000D0H   SFRSYM    DATA     BYTE      PSW
      0000009DH   SFRSYM    DATA     BYTE      IRCBAND
      00000097H   SFRSYM    DATA     BYTE      AUXR2
      000000EFH   SFRSYM    DATA     BYTE      AUXINTIF
      000000FDH   SFRSYM    DATA     BYTE      S4CON
      000000ACH   SFRSYM    DATA     BYTE      S3CON
      0000009AH   SFRSYM    DATA     BYTE      S2CON
      000000B7H   SFRSYM    DATA     BYTE      IPH
      000000CDH   SFRSYM    DATA     BYTE      SPSTAT
      000000DDH   SFRSYM    DATA     BYTE      T4T3M
      000000C1H   SFRSYM    DATA     BYTE      WDT_CONTR
      000000DFH   SFRSYM    DATA     BYTE      IP3
      000000F4H   SFRSYM    DATA     BYTE      USBCON
      000000B5H   SFRSYM    DATA     BYTE      IP2
      000000FFH   SFRSYM    DATA     BYTE      RSTCFG
      000000C7H   SFRSYM    DATA     BYTE      IAP_CONTR
      000000F9H   SFRSYM    DATA     BYTE      LINICR
      0000008EH   SFRSYM    DATA     BYTE      AUXR
      000000AFH   SFRSYM    DATA     BYTE      IE2
      00000088H   SFRSYM    DATA     BYTE      TCON
      00000089H   SFRSYM    DATA     BYTE      TMOD
      00000098H   SFRSYM    DATA     BYTE      SCON
      000000F1H   SFRSYM    DATA     BYTE      CANICR
      00000087H   SFRSYM    DATA     BYTE      PCON
      000000BCH   SFRSYM    DATA     BYTE      ADC_CONTR
      000000E7H   SFRSYM    DATA     BYTE      CMPCR2
      000000E6H   SFRSYM    DATA     BYTE      CMPCR1
      000000DEH   SFRSYM    DATA     BYTE      ADCCFG
      000000B8H   SFRSYM    DATA     BYTE      IP
      0000008FH   SFRSYM    DATA     BYTE      INTCLKO
      000000EEH   SFRSYM    DATA     BYTE      IP3H
      000000B6H   SFRSYM    DATA     BYTE      IP2H
      000000A8H   SFRSYM    DATA     BYTE      IE
      000000BBH   SFRSYM    DATA     BYTE      P_SW3
      000000BAH   SFRSYM    DATA     BYTE      P_SW2
      000000A2H   SFRSYM    DATA     BYTE      P_SW1
      000000CEH   SFRSYM    DATA     BYTE      SPCTL
      000000F8H   SFRSYM    DATA     BYTE      P7
      000000E8H   SFRSYM    DATA     BYTE      P6
      000000C8H   SFRSYM    DATA     BYTE      P5
      000000C0H   SFRSYM    DATA     BYTE      P4
      000000B0H   SFRSYM    DATA     BYTE      P3
L251 LINKER/LOCATER V4.66.93.0                                                        03/25/2026  17:12:38  PAGE 46


      000000A0H   SFRSYM    DATA     BYTE      P2
      00000090H   SFRSYM    DATA     BYTE      P1
      00000080H   SFRSYM    DATA     BYTE      P0
      00FF7487H   SYMBOL    HCONST   ---       ?tpl?0001
      00FF7497H   SYMBOL    HCONST   ---       ?tpl?0002
      000119E6H   SYMBOL    XDATA    DWORD     num1
      000119EAH   SYMBOL    XDATA    DWORD     num2
      00011C2EH   SYMBOL    XDATA    LONG      t
      000118CAH   SYMBOL    XDATA    ---       str
      000118CEH   SYMBOL    XDATA    BYTE      sign
      000118CFH   SYMBOL    XDATA    LONG      temp
      000110FBH   SYMBOL    XDATA    ---       str
      000110FFH   SYMBOL    XDATA    LONG      number
      00011103H   SYMBOL    XDATA    ---       data_temp
      00011113H   SYMBOL    XDATA    BYTE      temp_bit
      00011114H   SYMBOL    XDATA    LONG      number_temp
      000119EEH   SYMBOL    XDATA    ---       str
      000119F2H   SYMBOL    XDATA    DWORD     temp
      00011183H   SYMBOL    XDATA    ---       str
      00011187H   SYMBOL    XDATA    DWORD     number
      0001118BH   SYMBOL    XDATA    ---       data_temp
      0001119BH   SYMBOL    XDATA    BYTE      temp_bit
      0001139BH   SYMBOL    XDATA    ---       str
      0001139FH   SYMBOL    XDATA    BYTE      sign
      000113A0H   SYMBOL    XDATA    FLOAT     temp
      000113A4H   SYMBOL    XDATA    FLOAT     temp_point
      000113A8H   SYMBOL    XDATA    FLOAT     point_bit
      00010F17H   SYMBOL    XDATA    ---       str
      00010F1BH   SYMBOL    XDATA    FLOAT     number
      00010F1FH   SYMBOL    XDATA    BYTE      point_bit
      00010F20H   SYMBOL    XDATA    INT       data_int
      00010F22H   SYMBOL    XDATA    INT       data_float
      00010F24H   SYMBOL    XDATA    ---       data_temp
      00010F34H   SYMBOL    XDATA    ---       data_temp_point
      00010F40H   SYMBOL    XDATA    BYTE      temp_bit
      000113ACH   SYMBOL    XDATA    ---       str
      000113B0H   SYMBOL    XDATA    BYTE      sign
      000113B1H   SYMBOL    XDATA    FLOAT     temp
      000113B5H   SYMBOL    XDATA    FLOAT     temp_point
      000113B9H   SYMBOL    XDATA    FLOAT     point_bit
      00010D41H   SYMBOL    XDATA    ---       str
      00010D45H   SYMBOL    XDATA    FLOAT     number
      00010D49H   SYMBOL    XDATA    BYTE      point_bit
      00010D4AH   SYMBOL    XDATA    INT       data_int
      00010D4CH   SYMBOL    XDATA    INT       data_float
      00010D4EH   SYMBOL    XDATA    ---       data_temp
      00010D66H   SYMBOL    XDATA    ---       data_temp_point
      00010D78H   SYMBOL    XDATA    BYTE      temp_bit
      0001150CH   SYMBOL    XDATA    ---       str
      00011510H   SYMBOL    XDATA    DWORD     str_len
      00011514H   SYMBOL    XDATA    DWORD     result_data
      00011518H   SYMBOL    XDATA    BYTE      temp
      00011519H   SYMBOL    XDATA    BYTE      flag
      00010FBBH   SYMBOL    XDATA    ---       str
      00010FBFH   SYMBOL    XDATA    DWORD     number
      00010FC3H   SYMBOL    XDATA    ---       hex_index
      00010FD3H   SYMBOL    XDATA    ---       data_temp
      00010FDFH   SYMBOL    XDATA    BYTE      temp_bit
      00011254H   SYMBOL    XDATA    DWORD     dat
      00011258H   SYMBOL    XDATA    ---       p
      0001125CH   SYMBOL    XDATA    BYTE      neg_type
      0001125DH   SYMBOL    XDATA    BYTE      radix
      0001125EH   SYMBOL    XDATA    LONG      neg_dat
      00011262H   SYMBOL    XDATA    DWORD     pos_dat
      00011266H   SYMBOL    XDATA    BYTE      temp_data
L251 LINKER/LOCATER V4.66.93.0                                                        03/25/2026  17:12:38  PAGE 47


      00011267H   SYMBOL    XDATA    BYTE      valid_num
      000115D0H   SYMBOL    XDATA    ---       d_buff
      000115D4H   SYMBOL    XDATA    DWORD     len
      000115D8H   SYMBOL    XDATA    DWORD     i
      000115DCH   SYMBOL    XDATA    CHAR      temp_data
      00010B88H   SYMBOL    XDATA    ---       buffer
      00010B8CH   SYMBOL    XDATA    DWORD     siz
      00010B90H   SYMBOL    XDATA    ---       format
      00010B94H   SYMBOL    XDATA    ---       args
      00010B98H   SYMBOL    XDATA    DWORD     i
      00010B9CH   SYMBOL    XDATA    ---       ptr
      00010BA0H   SYMBOL    XDATA    INT       j
      00010BA2H   SYMBOL    XDATA    INT       num
      00010BA4H   SYMBOL    XDATA    ---       temp
      00010BB4H   SYMBOL    XDATA    INT       len
      00010BB6H   SYMBOL    XDATA    INT       is_negative
      00010BB8H   SYMBOL    XDATA    ---       str
      00010BBCH   SYMBOL    XDATA    DWORD     num_x
      00010BC0H   SYMBOL    XDATA    ---       temp_x
      00010BC9H   SYMBOL    XDATA    ---       hex_digits
      00010BDAH   SYMBOL    XDATA    CHAR      t
      00010BDAH   SYMBOL    XDATA    CHAR      t
      00010A4AH   SYMBOL    XDATA    ---       buff
      00010A4EH   SYMBOL    XDATA    ---       format
      00010A52H   SYMBOL    XDATA    DWORD     buff_len
      00010A56H   SYMBOL    XDATA    ---       arg
      00010A5AH   SYMBOL    XDATA    CHAR      ret
      00010A5BH   SYMBOL    XDATA    CHAR      ch
      00010A5BH   SYMBOL    XDATA    ---       vstr
      00010A7CH   SYMBOL    XDATA    LONG      ival
      00010A80H   SYMBOL    XDATA    BYTE      vlen
      00010A5BH   SYMBOL    XDATA    ---       vstr
      00010A7CH   SYMBOL    XDATA    FLOAT     ival
      00010A80H   SYMBOL    XDATA    BYTE      vlen
      00010A5BH   SYMBOL    XDATA    ---       vstr
      00010A7CH   SYMBOL    XDATA    DWORD     ival
      00010A80H   SYMBOL    XDATA    BYTE      vlen
      00010A5BH   SYMBOL    XDATA    ---       vstr
      00010A7CH   SYMBOL    XDATA    DWORD     ival
      00010A80H   SYMBOL    XDATA    BYTE      vlen
      00010A5BH   SYMBOL    XDATA    ---       vstr
      00010A7CH   SYMBOL    XDATA    DWORD     ival
      00010A80H   SYMBOL    XDATA    BYTE      vlen
      00010A5BH   SYMBOL    XDATA    ---       pc
      00010A5BH   SYMBOL    XDATA    ---       vstr
      00010A7CH   SYMBOL    XDATA    DWORD     ival

      ---         MODULE    ---      ---       zf_common_typedef
      000110BFH   PUBLIC    XDATA    ---       tim11_irq_handler
      000110C1H   PUBLIC    XDATA    ---       uart1_irq_handler
      000110C3H   PUBLIC    XDATA    ---       uart2_irq_handler
      000110C5H   PUBLIC    XDATA    ---       uart3_irq_handler
      000110C7H   PUBLIC    XDATA    ---       uart4_irq_handler
      000110C9H   PUBLIC    XDATA    ---       tim0_irq_handler
      000110CBH   PUBLIC    XDATA    ---       int0_irq_handler
      000110CDH   PUBLIC    XDATA    ---       tim1_irq_handler
      000110CFH   PUBLIC    XDATA    ---       int1_irq_handler
      000110D1H   PUBLIC    XDATA    ---       tim2_irq_handler
      000110D3H   PUBLIC    XDATA    ---       int2_irq_handler
      000110D5H   PUBLIC    XDATA    ---       tim3_irq_handler
      000110D7H   PUBLIC    XDATA    ---       int3_irq_handler
      000110D9H   PUBLIC    XDATA    ---       tim4_irq_handler
      000110DBH   PUBLIC    XDATA    ---       int4_irq_handler
      000000D0H   SFRSYM    DATA     BYTE      PSW
      0000009DH   SFRSYM    DATA     BYTE      IRCBAND
L251 LINKER/LOCATER V4.66.93.0                                                        03/25/2026  17:12:38  PAGE 48


      00000097H   SFRSYM    DATA     BYTE      AUXR2
      000000EFH   SFRSYM    DATA     BYTE      AUXINTIF
      000000FDH   SFRSYM    DATA     BYTE      S4CON
      000000ACH   SFRSYM    DATA     BYTE      S3CON
      0000009AH   SFRSYM    DATA     BYTE      S2CON
      000000B7H   SFRSYM    DATA     BYTE      IPH
      000000CDH   SFRSYM    DATA     BYTE      SPSTAT
      000000DDH   SFRSYM    DATA     BYTE      T4T3M
      000000C1H   SFRSYM    DATA     BYTE      WDT_CONTR
      000000DFH   SFRSYM    DATA     BYTE      IP3
      000000F4H   SFRSYM    DATA     BYTE      USBCON
      000000B5H   SFRSYM    DATA     BYTE      IP2
      000000FFH   SFRSYM    DATA     BYTE      RSTCFG
      000000C7H   SFRSYM    DATA     BYTE      IAP_CONTR
      000000F9H   SFRSYM    DATA     BYTE      LINICR
      0000008EH   SFRSYM    DATA     BYTE      AUXR
      000000AFH   SFRSYM    DATA     BYTE      IE2
      00000088H   SFRSYM    DATA     BYTE      TCON
      00000089H   SFRSYM    DATA     BYTE      TMOD
      00000098H   SFRSYM    DATA     BYTE      SCON
      000000F1H   SFRSYM    DATA     BYTE      CANICR
      00000087H   SFRSYM    DATA     BYTE      PCON
      000000BCH   SFRSYM    DATA     BYTE      ADC_CONTR
      000000E7H   SFRSYM    DATA     BYTE      CMPCR2
      000000E6H   SFRSYM    DATA     BYTE      CMPCR1
      000000DEH   SFRSYM    DATA     BYTE      ADCCFG
      000000B8H   SFRSYM    DATA     BYTE      IP
      0000008FH   SFRSYM    DATA     BYTE      INTCLKO
      000000EEH   SFRSYM    DATA     BYTE      IP3H
      000000B6H   SFRSYM    DATA     BYTE      IP2H
      000000A8H   SFRSYM    DATA     BYTE      IE
      000000BBH   SFRSYM    DATA     BYTE      P_SW3
      000000BAH   SFRSYM    DATA     BYTE      P_SW2
      000000A2H   SFRSYM    DATA     BYTE      P_SW1
      000000CEH   SFRSYM    DATA     BYTE      SPCTL
      000000F8H   SFRSYM    DATA     BYTE      P7
      000000E8H   SFRSYM    DATA     BYTE      P6
      000000C8H   SFRSYM    DATA     BYTE      P5
      000000C0H   SFRSYM    DATA     BYTE      P4
      000000B0H   SFRSYM    DATA     BYTE      P3
      000000A0H   SFRSYM    DATA     BYTE      P2
      00000090H   SFRSYM    DATA     BYTE      P1
      00000080H   SFRSYM    DATA     BYTE      P0

      ---         MODULE    ---      ---       zf_common_interrupt
      00FF0006H   PUBLIC    CODE     ---       interrupt_global_disable
      00FF000EH   PUBLIC    CODE     ---       interrupt_global_enable
      000000D0H   SFRSYM    DATA     BYTE      PSW
      0000009DH   SFRSYM    DATA     BYTE      IRCBAND
      00000097H   SFRSYM    DATA     BYTE      AUXR2
      000000EFH   SFRSYM    DATA     BYTE      AUXINTIF
      000000FDH   SFRSYM    DATA     BYTE      S4CON
      000000ACH   SFRSYM    DATA     BYTE      S3CON
      0000009AH   SFRSYM    DATA     BYTE      S2CON
      000000B7H   SFRSYM    DATA     BYTE      IPH
      000000CDH   SFRSYM    DATA     BYTE      SPSTAT
      000000DDH   SFRSYM    DATA     BYTE      T4T3M
      000000C1H   SFRSYM    DATA     BYTE      WDT_CONTR
      000000DFH   SFRSYM    DATA     BYTE      IP3
      000000F4H   SFRSYM    DATA     BYTE      USBCON
      000000B5H   SFRSYM    DATA     BYTE      IP2
      000000FFH   SFRSYM    DATA     BYTE      RSTCFG
      000000C7H   SFRSYM    DATA     BYTE      IAP_CONTR
      000000F9H   SFRSYM    DATA     BYTE      LINICR
      0000008EH   SFRSYM    DATA     BYTE      AUXR
L251 LINKER/LOCATER V4.66.93.0                                                        03/25/2026  17:12:38  PAGE 49


      000000AFH   SFRSYM    DATA     BYTE      IE2
      00000088H   SFRSYM    DATA     BYTE      TCON
      00000089H   SFRSYM    DATA     BYTE      TMOD
      00000098H   SFRSYM    DATA     BYTE      SCON
      000000F1H   SFRSYM    DATA     BYTE      CANICR
      00000087H   SFRSYM    DATA     BYTE      PCON
      000000BCH   SFRSYM    DATA     BYTE      ADC_CONTR
      000000E7H   SFRSYM    DATA     BYTE      CMPCR2
      000000E6H   SFRSYM    DATA     BYTE      CMPCR1
      000000DEH   SFRSYM    DATA     BYTE      ADCCFG
      000000B8H   SFRSYM    DATA     BYTE      IP
      0000008FH   SFRSYM    DATA     BYTE      INTCLKO
      000000EEH   SFRSYM    DATA     BYTE      IP3H
      000000B6H   SFRSYM    DATA     BYTE      IP2H
      000000A8H   SFRSYM    DATA     BYTE      IE
      000000BBH   SFRSYM    DATA     BYTE      P_SW3
      000000BAH   SFRSYM    DATA     BYTE      P_SW2
      000000A2H   SFRSYM    DATA     BYTE      P_SW1
      000000CEH   SFRSYM    DATA     BYTE      SPCTL
      000000F8H   SFRSYM    DATA     BYTE      P7
      000000A8H.7 SFRSYM    DATA     BIT       EA
      000000E8H   SFRSYM    DATA     BYTE      P6
      000000C8H   SFRSYM    DATA     BYTE      P5
      000000C0H   SFRSYM    DATA     BYTE      P4
      000000B0H   SFRSYM    DATA     BYTE      P3
      000000A0H   SFRSYM    DATA     BYTE      P2
      00000090H   SFRSYM    DATA     BYTE      P1
      00000080H   SFRSYM    DATA     BYTE      P0
      00011CB2H   SYMBOL    XDATA    INT       irqn
      00011CB4H   SYMBOL    XDATA    BYTE      priority

      00FF0006H   BLOCK     CODE     ---       LVL=0
      00FF0006H   LINE      CODE     ---       #75
      00FF0006H   LINE      CODE     ---       #77
      00FF0009H   LINE      CODE     ---       #78
      ---         BLOCKEND  ---      ---       LVL=0

      00FF000EH   BLOCK     CODE     ---       LVL=0
      00FF000EH   LINE      CODE     ---       #88
      00FF000EH   LINE      CODE     ---       #90
      00FF0011H   LINE      CODE     ---       #91
      ---         BLOCKEND  ---      ---       LVL=0

      ---         MODULE    ---      ---       zf_driver_adc
      00000094H   SFRSYM    DATA     BYTE      P0M0
      000000D0H   SFRSYM    DATA     BYTE      PSW
      0000009DH   SFRSYM    DATA     BYTE      IRCBAND
      00000097H   SFRSYM    DATA     BYTE      AUXR2
      000000EFH   SFRSYM    DATA     BYTE      AUXINTIF
      000000FDH   SFRSYM    DATA     BYTE      S4CON
      000000ACH   SFRSYM    DATA     BYTE      S3CON
      0000009AH   SFRSYM    DATA     BYTE      S2CON
      000000B7H   SFRSYM    DATA     BYTE      IPH
      000000CDH   SFRSYM    DATA     BYTE      SPSTAT
      000000BEH   SFRSYM    DATA     BYTE      ADC_RESL
      000000DDH   SFRSYM    DATA     BYTE      T4T3M
      000000C1H   SFRSYM    DATA     BYTE      WDT_CONTR
      000000DFH   SFRSYM    DATA     BYTE      IP3
      000000F4H   SFRSYM    DATA     BYTE      USBCON
      000000B5H   SFRSYM    DATA     BYTE      IP2
      000000FFH   SFRSYM    DATA     BYTE      RSTCFG
      000000C7H   SFRSYM    DATA     BYTE      IAP_CONTR
      000000F9H   SFRSYM    DATA     BYTE      LINICR
      0000008EH   SFRSYM    DATA     BYTE      AUXR
      000000AFH   SFRSYM    DATA     BYTE      IE2
L251 LINKER/LOCATER V4.66.93.0                                                        03/25/2026  17:12:38  PAGE 50


      00000088H   SFRSYM    DATA     BYTE      TCON
      00000089H   SFRSYM    DATA     BYTE      TMOD
      00000098H   SFRSYM    DATA     BYTE      SCON
      000000F1H   SFRSYM    DATA     BYTE      CANICR
      00000087H   SFRSYM    DATA     BYTE      PCON
      000000BCH   SFRSYM    DATA     BYTE      ADC_CONTR
      000000E7H   SFRSYM    DATA     BYTE      CMPCR2
      000000E6H   SFRSYM    DATA     BYTE      CMPCR1
      000000DEH   SFRSYM    DATA     BYTE      ADCCFG
      000000B8H   SFRSYM    DATA     BYTE      IP
      0000008FH   SFRSYM    DATA     BYTE      INTCLKO
      000000EEH   SFRSYM    DATA     BYTE      IP3H
      000000B6H   SFRSYM    DATA     BYTE      IP2H
      000000BDH   SFRSYM    DATA     BYTE      ADC_RES
      000000A8H   SFRSYM    DATA     BYTE      IE
      000000BBH   SFRSYM    DATA     BYTE      P_SW3
      000000BAH   SFRSYM    DATA     BYTE      P_SW2
      000000A2H   SFRSYM    DATA     BYTE      P_SW1
      000000CEH   SFRSYM    DATA     BYTE      SPCTL
      000000F8H   SFRSYM    DATA     BYTE      P7
      000000E8H   SFRSYM    DATA     BYTE      P6
      000000C8H   SFRSYM    DATA     BYTE      P5
      000000C0H   SFRSYM    DATA     BYTE      P4
      000000B0H   SFRSYM    DATA     BYTE      P3
      000000A0H   SFRSYM    DATA     BYTE      P2
      00000090H   SFRSYM    DATA     BYTE      P1
      00000080H   SFRSYM    DATA     BYTE      P0
      00000091H   SFRSYM    DATA     BYTE      P1M1
      00000092H   SFRSYM    DATA     BYTE      P1M0
      00000093H   SFRSYM    DATA     BYTE      P0M1
      00011D25H   SYMBOL    XDATA    BYTE      adc_resolution
      000119F6H   SYMBOL    XDATA    INT       ch
      000119F8H   SYMBOL    XDATA    BYTE      count
      000119F9H   SYMBOL    XDATA    BYTE      i
      000119FAH   SYMBOL    XDATA    DWORD     sum
      00011C32H   SYMBOL    XDATA    INT       ch
      00011C34H   SYMBOL    XDATA    WORD      adc_value
      00011C36H   SYMBOL    XDATA    INT       ch
      00011C38H   SYMBOL    XDATA    INT       resolution

      ---         MODULE    ---      ---       zf_driver_delay
      00FF62BBH   PUBLIC    CODE     ---       system_delay_init
      00FF678BH   PUBLIC    CODE     ---       system_delay_ms
      000000D0H   SFRSYM    DATA     BYTE      PSW
      0000009DH   SFRSYM    DATA     BYTE      IRCBAND
      00000097H   SFRSYM    DATA     BYTE      AUXR2
      000000EFH   SFRSYM    DATA     BYTE      AUXINTIF
      000000FDH   SFRSYM    DATA     BYTE      S4CON
      000000ACH   SFRSYM    DATA     BYTE      S3CON
      0000009AH   SFRSYM    DATA     BYTE      S2CON
      000000B7H   SFRSYM    DATA     BYTE      IPH
      000000CDH   SFRSYM    DATA     BYTE      SPSTAT
      000000DDH   SFRSYM    DATA     BYTE      T4T3M
      000000C1H   SFRSYM    DATA     BYTE      WDT_CONTR
      000000DFH   SFRSYM    DATA     BYTE      IP3
      000000F4H   SFRSYM    DATA     BYTE      USBCON
      000000B5H   SFRSYM    DATA     BYTE      IP2
      000000FFH   SFRSYM    DATA     BYTE      RSTCFG
      000000C7H   SFRSYM    DATA     BYTE      IAP_CONTR
      000000F9H   SFRSYM    DATA     BYTE      LINICR
      0000008EH   SFRSYM    DATA     BYTE      AUXR
      000000AFH   SFRSYM    DATA     BYTE      IE2
      00000088H   SFRSYM    DATA     BYTE      TCON
      00000089H   SFRSYM    DATA     BYTE      TMOD
      00000098H   SFRSYM    DATA     BYTE      SCON
L251 LINKER/LOCATER V4.66.93.0                                                        03/25/2026  17:12:38  PAGE 51


      000000F1H   SFRSYM    DATA     BYTE      CANICR
      00000087H   SFRSYM    DATA     BYTE      PCON
      000000BCH   SFRSYM    DATA     BYTE      ADC_CONTR
      000000E7H   SFRSYM    DATA     BYTE      CMPCR2
      000000E6H   SFRSYM    DATA     BYTE      CMPCR1
      000000DEH   SFRSYM    DATA     BYTE      ADCCFG
      000000B8H   SFRSYM    DATA     BYTE      IP
      0000008FH   SFRSYM    DATA     BYTE      INTCLKO
      000000EEH   SFRSYM    DATA     BYTE      IP3H
      000000B6H   SFRSYM    DATA     BYTE      IP2H
      000000A8H   SFRSYM    DATA     BYTE      IE
      000000BBH   SFRSYM    DATA     BYTE      P_SW3
      000000BAH   SFRSYM    DATA     BYTE      P_SW2
      000000A2H   SFRSYM    DATA     BYTE      P_SW1
      000000CEH   SFRSYM    DATA     BYTE      SPCTL
      000000F8H   SFRSYM    DATA     BYTE      P7
      000000E8H   SFRSYM    DATA     BYTE      P6
      000000C8H   SFRSYM    DATA     BYTE      P5
      000000C0H   SFRSYM    DATA     BYTE      P4
      000000B0H   SFRSYM    DATA     BYTE      P3
      000000A0H   SFRSYM    DATA     BYTE      P2
      00000090H   SFRSYM    DATA     BYTE      P1
      00000080H   SFRSYM    DATA     BYTE      P0
      00FF67F5H   SYMBOL    CODE     ---       delay_cycles
      00011C3AH   SYMBOL    XDATA    WORD      zf_delay_1ms
      00011C3CH   SYMBOL    XDATA    WORD      zf_delay_1us

      00FF67F5H   BLOCK     CODE     ---       LVL=0
      00011CD6H   SYMBOL    XDATA    WORD      cycles
      00FF67F5H   LINE      CODE     ---       #44
      00FF67FBH   LINE      CODE     ---       #47
      00FF67FBH   LINE      CODE     ---       #50
      00FF6812H   LINE      CODE     ---       #51
      ---         BLOCKEND  ---      ---       LVL=0

      00FF62BBH   BLOCK     CODE     ---       LVL=0
      00FF62BBH   LINE      CODE     ---       #59
      00FF62BBH   LINE      CODE     ---       #61
      00FF62D2H   LINE      CODE     ---       #62
      00FF62EDH   LINE      CODE     ---       #63
      00FF6312H   LINE      CODE     ---       #64
      ---         BLOCKEND  ---      ---       LVL=0

      00FF678BH   BLOCK     CODE     ---       LVL=0
      00011CD8H   SYMBOL    XDATA    WORD      ms
      00FF678BH   LINE      CODE     ---       #72
      00FF6791H   LINE      CODE     ---       #74
      00FF6791H   LINE      CODE     ---       #76
      00FF679AH   LINE      CODE     ---       #77
      00FF67AFH   LINE      CODE     ---       #78
      ---         BLOCKEND  ---      ---       LVL=0
      00011CDAH   SYMBOL    XDATA    WORD      us

      ---         MODULE    ---      ---       zf_driver_eeprom
      00011852H   PUBLIC    XDATA    BYTE      ?iap_read_buff?BYTE
      0001185CH   PUBLIC    XDATA    BYTE      ?iap_write_buff?BYTE
      000000D0H   SFRSYM    DATA     BYTE      PSW
      0000009DH   SFRSYM    DATA     BYTE      IRCBAND
      00000097H   SFRSYM    DATA     BYTE      AUXR2
      000000C6H   SFRSYM    DATA     BYTE      IAP_TRIG
      000000EFH   SFRSYM    DATA     BYTE      AUXINTIF
      000000FDH   SFRSYM    DATA     BYTE      S4CON
      000000ACH   SFRSYM    DATA     BYTE      S3CON
      0000009AH   SFRSYM    DATA     BYTE      S2CON
      000000B7H   SFRSYM    DATA     BYTE      IPH
L251 LINKER/LOCATER V4.66.93.0                                                        03/25/2026  17:12:38  PAGE 52


      000000CDH   SFRSYM    DATA     BYTE      SPSTAT
      000000DDH   SFRSYM    DATA     BYTE      T4T3M
      000000C1H   SFRSYM    DATA     BYTE      WDT_CONTR
      000000C2H   SFRSYM    DATA     BYTE      IAP_DATA
      000000DFH   SFRSYM    DATA     BYTE      IP3
      000000F4H   SFRSYM    DATA     BYTE      USBCON
      000000B5H   SFRSYM    DATA     BYTE      IP2
      000000FFH   SFRSYM    DATA     BYTE      RSTCFG
      000000C7H   SFRSYM    DATA     BYTE      IAP_CONTR
      000000F9H   SFRSYM    DATA     BYTE      LINICR
      0000008EH   SFRSYM    DATA     BYTE      AUXR
      000000AFH   SFRSYM    DATA     BYTE      IE2
      00000088H   SFRSYM    DATA     BYTE      TCON
      00000089H   SFRSYM    DATA     BYTE      TMOD
      00000098H   SFRSYM    DATA     BYTE      SCON
      000000F5H   SFRSYM    DATA     BYTE      IAP_TPS
      000000F1H   SFRSYM    DATA     BYTE      CANICR
      00000087H   SFRSYM    DATA     BYTE      PCON
      000000BCH   SFRSYM    DATA     BYTE      ADC_CONTR
      000000E7H   SFRSYM    DATA     BYTE      CMPCR2
      000000E6H   SFRSYM    DATA     BYTE      CMPCR1
      000000C4H   SFRSYM    DATA     BYTE      IAP_ADDRL
      000000C3H   SFRSYM    DATA     BYTE      IAP_ADDRH
      000000F6H   SFRSYM    DATA     BYTE      IAP_ADDRE
      000000DEH   SFRSYM    DATA     BYTE      ADCCFG
      000000B8H   SFRSYM    DATA     BYTE      IP
      0000008FH   SFRSYM    DATA     BYTE      INTCLKO
      000000EEH   SFRSYM    DATA     BYTE      IP3H
      000000B6H   SFRSYM    DATA     BYTE      IP2H
      000000C5H   SFRSYM    DATA     BYTE      IAP_CMD
      000000A8H   SFRSYM    DATA     BYTE      IE
      000000BBH   SFRSYM    DATA     BYTE      P_SW3
      000000BAH   SFRSYM    DATA     BYTE      P_SW2
      000000A2H   SFRSYM    DATA     BYTE      P_SW1
      000000CEH   SFRSYM    DATA     BYTE      SPCTL
      000000F8H   SFRSYM    DATA     BYTE      P7
      000000A8H.7 SFRSYM    DATA     BIT       EA
      000000E8H   SFRSYM    DATA     BYTE      P6
      000000C8H   SFRSYM    DATA     BYTE      P5
      000000C0H   SFRSYM    DATA     BYTE      P4
      000000B0H   SFRSYM    DATA     BYTE      P3
      000000A0H   SFRSYM    DATA     BYTE      P2
      00000090H   SFRSYM    DATA     BYTE      P1
      00000080H   SFRSYM    DATA     BYTE      P0
      00FF6CE8H   SYMBOL    HCONST   ---       ?tpl?0001
      00011D26H   SYMBOL    XDATA    BYTE      write_time
      00011BBAH   SYMBOL    XDATA    DWORD     addr
      00011BBEH   SYMBOL    XDATA    BYTE      temp
      00000020H.0 SYMBOL    BIT      BIT       flag
      00011BBFH   SYMBOL    XDATA    DWORD     addr
      00011BC3H   SYMBOL    XDATA    BYTE      byte
      00000020H.1 SYMBOL    BIT      BIT       flag
      00011852H   SYMBOL    XDATA    DWORD     addr
      00011856H   SYMBOL    XDATA    ---       buf
      0001185AH   SYMBOL    XDATA    WORD      len
      0001185CH   SYMBOL    XDATA    DWORD     addr
      00011860H   SYMBOL    XDATA    ---       buf
      00011864H   SYMBOL    XDATA    WORD      len
      00011C3EH   SYMBOL    XDATA    DWORD     addr
      00000020H.2 SYMBOL    BIT      BIT       flag
      00010000H   SYMBOL    XDATA    WORD      addr
      00010002H   SYMBOL    XDATA    ---       buf
      00010006H   SYMBOL    XDATA    WORD      len
      00010008H   SYMBOL    XDATA    ---       temp
      00010208H   SYMBOL    XDATA    WORD      i
L251 LINKER/LOCATER V4.66.93.0                                                        03/25/2026  17:12:38  PAGE 53



      ---         MODULE    ---      ---       zf_driver_encoder
      000000D0H   SFRSYM    DATA     BYTE      PSW
      0000009DH   SFRSYM    DATA     BYTE      IRCBAND
      00000097H   SFRSYM    DATA     BYTE      AUXR2
      000000EFH   SFRSYM    DATA     BYTE      AUXINTIF
      000000FDH   SFRSYM    DATA     BYTE      S4CON
      000000ACH   SFRSYM    DATA     BYTE      S3CON
      0000009AH   SFRSYM    DATA     BYTE      S2CON
      000000B7H   SFRSYM    DATA     BYTE      IPH
      000000CDH   SFRSYM    DATA     BYTE      SPSTAT
      000000DDH   SFRSYM    DATA     BYTE      T4T3M
      000000C1H   SFRSYM    DATA     BYTE      WDT_CONTR
      00000088H.6 SFRSYM    DATA     BIT       TR1
      00000088H.4 SFRSYM    DATA     BIT       TR0
      000000D3H   SFRSYM    DATA     BYTE      T4L
      000000D5H   SFRSYM    DATA     BYTE      T3L
      000000D7H   SFRSYM    DATA     BYTE      T2L
      0000008BH   SFRSYM    DATA     BYTE      TL1
      0000008AH   SFRSYM    DATA     BYTE      TL0
      000000D2H   SFRSYM    DATA     BYTE      T4H
      000000D4H   SFRSYM    DATA     BYTE      T3H
      000000D6H   SFRSYM    DATA     BYTE      T2H
      0000008DH   SFRSYM    DATA     BYTE      TH1
      0000008CH   SFRSYM    DATA     BYTE      TH0
      000000DFH   SFRSYM    DATA     BYTE      IP3
      000000F4H   SFRSYM    DATA     BYTE      USBCON
      000000B5H   SFRSYM    DATA     BYTE      IP2
      000000FFH   SFRSYM    DATA     BYTE      RSTCFG
      000000C7H   SFRSYM    DATA     BYTE      IAP_CONTR
      000000F9H   SFRSYM    DATA     BYTE      LINICR
      0000008EH   SFRSYM    DATA     BYTE      AUXR
      000000AFH   SFRSYM    DATA     BYTE      IE2
      00000088H   SFRSYM    DATA     BYTE      TCON
      00000089H   SFRSYM    DATA     BYTE      TMOD
      00000098H   SFRSYM    DATA     BYTE      SCON
      000000F1H   SFRSYM    DATA     BYTE      CANICR
      00000087H   SFRSYM    DATA     BYTE      PCON
      000000BCH   SFRSYM    DATA     BYTE      ADC_CONTR
      000000E7H   SFRSYM    DATA     BYTE      CMPCR2
      000000E6H   SFRSYM    DATA     BYTE      CMPCR1
      000000DEH   SFRSYM    DATA     BYTE      ADCCFG
      000000B8H   SFRSYM    DATA     BYTE      IP
      0000008FH   SFRSYM    DATA     BYTE      INTCLKO
      000000EEH   SFRSYM    DATA     BYTE      IP3H
      000000B6H   SFRSYM    DATA     BYTE      IP2H
      000000A8H   SFRSYM    DATA     BYTE      IE
      000000BBH   SFRSYM    DATA     BYTE      P_SW3
      000000BAH   SFRSYM    DATA     BYTE      P_SW2
      000000A2H   SFRSYM    DATA     BYTE      P_SW1
      000000CEH   SFRSYM    DATA     BYTE      SPCTL
      000000F8H   SFRSYM    DATA     BYTE      P7
      000000E8H   SFRSYM    DATA     BYTE      P6
      000000C8H   SFRSYM    DATA     BYTE      P5
      000000C0H   SFRSYM    DATA     BYTE      P4
      000000B0H   SFRSYM    DATA     BYTE      P3
      000000A0H   SFRSYM    DATA     BYTE      P2
      00000090H   SFRSYM    DATA     BYTE      P1
      00000080H   SFRSYM    DATA     BYTE      P0
      00011AEEH   SYMBOL    XDATA    ---       encoder_dir_pin
      00011C42H   SYMBOL    XDATA    INT       encoder_n
      00011C44H   SYMBOL    XDATA    INT       dat
      00011CDCH   SYMBOL    XDATA    INT       encoder_n
      00011AF4H   SYMBOL    XDATA    INT       encoder_n
      00011AF6H   SYMBOL    XDATA    INT       dir_pin
L251 LINKER/LOCATER V4.66.93.0                                                        03/25/2026  17:12:38  PAGE 54


      00011AF8H   SYMBOL    XDATA    INT       lsb_pin

      ---         MODULE    ---      ---       zf_driver_exti
      000000D0H   SFRSYM    DATA     BYTE      PSW
      0000009DH   SFRSYM    DATA     BYTE      IRCBAND
      00000097H   SFRSYM    DATA     BYTE      AUXR2
      000000EFH   SFRSYM    DATA     BYTE      AUXINTIF
      000000FDH   SFRSYM    DATA     BYTE      S4CON
      000000ACH   SFRSYM    DATA     BYTE      S3CON
      0000009AH   SFRSYM    DATA     BYTE      S2CON
      000000B7H   SFRSYM    DATA     BYTE      IPH
      000000CDH   SFRSYM    DATA     BYTE      SPSTAT
      000000DDH   SFRSYM    DATA     BYTE      T4T3M
      000000C1H   SFRSYM    DATA     BYTE      WDT_CONTR
      0000008FH.6 SFRSYM    DATA     BIT       EX4
      0000008FH.5 SFRSYM    DATA     BIT       EX3
      0000008FH.4 SFRSYM    DATA     BIT       EX2
      00000088H.2 SFRSYM    DATA     BIT       IT1
      000000A8H.2 SFRSYM    DATA     BIT       EX1
      00000088H.0 SFRSYM    DATA     BIT       IT0
      000000A8H.0 SFRSYM    DATA     BIT       EX0
      000000DFH   SFRSYM    DATA     BYTE      IP3
      000000F4H   SFRSYM    DATA     BYTE      USBCON
      000000B5H   SFRSYM    DATA     BYTE      IP2
      000000FFH   SFRSYM    DATA     BYTE      RSTCFG
      000000C7H   SFRSYM    DATA     BYTE      IAP_CONTR
      000000F9H   SFRSYM    DATA     BYTE      LINICR
      0000008EH   SFRSYM    DATA     BYTE      AUXR
      000000AFH   SFRSYM    DATA     BYTE      IE2
      00000088H   SFRSYM    DATA     BYTE      TCON
      00000089H   SFRSYM    DATA     BYTE      TMOD
      00000098H   SFRSYM    DATA     BYTE      SCON
      000000F1H   SFRSYM    DATA     BYTE      CANICR
      00000087H   SFRSYM    DATA     BYTE      PCON
      000000BCH   SFRSYM    DATA     BYTE      ADC_CONTR
      000000E7H   SFRSYM    DATA     BYTE      CMPCR2
      000000E6H   SFRSYM    DATA     BYTE      CMPCR1
      000000DEH   SFRSYM    DATA     BYTE      ADCCFG
      000000B8H   SFRSYM    DATA     BYTE      IP
      0000008FH   SFRSYM    DATA     BYTE      INTCLKO
      000000EEH   SFRSYM    DATA     BYTE      IP3H
      000000B6H   SFRSYM    DATA     BYTE      IP2H
      000000A8H   SFRSYM    DATA     BYTE      IE
      000000BBH   SFRSYM    DATA     BYTE      P_SW3
      000000BAH   SFRSYM    DATA     BYTE      P_SW2
      000000A2H   SFRSYM    DATA     BYTE      P_SW1
      000000CEH   SFRSYM    DATA     BYTE      SPCTL
      000000F8H   SFRSYM    DATA     BYTE      P7
      000000E8H   SFRSYM    DATA     BYTE      P6
      000000C8H   SFRSYM    DATA     BYTE      P5
      000000C0H   SFRSYM    DATA     BYTE      P4
      000000B0H   SFRSYM    DATA     BYTE      P3
      000000A0H   SFRSYM    DATA     BYTE      P2
      00000090H   SFRSYM    DATA     BYTE      P1
      00000080H   SFRSYM    DATA     BYTE      P0
      00011CDEH   SYMBOL    XDATA    INT       eru_pin
      00011CE0H   SYMBOL    XDATA    INT       eru_pin
      00011C46H   SYMBOL    XDATA    INT       eru_pin
      00011C48H   SYMBOL    XDATA    INT       trigger

      ---         MODULE    ---      ---       zf_driver_gpio
      00FF55C6H   PUBLIC    CODE     ---       gpio_init
      00FF533EH   PUBLIC    CODE     ---       gpio_get_level
      00FF49EDH   PUBLIC    CODE     ---       gpio_set_level
      00FF4FE9H   PUBLIC    CODE     ---       gpio_set_impedance
L251 LINKER/LOCATER V4.66.93.0                                                        03/25/2026  17:12:38  PAGE 55


      00000094H   SFRSYM    DATA     BYTE      P0M0
      000000D0H   SFRSYM    DATA     BYTE      PSW
      0000009DH   SFRSYM    DATA     BYTE      IRCBAND
      00000097H   SFRSYM    DATA     BYTE      AUXR2
      000000EFH   SFRSYM    DATA     BYTE      AUXINTIF
      000000FDH   SFRSYM    DATA     BYTE      S4CON
      000000ACH   SFRSYM    DATA     BYTE      S3CON
      0000009AH   SFRSYM    DATA     BYTE      S2CON
      000000B7H   SFRSYM    DATA     BYTE      IPH
      000000CDH   SFRSYM    DATA     BYTE      SPSTAT
      000000DDH   SFRSYM    DATA     BYTE      T4T3M
      000000C1H   SFRSYM    DATA     BYTE      WDT_CONTR
      000000DFH   SFRSYM    DATA     BYTE      IP3
      000000F4H   SFRSYM    DATA     BYTE      USBCON
      000000B5H   SFRSYM    DATA     BYTE      IP2
      000000FFH   SFRSYM    DATA     BYTE      RSTCFG
      000000C7H   SFRSYM    DATA     BYTE      IAP_CONTR
      000000F9H   SFRSYM    DATA     BYTE      LINICR
      0000008EH   SFRSYM    DATA     BYTE      AUXR
      000000AFH   SFRSYM    DATA     BYTE      IE2
      00000088H   SFRSYM    DATA     BYTE      TCON
      00000089H   SFRSYM    DATA     BYTE      TMOD
      00000098H   SFRSYM    DATA     BYTE      SCON
      000000F1H   SFRSYM    DATA     BYTE      CANICR
      00000087H   SFRSYM    DATA     BYTE      PCON
      000000BCH   SFRSYM    DATA     BYTE      ADC_CONTR
      000000E7H   SFRSYM    DATA     BYTE      CMPCR2
      000000E6H   SFRSYM    DATA     BYTE      CMPCR1
      000000DEH   SFRSYM    DATA     BYTE      ADCCFG
      000000B8H   SFRSYM    DATA     BYTE      IP
      0000008FH   SFRSYM    DATA     BYTE      INTCLKO
      000000EEH   SFRSYM    DATA     BYTE      IP3H
      000000B6H   SFRSYM    DATA     BYTE      IP2H
      000000A8H   SFRSYM    DATA     BYTE      IE
      000000BBH   SFRSYM    DATA     BYTE      P_SW3
      000000BAH   SFRSYM    DATA     BYTE      P_SW2
      000000A2H   SFRSYM    DATA     BYTE      P_SW1
      000000CEH   SFRSYM    DATA     BYTE      SPCTL
      000000F8H   SFRSYM    DATA     BYTE      P7
      000000E1H   SFRSYM    DATA     BYTE      P7M1
      000000E8H   SFRSYM    DATA     BYTE      P6
      000000C8H   SFRSYM    DATA     BYTE      P5
      000000CBH   SFRSYM    DATA     BYTE      P6M1
      000000E2H   SFRSYM    DATA     BYTE      P7M0
      000000C0H   SFRSYM    DATA     BYTE      P4
      000000C9H   SFRSYM    DATA     BYTE      P5M1
      000000CCH   SFRSYM    DATA     BYTE      P6M0
      000000B0H   SFRSYM    DATA     BYTE      P3
      000000B3H   SFRSYM    DATA     BYTE      P4M1
      000000CAH   SFRSYM    DATA     BYTE      P5M0
      000000A0H   SFRSYM    DATA     BYTE      P2
      000000B1H   SFRSYM    DATA     BYTE      P3M1
      000000B4H   SFRSYM    DATA     BYTE      P4M0
      00000090H   SFRSYM    DATA     BYTE      P1
      00000095H   SFRSYM    DATA     BYTE      P2M1
      000000B2H   SFRSYM    DATA     BYTE      P3M0
      00000080H   SFRSYM    DATA     BYTE      P0
      00000091H   SFRSYM    DATA     BYTE      P1M1
      00000096H   SFRSYM    DATA     BYTE      P2M0
      00000092H   SFRSYM    DATA     BYTE      P1M0
      00000093H   SFRSYM    DATA     BYTE      P0M1
      00FF3C09H   SYMBOL    CODE     ---       gpio_set_dir
      00FF447EH   SYMBOL    CODE     ---       gpio_set_mode

      00FF447EH   BLOCK     CODE     ---       LVL=0
L251 LINKER/LOCATER V4.66.93.0                                                        03/25/2026  17:12:38  PAGE 56


      00011C4AH   SYMBOL    XDATA    INT       pin
      00011C4CH   SYMBOL    XDATA    INT       mode
      00FF447EH   LINE      CODE     ---       #42
      00FF448AH   LINE      CODE     ---       #47
      00FF44A6H   LINE      CODE     ---       #49
      00FF44E5H   LINE      CODE     ---       #51
      00FF44E8H   LINE      CODE     ---       #56
      00FF4504H   LINE      CODE     ---       #58
      00FF4541H   LINE      CODE     ---       #59
      00FF4544H   LINE      CODE     ---       #60
      00FF4555H   LINE      CODE     ---       #63
      00FF45A6H   LINE      CODE     ---       #65
      00FF45A6H   LINE      CODE     ---       #66
      00FF45C1H   LINE      CODE     ---       #67
      00FF45DCH   LINE      CODE     ---       #68
      00FF45DFH   LINE      CODE     ---       #69
      00FF45DFH   LINE      CODE     ---       #70
      00FF45FAH   LINE      CODE     ---       #71
      00FF4615H   LINE      CODE     ---       #72
      00FF4618H   LINE      CODE     ---       #73
      00FF4618H   LINE      CODE     ---       #74
      00FF4633H   LINE      CODE     ---       #75
      00FF464EH   LINE      CODE     ---       #76
      00FF4651H   LINE      CODE     ---       #77
      00FF4651H   LINE      CODE     ---       #78
      00FF466CH   LINE      CODE     ---       #79
      00FF4687H   LINE      CODE     ---       #80
      00FF468AH   LINE      CODE     ---       #81
      00FF468AH   LINE      CODE     ---       #82
      00FF46A5H   LINE      CODE     ---       #83
      00FF46C0H   LINE      CODE     ---       #84
      00FF46C3H   LINE      CODE     ---       #85
      00FF46C3H   LINE      CODE     ---       #86
      00FF46DEH   LINE      CODE     ---       #87
      00FF46F9H   LINE      CODE     ---       #88
      00FF46FBH   LINE      CODE     ---       #89
      00FF46FBH   LINE      CODE     ---       #90
      00FF4716H   LINE      CODE     ---       #91
      00FF4731H   LINE      CODE     ---       #92
      00FF4733H   LINE      CODE     ---       #93
      00FF4733H   LINE      CODE     ---       #94
      00FF474EH   LINE      CODE     ---       #95
      00FF4769H   LINE      CODE     ---       #96
      00FF4769H   LINE      CODE     ---       #97
      00FF4769H   LINE      CODE     ---       #98
      00FF4769H   LINE      CODE     ---       #99
      00FF4769H   LINE      CODE     ---       #100
      00FF4769H   LINE      CODE     ---       #104
      00FF4769H   LINE      CODE     ---       #105
      ---         BLOCKEND  ---      ---       LVL=0
      00011AFAH   SYMBOL    XDATA    INT       pin
      00011AFCH   SYMBOL    XDATA    INT       speed
      00011AFEH   SYMBOL    XDATA    BYTE      pin_bit
      00011AFFH   SYMBOL    XDATA    BYTE      port_flag

      00FF3C09H   BLOCK     CODE     ---       LVL=0
      00011C4EH   SYMBOL    XDATA    INT       pin
      00011C50H   SYMBOL    XDATA    INT       dir
      00FF3C09H   LINE      CODE     ---       #150
      00FF3C15H   LINE      CODE     ---       #152
      00FF3C69H   LINE      CODE     ---       #154
      00FF3C69H   LINE      CODE     ---       #156
      00FF3C83H   LINE      CODE     ---       #158
      00FF3CA0H   LINE      CODE     ---       #159
      00FF3CBDH   LINE      CODE     ---       #160
L251 LINKER/LOCATER V4.66.93.0                                                        03/25/2026  17:12:38  PAGE 57


      00FF3CC0H   LINE      CODE     ---       #166
      00FF3CD1H   LINE      CODE     ---       #168
      00FF3CEEH   LINE      CODE     ---       #169
      00FF3D09H   LINE      CODE     ---       #170
      00FF3D09H   LINE      CODE     ---       #172
      00FF3D0CH   LINE      CODE     ---       #174
      00FF3D0CH   LINE      CODE     ---       #176
      00FF3D26H   LINE      CODE     ---       #178
      00FF3D43H   LINE      CODE     ---       #179
      00FF3D60H   LINE      CODE     ---       #180
      00FF3D63H   LINE      CODE     ---       #186
      00FF3D74H   LINE      CODE     ---       #188
      00FF3D91H   LINE      CODE     ---       #189
      00FF3DACH   LINE      CODE     ---       #190
      00FF3DACH   LINE      CODE     ---       #192
      00FF3DAFH   LINE      CODE     ---       #194
      00FF3DAFH   LINE      CODE     ---       #196
      00FF3DC9H   LINE      CODE     ---       #198
      00FF3DE6H   LINE      CODE     ---       #199
      00FF3E03H   LINE      CODE     ---       #200
      00FF3E06H   LINE      CODE     ---       #206
      00FF3E17H   LINE      CODE     ---       #208
      00FF3E34H   LINE      CODE     ---       #209
      00FF3E4FH   LINE      CODE     ---       #210
      00FF3E4FH   LINE      CODE     ---       #212
      00FF3E52H   LINE      CODE     ---       #214
      00FF3E52H   LINE      CODE     ---       #216
      00FF3E6CH   LINE      CODE     ---       #218
      00FF3E89H   LINE      CODE     ---       #219
      00FF3EA6H   LINE      CODE     ---       #220
      00FF3EA9H   LINE      CODE     ---       #226
      00FF3EBAH   LINE      CODE     ---       #228
      00FF3ED7H   LINE      CODE     ---       #229
      00FF3EF2H   LINE      CODE     ---       #230
      00FF3EF2H   LINE      CODE     ---       #232
      00FF3EF5H   LINE      CODE     ---       #234
      00FF3EF5H   LINE      CODE     ---       #236
      00FF3F0FH   LINE      CODE     ---       #238
      00FF3F2CH   LINE      CODE     ---       #239
      00FF3F49H   LINE      CODE     ---       #240
      00FF3F4CH   LINE      CODE     ---       #246
      00FF3F5DH   LINE      CODE     ---       #248
      00FF3F7AH   LINE      CODE     ---       #249
      00FF3F95H   LINE      CODE     ---       #250
      00FF3F95H   LINE      CODE     ---       #252
      00FF3F98H   LINE      CODE     ---       #254
      00FF3F98H   LINE      CODE     ---       #256
      00FF3FB2H   LINE      CODE     ---       #258
      00FF3FCFH   LINE      CODE     ---       #259
      00FF3FECH   LINE      CODE     ---       #260
      00FF3FEFH   LINE      CODE     ---       #266
      00FF4000H   LINE      CODE     ---       #268
      00FF401DH   LINE      CODE     ---       #269
      00FF4038H   LINE      CODE     ---       #270
      00FF4038H   LINE      CODE     ---       #272
      00FF403BH   LINE      CODE     ---       #274
      00FF403BH   LINE      CODE     ---       #276
      00FF4055H   LINE      CODE     ---       #278
      00FF4072H   LINE      CODE     ---       #279
      00FF408FH   LINE      CODE     ---       #280
      00FF4092H   LINE      CODE     ---       #286
      00FF40A3H   LINE      CODE     ---       #288
      00FF40C0H   LINE      CODE     ---       #289
      00FF40DBH   LINE      CODE     ---       #290
      00FF40DBH   LINE      CODE     ---       #292
L251 LINKER/LOCATER V4.66.93.0                                                        03/25/2026  17:12:38  PAGE 58


      00FF40DEH   LINE      CODE     ---       #294
      00FF40DEH   LINE      CODE     ---       #296
      00FF40F8H   LINE      CODE     ---       #298
      00FF4115H   LINE      CODE     ---       #299
      00FF4132H   LINE      CODE     ---       #300
      00FF4134H   LINE      CODE     ---       #306
      00FF4142H   LINE      CODE     ---       #308
      00FF415FH   LINE      CODE     ---       #309
      00FF417AH   LINE      CODE     ---       #310
      00FF417AH   LINE      CODE     ---       #313
      00FF417CH   LINE      CODE     ---       #315
      00FF417CH   LINE      CODE     ---       #317
      00FF418CH   LINE      CODE     ---       #319
      00FF418CH   LINE      CODE     ---       #320
      00FF418CH   LINE      CODE     ---       #321
      ---         BLOCKEND  ---      ---       LVL=0

      00FF533EH   BLOCK     CODE     ---       LVL=0
      00011BC4H   SYMBOL    XDATA    INT       pin
      00FF5344H   BLOCK     CODE     NEAR LAB  LVL=1
      00011BC6H   SYMBOL    XDATA    BYTE      pin_bit
      00011BC7H   SYMBOL    XDATA    BYTE      port_flag
      00011BC8H   SYMBOL    XDATA    BYTE      status
      ---         BLOCKEND  ---      ---       LVL=1
      00FF533EH   LINE      CODE     ---       #329
      00FF5344H   LINE      CODE     ---       #330
      00FF5344H   LINE      CODE     ---       #331
      00FF5354H   LINE      CODE     ---       #332
      00FF5364H   LINE      CODE     ---       #333
      00FF5369H   LINE      CODE     ---       #336
      00FF539CH   LINE      CODE     ---       #338
      00FF53B8H   LINE      CODE     ---       #339
      00FF53D4H   LINE      CODE     ---       #340
      00FF53F0H   LINE      CODE     ---       #341
      00FF540BH   LINE      CODE     ---       #342
      00FF5426H   LINE      CODE     ---       #343
      00FF5441H   LINE      CODE     ---       #344
      00FF545CH   LINE      CODE     ---       #345
      00FF5475H   LINE      CODE     ---       #346
      00FF5475H   LINE      CODE     ---       #347
      00FF5475H   LINE      CODE     ---       #349
      00FF5483H   LINE      CODE     ---       #350
      ---         BLOCKEND  ---      ---       LVL=0

      00FF49EDH   BLOCK     CODE     ---       LVL=0
      00011BC9H   SYMBOL    XDATA    INT       pin
      00011BCBH   SYMBOL    XDATA    BYTE      dat
      00FF49F7H   BLOCK     CODE     NEAR LAB  LVL=1
      00011BCCH   SYMBOL    XDATA    BYTE      pin_bit
      00011BCDH   SYMBOL    XDATA    BYTE      port_flag
      ---         BLOCKEND  ---      ---       LVL=1
      00FF49EDH   LINE      CODE     ---       #359
      00FF49F7H   LINE      CODE     ---       #360
      00FF49F7H   LINE      CODE     ---       #361
      00FF4A07H   LINE      CODE     ---       #362
      00FF4A17H   LINE      CODE     ---       #365
      00FF4A50H   LINE      CODE     ---       #367
      00FF4A87H   LINE      CODE     ---       #368
      00FF4ABEH   LINE      CODE     ---       #369
      00FF4AF5H   LINE      CODE     ---       #370
      00FF4B2CH   LINE      CODE     ---       #371
      00FF4B63H   LINE      CODE     ---       #372
      00FF4B99H   LINE      CODE     ---       #373
      00FF4BCEH   LINE      CODE     ---       #374
      00FF4C01H   LINE      CODE     ---       #375
L251 LINKER/LOCATER V4.66.93.0                                                        03/25/2026  17:12:38  PAGE 59


      00FF4C01H   LINE      CODE     ---       #376
      00FF4C01H   LINE      CODE     ---       #377
      ---         BLOCKEND  ---      ---       LVL=0
      00011CE2H   SYMBOL    XDATA    INT       pin

      00FF4FE9H   BLOCK     CODE     ---       LVL=0
      00011C52H   SYMBOL    XDATA    INT       pin
      00FF4FEFH   BLOCK     CODE     NEAR LAB  LVL=1
      00011C54H   SYMBOL    XDATA    BYTE      pin_bit
      00011C55H   SYMBOL    XDATA    BYTE      port_flag
      ---         BLOCKEND  ---      ---       LVL=1
      00FF4FE9H   LINE      CODE     ---       #397
      00FF4FEFH   LINE      CODE     ---       #398
      00FF4FEFH   LINE      CODE     ---       #399
      00FF4FFFH   LINE      CODE     ---       #400
      00FF500FH   LINE      CODE     ---       #403
      00FF5048H   LINE      CODE     ---       #405
      00FF5073H   LINE      CODE     ---       #406
      00FF509EH   LINE      CODE     ---       #407
      00FF50C9H   LINE      CODE     ---       #408
      00FF50F4H   LINE      CODE     ---       #409
      00FF511EH   LINE      CODE     ---       #410
      00FF5148H   LINE      CODE     ---       #411
      00FF5172H   LINE      CODE     ---       #412
      00FF519AH   LINE      CODE     ---       #413
      00FF519AH   LINE      CODE     ---       #414
      00FF519AH   LINE      CODE     ---       #415
      ---         BLOCKEND  ---      ---       LVL=0

      00FF55C6H   BLOCK     CODE     ---       LVL=0
      00011ABEH   SYMBOL    XDATA    INT       pin
      00011AC0H   SYMBOL    XDATA    INT       dir
      00011AC2H   SYMBOL    XDATA    BYTE      dat
      00011AC3H   SYMBOL    XDATA    INT       mode
      00FF55C6H   LINE      CODE     ---       #426
      00FF55DCH   LINE      CODE     ---       #428
      00FF5608H   LINE      CODE     ---       #430
      00FF5616H   LINE      CODE     ---       #432
      00FF5623H   LINE      CODE     ---       #433
      00FF5632H   LINE      CODE     ---       #434
      00FF5635H   LINE      CODE     ---       #435
      00FF5641H   LINE      CODE     ---       #437
      00FF564DH   LINE      CODE     ---       #439
      00FF5656H   LINE      CODE     ---       #440
      00FF5658H   LINE      CODE     ---       #443
      00FF5663H   LINE      CODE     ---       #444
      00FF5672H   LINE      CODE     ---       #445
      00FF5672H   LINE      CODE     ---       #446
      00FF5674H   LINE      CODE     ---       #447
      00FF5682H   LINE      CODE     ---       #449
      00FF5690H   LINE      CODE     ---       #451
      00FF569DH   LINE      CODE     ---       #452
      00FF56AAH   LINE      CODE     ---       #453
      00FF56ACH   LINE      CODE     ---       #454
      00FF56BAH   LINE      CODE     ---       #456
      00FF56C7H   LINE      CODE     ---       #457
      00FF56C7H   LINE      CODE     ---       #459
      00FF56D4H   LINE      CODE     ---       #460
      ---         BLOCKEND  ---      ---       LVL=0

      ---         MODULE    ---      ---       zf_driver_pit
      00FF476AH   PUBLIC    CODE     ---       pit_init
      000000D0H   SFRSYM    DATA     BYTE      PSW
      0000009DH   SFRSYM    DATA     BYTE      IRCBAND
      00000097H   SFRSYM    DATA     BYTE      AUXR2
L251 LINKER/LOCATER V4.66.93.0                                                        03/25/2026  17:12:38  PAGE 60


      000000EFH   SFRSYM    DATA     BYTE      AUXINTIF
      000000FDH   SFRSYM    DATA     BYTE      S4CON
      000000ACH   SFRSYM    DATA     BYTE      S3CON
      0000009AH   SFRSYM    DATA     BYTE      S2CON
      000000B7H   SFRSYM    DATA     BYTE      IPH
      000000CDH   SFRSYM    DATA     BYTE      SPSTAT
      000000DDH   SFRSYM    DATA     BYTE      T4T3M
      000000C1H   SFRSYM    DATA     BYTE      WDT_CONTR
      00000088H.6 SFRSYM    DATA     BIT       TR1
      00000088H.4 SFRSYM    DATA     BIT       TR0
      000000D3H   SFRSYM    DATA     BYTE      T4L
      000000D5H   SFRSYM    DATA     BYTE      T3L
      000000D7H   SFRSYM    DATA     BYTE      T2L
      0000008BH   SFRSYM    DATA     BYTE      TL1
      0000008AH   SFRSYM    DATA     BYTE      TL0
      000000D2H   SFRSYM    DATA     BYTE      T4H
      000000D4H   SFRSYM    DATA     BYTE      T3H
      000000D6H   SFRSYM    DATA     BYTE      T2H
      0000008DH   SFRSYM    DATA     BYTE      TH1
      0000008CH   SFRSYM    DATA     BYTE      TH0
      000000DFH   SFRSYM    DATA     BYTE      IP3
      000000F4H   SFRSYM    DATA     BYTE      USBCON
      000000B5H   SFRSYM    DATA     BYTE      IP2
      000000FFH   SFRSYM    DATA     BYTE      RSTCFG
      000000A8H.3 SFRSYM    DATA     BIT       ET1
      000000A8H.1 SFRSYM    DATA     BIT       ET0
      000000C7H   SFRSYM    DATA     BYTE      IAP_CONTR
      000000F9H   SFRSYM    DATA     BYTE      LINICR
      0000008EH   SFRSYM    DATA     BYTE      AUXR
      000000AFH   SFRSYM    DATA     BYTE      IE2
      00000088H   SFRSYM    DATA     BYTE      TCON
      00000089H   SFRSYM    DATA     BYTE      TMOD
      00000098H   SFRSYM    DATA     BYTE      SCON
      000000F1H   SFRSYM    DATA     BYTE      CANICR
      00000087H   SFRSYM    DATA     BYTE      PCON
      000000BCH   SFRSYM    DATA     BYTE      ADC_CONTR
      000000E7H   SFRSYM    DATA     BYTE      CMPCR2
      000000E6H   SFRSYM    DATA     BYTE      CMPCR1
      000000DEH   SFRSYM    DATA     BYTE      ADCCFG
      000000B8H   SFRSYM    DATA     BYTE      IP
      0000008FH   SFRSYM    DATA     BYTE      INTCLKO
      000000EEH   SFRSYM    DATA     BYTE      IP3H
      000000B6H   SFRSYM    DATA     BYTE      IP2H
      000000A8H   SFRSYM    DATA     BYTE      IE
      000000BBH   SFRSYM    DATA     BYTE      P_SW3
      000000BAH   SFRSYM    DATA     BYTE      P_SW2
      000000A2H   SFRSYM    DATA     BYTE      P_SW1
      000000CEH   SFRSYM    DATA     BYTE      SPCTL
      000000F8H   SFRSYM    DATA     BYTE      P7
      000000E8H   SFRSYM    DATA     BYTE      P6
      000000C8H   SFRSYM    DATA     BYTE      P5
      000000C0H   SFRSYM    DATA     BYTE      P4
      000000B0H   SFRSYM    DATA     BYTE      P3
      000000A0H   SFRSYM    DATA     BYTE      P2
      00000090H   SFRSYM    DATA     BYTE      P1
      00000080H   SFRSYM    DATA     BYTE      P0

      00FF476AH   BLOCK     CODE     ---       LVL=0
      00011805H   SYMBOL    XDATA    INT       pit_n
      00011807H   SYMBOL    XDATA    DWORD     period
      00FF477AH   BLOCK     CODE     NEAR LAB  LVL=1
      0001180BH   SYMBOL    XDATA    BYTE      freq_div
      0001180CH   SYMBOL    XDATA    WORD      period_temp
      0001180EH   SYMBOL    XDATA    WORD      temp
      ---         BLOCKEND  ---      ---       LVL=1
L251 LINKER/LOCATER V4.66.93.0                                                        03/25/2026  17:12:38  PAGE 61


      00FF476AH   LINE      CODE     ---       #50
      00FF477AH   LINE      CODE     ---       #51
      00FF477AH   LINE      CODE     ---       #52
      00FF477FH   LINE      CODE     ---       #53
      00FF4787H   LINE      CODE     ---       #54
      00FF478FH   LINE      CODE     ---       #57
      00FF47A5H   LINE      CODE     ---       #60
      00FF47BDH   LINE      CODE     ---       #62
      00FF47C9H   LINE      CODE     ---       #64
      00FF47CCH   LINE      CODE     ---       #65
      00FF47CFH   LINE      CODE     ---       #66
      00FF47DDH   LINE      CODE     ---       #68
      00FF47E0H   LINE      CODE     ---       #69
      00FF47E3H   LINE      CODE     ---       #70
      00FF47F1H   LINE      CODE     ---       #72
      00FF47F4H   LINE      CODE     ---       #73
      00FF47F7H   LINE      CODE     ---       #74
      00FF4805H   LINE      CODE     ---       #76
      00FF4808H   LINE      CODE     ---       #77
      00FF480AH   LINE      CODE     ---       #78
      00FF4818H   LINE      CODE     ---       #80
      00FF481BH   LINE      CODE     ---       #81
      00FF481DH   LINE      CODE     ---       #88
      00FF4829H   LINE      CODE     ---       #90
      00FF482CH   LINE      CODE     ---       #91
      00FF482EH   LINE      CODE     ---       #92
      00FF483CH   LINE      CODE     ---       #94
      00FF483FH   LINE      CODE     ---       #95
      00FF4841H   LINE      CODE     ---       #96
      00FF484FH   LINE      CODE     ---       #98
      00FF4852H   LINE      CODE     ---       #99
      00FF4854H   LINE      CODE     ---       #100
      00FF4862H   LINE      CODE     ---       #102
      00FF4865H   LINE      CODE     ---       #103
      00FF4867H   LINE      CODE     ---       #104
      00FF4875H   LINE      CODE     ---       #106
      00FF4878H   LINE      CODE     ---       #107
      00FF4878H   LINE      CODE     ---       #112
      00FF4896H   LINE      CODE     ---       #113
      00FF48B7H   LINE      CODE     ---       #115
      00FF48C9H   LINE      CODE     ---       #117
      00FF48D5H   LINE      CODE     ---       #119
      00FF48E4H   LINE      CODE     ---       #120
      00FF48E8H   LINE      CODE     ---       #121
      00FF48F0H   LINE      CODE     ---       #122
      00FF48FCH   LINE      CODE     ---       #123
      00FF48FFH   LINE      CODE     ---       #124
      00FF4902H   LINE      CODE     ---       #125
      00FF4905H   LINE      CODE     ---       #126
      00FF4913H   LINE      CODE     ---       #128
      00FF4922H   LINE      CODE     ---       #129
      00FF4926H   LINE      CODE     ---       #130
      00FF492EH   LINE      CODE     ---       #131
      00FF493AH   LINE      CODE     ---       #132
      00FF493DH   LINE      CODE     ---       #133
      00FF4940H   LINE      CODE     ---       #134
      00FF4943H   LINE      CODE     ---       #135
      00FF4951H   LINE      CODE     ---       #137
      00FF4960H   LINE      CODE     ---       #138
      00FF4968H   LINE      CODE     ---       #139
      00FF4974H   LINE      CODE     ---       #140
      00FF4977H   LINE      CODE     ---       #141
      00FF497AH   LINE      CODE     ---       #142
      00FF497CH   LINE      CODE     ---       #143
      00FF498AH   LINE      CODE     ---       #145
L251 LINKER/LOCATER V4.66.93.0                                                        03/25/2026  17:12:38  PAGE 62


      00FF4999H   LINE      CODE     ---       #146
      00FF49A1H   LINE      CODE     ---       #147
      00FF49ADH   LINE      CODE     ---       #148
      00FF49B0H   LINE      CODE     ---       #149
      00FF49B3H   LINE      CODE     ---       #150
      00FF49B5H   LINE      CODE     ---       #151
      00FF49C3H   LINE      CODE     ---       #153
      00FF49D2H   LINE      CODE     ---       #154
      00FF49DAH   LINE      CODE     ---       #155
      00FF49E6H   LINE      CODE     ---       #156
      00FF49E9H   LINE      CODE     ---       #157
      00FF49ECH   LINE      CODE     ---       #158
      ---         BLOCKEND  ---      ---       LVL=0

      ---         MODULE    ---      ---       zf_driver_pwm
      00FF72FEH   PUBLIC    HCONST   ---       PWM_PSCR_ADDR
      00FF7306H   PUBLIC    HCONST   ---       PWM_CCR_ADDR
      00FF7326H   PUBLIC    HCONST   ---       PWM_ARR_ADDR
      00FF732EH   PUBLIC    HCONST   ---       PWM_CCER_ADDR
      00FF733EH   PUBLIC    HCONST   ---       PWM_CCMR_ADDR
      00011268H   PUBLIC    XDATA    BYTE      ?pwm_set_freq?BYTE
      00011365H   PUBLIC    XDATA    BYTE      ?pwm_init?BYTE
      000000D0H   SFRSYM    DATA     BYTE      PSW
      0000009DH   SFRSYM    DATA     BYTE      IRCBAND
      00000097H   SFRSYM    DATA     BYTE      AUXR2
      000000EFH   SFRSYM    DATA     BYTE      AUXINTIF
      000000FDH   SFRSYM    DATA     BYTE      S4CON
      000000ACH   SFRSYM    DATA     BYTE      S3CON
      0000009AH   SFRSYM    DATA     BYTE      S2CON
      000000B7H   SFRSYM    DATA     BYTE      IPH
      000000CDH   SFRSYM    DATA     BYTE      SPSTAT
      000000DDH   SFRSYM    DATA     BYTE      T4T3M
      000000C1H   SFRSYM    DATA     BYTE      WDT_CONTR
      000000DFH   SFRSYM    DATA     BYTE      IP3
      000000F4H   SFRSYM    DATA     BYTE      USBCON
      000000B5H   SFRSYM    DATA     BYTE      IP2
      000000FFH   SFRSYM    DATA     BYTE      RSTCFG
      000000C7H   SFRSYM    DATA     BYTE      IAP_CONTR
      000000F9H   SFRSYM    DATA     BYTE      LINICR
      0000008EH   SFRSYM    DATA     BYTE      AUXR
      000000AFH   SFRSYM    DATA     BYTE      IE2
      00000088H   SFRSYM    DATA     BYTE      TCON
      00000089H   SFRSYM    DATA     BYTE      TMOD
      00000098H   SFRSYM    DATA     BYTE      SCON
      000000F1H   SFRSYM    DATA     BYTE      CANICR
      00000087H   SFRSYM    DATA     BYTE      PCON
      000000BCH   SFRSYM    DATA     BYTE      ADC_CONTR
      000000E7H   SFRSYM    DATA     BYTE      CMPCR2
      000000E6H   SFRSYM    DATA     BYTE      CMPCR1
      000000DEH   SFRSYM    DATA     BYTE      ADCCFG
      000000B8H   SFRSYM    DATA     BYTE      IP
      0000008FH   SFRSYM    DATA     BYTE      INTCLKO
      000000EEH   SFRSYM    DATA     BYTE      IP3H
      000000B6H   SFRSYM    DATA     BYTE      IP2H
      000000A8H   SFRSYM    DATA     BYTE      IE
      000000BBH   SFRSYM    DATA     BYTE      P_SW3
      000000BAH   SFRSYM    DATA     BYTE      P_SW2
      000000A2H   SFRSYM    DATA     BYTE      P_SW1
      000000CEH   SFRSYM    DATA     BYTE      SPCTL
      000000F8H   SFRSYM    DATA     BYTE      P7
      000000E8H   SFRSYM    DATA     BYTE      P6
      000000C8H   SFRSYM    DATA     BYTE      P5
      000000C0H   SFRSYM    DATA     BYTE      P4
      000000B0H   SFRSYM    DATA     BYTE      P3
      000000A0H   SFRSYM    DATA     BYTE      P2
L251 LINKER/LOCATER V4.66.93.0                                                        03/25/2026  17:12:38  PAGE 63


      00000090H   SFRSYM    DATA     BYTE      P1
      00000080H   SFRSYM    DATA     BYTE      P0
      00011268H   SYMBOL    XDATA    INT       pin
      0001126AH   SYMBOL    XDATA    DWORD     freq
      0001126EH   SYMBOL    XDATA    DWORD     duty
      00011272H   SYMBOL    XDATA    DWORD     match_temp
      00011276H   SYMBOL    XDATA    DWORD     period_temp
      0001127AH   SYMBOL    XDATA    WORD      freq_div
      0001151AH   SYMBOL    XDATA    INT       pin
      0001151CH   SYMBOL    XDATA    DWORD     duty
      00011520H   SYMBOL    XDATA    DWORD     match_temp
      00011524H   SYMBOL    XDATA    DWORD     arr
      00011365H   SYMBOL    XDATA    INT       pin
      00011367H   SYMBOL    XDATA    DWORD     freq
      0001136BH   SYMBOL    XDATA    DWORD     duty
      0001136FH   SYMBOL    XDATA    WORD      match_temp
      00011371H   SYMBOL    XDATA    DWORD     period_temp
      00011375H   SYMBOL    XDATA    WORD      freq_div

      ---         MODULE    ---      ---       zf_driver_soft_iic
      00FF57B8H   PUBLIC    CODE     ---       soft_iic_wait_ack
      00FF5A38H   PUBLIC    CODE     ---       soft_iic_stop
      00FF66C3H   PUBLIC    CODE     ---       soft_iic_delay
      00FF5484H   PUBLIC    CODE     ---       soft_iic_read_data
      00FF00A6H   PUBLIC    CODE     ---       soft_iic_send_data
      00FF5C4EH   PUBLIC    CODE     ---       soft_iic_start
      00FF589BH   PUBLIC    CODE     ---       soft_iic_send_ack
      00011679H   PUBLIC    XDATA    BYTE      ?soft_iic_write_8bit_array?BYTE
      00011685H   PUBLIC    XDATA    BYTE      ?soft_iic_write_16bit_array?BYTE
      000115DDH   PUBLIC    XDATA    BYTE      ?soft_iic_write_8bit_registers?BYTE
      00011528H   PUBLIC    XDATA    BYTE      ?soft_iic_write_16bit_registers?BYTE
      00011691H   PUBLIC    XDATA    BYTE      ?soft_iic_read_8bit_array?BYTE
      0001169DH   PUBLIC    XDATA    BYTE      ?soft_iic_read_16bit_array?BYTE
      000115EAH   PUBLIC    XDATA    BYTE      ?soft_iic_read_8bit_registers?BYTE
      00011536H   PUBLIC    XDATA    BYTE      ?soft_iic_read_16bit_registers?BYTE
      0001127CH   PUBLIC    XDATA    BYTE      ?soft_iic_transfer_8bit_array?BYTE
      00011290H   PUBLIC    XDATA    BYTE      ?soft_iic_transfer_16bit_array?BYTE
      000115F7H   PUBLIC    XDATA    BYTE      ?soft_iic_init?BYTE
      000000D0H   SFRSYM    DATA     BYTE      PSW
      0000009DH   SFRSYM    DATA     BYTE      IRCBAND
      00000097H   SFRSYM    DATA     BYTE      AUXR2
      000000EFH   SFRSYM    DATA     BYTE      AUXINTIF
      000000FDH   SFRSYM    DATA     BYTE      S4CON
      000000ACH   SFRSYM    DATA     BYTE      S3CON
      0000009AH   SFRSYM    DATA     BYTE      S2CON
      000000B7H   SFRSYM    DATA     BYTE      IPH
      000000CDH   SFRSYM    DATA     BYTE      SPSTAT
      000000DDH   SFRSYM    DATA     BYTE      T4T3M
      000000C1H   SFRSYM    DATA     BYTE      WDT_CONTR
      000000DFH   SFRSYM    DATA     BYTE      IP3
      000000F4H   SFRSYM    DATA     BYTE      USBCON
      000000B5H   SFRSYM    DATA     BYTE      IP2
      000000FFH   SFRSYM    DATA     BYTE      RSTCFG
      000000C7H   SFRSYM    DATA     BYTE      IAP_CONTR
      000000F9H   SFRSYM    DATA     BYTE      LINICR
      0000008EH   SFRSYM    DATA     BYTE      AUXR
      000000AFH   SFRSYM    DATA     BYTE      IE2
      00000088H   SFRSYM    DATA     BYTE      TCON
      00000089H   SFRSYM    DATA     BYTE      TMOD
      00000098H   SFRSYM    DATA     BYTE      SCON
      000000F1H   SFRSYM    DATA     BYTE      CANICR
      00000087H   SFRSYM    DATA     BYTE      PCON
      000000BCH   SFRSYM    DATA     BYTE      ADC_CONTR
      000000E7H   SFRSYM    DATA     BYTE      CMPCR2
      000000E6H   SFRSYM    DATA     BYTE      CMPCR1
L251 LINKER/LOCATER V4.66.93.0                                                        03/25/2026  17:12:38  PAGE 64


      000000DEH   SFRSYM    DATA     BYTE      ADCCFG
      000000B8H   SFRSYM    DATA     BYTE      IP
      0000008FH   SFRSYM    DATA     BYTE      INTCLKO
      000000EEH   SFRSYM    DATA     BYTE      IP3H
      000000B6H   SFRSYM    DATA     BYTE      IP2H
      000000A8H   SFRSYM    DATA     BYTE      IE
      000000BBH   SFRSYM    DATA     BYTE      P_SW3
      000000BAH   SFRSYM    DATA     BYTE      P_SW2
      000000A2H   SFRSYM    DATA     BYTE      P_SW1
      000000CEH   SFRSYM    DATA     BYTE      SPCTL
      000000F8H   SFRSYM    DATA     BYTE      P7
      000000E8H   SFRSYM    DATA     BYTE      P6
      000000C8H   SFRSYM    DATA     BYTE      P5
      000000C0H   SFRSYM    DATA     BYTE      P4
      000000B0H   SFRSYM    DATA     BYTE      P3
      000000A0H   SFRSYM    DATA     BYTE      P2
      00000090H   SFRSYM    DATA     BYTE      P1
      00000080H   SFRSYM    DATA     BYTE      P0

      00FF66C3H   BLOCK     CODE     ---       LVL=0
      000119FEH   SYMBOL    XDATA    DWORD     delay
      00FF66CDH   BLOCK     CODE     NEAR LAB  LVL=1
      00011A02H   SYMBOL    XDATA    DWORD     count
      ---         BLOCKEND  ---      ---       LVL=1
      00FF66C3H   LINE      CODE     ---       #53
      00FF66CDH   LINE      CODE     ---       #54
      00FF66CDH   LINE      CODE     ---       #55
      00FF66E1H   LINE      CODE     ---       #56
      00FF66FEH   LINE      CODE     ---       #57
      ---         BLOCKEND  ---      ---       LVL=0

      00FF5C4EH   BLOCK     CODE     ---       LVL=0
      00011C56H   SYMBOL    XDATA    ---       soft_iic_obj
      00FF5C4EH   LINE      CODE     ---       #67
      00FF5C58H   LINE      CODE     ---       #69
      00FF5C7AH   LINE      CODE     ---       #70
      00FF5C8CH   LINE      CODE     ---       #71
      00FF5CA0H   LINE      CODE     ---       #73
      00FF5CB8H   LINE      CODE     ---       #74
      00FF5CCBH   LINE      CODE     ---       #75
      00FF5CE3H   LINE      CODE     ---       #76
      00FF5CF4H   LINE      CODE     ---       #77
      ---         BLOCKEND  ---      ---       LVL=0

      00FF5A38H   BLOCK     CODE     ---       LVL=0
      00011C5AH   SYMBOL    XDATA    ---       soft_iic_obj
      00FF5A38H   LINE      CODE     ---       #86
      00FF5A42H   LINE      CODE     ---       #88
      00FF5A64H   LINE      CODE     ---       #89
      00FF5A77H   LINE      CODE     ---       #90
      00FF5A88H   LINE      CODE     ---       #92
      00FF5AA0H   LINE      CODE     ---       #93
      00FF5AB2H   LINE      CODE     ---       #94
      00FF5ACAH   LINE      CODE     ---       #95
      00FF5ADEH   LINE      CODE     ---       #96
      00FF5AF6H   LINE      CODE     ---       #97
      ---         BLOCKEND  ---      ---       LVL=0

      00FF589BH   BLOCK     CODE     ---       LVL=0
      00011BCEH   SYMBOL    XDATA    ---       soft_iic_obj
      00011BD2H   SYMBOL    XDATA    BYTE      ack
      00FF589BH   LINE      CODE     ---       #107
      00FF58A9H   LINE      CODE     ---       #109
      00FF58CBH   LINE      CODE     ---       #110
      00FF58DCH   LINE      CODE     ---       #112
L251 LINKER/LOCATER V4.66.93.0                                                        03/25/2026  17:12:38  PAGE 65


      00FF58E5H   LINE      CODE     ---       #114
      00FF58F9H   LINE      CODE     ---       #115
      00FF58FBH   LINE      CODE     ---       #118
      00FF590EH   LINE      CODE     ---       #119
      00FF590EH   LINE      CODE     ---       #121
      00FF5926H   LINE      CODE     ---       #122
      00FF5938H   LINE      CODE     ---       #123
      00FF5950H   LINE      CODE     ---       #124
      00FF5961H   LINE      CODE     ---       #125
      00FF5975H   LINE      CODE     ---       #126
      ---         BLOCKEND  ---      ---       LVL=0

      00FF57B8H   BLOCK     CODE     ---       LVL=0
      00011BD3H   SYMBOL    XDATA    ---       soft_iic_obj
      00FF57C2H   BLOCK     CODE     NEAR LAB  LVL=1
      00011BD7H   SYMBOL    XDATA    BYTE      temp
      ---         BLOCKEND  ---      ---       LVL=1
      00FF57B8H   LINE      CODE     ---       #135
      00FF57C2H   LINE      CODE     ---       #136
      00FF57C2H   LINE      CODE     ---       #137
      00FF57C7H   LINE      CODE     ---       #138
      00FF57E9H   LINE      CODE     ---       #140
      00FF57FAH   LINE      CODE     ---       #141
      00FF580EH   LINE      CODE     ---       #145
      00FF5826H   LINE      CODE     ---       #147
      00FF5838H   LINE      CODE     ---       #148
      00FF5850H   LINE      CODE     ---       #150
      00FF5867H   LINE      CODE     ---       #152
      00FF586DH   LINE      CODE     ---       #153
      00FF586DH   LINE      CODE     ---       #154
      00FF587EH   LINE      CODE     ---       #158
      00FF5896H   LINE      CODE     ---       #160
      00FF589AH   LINE      CODE     ---       #161
      ---         BLOCKEND  ---      ---       LVL=0

      00FF00A6H   BLOCK     CODE     ---       LVL=0
      00011B00H   SYMBOL    XDATA    ---       soft_iic_obj
      00011B04H   SYMBOL    XDATA    BYTE      dat
      00FF00B4H   BLOCK     CODE     NEAR LAB  LVL=1
      00011B05H   SYMBOL    XDATA    BYTE      temp
      ---         BLOCKEND  ---      ---       LVL=1
      00FF00A6H   LINE      CODE     ---       #170
      00FF00B4H   LINE      CODE     ---       #171
      00FF00B4H   LINE      CODE     ---       #172
      00FF00BAH   LINE      CODE     ---       #174
      00FF00DCH   LINE      CODE     ---       #176
      00FF00DFH   LINE      CODE     ---       #179
      00FF011CH   LINE      CODE     ---       #180
      00FF0123H   LINE      CODE     ---       #182
      00FF013BH   LINE      CODE     ---       #183
      00FF014DH   LINE      CODE     ---       #184
      00FF0165H   LINE      CODE     ---       #185
      00FF0176H   LINE      CODE     ---       #186
      00FF0182H   LINE      CODE     ---       #187
      00FF0199H   LINE      CODE     ---       #188
      ---         BLOCKEND  ---      ---       LVL=0

      00FF5484H   BLOCK     CODE     ---       LVL=0
      00011AC5H   SYMBOL    XDATA    ---       soft_iic_obj
      00011AC9H   SYMBOL    XDATA    BYTE      ack
      00FF5492H   BLOCK     CODE     NEAR LAB  LVL=1
      00011ACAH   SYMBOL    XDATA    BYTE      dat
      00011ACBH   SYMBOL    XDATA    BYTE      temp
      ---         BLOCKEND  ---      ---       LVL=1
      00FF5484H   LINE      CODE     ---       #197
L251 LINKER/LOCATER V4.66.93.0                                                        03/25/2026  17:12:38  PAGE 66


      00FF5492H   LINE      CODE     ---       #198
      00FF5492H   LINE      CODE     ---       #199
      00FF5497H   LINE      CODE     ---       #200
      00FF549DH   LINE      CODE     ---       #201
      00FF54BFH   LINE      CODE     ---       #202
      00FF54D0H   LINE      CODE     ---       #203
      00FF54E8H   LINE      CODE     ---       #204
      00FF54FCH   LINE      CODE     ---       #209
      00FF54FEH   LINE      CODE     ---       #211
      00FF550FH   LINE      CODE     ---       #212
      00FF5527H   LINE      CODE     ---       #213
      00FF5539H   LINE      CODE     ---       #214
      00FF5551H   LINE      CODE     ---       #215
      00FF5571H   LINE      CODE     ---       #216
      00FF5587H   LINE      CODE     ---       #217
      00FF5598H   LINE      CODE     ---       #221
      00FF55B0H   LINE      CODE     ---       #222
      00FF55C1H   LINE      CODE     ---       #223
      00FF55C5H   LINE      CODE     ---       #224
      ---         BLOCKEND  ---      ---       LVL=0
      00011BD8H   SYMBOL    XDATA    ---       soft_iic_obj
      00011BDCH   SYMBOL    XDATA    BYTE      dat
      00011679H   SYMBOL    XDATA    ---       soft_iic_obj
      0001167DH   SYMBOL    XDATA    ---       dat
      00011681H   SYMBOL    XDATA    DWORD     len
      00011B06H   SYMBOL    XDATA    ---       soft_iic_obj
      00011B0AH   SYMBOL    XDATA    WORD      dat
      00011685H   SYMBOL    XDATA    ---       soft_iic_obj
      00011689H   SYMBOL    XDATA    ---       dat
      0001168DH   SYMBOL    XDATA    DWORD     len
      00011B0CH   SYMBOL    XDATA    ---       soft_iic_obj
      00011B10H   SYMBOL    XDATA    BYTE      register_name
      00011B11H   SYMBOL    XDATA    BYTE      dat
      000115DDH   SYMBOL    XDATA    ---       soft_iic_obj
      000115E1H   SYMBOL    XDATA    BYTE      register_name
      000115E2H   SYMBOL    XDATA    ---       dat
      000115E6H   SYMBOL    XDATA    DWORD     len
      00011A06H   SYMBOL    XDATA    ---       soft_iic_obj
      00011A0AH   SYMBOL    XDATA    WORD      register_name
      00011A0CH   SYMBOL    XDATA    WORD      dat
      00011528H   SYMBOL    XDATA    ---       soft_iic_obj
      0001152CH   SYMBOL    XDATA    WORD      register_name
      0001152EH   SYMBOL    XDATA    ---       dat
      00011532H   SYMBOL    XDATA    DWORD     len
      00011BDDH   SYMBOL    XDATA    ---       soft_iic_obj
      00011BE1H   SYMBOL    XDATA    BYTE      temp
      00011691H   SYMBOL    XDATA    ---       soft_iic_obj
      00011695H   SYMBOL    XDATA    ---       dat
      00011699H   SYMBOL    XDATA    DWORD     len
      00011B12H   SYMBOL    XDATA    ---       soft_iic_obj
      00011B16H   SYMBOL    XDATA    WORD      temp
      0001169DH   SYMBOL    XDATA    ---       soft_iic_obj
      000116A1H   SYMBOL    XDATA    ---       dat
      000116A5H   SYMBOL    XDATA    DWORD     len
      00011B18H   SYMBOL    XDATA    ---       soft_iic_obj
      00011B1CH   SYMBOL    XDATA    BYTE      register_name
      00011B1DH   SYMBOL    XDATA    BYTE      temp
      000115EAH   SYMBOL    XDATA    ---       soft_iic_obj
      000115EEH   SYMBOL    XDATA    BYTE      register_name
      000115EFH   SYMBOL    XDATA    ---       dat
      000115F3H   SYMBOL    XDATA    DWORD     len
      00011A0EH   SYMBOL    XDATA    ---       soft_iic_obj
      00011A12H   SYMBOL    XDATA    WORD      register_name
      00011A14H   SYMBOL    XDATA    WORD      temp
      00011536H   SYMBOL    XDATA    ---       soft_iic_obj
L251 LINKER/LOCATER V4.66.93.0                                                        03/25/2026  17:12:38  PAGE 67


      0001153AH   SYMBOL    XDATA    WORD      register_name
      0001153CH   SYMBOL    XDATA    ---       dat
      00011540H   SYMBOL    XDATA    DWORD     len
      0001127CH   SYMBOL    XDATA    ---       soft_iic_obj
      00011280H   SYMBOL    XDATA    ---       write_data
      00011284H   SYMBOL    XDATA    DWORD     write_len
      00011288H   SYMBOL    XDATA    ---       read_data
      0001128CH   SYMBOL    XDATA    DWORD     read_len
      00011290H   SYMBOL    XDATA    ---       soft_iic_obj
      00011294H   SYMBOL    XDATA    ---       write_data
      00011298H   SYMBOL    XDATA    DWORD     write_len
      0001129CH   SYMBOL    XDATA    ---       read_data
      000112A0H   SYMBOL    XDATA    DWORD     read_len
      00011B1EH   SYMBOL    XDATA    ---       soft_iic_obj
      00011B22H   SYMBOL    XDATA    BYTE      register_name
      00011B23H   SYMBOL    XDATA    BYTE      dat
      00011B24H   SYMBOL    XDATA    ---       soft_iic_obj
      00011B28H   SYMBOL    XDATA    BYTE      register_name
      00011B29H   SYMBOL    XDATA    BYTE      temp
      000115F7H   SYMBOL    XDATA    ---       soft_iic_obj
      000115FBH   SYMBOL    XDATA    BYTE      addr
      000115FCH   SYMBOL    XDATA    DWORD     delay
      00011600H   SYMBOL    XDATA    INT       scl_pin
      00011602H   SYMBOL    XDATA    INT       sda_pin

      ---         MODULE    ---      ---       zf_driver_soft_spi
      000116A9H   PUBLIC    XDATA    BYTE      ?soft_spi_write_8bit_array?BYTE
      000116B5H   PUBLIC    XDATA    BYTE      ?soft_spi_write_16bit_array?BYTE
      00011604H   PUBLIC    XDATA    BYTE      ?soft_spi_write_8bit_registers?BYTE
      00011544H   PUBLIC    XDATA    BYTE      ?soft_spi_write_16bit_registers?BYTE
      000116C1H   PUBLIC    XDATA    BYTE      ?soft_spi_read_8bit_array?BYTE
      000116CDH   PUBLIC    XDATA    BYTE      ?soft_spi_read_16bit_array?BYTE
      00011611H   PUBLIC    XDATA    BYTE      ?soft_spi_read_8bit_registers?BYTE
      00011552H   PUBLIC    XDATA    BYTE      ?soft_spi_read_16bit_registers?BYTE
      00011445H   PUBLIC    XDATA    BYTE      ?soft_spi_transfer_8bit?BYTE
      00011455H   PUBLIC    XDATA    BYTE      ?soft_spi_transfer_16bit?BYTE
      00011216H   PUBLIC    XDATA    BYTE      ?soft_spi_init?BYTE
      000000D0H   SFRSYM    DATA     BYTE      PSW
      0000009DH   SFRSYM    DATA     BYTE      IRCBAND
      00000097H   SFRSYM    DATA     BYTE      AUXR2
      000000EFH   SFRSYM    DATA     BYTE      AUXINTIF
      000000FDH   SFRSYM    DATA     BYTE      S4CON
      000000ACH   SFRSYM    DATA     BYTE      S3CON
      0000009AH   SFRSYM    DATA     BYTE      S2CON
      000000B7H   SFRSYM    DATA     BYTE      IPH
      000000CDH   SFRSYM    DATA     BYTE      SPSTAT
      000000DDH   SFRSYM    DATA     BYTE      T4T3M
      000000C1H   SFRSYM    DATA     BYTE      WDT_CONTR
      000000DFH   SFRSYM    DATA     BYTE      IP3
      000000F4H   SFRSYM    DATA     BYTE      USBCON
      000000B5H   SFRSYM    DATA     BYTE      IP2
      000000FFH   SFRSYM    DATA     BYTE      RSTCFG
      000000C7H   SFRSYM    DATA     BYTE      IAP_CONTR
      000000F9H   SFRSYM    DATA     BYTE      LINICR
      0000008EH   SFRSYM    DATA     BYTE      AUXR
      000000AFH   SFRSYM    DATA     BYTE      IE2
      00000088H   SFRSYM    DATA     BYTE      TCON
      00000089H   SFRSYM    DATA     BYTE      TMOD
      00000098H   SFRSYM    DATA     BYTE      SCON
      000000F1H   SFRSYM    DATA     BYTE      CANICR
      00000087H   SFRSYM    DATA     BYTE      PCON
      000000BCH   SFRSYM    DATA     BYTE      ADC_CONTR
      000000E7H   SFRSYM    DATA     BYTE      CMPCR2
      000000E6H   SFRSYM    DATA     BYTE      CMPCR1
      000000DEH   SFRSYM    DATA     BYTE      ADCCFG
L251 LINKER/LOCATER V4.66.93.0                                                        03/25/2026  17:12:38  PAGE 68


      000000B8H   SFRSYM    DATA     BYTE      IP
      0000008FH   SFRSYM    DATA     BYTE      INTCLKO
      000000EEH   SFRSYM    DATA     BYTE      IP3H
      000000B6H   SFRSYM    DATA     BYTE      IP2H
      000000A8H   SFRSYM    DATA     BYTE      IE
      000000BBH   SFRSYM    DATA     BYTE      P_SW3
      000000BAH   SFRSYM    DATA     BYTE      P_SW2
      000000A2H   SFRSYM    DATA     BYTE      P_SW1
      000000CEH   SFRSYM    DATA     BYTE      SPCTL
      000000F8H   SFRSYM    DATA     BYTE      P7
      000000E8H   SFRSYM    DATA     BYTE      P6
      000000C8H   SFRSYM    DATA     BYTE      P5
      000000C0H   SFRSYM    DATA     BYTE      P4
      000000B0H   SFRSYM    DATA     BYTE      P3
      000000A0H   SFRSYM    DATA     BYTE      P2
      00000090H   SFRSYM    DATA     BYTE      P1
      00000080H   SFRSYM    DATA     BYTE      P0
      00011A16H   SYMBOL    XDATA    DWORD     x
      00011A1AH   SYMBOL    XDATA    DWORD     i
      00011A1EH   SYMBOL    XDATA    ---       soft_spi_obj
      00011A22H   SYMBOL    XDATA    BYTE      dat
      00011A23H   SYMBOL    XDATA    BYTE      temp
      00011A24H   SYMBOL    XDATA    BYTE      write_data
      00011A25H   SYMBOL    XDATA    BYTE      read_data
      00011810H   SYMBOL    XDATA    ---       soft_spi_obj
      00011814H   SYMBOL    XDATA    WORD      dat
      00011816H   SYMBOL    XDATA    BYTE      temp
      00011817H   SYMBOL    XDATA    WORD      write_data
      00011819H   SYMBOL    XDATA    WORD      read_data
      00011BE2H   SYMBOL    XDATA    ---       soft_spi_obj
      00011BE6H   SYMBOL    XDATA    BYTE      dat
      000116A9H   SYMBOL    XDATA    ---       soft_spi_obj
      000116ADH   SYMBOL    XDATA    ---       dat
      000116B1H   SYMBOL    XDATA    DWORD     len
      00011B2AH   SYMBOL    XDATA    ---       soft_spi_obj
      00011B2EH   SYMBOL    XDATA    WORD      dat
      000116B5H   SYMBOL    XDATA    ---       soft_spi_obj
      000116B9H   SYMBOL    XDATA    ---       dat
      000116BDH   SYMBOL    XDATA    DWORD     len
      00011B30H   SYMBOL    XDATA    ---       soft_spi_obj
      00011B34H   SYMBOL    XDATA    BYTE      register_name
      00011B35H   SYMBOL    XDATA    BYTE      dat
      00011604H   SYMBOL    XDATA    ---       soft_spi_obj
      00011608H   SYMBOL    XDATA    BYTE      register_name
      00011609H   SYMBOL    XDATA    ---       dat
      0001160DH   SYMBOL    XDATA    DWORD     len
      00011A26H   SYMBOL    XDATA    ---       soft_spi_obj
      00011A2AH   SYMBOL    XDATA    WORD      register_name
      00011A2CH   SYMBOL    XDATA    WORD      dat
      00011544H   SYMBOL    XDATA    ---       soft_spi_obj
      00011548H   SYMBOL    XDATA    WORD      register_name
      0001154AH   SYMBOL    XDATA    ---       dat
      0001154EH   SYMBOL    XDATA    DWORD     len
      00011BE7H   SYMBOL    XDATA    ---       soft_spi_obj
      00011BEBH   SYMBOL    XDATA    BYTE      dat
      000116C1H   SYMBOL    XDATA    ---       soft_spi_obj
      000116C5H   SYMBOL    XDATA    ---       dat
      000116C9H   SYMBOL    XDATA    DWORD     len
      00011BECH   SYMBOL    XDATA    ---       soft_spi_obj
      00011BF0H   SYMBOL    XDATA    BYTE      dat
      000116CDH   SYMBOL    XDATA    ---       soft_spi_obj
      000116D1H   SYMBOL    XDATA    ---       dat
      000116D5H   SYMBOL    XDATA    DWORD     len
      00011B36H   SYMBOL    XDATA    ---       soft_spi_obj
      00011B3AH   SYMBOL    XDATA    BYTE      register_name
L251 LINKER/LOCATER V4.66.93.0                                                        03/25/2026  17:12:38  PAGE 69


      00011B3BH   SYMBOL    XDATA    BYTE      dat
      00011611H   SYMBOL    XDATA    ---       soft_spi_obj
      00011615H   SYMBOL    XDATA    BYTE      register_name
      00011616H   SYMBOL    XDATA    ---       dat
      0001161AH   SYMBOL    XDATA    DWORD     len
      00011A2EH   SYMBOL    XDATA    ---       soft_spi_obj
      00011A32H   SYMBOL    XDATA    WORD      register_name
      00011A34H   SYMBOL    XDATA    WORD      dat
      00011552H   SYMBOL    XDATA    ---       soft_spi_obj
      00011556H   SYMBOL    XDATA    WORD      register_name
      00011558H   SYMBOL    XDATA    ---       dat
      0001155CH   SYMBOL    XDATA    DWORD     len
      00011445H   SYMBOL    XDATA    ---       soft_spi_obj
      00011449H   SYMBOL    XDATA    ---       write_buffer
      0001144DH   SYMBOL    XDATA    ---       read_buffer
      00011451H   SYMBOL    XDATA    DWORD     len
      00011455H   SYMBOL    XDATA    ---       soft_spi_obj
      00011459H   SYMBOL    XDATA    ---       write_buffer
      0001145DH   SYMBOL    XDATA    ---       read_buffer
      00011461H   SYMBOL    XDATA    DWORD     len
      00011216H   SYMBOL    XDATA    ---       soft_spi_obj
      0001121AH   SYMBOL    XDATA    BYTE      mode
      0001121BH   SYMBOL    XDATA    DWORD     delay
      0001121FH   SYMBOL    XDATA    INT       sck_pin
      00011221H   SYMBOL    XDATA    INT       mosi_pin
      00011223H   SYMBOL    XDATA    DWORD     miso_pin
      00011227H   SYMBOL    XDATA    DWORD     cs_pin

      ---         MODULE    ---      ---       zf_driver_spi
      00FF61DDH   PUBLIC    CODE     ---       spi_read_dat
      00011866H   PUBLIC    XDATA    BYTE      ?spi_write_8bit_array?BYTE
      00011870H   PUBLIC    XDATA    BYTE      ?spi_write_16bit_array?BYTE
      0001181BH   PUBLIC    XDATA    BYTE      ?spi_write_8bit_registers?BYTE
      000116D9H   PUBLIC    XDATA    BYTE      ?spi_write_16bit_registers?BYTE
      0001187AH   PUBLIC    XDATA    BYTE      ?spi_read_8bit_array?BYTE
      00011884H   PUBLIC    XDATA    BYTE      ?spi_read_16bit_array?BYTE
      00011826H   PUBLIC    XDATA    BYTE      ?spi_read_8bit_registers?BYTE
      000116E5H   PUBLIC    XDATA    BYTE      ?spi_read_16bit_registers?BYTE
      00011560H   PUBLIC    XDATA    BYTE      ?spi_transfer_8bit?BYTE
      0001156EH   PUBLIC    XDATA    BYTE      ?spi_transfer_16bit?BYTE
      000112A4H   PUBLIC    XDATA    BYTE      ?spi_init?BYTE
      000000CFH   SFRSYM    DATA     BYTE      SPDAT
      000000D0H   SFRSYM    DATA     BYTE      PSW
      0000009DH   SFRSYM    DATA     BYTE      IRCBAND
      00000097H   SFRSYM    DATA     BYTE      AUXR2
      000000EFH   SFRSYM    DATA     BYTE      AUXINTIF
      000000FDH   SFRSYM    DATA     BYTE      S4CON
      000000ACH   SFRSYM    DATA     BYTE      S3CON
      0000009AH   SFRSYM    DATA     BYTE      S2CON
      0000009BH   SFRSYM    DATA     BYTE      S2BUF
      000000B7H   SFRSYM    DATA     BYTE      IPH
      000000CDH   SFRSYM    DATA     BYTE      SPSTAT
      000000DDH   SFRSYM    DATA     BYTE      T4T3M
      000000C1H   SFRSYM    DATA     BYTE      WDT_CONTR
      000000DFH   SFRSYM    DATA     BYTE      IP3
      000000F4H   SFRSYM    DATA     BYTE      USBCON
      000000B5H   SFRSYM    DATA     BYTE      IP2
      000000FFH   SFRSYM    DATA     BYTE      RSTCFG
      000000C7H   SFRSYM    DATA     BYTE      IAP_CONTR
      000000F9H   SFRSYM    DATA     BYTE      LINICR
      0000008EH   SFRSYM    DATA     BYTE      AUXR
      000000AFH   SFRSYM    DATA     BYTE      IE2
      00000088H   SFRSYM    DATA     BYTE      TCON
      00000089H   SFRSYM    DATA     BYTE      TMOD
      00000098H   SFRSYM    DATA     BYTE      SCON
L251 LINKER/LOCATER V4.66.93.0                                                        03/25/2026  17:12:38  PAGE 70


      000000F1H   SFRSYM    DATA     BYTE      CANICR
      00000087H   SFRSYM    DATA     BYTE      PCON
      00000099H   SFRSYM    DATA     BYTE      SBUF
      000000BCH   SFRSYM    DATA     BYTE      ADC_CONTR
      000000E7H   SFRSYM    DATA     BYTE      CMPCR2
      000000E6H   SFRSYM    DATA     BYTE      CMPCR1
      0000009AH.1 SFRSYM    DATA     BIT       S2TI
      00000098H.1 SFRSYM    DATA     BIT       TI
      000000DEH   SFRSYM    DATA     BYTE      ADCCFG
      000000B8H   SFRSYM    DATA     BYTE      IP
      0000008FH   SFRSYM    DATA     BYTE      INTCLKO
      000000EEH   SFRSYM    DATA     BYTE      IP3H
      000000B6H   SFRSYM    DATA     BYTE      IP2H
      000000A8H   SFRSYM    DATA     BYTE      IE
      000000BBH   SFRSYM    DATA     BYTE      P_SW3
      000000BAH   SFRSYM    DATA     BYTE      P_SW2
      000000A2H   SFRSYM    DATA     BYTE      P_SW1
      000000CEH   SFRSYM    DATA     BYTE      SPCTL
      000000F8H   SFRSYM    DATA     BYTE      P7
      000000E8H   SFRSYM    DATA     BYTE      P6
      000000C8H   SFRSYM    DATA     BYTE      P5
      000000C0H   SFRSYM    DATA     BYTE      P4
      000000B0H   SFRSYM    DATA     BYTE      P3
      000000A0H   SFRSYM    DATA     BYTE      P2
      00000090H   SFRSYM    DATA     BYTE      P1
      00000080H   SFRSYM    DATA     BYTE      P0
      00011CB5H   SYMBOL    XDATA    INT       spi_n
      00011CB7H   SYMBOL    XDATA    BYTE      dat

      00FF61DDH   BLOCK     CODE     ---       LVL=0
      00011C5EH   SYMBOL    XDATA    INT       spi_n
      00011C60H   SYMBOL    XDATA    BYTE      dat
      00FF61E7H   BLOCK     CODE     NEAR LAB  LVL=1
      00011C61H   SYMBOL    XDATA    BYTE      ret
      ---         BLOCKEND  ---      ---       LVL=1
      00FF61DDH   LINE      CODE     ---       #107
      00FF61E7H   LINE      CODE     ---       #108
      00FF61E7H   LINE      CODE     ---       #109
      00FF61EDH   LINE      CODE     ---       #110
      00FF61FFH   LINE      CODE     ---       #112
      00FF61FFH   LINE      CODE     ---       #113
      00FF6203H   LINE      CODE     ---       #114
      00FF6209H   LINE      CODE     ---       #115
      00FF620EH   LINE      CODE     ---       #116
      00FF6214H   LINE      CODE     ---       #117
      00FF6216H   LINE      CODE     ---       #118
      00FF6216H   LINE      CODE     ---       #119
      00FF6219H   LINE      CODE     ---       #120
      00FF621FH   LINE      CODE     ---       #121
      00FF6222H   LINE      CODE     ---       #122
      00FF6228H   LINE      CODE     ---       #123
      00FF622AH   LINE      CODE     ---       #124
      00FF622AH   LINE      CODE     ---       #125
      00FF622EH   LINE      CODE     ---       #126
      00FF6234H   LINE      CODE     ---       #127
      00FF6238H   LINE      CODE     ---       #128
      00FF623EH   LINE      CODE     ---       #129
      00FF6240H   LINE      CODE     ---       #130
      00FF6240H   LINE      CODE     ---       #131
      00FF6250H   LINE      CODE     ---       #132
      00FF6250H   LINE      CODE     ---       #133
      00FF6250H   LINE      CODE     ---       #135
      00FF6254H   LINE      CODE     ---       #136
      ---         BLOCKEND  ---      ---       LVL=0
      00011CB8H   SYMBOL    XDATA    INT       spi_n
L251 LINKER/LOCATER V4.66.93.0                                                        03/25/2026  17:12:38  PAGE 71


      00011CBAH   SYMBOL    XDATA    BYTE      dat
      00011866H   SYMBOL    XDATA    INT       spi_n
      00011868H   SYMBOL    XDATA    ---       dat
      0001186CH   SYMBOL    XDATA    DWORD     len
      00011C62H   SYMBOL    XDATA    INT       spi_n
      00011C64H   SYMBOL    XDATA    WORD      dat
      00011870H   SYMBOL    XDATA    INT       spi_n
      00011872H   SYMBOL    XDATA    ---       dat
      00011876H   SYMBOL    XDATA    DWORD     len
      00011C66H   SYMBOL    XDATA    INT       spi_n
      00011C68H   SYMBOL    XDATA    BYTE      register_name
      00011C69H   SYMBOL    XDATA    BYTE      dat
      0001181BH   SYMBOL    XDATA    INT       spi_n
      0001181DH   SYMBOL    XDATA    BYTE      register_name
      0001181EH   SYMBOL    XDATA    ---       dat
      00011822H   SYMBOL    XDATA    DWORD     len
      00011B3CH   SYMBOL    XDATA    INT       spi_n
      00011B3EH   SYMBOL    XDATA    WORD      register_name
      00011B40H   SYMBOL    XDATA    WORD      dat
      000116D9H   SYMBOL    XDATA    INT       spi_n
      000116DBH   SYMBOL    XDATA    WORD      register_name
      000116DDH   SYMBOL    XDATA    ---       dat
      00011CE4H   SYMBOL    XDATA    INT       spi_n
      0001187AH   SYMBOL    XDATA    INT       spi_n
      0001187CH   SYMBOL    XDATA    ---       dat
      00011880H   SYMBOL    XDATA    DWORD     len
      00011C6AH   SYMBOL    XDATA    INT       spi_n
      00011C6CH   SYMBOL    XDATA    WORD      dat
      00011884H   SYMBOL    XDATA    INT       spi_n
      00011886H   SYMBOL    XDATA    ---       dat
      0001188AH   SYMBOL    XDATA    DWORD     len
      00011CBBH   SYMBOL    XDATA    INT       spi_n
      00011CBDH   SYMBOL    XDATA    BYTE      register_name
      00011826H   SYMBOL    XDATA    INT       spi_n
      00011828H   SYMBOL    XDATA    BYTE      register_name
      00011829H   SYMBOL    XDATA    ---       dat
      0001182DH   SYMBOL    XDATA    DWORD     len
      00011B42H   SYMBOL    XDATA    INT       spi_n
      00011B44H   SYMBOL    XDATA    WORD      register_name
      00011B46H   SYMBOL    XDATA    WORD      dat
      000116E5H   SYMBOL    XDATA    INT       spi_n
      000116E7H   SYMBOL    XDATA    WORD      register_name
      000116E9H   SYMBOL    XDATA    ---       dat
      000116EDH   SYMBOL    XDATA    DWORD     len
      00011560H   SYMBOL    XDATA    INT       spi_n
      00011562H   SYMBOL    XDATA    ---       write_buffer
      00011566H   SYMBOL    XDATA    ---       read_buffer
      0001156AH   SYMBOL    XDATA    DWORD     len
      0001156EH   SYMBOL    XDATA    INT       spi_n
      00011570H   SYMBOL    XDATA    ---       write_buffer
      00011574H   SYMBOL    XDATA    ---       read_buffer
      00011578H   SYMBOL    XDATA    DWORD     len
      000112A4H   SYMBOL    XDATA    INT       spi_n
      000112A6H   SYMBOL    XDATA    INT       mode
      000112A8H   SYMBOL    XDATA    DWORD     baud
      000112ACH   SYMBOL    XDATA    INT       sck_pin
      000112AEH   SYMBOL    XDATA    INT       mosi_pin
      000112B0H   SYMBOL    XDATA    INT       miso_pin
      000112B2H   SYMBOL    XDATA    INT       cs_pin
      000112B4H   SYMBOL    XDATA    DWORD     spi_psc

      ---         MODULE    ---      ---       zf_driver_timer
      00FF6062H   PUBLIC    CODE     ---       timer_funciton_check
      000000D0H   SFRSYM    DATA     BYTE      PSW
      0000009DH   SFRSYM    DATA     BYTE      IRCBAND
L251 LINKER/LOCATER V4.66.93.0                                                        03/25/2026  17:12:38  PAGE 72


      00000097H   SFRSYM    DATA     BYTE      AUXR2
      000000EFH   SFRSYM    DATA     BYTE      AUXINTIF
      000000FDH   SFRSYM    DATA     BYTE      S4CON
      000000ACH   SFRSYM    DATA     BYTE      S3CON
      0000009AH   SFRSYM    DATA     BYTE      S2CON
      000000B7H   SFRSYM    DATA     BYTE      IPH
      000000CDH   SFRSYM    DATA     BYTE      SPSTAT
      000000DDH   SFRSYM    DATA     BYTE      T4T3M
      000000C1H   SFRSYM    DATA     BYTE      WDT_CONTR
      000000DFH   SFRSYM    DATA     BYTE      IP3
      000000F4H   SFRSYM    DATA     BYTE      USBCON
      000000B5H   SFRSYM    DATA     BYTE      IP2
      000000FFH   SFRSYM    DATA     BYTE      RSTCFG
      000000C7H   SFRSYM    DATA     BYTE      IAP_CONTR
      000000F9H   SFRSYM    DATA     BYTE      LINICR
      0000008EH   SFRSYM    DATA     BYTE      AUXR
      000000AFH   SFRSYM    DATA     BYTE      IE2
      00000088H   SFRSYM    DATA     BYTE      TCON
      00000089H   SFRSYM    DATA     BYTE      TMOD
      00000098H   SFRSYM    DATA     BYTE      SCON
      000000F1H   SFRSYM    DATA     BYTE      CANICR
      00000087H   SFRSYM    DATA     BYTE      PCON
      000000BCH   SFRSYM    DATA     BYTE      ADC_CONTR
      000000E7H   SFRSYM    DATA     BYTE      CMPCR2
      000000E6H   SFRSYM    DATA     BYTE      CMPCR1
      000000DEH   SFRSYM    DATA     BYTE      ADCCFG
      000000B8H   SFRSYM    DATA     BYTE      IP
      0000008FH   SFRSYM    DATA     BYTE      INTCLKO
      000000EEH   SFRSYM    DATA     BYTE      IP3H
      000000B6H   SFRSYM    DATA     BYTE      IP2H
      000000A8H   SFRSYM    DATA     BYTE      IE
      000000BBH   SFRSYM    DATA     BYTE      P_SW3
      000000BAH   SFRSYM    DATA     BYTE      P_SW2
      000000A2H   SFRSYM    DATA     BYTE      P_SW1
      000000CEH   SFRSYM    DATA     BYTE      SPCTL
      000000F8H   SFRSYM    DATA     BYTE      P7
      000000E8H   SFRSYM    DATA     BYTE      P6
      000000C8H   SFRSYM    DATA     BYTE      P5
      000000C0H   SFRSYM    DATA     BYTE      P4
      000000B0H   SFRSYM    DATA     BYTE      P3
      000000A0H   SFRSYM    DATA     BYTE      P2
      00000090H   SFRSYM    DATA     BYTE      P1
      00000080H   SFRSYM    DATA     BYTE      P0
      000116F1H   SYMBOL    XDATA    ---       timer_function_state

      00FF6062H   BLOCK     CODE     ---       LVL=0
      00011BF1H   SYMBOL    XDATA    INT       index
      00011BF3H   SYMBOL    XDATA    INT       mode
      00FF606EH   BLOCK     CODE     NEAR LAB  LVL=1
      00011BF5H   SYMBOL    XDATA    BYTE      return_state
      ---         BLOCKEND  ---      ---       LVL=1
      00FF6062H   LINE      CODE     ---       #58
      00FF606EH   LINE      CODE     ---       #59
      00FF606EH   LINE      CODE     ---       #60
      00FF6074H   LINE      CODE     ---       #61
      00FF6091H   LINE      CODE     ---       #63
      00FF60AEH   LINE      CODE     ---       #64
      00FF60B0H   LINE      CODE     ---       #65
      00FF60D1H   LINE      CODE     ---       #67
      00FF60D7H   LINE      CODE     ---       #68
      00FF60D9H   LINE      CODE     ---       #71
      00FF60DEH   LINE      CODE     ---       #72
      00FF60DEH   LINE      CODE     ---       #73
      00FF60E2H   LINE      CODE     ---       #74
      ---         BLOCKEND  ---      ---       LVL=0
L251 LINKER/LOCATER V4.66.93.0                                                        03/25/2026  17:12:38  PAGE 73



      ---         MODULE    ---      ---       zf_driver_uart
      00FF5976H   PUBLIC    CODE     ---       uart_rx_start_buff
      00FF4E13H   PUBLIC    CODE     ---       uart_write_buffer
      00FF418DH   PUBLIC    CODE     ---       uart_init
      00FF6255H   PUBLIC    CODE     ---       uart_rx_interrupt
      00FF67D5H   PUBLIC    CODE     ---       uart_write_byte
      00FF519BH   PUBLIC    CODE     ---       uart_dma_init
      00FF60E3H   PUBLIC    CODE     ---       uart_funciton_check
      00FF5D95H   PUBLIC    CODE     ---       uart_query_byte
      00011705H   PUBLIC    XDATA    ---       uart_rx_buff
      00011709H   PUBLIC    XDATA    BYTE      ?uart_init?BYTE
      000000D0H   SFRSYM    DATA     BYTE      PSW
      0000009DH   SFRSYM    DATA     BYTE      IRCBAND
      00000097H   SFRSYM    DATA     BYTE      AUXR2
      000000EFH   SFRSYM    DATA     BYTE      AUXINTIF
      000000FDH   SFRSYM    DATA     BYTE      S4CON
      000000ACH   SFRSYM    DATA     BYTE      S3CON
      0000009AH   SFRSYM    DATA     BYTE      S2CON
      000000B7H   SFRSYM    DATA     BYTE      IPH
      000000CDH   SFRSYM    DATA     BYTE      SPSTAT
      000000DDH   SFRSYM    DATA     BYTE      T4T3M
      000000C1H   SFRSYM    DATA     BYTE      WDT_CONTR
      00000088H.6 SFRSYM    DATA     BIT       TR1
      000000D7H   SFRSYM    DATA     BYTE      T2L
      000000D6H   SFRSYM    DATA     BYTE      T2H
      000000DFH   SFRSYM    DATA     BYTE      IP3
      000000F4H   SFRSYM    DATA     BYTE      USBCON
      000000B5H   SFRSYM    DATA     BYTE      IP2
      000000FFH   SFRSYM    DATA     BYTE      RSTCFG
      000000C7H   SFRSYM    DATA     BYTE      IAP_CONTR
      000000F9H   SFRSYM    DATA     BYTE      LINICR
      0000008EH   SFRSYM    DATA     BYTE      AUXR
      000000AFH   SFRSYM    DATA     BYTE      IE2
      00000088H   SFRSYM    DATA     BYTE      TCON
      00000089H   SFRSYM    DATA     BYTE      TMOD
      00000098H   SFRSYM    DATA     BYTE      SCON
      000000F1H   SFRSYM    DATA     BYTE      CANICR
      00000087H   SFRSYM    DATA     BYTE      PCON
      000000BCH   SFRSYM    DATA     BYTE      ADC_CONTR
      000000E7H   SFRSYM    DATA     BYTE      CMPCR2
      000000E6H   SFRSYM    DATA     BYTE      CMPCR1
      000000DEH   SFRSYM    DATA     BYTE      ADCCFG
      000000B8H   SFRSYM    DATA     BYTE      IP
      0000008FH   SFRSYM    DATA     BYTE      INTCLKO
      000000EEH   SFRSYM    DATA     BYTE      IP3H
      000000B6H   SFRSYM    DATA     BYTE      IP2H
      000000A8H   SFRSYM    DATA     BYTE      IE
      000000BBH   SFRSYM    DATA     BYTE      P_SW3
      000000BAH   SFRSYM    DATA     BYTE      P_SW2
      000000A2H   SFRSYM    DATA     BYTE      P_SW1
      000000CEH   SFRSYM    DATA     BYTE      SPCTL
      000000F8H   SFRSYM    DATA     BYTE      P7
      000000E8H   SFRSYM    DATA     BYTE      P6
      000000C8H   SFRSYM    DATA     BYTE      P5
      000000C0H   SFRSYM    DATA     BYTE      P4
      000000B0H   SFRSYM    DATA     BYTE      P3
      000000A0H   SFRSYM    DATA     BYTE      P2
      00000090H   SFRSYM    DATA     BYTE      P1
      00000080H   SFRSYM    DATA     BYTE      P0
      00FF7411H   SYMBOL    HCONST   ---       ?tpl?0001
      000116FDH   SYMBOL    XDATA    ---       uart_function_state

      00FF60E3H   BLOCK     CODE     ---       LVL=0
      00011BF6H   SYMBOL    XDATA    INT       index
L251 LINKER/LOCATER V4.66.93.0                                                        03/25/2026  17:12:38  PAGE 74


      00011BF8H   SYMBOL    XDATA    INT       mode
      00FF60EFH   BLOCK     CODE     NEAR LAB  LVL=1
      00011BFAH   SYMBOL    XDATA    BYTE      return_state
      ---         BLOCKEND  ---      ---       LVL=1
      00FF60E3H   LINE      CODE     ---       #86
      00FF60EFH   LINE      CODE     ---       #87
      00FF60EFH   LINE      CODE     ---       #88
      00FF60F5H   LINE      CODE     ---       #89
      00FF6112H   LINE      CODE     ---       #91
      00FF612FH   LINE      CODE     ---       #92
      00FF6131H   LINE      CODE     ---       #93
      00FF6152H   LINE      CODE     ---       #95
      00FF6158H   LINE      CODE     ---       #96
      00FF615AH   LINE      CODE     ---       #99
      00FF615FH   LINE      CODE     ---       #100
      00FF615FH   LINE      CODE     ---       #101
      00FF6163H   LINE      CODE     ---       #102
      ---         BLOCKEND  ---      ---       LVL=0

      00FF4E13H   BLOCK     CODE     ---       LVL=0
      00010C73H   SYMBOL    XDATA    INT       uart_n
      00010C75H   SYMBOL    XDATA    ---       buff
      00010C79H   SYMBOL    XDATA    WORD      len
      00FF4E29H   BLOCK     CODE     NEAR LAB  LVL=1
      00010C7BH   SYMBOL    XDATA    ---       tmp_buff
      00010CBBH   SYMBOL    XDATA    WORD      tmp_len
      ---         BLOCKEND  ---      ---       LVL=1
      00FF4E13H   LINE      CODE     ---       #111
      00FF4E29H   LINE      CODE     ---       #112
      00FF4E29H   LINE      CODE     ---       #116
      00FF4E3EH   LINE      CODE     ---       #117
      00FF4E46H   LINE      CODE     ---       #118
      00FF4E49H   LINE      CODE     ---       #120
      00FF4E69H   LINE      CODE     ---       #121
      00FF4E88H   LINE      CODE     ---       #122
      00FF4E99H   LINE      CODE     ---       #123
      00FF4EB2H   LINE      CODE     ---       #126
      00FF4ED2H   LINE      CODE     ---       #128
      00FF4EFEH   LINE      CODE     ---       #129
      00FF4F2BH   LINE      CODE     ---       #130
      00FF4F53H   LINE      CODE     ---       #131
      00FF4F77H   LINE      CODE     ---       #132
      00FF4F98H   LINE      CODE     ---       #134
      00FF4FB9H   LINE      CODE     ---       #136
      00FF4FD9H   LINE      CODE     ---       #137
      00FF4FE8H   LINE      CODE     ---       #138
      ---         BLOCKEND  ---      ---       LVL=0
      00011A36H   SYMBOL    XDATA    INT       uart_n
      00011A38H   SYMBOL    XDATA    ---       str
      00011A3CH   SYMBOL    XDATA    WORD      len

      00FF67D5H   BLOCK     CODE     ---       LVL=0
      00011CBEH   SYMBOL    XDATA    INT       uart_n
      00011CC0H   SYMBOL    XDATA    BYTE      dat
      00FF67D5H   LINE      CODE     ---       #159
      00FF67DFH   LINE      CODE     ---       #161
      00FF67F4H   LINE      CODE     ---       #162
      ---         BLOCKEND  ---      ---       LVL=0

      00FF5976H   BLOCK     CODE     ---       LVL=0
      00011CE6H   SYMBOL    XDATA    INT       uart_n
      00FF5976H   LINE      CODE     ---       #170
      00FF597CH   LINE      CODE     ---       #172
      00FF599CH   LINE      CODE     ---       #173
      00FF59BAH   LINE      CODE     ---       #174
L251 LINKER/LOCATER V4.66.93.0                                                        03/25/2026  17:12:38  PAGE 75


      00FF59E6H   LINE      CODE     ---       #175
      00FF5A16H   LINE      CODE     ---       #176
      00FF5A37H   LINE      CODE     ---       #177
      ---         BLOCKEND  ---      ---       LVL=0

      00FF6255H   BLOCK     CODE     ---       LVL=0
      00011CC1H   SYMBOL    XDATA    INT       uart_n
      00011CC3H   SYMBOL    XDATA    BYTE      status
      00FF6255H   LINE      CODE     ---       #186
      00FF625FH   LINE      CODE     ---       #188
      00FF6268H   LINE      CODE     ---       #190
      00FF6290H   LINE      CODE     ---       #191
      00FF6292H   LINE      CODE     ---       #194
      00FF62BAH   LINE      CODE     ---       #195
      00FF62BAH   LINE      CODE     ---       #196
      ---         BLOCKEND  ---      ---       LVL=0
      00011CC4H   SYMBOL    XDATA    INT       uart_n
      00011CC6H   SYMBOL    XDATA    BYTE      dat

      00FF5D95H   BLOCK     CODE     ---       LVL=0
      00011ACCH   SYMBOL    XDATA    INT       uart_n
      00011ACEH   SYMBOL    XDATA    ---       dat
      00FF5DA5H   BLOCK     CODE     NEAR LAB  LVL=1
      00011AD2H   SYMBOL    XDATA    BYTE      ret
      ---         BLOCKEND  ---      ---       LVL=1
      00FF5D95H   LINE      CODE     ---       #230
      00FF5DA5H   LINE      CODE     ---       #231
      00FF5DA5H   LINE      CODE     ---       #232
      00FF5DAAH   LINE      CODE     ---       #235
      00FF5DCAH   LINE      CODE     ---       #237
      00FF5DF1H   LINE      CODE     ---       #239
      00FF5DF7H   LINE      CODE     ---       #241
      00FF5E1FH   LINE      CODE     ---       #242
      00FF5E21H   LINE      CODE     ---       #245
      00FF5E26H   LINE      CODE     ---       #246
      00FF5E26H   LINE      CODE     ---       #249
      00FF5E2FH   LINE      CODE     ---       #251
      00FF5E33H   LINE      CODE     ---       #252
      ---         BLOCKEND  ---      ---       LVL=0

      00FF519BH   BLOCK     CODE     ---       LVL=0
      00011CE8H   SYMBOL    XDATA    INT       uart_n
      00FF519BH   LINE      CODE     ---       #260
      00FF51A1H   LINE      CODE     ---       #262
      00FF51C1H   LINE      CODE     ---       #263
      00FF51E1H   LINE      CODE     ---       #264
      00FF5201H   LINE      CODE     ---       #266
      00FF5221H   LINE      CODE     ---       #267
      00FF5241H   LINE      CODE     ---       #268
      00FF5261H   LINE      CODE     ---       #270
      00FF5281H   LINE      CODE     ---       #271
      00FF529FH   LINE      CODE     ---       #272
      00FF52CBH   LINE      CODE     ---       #273
      00FF52FBH   LINE      CODE     ---       #274
      00FF531CH   LINE      CODE     ---       #275
      00FF533DH   LINE      CODE     ---       #277
      ---         BLOCKEND  ---      ---       LVL=0

      00FF418DH   BLOCK     CODE     ---       LVL=0
      00011709H   SYMBOL    XDATA    INT       uart_n
      0001170BH   SYMBOL    XDATA    DWORD     baud
      0001170FH   SYMBOL    XDATA    INT       tx_pin
      00011711H   SYMBOL    XDATA    INT       rx_pin
      00FF41A3H   BLOCK     CODE     NEAR LAB  LVL=1
      00011713H   SYMBOL    XDATA    WORD      brt
L251 LINKER/LOCATER V4.66.93.0                                                        03/25/2026  17:12:38  PAGE 76


      ---         BLOCKEND  ---      ---       LVL=1
      00FF418DH   LINE      CODE     ---       #289
      00FF41A3H   LINE      CODE     ---       #290
      00FF41A3H   LINE      CODE     ---       #299
      00FF41BFH   LINE      CODE     ---       #306
      00FF41D9H   LINE      CODE     ---       #311
      00FF420FH   LINE      CODE     ---       #314
      00FF4228H   LINE      CODE     ---       #315
      00FF423FH   LINE      CODE     ---       #317
      00FF427AH   LINE      CODE     ---       #319
      00FF429EH   LINE      CODE     ---       #321
      00FF429EH   LINE      CODE     ---       #335
      00FF42A1H   LINE      CODE     ---       #336
      00FF42A9H   LINE      CODE     ---       #337
      00FF42B5H   LINE      CODE     ---       #338
      00FF42B8H   LINE      CODE     ---       #339
      00FF42BBH   LINE      CODE     ---       #342
      00FF42BEH   LINE      CODE     ---       #344
      00FF42DAH   LINE      CODE     ---       #346
      00FF42DEH   LINE      CODE     ---       #347
      00FF42E1H   LINE      CODE     ---       #348
      00FF42FDH   LINE      CODE     ---       #350
      00FF4300H   LINE      CODE     ---       #351
      00FF4303H   LINE      CODE     ---       #352
      00FF431FH   LINE      CODE     ---       #354
      00FF4322H   LINE      CODE     ---       #355
      00FF4325H   LINE      CODE     ---       #356
      00FF4347H   LINE      CODE     ---       #358
      00FF434AH   LINE      CODE     ---       #359
      00FF434AH   LINE      CODE     ---       #362
      00FF434DH   LINE      CODE     ---       #365
      00FF434DH   LINE      CODE     ---       #369
      00FF4350H   LINE      CODE     ---       #370
      00FF4358H   LINE      CODE     ---       #371
      00FF4364H   LINE      CODE     ---       #372
      00FF4367H   LINE      CODE     ---       #375
      00FF436AH   LINE      CODE     ---       #377
      00FF4386H   LINE      CODE     ---       #379
      00FF438AH   LINE      CODE     ---       #380
      00FF438DH   LINE      CODE     ---       #381
      00FF43AFH   LINE      CODE     ---       #383
      00FF43B2H   LINE      CODE     ---       #384
      00FF43B2H   LINE      CODE     ---       #388
      00FF43B5H   LINE      CODE     ---       #391
      00FF43B5H   LINE      CODE     ---       #395
      00FF43B8H   LINE      CODE     ---       #396
      00FF43C0H   LINE      CODE     ---       #397
      00FF43CCH   LINE      CODE     ---       #398
      00FF43CFH   LINE      CODE     ---       #408
      00FF43D2H   LINE      CODE     ---       #410
      00FF43EEH   LINE      CODE     ---       #412
      00FF43F2H   LINE      CODE     ---       #413
      00FF43F5H   LINE      CODE     ---       #414
      00FF4411H   LINE      CODE     ---       #416
      00FF4414H   LINE      CODE     ---       #417
      00FF4414H   LINE      CODE     ---       #421
      00FF4416H   LINE      CODE     ---       #424
      00FF4416H   LINE      CODE     ---       #428
      00FF4419H   LINE      CODE     ---       #429
      00FF4421H   LINE      CODE     ---       #430
      00FF442DH   LINE      CODE     ---       #431
      00FF4430H   LINE      CODE     ---       #441
      00FF4433H   LINE      CODE     ---       #443
      00FF444FH   LINE      CODE     ---       #445
      00FF4453H   LINE      CODE     ---       #446
L251 LINKER/LOCATER V4.66.93.0                                                        03/25/2026  17:12:38  PAGE 77


      00FF4455H   LINE      CODE     ---       #447
      00FF4471H   LINE      CODE     ---       #451
      00FF4474H   LINE      CODE     ---       #452
      00FF4474H   LINE      CODE     ---       #456
      00FF4474H   LINE      CODE     ---       #459
      00FF4474H   LINE      CODE     ---       #462
      00FF447DH   LINE      CODE     ---       #464
      ---         BLOCKEND  ---      ---       LVL=0

      ---         MODULE    ---      ---       zf_device_ble6a20
      000000D0H   SFRSYM    DATA     BYTE      PSW
      0000009DH   SFRSYM    DATA     BYTE      IRCBAND
      00000097H   SFRSYM    DATA     BYTE      AUXR2
      000000EFH   SFRSYM    DATA     BYTE      AUXINTIF
      000000FDH   SFRSYM    DATA     BYTE      S4CON
      000000ACH   SFRSYM    DATA     BYTE      S3CON
      0000009AH   SFRSYM    DATA     BYTE      S2CON
      000000B7H   SFRSYM    DATA     BYTE      IPH
      000000CDH   SFRSYM    DATA     BYTE      SPSTAT
      000000DDH   SFRSYM    DATA     BYTE      T4T3M
      000000C1H   SFRSYM    DATA     BYTE      WDT_CONTR
      000000DFH   SFRSYM    DATA     BYTE      IP3
      000000F4H   SFRSYM    DATA     BYTE      USBCON
      000000B5H   SFRSYM    DATA     BYTE      IP2
      000000FFH   SFRSYM    DATA     BYTE      RSTCFG
      000000C7H   SFRSYM    DATA     BYTE      IAP_CONTR
      000000F9H   SFRSYM    DATA     BYTE      LINICR
      0000008EH   SFRSYM    DATA     BYTE      AUXR
      000000AFH   SFRSYM    DATA     BYTE      IE2
      00000088H   SFRSYM    DATA     BYTE      TCON
      00000089H   SFRSYM    DATA     BYTE      TMOD
      00000098H   SFRSYM    DATA     BYTE      SCON
      000000F1H   SFRSYM    DATA     BYTE      CANICR
      00000087H   SFRSYM    DATA     BYTE      PCON
      000000BCH   SFRSYM    DATA     BYTE      ADC_CONTR
      000000E7H   SFRSYM    DATA     BYTE      CMPCR2
      000000E6H   SFRSYM    DATA     BYTE      CMPCR1
      000000DEH   SFRSYM    DATA     BYTE      ADCCFG
      000000B8H   SFRSYM    DATA     BYTE      IP
      0000008FH   SFRSYM    DATA     BYTE      INTCLKO
      000000EEH   SFRSYM    DATA     BYTE      IP3H
      000000B6H   SFRSYM    DATA     BYTE      IP2H
      000000A8H   SFRSYM    DATA     BYTE      IE
      000000BBH   SFRSYM    DATA     BYTE      P_SW3
      000000BAH   SFRSYM    DATA     BYTE      P_SW2
      000000A2H   SFRSYM    DATA     BYTE      P_SW1
      000000CEH   SFRSYM    DATA     BYTE      SPCTL
      000000F8H   SFRSYM    DATA     BYTE      P7
      000000E8H   SFRSYM    DATA     BYTE      P6
      000000C8H   SFRSYM    DATA     BYTE      P5
      000000C0H   SFRSYM    DATA     BYTE      P4
      000000B0H   SFRSYM    DATA     BYTE      P3
      000000A0H   SFRSYM    DATA     BYTE      P2
      00000090H   SFRSYM    DATA     BYTE      P1
      00000080H   SFRSYM    DATA     BYTE      P0
      00010ADAH   SYMBOL    XDATA    ---       ble6a20_buffer
      00010B1AH   SYMBOL    XDATA    ---       ble6a20_fifo
      00011CC7H   SYMBOL    XDATA    BYTE      dat
      00011CC8H   SYMBOL    XDATA    WORD      time_cnt
      00011715H   SYMBOL    XDATA    ---       buff
      00011719H   SYMBOL    XDATA    DWORD     len
      0001171DH   SYMBOL    XDATA    WORD      time_cnt
      0001171FH   SYMBOL    XDATA    WORD      send_len
      00011A3EH   SYMBOL    XDATA    ---       str
      00011A42H   SYMBOL    XDATA    DWORD     len
L251 LINKER/LOCATER V4.66.93.0                                                        03/25/2026  17:12:38  PAGE 78


      00011721H   SYMBOL    XDATA    ---       buff
      00011725H   SYMBOL    XDATA    DWORD     len
      00011729H   SYMBOL    XDATA    DWORD     data_len
      00011D27H   SYMBOL    XDATA    BYTE      uart_dat
      00011D28H   SYMBOL    XDATA    BYTE      return_state

      ---         MODULE    ---      ---       zf_device_config
      00FF01CEH   PUBLIC    CODE     ---       imu660ra_config_file

      ---         MODULE    ---      ---       zf_device_dl1a
      00011627H   PUBLIC    XDATA    WORD      dl1a_distance_mm
      00011629H   PUBLIC    XDATA    BYTE      dl1a_finsh_flag
      000000D0H   SFRSYM    DATA     BYTE      PSW
      0000009DH   SFRSYM    DATA     BYTE      IRCBAND
      00000097H   SFRSYM    DATA     BYTE      AUXR2
      000000EFH   SFRSYM    DATA     BYTE      AUXINTIF
      000000FDH   SFRSYM    DATA     BYTE      S4CON
      000000ACH   SFRSYM    DATA     BYTE      S3CON
      0000009AH   SFRSYM    DATA     BYTE      S2CON
      000000B7H   SFRSYM    DATA     BYTE      IPH
      000000CDH   SFRSYM    DATA     BYTE      SPSTAT
      000000DDH   SFRSYM    DATA     BYTE      T4T3M
      000000C1H   SFRSYM    DATA     BYTE      WDT_CONTR
      000000DFH   SFRSYM    DATA     BYTE      IP3
      000000F4H   SFRSYM    DATA     BYTE      USBCON
      000000B5H   SFRSYM    DATA     BYTE      IP2
      000000FFH   SFRSYM    DATA     BYTE      RSTCFG
      000000C7H   SFRSYM    DATA     BYTE      IAP_CONTR
      000000F9H   SFRSYM    DATA     BYTE      LINICR
      0000008EH   SFRSYM    DATA     BYTE      AUXR
      000000AFH   SFRSYM    DATA     BYTE      IE2
      00000088H   SFRSYM    DATA     BYTE      TCON
      00000089H   SFRSYM    DATA     BYTE      TMOD
      00000098H   SFRSYM    DATA     BYTE      SCON
      000000F1H   SFRSYM    DATA     BYTE      CANICR
      00000087H   SFRSYM    DATA     BYTE      PCON
      000000BCH   SFRSYM    DATA     BYTE      ADC_CONTR
      000000E7H   SFRSYM    DATA     BYTE      CMPCR2
      000000E6H   SFRSYM    DATA     BYTE      CMPCR1
      000000DEH   SFRSYM    DATA     BYTE      ADCCFG
      000000B8H   SFRSYM    DATA     BYTE      IP
      0000008FH   SFRSYM    DATA     BYTE      INTCLKO
      000000EEH   SFRSYM    DATA     BYTE      IP3H
      000000B6H   SFRSYM    DATA     BYTE      IP2H
      000000A8H   SFRSYM    DATA     BYTE      IE
      000000BBH   SFRSYM    DATA     BYTE      P_SW3
      000000BAH   SFRSYM    DATA     BYTE      P_SW2
      000000A2H   SFRSYM    DATA     BYTE      P_SW1
      000000CEH   SFRSYM    DATA     BYTE      SPCTL
      000000F8H   SFRSYM    DATA     BYTE      P7
      000000E8H   SFRSYM    DATA     BYTE      P6
      000000C8H   SFRSYM    DATA     BYTE      P5
      000000C0H   SFRSYM    DATA     BYTE      P4
      000000B0H   SFRSYM    DATA     BYTE      P3
      000000A0H   SFRSYM    DATA     BYTE      P2
      00000090H   SFRSYM    DATA     BYTE      P1
      00000080H   SFRSYM    DATA     BYTE      P0
      00FF6F5FH   SYMBOL    HCONST   ---       ?tpl?0001
      00FF6F67H   SYMBOL    HCONST   ---       ?tpl?0002
      00FF6F6DH   SYMBOL    HCONST   ---       ?tpl?0003
      00FF6F77H   SYMBOL    HCONST   ---       ?tpl?0004
      0001161EH   SYMBOL    XDATA    ---       dl1a_iic_struct
      0001162AH   SYMBOL    XDATA    BYTE      dl1a_init_flag
      0001172DH   SYMBOL    XDATA    ---       index
      00011731H   SYMBOL    XDATA    ---       type_is_aperture
L251 LINKER/LOCATER V4.66.93.0                                                        03/25/2026  17:12:38  PAGE 79


      00011735H   SYMBOL    XDATA    BYTE      tmp
      00011736H   SYMBOL    XDATA    BYTE      return_state
      00011737H   SYMBOL    XDATA    WORD      loop_count
      00011AD3H   SYMBOL    XDATA    WORD      timeout_period_mclks
      00011AD5H   SYMBOL    XDATA    BYTE      vcsel_period_pclks
      00011AD6H   SYMBOL    XDATA    DWORD     macro_period_ns
      000118D3H   SYMBOL    XDATA    DWORD     timeout_period_us
      000118D7H   SYMBOL    XDATA    BYTE      vcsel_period_pclks
      000118D8H   SYMBOL    XDATA    DWORD     macro_period_ns
      00011CEAH   SYMBOL    XDATA    WORD      reg_val
      00011CECH   SYMBOL    XDATA    WORD      timeout_mclks
      00000008H   SYMBOL    EDATA    DWORD     ls_byte
      0000000CH   SYMBOL    EDATA    WORD      ms_byte
      0000000EH   SYMBOL    EDATA    WORD      return_data
      00011BFBH   SYMBOL    XDATA    ---       enables
      00011BFFH   SYMBOL    XDATA    BYTE      sequence_config
      00011CCAH   SYMBOL    XDATA    INT       type
      00011CCCH   SYMBOL    XDATA    BYTE      data_buffer
      00011739H   SYMBOL    XDATA    ---       enables
      0001173DH   SYMBOL    XDATA    ---       timeouts
      00011741H   SYMBOL    XDATA    ---       reg_buffer
      00011743H   SYMBOL    XDATA    WORD      reg16_buffer
      00011C00H   SYMBOL    XDATA    BYTE      vhv_init_byte
      00011C01H   SYMBOL    XDATA    BYTE      return_state
      00011C02H   SYMBOL    XDATA    BYTE      data_buffer
      00011C03H   SYMBOL    XDATA    WORD      loop_count
      00010E39H   SYMBOL    XDATA    DWORD     budget_us
      00010E3DH   SYMBOL    XDATA    BYTE      return_state
      00010E3EH   SYMBOL    XDATA    ---       data_buffer
      00010E41H   SYMBOL    XDATA    WORD      dat
      00010E43H   SYMBOL    XDATA    DWORD     final_range_timeout_us
      00010E47H   SYMBOL    XDATA    WORD      final_range_timeout_mclks
      00010E49H   SYMBOL    XDATA    ---       enables
      00010E4EH   SYMBOL    XDATA    ---       timeouts
      00010E64H   SYMBOL    XDATA    DWORD     used_budget_us
      00011062H   SYMBOL    XDATA    ---       enables
      00011067H   SYMBOL    XDATA    ---       timeouts
      0001107DH   SYMBOL    XDATA    DWORD     budget_us
      000118DCH   SYMBOL    XDATA    FLOAT     limit_mcps
      000118E0H   SYMBOL    XDATA    ---       data_buffer
      000118E3H   SYMBOL    XDATA    WORD      limit_mcps_16bit
      00011CCDH   SYMBOL    XDATA    ---       reg_databuffer
      00010830H   SYMBOL    XDATA    DWORD     measurement_timing_budget_us
      00010834H   SYMBOL    XDATA    BYTE      stop_variable
      00010835H   SYMBOL    XDATA    BYTE      return_state
      00010836H   SYMBOL    XDATA    BYTE      reg_data_buffer
      00010837H   SYMBOL    XDATA    ---       ref_spad_map
      0001083DH   SYMBOL    XDATA    ---       data_buffer
      00010844H   SYMBOL    XDATA    WORD      i
      00010846H   SYMBOL    XDATA    ---       temp_buff1
      0001084EH   SYMBOL    XDATA    ---       temp_buff2
      00010854H   SYMBOL    XDATA    ---       temp_buff3
      0001085EH   SYMBOL    XDATA    ---       temp_buff4

      ---         MODULE    ---      ---       zf_device_dl1b
      00011634H   PUBLIC    XDATA    WORD      dl1b_distance_mm
      00011636H   PUBLIC    XDATA    BYTE      dl1b_finsh_flag
      000000D0H   SFRSYM    DATA     BYTE      PSW
      0000009DH   SFRSYM    DATA     BYTE      IRCBAND
      00000097H   SFRSYM    DATA     BYTE      AUXR2
      000000EFH   SFRSYM    DATA     BYTE      AUXINTIF
      000000FDH   SFRSYM    DATA     BYTE      S4CON
      000000ACH   SFRSYM    DATA     BYTE      S3CON
      0000009AH   SFRSYM    DATA     BYTE      S2CON
      000000B7H   SFRSYM    DATA     BYTE      IPH
L251 LINKER/LOCATER V4.66.93.0                                                        03/25/2026  17:12:38  PAGE 80


      000000CDH   SFRSYM    DATA     BYTE      SPSTAT
      000000DDH   SFRSYM    DATA     BYTE      T4T3M
      000000C1H   SFRSYM    DATA     BYTE      WDT_CONTR
      000000DFH   SFRSYM    DATA     BYTE      IP3
      000000F4H   SFRSYM    DATA     BYTE      USBCON
      000000B5H   SFRSYM    DATA     BYTE      IP2
      000000FFH   SFRSYM    DATA     BYTE      RSTCFG
      000000C7H   SFRSYM    DATA     BYTE      IAP_CONTR
      000000F9H   SFRSYM    DATA     BYTE      LINICR
      0000008EH   SFRSYM    DATA     BYTE      AUXR
      000000AFH   SFRSYM    DATA     BYTE      IE2
      00000088H   SFRSYM    DATA     BYTE      TCON
      00000089H   SFRSYM    DATA     BYTE      TMOD
      00000098H   SFRSYM    DATA     BYTE      SCON
      000000F1H   SFRSYM    DATA     BYTE      CANICR
      00000087H   SFRSYM    DATA     BYTE      PCON
      000000BCH   SFRSYM    DATA     BYTE      ADC_CONTR
      000000E7H   SFRSYM    DATA     BYTE      CMPCR2
      000000E6H   SFRSYM    DATA     BYTE      CMPCR1
      000000DEH   SFRSYM    DATA     BYTE      ADCCFG
      000000B8H   SFRSYM    DATA     BYTE      IP
      0000008FH   SFRSYM    DATA     BYTE      INTCLKO
      000000EEH   SFRSYM    DATA     BYTE      IP3H
      000000B6H   SFRSYM    DATA     BYTE      IP2H
      000000A8H   SFRSYM    DATA     BYTE      IE
      000000BBH   SFRSYM    DATA     BYTE      P_SW3
      000000BAH   SFRSYM    DATA     BYTE      P_SW2
      000000A2H   SFRSYM    DATA     BYTE      P_SW1
      000000CEH   SFRSYM    DATA     BYTE      SPCTL
      000000F8H   SFRSYM    DATA     BYTE      P7
      000000E8H   SFRSYM    DATA     BYTE      P6
      000000C8H   SFRSYM    DATA     BYTE      P5
      000000C0H   SFRSYM    DATA     BYTE      P4
      000000B0H   SFRSYM    DATA     BYTE      P3
      000000A0H   SFRSYM    DATA     BYTE      P2
      00000090H   SFRSYM    DATA     BYTE      P1
      00000080H   SFRSYM    DATA     BYTE      P0
      0001162BH   SYMBOL    XDATA    ---       dl1b_iic_struct
      00011637H   SYMBOL    XDATA    BYTE      dl1b_init_flag
      00011C05H   SYMBOL    XDATA    ---       data_buffer
      00011C08H   SYMBOL    XDATA    INT       dl1b_distance_temp
      00011D29H   SYMBOL    XDATA    BYTE      return_state

      ---         MODULE    ---      ---       zf_device_gps_tau1201
      00010423H   PUBLIC    XDATA    BYTE      gps_tau1201_flag
      000104A4H   PUBLIC    XDATA    ---       gps_tau1201
      000105D0H   PUBLIC    XDATA    INT       gps_gga_state
      000105D2H   PUBLIC    XDATA    INT       gps_rmc_state
      00010D79H   PUBLIC    XDATA    BYTE      ?get_two_points_distance?BYTE
      00011118H   PUBLIC    XDATA    BYTE      ?get_two_points_azimuth?BYTE
      000000D0H   SFRSYM    DATA     BYTE      PSW
      0000009DH   SFRSYM    DATA     BYTE      IRCBAND
      00000097H   SFRSYM    DATA     BYTE      AUXR2
      000000EFH   SFRSYM    DATA     BYTE      AUXINTIF
      000000FDH   SFRSYM    DATA     BYTE      S4CON
      000000ACH   SFRSYM    DATA     BYTE      S3CON
      0000009AH   SFRSYM    DATA     BYTE      S2CON
      000000B7H   SFRSYM    DATA     BYTE      IPH
      000000CDH   SFRSYM    DATA     BYTE      SPSTAT
      000000DDH   SFRSYM    DATA     BYTE      T4T3M
      000000C1H   SFRSYM    DATA     BYTE      WDT_CONTR
      000000DFH   SFRSYM    DATA     BYTE      IP3
      000000F4H   SFRSYM    DATA     BYTE      USBCON
      000000B5H   SFRSYM    DATA     BYTE      IP2
      000000FFH   SFRSYM    DATA     BYTE      RSTCFG
L251 LINKER/LOCATER V4.66.93.0                                                        03/25/2026  17:12:38  PAGE 81


      000000C7H   SFRSYM    DATA     BYTE      IAP_CONTR
      000000F9H   SFRSYM    DATA     BYTE      LINICR
      0000008EH   SFRSYM    DATA     BYTE      AUXR
      000000AFH   SFRSYM    DATA     BYTE      IE2
      00000088H   SFRSYM    DATA     BYTE      TCON
      00000089H   SFRSYM    DATA     BYTE      TMOD
      00000098H   SFRSYM    DATA     BYTE      SCON
      000000F1H   SFRSYM    DATA     BYTE      CANICR
      00000087H   SFRSYM    DATA     BYTE      PCON
      000000BCH   SFRSYM    DATA     BYTE      ADC_CONTR
      000000E7H   SFRSYM    DATA     BYTE      CMPCR2
      000000E6H   SFRSYM    DATA     BYTE      CMPCR1
      000000DEH   SFRSYM    DATA     BYTE      ADCCFG
      000000B8H   SFRSYM    DATA     BYTE      IP
      0000008FH   SFRSYM    DATA     BYTE      INTCLKO
      000000EEH   SFRSYM    DATA     BYTE      IP3H
      000000B6H   SFRSYM    DATA     BYTE      IP2H
      000000A8H   SFRSYM    DATA     BYTE      IE
      000000BBH   SFRSYM    DATA     BYTE      P_SW3
      000000BAH   SFRSYM    DATA     BYTE      P_SW2
      000000A2H   SFRSYM    DATA     BYTE      P_SW1
      000000CEH   SFRSYM    DATA     BYTE      SPCTL
      000000F8H   SFRSYM    DATA     BYTE      P7
      000000E8H   SFRSYM    DATA     BYTE      P6
      000000C8H   SFRSYM    DATA     BYTE      P5
      000000C0H   SFRSYM    DATA     BYTE      P4
      000000B0H   SFRSYM    DATA     BYTE      P3
      000000A0H   SFRSYM    DATA     BYTE      P2
      00000090H   SFRSYM    DATA     BYTE      P1
      00000080H   SFRSYM    DATA     BYTE      P0
      00FF723AH   SYMBOL    HCONST   ---       ?tpl?0001
      00FF723FH   SYMBOL    HCONST   ---       ?tpl?0002
      00FF725BH   SYMBOL    HCONST   ---       ?tpl?0003
      00FF7266H   SYMBOL    HCONST   ---       ?tpl?0004
      00FF7271H   SYMBOL    HCONST   ---       ?tpl?0005
      00FF727CH   SYMBOL    HCONST   ---       ?tpl?0006
      00FF7287H   SYMBOL    HCONST   ---       ?tpl?0007
      00FF7292H   SYMBOL    HCONST   ---       ?tpl?0008
      00FF729DH   SYMBOL    HCONST   ---       ?tpl?0009
      00FF72A8H   SYMBOL    HCONST   ---       ?tpl?000A
      00FF72B3H   SYMBOL    HCONST   ---       ?tpl?000B
      00FF72BEH   SYMBOL    HCONST   ---       ?tpl?000C
      00FF72C9H   SYMBOL    HCONST   ---       ?tpl?000D
      0001040CH   SYMBOL    XDATA    ---       gps_tau1201_receiver_fifo
      00010424H   SYMBOL    XDATA    ---       gps_gga_buffer
      000104CFH   SYMBOL    XDATA    BYTE      gps_tau1201_state
      000104D0H   SYMBOL    XDATA    ---       gps_rmc_buffer
      00010550H   SYMBOL    XDATA    ---       gps_tau1201_receiver_buffer
      00011638H   SYMBOL    XDATA    BYTE      num
      00011639H   SYMBOL    XDATA    ---       str
      0001163DH   SYMBOL    XDATA    BYTE      i
      0001163EH   SYMBOL    XDATA    BYTE      j
      0001163FH   SYMBOL    XDATA    ---       temp
      00011643H   SYMBOL    XDATA    BYTE      len
      00011644H   SYMBOL    XDATA    BYTE      len1
      000113BDH   SYMBOL    XDATA    ---       s
      000113C1H   SYMBOL    XDATA    ---       buf
      000113CBH   SYMBOL    XDATA    BYTE      i
      000113CCH   SYMBOL    XDATA    INT       return_value
      000111E6H   SYMBOL    XDATA    ---       s
      000111EAH   SYMBOL    XDATA    BYTE      i
      000111EBH   SYMBOL    XDATA    ---       buf
      000111FAH   SYMBOL    XDATA    FLOAT     return_value
      000111FEH   SYMBOL    XDATA    ---       s
      00011202H   SYMBOL    XDATA    BYTE      i
L251 LINKER/LOCATER V4.66.93.0                                                        03/25/2026  17:12:38  PAGE 82


      00011203H   SYMBOL    XDATA    ---       buf
      00011212H   SYMBOL    XDATA    FLOAT     return_value
      00011C0AH   SYMBOL    XDATA    ---       time
      00011C0EH   SYMBOL    XDATA    BYTE      day_num
      00010EECH   SYMBOL    XDATA    ---       line
      00010EF0H   SYMBOL    XDATA    ---       gps
      00010EF4H   SYMBOL    XDATA    BYTE      state
      00010EF5H   SYMBOL    XDATA    BYTE      temp
      00010EF6H   SYMBOL    XDATA    FLOAT     latitude
      00010EFAH   SYMBOL    XDATA    FLOAT     longitude
      00010EFEH   SYMBOL    XDATA    FLOAT     lati_cent_tmp
      00010F02H   SYMBOL    XDATA    FLOAT     lati_second_tmp
      00010F06H   SYMBOL    XDATA    FLOAT     long_cent_tmp
      00010F0AH   SYMBOL    XDATA    FLOAT     long_second_tmp
      00010F0EH   SYMBOL    XDATA    FLOAT     speed_tmp
      00010F12H   SYMBOL    XDATA    ---       buf
      00010F16H   SYMBOL    XDATA    BYTE      return_state
      0001157CH   SYMBOL    XDATA    ---       line
      00011580H   SYMBOL    XDATA    ---       gps
      00011584H   SYMBOL    XDATA    BYTE      state
      00011585H   SYMBOL    XDATA    ---       buf
      00011589H   SYMBOL    XDATA    BYTE      return_state
      00010D79H   SYMBOL    XDATA    FLOAT     latitude1
      00010D7DH   SYMBOL    XDATA    FLOAT     longitude1
      00010D81H   SYMBOL    XDATA    FLOAT     latitude2
      00010D85H   SYMBOL    XDATA    FLOAT     longitude2
      00010D89H   SYMBOL    XDATA    FLOAT     EARTH_RADIUS
      00010D8DH   SYMBOL    XDATA    FLOAT     rad_latitude1
      00010D91H   SYMBOL    XDATA    FLOAT     rad_latitude2
      00010D95H   SYMBOL    XDATA    FLOAT     rad_longitude1
      00010D99H   SYMBOL    XDATA    FLOAT     rad_longitude2
      00010D9DH   SYMBOL    XDATA    FLOAT     distance
      00010DA1H   SYMBOL    XDATA    FLOAT     a
      00010DA5H   SYMBOL    XDATA    FLOAT     b
      00011118H   SYMBOL    XDATA    FLOAT     latitude1
      0001111CH   SYMBOL    XDATA    FLOAT     longitude1
      00011120H   SYMBOL    XDATA    FLOAT     latitude2
      00011124H   SYMBOL    XDATA    FLOAT     longitude2
      00011128H   SYMBOL    XDATA    FLOAT     x
      0001112CH   SYMBOL    XDATA    FLOAT     y
      00011130H   SYMBOL    XDATA    FLOAT     angle
      00011745H   SYMBOL    XDATA    BYTE      return_state
      00011746H   SYMBOL    XDATA    ---       check_buffer
      0001174BH   SYMBOL    XDATA    BYTE      bbc_xor_origin
      0001174CH   SYMBOL    XDATA    BYTE      bbc_xor_calculation
      0001174DH   SYMBOL    XDATA    DWORD     data_len
      00011831H   SYMBOL    XDATA    BYTE      uart_dat
      00011832H   SYMBOL    XDATA    ---       temp_gps
      00011838H   SYMBOL    XDATA    DWORD     temp_length
      000108FEH   SYMBOL    XDATA    ---       set_rate
      0001091AH   SYMBOL    XDATA    ---       open_gga
      00010925H   SYMBOL    XDATA    ---       open_rmc
      00010930H   SYMBOL    XDATA    ---       close_gll
      0001093BH   SYMBOL    XDATA    ---       close_gsa
      00010946H   SYMBOL    XDATA    ---       close_grs
      00010951H   SYMBOL    XDATA    ---       close_gsv
      0001095CH   SYMBOL    XDATA    ---       close_vtg
      00010967H   SYMBOL    XDATA    ---       close_zda
      00010972H   SYMBOL    XDATA    ---       close_gst
      0001097DH   SYMBOL    XDATA    ---       close_txt
      00010988H   SYMBOL    XDATA    ---       close_txt_ant

      ---         MODULE    ---      ---       zf_device_icm20602
      000112B8H   PUBLIC    XDATA    INT       icm20602_acc_x
      000112BAH   PUBLIC    XDATA    INT       icm20602_acc_y
L251 LINKER/LOCATER V4.66.93.0                                                        03/25/2026  17:12:38  PAGE 83


      000112BCH   PUBLIC    XDATA    INT       icm20602_acc_z
      000112BEH   PUBLIC    XDATA    INT       icm20602_gyro_x
      000112C0H   PUBLIC    XDATA    INT       icm20602_gyro_y
      000112C2H   PUBLIC    XDATA    INT       icm20602_gyro_z
      000112C4H   PUBLIC    XDATA    ---       icm20602_transition_factor
      000000D0H   SFRSYM    DATA     BYTE      PSW
      0000009DH   SFRSYM    DATA     BYTE      IRCBAND
      00000097H   SFRSYM    DATA     BYTE      AUXR2
      000000EFH   SFRSYM    DATA     BYTE      AUXINTIF
      000000FDH   SFRSYM    DATA     BYTE      S4CON
      000000ACH   SFRSYM    DATA     BYTE      S3CON
      0000009AH   SFRSYM    DATA     BYTE      S2CON
      000000B7H   SFRSYM    DATA     BYTE      IPH
      000000CDH   SFRSYM    DATA     BYTE      SPSTAT
      000000DDH   SFRSYM    DATA     BYTE      T4T3M
      000000C1H   SFRSYM    DATA     BYTE      WDT_CONTR
      000000DFH   SFRSYM    DATA     BYTE      IP3
      000000F4H   SFRSYM    DATA     BYTE      USBCON
      000000B5H   SFRSYM    DATA     BYTE      IP2
      000000FFH   SFRSYM    DATA     BYTE      RSTCFG
      000000C7H   SFRSYM    DATA     BYTE      IAP_CONTR
      000000F9H   SFRSYM    DATA     BYTE      LINICR
      0000008EH   SFRSYM    DATA     BYTE      AUXR
      000000AFH   SFRSYM    DATA     BYTE      IE2
      000000C0H.3 SFRSYM    DATA     BIT       P43
      000000C0H.2 SFRSYM    DATA     BIT       P42
      00000088H   SFRSYM    DATA     BYTE      TCON
      00000089H   SFRSYM    DATA     BYTE      TMOD
      000000C0H.1 SFRSYM    DATA     BIT       P41
      00000098H   SFRSYM    DATA     BYTE      SCON
      000000C0H.0 SFRSYM    DATA     BIT       P40
      000000F1H   SFRSYM    DATA     BYTE      CANICR
      00000087H   SFRSYM    DATA     BYTE      PCON
      000000BCH   SFRSYM    DATA     BYTE      ADC_CONTR
      000000E7H   SFRSYM    DATA     BYTE      CMPCR2
      000000E6H   SFRSYM    DATA     BYTE      CMPCR1
      000000DEH   SFRSYM    DATA     BYTE      ADCCFG
      000000B8H   SFRSYM    DATA     BYTE      IP
      0000008FH   SFRSYM    DATA     BYTE      INTCLKO
      000000EEH   SFRSYM    DATA     BYTE      IP3H
      000000B6H   SFRSYM    DATA     BYTE      IP2H
      000000A8H   SFRSYM    DATA     BYTE      IE
      000000BBH   SFRSYM    DATA     BYTE      P_SW3
      000000BAH   SFRSYM    DATA     BYTE      P_SW2
      000000A2H   SFRSYM    DATA     BYTE      P_SW1
      000000CEH   SFRSYM    DATA     BYTE      SPCTL
      000000F8H   SFRSYM    DATA     BYTE      P7
      000000E8H   SFRSYM    DATA     BYTE      P6
      000000C8H   SFRSYM    DATA     BYTE      P5
      000000C0H   SFRSYM    DATA     BYTE      P4
      000000B0H   SFRSYM    DATA     BYTE      P3
      000000A0H   SFRSYM    DATA     BYTE      P2
      00000090H   SFRSYM    DATA     BYTE      P1
      00000080H   SFRSYM    DATA     BYTE      P0
      00011CEEH   SYMBOL    XDATA    BYTE      byte
      00011CEFH   SYMBOL    XDATA    BYTE      i
      00011CF0H   SYMBOL    XDATA    BYTE      cmd
      00011CF1H   SYMBOL    XDATA    BYTE      val
      00011C0FH   SYMBOL    XDATA    BYTE      cmd
      00011C10H   SYMBOL    XDATA    ---       val
      000118E5H   SYMBOL    XDATA    BYTE      cmd
      000118E6H   SYMBOL    XDATA    ---       val
      000118EAH   SYMBOL    XDATA    DWORD     num
      00000010H   SYMBOL    EDATA    DWORD     i
      00011CF2H   SYMBOL    XDATA    BYTE      reg
L251 LINKER/LOCATER V4.66.93.0                                                        03/25/2026  17:12:38  PAGE 84


      00011CF3H   SYMBOL    XDATA    BYTE      dat
      00011CF4H   SYMBOL    XDATA    BYTE      reg
      00011CF5H   SYMBOL    XDATA    BYTE      dat
      000118EEH   SYMBOL    XDATA    BYTE      reg
      000118EFH   SYMBOL    XDATA    ---       dat
      000118F3H   SYMBOL    XDATA    DWORD     len
      00011C6EH   SYMBOL    XDATA    BYTE      dat
      00011C6FH   SYMBOL    XDATA    BYTE      return_state
      00011C70H   SYMBOL    XDATA    WORD      timeout_count
      00011B48H   SYMBOL    XDATA    ---       dat
      00011B4EH   SYMBOL    XDATA    ---       dat
      00011C72H   SYMBOL    XDATA    BYTE      val
      00011C73H   SYMBOL    XDATA    BYTE      return_state
      00011C74H   SYMBOL    XDATA    WORD      timeout_count

      ---         MODULE    ---      ---       zf_device_imu660ra
      000112CCH   PUBLIC    XDATA    INT       imu660ra_acc_x
      000112CEH   PUBLIC    XDATA    INT       imu660ra_acc_y
      000112D0H   PUBLIC    XDATA    INT       imu660ra_acc_z
      000112D2H   PUBLIC    XDATA    INT       imu660ra_gyro_x
      000112D4H   PUBLIC    XDATA    INT       imu660ra_gyro_y
      000112D6H   PUBLIC    XDATA    INT       imu660ra_gyro_z
      000112D8H   PUBLIC    XDATA    ---       imu660ra_transition_factor
      000000D0H   SFRSYM    DATA     BYTE      PSW
      0000009DH   SFRSYM    DATA     BYTE      IRCBAND
      00000097H   SFRSYM    DATA     BYTE      AUXR2
      000000EFH   SFRSYM    DATA     BYTE      AUXINTIF
      000000FDH   SFRSYM    DATA     BYTE      S4CON
      000000ACH   SFRSYM    DATA     BYTE      S3CON
      0000009AH   SFRSYM    DATA     BYTE      S2CON
      000000B7H   SFRSYM    DATA     BYTE      IPH
      000000CDH   SFRSYM    DATA     BYTE      SPSTAT
      000000DDH   SFRSYM    DATA     BYTE      T4T3M
      000000C1H   SFRSYM    DATA     BYTE      WDT_CONTR
      000000DFH   SFRSYM    DATA     BYTE      IP3
      000000F4H   SFRSYM    DATA     BYTE      USBCON
      000000B5H   SFRSYM    DATA     BYTE      IP2
      000000FFH   SFRSYM    DATA     BYTE      RSTCFG
      000000C7H   SFRSYM    DATA     BYTE      IAP_CONTR
      000000F9H   SFRSYM    DATA     BYTE      LINICR
      0000008EH   SFRSYM    DATA     BYTE      AUXR
      000000AFH   SFRSYM    DATA     BYTE      IE2
      000000C0H.3 SFRSYM    DATA     BIT       P43
      000000C0H.2 SFRSYM    DATA     BIT       P42
      00000088H   SFRSYM    DATA     BYTE      TCON
      00000089H   SFRSYM    DATA     BYTE      TMOD
      000000C0H.1 SFRSYM    DATA     BIT       P41
      00000098H   SFRSYM    DATA     BYTE      SCON
      000000C0H.0 SFRSYM    DATA     BIT       P40
      000000F1H   SFRSYM    DATA     BYTE      CANICR
      00000087H   SFRSYM    DATA     BYTE      PCON
      000000BCH   SFRSYM    DATA     BYTE      ADC_CONTR
      000000E7H   SFRSYM    DATA     BYTE      CMPCR2
      000000E6H   SFRSYM    DATA     BYTE      CMPCR1
      000000DEH   SFRSYM    DATA     BYTE      ADCCFG
      000000B8H   SFRSYM    DATA     BYTE      IP
      0000008FH   SFRSYM    DATA     BYTE      INTCLKO
      000000EEH   SFRSYM    DATA     BYTE      IP3H
      000000B6H   SFRSYM    DATA     BYTE      IP2H
      000000A8H   SFRSYM    DATA     BYTE      IE
      000000BBH   SFRSYM    DATA     BYTE      P_SW3
      000000BAH   SFRSYM    DATA     BYTE      P_SW2
      000000A2H   SFRSYM    DATA     BYTE      P_SW1
      000000CEH   SFRSYM    DATA     BYTE      SPCTL
      000000F8H   SFRSYM    DATA     BYTE      P7
L251 LINKER/LOCATER V4.66.93.0                                                        03/25/2026  17:12:38  PAGE 85


      000000E8H   SFRSYM    DATA     BYTE      P6
      000000C8H   SFRSYM    DATA     BYTE      P5
      000000C0H   SFRSYM    DATA     BYTE      P4
      000000B0H   SFRSYM    DATA     BYTE      P3
      000000A0H   SFRSYM    DATA     BYTE      P2
      00000090H   SFRSYM    DATA     BYTE      P1
      00000080H   SFRSYM    DATA     BYTE      P0
      00FF6368H   SYMBOL    CODE     ---       imu660ra_simspi_wr_byte

      00FF6368H   BLOCK     CODE     ---       LVL=0
      00011CF6H   SYMBOL    XDATA    BYTE      byte
      00FF636CH   BLOCK     CODE     NEAR LAB  LVL=1
      00011CF7H   SYMBOL    XDATA    BYTE      i
      ---         BLOCKEND  ---      ---       LVL=1
      00FF6368H   LINE      CODE     ---       #160
      00FF636CH   LINE      CODE     ---       #161
      00FF636CH   LINE      CODE     ---       #163
      00FF6373H   LINE      CODE     ---       #165
      00FF6376H   LINE      CODE     ---       #166
      00FF6385H   LINE      CODE     ---       #167
      00FF638CH   LINE      CODE     ---       #168
      00FF638FH   LINE      CODE     ---       #169
      00FF639CH   LINE      CODE     ---       #170
      00FF63B3H   LINE      CODE     ---       #171
      00FF63B6H   LINE      CODE     ---       #172
      00FF63BAH   LINE      CODE     ---       #173
      ---         BLOCKEND  ---      ---       LVL=0
      00011CF8H   SYMBOL    XDATA    BYTE      cmd
      00011CF9H   SYMBOL    XDATA    BYTE      val
      000118F7H   SYMBOL    XDATA    BYTE      cmd
      000118F8H   SYMBOL    XDATA    ---       dat_addr
      000118FCH   SYMBOL    XDATA    DWORD     len
      00011900H   SYMBOL    XDATA    BYTE      cmd
      00011901H   SYMBOL    XDATA    ---       val
      00011905H   SYMBOL    XDATA    DWORD     num
      00011CFAH   SYMBOL    XDATA    BYTE      reg
      00011CFBH   SYMBOL    XDATA    BYTE      dat
      00011909H   SYMBOL    XDATA    BYTE      reg
      0001190AH   SYMBOL    XDATA    ---       dat
      0001190EH   SYMBOL    XDATA    DWORD     len
      00011CD0H   SYMBOL    XDATA    BYTE      reg
      00011CD1H   SYMBOL    XDATA    ---       dat
      000112F4H   SYMBOL    XDATA    BYTE      reg
      000112F5H   SYMBOL    XDATA    ---       dat
      000112F9H   SYMBOL    XDATA    DWORD     len
      000112FDH   SYMBOL    XDATA    WORD      i
      000112FFH   SYMBOL    XDATA    ---       temp_data
      00011C76H   SYMBOL    XDATA    BYTE      dat
      00011C77H   SYMBOL    XDATA    BYTE      return_state
      00011C78H   SYMBOL    XDATA    WORD      timeout_count
      00011B54H   SYMBOL    XDATA    ---       dat
      00011B5AH   SYMBOL    XDATA    ---       dat
      00011D2AH   SYMBOL    XDATA    BYTE      return_state

      ---         MODULE    ---      ---       zf_device_imu660rb
      00011751H   PUBLIC    XDATA    INT       imu660rb_acc_x
      00011753H   PUBLIC    XDATA    INT       imu660rb_acc_y
      00011755H   PUBLIC    XDATA    INT       imu660rb_acc_z
      00011757H   PUBLIC    XDATA    INT       imu660rb_gyro_x
      00011759H   PUBLIC    XDATA    INT       imu660rb_gyro_y
      0001175BH   PUBLIC    XDATA    INT       imu660rb_gyro_z
      000000D0H   SFRSYM    DATA     BYTE      PSW
      0000009DH   SFRSYM    DATA     BYTE      IRCBAND
      00000097H   SFRSYM    DATA     BYTE      AUXR2
      000000EFH   SFRSYM    DATA     BYTE      AUXINTIF
L251 LINKER/LOCATER V4.66.93.0                                                        03/25/2026  17:12:38  PAGE 86


      000000FDH   SFRSYM    DATA     BYTE      S4CON
      000000ACH   SFRSYM    DATA     BYTE      S3CON
      0000009AH   SFRSYM    DATA     BYTE      S2CON
      000000B7H   SFRSYM    DATA     BYTE      IPH
      000000CDH   SFRSYM    DATA     BYTE      SPSTAT
      000000DDH   SFRSYM    DATA     BYTE      T4T3M
      000000C1H   SFRSYM    DATA     BYTE      WDT_CONTR
      000000DFH   SFRSYM    DATA     BYTE      IP3
      000000F4H   SFRSYM    DATA     BYTE      USBCON
      000000B5H   SFRSYM    DATA     BYTE      IP2
      000000FFH   SFRSYM    DATA     BYTE      RSTCFG
      000000C7H   SFRSYM    DATA     BYTE      IAP_CONTR
      000000F9H   SFRSYM    DATA     BYTE      LINICR
      0000008EH   SFRSYM    DATA     BYTE      AUXR
      000000AFH   SFRSYM    DATA     BYTE      IE2
      000000C0H.3 SFRSYM    DATA     BIT       P43
      000000C0H.2 SFRSYM    DATA     BIT       P42
      00000088H   SFRSYM    DATA     BYTE      TCON
      00000089H   SFRSYM    DATA     BYTE      TMOD
      000000C0H.1 SFRSYM    DATA     BIT       P41
      00000098H   SFRSYM    DATA     BYTE      SCON
      000000C0H.0 SFRSYM    DATA     BIT       P40
      000000F1H   SFRSYM    DATA     BYTE      CANICR
      00000087H   SFRSYM    DATA     BYTE      PCON
      000000BCH   SFRSYM    DATA     BYTE      ADC_CONTR
      000000E7H   SFRSYM    DATA     BYTE      CMPCR2
      000000E6H   SFRSYM    DATA     BYTE      CMPCR1
      000000DEH   SFRSYM    DATA     BYTE      ADCCFG
      000000B8H   SFRSYM    DATA     BYTE      IP
      0000008FH   SFRSYM    DATA     BYTE      INTCLKO
      000000EEH   SFRSYM    DATA     BYTE      IP3H
      000000B6H   SFRSYM    DATA     BYTE      IP2H
      000000A8H   SFRSYM    DATA     BYTE      IE
      000000BBH   SFRSYM    DATA     BYTE      P_SW3
      000000BAH   SFRSYM    DATA     BYTE      P_SW2
      000000A2H   SFRSYM    DATA     BYTE      P_SW1
      000000CEH   SFRSYM    DATA     BYTE      SPCTL
      000000F8H   SFRSYM    DATA     BYTE      P7
      000000E8H   SFRSYM    DATA     BYTE      P6
      000000C8H   SFRSYM    DATA     BYTE      P5
      000000C0H   SFRSYM    DATA     BYTE      P4
      000000B0H   SFRSYM    DATA     BYTE      P3
      000000A0H   SFRSYM    DATA     BYTE      P2
      00000090H   SFRSYM    DATA     BYTE      P1
      00000080H   SFRSYM    DATA     BYTE      P0
      00011CFCH   SYMBOL    XDATA    BYTE      byte
      00011CFDH   SYMBOL    XDATA    BYTE      i
      00011CFEH   SYMBOL    XDATA    BYTE      cmd
      00011CFFH   SYMBOL    XDATA    BYTE      val
      00011C14H   SYMBOL    XDATA    BYTE      cmd
      00011C15H   SYMBOL    XDATA    ---       val
      00011912H   SYMBOL    XDATA    BYTE      cmd
      00011913H   SYMBOL    XDATA    ---       val
      00011917H   SYMBOL    XDATA    DWORD     num
      00011D00H   SYMBOL    XDATA    BYTE      reg
      00011D01H   SYMBOL    XDATA    BYTE      dat
      00011D02H   SYMBOL    XDATA    BYTE      reg
      00011D03H   SYMBOL    XDATA    BYTE      dat
      0001191BH   SYMBOL    XDATA    BYTE      reg
      0001191CH   SYMBOL    XDATA    ---       dat
      00011920H   SYMBOL    XDATA    DWORD     len
      00011C7AH   SYMBOL    XDATA    BYTE      dat
      00011C7BH   SYMBOL    XDATA    BYTE      return_state
      00011C7CH   SYMBOL    XDATA    WORD      timeout_count
      00011B60H   SYMBOL    XDATA    ---       dat
L251 LINKER/LOCATER V4.66.93.0                                                        03/25/2026  17:12:38  PAGE 87


      00011B66H   SYMBOL    XDATA    ---       dat
      00011B6CH   SYMBOL    XDATA    INT       acc_value
      00011B6EH   SYMBOL    XDATA    FLOAT     acc_data
      00011B72H   SYMBOL    XDATA    INT       gyro_value
      00011B74H   SYMBOL    XDATA    FLOAT     gyro_data
      00011D2BH   SYMBOL    XDATA    BYTE      return_state

      ---         MODULE    ---      ---       zf_device_imu963ra
      000110DDH   PUBLIC    XDATA    INT       imu963ra_acc_x
      000110DFH   PUBLIC    XDATA    INT       imu963ra_acc_y
      000110E1H   PUBLIC    XDATA    INT       imu963ra_acc_z
      000110E3H   PUBLIC    XDATA    INT       imu963ra_mag_x
      000110E5H   PUBLIC    XDATA    INT       imu963ra_mag_y
      000110E7H   PUBLIC    XDATA    INT       imu963ra_mag_z
      000110E9H   PUBLIC    XDATA    INT       imu963ra_gyro_x
      000110EBH   PUBLIC    XDATA    INT       imu963ra_gyro_y
      000110EDH   PUBLIC    XDATA    INT       imu963ra_gyro_z
      000110EFH   PUBLIC    XDATA    ---       imu963ra_transition_factor
      000000D0H   SFRSYM    DATA     BYTE      PSW
      0000009DH   SFRSYM    DATA     BYTE      IRCBAND
      00000097H   SFRSYM    DATA     BYTE      AUXR2
      000000EFH   SFRSYM    DATA     BYTE      AUXINTIF
      000000FDH   SFRSYM    DATA     BYTE      S4CON
      000000ACH   SFRSYM    DATA     BYTE      S3CON
      0000009AH   SFRSYM    DATA     BYTE      S2CON
      000000B7H   SFRSYM    DATA     BYTE      IPH
      000000CDH   SFRSYM    DATA     BYTE      SPSTAT
      000000DDH   SFRSYM    DATA     BYTE      T4T3M
      000000C1H   SFRSYM    DATA     BYTE      WDT_CONTR
      000000DFH   SFRSYM    DATA     BYTE      IP3
      000000F4H   SFRSYM    DATA     BYTE      USBCON
      000000B5H   SFRSYM    DATA     BYTE      IP2
      000000FFH   SFRSYM    DATA     BYTE      RSTCFG
      000000C7H   SFRSYM    DATA     BYTE      IAP_CONTR
      000000F9H   SFRSYM    DATA     BYTE      LINICR
      0000008EH   SFRSYM    DATA     BYTE      AUXR
      000000AFH   SFRSYM    DATA     BYTE      IE2
      000000C0H.2 SFRSYM    DATA     BIT       P42
      00000088H   SFRSYM    DATA     BYTE      TCON
      00000089H   SFRSYM    DATA     BYTE      TMOD
      00000098H   SFRSYM    DATA     BYTE      SCON
      000000F1H   SFRSYM    DATA     BYTE      CANICR
      00000087H   SFRSYM    DATA     BYTE      PCON
      000000BCH   SFRSYM    DATA     BYTE      ADC_CONTR
      000000E7H   SFRSYM    DATA     BYTE      CMPCR2
      000000E6H   SFRSYM    DATA     BYTE      CMPCR1
      000000DEH   SFRSYM    DATA     BYTE      ADCCFG
      000000B8H   SFRSYM    DATA     BYTE      IP
      0000008FH   SFRSYM    DATA     BYTE      INTCLKO
      000000EEH   SFRSYM    DATA     BYTE      IP3H
      000000B6H   SFRSYM    DATA     BYTE      IP2H
      000000A8H   SFRSYM    DATA     BYTE      IE
      000000BBH   SFRSYM    DATA     BYTE      P_SW3
      000000BAH   SFRSYM    DATA     BYTE      P_SW2
      000000A2H   SFRSYM    DATA     BYTE      P_SW1
      000000CEH   SFRSYM    DATA     BYTE      SPCTL
      000000F8H   SFRSYM    DATA     BYTE      P7
      000000E8H   SFRSYM    DATA     BYTE      P6
      000000C8H   SFRSYM    DATA     BYTE      P5
      000000C0H   SFRSYM    DATA     BYTE      P4
      000000B0H   SFRSYM    DATA     BYTE      P3
      000000A0H   SFRSYM    DATA     BYTE      P2
      00000090H   SFRSYM    DATA     BYTE      P1
      00000080H   SFRSYM    DATA     BYTE      P0
      00011D04H   SYMBOL    XDATA    BYTE      reg
L251 LINKER/LOCATER V4.66.93.0                                                        03/25/2026  17:12:38  PAGE 88


      00011D05H   SYMBOL    XDATA    BYTE      dat
      00011D06H   SYMBOL    XDATA    BYTE      reg
      00011D07H   SYMBOL    XDATA    BYTE      dat
      00011924H   SYMBOL    XDATA    BYTE      reg
      00011925H   SYMBOL    XDATA    ---       dat
      00011929H   SYMBOL    XDATA    DWORD     len
      00011B78H   SYMBOL    XDATA    BYTE      addr
      00011B79H   SYMBOL    XDATA    BYTE      reg
      00011B7AH   SYMBOL    XDATA    BYTE      dat
      00011B7BH   SYMBOL    XDATA    BYTE      return_state
      00011B7CH   SYMBOL    XDATA    WORD      timeout_count
      00011C7EH   SYMBOL    XDATA    BYTE      addr
      00011C7FH   SYMBOL    XDATA    BYTE      reg
      00011C80H   SYMBOL    XDATA    WORD      timeout_count
      00011D08H   SYMBOL    XDATA    BYTE      addr
      00011D09H   SYMBOL    XDATA    BYTE      reg
      00011C82H   SYMBOL    XDATA    BYTE      return_state
      00011C83H   SYMBOL    XDATA    BYTE      dat
      00011C84H   SYMBOL    XDATA    WORD      timeout_count
      00011C86H   SYMBOL    XDATA    BYTE      return_state
      00011C87H   SYMBOL    XDATA    BYTE      dat
      00011C88H   SYMBOL    XDATA    WORD      timeout_count
      00011B7EH   SYMBOL    XDATA    ---       dat
      00011B84H   SYMBOL    XDATA    ---       dat
      00011ADAH   SYMBOL    XDATA    BYTE      temp_status
      00011ADBH   SYMBOL    XDATA    ---       dat
      00011D2CH   SYMBOL    XDATA    BYTE      return_state

      ---         MODULE    ---      ---       zf_device_ips114
      00011A46H   PUBLIC    XDATA    WORD      ips114_pencolor
      00011A48H   PUBLIC    XDATA    WORD      ips114_bgcolor
      00011A4AH   PUBLIC    XDATA    INT       ips114_display_dir
      00011A4CH   PUBLIC    XDATA    BYTE      ips114_x_max
      00011A4DH   PUBLIC    XDATA    BYTE      ips114_y_max
      00010DA9H   PUBLIC    XDATA    BYTE      ?ips114_show_float?BYTE
      00011002H   PUBLIC    XDATA    BYTE      ?ips114_show_wave?BYTE
      0001119CH   PUBLIC    XDATA    BYTE      ?ips114_show_chinese?BYTE
      000000D0H   SFRSYM    DATA     BYTE      PSW
      0000009DH   SFRSYM    DATA     BYTE      IRCBAND
      00000097H   SFRSYM    DATA     BYTE      AUXR2
      000000EFH   SFRSYM    DATA     BYTE      AUXINTIF
      000000FDH   SFRSYM    DATA     BYTE      S4CON
      000000ACH   SFRSYM    DATA     BYTE      S3CON
      0000009AH   SFRSYM    DATA     BYTE      S2CON
      000000B7H   SFRSYM    DATA     BYTE      IPH
      000000CDH   SFRSYM    DATA     BYTE      SPSTAT
      000000DDH   SFRSYM    DATA     BYTE      T4T3M
      000000C1H   SFRSYM    DATA     BYTE      WDT_CONTR
      000000DFH   SFRSYM    DATA     BYTE      IP3
      000000F4H   SFRSYM    DATA     BYTE      USBCON
      000000B5H   SFRSYM    DATA     BYTE      IP2
      000000FFH   SFRSYM    DATA     BYTE      RSTCFG
      000000C7H   SFRSYM    DATA     BYTE      IAP_CONTR
      000000F9H   SFRSYM    DATA     BYTE      LINICR
      0000008EH   SFRSYM    DATA     BYTE      AUXR
      000000AFH   SFRSYM    DATA     BYTE      IE2
      00000088H   SFRSYM    DATA     BYTE      TCON
      00000089H   SFRSYM    DATA     BYTE      TMOD
      00000098H   SFRSYM    DATA     BYTE      SCON
      000000A0H.2 SFRSYM    DATA     BIT       P22
      000000A0H.1 SFRSYM    DATA     BIT       P21
      000000A0H.0 SFRSYM    DATA     BIT       P20
      000000F1H   SFRSYM    DATA     BYTE      CANICR
      00000087H   SFRSYM    DATA     BYTE      PCON
      000000BCH   SFRSYM    DATA     BYTE      ADC_CONTR
L251 LINKER/LOCATER V4.66.93.0                                                        03/25/2026  17:12:38  PAGE 89


      000000E7H   SFRSYM    DATA     BYTE      CMPCR2
      000000E6H   SFRSYM    DATA     BYTE      CMPCR1
      000000DEH   SFRSYM    DATA     BYTE      ADCCFG
      000000B8H   SFRSYM    DATA     BYTE      IP
      0000008FH   SFRSYM    DATA     BYTE      INTCLKO
      000000EEH   SFRSYM    DATA     BYTE      IP3H
      000000B6H   SFRSYM    DATA     BYTE      IP2H
      000000A8H   SFRSYM    DATA     BYTE      IE
      000000BBH   SFRSYM    DATA     BYTE      P_SW3
      000000BAH   SFRSYM    DATA     BYTE      P_SW2
      000000A2H   SFRSYM    DATA     BYTE      P_SW1
      000000CEH   SFRSYM    DATA     BYTE      SPCTL
      000000F8H   SFRSYM    DATA     BYTE      P7
      000000E8H   SFRSYM    DATA     BYTE      P6
      000000C8H   SFRSYM    DATA     BYTE      P5
      000000C0H   SFRSYM    DATA     BYTE      P4
      000000B0H   SFRSYM    DATA     BYTE      P3
      000000A0H   SFRSYM    DATA     BYTE      P2
      00000090H   SFRSYM    DATA     BYTE      P1
      00000080H   SFRSYM    DATA     BYTE      P0
      00011D2DH   SYMBOL    XDATA    BYTE      dat
      00011A4EH   SYMBOL    XDATA    WORD      x1
      00011A50H   SYMBOL    XDATA    WORD      y1
      00011A52H   SYMBOL    XDATA    WORD      x2
      00011A54H   SYMBOL    XDATA    WORD      y2
      00011B8AH   SYMBOL    XDATA    WORD      color
      00011B8CH   SYMBOL    XDATA    WORD      i
      00011B8EH   SYMBOL    XDATA    WORD      j
      00011D0AH   SYMBOL    XDATA    INT       dir
      00011C8AH   SYMBOL    XDATA    WORD      pen
      00011C8CH   SYMBOL    XDATA    WORD      bgcolor
      00011B90H   SYMBOL    XDATA    WORD      x
      00011B92H   SYMBOL    XDATA    WORD      y
      00011B94H   SYMBOL    XDATA    WORD      color
      00011A56H   SYMBOL    XDATA    WORD      x
      00011A58H   SYMBOL    XDATA    WORD      y
      00011A5AH   SYMBOL    XDATA    CHAR      dat
      00011A5BH   SYMBOL    XDATA    BYTE      i
      00011A5CH   SYMBOL    XDATA    BYTE      j
      00011A5DH   SYMBOL    XDATA    BYTE      temp
      0001188EH   SYMBOL    XDATA    WORD      x
      00011890H   SYMBOL    XDATA    WORD      y
      00011892H   SYMBOL    XDATA    ---       dat
      00011896H   SYMBOL    XDATA    WORD      j
      0001192DH   SYMBOL    XDATA    WORD      x
      0001192FH   SYMBOL    XDATA    WORD      y
      00011931H   SYMBOL    XDATA    CHAR      dat
      00011932H   SYMBOL    XDATA    ---       a
      00011935H   SYMBOL    XDATA    BYTE      i
      00011936H   SYMBOL    XDATA    WORD      x
      00011938H   SYMBOL    XDATA    WORD      y
      0001193AH   SYMBOL    XDATA    BYTE      dat
      0001193BH   SYMBOL    XDATA    ---       a
      0001193EH   SYMBOL    XDATA    BYTE      i
      0001175DH   SYMBOL    XDATA    WORD      x
      0001175FH   SYMBOL    XDATA    WORD      y
      00011761H   SYMBOL    XDATA    INT       dat
      00011763H   SYMBOL    XDATA    ---       a
      00011768H   SYMBOL    XDATA    BYTE      i
      00011769H   SYMBOL    XDATA    WORD      x
      0001176BH   SYMBOL    XDATA    WORD      y
      0001176DH   SYMBOL    XDATA    WORD      dat
      0001176FH   SYMBOL    XDATA    ---       a
      00011774H   SYMBOL    XDATA    BYTE      i
      00010E68H   SYMBOL    XDATA    WORD      x
L251 LINKER/LOCATER V4.66.93.0                                                        03/25/2026  17:12:38  PAGE 90


      00010E6AH   SYMBOL    XDATA    WORD      y
      00010E6CH   SYMBOL    XDATA    LONG      dat
      00010E70H   SYMBOL    XDATA    BYTE      num
      00010E71H   SYMBOL    XDATA    ---       buff
      00010E93H   SYMBOL    XDATA    BYTE      length
      00010DA9H   SYMBOL    XDATA    WORD      x
      00010DABH   SYMBOL    XDATA    WORD      y
      00010DADH   SYMBOL    XDATA    FLOAT     dat
      00010DB1H   SYMBOL    XDATA    BYTE      num
      00010DB2H   SYMBOL    XDATA    BYTE      pointnum
      00010DB3H   SYMBOL    XDATA    BYTE      length
      00010DB4H   SYMBOL    XDATA    ---       buff
      00010DD6H   SYMBOL    XDATA    CHAR      start
      00010DD7H   SYMBOL    XDATA    CHAR      end
      00010DD8H   SYMBOL    XDATA    CHAR      point
      00011002H   SYMBOL    XDATA    WORD      x
      00011004H   SYMBOL    XDATA    WORD      y
      00011006H   SYMBOL    XDATA    ---       p
      0001100AH   SYMBOL    XDATA    WORD      width
      0001100CH   SYMBOL    XDATA    WORD      value_max
      0001100EH   SYMBOL    XDATA    WORD      dis_width
      00011010H   SYMBOL    XDATA    WORD      dis_value_max
      00011012H   SYMBOL    XDATA    DWORD     i
      00011016H   SYMBOL    XDATA    DWORD     j
      0001101AH   SYMBOL    XDATA    DWORD     width_index
      0001101EH   SYMBOL    XDATA    DWORD     value_max_index
      0001119CH   SYMBOL    XDATA    WORD      x
      0001119EH   SYMBOL    XDATA    WORD      y
      000111A0H   SYMBOL    XDATA    BYTE      siz
      000111A1H   SYMBOL    XDATA    ---       p
      000111A5H   SYMBOL    XDATA    BYTE      number
      000111A6H   SYMBOL    XDATA    WORD      color
      000111A8H   SYMBOL    XDATA    INT       i
      000111AAH   SYMBOL    XDATA    INT       j
      000111ACH   SYMBOL    XDATA    INT       k
      000111AEH   SYMBOL    XDATA    BYTE      temp
      000111AFH   SYMBOL    XDATA    BYTE      temp1
      000111B0H   SYMBOL    XDATA    BYTE      temp2
      000111B1H   SYMBOL    XDATA    ---       p_data

      ---         MODULE    ---      ---       zf_device_ips200
      00011898H   PUBLIC    XDATA    WORD      ips200_pencolor
      0001189AH   PUBLIC    XDATA    WORD      ips200_bgcolor
      0001189CH   PUBLIC    XDATA    INT       ips200_display_dir
      0001189EH   PUBLIC    XDATA    WORD      ips200_x_max
      000118A0H   PUBLIC    XDATA    WORD      ips200_y_max
      00010DD9H   PUBLIC    XDATA    BYTE      ?ips200_show_float?BYTE
      00011022H   PUBLIC    XDATA    BYTE      ?ips200_show_wave?BYTE
      000111B5H   PUBLIC    XDATA    BYTE      ?ips200_show_chinese?BYTE
      000000D0H   SFRSYM    DATA     BYTE      PSW
      0000009DH   SFRSYM    DATA     BYTE      IRCBAND
      00000097H   SFRSYM    DATA     BYTE      AUXR2
      000000EFH   SFRSYM    DATA     BYTE      AUXINTIF
      000000FDH   SFRSYM    DATA     BYTE      S4CON
      000000ACH   SFRSYM    DATA     BYTE      S3CON
      0000009AH   SFRSYM    DATA     BYTE      S2CON
      000000B7H   SFRSYM    DATA     BYTE      IPH
      000000CDH   SFRSYM    DATA     BYTE      SPSTAT
      000000DDH   SFRSYM    DATA     BYTE      T4T3M
      000000C1H   SFRSYM    DATA     BYTE      WDT_CONTR
      000000DFH   SFRSYM    DATA     BYTE      IP3
      000000F4H   SFRSYM    DATA     BYTE      USBCON
      000000B5H   SFRSYM    DATA     BYTE      IP2
      000000FFH   SFRSYM    DATA     BYTE      RSTCFG
      000000C7H   SFRSYM    DATA     BYTE      IAP_CONTR
L251 LINKER/LOCATER V4.66.93.0                                                        03/25/2026  17:12:38  PAGE 91


      000000F9H   SFRSYM    DATA     BYTE      LINICR
      0000008EH   SFRSYM    DATA     BYTE      AUXR
      000000AFH   SFRSYM    DATA     BYTE      IE2
      00000088H   SFRSYM    DATA     BYTE      TCON
      00000089H   SFRSYM    DATA     BYTE      TMOD
      00000098H   SFRSYM    DATA     BYTE      SCON
      000000A0H.2 SFRSYM    DATA     BIT       P22
      000000A0H.1 SFRSYM    DATA     BIT       P21
      000000A0H.0 SFRSYM    DATA     BIT       P20
      000000F1H   SFRSYM    DATA     BYTE      CANICR
      00000087H   SFRSYM    DATA     BYTE      PCON
      000000BCH   SFRSYM    DATA     BYTE      ADC_CONTR
      000000E7H   SFRSYM    DATA     BYTE      CMPCR2
      000000E6H   SFRSYM    DATA     BYTE      CMPCR1
      000000DEH   SFRSYM    DATA     BYTE      ADCCFG
      000000B8H   SFRSYM    DATA     BYTE      IP
      0000008FH   SFRSYM    DATA     BYTE      INTCLKO
      000000EEH   SFRSYM    DATA     BYTE      IP3H
      000000B6H   SFRSYM    DATA     BYTE      IP2H
      000000A8H   SFRSYM    DATA     BYTE      IE
      000000BBH   SFRSYM    DATA     BYTE      P_SW3
      000000BAH   SFRSYM    DATA     BYTE      P_SW2
      000000A2H   SFRSYM    DATA     BYTE      P_SW1
      000000CEH   SFRSYM    DATA     BYTE      SPCTL
      000000F8H   SFRSYM    DATA     BYTE      P7
      000000E8H   SFRSYM    DATA     BYTE      P6
      000000C8H   SFRSYM    DATA     BYTE      P5
      000000C0H   SFRSYM    DATA     BYTE      P4
      000000B0H   SFRSYM    DATA     BYTE      P3
      000000A0H   SFRSYM    DATA     BYTE      P2
      00000090H   SFRSYM    DATA     BYTE      P1
      00000080H   SFRSYM    DATA     BYTE      P0
      00011D2EH   SYMBOL    XDATA    BYTE      dat
      00011A5EH   SYMBOL    XDATA    WORD      x1
      00011A60H   SYMBOL    XDATA    WORD      y1
      00011A62H   SYMBOL    XDATA    WORD      x2
      00011A64H   SYMBOL    XDATA    WORD      y2
      00011B96H   SYMBOL    XDATA    WORD      color
      00011B98H   SYMBOL    XDATA    WORD      i
      00011B9AH   SYMBOL    XDATA    WORD      j
      00011D0CH   SYMBOL    XDATA    INT       dir
      00011C8EH   SYMBOL    XDATA    WORD      pen
      00011C90H   SYMBOL    XDATA    WORD      bgcolor
      00011B9CH   SYMBOL    XDATA    WORD      x
      00011B9EH   SYMBOL    XDATA    WORD      y
      00011BA0H   SYMBOL    XDATA    WORD      color
      00011A66H   SYMBOL    XDATA    WORD      x
      00011A68H   SYMBOL    XDATA    WORD      y
      00011A6AH   SYMBOL    XDATA    CHAR      dat
      00011A6BH   SYMBOL    XDATA    BYTE      i
      00011A6CH   SYMBOL    XDATA    BYTE      j
      00011A6DH   SYMBOL    XDATA    BYTE      temp
      000118A2H   SYMBOL    XDATA    WORD      x
      000118A4H   SYMBOL    XDATA    WORD      y
      000118A6H   SYMBOL    XDATA    ---       dat
      000118AAH   SYMBOL    XDATA    WORD      j
      0001193FH   SYMBOL    XDATA    WORD      x
      00011941H   SYMBOL    XDATA    WORD      y
      00011943H   SYMBOL    XDATA    CHAR      dat
      00011944H   SYMBOL    XDATA    ---       a
      00011947H   SYMBOL    XDATA    BYTE      i
      00011948H   SYMBOL    XDATA    WORD      x
      0001194AH   SYMBOL    XDATA    WORD      y
      0001194CH   SYMBOL    XDATA    BYTE      dat
      0001194DH   SYMBOL    XDATA    ---       a
L251 LINKER/LOCATER V4.66.93.0                                                        03/25/2026  17:12:38  PAGE 92


      00011950H   SYMBOL    XDATA    BYTE      i
      00011775H   SYMBOL    XDATA    WORD      x
      00011777H   SYMBOL    XDATA    WORD      y
      00011779H   SYMBOL    XDATA    INT       dat
      0001177BH   SYMBOL    XDATA    ---       a
      00011780H   SYMBOL    XDATA    BYTE      i
      00011781H   SYMBOL    XDATA    WORD      x
      00011783H   SYMBOL    XDATA    WORD      y
      00011785H   SYMBOL    XDATA    WORD      dat
      00011787H   SYMBOL    XDATA    ---       a
      0001178CH   SYMBOL    XDATA    BYTE      i
      00010E94H   SYMBOL    XDATA    WORD      x
      00010E96H   SYMBOL    XDATA    WORD      y
      00010E98H   SYMBOL    XDATA    LONG      dat
      00010E9CH   SYMBOL    XDATA    BYTE      num
      00010E9DH   SYMBOL    XDATA    ---       buff
      00010EBFH   SYMBOL    XDATA    BYTE      length
      00010DD9H   SYMBOL    XDATA    WORD      x
      00010DDBH   SYMBOL    XDATA    WORD      y
      00010DDDH   SYMBOL    XDATA    FLOAT     dat
      00010DE1H   SYMBOL    XDATA    BYTE      num
      00010DE2H   SYMBOL    XDATA    BYTE      pointnum
      00010DE3H   SYMBOL    XDATA    BYTE      length
      00010DE4H   SYMBOL    XDATA    ---       buff
      00010E06H   SYMBOL    XDATA    CHAR      start
      00010E07H   SYMBOL    XDATA    CHAR      end
      00010E08H   SYMBOL    XDATA    CHAR      point
      00011022H   SYMBOL    XDATA    WORD      x
      00011024H   SYMBOL    XDATA    WORD      y
      00011026H   SYMBOL    XDATA    ---       p
      0001102AH   SYMBOL    XDATA    WORD      width
      0001102CH   SYMBOL    XDATA    WORD      value_max
      0001102EH   SYMBOL    XDATA    WORD      dis_width
      00011030H   SYMBOL    XDATA    WORD      dis_value_max
      00011032H   SYMBOL    XDATA    DWORD     i
      00011036H   SYMBOL    XDATA    DWORD     j
      0001103AH   SYMBOL    XDATA    DWORD     width_index
      0001103EH   SYMBOL    XDATA    DWORD     value_max_index
      000111B5H   SYMBOL    XDATA    WORD      x
      000111B7H   SYMBOL    XDATA    WORD      y
      000111B9H   SYMBOL    XDATA    BYTE      siz
      000111BAH   SYMBOL    XDATA    ---       p
      000111BEH   SYMBOL    XDATA    BYTE      number
      000111BFH   SYMBOL    XDATA    WORD      color
      000111C1H   SYMBOL    XDATA    INT       i
      000111C3H   SYMBOL    XDATA    INT       j
      000111C5H   SYMBOL    XDATA    INT       k
      000111C7H   SYMBOL    XDATA    BYTE      temp
      000111C8H   SYMBOL    XDATA    BYTE      temp1
      000111C9H   SYMBOL    XDATA    BYTE      temp2
      000111CAH   SYMBOL    XDATA    ---       p_data

      ---         MODULE    ---      ---       zf_device_ips200pro
      00010C0EH   PUBLIC    XDATA    ---       ips200pro_information
      00010C17H   PUBLIC    XDATA    ---       ips200pro_time
      0001158AH   PUBLIC    XDATA    BYTE      ?ips200pro_send_buffer?BYTE
      00011645H   PUBLIC    XDATA    BYTE      ?ips200pro_receive_buffer?BYTE
      00011081H   PUBLIC    XDATA    BYTE      ?ips200pro_write_packet?BYTE
      00011134H   PUBLIC    XDATA    BYTE      ?ips200pro_create_widgets?BYTE
      00010D2AH   PUBLIC    XDATA    BYTE      ?ips200pro_label_printf?BYTE
      00010CE5H   PUBLIC    XDATA    BYTE      ?ips200pro_table_cell_printf?BYTE
      0001114FH   PUBLIC    XDATA    BYTE      ?ips200pro_waveform_add_value?BYTE
      00010F6BH   PUBLIC    XDATA    BYTE      ?ips200pro_image_display?BYTE
      00011169H   PUBLIC    XDATA    BYTE      ?ips200pro_image_draw_line?BYTE
      00010FE0H   PUBLIC    XDATA    BYTE      ?ips200pro_image_draw_rectangle?BYTE
L251 LINKER/LOCATER V4.66.93.0                                                        03/25/2026  17:12:38  PAGE 93


      000000D0H   SFRSYM    DATA     BYTE      PSW
      0000009DH   SFRSYM    DATA     BYTE      IRCBAND
      00000097H   SFRSYM    DATA     BYTE      AUXR2
      000000EFH   SFRSYM    DATA     BYTE      AUXINTIF
      000000FDH   SFRSYM    DATA     BYTE      S4CON
      000000ACH   SFRSYM    DATA     BYTE      S3CON
      0000009AH   SFRSYM    DATA     BYTE      S2CON
      000000B7H   SFRSYM    DATA     BYTE      IPH
      000000CDH   SFRSYM    DATA     BYTE      SPSTAT
      000000DDH   SFRSYM    DATA     BYTE      T4T3M
      000000C1H   SFRSYM    DATA     BYTE      WDT_CONTR
      000000DFH   SFRSYM    DATA     BYTE      IP3
      000000F4H   SFRSYM    DATA     BYTE      USBCON
      000000B5H   SFRSYM    DATA     BYTE      IP2
      000000FFH   SFRSYM    DATA     BYTE      RSTCFG
      000000C7H   SFRSYM    DATA     BYTE      IAP_CONTR
      000000F9H   SFRSYM    DATA     BYTE      LINICR
      0000008EH   SFRSYM    DATA     BYTE      AUXR
      000000AFH   SFRSYM    DATA     BYTE      IE2
      00000088H   SFRSYM    DATA     BYTE      TCON
      00000089H   SFRSYM    DATA     BYTE      TMOD
      00000098H   SFRSYM    DATA     BYTE      SCON
      000000A0H.2 SFRSYM    DATA     BIT       P22
      000000A0H.1 SFRSYM    DATA     BIT       P21
      000000F1H   SFRSYM    DATA     BYTE      CANICR
      00000087H   SFRSYM    DATA     BYTE      PCON
      000000BCH   SFRSYM    DATA     BYTE      ADC_CONTR
      000000E7H   SFRSYM    DATA     BYTE      CMPCR2
      000000E6H   SFRSYM    DATA     BYTE      CMPCR1
      000000DEH   SFRSYM    DATA     BYTE      ADCCFG
      000000B8H   SFRSYM    DATA     BYTE      IP
      0000008FH   SFRSYM    DATA     BYTE      INTCLKO
      000000EEH   SFRSYM    DATA     BYTE      IP3H
      000000B6H   SFRSYM    DATA     BYTE      IP2H
      000000A8H   SFRSYM    DATA     BYTE      IE
      000000BBH   SFRSYM    DATA     BYTE      P_SW3
      000000BAH   SFRSYM    DATA     BYTE      P_SW2
      000000A2H   SFRSYM    DATA     BYTE      P_SW1
      000000CEH   SFRSYM    DATA     BYTE      SPCTL
      000000F8H   SFRSYM    DATA     BYTE      P7
      000000E8H   SFRSYM    DATA     BYTE      P6
      000000C8H   SFRSYM    DATA     BYTE      P5
      000000C0H   SFRSYM    DATA     BYTE      P4
      000000B0H   SFRSYM    DATA     BYTE      P3
      000000A0H   SFRSYM    DATA     BYTE      P2
      00000090H   SFRSYM    DATA     BYTE      P1
      00000080H   SFRSYM    DATA     BYTE      P0
      00010BDBH   SYMBOL    XDATA    ---       ips200pro_printf_buffer
      00010C1FH   SYMBOL    XDATA    BYTE      ips200pro_page_num
      00011C92H   SYMBOL    XDATA    DWORD     wait_time
      0001158AH   SYMBOL    XDATA    ---       buffer
      0001158EH   SYMBOL    XDATA    DWORD     length
      00011592H   SYMBOL    XDATA    DWORD     time_out
      00011596H   SYMBOL    XDATA    BYTE      end_flag
      00011597H   SYMBOL    XDATA    BYTE      return_state
      00011645H   SYMBOL    XDATA    ---       buffer
      00011649H   SYMBOL    XDATA    DWORD     length
      0001164DH   SYMBOL    XDATA    DWORD     time_out
      00011651H   SYMBOL    XDATA    BYTE      return_state
      00011081H   SYMBOL    XDATA    INT       command1
      00011083H   SYMBOL    XDATA    INT       command2
      00011085H   SYMBOL    XDATA    BYTE      widgets_id
      00011086H   SYMBOL    XDATA    ---       temp
      0001108AH   SYMBOL    XDATA    DWORD     length
      0001108EH   SYMBOL    XDATA    ---       buffer
L251 LINKER/LOCATER V4.66.93.0                                                        03/25/2026  17:12:38  PAGE 94


      00011092H   SYMBOL    XDATA    DWORD     buffer_length
      00011096H   SYMBOL    XDATA    BYTE      return_state
      00011097H   SYMBOL    XDATA    ---       p
      0001109BH   SYMBOL    XDATA    BYTE      tmp
      0001109CH   SYMBOL    XDATA    WORD      i
      0001109EH   SYMBOL    XDATA    WORD      struct_len
      00011A6EH   SYMBOL    XDATA    INT       command2
      00011A70H   SYMBOL    XDATA    ---       temp
      00011A74H   SYMBOL    XDATA    BYTE      length
      00011A75H   SYMBOL    XDATA    BYTE      return_state
      000113CEH   SYMBOL    XDATA    WORD      year
      000113D0H   SYMBOL    XDATA    BYTE      month
      000113D1H   SYMBOL    XDATA    BYTE      day
      000113D2H   SYMBOL    XDATA    BYTE      return_state
      000113D3H   SYMBOL    XDATA    ---       temp
      00011465H   SYMBOL    XDATA    BYTE      hour
      00011466H   SYMBOL    XDATA    BYTE      minute
      00011467H   SYMBOL    XDATA    BYTE      second
      00011468H   SYMBOL    XDATA    BYTE      return_state
      00011469H   SYMBOL    XDATA    ---       temp
      000113DFH   SYMBOL    XDATA    WORD      child_id
      000113E1H   SYMBOL    XDATA    WORD      parent_id
      000113E3H   SYMBOL    XDATA    BYTE      return_state
      000113E4H   SYMBOL    XDATA    ---       temp
      00011652H   SYMBOL    XDATA    INT       format
      00011654H   SYMBOL    XDATA    BYTE      return_state
      00011655H   SYMBOL    XDATA    ---       temp
      0001178DH   SYMBOL    XDATA    BYTE      backlight
      0001178EH   SYMBOL    XDATA    BYTE      return_state
      0001178FH   SYMBOL    XDATA    ---       temp
      0001165FH   SYMBOL    XDATA    INT       dir
      00011661H   SYMBOL    XDATA    BYTE      return_state
      00011662H   SYMBOL    XDATA    ---       temp
      00011799H   SYMBOL    XDATA    BYTE      crc_state
      0001179AH   SYMBOL    XDATA    BYTE      return_state
      0001179BH   SYMBOL    XDATA    ---       temp
      0001166CH   SYMBOL    XDATA    INT       font
      0001166EH   SYMBOL    XDATA    BYTE      return_state
      0001166FH   SYMBOL    XDATA    ---       temp
      000117A5H   SYMBOL    XDATA    BYTE      state
      000117A6H   SYMBOL    XDATA    BYTE      return_state
      000117A7H   SYMBOL    XDATA    ---       temp
      000113F0H   SYMBOL    XDATA    ---       time
      000113F4H   SYMBOL    XDATA    BYTE      return_state
      000113F5H   SYMBOL    XDATA    ---       temp
      00011401H   SYMBOL    XDATA    ---       time
      00011405H   SYMBOL    XDATA    BYTE      return_state
      00011406H   SYMBOL    XDATA    ---       temp
      0001122BH   SYMBOL    XDATA    ---       information
      0001122FH   SYMBOL    XDATA    BYTE      return_state
      00011230H   SYMBOL    XDATA    ---       temp
      00011412H   SYMBOL    XDATA    ---       stack_size
      00011416H   SYMBOL    XDATA    BYTE      return_state
      00011417H   SYMBOL    XDATA    ---       temp
      00011134H   SYMBOL    XDATA    WORD      widgets_id
      00011136H   SYMBOL    XDATA    INT       x
      00011138H   SYMBOL    XDATA    INT       y
      0001113AH   SYMBOL    XDATA    WORD      width
      0001113CH   SYMBOL    XDATA    WORD      height
      0001113EH   SYMBOL    XDATA    BYTE      return_state
      0001113FH   SYMBOL    XDATA    ---       temp
      0001183CH   SYMBOL    XDATA    WORD      widgets_id
      0001183EH   SYMBOL    XDATA    BYTE      return_state
      0001183FH   SYMBOL    XDATA    ---       temp
      00011495H   SYMBOL    XDATA    WORD      widgets_id
L251 LINKER/LOCATER V4.66.93.0                                                        03/25/2026  17:12:38  PAGE 95


      00011497H   SYMBOL    XDATA    INT       font_size
      00011499H   SYMBOL    XDATA    BYTE      return_state
      0001149AH   SYMBOL    XDATA    ---       temp
      00011307H   SYMBOL    XDATA    WORD      widgets_id
      00011309H   SYMBOL    XDATA    INT       color_type
      0001130BH   SYMBOL    XDATA    WORD      color
      0001130DH   SYMBOL    XDATA    BYTE      return_state
      0001130EH   SYMBOL    XDATA    ---       temp
      0001131AH   SYMBOL    XDATA    WORD      widgets_id
      0001131CH   SYMBOL    XDATA    INT       x
      0001131EH   SYMBOL    XDATA    INT       y
      00011320H   SYMBOL    XDATA    BYTE      return_state
      00011321H   SYMBOL    XDATA    ---       temp
      00011598H   SYMBOL    XDATA    WORD      widgets_id
      0001159AH   SYMBOL    XDATA    BYTE      state
      0001159BH   SYMBOL    XDATA    BYTE      return_state
      0001159CH   SYMBOL    XDATA    ---       temp
      00011C19H   SYMBOL    XDATA    ---       str
      00011C1DH   SYMBOL    XDATA    BYTE      return_state
      000114A4H   SYMBOL    XDATA    WORD      page_id
      000114A6H   SYMBOL    XDATA    INT       anim_en
      000114A8H   SYMBOL    XDATA    BYTE      return_state
      000114A9H   SYMBOL    XDATA    ---       temp
      00011C96H   SYMBOL    XDATA    WORD      page_id
      00011C98H   SYMBOL    XDATA    BYTE      state
      00011C99H   SYMBOL    XDATA    BYTE      return_state
      000114B3H   SYMBOL    XDATA    WORD      page_id
      000114B5H   SYMBOL    XDATA    ---       str
      000114B9H   SYMBOL    XDATA    BYTE      return_state
      000114BAH   SYMBOL    XDATA    ---       temp
      00011475H   SYMBOL    XDATA    INT       title_position
      00011477H   SYMBOL    XDATA    BYTE      title_width
      00011478H   SYMBOL    XDATA    BYTE      return_state
      00011479H   SYMBOL    XDATA    ---       temp
      00011951H   SYMBOL    XDATA    INT       x
      00011953H   SYMBOL    XDATA    INT       y
      00011955H   SYMBOL    XDATA    WORD      width
      00011957H   SYMBOL    XDATA    WORD      height
      00011959H   SYMBOL    XDATA    BYTE      return_state
      00010C20H   SYMBOL    XDATA    BYTE      lebel_num
      00010D2AH   SYMBOL    XDATA    WORD      label_id
      00010D2CH   SYMBOL    XDATA    ---       format
      00010D30H   SYMBOL    XDATA    LONG      str_length
      00010D34H   SYMBOL    XDATA    BYTE      return_state
      00010D35H   SYMBOL    XDATA    ---       temp
      00010D3DH   SYMBOL    XDATA    ---       arg
      000114C2H   SYMBOL    XDATA    WORD      label_id
      000114C4H   SYMBOL    XDATA    ---       str
      000114C8H   SYMBOL    XDATA    BYTE      return_state
      000114C9H   SYMBOL    XDATA    ---       temp
      000114D1H   SYMBOL    XDATA    WORD      label_id
      000114D3H   SYMBOL    XDATA    INT       mode
      000114D5H   SYMBOL    XDATA    BYTE      return_state
      000114D6H   SYMBOL    XDATA    ---       temp
      0001195AH   SYMBOL    XDATA    INT       x
      0001195CH   SYMBOL    XDATA    INT       y
      0001195EH   SYMBOL    XDATA    WORD      row_num
      00011960H   SYMBOL    XDATA    WORD      col_num
      00011962H   SYMBOL    XDATA    BYTE      return_state
      00010C21H   SYMBOL    XDATA    BYTE      table_num
      00010CE5H   SYMBOL    XDATA    WORD      table_id
      00010CE7H   SYMBOL    XDATA    BYTE      row
      00010CE8H   SYMBOL    XDATA    BYTE      col
      00010CE9H   SYMBOL    XDATA    ---       format
      00010CEDH   SYMBOL    XDATA    LONG      str_length
L251 LINKER/LOCATER V4.66.93.0                                                        03/25/2026  17:12:38  PAGE 96


      00010CF1H   SYMBOL    XDATA    BYTE      return_state
      00010CF2H   SYMBOL    XDATA    ---       arg
      00010CF6H   SYMBOL    XDATA    ---       temp
      00011377H   SYMBOL    XDATA    WORD      table_id
      00011379H   SYMBOL    XDATA    BYTE      col
      0001137AH   SYMBOL    XDATA    WORD      width
      0001137CH   SYMBOL    XDATA    BYTE      return_state
      0001137DH   SYMBOL    XDATA    ---       temp
      00011423H   SYMBOL    XDATA    WORD      table_id
      00011425H   SYMBOL    XDATA    BYTE      row
      00011426H   SYMBOL    XDATA    BYTE      col
      00011427H   SYMBOL    XDATA    BYTE      return_state
      00011428H   SYMBOL    XDATA    ---       temp
      00011963H   SYMBOL    XDATA    INT       x
      00011965H   SYMBOL    XDATA    INT       y
      00011967H   SYMBOL    XDATA    WORD      siz
      00011969H   SYMBOL    XDATA    INT       style
      0001196BH   SYMBOL    XDATA    BYTE      return_state
      00010C22H   SYMBOL    XDATA    BYTE      meter_num
      000114E0H   SYMBOL    XDATA    WORD      meter_id
      000114E2H   SYMBOL    XDATA    INT       value
      000114E4H   SYMBOL    XDATA    BYTE      return_state
      000114E5H   SYMBOL    XDATA    ---       temp
      0001196CH   SYMBOL    XDATA    INT       x
      0001196EH   SYMBOL    XDATA    INT       y
      00011970H   SYMBOL    XDATA    WORD      clock_size
      00011972H   SYMBOL    XDATA    INT       clock_type
      00011974H   SYMBOL    XDATA    BYTE      return_state
      00010C23H   SYMBOL    XDATA    BYTE      clock_num
      00011975H   SYMBOL    XDATA    INT       x
      00011977H   SYMBOL    XDATA    INT       y
      00011979H   SYMBOL    XDATA    WORD      width
      0001197BH   SYMBOL    XDATA    WORD      height
      0001197DH   SYMBOL    XDATA    BYTE      return_state
      00010C24H   SYMBOL    XDATA    BYTE      progress_bar_num
      00011434H   SYMBOL    XDATA    WORD      progress_bar_id
      00011436H   SYMBOL    XDATA    BYTE      start_value
      00011437H   SYMBOL    XDATA    BYTE      end_value
      00011438H   SYMBOL    XDATA    BYTE      return_state
      00011439H   SYMBOL    XDATA    ---       temp
      0001197EH   SYMBOL    XDATA    INT       x
      00011980H   SYMBOL    XDATA    INT       y
      00011982H   SYMBOL    XDATA    WORD      width
      00011984H   SYMBOL    XDATA    WORD      height
      00011986H   SYMBOL    XDATA    BYTE      return_state
      00011389H   SYMBOL    XDATA    WORD      year
      0001138BH   SYMBOL    XDATA    BYTE      month
      0001138CH   SYMBOL    XDATA    INT       mode
      0001138EH   SYMBOL    XDATA    BYTE      return_state
      0001138FH   SYMBOL    XDATA    ---       temp
      00011987H   SYMBOL    XDATA    INT       x
      00011989H   SYMBOL    XDATA    INT       y
      0001198BH   SYMBOL    XDATA    WORD      width
      0001198DH   SYMBOL    XDATA    WORD      height
      0001198FH   SYMBOL    XDATA    BYTE      return_state
      00010C25H   SYMBOL    XDATA    BYTE      waveform_num
      0001114FH   SYMBOL    XDATA    WORD      waveform_id
      00011151H   SYMBOL    XDATA    BYTE      line_id
      00011152H   SYMBOL    XDATA    ---       dat
      00011156H   SYMBOL    XDATA    WORD      length
      00011158H   SYMBOL    XDATA    WORD      color
      0001115AH   SYMBOL    XDATA    BYTE      return_state
      0001115BH   SYMBOL    XDATA    WORD      i
      0001115DH   SYMBOL    XDATA    ---       temp
      0001132DH   SYMBOL    XDATA    WORD      waveform_id
L251 LINKER/LOCATER V4.66.93.0                                                        03/25/2026  17:12:38  PAGE 97


      0001132FH   SYMBOL    XDATA    WORD      line_id
      00011331H   SYMBOL    XDATA    WORD      line_state
      00011333H   SYMBOL    XDATA    BYTE      return_state
      00011334H   SYMBOL    XDATA    ---       temp
      000115A6H   SYMBOL    XDATA    WORD      waveform_id
      000115A8H   SYMBOL    XDATA    BYTE      line_type
      000115A9H   SYMBOL    XDATA    BYTE      return_state
      000115AAH   SYMBOL    XDATA    ---       temp
      00011847H   SYMBOL    XDATA    WORD      waveform_id
      00011849H   SYMBOL    XDATA    BYTE      return_state
      0001184AH   SYMBOL    XDATA    ---       temp
      00011990H   SYMBOL    XDATA    INT       x
      00011992H   SYMBOL    XDATA    INT       y
      00011994H   SYMBOL    XDATA    WORD      width
      00011996H   SYMBOL    XDATA    WORD      height
      00011998H   SYMBOL    XDATA    BYTE      return_state
      00010C26H   SYMBOL    XDATA    BYTE      image_num
      00010F6BH   SYMBOL    XDATA    WORD      image_id
      00010F6DH   SYMBOL    XDATA    ---       image
      00010F71H   SYMBOL    XDATA    WORD      width
      00010F73H   SYMBOL    XDATA    WORD      height
      00010F75H   SYMBOL    XDATA    INT       image_type
      00010F77H   SYMBOL    XDATA    BYTE      threshold
      00010F78H   SYMBOL    XDATA    BYTE      return_state
      00010F79H   SYMBOL    XDATA    WORD      send_length
      00010F7BH   SYMBOL    XDATA    DWORD     image_size
      00010F7FH   SYMBOL    XDATA    ---       image_data
      00010F83H   SYMBOL    XDATA    ---       temp
      00011169H   SYMBOL    XDATA    WORD      image_id
      0001116BH   SYMBOL    XDATA    BYTE      line_id
      0001116CH   SYMBOL    XDATA    ---       line_data
      00011170H   SYMBOL    XDATA    WORD      line_length
      00011172H   SYMBOL    XDATA    INT       data_type
      00011174H   SYMBOL    XDATA    WORD      color
      00011176H   SYMBOL    XDATA    BYTE      return_state
      00011177H   SYMBOL    XDATA    ---       temp
      00010FE0H   SYMBOL    XDATA    WORD      image_id
      00010FE2H   SYMBOL    XDATA    BYTE      rectangle_id
      00010FE3H   SYMBOL    XDATA    INT       x
      00010FE5H   SYMBOL    XDATA    INT       y
      00010FE7H   SYMBOL    XDATA    WORD      rectangle_width
      00010FE9H   SYMBOL    XDATA    WORD      rectangle_height
      00010FEBH   SYMBOL    XDATA    WORD      color
      00010FEDH   SYMBOL    XDATA    BYTE      return_state
      00010FEEH   SYMBOL    XDATA    ---       temp
      00011999H   SYMBOL    XDATA    INT       x
      0001199BH   SYMBOL    XDATA    INT       y
      0001199DH   SYMBOL    XDATA    WORD      width
      0001199FH   SYMBOL    XDATA    WORD      height
      000119A1H   SYMBOL    XDATA    BYTE      return_state
      00010C27H   SYMBOL    XDATA    BYTE      container_num
      00011340H   SYMBOL    XDATA    WORD      container_id
      00011342H   SYMBOL    XDATA    WORD      border_width
      00011344H   SYMBOL    XDATA    WORD      radius
      00011346H   SYMBOL    XDATA    BYTE      return_state
      00011347H   SYMBOL    XDATA    ---       temp
      000119A2H   SYMBOL    XDATA    ---       str
      000119A6H   SYMBOL    XDATA    INT       title_position
      000119A8H   SYMBOL    XDATA    BYTE      title_size
      000119A9H   SYMBOL    XDATA    WORD      page_id

      ---         MODULE    ---      ---       zf_device_tft180
      00011A76H   PUBLIC    XDATA    WORD      tft180_pencolor
      00011A78H   PUBLIC    XDATA    WORD      tft180_bgcolor
      00011A7AH   PUBLIC    XDATA    INT       tft180_display_dir
L251 LINKER/LOCATER V4.66.93.0                                                        03/25/2026  17:12:38  PAGE 98


      00011A7CH   PUBLIC    XDATA    BYTE      tft180_x_max
      00011A7DH   PUBLIC    XDATA    BYTE      tft180_y_max
      00010E09H   PUBLIC    XDATA    BYTE      ?tft180_show_float?BYTE
      00011042H   PUBLIC    XDATA    BYTE      ?tft180_show_wave?BYTE
      000000D0H   SFRSYM    DATA     BYTE      PSW
      0000009DH   SFRSYM    DATA     BYTE      IRCBAND
      00000097H   SFRSYM    DATA     BYTE      AUXR2
      000000EFH   SFRSYM    DATA     BYTE      AUXINTIF
      000000FDH   SFRSYM    DATA     BYTE      S4CON
      000000ACH   SFRSYM    DATA     BYTE      S3CON
      0000009AH   SFRSYM    DATA     BYTE      S2CON
      000000B7H   SFRSYM    DATA     BYTE      IPH
      000000CDH   SFRSYM    DATA     BYTE      SPSTAT
      000000DDH   SFRSYM    DATA     BYTE      T4T3M
      000000C1H   SFRSYM    DATA     BYTE      WDT_CONTR
      000000DFH   SFRSYM    DATA     BYTE      IP3
      000000F4H   SFRSYM    DATA     BYTE      USBCON
      000000B5H   SFRSYM    DATA     BYTE      IP2
      000000FFH   SFRSYM    DATA     BYTE      RSTCFG
      000000C7H   SFRSYM    DATA     BYTE      IAP_CONTR
      000000F9H   SFRSYM    DATA     BYTE      LINICR
      0000008EH   SFRSYM    DATA     BYTE      AUXR
      000000AFH   SFRSYM    DATA     BYTE      IE2
      00000088H   SFRSYM    DATA     BYTE      TCON
      00000089H   SFRSYM    DATA     BYTE      TMOD
      00000098H   SFRSYM    DATA     BYTE      SCON
      000000A0H.2 SFRSYM    DATA     BIT       P22
      000000A0H.1 SFRSYM    DATA     BIT       P21
      000000A0H.0 SFRSYM    DATA     BIT       P20
      000000F1H   SFRSYM    DATA     BYTE      CANICR
      00000087H   SFRSYM    DATA     BYTE      PCON
      000000BCH   SFRSYM    DATA     BYTE      ADC_CONTR
      000000E7H   SFRSYM    DATA     BYTE      CMPCR2
      000000E6H   SFRSYM    DATA     BYTE      CMPCR1
      000000DEH   SFRSYM    DATA     BYTE      ADCCFG
      000000B8H   SFRSYM    DATA     BYTE      IP
      0000008FH   SFRSYM    DATA     BYTE      INTCLKO
      000000EEH   SFRSYM    DATA     BYTE      IP3H
      000000B6H   SFRSYM    DATA     BYTE      IP2H
      000000A8H   SFRSYM    DATA     BYTE      IE
      000000BBH   SFRSYM    DATA     BYTE      P_SW3
      000000BAH   SFRSYM    DATA     BYTE      P_SW2
      000000A2H   SFRSYM    DATA     BYTE      P_SW1
      000000CEH   SFRSYM    DATA     BYTE      SPCTL
      000000F8H   SFRSYM    DATA     BYTE      P7
      000000E8H   SFRSYM    DATA     BYTE      P6
      000000C8H   SFRSYM    DATA     BYTE      P5
      000000C0H   SFRSYM    DATA     BYTE      P4
      000000B0H   SFRSYM    DATA     BYTE      P3
      000000A0H   SFRSYM    DATA     BYTE      P2
      00000090H   SFRSYM    DATA     BYTE      P1
      00000080H   SFRSYM    DATA     BYTE      P0
      00011D2FH   SYMBOL    XDATA    BYTE      dat
      00011A7EH   SYMBOL    XDATA    WORD      x1
      00011A80H   SYMBOL    XDATA    WORD      y1
      00011A82H   SYMBOL    XDATA    WORD      x2
      00011A84H   SYMBOL    XDATA    WORD      y2
      00011BA2H   SYMBOL    XDATA    WORD      color
      00011BA4H   SYMBOL    XDATA    DWORD     i
      00011D0EH   SYMBOL    XDATA    INT       dir
      00011C9AH   SYMBOL    XDATA    WORD      pen
      00011C9CH   SYMBOL    XDATA    WORD      bgcolor
      00011BA8H   SYMBOL    XDATA    WORD      x
      00011BAAH   SYMBOL    XDATA    WORD      y
      00011BACH   SYMBOL    XDATA    WORD      color
L251 LINKER/LOCATER V4.66.93.0                                                        03/25/2026  17:12:38  PAGE 99


      00011A86H   SYMBOL    XDATA    WORD      x
      00011A88H   SYMBOL    XDATA    WORD      y
      00011A8AH   SYMBOL    XDATA    CHAR      dat
      00011A8BH   SYMBOL    XDATA    BYTE      i
      00011A8CH   SYMBOL    XDATA    BYTE      j
      00011A8DH   SYMBOL    XDATA    BYTE      temp
      000118ACH   SYMBOL    XDATA    WORD      x
      000118AEH   SYMBOL    XDATA    WORD      y
      000118B0H   SYMBOL    XDATA    ---       dat
      000118B4H   SYMBOL    XDATA    WORD      j
      000119ABH   SYMBOL    XDATA    WORD      x
      000119ADH   SYMBOL    XDATA    WORD      y
      000119AFH   SYMBOL    XDATA    CHAR      dat
      000119B0H   SYMBOL    XDATA    ---       a
      000119B3H   SYMBOL    XDATA    BYTE      i
      000119B4H   SYMBOL    XDATA    WORD      x
      000119B6H   SYMBOL    XDATA    WORD      y
      000119B8H   SYMBOL    XDATA    BYTE      dat
      000119B9H   SYMBOL    XDATA    ---       a
      000119BCH   SYMBOL    XDATA    BYTE      i
      000117B1H   SYMBOL    XDATA    WORD      x
      000117B3H   SYMBOL    XDATA    WORD      y
      000117B5H   SYMBOL    XDATA    INT       dat
      000117B7H   SYMBOL    XDATA    ---       a
      000117BCH   SYMBOL    XDATA    BYTE      i
      000117BDH   SYMBOL    XDATA    WORD      x
      000117BFH   SYMBOL    XDATA    WORD      y
      000117C1H   SYMBOL    XDATA    WORD      dat
      000117C3H   SYMBOL    XDATA    ---       a
      000117C8H   SYMBOL    XDATA    BYTE      i
      00010EC0H   SYMBOL    XDATA    WORD      x
      00010EC2H   SYMBOL    XDATA    WORD      y
      00010EC4H   SYMBOL    XDATA    LONG      dat
      00010EC8H   SYMBOL    XDATA    BYTE      num
      00010EC9H   SYMBOL    XDATA    ---       buff
      00010EEBH   SYMBOL    XDATA    BYTE      length
      00010E09H   SYMBOL    XDATA    WORD      x
      00010E0BH   SYMBOL    XDATA    WORD      y
      00010E0DH   SYMBOL    XDATA    FLOAT     dat
      00010E11H   SYMBOL    XDATA    BYTE      num
      00010E12H   SYMBOL    XDATA    BYTE      pointnum
      00010E13H   SYMBOL    XDATA    BYTE      length
      00010E14H   SYMBOL    XDATA    ---       buff
      00010E36H   SYMBOL    XDATA    CHAR      start
      00010E37H   SYMBOL    XDATA    CHAR      end
      00010E38H   SYMBOL    XDATA    CHAR      point
      00011042H   SYMBOL    XDATA    WORD      x
      00011044H   SYMBOL    XDATA    WORD      y
      00011046H   SYMBOL    XDATA    ---       p
      0001104AH   SYMBOL    XDATA    WORD      width
      0001104CH   SYMBOL    XDATA    WORD      value_max
      0001104EH   SYMBOL    XDATA    WORD      dis_width
      00011050H   SYMBOL    XDATA    WORD      dis_value_max
      00011052H   SYMBOL    XDATA    DWORD     i
      00011056H   SYMBOL    XDATA    DWORD     j
      0001105AH   SYMBOL    XDATA    DWORD     width_index
      0001105EH   SYMBOL    XDATA    DWORD     value_max_index

      ---         MODULE    ---      ---       zf_device_tsl1401
      0001020AH   PUBLIC    XDATA    BYTE      tsl1401_finish_flag
      0001020BH   PUBLIC    XDATA    ---       tsl1401_data
      000000D0H   SFRSYM    DATA     BYTE      PSW
      0000009DH   SFRSYM    DATA     BYTE      IRCBAND
      00000097H   SFRSYM    DATA     BYTE      AUXR2
      000000EFH   SFRSYM    DATA     BYTE      AUXINTIF
L251 LINKER/LOCATER V4.66.93.0                                                        03/25/2026  17:12:38  PAGE 100


      000000FDH   SFRSYM    DATA     BYTE      S4CON
      000000ACH   SFRSYM    DATA     BYTE      S3CON
      0000009AH   SFRSYM    DATA     BYTE      S2CON
      000000B7H   SFRSYM    DATA     BYTE      IPH
      000000CDH   SFRSYM    DATA     BYTE      SPSTAT
      000000DDH   SFRSYM    DATA     BYTE      T4T3M
      000000C1H   SFRSYM    DATA     BYTE      WDT_CONTR
      000000DFH   SFRSYM    DATA     BYTE      IP3
      000000F4H   SFRSYM    DATA     BYTE      USBCON
      000000B5H   SFRSYM    DATA     BYTE      IP2
      000000FFH   SFRSYM    DATA     BYTE      RSTCFG
      000000C7H   SFRSYM    DATA     BYTE      IAP_CONTR
      000000F9H   SFRSYM    DATA     BYTE      LINICR
      0000008EH   SFRSYM    DATA     BYTE      AUXR
      000000AFH   SFRSYM    DATA     BYTE      IE2
      00000088H   SFRSYM    DATA     BYTE      TCON
      00000089H   SFRSYM    DATA     BYTE      TMOD
      00000098H   SFRSYM    DATA     BYTE      SCON
      000000F1H   SFRSYM    DATA     BYTE      CANICR
      00000087H   SFRSYM    DATA     BYTE      PCON
      000000BCH   SFRSYM    DATA     BYTE      ADC_CONTR
      000000E7H   SFRSYM    DATA     BYTE      CMPCR2
      000000E6H   SFRSYM    DATA     BYTE      CMPCR1
      000000DEH   SFRSYM    DATA     BYTE      ADCCFG
      000000B8H   SFRSYM    DATA     BYTE      IP
      0000008FH   SFRSYM    DATA     BYTE      INTCLKO
      000000EEH   SFRSYM    DATA     BYTE      IP3H
      000000B6H   SFRSYM    DATA     BYTE      IP2H
      000000A8H   SFRSYM    DATA     BYTE      IE
      000000BBH   SFRSYM    DATA     BYTE      P_SW3
      000000BAH   SFRSYM    DATA     BYTE      P_SW2
      000000A2H   SFRSYM    DATA     BYTE      P_SW1
      000000CEH   SFRSYM    DATA     BYTE      SPCTL
      000000F8H   SFRSYM    DATA     BYTE      P7
      000000E8H   SFRSYM    DATA     BYTE      P6
      000000C8H   SFRSYM    DATA     BYTE      P5
      000000C0H   SFRSYM    DATA     BYTE      P4
      000000B0H   SFRSYM    DATA     BYTE      P3
      000000A0H   SFRSYM    DATA     BYTE      P2
      00000090H   SFRSYM    DATA     BYTE      P1
      00000080H   SFRSYM    DATA     BYTE      P0
      0001040BH   SYMBOL    XDATA    BYTE      tsl1401_init_state
      00011D30H   SYMBOL    XDATA    BYTE      i
      00011C9EH   SYMBOL    XDATA    INT       uart_n
      00011CA0H   SYMBOL    XDATA    BYTE      index
      00011CA1H   SYMBOL    XDATA    BYTE      i

      ---         MODULE    ---      ---       zf_device_type
      00011A8EH   PUBLIC    XDATA    ---       tof_module_exti_handler
      00011A90H   PUBLIC    XDATA    INT       wireless_type
      00011A92H   PUBLIC    XDATA    INT       tof_type
      00011A94H   PUBLIC    XDATA    INT       gps_type
      000000D0H   SFRSYM    DATA     BYTE      PSW
      0000009DH   SFRSYM    DATA     BYTE      IRCBAND
      00000097H   SFRSYM    DATA     BYTE      AUXR2
      000000EFH   SFRSYM    DATA     BYTE      AUXINTIF
      000000FDH   SFRSYM    DATA     BYTE      S4CON
      000000ACH   SFRSYM    DATA     BYTE      S3CON
      0000009AH   SFRSYM    DATA     BYTE      S2CON
      000000B7H   SFRSYM    DATA     BYTE      IPH
      000000CDH   SFRSYM    DATA     BYTE      SPSTAT
      000000DDH   SFRSYM    DATA     BYTE      T4T3M
      000000C1H   SFRSYM    DATA     BYTE      WDT_CONTR
      000000DFH   SFRSYM    DATA     BYTE      IP3
      000000F4H   SFRSYM    DATA     BYTE      USBCON
L251 LINKER/LOCATER V4.66.93.0                                                        03/25/2026  17:12:38  PAGE 101


      000000B5H   SFRSYM    DATA     BYTE      IP2
      000000FFH   SFRSYM    DATA     BYTE      RSTCFG
      000000C7H   SFRSYM    DATA     BYTE      IAP_CONTR
      000000F9H   SFRSYM    DATA     BYTE      LINICR
      0000008EH   SFRSYM    DATA     BYTE      AUXR
      000000AFH   SFRSYM    DATA     BYTE      IE2
      00000088H   SFRSYM    DATA     BYTE      TCON
      00000089H   SFRSYM    DATA     BYTE      TMOD
      00000098H   SFRSYM    DATA     BYTE      SCON
      000000F1H   SFRSYM    DATA     BYTE      CANICR
      00000087H   SFRSYM    DATA     BYTE      PCON
      000000BCH   SFRSYM    DATA     BYTE      ADC_CONTR
      000000E7H   SFRSYM    DATA     BYTE      CMPCR2
      000000E6H   SFRSYM    DATA     BYTE      CMPCR1
      000000DEH   SFRSYM    DATA     BYTE      ADCCFG
      000000B8H   SFRSYM    DATA     BYTE      IP
      0000008FH   SFRSYM    DATA     BYTE      INTCLKO
      000000EEH   SFRSYM    DATA     BYTE      IP3H
      000000B6H   SFRSYM    DATA     BYTE      IP2H
      000000A8H   SFRSYM    DATA     BYTE      IE
      000000BBH   SFRSYM    DATA     BYTE      P_SW3
      000000BAH   SFRSYM    DATA     BYTE      P_SW2
      000000A2H   SFRSYM    DATA     BYTE      P_SW1
      000000CEH   SFRSYM    DATA     BYTE      SPCTL
      000000F8H   SFRSYM    DATA     BYTE      P7
      000000E8H   SFRSYM    DATA     BYTE      P6
      000000C8H   SFRSYM    DATA     BYTE      P5
      000000C0H   SFRSYM    DATA     BYTE      P4
      000000B0H   SFRSYM    DATA     BYTE      P3
      000000A0H   SFRSYM    DATA     BYTE      P2
      00000090H   SFRSYM    DATA     BYTE      P1
      00000080H   SFRSYM    DATA     BYTE      P0
      00011A96H   SYMBOL    XDATA    INT       type_set
      00011A98H   SYMBOL    XDATA    INT       uartx
      00011A9AH   SYMBOL    XDATA    ---       uart_callback
      00011BAEH   SYMBOL    XDATA    INT       type_set
      00011BB0H   SYMBOL    XDATA    ---       exti_callback
      00011A9EH   SYMBOL    XDATA    INT       type_set
      00011AA0H   SYMBOL    XDATA    INT       uartx
      00011AA2H   SYMBOL    XDATA    ---       uart_callback

      ---         MODULE    ---      ---       zf_device_wireless_uart
      000000D0H   SFRSYM    DATA     BYTE      PSW
      0000009DH   SFRSYM    DATA     BYTE      IRCBAND
      00000097H   SFRSYM    DATA     BYTE      AUXR2
      000000EFH   SFRSYM    DATA     BYTE      AUXINTIF
      000000FDH   SFRSYM    DATA     BYTE      S4CON
      000000ACH   SFRSYM    DATA     BYTE      S3CON
      0000009AH   SFRSYM    DATA     BYTE      S2CON
      000000B7H   SFRSYM    DATA     BYTE      IPH
      000000CDH   SFRSYM    DATA     BYTE      SPSTAT
      000000DDH   SFRSYM    DATA     BYTE      T4T3M
      000000C1H   SFRSYM    DATA     BYTE      WDT_CONTR
      000000DFH   SFRSYM    DATA     BYTE      IP3
      000000F4H   SFRSYM    DATA     BYTE      USBCON
      000000B5H   SFRSYM    DATA     BYTE      IP2
      000000FFH   SFRSYM    DATA     BYTE      RSTCFG
      000000C7H   SFRSYM    DATA     BYTE      IAP_CONTR
      000000F9H   SFRSYM    DATA     BYTE      LINICR
      0000008EH   SFRSYM    DATA     BYTE      AUXR
      000000AFH   SFRSYM    DATA     BYTE      IE2
      00000088H   SFRSYM    DATA     BYTE      TCON
      00000089H   SFRSYM    DATA     BYTE      TMOD
      00000098H   SFRSYM    DATA     BYTE      SCON
      000000F1H   SFRSYM    DATA     BYTE      CANICR
L251 LINKER/LOCATER V4.66.93.0                                                        03/25/2026  17:12:38  PAGE 102


      00000087H   SFRSYM    DATA     BYTE      PCON
      000000BCH   SFRSYM    DATA     BYTE      ADC_CONTR
      000000E7H   SFRSYM    DATA     BYTE      CMPCR2
      000000E6H   SFRSYM    DATA     BYTE      CMPCR1
      000000DEH   SFRSYM    DATA     BYTE      ADCCFG
      000000B8H   SFRSYM    DATA     BYTE      IP
      0000008FH   SFRSYM    DATA     BYTE      INTCLKO
      000000EEH   SFRSYM    DATA     BYTE      IP3H
      000000B6H   SFRSYM    DATA     BYTE      IP2H
      000000A8H   SFRSYM    DATA     BYTE      IE
      000000BBH   SFRSYM    DATA     BYTE      P_SW3
      000000BAH   SFRSYM    DATA     BYTE      P_SW2
      000000A2H   SFRSYM    DATA     BYTE      P_SW1
      000000CEH   SFRSYM    DATA     BYTE      SPCTL
      000000F8H   SFRSYM    DATA     BYTE      P7
      000000E8H   SFRSYM    DATA     BYTE      P6
      000000C8H   SFRSYM    DATA     BYTE      P5
      000000C0H   SFRSYM    DATA     BYTE      P4
      000000B0H   SFRSYM    DATA     BYTE      P3
      000000A0H   SFRSYM    DATA     BYTE      P2
      00000090H   SFRSYM    DATA     BYTE      P1
      00000080H   SFRSYM    DATA     BYTE      P0
      00010B31H   SYMBOL    XDATA    ---       wireless_uart_fifo
      00010B48H   SYMBOL    XDATA    ---       wireless_uart_buffer
      00011CD3H   SYMBOL    XDATA    BYTE      dat
      00011CD4H   SYMBOL    XDATA    WORD      time_cnt
      000117C9H   SYMBOL    XDATA    ---       buff
      000117CDH   SYMBOL    XDATA    DWORD     len
      000117D1H   SYMBOL    XDATA    WORD      time_cnt
      000117D3H   SYMBOL    XDATA    WORD      send_len
      00011AA6H   SYMBOL    XDATA    ---       str
      00011AAAH   SYMBOL    XDATA    DWORD     len
      000117D5H   SYMBOL    XDATA    ---       buff
      000117D9H   SYMBOL    XDATA    DWORD     len
      000117DDH   SYMBOL    XDATA    DWORD     data_len
      00011D31H   SYMBOL    XDATA    BYTE      uart_dat
      00011D32H   SYMBOL    XDATA    BYTE      return_state

      ---         MODULE    ---      ---       seekfree_assistant
      000105DCH   PUBLIC    XDATA    ---       seekfree_assistant_oscilloscope_data
      00010617H   PUBLIC    XDATA    ---       seekfree_assistant_parameter_update_flag
      0001061FH   PUBLIC    XDATA    ---       seekfree_assistant_parameter
      000114EFH   PUBLIC    XDATA    BYTE      ?seekfree_assistant_camera_data_send?BYTE
      000118B6H   PUBLIC    XDATA    BYTE      ?seekfree_assistant_camera_information_config?BYTE
      000110A0H   PUBLIC    XDATA    BYTE      ?seekfree_assistant_camera_boundary_config?BYTE
      000000D0H   SFRSYM    DATA     BYTE      PSW
      0000009DH   SFRSYM    DATA     BYTE      IRCBAND
      00000097H   SFRSYM    DATA     BYTE      AUXR2
      000000EFH   SFRSYM    DATA     BYTE      AUXINTIF
      000000FDH   SFRSYM    DATA     BYTE      S4CON
      000000ACH   SFRSYM    DATA     BYTE      S3CON
      0000009AH   SFRSYM    DATA     BYTE      S2CON
      000000B7H   SFRSYM    DATA     BYTE      IPH
      000000CDH   SFRSYM    DATA     BYTE      SPSTAT
      000000DDH   SFRSYM    DATA     BYTE      T4T3M
      000000C1H   SFRSYM    DATA     BYTE      WDT_CONTR
      000000DFH   SFRSYM    DATA     BYTE      IP3
      000000F4H   SFRSYM    DATA     BYTE      USBCON
      000000B5H   SFRSYM    DATA     BYTE      IP2
      000000FFH   SFRSYM    DATA     BYTE      RSTCFG
      000000C7H   SFRSYM    DATA     BYTE      IAP_CONTR
      000000F9H   SFRSYM    DATA     BYTE      LINICR
      0000008EH   SFRSYM    DATA     BYTE      AUXR
      000000AFH   SFRSYM    DATA     BYTE      IE2
      00000088H   SFRSYM    DATA     BYTE      TCON
L251 LINKER/LOCATER V4.66.93.0                                                        03/25/2026  17:12:38  PAGE 103


      00000089H   SFRSYM    DATA     BYTE      TMOD
      00000098H   SFRSYM    DATA     BYTE      SCON
      000000F1H   SFRSYM    DATA     BYTE      CANICR
      00000087H   SFRSYM    DATA     BYTE      PCON
      000000BCH   SFRSYM    DATA     BYTE      ADC_CONTR
      000000E7H   SFRSYM    DATA     BYTE      CMPCR2
      000000E6H   SFRSYM    DATA     BYTE      CMPCR1
      000000DEH   SFRSYM    DATA     BYTE      ADCCFG
      000000B8H   SFRSYM    DATA     BYTE      IP
      0000008FH   SFRSYM    DATA     BYTE      INTCLKO
      000000EEH   SFRSYM    DATA     BYTE      IP3H
      000000B6H   SFRSYM    DATA     BYTE      IP2H
      000000A8H   SFRSYM    DATA     BYTE      IE
      000000BBH   SFRSYM    DATA     BYTE      P_SW3
      000000BAH   SFRSYM    DATA     BYTE      P_SW2
      000000A2H   SFRSYM    DATA     BYTE      P_SW1
      000000CEH   SFRSYM    DATA     BYTE      SPCTL
      000000F8H   SFRSYM    DATA     BYTE      P7
      000000A8H.7 SFRSYM    DATA     BIT       EA
      000000E8H   SFRSYM    DATA     BYTE      P6
      000000C8H   SFRSYM    DATA     BYTE      P5
      000000C0H   SFRSYM    DATA     BYTE      P4
      000000B0H   SFRSYM    DATA     BYTE      P3
      000000A0H   SFRSYM    DATA     BYTE      P2
      00000090H   SFRSYM    DATA     BYTE      P1
      00000080H   SFRSYM    DATA     BYTE      P0
      000105D4H   SYMBOL    XDATA    ---       seekfree_assistant_camera_dot_data
      00010600H   SYMBOL    XDATA    ---       seekfree_assistant_fifo
      0001063FH   SYMBOL    XDATA    ---       seekfree_assistant_camera_buffer
      00010689H   SYMBOL    XDATA    ---       seekfree_assistant_camera_data
      00010691H   SYMBOL    XDATA    ---       seekfree_assistant_buffer
      00FF718EH   SYMBOL    HCONST   ---       ?tpl?0001
      00FF71B2H   SYMBOL    HCONST   ---       ?tpl?0002
      000119BDH   SYMBOL    XDATA    ---       buffer
      000119C1H   SYMBOL    XDATA    DWORD     length
      000119C5H   SYMBOL    XDATA    BYTE      temp_sum
      000114EFH   SYMBOL    XDATA    INT       camera_type
      000114F1H   SYMBOL    XDATA    ---       image_addr
      000114F5H   SYMBOL    XDATA    BYTE      boundary_num
      000114F6H   SYMBOL    XDATA    WORD      width
      000114F8H   SYMBOL    XDATA    WORD      height
      000114FAH   SYMBOL    XDATA    DWORD     image_size
      000118B6H   SYMBOL    XDATA    INT       camera_type
      000118B8H   SYMBOL    XDATA    ---       image_addr
      000118BCH   SYMBOL    XDATA    WORD      width
      000118BEH   SYMBOL    XDATA    WORD      height
      00010F41H   SYMBOL    XDATA    ---       seekfree_assistant_oscilloscope
      00010F45H   SYMBOL    XDATA    BYTE      packet_size
      00010F46H   SYMBOL    XDATA    BYTE      i
      00010F47H   SYMBOL    XDATA    ---       temp_oscilloscope
      00011AE1H   SYMBOL    XDATA    ---       buffer
      00011AE5H   SYMBOL    XDATA    BYTE      i
      00011AE6H   SYMBOL    XDATA    WORD      dot_bytes
      000110A0H   SYMBOL    XDATA    INT       boundary_type
      000110A2H   SYMBOL    XDATA    WORD      dot_num
      000110A4H   SYMBOL    XDATA    ---       dot_x1
      000110A8H   SYMBOL    XDATA    ---       dot_x2
      000110ACH   SYMBOL    XDATA    ---       dot_x3
      000110B0H   SYMBOL    XDATA    ---       dot_y1
      000110B4H   SYMBOL    XDATA    ---       dot_y2
      000110B8H   SYMBOL    XDATA    ---       dot_y3
      000110BCH   SYMBOL    XDATA    BYTE      i
      000110BDH   SYMBOL    XDATA    BYTE      boundary_num
      000110BEH   SYMBOL    XDATA    BYTE      boundary_data_type
      00010993H   SYMBOL    XDATA    BYTE      temp_sum
L251 LINKER/LOCATER V4.66.93.0                                                        03/25/2026  17:12:38  PAGE 104


      00010994H   SYMBOL    XDATA    DWORD     read_length
      00010998H   SYMBOL    XDATA    WORD      struct_len
      0001099AH   SYMBOL    XDATA    ---       receive_packet
      0001099EH   SYMBOL    XDATA    ---       temp_buffer
      00010A1EH   SYMBOL    XDATA    DWORD     i
      00000020H.3 SYMBOL    BIT      BIT       flag

      ---         MODULE    ---      ---       seekfree_assistant_interface
      00011CA2H   PUBLIC    XDATA    ---       seekfree_assistant_receive_callback
      00011CA4H   PUBLIC    XDATA    ---       seekfree_assistant_transfer_callback
      000000D0H   SFRSYM    DATA     BYTE      PSW
      0000009DH   SFRSYM    DATA     BYTE      IRCBAND
      00000097H   SFRSYM    DATA     BYTE      AUXR2
      000000EFH   SFRSYM    DATA     BYTE      AUXINTIF
      000000FDH   SFRSYM    DATA     BYTE      S4CON
      000000ACH   SFRSYM    DATA     BYTE      S3CON
      0000009AH   SFRSYM    DATA     BYTE      S2CON
      000000B7H   SFRSYM    DATA     BYTE      IPH
      000000CDH   SFRSYM    DATA     BYTE      SPSTAT
      000000DDH   SFRSYM    DATA     BYTE      T4T3M
      000000C1H   SFRSYM    DATA     BYTE      WDT_CONTR
      000000DFH   SFRSYM    DATA     BYTE      IP3
      000000F4H   SFRSYM    DATA     BYTE      USBCON
      000000B5H   SFRSYM    DATA     BYTE      IP2
      000000FFH   SFRSYM    DATA     BYTE      RSTCFG
      000000C7H   SFRSYM    DATA     BYTE      IAP_CONTR
      000000F9H   SFRSYM    DATA     BYTE      LINICR
      0000008EH   SFRSYM    DATA     BYTE      AUXR
      000000AFH   SFRSYM    DATA     BYTE      IE2
      00000088H   SFRSYM    DATA     BYTE      TCON
      00000089H   SFRSYM    DATA     BYTE      TMOD
      00000098H   SFRSYM    DATA     BYTE      SCON
      000000F1H   SFRSYM    DATA     BYTE      CANICR
      00000087H   SFRSYM    DATA     BYTE      PCON
      000000BCH   SFRSYM    DATA     BYTE      ADC_CONTR
      000000E7H   SFRSYM    DATA     BYTE      CMPCR2
      000000E6H   SFRSYM    DATA     BYTE      CMPCR1
      000000DEH   SFRSYM    DATA     BYTE      ADCCFG
      000000B8H   SFRSYM    DATA     BYTE      IP
      0000008FH   SFRSYM    DATA     BYTE      INTCLKO
      000000EEH   SFRSYM    DATA     BYTE      IP3H
      000000B6H   SFRSYM    DATA     BYTE      IP2H
      000000A8H   SFRSYM    DATA     BYTE      IE
      000000BBH   SFRSYM    DATA     BYTE      P_SW3
      000000BAH   SFRSYM    DATA     BYTE      P_SW2
      000000A2H   SFRSYM    DATA     BYTE      P_SW1
      000000CEH   SFRSYM    DATA     BYTE      SPCTL
      000000F8H   SFRSYM    DATA     BYTE      P7
      000000E8H   SFRSYM    DATA     BYTE      P6
      000000C8H   SFRSYM    DATA     BYTE      P5
      000000C0H   SFRSYM    DATA     BYTE      P4
      000000B0H   SFRSYM    DATA     BYTE      P3
      000000A0H   SFRSYM    DATA     BYTE      P2
      00000090H   SFRSYM    DATA     BYTE      P1
      00000080H   SFRSYM    DATA     BYTE      P0
      00011D10H   SYMBOL    XDATA    INT       transfer_device

      ---         MODULE    ---      ---       isr
      00FF6407H   PUBLIC    CODE     ---       INT0_IRQHandler
      00FF6447H   PUBLIC    CODE     ---       INT1_IRQHandler
      00FF6487H   PUBLIC    CODE     ---       INT2_IRQHandler
      00FF64C7H   PUBLIC    CODE     ---       INT3_IRQHandler
      00FF6507H   PUBLIC    CODE     ---       INT4_IRQHandler
      00FF5AF7H   PUBLIC    CODE     ---       DMA_UART1_IRQHandler
      00FF5E34H   PUBLIC    CODE     ---       DMA_UART2_IRQHandler
L251 LINKER/LOCATER V4.66.93.0                                                        03/25/2026  17:12:38  PAGE 105


      00FF5EC3H   PUBLIC    CODE     ---       DMA_UART3_IRQHandler
      00FF5F52H   PUBLIC    CODE     ---       DMA_UART4_IRQHandler
      00FF6547H   PUBLIC    CODE     ---       TM0_IRQHandler
      00FF6587H   PUBLIC    CODE     ---       TM1_IRQHandler
      00FF65C7H   PUBLIC    CODE     ---       TM2_IRQHandler
      00FF6607H   PUBLIC    CODE     ---       TM3_IRQHandler
      00FF6647H   PUBLIC    CODE     ---       TM4_IRQHandler
      000000D0H   SFRSYM    DATA     BYTE      PSW
      0000009DH   SFRSYM    DATA     BYTE      IRCBAND
      00000097H   SFRSYM    DATA     BYTE      AUXR2
      000000EFH   SFRSYM    DATA     BYTE      AUXINTIF
      000000FDH   SFRSYM    DATA     BYTE      S4CON
      000000ACH   SFRSYM    DATA     BYTE      S3CON
      0000009AH   SFRSYM    DATA     BYTE      S2CON
      000000B7H   SFRSYM    DATA     BYTE      IPH
      000000CDH   SFRSYM    DATA     BYTE      SPSTAT
      000000DDH   SFRSYM    DATA     BYTE      T4T3M
      000000C1H   SFRSYM    DATA     BYTE      WDT_CONTR
      000000DFH   SFRSYM    DATA     BYTE      IP3
      000000F4H   SFRSYM    DATA     BYTE      USBCON
      000000B5H   SFRSYM    DATA     BYTE      IP2
      000000FFH   SFRSYM    DATA     BYTE      RSTCFG
      000000C7H   SFRSYM    DATA     BYTE      IAP_CONTR
      000000F9H   SFRSYM    DATA     BYTE      LINICR
      0000008EH   SFRSYM    DATA     BYTE      AUXR
      000000AFH   SFRSYM    DATA     BYTE      IE2
      00000088H   SFRSYM    DATA     BYTE      TCON
      00000089H   SFRSYM    DATA     BYTE      TMOD
      00000098H   SFRSYM    DATA     BYTE      SCON
      000000F1H   SFRSYM    DATA     BYTE      CANICR
      00000087H   SFRSYM    DATA     BYTE      PCON
      000000BCH   SFRSYM    DATA     BYTE      ADC_CONTR
      000000E7H   SFRSYM    DATA     BYTE      CMPCR2
      000000E6H   SFRSYM    DATA     BYTE      CMPCR1
      000000DEH   SFRSYM    DATA     BYTE      ADCCFG
      000000B8H   SFRSYM    DATA     BYTE      IP
      0000008FH   SFRSYM    DATA     BYTE      INTCLKO
      000000EEH   SFRSYM    DATA     BYTE      IP3H
      000000B6H   SFRSYM    DATA     BYTE      IP2H
      000000A8H   SFRSYM    DATA     BYTE      IE
      000000BBH   SFRSYM    DATA     BYTE      P_SW3
      000000BAH   SFRSYM    DATA     BYTE      P_SW2
      000000A2H   SFRSYM    DATA     BYTE      P_SW1
      000000CEH   SFRSYM    DATA     BYTE      SPCTL
      000000F8H   SFRSYM    DATA     BYTE      P7
      000000E8H   SFRSYM    DATA     BYTE      P6
      000000C8H   SFRSYM    DATA     BYTE      P5
      000000C0H   SFRSYM    DATA     BYTE      P4
      000000B0H   SFRSYM    DATA     BYTE      P3
      000000A0H   SFRSYM    DATA     BYTE      P2
      00000090H   SFRSYM    DATA     BYTE      P1
      00000080H   SFRSYM    DATA     BYTE      P0

      00FF6407H   BLOCK     CODE     ---       LVL=0
      00FF6407H   LINE      CODE     ---       #39
      00FF641BH   LINE      CODE     ---       #41
      00FF641EH   LINE      CODE     ---       #42
      00FF642AH   LINE      CODE     ---       #44
      00FF6432H   LINE      CODE     ---       #45
      ---         BLOCKEND  ---      ---       LVL=0

      00FF6447H   BLOCK     CODE     ---       LVL=0
      00FF6447H   LINE      CODE     ---       #49
      00FF645BH   LINE      CODE     ---       #51
      00FF645EH   LINE      CODE     ---       #52
L251 LINKER/LOCATER V4.66.93.0                                                        03/25/2026  17:12:38  PAGE 106


      00FF646AH   LINE      CODE     ---       #54
      00FF6472H   LINE      CODE     ---       #55
      ---         BLOCKEND  ---      ---       LVL=0

      00FF6487H   BLOCK     CODE     ---       LVL=0
      00FF6487H   LINE      CODE     ---       #58
      00FF649BH   LINE      CODE     ---       #60
      00FF649EH   LINE      CODE     ---       #61
      00FF64AAH   LINE      CODE     ---       #63
      00FF64B2H   LINE      CODE     ---       #64
      ---         BLOCKEND  ---      ---       LVL=0

      00FF64C7H   BLOCK     CODE     ---       LVL=0
      00FF64C7H   LINE      CODE     ---       #66
      00FF64DBH   LINE      CODE     ---       #68
      00FF64DEH   LINE      CODE     ---       #69
      00FF64EAH   LINE      CODE     ---       #71
      00FF64F2H   LINE      CODE     ---       #72
      ---         BLOCKEND  ---      ---       LVL=0

      00FF6507H   BLOCK     CODE     ---       LVL=0
      00FF6507H   LINE      CODE     ---       #75
      00FF651BH   LINE      CODE     ---       #77
      00FF651EH   LINE      CODE     ---       #78
      00FF652AH   LINE      CODE     ---       #80
      00FF6532H   LINE      CODE     ---       #81
      ---         BLOCKEND  ---      ---       LVL=0

      00FF5AF7H   BLOCK     CODE     ---       LVL=0
      00FF5B0BH   BLOCK     CODE     NEAR LAB  LVL=1
      00011D33H   SYMBOL    XDATA    BYTE      dwon_count
      ---         BLOCKEND  ---      ---       LVL=1
      00FF5AF7H   LINE      CODE     ---       #85
      00FF5B0BH   LINE      CODE     ---       #86
      00FF5B0BH   LINE      CODE     ---       #89
      00FF5B19H   LINE      CODE     ---       #91
      00FF5B2BH   LINE      CODE     ---       #92
      00FF5B30H   LINE      CODE     ---       #95
      00FF5B39H   LINE      CODE     ---       #97
      00FF5B4AH   LINE      CODE     ---       #99
      00FF5B4EH   LINE      CODE     ---       #100
      00FF5B50H   LINE      CODE     ---       #104
      00FF5B55H   LINE      CODE     ---       #105
      00FF5B55H   LINE      CODE     ---       #107
      00FF5B61H   LINE      CODE     ---       #109
      00FF5B6DH   LINE      CODE     ---       #110
      00FF5B6DH   LINE      CODE     ---       #113
      00FF5B7BH   LINE      CODE     ---       #115
      00FF5B8DH   LINE      CODE     ---       #116
      00FF5B92H   LINE      CODE     ---       #120
      ---         BLOCKEND  ---      ---       LVL=0

      00FF5E34H   BLOCK     CODE     ---       LVL=0
      00FF5E34H   LINE      CODE     ---       #123
      00FF5E48H   LINE      CODE     ---       #125
      00FF5E56H   LINE      CODE     ---       #127
      00FF5E68H   LINE      CODE     ---       #128
      00FF5E6FH   LINE      CODE     ---       #130
      00FF5E7BH   LINE      CODE     ---       #132
      00FF5E87H   LINE      CODE     ---       #133
      00FF5E87H   LINE      CODE     ---       #136
      00FF5E95H   LINE      CODE     ---       #138
      00FF5EA7H   LINE      CODE     ---       #139
      00FF5EAEH   LINE      CODE     ---       #143
      ---         BLOCKEND  ---      ---       LVL=0
L251 LINKER/LOCATER V4.66.93.0                                                        03/25/2026  17:12:38  PAGE 107



      00FF5EC3H   BLOCK     CODE     ---       LVL=0
      00FF5EC3H   LINE      CODE     ---       #146
      00FF5ED7H   LINE      CODE     ---       #148
      00FF5EE5H   LINE      CODE     ---       #150
      00FF5EF7H   LINE      CODE     ---       #151
      00FF5EFEH   LINE      CODE     ---       #153
      00FF5F0AH   LINE      CODE     ---       #155
      00FF5F16H   LINE      CODE     ---       #156
      00FF5F16H   LINE      CODE     ---       #159
      00FF5F24H   LINE      CODE     ---       #161
      00FF5F36H   LINE      CODE     ---       #162
      00FF5F3DH   LINE      CODE     ---       #166
      ---         BLOCKEND  ---      ---       LVL=0

      00FF5F52H   BLOCK     CODE     ---       LVL=0
      00FF5F52H   LINE      CODE     ---       #169
      00FF5F66H   LINE      CODE     ---       #171
      00FF5F74H   LINE      CODE     ---       #173
      00FF5F86H   LINE      CODE     ---       #174
      00FF5F8DH   LINE      CODE     ---       #176
      00FF5F99H   LINE      CODE     ---       #178
      00FF5FA5H   LINE      CODE     ---       #179
      00FF5FA5H   LINE      CODE     ---       #182
      00FF5FB3H   LINE      CODE     ---       #184
      00FF5FC5H   LINE      CODE     ---       #185
      00FF5FCCH   LINE      CODE     ---       #189
      ---         BLOCKEND  ---      ---       LVL=0

      00FF6547H   BLOCK     CODE     ---       LVL=0
      00FF6547H   LINE      CODE     ---       #192
      00FF655BH   LINE      CODE     ---       #194
      00FF655EH   LINE      CODE     ---       #196
      00FF656AH   LINE      CODE     ---       #198
      00FF6572H   LINE      CODE     ---       #199
      ---         BLOCKEND  ---      ---       LVL=0

      00FF6587H   BLOCK     CODE     ---       LVL=0
      00FF6587H   LINE      CODE     ---       #202
      00FF659BH   LINE      CODE     ---       #204
      00FF659EH   LINE      CODE     ---       #206
      00FF65AAH   LINE      CODE     ---       #208
      00FF65B2H   LINE      CODE     ---       #209
      ---         BLOCKEND  ---      ---       LVL=0

      00FF65C7H   BLOCK     CODE     ---       LVL=0
      00FF65C7H   LINE      CODE     ---       #212
      00FF65DBH   LINE      CODE     ---       #214
      00FF65DEH   LINE      CODE     ---       #216
      00FF65EAH   LINE      CODE     ---       #218
      00FF65F2H   LINE      CODE     ---       #219
      ---         BLOCKEND  ---      ---       LVL=0

      00FF6607H   BLOCK     CODE     ---       LVL=0
      00FF6607H   LINE      CODE     ---       #222
      00FF661BH   LINE      CODE     ---       #224
      00FF661EH   LINE      CODE     ---       #226
      00FF662AH   LINE      CODE     ---       #228
      00FF6632H   LINE      CODE     ---       #229
      ---         BLOCKEND  ---      ---       LVL=0

      00FF6647H   BLOCK     CODE     ---       LVL=0
      00FF6647H   LINE      CODE     ---       #232
      00FF665BH   LINE      CODE     ---       #234
      00FF665EH   LINE      CODE     ---       #236
L251 LINKER/LOCATER V4.66.93.0                                                        03/25/2026  17:12:38  PAGE 108


      00FF666AH   LINE      CODE     ---       #238
      00FF6672H   LINE      CODE     ---       #239
      ---         BLOCKEND  ---      ---       LVL=0

      ---         MODULE    ---      ---       main
      00FF63BBH   PUBLIC    CODE     ---       pit_handler
      00FF6735H   PUBLIC    CODE     ---       main
      00FF66FFH   PUBLIC    CODE     ---       _m
      00011D12H   PUBLIC    XDATA    WORD      pit0_count
      000000D0H   SFRSYM    DATA     BYTE      PSW
      0000009DH   SFRSYM    DATA     BYTE      IRCBAND
      00000097H   SFRSYM    DATA     BYTE      AUXR2
      000000EFH   SFRSYM    DATA     BYTE      AUXINTIF
      000000FDH   SFRSYM    DATA     BYTE      S4CON
      000000ACH   SFRSYM    DATA     BYTE      S3CON
      0000009AH   SFRSYM    DATA     BYTE      S2CON
      000000B7H   SFRSYM    DATA     BYTE      IPH
      000000CDH   SFRSYM    DATA     BYTE      SPSTAT
      000000DDH   SFRSYM    DATA     BYTE      T4T3M
      000000C1H   SFRSYM    DATA     BYTE      WDT_CONTR
      000000DFH   SFRSYM    DATA     BYTE      IP3
      000000F4H   SFRSYM    DATA     BYTE      USBCON
      000000B5H   SFRSYM    DATA     BYTE      IP2
      000000FFH   SFRSYM    DATA     BYTE      RSTCFG
      000000C7H   SFRSYM    DATA     BYTE      IAP_CONTR
      000000F9H   SFRSYM    DATA     BYTE      LINICR
      0000008EH   SFRSYM    DATA     BYTE      AUXR
      000000AFH   SFRSYM    DATA     BYTE      IE2
      00000088H   SFRSYM    DATA     BYTE      TCON
      00000089H   SFRSYM    DATA     BYTE      TMOD
      00000098H   SFRSYM    DATA     BYTE      SCON
      000000F1H   SFRSYM    DATA     BYTE      CANICR
      00000087H   SFRSYM    DATA     BYTE      PCON
      000000BCH   SFRSYM    DATA     BYTE      ADC_CONTR
      000000E7H   SFRSYM    DATA     BYTE      CMPCR2
      000000E6H   SFRSYM    DATA     BYTE      CMPCR1
      000000DEH   SFRSYM    DATA     BYTE      ADCCFG
      000000B8H   SFRSYM    DATA     BYTE      IP
      0000008FH   SFRSYM    DATA     BYTE      INTCLKO
      000000EEH   SFRSYM    DATA     BYTE      IP3H
      000000B6H   SFRSYM    DATA     BYTE      IP2H
      000000A8H   SFRSYM    DATA     BYTE      IE
      000000BBH   SFRSYM    DATA     BYTE      P_SW3
      000000BAH   SFRSYM    DATA     BYTE      P_SW2
      000000A2H   SFRSYM    DATA     BYTE      P_SW1
      000000CEH   SFRSYM    DATA     BYTE      SPCTL
      000000F8H   SFRSYM    DATA     BYTE      P7
      000000E8H   SFRSYM    DATA     BYTE      P6
      000000C8H   SFRSYM    DATA     BYTE      P5
      000000C0H   SFRSYM    DATA     BYTE      P4
      000000B0H   SFRSYM    DATA     BYTE      P3
      000000A0H   SFRSYM    DATA     BYTE      P2
      00000090H   SFRSYM    DATA     BYTE      P1
      00000080H   SFRSYM    DATA     BYTE      P0

      00FF6735H   BLOCK     CODE     ---       LVL=0
      00FF6735H   LINE      CODE     ---       #5
      ---         BLOCKEND  ---      ---       LVL=0

      00FF66FFH   BLOCK     CODE     ---       LVL=0
      00FF66FFH   LINE      CODE     ---       #5
      00FF66FFH   LINE      CODE     ---       #7
      00FF670AH   LINE      CODE     ---       #8
      00FF670DH   LINE      CODE     ---       #9
      00FF6717H   LINE      CODE     ---       #10
L251 LINKER/LOCATER V4.66.93.0                                                        03/25/2026  17:12:38  PAGE 109


      00FF671AH   LINE      CODE     ---       #11
      00FF6723H   LINE      CODE     ---       #12
      00FF6726H   LINE      CODE     ---       #13
      00FF6729H   LINE      CODE     ---       #15
      00FF6729H   LINE      CODE     ---       #17
      00FF6732H   LINE      CODE     ---       #18
      00FF6734H   LINE      CODE     ---       #19
      ---         BLOCKEND  ---      ---       LVL=0

      00FF63BBH   BLOCK     CODE     ---       LVL=0
      00FF63BBH   LINE      CODE     ---       #21
      00FF63BBH   LINE      CODE     ---       #23
      00FF63CAH   LINE      CODE     ---       #24
      00FF63E1H   LINE      CODE     ---       #25
      00FF63EFH   LINE      CODE     ---       #27
      00FF63F7H   LINE      CODE     ---       #28
      00FF63FFH   LINE      CODE     ---       #29
      00FF6406H   LINE      CODE     ---       #30
      ---         BLOCKEND  ---      ---       LVL=0

      ---         MODULE    ---      ---       imu
      00010711H   PUBLIC    XDATA    FLOAT     Pitch_Min
      00010715H   PUBLIC    XDATA    FLOAT     Pitch_Max
      00010719H   PUBLIC    XDATA    ---       Kalman1
      00010749H   PUBLIC    XDATA    ---       Kalman2
      00010779H   PUBLIC    XDATA    CHAR      Round
      0001077AH   PUBLIC    XDATA    FLOAT     gyro_Offset_flag
      0001077EH   PUBLIC    XDATA    FLOAT     pitch
      00010782H   PUBLIC    XDATA    FLOAT     Roll_Min
      00010786H   PUBLIC    XDATA    ---       Zero
      000107B6H   PUBLIC    XDATA    FLOAT     Roll_Max
      000107BAH   PUBLIC    XDATA    FLOAT     roll
      000107BEH   PUBLIC    XDATA    FLOAT     gyrox
      000107C2H   PUBLIC    XDATA    FLOAT     gyroy
      000107C6H   PUBLIC    XDATA    FLOAT     gyroz
      000107CAH   PUBLIC    XDATA    ---       first_complement
      000107DEH   PUBLIC    XDATA    ---       IMU_Data
      000107F6H   PUBLIC    XDATA    FLOAT     Daty_X
      000107FAH   PUBLIC    XDATA    FLOAT     Daty_Y
      000107FEH   PUBLIC    XDATA    FLOAT     Daty_Z
      00010802H   PUBLIC    XDATA    FLOAT     yaw_limit_360
      00010806H   PUBLIC    XDATA    FLOAT     Max_Delta_Pitch
      0001080AH   PUBLIC    XDATA    FLOAT     yaw
      0001080EH   PUBLIC    XDATA    FLOAT     yaw_total
      00010812H   PUBLIC    XDATA    ---       Gyro_Offset
      0001081EH   PUBLIC    XDATA    FLOAT     Max_Delta_Roll
      000117E1H   PUBLIC    XDATA    BYTE      ?KalmanCreate?BYTE
      000000D0H   SFRSYM    DATA     BYTE      PSW
      0000009DH   SFRSYM    DATA     BYTE      IRCBAND
      00000097H   SFRSYM    DATA     BYTE      AUXR2
      000000EFH   SFRSYM    DATA     BYTE      AUXINTIF
      000000FDH   SFRSYM    DATA     BYTE      S4CON
      000000ACH   SFRSYM    DATA     BYTE      S3CON
      0000009AH   SFRSYM    DATA     BYTE      S2CON
      000000B7H   SFRSYM    DATA     BYTE      IPH
      000000CDH   SFRSYM    DATA     BYTE      SPSTAT
      000000DDH   SFRSYM    DATA     BYTE      T4T3M
      000000C1H   SFRSYM    DATA     BYTE      WDT_CONTR
      000000DFH   SFRSYM    DATA     BYTE      IP3
      000000F4H   SFRSYM    DATA     BYTE      USBCON
      000000B5H   SFRSYM    DATA     BYTE      IP2
      000000FFH   SFRSYM    DATA     BYTE      RSTCFG
      000000C7H   SFRSYM    DATA     BYTE      IAP_CONTR
      000000F9H   SFRSYM    DATA     BYTE      LINICR
      0000008EH   SFRSYM    DATA     BYTE      AUXR
L251 LINKER/LOCATER V4.66.93.0                                                        03/25/2026  17:12:38  PAGE 110


      000000AFH   SFRSYM    DATA     BYTE      IE2
      00000088H   SFRSYM    DATA     BYTE      TCON
      00000089H   SFRSYM    DATA     BYTE      TMOD
      00000098H   SFRSYM    DATA     BYTE      SCON
      000000F1H   SFRSYM    DATA     BYTE      CANICR
      00000087H   SFRSYM    DATA     BYTE      PCON
      000000BCH   SFRSYM    DATA     BYTE      ADC_CONTR
      000000E7H   SFRSYM    DATA     BYTE      CMPCR2
      000000E6H   SFRSYM    DATA     BYTE      CMPCR1
      000000DEH   SFRSYM    DATA     BYTE      ADCCFG
      000000B8H   SFRSYM    DATA     BYTE      IP
      0000008FH   SFRSYM    DATA     BYTE      INTCLKO
      000000EEH   SFRSYM    DATA     BYTE      IP3H
      000000B6H   SFRSYM    DATA     BYTE      IP2H
      000000A8H   SFRSYM    DATA     BYTE      IE
      000000BBH   SFRSYM    DATA     BYTE      P_SW3
      000000BAH   SFRSYM    DATA     BYTE      P_SW2
      000000A2H   SFRSYM    DATA     BYTE      P_SW1
      000000CEH   SFRSYM    DATA     BYTE      SPCTL
      000000F8H   SFRSYM    DATA     BYTE      P7
      000000E8H   SFRSYM    DATA     BYTE      P6
      000000C8H   SFRSYM    DATA     BYTE      P5
      000000C0H   SFRSYM    DATA     BYTE      P4
      000000B0H   SFRSYM    DATA     BYTE      P3
      000000A0H   SFRSYM    DATA     BYTE      P2
      00000090H   SFRSYM    DATA     BYTE      P1
      00000080H   SFRSYM    DATA     BYTE      P0
      00011CA6H   SYMBOL    XDATA    FLOAT     k
      00010822H   SYMBOL    XDATA    FLOAT     Pitch_Temp
      00010826H   SYMBOL    XDATA    FLOAT     Roll_Temp
      0001082AH   SYMBOL    XDATA    FLOAT     Delta_Roll
      0001082EH   SYMBOL    XDATA    CHAR      Pitch_Flag
      0001082FH   SYMBOL    XDATA    CHAR      Roll_Flag
      00011D14H   SYMBOL    XDATA    WORD      i
      00011485H   SYMBOL    XDATA    FLOAT     num
      00011489H   SYMBOL    XDATA    FLOAT     halfx
      0001148DH   SYMBOL    XDATA    FLOAT     y
      00011491H   SYMBOL    XDATA    LONG      i
      00011CAAH   SYMBOL    XDATA    FLOAT     x
      000117E1H   SYMBOL    XDATA    ---       p
      000117E5H   SYMBOL    XDATA    FLOAT     T_Q
      000117E9H   SYMBOL    XDATA    FLOAT     T_R
      00011AAEH   SYMBOL    XDATA    ---       p
      00011AB2H   SYMBOL    XDATA    FLOAT     dat

      ---         MODULE    ---      ---       eeprom
      00011D16H   PUBLIC    XDATA    ---       buff
      000118C0H   PUBLIC    XDATA    BYTE      ?eeprom_read?BYTE
      000000D0H   SFRSYM    DATA     BYTE      PSW
      0000009DH   SFRSYM    DATA     BYTE      IRCBAND
      00000097H   SFRSYM    DATA     BYTE      AUXR2
      000000EFH   SFRSYM    DATA     BYTE      AUXINTIF
      000000FDH   SFRSYM    DATA     BYTE      S4CON
      000000ACH   SFRSYM    DATA     BYTE      S3CON
      0000009AH   SFRSYM    DATA     BYTE      S2CON
      000000B7H   SFRSYM    DATA     BYTE      IPH
      000000CDH   SFRSYM    DATA     BYTE      SPSTAT
      000000DDH   SFRSYM    DATA     BYTE      T4T3M
      000000C1H   SFRSYM    DATA     BYTE      WDT_CONTR
      000000DFH   SFRSYM    DATA     BYTE      IP3
      000000F4H   SFRSYM    DATA     BYTE      USBCON
      000000B5H   SFRSYM    DATA     BYTE      IP2
      000000FFH   SFRSYM    DATA     BYTE      RSTCFG
      000000C7H   SFRSYM    DATA     BYTE      IAP_CONTR
      000000F9H   SFRSYM    DATA     BYTE      LINICR
L251 LINKER/LOCATER V4.66.93.0                                                        03/25/2026  17:12:38  PAGE 111


      0000008EH   SFRSYM    DATA     BYTE      AUXR
      000000AFH   SFRSYM    DATA     BYTE      IE2
      00000088H   SFRSYM    DATA     BYTE      TCON
      00000089H   SFRSYM    DATA     BYTE      TMOD
      00000098H   SFRSYM    DATA     BYTE      SCON
      000000F1H   SFRSYM    DATA     BYTE      CANICR
      00000087H   SFRSYM    DATA     BYTE      PCON
      000000BCH   SFRSYM    DATA     BYTE      ADC_CONTR
      000000E7H   SFRSYM    DATA     BYTE      CMPCR2
      000000E6H   SFRSYM    DATA     BYTE      CMPCR1
      000000DEH   SFRSYM    DATA     BYTE      ADCCFG
      000000B8H   SFRSYM    DATA     BYTE      IP
      0000008FH   SFRSYM    DATA     BYTE      INTCLKO
      000000EEH   SFRSYM    DATA     BYTE      IP3H
      000000B6H   SFRSYM    DATA     BYTE      IP2H
      000000A8H   SFRSYM    DATA     BYTE      IE
      000000BBH   SFRSYM    DATA     BYTE      P_SW3
      000000BAH   SFRSYM    DATA     BYTE      P_SW2
      000000A2H   SFRSYM    DATA     BYTE      P_SW1
      000000CEH   SFRSYM    DATA     BYTE      SPCTL
      000000F8H   SFRSYM    DATA     BYTE      P7
      000000E8H   SFRSYM    DATA     BYTE      P6
      000000C8H   SFRSYM    DATA     BYTE      P5
      000000C0H   SFRSYM    DATA     BYTE      P4
      000000B0H   SFRSYM    DATA     BYTE      P3
      000000A0H   SFRSYM    DATA     BYTE      P2
      00000090H   SFRSYM    DATA     BYTE      P1
      00000080H   SFRSYM    DATA     BYTE      P0
      000118C0H   SYMBOL    XDATA    DWORD     addr
      000118C4H   SYMBOL    XDATA    ---       buf
      000118C8H   SYMBOL    XDATA    WORD      len
      00011AB6H   SYMBOL    XDATA    DWORD     addr
      00011ABAH   SYMBOL    XDATA    WORD      max
      00011ABCH   SYMBOL    XDATA    WORD      min
      000117EDH   SYMBOL    XDATA    DWORD     addr
      000117F1H   SYMBOL    XDATA    ---       buff
      000117F5H   SYMBOL    XDATA    ---       buf

      ---         MODULE    ---      ---       inductance
      000117F9H   PUBLIC    XDATA    BYTE      ?range_protect?BYTE
      000115C2H   PUBLIC    XDATA    BYTE      ?Adc_Normalize?BYTE
      000000D0H   SFRSYM    DATA     BYTE      PSW
      0000009DH   SFRSYM    DATA     BYTE      IRCBAND
      00000097H   SFRSYM    DATA     BYTE      AUXR2
      000000EFH   SFRSYM    DATA     BYTE      AUXINTIF
      000000FDH   SFRSYM    DATA     BYTE      S4CON
      000000ACH   SFRSYM    DATA     BYTE      S3CON
      0000009AH   SFRSYM    DATA     BYTE      S2CON
      000000B7H   SFRSYM    DATA     BYTE      IPH
      000000CDH   SFRSYM    DATA     BYTE      SPSTAT
      000000DDH   SFRSYM    DATA     BYTE      T4T3M
      000000C1H   SFRSYM    DATA     BYTE      WDT_CONTR
      000000DFH   SFRSYM    DATA     BYTE      IP3
      000000F4H   SFRSYM    DATA     BYTE      USBCON
      000000B5H   SFRSYM    DATA     BYTE      IP2
      000000FFH   SFRSYM    DATA     BYTE      RSTCFG
      000000C7H   SFRSYM    DATA     BYTE      IAP_CONTR
      000000F9H   SFRSYM    DATA     BYTE      LINICR
      0000008EH   SFRSYM    DATA     BYTE      AUXR
      000000AFH   SFRSYM    DATA     BYTE      IE2
      00000088H   SFRSYM    DATA     BYTE      TCON
      00000089H   SFRSYM    DATA     BYTE      TMOD
      00000098H   SFRSYM    DATA     BYTE      SCON
      000000F1H   SFRSYM    DATA     BYTE      CANICR
      00000087H   SFRSYM    DATA     BYTE      PCON
L251 LINKER/LOCATER V4.66.93.0                                                        03/25/2026  17:12:38  PAGE 112


      000000BCH   SFRSYM    DATA     BYTE      ADC_CONTR
      000000E7H   SFRSYM    DATA     BYTE      CMPCR2
      000000E6H   SFRSYM    DATA     BYTE      CMPCR1
      000000DEH   SFRSYM    DATA     BYTE      ADCCFG
      000000B8H   SFRSYM    DATA     BYTE      IP
      0000008FH   SFRSYM    DATA     BYTE      INTCLKO
      000000EEH   SFRSYM    DATA     BYTE      IP3H
      000000B6H   SFRSYM    DATA     BYTE      IP2H
      000000A8H   SFRSYM    DATA     BYTE      IE
      000000BBH   SFRSYM    DATA     BYTE      P_SW3
      000000BAH   SFRSYM    DATA     BYTE      P_SW2
      000000A2H   SFRSYM    DATA     BYTE      P_SW1
      000000CEH   SFRSYM    DATA     BYTE      SPCTL
      000000F8H   SFRSYM    DATA     BYTE      P7
      000000E8H   SFRSYM    DATA     BYTE      P6
      000000C8H   SFRSYM    DATA     BYTE      P5
      000000C0H   SFRSYM    DATA     BYTE      P4
      000000B0H   SFRSYM    DATA     BYTE      P3
      000000A0H   SFRSYM    DATA     BYTE      P2
      00000090H   SFRSYM    DATA     BYTE      P1
      00000080H   SFRSYM    DATA     BYTE      P0
      000117F9H   SYMBOL    XDATA    FLOAT     value
      000117FDH   SYMBOL    XDATA    FLOAT     min_value
      00011801H   SYMBOL    XDATA    FLOAT     max_value
      000115B4H   SYMBOL    XDATA    ---       arr
      000115B8H   SYMBOL    XDATA    INT       times
      000115BAH   SYMBOL    XDATA    INT       min
      000115BCH   SYMBOL    XDATA    INT       max
      000115BEH   SYMBOL    XDATA    INT       sum
      000115C0H   SYMBOL    XDATA    INT       i
      000115C2H   SYMBOL    XDATA    INT       value
      000115C4H   SYMBOL    XDATA    FLOAT     max_value
      000115C8H   SYMBOL    XDATA    FLOAT     min_value
      000115CCH   SYMBOL    XDATA    FLOAT     normalized_value
      000112E0H   SYMBOL    XDATA    WORD      L
      000112E2H   SYMBOL    XDATA    WORD      LM
      000112E4H   SYMBOL    XDATA    WORD      RM
      000112E6H   SYMBOL    XDATA    WORD      R
      000112E8H   SYMBOL    XDATA    FLOAT     scaled_err
      000112ECH   SYMBOL    XDATA    FLOAT     numerator
      000112F0H   SYMBOL    XDATA    FLOAT     denominator
      00010C28H   SYMBOL    XDATA    ---       inductance_filter_data
      00010C2CH   SYMBOL    XDATA    BYTE      i
      00010C2DH   SYMBOL    XDATA    ---       inductance_init_data

      ---         MODULE    ---      ---       voltage_warning
      00011BB4H   PUBLIC    XDATA    WORD      ad_result
      00011BB6H   PUBLIC    XDATA    FLOAT     battery_voltage
      000000D0H   SFRSYM    DATA     BYTE      PSW
      0000009DH   SFRSYM    DATA     BYTE      IRCBAND
      00000097H   SFRSYM    DATA     BYTE      AUXR2
      000000EFH   SFRSYM    DATA     BYTE      AUXINTIF
      000000FDH   SFRSYM    DATA     BYTE      S4CON
      000000ACH   SFRSYM    DATA     BYTE      S3CON
      0000009AH   SFRSYM    DATA     BYTE      S2CON
      000000B7H   SFRSYM    DATA     BYTE      IPH
      000000CDH   SFRSYM    DATA     BYTE      SPSTAT
      000000DDH   SFRSYM    DATA     BYTE      T4T3M
      000000C1H   SFRSYM    DATA     BYTE      WDT_CONTR
      000000DFH   SFRSYM    DATA     BYTE      IP3
      000000F4H   SFRSYM    DATA     BYTE      USBCON
      000000B5H   SFRSYM    DATA     BYTE      IP2
      000000FFH   SFRSYM    DATA     BYTE      RSTCFG
      000000C7H   SFRSYM    DATA     BYTE      IAP_CONTR
      000000F9H   SFRSYM    DATA     BYTE      LINICR
L251 LINKER/LOCATER V4.66.93.0                                                        03/25/2026  17:12:38  PAGE 113


      0000008EH   SFRSYM    DATA     BYTE      AUXR
      000000AFH   SFRSYM    DATA     BYTE      IE2
      00000088H   SFRSYM    DATA     BYTE      TCON
      00000089H   SFRSYM    DATA     BYTE      TMOD
      00000098H   SFRSYM    DATA     BYTE      SCON
      000000F1H   SFRSYM    DATA     BYTE      CANICR
      00000087H   SFRSYM    DATA     BYTE      PCON
      000000BCH   SFRSYM    DATA     BYTE      ADC_CONTR
      000000E7H   SFRSYM    DATA     BYTE      CMPCR2
      000000E6H   SFRSYM    DATA     BYTE      CMPCR1
      000000DEH   SFRSYM    DATA     BYTE      ADCCFG
      000000B8H   SFRSYM    DATA     BYTE      IP
      0000008FH   SFRSYM    DATA     BYTE      INTCLKO
      000000EEH   SFRSYM    DATA     BYTE      IP3H
      000000B6H   SFRSYM    DATA     BYTE      IP2H
      000000A8H   SFRSYM    DATA     BYTE      IE
      000000BBH   SFRSYM    DATA     BYTE      P_SW3
      000000BAH   SFRSYM    DATA     BYTE      P_SW2
      000000A2H   SFRSYM    DATA     BYTE      P_SW1
      000000CEH   SFRSYM    DATA     BYTE      SPCTL
      000000F8H   SFRSYM    DATA     BYTE      P7
      000000E8H   SFRSYM    DATA     BYTE      P6
      000000C8H   SFRSYM    DATA     BYTE      P5
      000000C0H   SFRSYM    DATA     BYTE      P4
      000000B0H   SFRSYM    DATA     BYTE      P3
      000000A0H   SFRSYM    DATA     BYTE      P2
      00000090H   SFRSYM    DATA     BYTE      P1
      00000080H   SFRSYM    DATA     BYTE      P0
      00011CAEH   SYMBOL    XDATA    FLOAT     target_voltage

      ---         MODULE    ---      ---       motor
      000000D0H   SFRSYM    DATA     BYTE      PSW
      0000009DH   SFRSYM    DATA     BYTE      IRCBAND
      00000097H   SFRSYM    DATA     BYTE      AUXR2
      000000EFH   SFRSYM    DATA     BYTE      AUXINTIF
      000000FDH   SFRSYM    DATA     BYTE      S4CON
      000000ACH   SFRSYM    DATA     BYTE      S3CON
      0000009AH   SFRSYM    DATA     BYTE      S2CON
      000000B7H   SFRSYM    DATA     BYTE      IPH
      000000CDH   SFRSYM    DATA     BYTE      SPSTAT
      000000DDH   SFRSYM    DATA     BYTE      T4T3M
      000000C1H   SFRSYM    DATA     BYTE      WDT_CONTR
      000000DFH   SFRSYM    DATA     BYTE      IP3
      000000F4H   SFRSYM    DATA     BYTE      USBCON
      000000B5H   SFRSYM    DATA     BYTE      IP2
      000000FFH   SFRSYM    DATA     BYTE      RSTCFG
      000000C7H   SFRSYM    DATA     BYTE      IAP_CONTR
      000000F9H   SFRSYM    DATA     BYTE      LINICR
      0000008EH   SFRSYM    DATA     BYTE      AUXR
      000000AFH   SFRSYM    DATA     BYTE      IE2
      00000088H   SFRSYM    DATA     BYTE      TCON
      00000089H   SFRSYM    DATA     BYTE      TMOD
      00000098H   SFRSYM    DATA     BYTE      SCON
      000000F1H   SFRSYM    DATA     BYTE      CANICR
      00000087H   SFRSYM    DATA     BYTE      PCON
      000000BCH   SFRSYM    DATA     BYTE      ADC_CONTR
      000000E7H   SFRSYM    DATA     BYTE      CMPCR2
      000000E6H   SFRSYM    DATA     BYTE      CMPCR1
      000000DEH   SFRSYM    DATA     BYTE      ADCCFG
      000000B8H   SFRSYM    DATA     BYTE      IP
      0000008FH   SFRSYM    DATA     BYTE      INTCLKO
      000000EEH   SFRSYM    DATA     BYTE      IP3H
      000000B6H   SFRSYM    DATA     BYTE      IP2H
      000000A8H   SFRSYM    DATA     BYTE      IE
      000000BBH   SFRSYM    DATA     BYTE      P_SW3
L251 LINKER/LOCATER V4.66.93.0                                                        03/25/2026  17:12:38  PAGE 114


      000000BAH   SFRSYM    DATA     BYTE      P_SW2
      000000A2H   SFRSYM    DATA     BYTE      P_SW1
      000000CEH   SFRSYM    DATA     BYTE      SPCTL
      000000F8H   SFRSYM    DATA     BYTE      P7
      000000E8H   SFRSYM    DATA     BYTE      P6
      000000C8H   SFRSYM    DATA     BYTE      P5
      000000C0H   SFRSYM    DATA     BYTE      P4
      000000B0H   SFRSYM    DATA     BYTE      P3
      000000A0H   SFRSYM    DATA     BYTE      P2
      00000090H   SFRSYM    DATA     BYTE      P1
      00000080H   SFRSYM    DATA     BYTE      P0
      00011D18H   SYMBOL    XDATA    INT       duty
      00011D1AH   SYMBOL    XDATA    INT       duty

      ---         MODULE    ---      ---       buzzer
      000000D0H   SFRSYM    DATA     BYTE      PSW
      0000009DH   SFRSYM    DATA     BYTE      IRCBAND
      00000097H   SFRSYM    DATA     BYTE      AUXR2
      000000EFH   SFRSYM    DATA     BYTE      AUXINTIF
      000000FDH   SFRSYM    DATA     BYTE      S4CON
      000000ACH   SFRSYM    DATA     BYTE      S3CON
      0000009AH   SFRSYM    DATA     BYTE      S2CON
      000000B7H   SFRSYM    DATA     BYTE      IPH
      000000CDH   SFRSYM    DATA     BYTE      SPSTAT
      000000DDH   SFRSYM    DATA     BYTE      T4T3M
      000000C1H   SFRSYM    DATA     BYTE      WDT_CONTR
      000000DFH   SFRSYM    DATA     BYTE      IP3
      000000F4H   SFRSYM    DATA     BYTE      USBCON
      000000B5H   SFRSYM    DATA     BYTE      IP2
      000000FFH   SFRSYM    DATA     BYTE      RSTCFG
      000000C7H   SFRSYM    DATA     BYTE      IAP_CONTR
      000000F9H   SFRSYM    DATA     BYTE      LINICR
      0000008EH   SFRSYM    DATA     BYTE      AUXR
      000000AFH   SFRSYM    DATA     BYTE      IE2
      00000088H   SFRSYM    DATA     BYTE      TCON
      00000089H   SFRSYM    DATA     BYTE      TMOD
      00000098H   SFRSYM    DATA     BYTE      SCON
      000000F1H   SFRSYM    DATA     BYTE      CANICR
      00000087H   SFRSYM    DATA     BYTE      PCON
      000000BCH   SFRSYM    DATA     BYTE      ADC_CONTR
      000000E7H   SFRSYM    DATA     BYTE      CMPCR2
      000000E6H   SFRSYM    DATA     BYTE      CMPCR1
      000000DEH   SFRSYM    DATA     BYTE      ADCCFG
      000000B8H   SFRSYM    DATA     BYTE      IP
      0000008FH   SFRSYM    DATA     BYTE      INTCLKO
      000000EEH   SFRSYM    DATA     BYTE      IP3H
      000000B6H   SFRSYM    DATA     BYTE      IP2H
      000000A8H   SFRSYM    DATA     BYTE      IE
      000000BBH   SFRSYM    DATA     BYTE      P_SW3
      000000BAH   SFRSYM    DATA     BYTE      P_SW2
      000000A2H   SFRSYM    DATA     BYTE      P_SW1
      000000CEH   SFRSYM    DATA     BYTE      SPCTL
      000000F8H   SFRSYM    DATA     BYTE      P7
      000000E8H   SFRSYM    DATA     BYTE      P6
      000000C8H   SFRSYM    DATA     BYTE      P5
      000000C0H   SFRSYM    DATA     BYTE      P4
      000000B0H   SFRSYM    DATA     BYTE      P3
      000000A0H   SFRSYM    DATA     BYTE      P2
      00000090H   SFRSYM    DATA     BYTE      P1
      00000080H   SFRSYM    DATA     BYTE      P0

      ---         MODULE    ---      ---       led
      00FF6761H   PUBLIC    CODE     ---       LED_Init
      00FF0066H   PUBLIC    CODE     ---       LED_Off
      00FF6813H   PUBLIC    CODE     ---       LED_On
L251 LINKER/LOCATER V4.66.93.0                                                        03/25/2026  17:12:38  PAGE 115


      000000D0H   SFRSYM    DATA     BYTE      PSW
      0000009DH   SFRSYM    DATA     BYTE      IRCBAND
      00000097H   SFRSYM    DATA     BYTE      AUXR2
      000000EFH   SFRSYM    DATA     BYTE      AUXINTIF
      000000FDH   SFRSYM    DATA     BYTE      S4CON
      000000ACH   SFRSYM    DATA     BYTE      S3CON
      0000009AH   SFRSYM    DATA     BYTE      S2CON
      000000B7H   SFRSYM    DATA     BYTE      IPH
      000000CDH   SFRSYM    DATA     BYTE      SPSTAT
      000000DDH   SFRSYM    DATA     BYTE      T4T3M
      000000C1H   SFRSYM    DATA     BYTE      WDT_CONTR
      000000DFH   SFRSYM    DATA     BYTE      IP3
      000000F4H   SFRSYM    DATA     BYTE      USBCON
      000000B5H   SFRSYM    DATA     BYTE      IP2
      000000FFH   SFRSYM    DATA     BYTE      RSTCFG
      000000C7H   SFRSYM    DATA     BYTE      IAP_CONTR
      000000F9H   SFRSYM    DATA     BYTE      LINICR
      0000008EH   SFRSYM    DATA     BYTE      AUXR
      000000AFH   SFRSYM    DATA     BYTE      IE2
      00000088H   SFRSYM    DATA     BYTE      TCON
      00000089H   SFRSYM    DATA     BYTE      TMOD
      00000098H   SFRSYM    DATA     BYTE      SCON
      000000F1H   SFRSYM    DATA     BYTE      CANICR
      00000087H   SFRSYM    DATA     BYTE      PCON
      000000BCH   SFRSYM    DATA     BYTE      ADC_CONTR
      000000E7H   SFRSYM    DATA     BYTE      CMPCR2
      000000E6H   SFRSYM    DATA     BYTE      CMPCR1
      000000DEH   SFRSYM    DATA     BYTE      ADCCFG
      000000B8H   SFRSYM    DATA     BYTE      IP
      0000008FH   SFRSYM    DATA     BYTE      INTCLKO
      000000EEH   SFRSYM    DATA     BYTE      IP3H
      000000B6H   SFRSYM    DATA     BYTE      IP2H
      000000A8H   SFRSYM    DATA     BYTE      IE
      000000BBH   SFRSYM    DATA     BYTE      P_SW3
      000000BAH   SFRSYM    DATA     BYTE      P_SW2
      000000A2H   SFRSYM    DATA     BYTE      P_SW1
      000000CEH   SFRSYM    DATA     BYTE      SPCTL
      000000F8H   SFRSYM    DATA     BYTE      P7
      000000E8H   SFRSYM    DATA     BYTE      P6
      000000C8H   SFRSYM    DATA     BYTE      P5
      000000C0H   SFRSYM    DATA     BYTE      P4
      000000B0H   SFRSYM    DATA     BYTE      P3
      000000A0H   SFRSYM    DATA     BYTE      P2
      00000090H   SFRSYM    DATA     BYTE      P1
      00000080H   SFRSYM    DATA     BYTE      P0

      00FF6761H   BLOCK     CODE     ---       LVL=0
      00FF6761H   LINE      CODE     ---       #22
      00FF6761H   LINE      CODE     ---       #24
      00FF6772H   LINE      CODE     ---       #25
      00FF6783H   LINE      CODE     ---       #26
      00FF678AH   LINE      CODE     ---       #27
      ---         BLOCKEND  ---      ---       LVL=0

      00FF6813H   BLOCK     CODE     ---       LVL=0
      00011D1CH   SYMBOL    XDATA    INT       pin
      00FF6813H   LINE      CODE     ---       #34
      00FF6819H   LINE      CODE     ---       #36
      00FF6823H   LINE      CODE     ---       #37
      ---         BLOCKEND  ---      ---       LVL=0

      00FF0066H   BLOCK     CODE     ---       LVL=0
      00011D1EH   SYMBOL    XDATA    INT       pin
      00FF0066H   LINE      CODE     ---       #44
      00FF006CH   LINE      CODE     ---       #46
L251 LINKER/LOCATER V4.66.93.0                                                        03/25/2026  17:12:38  PAGE 116


      00FF0077H   LINE      CODE     ---       #47
      ---         BLOCKEND  ---      ---       LVL=0
      00011D20H   SYMBOL    XDATA    INT       pin

      ---         MODULE    ---      ---       init
      000000D0H   SFRSYM    DATA     BYTE      PSW
      0000009DH   SFRSYM    DATA     BYTE      IRCBAND
      00000097H   SFRSYM    DATA     BYTE      AUXR2
      000000EFH   SFRSYM    DATA     BYTE      AUXINTIF
      000000FDH   SFRSYM    DATA     BYTE      S4CON
      000000ACH   SFRSYM    DATA     BYTE      S3CON
      0000009AH   SFRSYM    DATA     BYTE      S2CON
      000000B7H   SFRSYM    DATA     BYTE      IPH
      000000CDH   SFRSYM    DATA     BYTE      SPSTAT
      000000DDH   SFRSYM    DATA     BYTE      T4T3M
      000000C1H   SFRSYM    DATA     BYTE      WDT_CONTR
      000000DFH   SFRSYM    DATA     BYTE      IP3
      000000F4H   SFRSYM    DATA     BYTE      USBCON
      000000B5H   SFRSYM    DATA     BYTE      IP2
      000000FFH   SFRSYM    DATA     BYTE      RSTCFG
      000000C7H   SFRSYM    DATA     BYTE      IAP_CONTR
      000000F9H   SFRSYM    DATA     BYTE      LINICR
      0000008EH   SFRSYM    DATA     BYTE      AUXR
      000000AFH   SFRSYM    DATA     BYTE      IE2
      00000088H   SFRSYM    DATA     BYTE      TCON
      00000089H   SFRSYM    DATA     BYTE      TMOD
      00000098H   SFRSYM    DATA     BYTE      SCON
      000000F1H   SFRSYM    DATA     BYTE      CANICR
      00000087H   SFRSYM    DATA     BYTE      PCON
      000000BCH   SFRSYM    DATA     BYTE      ADC_CONTR
      000000E7H   SFRSYM    DATA     BYTE      CMPCR2
      000000E6H   SFRSYM    DATA     BYTE      CMPCR1
      000000DEH   SFRSYM    DATA     BYTE      ADCCFG
      000000B8H   SFRSYM    DATA     BYTE      IP
      0000008FH   SFRSYM    DATA     BYTE      INTCLKO
      000000EEH   SFRSYM    DATA     BYTE      IP3H
      000000B6H   SFRSYM    DATA     BYTE      IP2H
      000000A8H   SFRSYM    DATA     BYTE      IE
      000000BBH   SFRSYM    DATA     BYTE      P_SW3
      000000BAH   SFRSYM    DATA     BYTE      P_SW2
      000000A2H   SFRSYM    DATA     BYTE      P_SW1
      000000CEH   SFRSYM    DATA     BYTE      SPCTL
      000000F8H   SFRSYM    DATA     BYTE      P7
      000000E8H   SFRSYM    DATA     BYTE      P6
      000000C8H   SFRSYM    DATA     BYTE      P5
      000000C0H   SFRSYM    DATA     BYTE      P4
      000000B0H   SFRSYM    DATA     BYTE      P3
      000000A0H   SFRSYM    DATA     BYTE      P2
      00000090H   SFRSYM    DATA     BYTE      P1
      00000080H   SFRSYM    DATA     BYTE      P0

      ---         MODULE    ---      ---       control

      ---         MODULE    ---      ---       ?C?FPADD
      00FF21D4H   PUBLIC    CODE     ---       ?C?FPADD
      00FF21D1H   PUBLIC    CODE     ---       ?C?FPSUB

      ---         MODULE    ---      ---       ?C?FPMUL
      00FF228CH   PUBLIC    CODE     ---       ?C?FPMUL

      ---         MODULE    ---      ---       ?C?FPDIV
      00FF232CH   PUBLIC    CODE     ---       ?C?FPDIV

      ---         MODULE    ---      ---       ?C?FPCMP
      00FF23AFH   PUBLIC    CODE     ---       ?C?FPCMP
L251 LINKER/LOCATER V4.66.93.0                                                        03/25/2026  17:12:38  PAGE 117


      00FF23ADH   PUBLIC    CODE     ---       ?C?FPCMP3

      ---         MODULE    ---      ---       ?C?FPNEG
      00FF23F3H   PUBLIC    CODE     ---       ?C?FPNEG

      ---         MODULE    ---      ---       ?C?FCAST
      00FF240BH   PUBLIC    CODE     NEAR LAB  ?C?FCASTC
      00FF2406H   PUBLIC    CODE     NEAR LAB  ?C?FCASTI
      00FF2401H   PUBLIC    CODE     NEAR LAB  ?C?FCASTL

      ---         MODULE    ---      ---       ?C?CASTF
      00FF243EH   PUBLIC    CODE     NEAR LAB  ?C?CASTF

      ---         MODULE    ---      ---       PRINTF
      00010FBBH   PUBLIC    XDATA    ---       ?PRINTF?BYTE
      00FF247BH   PUBLIC    CODE     NEAR LAB  PRINTF

      ---         MODULE    ---      ---       SPRINTF
      00010FBBH   PUBLIC    XDATA    ---       ?SPRINTF?BYTE
      00FF24A7H   PUBLIC    CODE     NEAR LAB  SPRINTF

      ---         MODULE    ---      ---       SQRT?_
      00FF24C7H   PUBLIC    CODE     ---       SQRT?_

      ---         MODULE    ---      ---       pow

      ---         MODULE    ---      ---       SIN?_
      00FF259FH   PUBLIC    CODE     ---       COS?_
      00FF25BCH   PUBLIC    CODE     ---       SIN?_
      00FF25E9H   PUBLIC    CODE     ---       TAN?_

      ---         MODULE    ---      ---       ATAN?_
      00FF26AFH   PUBLIC    CODE     ---       ATAN?_

      ---         MODULE    ---      ---       ASIN?_
      00FF2781H   PUBLIC    CODE     ---       ASIN?_

      ---         MODULE    ---      ---       ?C?FPGETOPN
      00FF27A1H   PUBLIC    CODE     ---       ?C?FPGETOPN2
      00FF27DEH   PUBLIC    CODE     ---       ?C?FPNANRESULT
      00FF27E6H   PUBLIC    CODE     ---       ?C?FPOVERFLOW
      00FF27BAH   PUBLIC    CODE     ---       ?C?FPRESULT
      00FF27D0H   PUBLIC    CODE     ---       ?C?FPRESULT2
      00FF27E3H   PUBLIC    CODE     ---       ?C?FPUNDERFLOW

      ---         MODULE    ---      ---       _CHKFLOAT_?_
      00FF27F2H   PUBLIC    CODE     ---       _CHKFLOAT_?_

      ---         MODULE    ---      ---       ?C?PRNFMT
      00FF283CH   PUBLIC    CODE     ---       ?C?PRNFMT

      ---         MODULE    ---      ---       ?C?FPSERIES
      00FF2C4BH   PUBLIC    CODE     ---       ?C?FP2SERIES
      00FF2C54H   PUBLIC    CODE     ---       ?C?FPSERIES

      ---         MODULE    ---      ---       EXP?_
      00FF2CB1H   PUBLIC    CODE     ---       EXP?_

      ---         MODULE    ---      ---       LOG?_
      00FF2D40H   PUBLIC    CODE     NEAR LAB  LOG?_

      ---         MODULE    ---      ---       ?C?FPCONVERT
      00FF2E13H   PUBLIC    CODE     ---       ?C?FPCONVERT
      00FF2ECBH   PUBLIC    CODE     ---       ?C?FPROUND

L251 LINKER/LOCATER V4.66.93.0                                                        03/25/2026  17:12:38  PAGE 118


      ---         MODULE    ---      ---       ?C?FTNPWR
      00FF2F3EH   PUBLIC    CODE     ---       ?C?FTNPWR

      ---         MODULE    ---      ---       ?C?INITHDATA
      00FF6334H   PUBLIC    CODE     ---       ?C?INITHDATA

      ---         MODULE    ---      ---       ?C?SIDIV
      00FF2F75H   PUBLIC    CODE     ---       ?C?SIDIV

      ---         MODULE    ---      ---       ?C?LMUL
      00FF2FA7H   PUBLIC    CODE     ---       ?C?LMUL

      ---         MODULE    ---      ---       ?C?LIMUL
      00FF2FB8H   PUBLIC    CODE     ---       ?C?LIMUL

      ---         MODULE    ---      ---       ?C?ULDIV
      00FF2FC3H   PUBLIC    CODE     NEAR LAB  ?C?ULDIV
      00FF2FC1H   PUBLIC    CODE     NEAR LAB  ?C?ULIDIV

      ---         MODULE    ---      ---       ?C?SLDIV
      00FF3014H   PUBLIC    CODE     NEAR LAB  ?C?SLDIV

      ---         MODULE    ---      ---       ?C?BMOVEPP
      00FF304AH   PUBLIC    CODE     ---       ?C?BMOVEPP
      00FF3048H   PUBLIC    CODE     ---       ?C?BMOVEPP8

      ---         MODULE    ---      ---       STRNCMP

      ---         MODULE    ---      ---       STRNCPY

      ---         MODULE    ---      ---       STRLEN

      ---         MODULE    ---      ---       STRCHR

      ---         MODULE    ---      ---       memcpy
      00FF67B0H   PUBLIC    CODE     ---       memcpy?_

      ---         MODULE    ---      ---       memset

      ---         MODULE    ---      ---       ?C?INITHDATA_END
      00FF6CE6H   PUBLIC    HCONST   WORD      ?C?INITHDATA_END

Program Size: data=8.4 edata+hdata=2060 xdata=7476 const=3845 code=26543
L251 RUN COMPLETE.  0 WARNING(S),  0 ERROR(S)
