L251 LINKER/LOCATER V4.66.93.0                                                          03/30/2026  16:35:38  PAGE 1


L251 LINKER/LOCATER V4.66.93.0, INVOKED BY:
D:\KEIL_V5\C251\BIN\L251.EXE .\out_file\START251.obj, .\out_file\stc32g_isr.obj, .\out_file\zf_common_clock.obj, .\out_f
>> ile\zf_common_debug.obj, .\out_file\zf_common_fifo.obj, .\out_file\zf_common_font.obj, .\out_file\zf_common_function.
>> obj, .\out_file\zf_common_typedef.obj, .\out_file\zf_common_interrupt.obj, .\out_file\zf_driver_adc.obj, .\out_file\z
>> f_driver_delay.obj, .\out_file\zf_driver_eeprom.obj, .\out_file\zf_driver_encoder.obj, .\out_file\zf_driver_exti.obj,
>>  .\out_file\zf_driver_gpio.obj, .\out_file\zf_driver_pit.obj, .\out_file\zf_driver_pwm.obj, .\out_file\zf_driver_soft
>> _iic.obj, .\out_file\zf_driver_soft_spi.obj, .\out_file\zf_driver_spi.obj, .\out_file\zf_driver_timer.obj, .\out_file
>> \zf_driver_uart.obj, .\out_file\eeprom.obj, .\out_file\voltage_warning.obj, .\out_file\zf_device_ble6a20.obj, .\out_f
>> ile\zf_device_config.obj, .\out_file\zf_device_dl1a.obj, .\out_file\zf_device_dl1b.obj, .\out_file\zf_device_gps_tau1
>> 201.obj, .\out_file\zf_device_icm20602.obj, .\out_file\zf_device_imu660ra.obj, .\out_file\zf_device_imu660rb.obj, .\o
>> ut_file\zf_device_imu963ra.obj, .\out_file\zf_device_ips114.obj, .\out_file\zf_device_ips200.obj, .\out_file\zf_devic
>> e_ips200pro.obj, .\out_file\zf_device_tft180.obj, .\out_file\zf_device_tsl1401.obj, .\out_file\zf_device_type.obj, .\
>> out_file\zf_device_wireless_uart.obj, .\out_file\imu.obj, .\out_file\seekfree_assistant.obj, .\out_file\seekfree_assi
>> stant_interface.obj, .\out_file\main.obj, .\out_file\isr.obj, .\out_file\all_init.obj, .\out_file\encoder.obj, .\out_
>> file\moto.obj, .\out_file\led.obj, .\out_file\trank.obj, .\out_file\inductance.obj, .\out_file\menu.obj TO .\out_file
>> \SEEKFREE PRINT (.\out_file\SEEKFREE.map) CASE DISABLEWARNING (57, 16) REMOVEUNUSED CLASSES (EDATA (0X0-0XFFF), HDATA
>>  (0X0-0XFFF))


CPU MODE:     251 SOURCE MODE
INTR FRAME:   4 BYTES SAVED ON INTERRUPT
MEMORY MODEL: LARGE WITH FLOATING POINT ARITHMETIC


INPUT MODULES INCLUDED:
  .\out_file\START251.obj (?C_START)
         COMMENT TYPE 0: A251 V4.69.13.0
  .\out_file\stc32g_isr.obj (stc32g_isr)
         COMMENT TYPE 0: A251 V4.69.13.0
  .\out_file\zf_common_clock.obj (zf_common_clock)
         COMMENT TYPE 0: C251 V5.60.0
  .\out_file\zf_common_debug.obj (zf_common_debug)
         COMMENT TYPE 0: C251 V5.60.0
  .\out_file\zf_common_fifo.obj (zf_common_fifo)
         COMMENT TYPE 0: C251 V5.60.0
  .\out_file\zf_common_font.obj (zf_common_font)
         COMMENT TYPE 0: C251 V5.60.0
  .\out_file\zf_common_function.obj (zf_common_function)
         COMMENT TYPE 0: C251 V5.60.0
  .\out_file\zf_common_typedef.obj (zf_common_typedef)
         COMMENT TYPE 0: C251 V5.60.0
  .\out_file\zf_common_interrupt.obj (zf_common_interrupt)
         COMMENT TYPE 0: C251 V5.60.0
  .\out_file\zf_driver_adc.obj (zf_driver_adc)
         COMMENT TYPE 0: C251 V5.60.0
  .\out_file\zf_driver_delay.obj (zf_driver_delay)
         COMMENT TYPE 0: C251 V5.60.0
  .\out_file\zf_driver_eeprom.obj (zf_driver_eeprom)
         COMMENT TYPE 0: C251 V5.60.0
  .\out_file\zf_driver_encoder.obj (zf_driver_encoder)
         COMMENT TYPE 0: C251 V5.60.0
  .\out_file\zf_driver_exti.obj (zf_driver_exti)
         COMMENT TYPE 0: C251 V5.60.0
  .\out_file\zf_driver_gpio.obj (zf_driver_gpio)
         COMMENT TYPE 0: C251 V5.60.0
  .\out_file\zf_driver_pit.obj (zf_driver_pit)
         COMMENT TYPE 0: C251 V5.60.0
  .\out_file\zf_driver_pwm.obj (zf_driver_pwm)
         COMMENT TYPE 0: C251 V5.60.0
  .\out_file\zf_driver_soft_iic.obj (zf_driver_soft_iic)
         COMMENT TYPE 0: C251 V5.60.0
  .\out_file\zf_driver_soft_spi.obj (zf_driver_soft_spi)
         COMMENT TYPE 0: C251 V5.60.0
  .\out_file\zf_driver_spi.obj (zf_driver_spi)
         COMMENT TYPE 0: C251 V5.60.0
  .\out_file\zf_driver_timer.obj (zf_driver_timer)
L251 LINKER/LOCATER V4.66.93.0                                                        03/30/2026  16:35:38  PAGE 2


         COMMENT TYPE 0: C251 V5.60.0
  .\out_file\zf_driver_uart.obj (zf_driver_uart)
         COMMENT TYPE 0: C251 V5.60.0
  .\out_file\eeprom.obj (eeprom)
         COMMENT TYPE 0: C251 V5.60.0
  .\out_file\voltage_warning.obj (voltage_warning)
         COMMENT TYPE 0: C251 V5.60.0
  .\out_file\zf_device_ble6a20.obj (zf_device_ble6a20)
         COMMENT TYPE 0: C251 V5.60.0
  .\out_file\zf_device_config.obj (zf_device_config)
         COMMENT TYPE 0: C251 V5.60.0
  .\out_file\zf_device_dl1a.obj (zf_device_dl1a)
         COMMENT TYPE 0: C251 V5.60.0
  .\out_file\zf_device_dl1b.obj (zf_device_dl1b)
         COMMENT TYPE 0: C251 V5.60.0
  .\out_file\zf_device_gps_tau1201.obj (zf_device_gps_tau1201)
         COMMENT TYPE 0: C251 V5.60.0
  .\out_file\zf_device_icm20602.obj (zf_device_icm20602)
         COMMENT TYPE 0: C251 V5.60.0
  .\out_file\zf_device_imu660ra.obj (zf_device_imu660ra)
         COMMENT TYPE 0: C251 V5.60.0
  .\out_file\zf_device_imu660rb.obj (zf_device_imu660rb)
         COMMENT TYPE 0: C251 V5.60.0
  .\out_file\zf_device_imu963ra.obj (zf_device_imu963ra)
         COMMENT TYPE 0: C251 V5.60.0
  .\out_file\zf_device_ips114.obj (zf_device_ips114)
         COMMENT TYPE 0: C251 V5.60.0
  .\out_file\zf_device_ips200.obj (zf_device_ips200)
         COMMENT TYPE 0: C251 V5.60.0
  .\out_file\zf_device_ips200pro.obj (zf_device_ips200pro)
         COMMENT TYPE 0: C251 V5.60.0
  .\out_file\zf_device_tft180.obj (zf_device_tft180)
         COMMENT TYPE 0: C251 V5.60.0
  .\out_file\zf_device_tsl1401.obj (zf_device_tsl1401)
         COMMENT TYPE 0: C251 V5.60.0
  .\out_file\zf_device_type.obj (zf_device_type)
         COMMENT TYPE 0: C251 V5.60.0
  .\out_file\zf_device_wireless_uart.obj (zf_device_wireless_uart)
         COMMENT TYPE 0: C251 V5.60.0
  .\out_file\imu.obj (imu)
         COMMENT TYPE 0: C251 V5.60.0
  .\out_file\seekfree_assistant.obj (seekfree_assistant)
         COMMENT TYPE 0: C251 V5.60.0
  .\out_file\seekfree_assistant_interface.obj (seekfree_assistant_interface)
         COMMENT TYPE 0: C251 V5.60.0
  .\out_file\main.obj (main)
         COMMENT TYPE 0: C251 V5.60.0
  .\out_file\isr.obj (isr)
         COMMENT TYPE 0: C251 V5.60.0
  .\out_file\all_init.obj (all_init)
         COMMENT TYPE 0: C251 V5.60.0
  .\out_file\encoder.obj (encoder)
         COMMENT TYPE 0: C251 V5.60.0
  .\out_file\moto.obj (moto)
         COMMENT TYPE 0: C251 V5.60.0
  .\out_file\led.obj (led)
         COMMENT TYPE 0: C251 V5.60.0
  .\out_file\trank.obj (trank)
         COMMENT TYPE 0: C251 V5.60.0
  .\out_file\inductance.obj (inductance)
         COMMENT TYPE 0: C251 V5.60.0
  .\out_file\menu.obj (menu)
         COMMENT TYPE 0: C251 V5.60.0
  D:\KEIL_V5\C251\LIB\C2SFPL.LIB (?C?FPADD)
         COMMENT TYPE 0: A251 V4.69.6.0
L251 LINKER/LOCATER V4.66.93.0                                                        03/30/2026  16:35:38  PAGE 3


  D:\KEIL_V5\C251\LIB\C2SFPL.LIB (?C?FPMUL)
         COMMENT TYPE 0: A251 V4.69.6.0
  D:\KEIL_V5\C251\LIB\C2SFPL.LIB (?C?FPDIV)
         COMMENT TYPE 0: A251 V4.69.6.0
  D:\KEIL_V5\C251\LIB\C2SFPL.LIB (?C?FPCMP)
         COMMENT TYPE 0: A251 V4.69.6.0
  D:\KEIL_V5\C251\LIB\C2SFPL.LIB (?C?FPNEG)
         COMMENT TYPE 0: A251 V4.69.6.0
  D:\KEIL_V5\C251\LIB\C2SFPL.LIB (?C?FCAST)
         COMMENT TYPE 0: A251 V4.69.6.0
  D:\KEIL_V5\C251\LIB\C2SFPL.LIB (?C?CASTF)
         COMMENT TYPE 0: A251 V4.69.6.0
  D:\KEIL_V5\C251\LIB\C2SFPL.LIB (PRINTF)
         COMMENT TYPE 0: A251 V4.69.6.0
  D:\KEIL_V5\C251\LIB\C2SFPL.LIB (SPRINTF)
         COMMENT TYPE 0: A251 V4.69.6.0
  D:\KEIL_V5\C251\LIB\C2SFPL.LIB (SQRT?_)
         COMMENT TYPE 0: A251 V4.69.6.0
  D:\KEIL_V5\C251\LIB\C2SFPL.LIB (pow)
         COMMENT TYPE 0: C251 V5.58.7
  D:\KEIL_V5\C251\LIB\C2SFPL.LIB (SIN?_)
         COMMENT TYPE 0: A251 V4.69.6.0
  D:\KEIL_V5\C251\LIB\C2SFPL.LIB (ATAN?_)
         COMMENT TYPE 0: A251 V4.69.6.0
  D:\KEIL_V5\C251\LIB\C2SFPL.LIB (ASIN?_)
         COMMENT TYPE 0: A251 V4.69.6.0
  D:\KEIL_V5\C251\LIB\C2SFPL.LIB (?C?FPGETOPN)
         COMMENT TYPE 0: A251 V4.69.6.0
  D:\KEIL_V5\C251\LIB\C2SFPL.LIB (_CHKFLOAT_?_)
         COMMENT TYPE 0: A251 V4.69.6.0
  D:\KEIL_V5\C251\LIB\C2SFPL.LIB (?C?PRNFMT)
         COMMENT TYPE 0: A251 V4.69.6.0
  D:\KEIL_V5\C251\LIB\C2SFPL.LIB (?C?FPSERIES)
         COMMENT TYPE 0: A251 V4.69.6.0
  D:\KEIL_V5\C251\LIB\C2SFPL.LIB (EXP?_)
         COMMENT TYPE 0: A251 V4.69.6.0
  D:\KEIL_V5\C251\LIB\C2SFPL.LIB (LOG?_)
         COMMENT TYPE 0: A251 V4.69.6.0
  D:\KEIL_V5\C251\LIB\C2SFPL.LIB (?C?FPCONVERT)
         COMMENT TYPE 0: A251 V4.69.6.0
  D:\KEIL_V5\C251\LIB\C2SFPL.LIB (?C?FTNPWR)
         COMMENT TYPE 0: A251 V4.69.6.0
  D:\KEIL_V5\C251\LIB\C2SL.LIB (?C?INITHDATA)
         COMMENT TYPE 0: A251 V4.69.6.0
  D:\KEIL_V5\C251\LIB\C2SL.LIB (?C?SIDIV)
         COMMENT TYPE 0: A251 V4.69.6.0
  D:\KEIL_V5\C251\LIB\C2SL.LIB (?C?LMUL)
         COMMENT TYPE 0: A251 V4.69.6.0
  D:\KEIL_V5\C251\LIB\C2SL.LIB (?C?LIMUL)
         COMMENT TYPE 0: A251 V4.69.6.0
  D:\KEIL_V5\C251\LIB\C2SL.LIB (?C?ULDIV)
         COMMENT TYPE 0: A251 V4.69.6.0
  D:\KEIL_V5\C251\LIB\C2SL.LIB (?C?SLDIV)
         COMMENT TYPE 0: A251 V4.69.6.0
  D:\KEIL_V5\C251\LIB\C2SL.LIB (?C?BMOVEPP)
         COMMENT TYPE 0: A251 V4.69.6.0
  D:\KEIL_V5\C251\LIB\C2SL.LIB (STRNCMP)
         COMMENT TYPE 0: C251 V5.58.7
  D:\KEIL_V5\C251\LIB\C2SL.LIB (STRNCPY)
         COMMENT TYPE 0: C251 V5.58.7
  D:\KEIL_V5\C251\LIB\C2SL.LIB (STRLEN)
         COMMENT TYPE 0: C251 V5.58.7
  D:\KEIL_V5\C251\LIB\C2SL.LIB (STRCHR)
         COMMENT TYPE 0: C251 V5.58.7
  D:\KEIL_V5\C251\LIB\C2SL.LIB (memcpy)
L251 LINKER/LOCATER V4.66.93.0                                                        03/30/2026  16:35:38  PAGE 4


         COMMENT TYPE 0: C251 V5.58.7
  D:\KEIL_V5\C251\LIB\C2SL.LIB (memset)
         COMMENT TYPE 0: C251 V5.58.7
  D:\KEIL_V5\C251\LIB\C2SL.LIB (?C?INITHDATA_END)
         COMMENT TYPE 0: A251 V4.69.6.0


ACTIVE MEMORY CLASSES OF MODULE:  .\out_file\SEEKFREE (?C_START)

BASE        START       END         USED      MEMORY CLASS
==========================================================
000000H     000000H     000FFFH     00080CH   EDATA
000000H     000000H     000FFFH               HDATA
FF0000H     FF0000H     FFFFFFH     00B612H   CODE
010000H     010000H     01FFFFH     001F78H   XDATA
000000H     FF0000H     FFFFFFH     000FC5H   HCONST
000020H.0   000020H.0   00002FH.7   000000H.4 BIT
FF0000H     FF0000H     FFFFFFH     000004H   CONST
000000H     000000H     00007FH     000008H   DATA


MEMORY MAP OF MODULE:  .\out_file\SEEKFREE (?C_START)


START     STOP      LENGTH    ALIGN  RELOC    MEMORY CLASS   SEGMENT NAME
=========================================================================
000000H   000007H   000008H   ---    AT..     DATA           "REG BANK 0"
000008H   00000FH   000008H   BYTE   UNIT     EDATA          ?ED?DL1A_ENCODE_TIMEOUT?ZF_DEVICE_DL1A
000010H   000013H   000004H   BYTE   UNIT     EDATA          ?ED?ICM20602_SIMSPI_R_REG_BYTES?ZF_DEVICE_ICM20602
000014H.0 00001FH.7 00000CH.0 ---    ---      **GAP**
000020H.0 000020H.0 000000H.1 BIT    UNIT     BIT            ?BI?IAP_READ_BYTE?ZF_DRIVER_EEPROM
000020H.1 000020H.1 000000H.1 BIT    UNIT     BIT            ?BI?IAP_WRITE_BYTE?ZF_DRIVER_EEPROM
000020H.2 000020H.2 000000H.1 BIT    UNIT     BIT            ?BI?IAP_ERASE_PAGE?ZF_DRIVER_EEPROM
000020H.3 000020H.3 000000H.1 BIT    UNIT     BIT            ?BI?SEEKFREE_ASSISTANT_DATA_ANALYSIS?SEEKFREE_ASSISTANT
000020H.4 000020H   000000H.4 ---    ---      **GAP**
000021H   000820H   000800H   BYTE   UNIT     EDATA          ?STACK
000821H   00FFFFH   00F7DFH   ---    ---      **GAP**
010000H   010209H   00020AH   BYTE   UNIT     XDATA          ?XD?EXTERN_IAP_WRITE_BUFF?ZF_DRIVER_EEPROM
01020AH   01040BH   000202H   BYTE   INSEG    XDATA          ?XD?ZF_DEVICE_TSL1401
01040CH   0105D3H   0001C8H   BYTE   INSEG    XDATA          ?XD?ZF_DEVICE_GPS_TAU1201
0105D4H   010710H   00013DH   BYTE   INSEG    XDATA          ?XD?SEEKFREE_ASSISTANT
010711H   01082FH   00011FH   BYTE   INSEG    XDATA          ?XD?IMU
010830H   0108FDH   0000CEH   BYTE   UNIT     XDATA          ?XD?DL1A_INIT?ZF_DEVICE_DL1A
0108FEH   0109A1H   0000A4H   BYTE   INSEG    XDATA          ?XD?TRANK
0109A2H   010A41H   0000A0H   BYTE   INSEG    XDATA          ?XD?MENU
010A42H   010AD6H   000095H   BYTE   UNIT     XDATA          ?XD?GPS_INIT?ZF_DEVICE_GPS_TAU1201
010AD7H   010B65H   00008FH   BYTE   UNIT     XDATA          ?XD?SEEKFREE_ASSISTANT_DATA_ANALYSIS?SEEKFREE_ASSISTANT
010B66H   010BE9H   000084H   BYTE   UNIT     XDATA          ?XD?SEND_DATA_TO_PC?MENU
010BEAH   010C48H   00005FH   BYTE   UNIT     XDATA          ?XD?ZF_SPRINTF?ZF_COMMON_FUNCTION
010C49H   010CA1H   000059H   BYTE   INSEG    XDATA          ?XD?ZF_COMMON_DEBUG
010CA2H   010CF8H   000057H   BYTE   INSEG    XDATA          ?XD?ZF_DEVICE_BLE6A20
010CF9H   010D4FH   000057H   BYTE   INSEG    XDATA          ?XD?ZF_DEVICE_WIRELESS_UART
010D50H   010DA2H   000053H   BYTE   UNIT     XDATA          ?XD?VSNPRINTF?ZF_COMMON_FUNCTION
010DA3H   010DEFH   00004DH   BYTE   INSEG    XDATA          ?XD?ZF_DEVICE_IPS200PRO
010DF0H   010E39H   00004AH   BYTE   UNIT     XDATA          ?XD?UART_WRITE_BUFFER?ZF_DRIVER_UART
010E3AH   010E7EH   000045H   BYTE   UNIT     XDATA          ?XD?IPS200PRO_TABLE_CELL_PRINTF?ZF_DEVICE_IPS200PRO
010E7FH   010EC1H   000043H   BYTE   INSEG    XDATA          ?XD?MAIN
010EC2H   010F02H   000041H   BYTE   UNIT     XDATA          ?XD?INDUCTANCE_READ?INDUCTANCE
010F03H   010F41H   00003FH   BYTE   UNIT     XDATA          ?XD?IPS200PRO_LABEL_PRINTF?ZF_DEVICE_IPS200PRO
010F42H   010F79H   000038H   BYTE   UNIT     XDATA          ?XD?FUNC_DOUBLE_TO_STR?ZF_COMMON_FUNCTION
010F7AH   010FA9H   000030H   BYTE   UNIT     XDATA          ?XD?GET_TWO_POINTS_DISTANCE?ZF_DEVICE_GPS_TAU1201
010FAAH   010FD9H   000030H   BYTE   UNIT     XDATA          ?XD?IPS114_SHOW_FLOAT?ZF_DEVICE_IPS114
010FDAH   011009H   000030H   BYTE   UNIT     XDATA          ?XD?IPS200_SHOW_FLOAT?ZF_DEVICE_IPS200
01100AH   011039H   000030H   BYTE   UNIT     XDATA          ?XD?TFT180_SHOW_FLOAT?ZF_DEVICE_TFT180
01103AH   011068H   00002FH   BYTE   UNIT     XDATA          ?XD?DL1A_SET_MEASUREMENT_TIMING_BUDGET?ZF_DEVICE_DL1A
L251 LINKER/LOCATER V4.66.93.0                                                        03/30/2026  16:35:38  PAGE 5


011069H   011094H   00002CH   BYTE   UNIT     XDATA          ?XD?IPS114_SHOW_INT32?ZF_DEVICE_IPS114
011095H   0110C0H   00002CH   BYTE   UNIT     XDATA          ?XD?IPS200_SHOW_INT32?ZF_DEVICE_IPS200
0110C1H   0110ECH   00002CH   BYTE   UNIT     XDATA          ?XD?TFT180_SHOW_INT32?ZF_DEVICE_TFT180
0110EDH   011117H   00002BH   BYTE   UNIT     XDATA          ?XD?GPS_GNRMC_PARSE?ZF_DEVICE_GPS_TAU1201
011118H   011141H   00002AH   BYTE   UNIT     XDATA          ?XD?FUNC_FLOAT_TO_STR?ZF_COMMON_FUNCTION
011142H   01116BH   00002AH   BYTE   UNIT     XDATA          ?XD?SEEKFREE_ASSISTANT_OSCILLOSCOPE_SEND?SEEKFREE_ASSISTAN
                                                             -T
01116CH   011193H   000028H   BYTE   UNIT     XDATA          ?XD?IPS200PRO_IMAGE_DISPLAY?ZF_DEVICE_IPS200PRO
011194H   0111BBH   000028H   BYTE   UNIT     XDATA          _XDATA_GROUP_
0111BCH   0111E0H   000025H   BYTE   UNIT     XDATA          ?XD?FUNC_HEX_TO_STR?ZF_COMMON_FUNCTION
0111E1H   011202H   000022H   BYTE   UNIT     XDATA          ?XD?IPS200PRO_IMAGE_DRAW_RECTANGLE?ZF_DEVICE_IPS200PRO
011203H   011222H   000020H   BYTE   UNIT     XDATA          ?XD?IPS114_SHOW_WAVE?ZF_DEVICE_IPS114
011223H   011242H   000020H   BYTE   UNIT     XDATA          ?XD?IPS200_SHOW_WAVE?ZF_DEVICE_IPS200
011243H   011262H   000020H   BYTE   UNIT     XDATA          ?XD?TFT180_SHOW_WAVE?ZF_DEVICE_TFT180
011263H   011281H   00001FH   BYTE   UNIT     XDATA          ?XD?DL1A_GET_MEASUREMENT_TIMING_BUDGET?ZF_DEVICE_DL1A
011282H   0112A0H   00001FH   BYTE   UNIT     XDATA          ?XD?IPS200PRO_WRITE_PACKET?ZF_DEVICE_IPS200PRO
0112A1H   0112BFH   00001FH   BYTE   UNIT     XDATA          ?XD?SEEKFREE_ASSISTANT_CAMERA_BOUNDARY_CONFIG?SEEKFREE_ASS
                                                             -ISTANT
0112C0H   0112DDH   00001EH   BYTE   INSEG    XDATA          ?XD?ZF_COMMON_TYPEDEF
0112DEH   0112FBH   00001EH   BYTE   INSEG    XDATA          ?XD?ZF_DEVICE_IMU963RA
0112FCH   011318H   00001DH   BYTE   UNIT     XDATA          ?XD?FUNC_INT_TO_STR?ZF_COMMON_FUNCTION
011319H   011334H   00001CH   BYTE   UNIT     XDATA          ?XD?GET_TWO_POINTS_AZIMUTH?ZF_DEVICE_GPS_TAU1201
011335H   01134FH   00001BH   BYTE   UNIT     XDATA          ?XD?IPS200PRO_CREATE_WIDGETS?ZF_DEVICE_IPS200PRO
011350H   011369H   00001AH   BYTE   UNIT     XDATA          ?XD?IPS200PRO_WAVEFORM_ADD_VALUE?ZF_DEVICE_IPS200PRO
01136AH   011383H   00001AH   BYTE   UNIT     XDATA          ?XD?IPS200PRO_IMAGE_DRAW_LINE?ZF_DEVICE_IPS200PRO
011384H   01139CH   000019H   BYTE   UNIT     XDATA          ?XD?FUNC_UINT_TO_STR?ZF_COMMON_FUNCTION
01139DH   0113B5H   000019H   BYTE   UNIT     XDATA          ?XD?IPS114_SHOW_CHINESE?ZF_DEVICE_IPS114
0113B6H   0113CEH   000019H   BYTE   UNIT     XDATA          ?XD?IPS200_SHOW_CHINESE?ZF_DEVICE_IPS200
0113CFH   0113E7H   000019H   BYTE   UNIT     XDATA          ?XD?INDUCTANCE_COUNT_ERR?INDUCTANCE
0113E8H   0113FFH   000018H   BYTE   UNIT     XDATA          ?XD?FIFO_READ_BUFFER?ZF_COMMON_FIFO
011400H   011417H   000018H   BYTE   UNIT     XDATA          ?XD?GET_FLOAT_NUMBER?ZF_DEVICE_GPS_TAU1201
011418H   01142FH   000018H   BYTE   UNIT     XDATA          ?XD?GET_DOUBLE_NUMBER?ZF_DEVICE_GPS_TAU1201
011430H   011447H   000018H   BYTE   UNIT     XDATA          ?XD?PID_INIT?TRANK
011448H   01145CH   000015H   BYTE   UNIT     XDATA          ?XD?SOFT_SPI_INIT?ZF_DRIVER_SOFT_SPI
01145DH   011471H   000015H   BYTE   UNIT     XDATA          ?XD?IPS200PRO_GET_INFORMATION?ZF_DEVICE_IPS200PRO
011472H   011485H   000014H   BYTE   UNIT     XDATA          ?XD?DEBUG_ASSERT_HANDLER?ZF_COMMON_DEBUG
011486H   011499H   000014H   BYTE   UNIT     XDATA          ?XD?NUMBER_CONVERSION_ASCII?ZF_COMMON_FUNCTION
01149AH   0114ADH   000014H   BYTE   UNIT     XDATA          ?XD?PWM_SET_FREQ?ZF_DRIVER_PWM
0114AEH   0114C1H   000014H   BYTE   UNIT     XDATA          ?XD?SOFT_IIC_TRANSFER_8BIT_ARRAY?ZF_DRIVER_SOFT_IIC
0114C2H   0114D5H   000014H   BYTE   UNIT     XDATA          ?XD?SOFT_IIC_TRANSFER_16BIT_ARRAY?ZF_DRIVER_SOFT_IIC
0114D6H   0114E9H   000014H   BYTE   UNIT     XDATA          ?XD?SPI_INIT?ZF_DRIVER_SPI
0114EAH   0114FDH   000014H   BYTE   INSEG    XDATA          ?XD?ZF_DEVICE_ICM20602
0114FEH   011511H   000014H   BYTE   INSEG    XDATA          ?XD?ZF_DEVICE_IMU660RA
011512H   011524H   000013H   BYTE   UNIT     XDATA          ?XD?IMU660RA_READ_REGISTERS?ZF_DEVICE_IMU660RA
011525H   011537H   000013H   BYTE   UNIT     XDATA          ?XD?IPS200PRO_SET_COLOR?ZF_DEVICE_IPS200PRO
011538H   01154AH   000013H   BYTE   UNIT     XDATA          ?XD?IPS200PRO_SET_POSITION?ZF_DEVICE_IPS200PRO
01154BH   01155DH   000013H   BYTE   UNIT     XDATA          ?XD?IPS200PRO_WAVEFORM_LINE_STATE?ZF_DEVICE_IPS200PRO
01155EH   011570H   000013H   BYTE   UNIT     XDATA          ?XD?IPS200PRO_CONTAINER_RADIUS?ZF_DEVICE_IPS200PRO
011571H   011582H   000012H   BYTE   UNIT     XDATA          ?XD?FIFO_WRITE_BUFFER?ZF_COMMON_FIFO
011583H   011594H   000012H   BYTE   UNIT     XDATA          ?XD?PWM_INIT?ZF_DRIVER_PWM
011595H   0115A6H   000012H   BYTE   UNIT     XDATA          ?XD?IPS200PRO_TABLE_SET_COL_WIDTH?ZF_DEVICE_IPS200PRO
0115A7H   0115B8H   000012H   BYTE   UNIT     XDATA          ?XD?IPS200PRO_CALENDAR_DISPLAY?ZF_DEVICE_IPS200PRO
0115B9H   0115C9H   000011H   BYTE   UNIT     XDATA          ?XD?FUNC_STR_TO_FLOAT?ZF_COMMON_FUNCTION
0115CAH   0115DAH   000011H   BYTE   UNIT     XDATA          ?XD?FUNC_STR_TO_DOUBLE?ZF_COMMON_FUNCTION
0115DBH   0115EBH   000011H   BYTE   UNIT     XDATA          ?XD?GET_INT_NUMBER?ZF_DEVICE_GPS_TAU1201
0115ECH   0115FCH   000011H   BYTE   UNIT     XDATA          ?XD?IPS200PRO_SET_DATE?ZF_DEVICE_IPS200PRO
0115FDH   01160DH   000011H   BYTE   UNIT     XDATA          ?XD?IPS200PRO_SET_PARENT?ZF_DEVICE_IPS200PRO
01160EH   01161EH   000011H   BYTE   UNIT     XDATA          ?XD?IPS200PRO_GET_DATE?ZF_DEVICE_IPS200PRO
01161FH   01162FH   000011H   BYTE   UNIT     XDATA          ?XD?IPS200PRO_GET_TIME?ZF_DEVICE_IPS200PRO
011630H   011640H   000011H   BYTE   UNIT     XDATA          ?XD?IPS200PRO_GET_FREE_STACK_SIZE?ZF_DEVICE_IPS200PRO
011641H   011651H   000011H   BYTE   UNIT     XDATA          ?XD?IPS200PRO_TABLE_SELECT?ZF_DEVICE_IPS200PRO
011652H   011662H   000011H   BYTE   UNIT     XDATA          ?XD?IPS200PRO_PROGRESS_BAR_SET_VALUE?ZF_DEVICE_IPS200PRO
011663H   011673H   000011H   BYTE   UNIT     XDATA          ?XD?PARAMETER_DEBUG?MENU
011674H   011683H   000010H   BYTE   UNIT     XDATA          ?XD?SOFT_SPI_TRANSFER_8BIT?ZF_DRIVER_SOFT_SPI
011684H   011693H   000010H   BYTE   UNIT     XDATA          ?XD?SOFT_SPI_TRANSFER_16BIT?ZF_DRIVER_SOFT_SPI
L251 LINKER/LOCATER V4.66.93.0                                                        03/30/2026  16:35:38  PAGE 6


011694H   0116A3H   000010H   BYTE   UNIT     XDATA          ?XD?IPS200PRO_SET_TIME?ZF_DEVICE_IPS200PRO
0116A4H   0116B3H   000010H   BYTE   UNIT     XDATA          ?XD?IPS200PRO_PAGE_SET_TITLE_POSITION_WIDTH?ZF_DEVICE_IPS2
                                                             -00PRO
0116B4H   0116C3H   000010H   BYTE   UNIT     XDATA          ?XD?FAST_SQRT?IMU
0116C4H   0116D2H   00000FH   BYTE   UNIT     XDATA          ?XD?IPS200PRO_SET_FONT?ZF_DEVICE_IPS200PRO
0116D3H   0116E1H   00000FH   BYTE   UNIT     XDATA          ?XD?IPS200PRO_PAGE_SWITCH?ZF_DEVICE_IPS200PRO
0116E2H   0116F0H   00000FH   BYTE   UNIT     XDATA          ?XD?IPS200PRO_PAGE_SET_TITLE_NAME?ZF_DEVICE_IPS200PRO
0116F1H   0116FFH   00000FH   BYTE   UNIT     XDATA          ?XD?IPS200PRO_LABEL_SHOW_STRING?ZF_DEVICE_IPS200PRO
011700H   01170EH   00000FH   BYTE   UNIT     XDATA          ?XD?IPS200PRO_LABEL_MODE?ZF_DEVICE_IPS200PRO
01170FH   01171DH   00000FH   BYTE   UNIT     XDATA          ?XD?IPS200PRO_METER_SET_VALUE?ZF_DEVICE_IPS200PRO
01171EH   01172CH   00000FH   BYTE   UNIT     XDATA          ?XD?SEEKFREE_ASSISTANT_CAMERA_DATA_SEND?SEEKFREE_ASSISTANT
01172DH   01173AH   00000EH   BYTE   UNIT     XDATA          ?XD?FIFO_INIT?ZF_COMMON_FIFO
01173BH   011748H   00000EH   BYTE   UNIT     XDATA          ?XD?FUNC_STR_TO_HEX?ZF_COMMON_FUNCTION
011749H   011756H   00000EH   BYTE   UNIT     XDATA          ?XD?PWM_SET_DUTY?ZF_DRIVER_PWM
011757H   011764H   00000EH   BYTE   UNIT     XDATA          ?XD?SOFT_IIC_WRITE_16BIT_REGISTERS?ZF_DRIVER_SOFT_IIC
011765H   011772H   00000EH   BYTE   UNIT     XDATA          ?XD?SOFT_IIC_READ_16BIT_REGISTERS?ZF_DRIVER_SOFT_IIC
011773H   011780H   00000EH   BYTE   UNIT     XDATA          ?XD?SOFT_SPI_WRITE_16BIT_REGISTERS?ZF_DRIVER_SOFT_SPI
011781H   01178EH   00000EH   BYTE   UNIT     XDATA          ?XD?SOFT_SPI_READ_16BIT_REGISTERS?ZF_DRIVER_SOFT_SPI
01178FH   01179CH   00000EH   BYTE   UNIT     XDATA          ?XD?SPI_TRANSFER_8BIT?ZF_DRIVER_SPI
01179DH   0117AAH   00000EH   BYTE   UNIT     XDATA          ?XD?SPI_TRANSFER_16BIT?ZF_DRIVER_SPI
0117ABH   0117B8H   00000EH   BYTE   UNIT     XDATA          ?XD?GPS_GNGGA_PARSE?ZF_DEVICE_GPS_TAU1201
0117B9H   0117C6H   00000EH   BYTE   UNIT     XDATA          ?XD?IPS200PRO_SEND_BUFFER?ZF_DEVICE_IPS200PRO
0117C7H   0117D4H   00000EH   BYTE   UNIT     XDATA          ?XD?IPS200PRO_SET_HIDDEN?ZF_DEVICE_IPS200PRO
0117D5H   0117E2H   00000EH   BYTE   UNIT     XDATA          ?XD?IPS200PRO_WAVEFORM_LINE_TYPE?ZF_DEVICE_IPS200PRO
0117E3H   0117F0H   00000EH   BYTE   UNIT     XDATA          ?XD?MEDIAN_AVERAGE_FILTER?INDUCTANCE
0117F1H   0117FDH   00000DH   BYTE   UNIT     XDATA          ?XD?PRINTF_REVERSE_ORDER?ZF_COMMON_FUNCTION
0117FEH   01180AH   00000DH   BYTE   UNIT     XDATA          ?XD?SOFT_IIC_WRITE_8BIT_REGISTERS?ZF_DRIVER_SOFT_IIC
01180BH   011817H   00000DH   BYTE   UNIT     XDATA          ?XD?SOFT_IIC_READ_8BIT_REGISTERS?ZF_DRIVER_SOFT_IIC
011818H   011824H   00000DH   BYTE   UNIT     XDATA          ?XD?SOFT_IIC_INIT?ZF_DRIVER_SOFT_IIC
011825H   011831H   00000DH   BYTE   UNIT     XDATA          ?XD?SOFT_SPI_WRITE_8BIT_REGISTERS?ZF_DRIVER_SOFT_SPI
011832H   01183EH   00000DH   BYTE   UNIT     XDATA          ?XD?SOFT_SPI_READ_8BIT_REGISTERS?ZF_DRIVER_SOFT_SPI
01183FH   01184BH   00000DH   BYTE   INSEG    XDATA          ?XD?ZF_DEVICE_DL1A
01184CH   011858H   00000DH   BYTE   INSEG    XDATA          ?XD?ZF_DEVICE_DL1B
011859H   011865H   00000DH   BYTE   UNIT     XDATA          ?XD?GET_PARAMETER_INDEX?ZF_DEVICE_GPS_TAU1201
011866H   011872H   00000DH   BYTE   UNIT     XDATA          ?XD?IPS200PRO_RECEIVE_BUFFER?ZF_DEVICE_IPS200PRO
011873H   01187FH   00000DH   BYTE   UNIT     XDATA          ?XD?IPS200PRO_SET_FORMAT?ZF_DEVICE_IPS200PRO
011880H   01188CH   00000DH   BYTE   UNIT     XDATA          ?XD?IPS200PRO_SET_DIRECTION?ZF_DEVICE_IPS200PRO
01188DH   011899H   00000DH   BYTE   UNIT     XDATA          ?XD?IPS200PRO_SET_DEFAULT_FONT?ZF_DEVICE_IPS200PRO
01189AH   0118A5H   00000CH   BYTE   UNIT     XDATA          ?XD?SOFT_IIC_WRITE_8BIT_ARRAY?ZF_DRIVER_SOFT_IIC
0118A6H   0118B1H   00000CH   BYTE   UNIT     XDATA          ?XD?SOFT_IIC_WRITE_16BIT_ARRAY?ZF_DRIVER_SOFT_IIC
0118B2H   0118BDH   00000CH   BYTE   UNIT     XDATA          ?XD?SOFT_IIC_READ_8BIT_ARRAY?ZF_DRIVER_SOFT_IIC
0118BEH   0118C9H   00000CH   BYTE   UNIT     XDATA          ?XD?SOFT_IIC_READ_16BIT_ARRAY?ZF_DRIVER_SOFT_IIC
0118CAH   0118D5H   00000CH   BYTE   UNIT     XDATA          ?XD?SOFT_SPI_WRITE_8BIT_ARRAY?ZF_DRIVER_SOFT_SPI
0118D6H   0118E1H   00000CH   BYTE   UNIT     XDATA          ?XD?SOFT_SPI_WRITE_16BIT_ARRAY?ZF_DRIVER_SOFT_SPI
0118E2H   0118EDH   00000CH   BYTE   UNIT     XDATA          ?XD?SOFT_SPI_READ_8BIT_ARRAY?ZF_DRIVER_SOFT_SPI
0118EEH   0118F9H   00000CH   BYTE   UNIT     XDATA          ?XD?SOFT_SPI_READ_16BIT_ARRAY?ZF_DRIVER_SOFT_SPI
0118FAH   011905H   00000CH   BYTE   UNIT     XDATA          ?XD?SPI_WRITE_16BIT_REGISTERS?ZF_DRIVER_SPI
011906H   011911H   00000CH   BYTE   UNIT     XDATA          ?XD?SPI_READ_16BIT_REGISTERS?ZF_DRIVER_SPI
011912H   01191DH   00000CH   BYTE   INSEG    XDATA          ?XD?ZF_DRIVER_TIMER
01191EH   011929H   00000CH   BYTE   INSEG    XDATA          ?XD?ZF_DRIVER_UART
01192AH   011935H   00000CH   BYTE   UNIT     XDATA          ?XD?UART_INIT?ZF_DRIVER_UART
011936H   011941H   00000CH   BYTE   UNIT     XDATA          ?XD?EEPROM_READ_VALUE?EEPROM
011942H   01194DH   00000CH   BYTE   UNIT     XDATA          ?XD?BLE6A20_SEND_BUFFER?ZF_DEVICE_BLE6A20
01194EH   011959H   00000CH   BYTE   UNIT     XDATA          ?XD?BLE6A20_READ_BUFFER?ZF_DEVICE_BLE6A20
01195AH   011965H   00000CH   BYTE   UNIT     XDATA          ?XD?DL1A_GET_SPAD_INFO?ZF_DEVICE_DL1A
011966H   011971H   00000CH   BYTE   UNIT     XDATA          ?XD?DL1A_GET_SEQUENCE_STEP_TIMEOUTS?ZF_DEVICE_DL1A
011972H   01197DH   00000CH   BYTE   UNIT     XDATA          ?XD?GPS_DATA_PARSE?ZF_DEVICE_GPS_TAU1201
01197EH   011989H   00000CH   BYTE   INSEG    XDATA          ?XD?ZF_DEVICE_IMU660RB
01198AH   011995H   00000CH   BYTE   UNIT     XDATA          ?XD?IPS114_SHOW_INT16?ZF_DEVICE_IPS114
011996H   0119A1H   00000CH   BYTE   UNIT     XDATA          ?XD?IPS114_SHOW_UINT16?ZF_DEVICE_IPS114
0119A2H   0119ADH   00000CH   BYTE   UNIT     XDATA          ?XD?IPS200_SHOW_INT16?ZF_DEVICE_IPS200
0119AEH   0119B9H   00000CH   BYTE   UNIT     XDATA          ?XD?IPS200_SHOW_UINT16?ZF_DEVICE_IPS200
0119BAH   0119C5H   00000CH   BYTE   UNIT     XDATA          ?XD?IPS200PRO_SET_BACKLIGHT?ZF_DEVICE_IPS200PRO
0119C6H   0119D1H   00000CH   BYTE   UNIT     XDATA          ?XD?IPS200PRO_SET_CRC_STATE?ZF_DEVICE_IPS200PRO
0119D2H   0119DDH   00000CH   BYTE   UNIT     XDATA          ?XD?IPS200PRO_SET_OPTIMIZE?ZF_DEVICE_IPS200PRO
L251 LINKER/LOCATER V4.66.93.0                                                        03/30/2026  16:35:38  PAGE 7


0119DEH   0119E9H   00000CH   BYTE   UNIT     XDATA          ?XD?TFT180_SHOW_INT16?ZF_DEVICE_TFT180
0119EAH   0119F5H   00000CH   BYTE   UNIT     XDATA          ?XD?TFT180_SHOW_UINT16?ZF_DEVICE_TFT180
0119F6H   011A01H   00000CH   BYTE   UNIT     XDATA          ?XD?WIRELESS_UART_SEND_BUFFER?ZF_DEVICE_WIRELESS_UART
011A02H   011A0DH   00000CH   BYTE   UNIT     XDATA          ?XD?WIRELESS_UART_READ_BUFFER?ZF_DEVICE_WIRELESS_UART
011A0EH   011A19H   00000CH   BYTE   UNIT     XDATA          ?XD?KALMANCREATE?IMU
011A1AH   011A25H   00000CH   BYTE   UNIT     XDATA          ?XD?PID_CALC?TRANK
011A26H   011A30H   00000BH   BYTE   INSEG    XDATA          ?XD?ZF_DRIVER_ADC
011A31H   011A3BH   00000BH   BYTE   UNIT     XDATA          ?XD?PIT_INIT?ZF_DRIVER_PIT
011A3CH   011A46H   00000BH   BYTE   UNIT     XDATA          ?XD?SOFT_SPI_16BIT_DATA_HANDLER?ZF_DRIVER_SOFT_SPI
011A47H   011A51H   00000BH   BYTE   UNIT     XDATA          ?XD?SPI_WRITE_8BIT_REGISTERS?ZF_DRIVER_SPI
011A52H   011A5CH   00000BH   BYTE   UNIT     XDATA          ?XD?SPI_READ_8BIT_REGISTERS?ZF_DRIVER_SPI
011A5DH   011A67H   00000BH   BYTE   UNIT     XDATA          ?XD?GPS_UART_CALLBACK?ZF_DEVICE_GPS_TAU1201
011A68H   011A72H   00000BH   BYTE   UNIT     XDATA          ?XD?IPS200PRO_DELETE_WIDGETS?ZF_DEVICE_IPS200PRO
011A73H   011A7DH   00000BH   BYTE   UNIT     XDATA          ?XD?IPS200PRO_WAVEFORM_CLEAR?ZF_DEVICE_IPS200PRO
011A7EH   011A87H   00000AH   BYTE   UNIT     XDATA          ?XD?ADC_MEAN_FILTER_CONVERT?ZF_DRIVER_ADC
011A88H   011A91H   00000AH   BYTE   UNIT     XDATA          ?XD?IAP_READ_BUFF?ZF_DRIVER_EEPROM
011A92H   011A9BH   00000AH   BYTE   UNIT     XDATA          ?XD?IAP_WRITE_BUFF?ZF_DRIVER_EEPROM
011A9CH   011AA5H   00000AH   BYTE   UNIT     XDATA          ?XD?SPI_WRITE_8BIT_ARRAY?ZF_DRIVER_SPI
011AA6H   011AAFH   00000AH   BYTE   UNIT     XDATA          ?XD?SPI_WRITE_16BIT_ARRAY?ZF_DRIVER_SPI
011AB0H   011AB9H   00000AH   BYTE   UNIT     XDATA          ?XD?SPI_READ_8BIT_ARRAY?ZF_DRIVER_SPI
011ABAH   011AC3H   00000AH   BYTE   UNIT     XDATA          ?XD?SPI_READ_16BIT_ARRAY?ZF_DRIVER_SPI
011AC4H   011ACDH   00000AH   BYTE   UNIT     XDATA          ?XD?EEPROM_READ?EEPROM
011ACEH   011AD7H   00000AH   BYTE   UNIT     XDATA          ?XD?IPS114_SHOW_STRING?ZF_DEVICE_IPS114
011AD8H   011AE1H   00000AH   BYTE   INSEG    XDATA          ?XD?ZF_DEVICE_IPS200
011AE2H   011AEBH   00000AH   BYTE   UNIT     XDATA          ?XD?IPS200_SHOW_STRING?ZF_DEVICE_IPS200
011AECH   011AF5H   00000AH   BYTE   UNIT     XDATA          ?XD?TFT180_SHOW_STRING?ZF_DEVICE_TFT180
011AF6H   011AFFH   00000AH   BYTE   UNIT     XDATA          ?XD?SEEKFREE_ASSISTANT_CAMERA_INFORMATION_CONFIG?SEEKFREE_
                                                             -ASSISTANT
011B00H   011B08H   000009H   BYTE   UNIT     XDATA          ?XD?FUNC_STR_TO_INT?ZF_COMMON_FUNCTION
011B09H   011B11H   000009H   BYTE   UNIT     XDATA          ?XD?DL1A_TIMEOUT_MICROSECONDS_TO_MCLKS?ZF_DEVICE_DL1A
011B12H   011B1AH   000009H   BYTE   UNIT     XDATA          ?XD?DL1A_SET_SIGNAL_RATE_LIMIT?ZF_DEVICE_DL1A
011B1BH   011B23H   000009H   BYTE   UNIT     XDATA          ?XD?ICM20602_SIMSPI_R_REG_BYTES?ZF_DEVICE_ICM20602
011B24H   011B2CH   000009H   BYTE   UNIT     XDATA          ?XD?ICM20602_READ_REGISTERS?ZF_DEVICE_ICM20602
011B2DH   011B35H   000009H   BYTE   UNIT     XDATA          ?XD?IMU660RA_SIMSPI_W_REG_BYTES?ZF_DEVICE_IMU660RA
011B36H   011B3EH   000009H   BYTE   UNIT     XDATA          ?XD?IMU660RA_SIMSPI_R_REG_BYTES?ZF_DEVICE_IMU660RA
011B3FH   011B47H   000009H   BYTE   UNIT     XDATA          ?XD?IMU660RA_WRITE_REGISTERS?ZF_DEVICE_IMU660RA
011B48H   011B50H   000009H   BYTE   UNIT     XDATA          ?XD?IMU660RB_SIMSPI_R_REG_BYTES?ZF_DEVICE_IMU660RB
011B51H   011B59H   000009H   BYTE   UNIT     XDATA          ?XD?IMU660RB_READ_REGISTERS?ZF_DEVICE_IMU660RB
011B5AH   011B62H   000009H   BYTE   UNIT     XDATA          ?XD?IMU963RA_READ_ACC_GYRO_REGISTERS?ZF_DEVICE_IMU963RA
011B63H   011B6BH   000009H   BYTE   UNIT     XDATA          ?XD?IPS114_SHOW_INT8?ZF_DEVICE_IPS114
011B6CH   011B74H   000009H   BYTE   UNIT     XDATA          ?XD?IPS114_SHOW_UINT8?ZF_DEVICE_IPS114
011B75H   011B7DH   000009H   BYTE   UNIT     XDATA          ?XD?IPS200_SHOW_INT8?ZF_DEVICE_IPS200
011B7EH   011B86H   000009H   BYTE   UNIT     XDATA          ?XD?IPS200_SHOW_UINT8?ZF_DEVICE_IPS200
011B87H   011B8FH   000009H   BYTE   UNIT     XDATA          ?XD?IPS200PRO_LABEL_CREATE?ZF_DEVICE_IPS200PRO
011B90H   011B98H   000009H   BYTE   UNIT     XDATA          ?XD?IPS200PRO_TABLE_CREATE?ZF_DEVICE_IPS200PRO
011B99H   011BA1H   000009H   BYTE   UNIT     XDATA          ?XD?IPS200PRO_METER_CREATE?ZF_DEVICE_IPS200PRO
011BA2H   011BAAH   000009H   BYTE   UNIT     XDATA          ?XD?IPS200PRO_CLOCK_CREATE?ZF_DEVICE_IPS200PRO
011BABH   011BB3H   000009H   BYTE   UNIT     XDATA          ?XD?IPS200PRO_PROGRESS_BAR_CREATE?ZF_DEVICE_IPS200PRO
011BB4H   011BBCH   000009H   BYTE   UNIT     XDATA          ?XD?IPS200PRO_CALENDAR_CREATE?ZF_DEVICE_IPS200PRO
011BBDH   011BC5H   000009H   BYTE   UNIT     XDATA          ?XD?IPS200PRO_WAVEFORM_CREATE?ZF_DEVICE_IPS200PRO
011BC6H   011BCEH   000009H   BYTE   UNIT     XDATA          ?XD?IPS200PRO_IMAGE_CREATE?ZF_DEVICE_IPS200PRO
011BCFH   011BD7H   000009H   BYTE   UNIT     XDATA          ?XD?IPS200PRO_CONTAINER_CREATE?ZF_DEVICE_IPS200PRO
011BD8H   011BE0H   000009H   BYTE   UNIT     XDATA          ?XD?IPS200PRO_INIT?ZF_DEVICE_IPS200PRO
011BE1H   011BE9H   000009H   BYTE   UNIT     XDATA          ?XD?TFT180_SHOW_INT8?ZF_DEVICE_TFT180
011BEAH   011BF2H   000009H   BYTE   UNIT     XDATA          ?XD?TFT180_SHOW_UINT8?ZF_DEVICE_TFT180
011BF3H   011BFBH   000009H   BYTE   UNIT     XDATA          ?XD?SEEKFREE_ASSISTANT_SUM?SEEKFREE_ASSISTANT
011BFCH   011C03H   000008H   BYTE   UNIT     XDATA          ?XD?DEBUG_SEND_BUFFER?ZF_COMMON_DEBUG
011C04H   011C0BH   000008H   BYTE   UNIT     XDATA          ?XD?DEBUG_READ_BUFFER?ZF_COMMON_DEBUG
011C0CH   011C13H   000008H   BYTE   UNIT     XDATA          ?XD?FIFO_HEAD_OFFSET?ZF_COMMON_FIFO
011C14H   011C1BH   000008H   BYTE   UNIT     XDATA          ?XD?FIFO_END_OFFSET?ZF_COMMON_FIFO
011C1CH   011C23H   000008H   BYTE   UNIT     XDATA          ?XD?FUNC_GET_GREATEST_COMMON_DIVISOR?ZF_COMMON_FUNCTION
011C24H   011C2BH   000008H   BYTE   UNIT     XDATA          ?XD?FUNC_STR_TO_UINT?ZF_COMMON_FUNCTION
011C2CH   011C33H   000008H   BYTE   UNIT     XDATA          ?XD?SOFT_IIC_DELAY?ZF_DRIVER_SOFT_IIC
011C34H   011C3BH   000008H   BYTE   UNIT     XDATA          ?XD?SOFT_IIC_WRITE_16BIT_REGISTER?ZF_DRIVER_SOFT_IIC
011C3CH   011C43H   000008H   BYTE   UNIT     XDATA          ?XD?SOFT_IIC_READ_16BIT_REGISTER?ZF_DRIVER_SOFT_IIC
L251 LINKER/LOCATER V4.66.93.0                                                        03/30/2026  16:35:38  PAGE 8


011C44H   011C4BH   000008H   BYTE   UNIT     XDATA          ?XD?SOFT_SPI_DELAY?ZF_DRIVER_SOFT_SPI
011C4CH   011C53H   000008H   BYTE   UNIT     XDATA          ?XD?SOFT_SPI_8BIT_DATA_HANDLER?ZF_DRIVER_SOFT_SPI
011C54H   011C5BH   000008H   BYTE   UNIT     XDATA          ?XD?SOFT_SPI_WRITE_16BIT_REGISTER?ZF_DRIVER_SOFT_SPI
011C5CH   011C63H   000008H   BYTE   UNIT     XDATA          ?XD?SOFT_SPI_READ_16BIT_REGISTER?ZF_DRIVER_SOFT_SPI
011C64H   011C6BH   000008H   BYTE   UNIT     XDATA          ?XD?UART_WRITE_STRING?ZF_DRIVER_UART
011C6CH   011C73H   000008H   BYTE   UNIT     XDATA          ?XD?EEPROM_WRITE_VALUE?EEPROM
011C74H   011C7BH   000008H   BYTE   UNIT     XDATA          ?XD?BLE6A20_SEND_STRING?ZF_DEVICE_BLE6A20
011C7CH   011C83H   000008H   BYTE   INSEG    XDATA          ?XD?ZF_DEVICE_IPS114
011C84H   011C8BH   000008H   BYTE   UNIT     XDATA          ?XD?IPS114_SET_REGION?ZF_DEVICE_IPS114
011C8CH   011C93H   000008H   BYTE   UNIT     XDATA          ?XD?IPS114_SHOW_CHAR?ZF_DEVICE_IPS114
011C94H   011C9BH   000008H   BYTE   UNIT     XDATA          ?XD?IPS200_SET_REGION?ZF_DEVICE_IPS200
011C9CH   011CA3H   000008H   BYTE   UNIT     XDATA          ?XD?IPS200_SHOW_CHAR?ZF_DEVICE_IPS200
011CA4H   011CABH   000008H   BYTE   UNIT     XDATA          ?XD?IPS200PRO_READ_PARAMETER?ZF_DEVICE_IPS200PRO
011CACH   011CB3H   000008H   BYTE   INSEG    XDATA          ?XD?ZF_DEVICE_TFT180
011CB4H   011CBBH   000008H   BYTE   UNIT     XDATA          ?XD?TFT180_SET_REGION?ZF_DEVICE_TFT180
011CBCH   011CC3H   000008H   BYTE   UNIT     XDATA          ?XD?TFT180_SHOW_CHAR?ZF_DEVICE_TFT180
011CC4H   011CCBH   000008H   BYTE   INSEG    XDATA          ?XD?ZF_DEVICE_TYPE
011CCCH   011CD3H   000008H   BYTE   UNIT     XDATA          ?XD?SET_WIRELESS_TYPE?ZF_DEVICE_TYPE
011CD4H   011CDBH   000008H   BYTE   UNIT     XDATA          ?XD?SET_GPS_TYPE?ZF_DEVICE_TYPE
011CDCH   011CE3H   000008H   BYTE   UNIT     XDATA          ?XD?WIRELESS_UART_SEND_STRING?ZF_DEVICE_WIRELESS_UART
011CE4H   011CEBH   000008H   BYTE   UNIT     XDATA          ?XD?KALMANFILTER?IMU
011CECH   011CF3H   000008H   BYTE   UNIT     XDATA          ?XD?ADC_NORMALIZE_0_100?INDUCTANCE
011CF4H   011CFAH   000007H   BYTE   UNIT     XDATA          ?XD?GPIO_INIT?ZF_DRIVER_GPIO
011CFBH   011D01H   000007H   BYTE   UNIT     XDATA          ?XD?SOFT_IIC_READ_DATA?ZF_DRIVER_SOFT_IIC
011D02H   011D08H   000007H   BYTE   UNIT     XDATA          ?XD?UART_QUERY_BYTE?ZF_DRIVER_UART
011D09H   011D0FH   000007H   BYTE   UNIT     XDATA          ?XD?DL1A_TIMEOUT_MCLKS_TO_MICROSECONDS?ZF_DEVICE_DL1A
011D10H   011D16H   000007H   BYTE   UNIT     XDATA          ?XD?IMU963RA_GET_MAG?ZF_DEVICE_IMU963RA
011D17H   011D1DH   000007H   BYTE   UNIT     XDATA          ?XD?SEEKFREE_ASSISTANT_CAMERA_DOT_SEND?SEEKFREE_ASSISTANT
011D1EH   011D23H   000006H   BYTE   UNIT     XDATA          ?XD?FIFO_CLEAR?ZF_COMMON_FIFO
011D24H   011D29H   000006H   BYTE   INSEG    XDATA          ?XD?ZF_DRIVER_ENCODER
011D2AH   011D2FH   000006H   BYTE   UNIT     XDATA          ?XD?ENCODER_DIR_INIT?ZF_DRIVER_ENCODER
011D30H   011D35H   000006H   BYTE   UNIT     XDATA          ?XD?GPIO_SET_LEVEL_SPEED?ZF_DRIVER_GPIO
011D36H   011D3BH   000006H   BYTE   UNIT     XDATA          ?XD?SOFT_IIC_SEND_DATA?ZF_DRIVER_SOFT_IIC
011D3CH   011D41H   000006H   BYTE   UNIT     XDATA          ?XD?SOFT_IIC_WRITE_16BIT?ZF_DRIVER_SOFT_IIC
011D42H   011D47H   000006H   BYTE   UNIT     XDATA          ?XD?SOFT_IIC_WRITE_8BIT_REGISTER?ZF_DRIVER_SOFT_IIC
011D48H   011D4DH   000006H   BYTE   UNIT     XDATA          ?XD?SOFT_IIC_READ_16BIT?ZF_DRIVER_SOFT_IIC
011D4EH   011D53H   000006H   BYTE   UNIT     XDATA          ?XD?SOFT_IIC_READ_8BIT_REGISTER?ZF_DRIVER_SOFT_IIC
011D54H   011D59H   000006H   BYTE   UNIT     XDATA          ?XD?SOFT_IIC_SCCB_WRITE_REGISTER?ZF_DRIVER_SOFT_IIC
011D5AH   011D5FH   000006H   BYTE   UNIT     XDATA          ?XD?SOFT_IIC_SCCB_READ_REGISTER?ZF_DRIVER_SOFT_IIC
011D60H   011D65H   000006H   BYTE   UNIT     XDATA          ?XD?SOFT_SPI_WRITE_16BIT?ZF_DRIVER_SOFT_SPI
011D66H   011D6BH   000006H   BYTE   UNIT     XDATA          ?XD?SOFT_SPI_WRITE_8BIT_REGISTER?ZF_DRIVER_SOFT_SPI
011D6CH   011D71H   000006H   BYTE   UNIT     XDATA          ?XD?SOFT_SPI_READ_8BIT_REGISTER?ZF_DRIVER_SOFT_SPI
011D72H   011D77H   000006H   BYTE   UNIT     XDATA          ?XD?SPI_WRITE_16BIT_REGISTER?ZF_DRIVER_SPI
011D78H   011D7DH   000006H   BYTE   UNIT     XDATA          ?XD?SPI_READ_16BIT_REGISTER?ZF_DRIVER_SPI
011D7EH   011D83H   000006H   BYTE   UNIT     XDATA          ?XD?ICM20602_GET_ACC?ZF_DEVICE_ICM20602
011D84H   011D89H   000006H   BYTE   UNIT     XDATA          ?XD?ICM20602_GET_GYRO?ZF_DEVICE_ICM20602
011D8AH   011D8FH   000006H   BYTE   UNIT     XDATA          ?XD?IMU660RA_GET_ACC?ZF_DEVICE_IMU660RA
011D90H   011D95H   000006H   BYTE   UNIT     XDATA          ?XD?IMU660RA_GET_GYRO?ZF_DEVICE_IMU660RA
011D96H   011D9BH   000006H   BYTE   UNIT     XDATA          ?XD?IMU660RB_GET_ACC?ZF_DEVICE_IMU660RB
011D9CH   011DA1H   000006H   BYTE   UNIT     XDATA          ?XD?IMU660RB_GET_GYRO?ZF_DEVICE_IMU660RB
011DA2H   011DA7H   000006H   BYTE   UNIT     XDATA          ?XD?IMU660RB_ACC_TRANSITION?ZF_DEVICE_IMU660RB
011DA8H   011DADH   000006H   BYTE   UNIT     XDATA          ?XD?IMU660RB_GYRO_TRANSITION?ZF_DEVICE_IMU660RB
011DAEH   011DB3H   000006H   BYTE   UNIT     XDATA          ?XD?IMU963RA_WRITE_MAG_REGISTER?ZF_DEVICE_IMU963RA
011DB4H   011DB9H   000006H   BYTE   UNIT     XDATA          ?XD?IMU963RA_GET_ACC?ZF_DEVICE_IMU963RA
011DBAH   011DBFH   000006H   BYTE   UNIT     XDATA          ?XD?IMU963RA_GET_GYRO?ZF_DEVICE_IMU963RA
011DC0H   011DC5H   000006H   BYTE   UNIT     XDATA          ?XD?IPS114_CLEAR?ZF_DEVICE_IPS114
011DC6H   011DCBH   000006H   BYTE   UNIT     XDATA          ?XD?IPS114_DRAW_POINT?ZF_DEVICE_IPS114
011DCCH   011DD1H   000006H   BYTE   UNIT     XDATA          ?XD?IPS200_CLEAR?ZF_DEVICE_IPS200
011DD2H   011DD7H   000006H   BYTE   UNIT     XDATA          ?XD?IPS200_DRAW_POINT?ZF_DEVICE_IPS200
011DD8H   011DDDH   000006H   BYTE   UNIT     XDATA          ?XD?TFT180_CLEAR?ZF_DEVICE_TFT180
011DDEH   011DE3H   000006H   BYTE   UNIT     XDATA          ?XD?TFT180_DRAW_POINT?ZF_DEVICE_TFT180
011DE4H   011DE9H   000006H   BYTE   UNIT     XDATA          ?XD?SET_TOF_TYPE?ZF_DEVICE_TYPE
011DEAH   011DEFH   000006H   BYTE   UNIT     XDATA          ?XD?MOTOR_PROTECT?MOTO
011DF0H   011DF4H   000005H   BYTE   UNIT     XDATA          ?XD?IAP_READ_BYTE?ZF_DRIVER_EEPROM
011DF5H   011DF9H   000005H   BYTE   UNIT     XDATA          ?XD?IAP_WRITE_BYTE?ZF_DRIVER_EEPROM
L251 LINKER/LOCATER V4.66.93.0                                                        03/30/2026  16:35:38  PAGE 9


011DFAH   011DFEH   000005H   BYTE   UNIT     XDATA          ?XD?GPIO_GET_LEVEL?ZF_DRIVER_GPIO
011DFFH   011E03H   000005H   BYTE   UNIT     XDATA          ?XD?GPIO_SET_LEVEL?ZF_DRIVER_GPIO
011E04H   011E08H   000005H   BYTE   UNIT     XDATA          ?XD?SOFT_IIC_SEND_ACK?ZF_DRIVER_SOFT_IIC
011E09H   011E0DH   000005H   BYTE   UNIT     XDATA          ?XD?SOFT_IIC_WAIT_ACK?ZF_DRIVER_SOFT_IIC
011E0EH   011E12H   000005H   BYTE   UNIT     XDATA          ?XD?SOFT_IIC_WRITE_8BIT?ZF_DRIVER_SOFT_IIC
011E13H   011E17H   000005H   BYTE   UNIT     XDATA          ?XD?SOFT_IIC_READ_8BIT?ZF_DRIVER_SOFT_IIC
011E18H   011E1CH   000005H   BYTE   UNIT     XDATA          ?XD?SOFT_SPI_WRITE_8BIT?ZF_DRIVER_SOFT_SPI
011E1DH   011E21H   000005H   BYTE   UNIT     XDATA          ?XD?SOFT_SPI_READ_8BIT?ZF_DRIVER_SOFT_SPI
011E22H   011E26H   000005H   BYTE   UNIT     XDATA          ?XD?SOFT_SPI_READ_16BIT?ZF_DRIVER_SOFT_SPI
011E27H   011E2BH   000005H   BYTE   UNIT     XDATA          ?XD?TIMER_FUNCITON_CHECK?ZF_DRIVER_TIMER
011E2CH   011E30H   000005H   BYTE   UNIT     XDATA          ?XD?UART_FUNCITON_CHECK?ZF_DRIVER_UART
011E31H   011E35H   000005H   BYTE   UNIT     XDATA          ?XD?DL1A_GET_SEQUENCE_STEP_ENABLES?ZF_DEVICE_DL1A
011E36H   011E3AH   000005H   BYTE   UNIT     XDATA          ?XD?DL1A_PERFORM_SINGLE_REF_CALIBRATION?ZF_DEVICE_DL1A
011E3BH   011E3FH   000005H   BYTE   UNIT     XDATA          ?XD?DL1B_GET_DISTANCE?ZF_DEVICE_DL1B
011E40H   011E44H   000005H   BYTE   UNIT     XDATA          ?XD?UTC_TO_BTC?ZF_DEVICE_GPS_TAU1201
011E45H   011E49H   000005H   BYTE   UNIT     XDATA          ?XD?ICM20602_SIMSPI_R_REG_BYTE?ZF_DEVICE_ICM20602
011E4AH   011E4EH   000005H   BYTE   UNIT     XDATA          ?XD?IMU660RB_SIMSPI_R_REG_BYTE?ZF_DEVICE_IMU660RB
011E4FH   011E53H   000005H   BYTE   UNIT     XDATA          ?XD?IPS200PRO_PAGE_CREATE?ZF_DEVICE_IPS200PRO
011E54H   011E57H   000004H   BYTE   INSEG    XDATA          ?XD?ZF_COMMON_CLOCK
011E58H   011E5BH   000004H   BYTE   UNIT     XDATA          ?XD?SET_SYS_CLK?ZF_COMMON_CLOCK
011E5CH   011E5FH   000004H   BYTE   UNIT     XDATA          ?XD?CLOCK_INIT?ZF_COMMON_CLOCK
011E60H   011E63H   000004H   BYTE   UNIT     XDATA          ?XD?FIFO_USED?ZF_COMMON_FIFO
011E64H   011E67H   000004H   BYTE   UNIT     XDATA          ?XD?FUNC_SOFT_DELAY?ZF_COMMON_FUNCTION
011E68H   011E6BH   000004H   BYTE   UNIT     XDATA          ?XD?ADC_CONVERT?ZF_DRIVER_ADC
011E6CH   011E6FH   000004H   BYTE   UNIT     XDATA          ?XD?ADC_INIT?ZF_DRIVER_ADC
011E70H   011E73H   000004H   BYTE   INSEG    XDATA          ?XD?ZF_DRIVER_DELAY
011E74H   011E77H   000004H   BYTE   UNIT     XDATA          ?XD?IAP_ERASE_PAGE?ZF_DRIVER_EEPROM
011E78H   011E7BH   000004H   BYTE   UNIT     XDATA          ?XD?ENCODER_GET_COUNT?ZF_DRIVER_ENCODER
011E7CH   011E7FH   000004H   BYTE   UNIT     XDATA          ?XD?EXTI_INIT?ZF_DRIVER_EXTI
011E80H   011E83H   000004H   BYTE   UNIT     XDATA          ?XD?GPIO_SET_MODE?ZF_DRIVER_GPIO
011E84H   011E87H   000004H   BYTE   UNIT     XDATA          ?XD?GPIO_SET_DIR?ZF_DRIVER_GPIO
011E88H   011E8BH   000004H   BYTE   UNIT     XDATA          ?XD?GPIO_SET_IMPEDANCE?ZF_DRIVER_GPIO
011E8CH   011E8FH   000004H   BYTE   UNIT     XDATA          ?XD?SOFT_IIC_START?ZF_DRIVER_SOFT_IIC
011E90H   011E93H   000004H   BYTE   UNIT     XDATA          ?XD?SOFT_IIC_STOP?ZF_DRIVER_SOFT_IIC
011E94H   011E97H   000004H   BYTE   UNIT     XDATA          ?XD?SPI_READ_DAT?ZF_DRIVER_SPI
011E98H   011E9BH   000004H   BYTE   UNIT     XDATA          ?XD?SPI_WRITE_16BIT?ZF_DRIVER_SPI
011E9CH   011E9FH   000004H   BYTE   UNIT     XDATA          ?XD?SPI_WRITE_8BIT_REGISTER?ZF_DRIVER_SPI
011EA0H   011EA3H   000004H   BYTE   UNIT     XDATA          ?XD?SPI_READ_16BIT?ZF_DRIVER_SPI
011EA4H   011EA7H   000004H   BYTE   UNIT     XDATA          ?XD?VOLTAGE_WARNING_INIT?VOLTAGE_WARNING
011EA8H   011EABH   000004H   BYTE   UNIT     XDATA          ?XD?ICM20602_SELF_CHECK?ZF_DEVICE_ICM20602
011EACH   011EAFH   000004H   BYTE   UNIT     XDATA          ?XD?ICM20602_INIT?ZF_DEVICE_ICM20602
011EB0H   011EB3H   000004H   BYTE   UNIT     XDATA          ?XD?IMU660RA_SELF_CHECK?ZF_DEVICE_IMU660RA
011EB4H   011EB7H   000004H   BYTE   UNIT     XDATA          ?XD?IMU660RB_SELF_CHECK?ZF_DEVICE_IMU660RB
011EB8H   011EBBH   000004H   BYTE   UNIT     XDATA          ?XD?IMU963RA_READ_MAG_REGISTER?ZF_DEVICE_IMU963RA
011EBCH   011EBFH   000004H   BYTE   UNIT     XDATA          ?XD?IMU963RA_ACC_GYRO_SELF_CHECK?ZF_DEVICE_IMU963RA
011EC0H   011EC3H   000004H   BYTE   UNIT     XDATA          ?XD?IMU963RA_MAG_SELF_CHECK?ZF_DEVICE_IMU963RA
011EC4H   011EC7H   000004H   BYTE   UNIT     XDATA          ?XD?IPS114_SET_COLOR?ZF_DEVICE_IPS114
011EC8H   011ECBH   000004H   BYTE   UNIT     XDATA          ?XD?IPS200_SET_COLOR?ZF_DEVICE_IPS200
011ECCH   011ECFH   000004H   BYTE   UNIT     XDATA          ?XD?IPS200PRO_WAIT_IDLE?ZF_DEVICE_IPS200PRO
011ED0H   011ED3H   000004H   BYTE   UNIT     XDATA          ?XD?IPS200PRO_PAGE_HIDDEN?ZF_DEVICE_IPS200PRO
011ED4H   011ED7H   000004H   BYTE   UNIT     XDATA          ?XD?TFT180_SET_COLOR?ZF_DEVICE_TFT180
011ED8H   011EDBH   000004H   BYTE   UNIT     XDATA          ?XD?TSL1401_SEND_DATA?ZF_DEVICE_TSL1401
011EDCH   011EDFH   000004H   BYTE   UNIT     XDATA          ?XD?FIRST_COMPLEMENT_INIT?IMU
011EE0H   011EE3H   000004H   BYTE   UNIT     XDATA          ?XD?MY_ABS?IMU
011EE4H   011EE7H   000004H   BYTE   INSEG    XDATA          ?XD?SEEKFREE_ASSISTANT_INTERFACE
011EE8H   011EEBH   000004H   BYTE   UNIT     XDATA          ?XD?MOTOR_SETSPEED?MOTO
011EECH   011EEFH   000004H   BYTE   UNIT     XDATA          ?XD?DUAL_LOOP_CONTROL?TRANK
011EF0H   011EF3H   000004H   BYTE   UNIT     XDATA          ?XD?MENU_DISPLAY?MENU
011EF4H   011EF7H   000004H   BYTE   UNIT     XDATA          ?XD?OSCILLOSCOPE_DISPLAY?MENU
011EF8H   011EFAH   000003H   BYTE   UNIT     XDATA          ?XD?INTERRUPT_SET_PRIORITY?ZF_COMMON_INTERRUPT
011EFBH   011EFDH   000003H   BYTE   UNIT     XDATA          ?XD?SPI_WRITE_DAT?ZF_DRIVER_SPI
011EFEH   011F00H   000003H   BYTE   UNIT     XDATA          ?XD?SPI_WRITE_8BIT?ZF_DRIVER_SPI
011F01H   011F03H   000003H   BYTE   UNIT     XDATA          ?XD?SPI_READ_8BIT_REGISTER?ZF_DRIVER_SPI
011F04H   011F06H   000003H   BYTE   UNIT     XDATA          ?XD?UART_WRITE_BYTE?ZF_DRIVER_UART
011F07H   011F09H   000003H   BYTE   UNIT     XDATA          ?XD?UART_RX_INTERRUPT?ZF_DRIVER_UART
L251 LINKER/LOCATER V4.66.93.0                                                        03/30/2026  16:35:38  PAGE 10


011F0AH   011F0CH   000003H   BYTE   UNIT     XDATA          ?XD?UART_READ_BYTE?ZF_DRIVER_UART
011F0DH   011F0FH   000003H   BYTE   UNIT     XDATA          ?XD?BLE6A20_SEND_BYTE?ZF_DEVICE_BLE6A20
011F10H   011F12H   000003H   BYTE   UNIT     XDATA          ?XD?DL1A_GET_VCSEL_PULSE_PERIOD?ZF_DEVICE_DL1A
011F13H   011F15H   000003H   BYTE   UNIT     XDATA          ?XD?DL1A_GET_DISTANCE?ZF_DEVICE_DL1A
011F16H   011F18H   000003H   BYTE   UNIT     XDATA          ?XD?IMU660RA_READ_REGISTER?ZF_DEVICE_IMU660RA
011F19H   011F1BH   000003H   BYTE   UNIT     XDATA          ?XD?WIRELESS_UART_SEND_BYTE?ZF_DEVICE_WIRELESS_UART
011F1CH   011F1EH   000003H   BYTE   UNIT     XDATA          ?XD?RANGE_PROTECT?INDUCTANCE
011F1FH   011F20H   000002H   BYTE   UNIT     XDATA          ?XD?DELAY_CYCLES?ZF_DRIVER_DELAY
011F21H   011F22H   000002H   BYTE   UNIT     XDATA          ?XD?SYSTEM_DELAY_MS?ZF_DRIVER_DELAY
011F23H   011F24H   000002H   BYTE   UNIT     XDATA          ?XD?SYSTEM_DELAY_US?ZF_DRIVER_DELAY
011F25H   011F26H   000002H   BYTE   UNIT     XDATA          ?XD?ENCODER_CLEAR_COUNT?ZF_DRIVER_ENCODER
011F27H   011F28H   000002H   BYTE   UNIT     XDATA          ?XD?EXTI_ENABLE?ZF_DRIVER_EXTI
011F29H   011F2AH   000002H   BYTE   UNIT     XDATA          ?XD?EXTI_DISABLE?ZF_DRIVER_EXTI
011F2BH   011F2CH   000002H   BYTE   UNIT     XDATA          ?XD?GPIO_TOGGLE_LEVEL?ZF_DRIVER_GPIO
011F2DH   011F2EH   000002H   BYTE   UNIT     XDATA          ?XD?SPI_READ_8BIT?ZF_DRIVER_SPI
011F2FH   011F30H   000002H   BYTE   UNIT     XDATA          ?XD?UART_RX_START_BUFF?ZF_DRIVER_UART
011F31H   011F32H   000002H   BYTE   UNIT     XDATA          ?XD?UART_DMA_INIT?ZF_DRIVER_UART
011F33H   011F34H   000002H   BYTE   INSEG    XDATA          ?XD?EEPROM
011F35H   011F36H   000002H   BYTE   UNIT     XDATA          ?XD?DL1A_DECODE_TIMEOUT?ZF_DEVICE_DL1A
011F37H   011F38H   000002H   BYTE   UNIT     XDATA          ?XD?DL1A_ENCODE_TIMEOUT?ZF_DEVICE_DL1A
011F39H   011F3AH   000002H   BYTE   UNIT     XDATA          ?XD?ICM20602_SIMSPI_WR_BYTE?ZF_DEVICE_ICM20602
011F3BH   011F3CH   000002H   BYTE   UNIT     XDATA          ?XD?ICM20602_SIMSPI_W_REG_BYTE?ZF_DEVICE_ICM20602
011F3DH   011F3EH   000002H   BYTE   UNIT     XDATA          ?XD?ICM20602_WRITE_REGISTER?ZF_DEVICE_ICM20602
011F3FH   011F40H   000002H   BYTE   UNIT     XDATA          ?XD?ICM20602_READ_REGISTER?ZF_DEVICE_ICM20602
011F41H   011F42H   000002H   BYTE   UNIT     XDATA          ?XD?IMU660RA_SIMSPI_WR_BYTE?ZF_DEVICE_IMU660RA
011F43H   011F44H   000002H   BYTE   UNIT     XDATA          ?XD?IMU660RA_SIMSPI_W_REG_BYTE?ZF_DEVICE_IMU660RA
011F45H   011F46H   000002H   BYTE   UNIT     XDATA          ?XD?IMU660RA_WRITE_REGISTER?ZF_DEVICE_IMU660RA
011F47H   011F48H   000002H   BYTE   UNIT     XDATA          ?XD?IMU660RB_SIMSPI_WR_BYTE?ZF_DEVICE_IMU660RB
011F49H   011F4AH   000002H   BYTE   UNIT     XDATA          ?XD?IMU660RB_SIMSPI_W_REG_BYTE?ZF_DEVICE_IMU660RB
011F4BH   011F4CH   000002H   BYTE   UNIT     XDATA          ?XD?IMU660RB_WRITE_REGISTER?ZF_DEVICE_IMU660RB
011F4DH   011F4EH   000002H   BYTE   UNIT     XDATA          ?XD?IMU660RB_READ_REGISTER?ZF_DEVICE_IMU660RB
011F4FH   011F50H   000002H   BYTE   UNIT     XDATA          ?XD?IMU963RA_WRITE_ACC_GYRO_REGISTER?ZF_DEVICE_IMU963RA
011F51H   011F52H   000002H   BYTE   UNIT     XDATA          ?XD?IMU963RA_READ_ACC_GYRO_REGISTER?ZF_DEVICE_IMU963RA
011F53H   011F54H   000002H   BYTE   UNIT     XDATA          ?XD?IMU963RA_CONNECT_MAG?ZF_DEVICE_IMU963RA
011F55H   011F56H   000002H   BYTE   UNIT     XDATA          ?XD?IPS114_SET_DIR?ZF_DEVICE_IPS114
011F57H   011F58H   000002H   BYTE   UNIT     XDATA          ?XD?IPS200_SET_DIR?ZF_DEVICE_IPS200
011F59H   011F5AH   000002H   BYTE   UNIT     XDATA          ?XD?TFT180_SET_DIR?ZF_DEVICE_TFT180
011F5BH   011F5CH   000002H   BYTE   UNIT     XDATA          ?XD?IMU_GYRO_OFFSET_INIT?IMU
011F5DH   011F5EH   000002H   BYTE   UNIT     XDATA          ?XD?SEEKFREE_ASSISTANT_INTERFACE_INIT?SEEKFREE_ASSISTANT_I
                                                             -NTERFACE
011F5FH   011F60H   000002H   BYTE   UNIT     XDATA          ?XD?ABS?MOTO
011F61H   011F62H   000002H   BYTE   UNIT     XDATA          ?XD?LED_ON?LED
011F63H   011F64H   000002H   BYTE   UNIT     XDATA          ?XD?LED_OFF?LED
011F65H   011F66H   000002H   BYTE   UNIT     XDATA          ?XD?LED_SWITCH?LED
011F67H   011F67H   000001H   BYTE   UNIT     XDATA          ?XD?DEBUG_INTERRUPR_HANDLER?ZF_COMMON_DEBUG
011F68H   011F68H   000001H   BYTE   UNIT     XDATA          ?XD?PUTCHAR?ZF_COMMON_DEBUG
011F69H   011F69H   000001H   BYTE   UNIT     XDATA          ?XD?DEBUG_INIT?ZF_COMMON_DEBUG
011F6AH   011F6AH   000001H   BYTE   UNIT     XDATA          ?XD?IAP_SET_TPS?ZF_DRIVER_EEPROM
011F6BH   011F6BH   000001H   BYTE   UNIT     XDATA          ?XD?BLE6A20_CALLBACK?ZF_DEVICE_BLE6A20
011F6CH   011F6CH   000001H   BYTE   UNIT     XDATA          ?XD?BLE6A20_INIT?ZF_DEVICE_BLE6A20
011F6DH   011F6DH   000001H   BYTE   UNIT     XDATA          ?XD?DL1B_INIT?ZF_DEVICE_DL1B
011F6EH   011F6EH   000001H   BYTE   UNIT     XDATA          ?XD?IMU660RA_INIT?ZF_DEVICE_IMU660RA
011F6FH   011F6FH   000001H   BYTE   UNIT     XDATA          ?XD?IMU660RB_INIT?ZF_DEVICE_IMU660RB
011F70H   011F70H   000001H   BYTE   UNIT     XDATA          ?XD?IMU963RA_INIT?ZF_DEVICE_IMU963RA
011F71H   011F71H   000001H   BYTE   UNIT     XDATA          ?XD?IPS114_WRITE_INDEX?ZF_DEVICE_IPS114
011F72H   011F72H   000001H   BYTE   UNIT     XDATA          ?XD?IPS200_WRITE_INDEX?ZF_DEVICE_IPS200
011F73H   011F73H   000001H   BYTE   UNIT     XDATA          ?XD?TFT180_WRITE_INDEX?ZF_DEVICE_TFT180
011F74H   011F74H   000001H   BYTE   UNIT     XDATA          ?XD?TSL1401_COLLECT_PIT_HANDLER?ZF_DEVICE_TSL1401
011F75H   011F75H   000001H   BYTE   UNIT     XDATA          ?XD?WIRELESS_UART_CALLBACK?ZF_DEVICE_WIRELESS_UART
011F76H   011F76H   000001H   BYTE   UNIT     XDATA          ?XD?WIRELESS_UART_INIT?ZF_DEVICE_WIRELESS_UART
011F77H   011F77H   000001H   BYTE   INSEG    XDATA          ?XD?ISR
011F78H   FEFFFFH   FDE088H   ---    ---      **GAP**
FF0000H   FF0002H   000003H   ---    OFFS..   CODE           ?CO?START251?4
FF0003H   FF0005H   000003H   ---    OFFS..   CODE           ?PR?IV?0
FF0006H   FF0009H   000004H   BYTE   INSEG    CODE           ?PR?INTERRUPT_GLOBAL_ENABLE?ZF_COMMON_INTERRUPT
L251 LINKER/LOCATER V4.66.93.0                                                        03/30/2026  16:35:38  PAGE 11


FF000AH   FF000AH   000001H   ---    ---      **GAP**
FF000BH   FF000DH   000003H   ---    OFFS..   CODE           ?PR?IV?1
FF000EH   FF0011H   000004H   BYTE   UNIT     CONST          ?CO?PRINTF
FF0012H   FF0012H   000001H   ---    ---      **GAP**
FF0013H   FF0015H   000003H   ---    OFFS..   CODE           ?PR?IV?2
FF0016H   FF0017H   000002H   BYTE   UNIT     HCONST         ?HC?MAIN
FF0018H   FF001AH   000003H   ---    ---      **GAP**
FF001BH   FF001DH   000003H   ---    OFFS..   CODE           ?PR?IV?3
FF001EH   FF0022H   000005H   ---    ---      **GAP**
FF0023H   FF0025H   000003H   ---    OFFS..   CODE           ?PR?IV?4
FF0026H   FF0042H   00001DH   BYTE   INSEG    CODE           ?PR?IMU660RA_SIMSPI_W_REG_BYTE?ZF_DEVICE_IMU660RA
FF0043H   FF0045H   000003H   ---    OFFS..   CODE           ?PR?IV?8
FF0046H   FF0050H   00000BH   BYTE   INSEG    CODE           ?PR?OSCILLOSCOPE_INIT?MENU
FF0051H   FF0052H   000002H   ---    ---      **GAP**
FF0053H   FF0055H   000003H   ---    OFFS..   CODE           ?PR?IV?10
FF0056H   FF005AH   000005H   ---    ---      **GAP**
FF005BH   FF005DH   000003H   ---    OFFS..   CODE           ?PR?IV?11
FF005EH   FF0062H   000005H   ---    ---      **GAP**
FF0063H   FF0065H   000003H   ---    OFFS..   CODE           ?PR?IV?12
FF0066H   FF007DH   000018H   BYTE   INSEG    CODE           ?PR?SPI_WRITE_8BIT?ZF_DRIVER_SPI
FF007EH   FF0082H   000005H   ---    ---      **GAP**
FF0083H   FF0085H   000003H   ---    OFFS..   CODE           ?PR?IV?16
FF0086H   FF008AH   000005H   ---    ---      **GAP**
FF008BH   FF008DH   000003H   ---    OFFS..   CODE           ?PR?IV?17
FF008EH   FF0092H   000005H   ---    ---      **GAP**
FF0093H   FF0095H   000003H   ---    OFFS..   CODE           ?PR?IV?18
FF0096H   FF009AH   000005H   ---    ---      **GAP**
FF009BH   FF009DH   000003H   ---    OFFS..   CODE           ?PR?IV?19
FF009EH   FF00A2H   000005H   ---    ---      **GAP**
FF00A3H   FF00A5H   000003H   ---    OFFS..   CODE           ?PR?IV?20
FF00A6H   FF0199H   0000F4H   BYTE   INSEG    CODE           ?PR?SOFT_IIC_SEND_DATA?ZF_DRIVER_SOFT_IIC
FF019AH   FF019AH   000001H   ---    ---      **GAP**
FF019BH   FF019DH   000003H   ---    OFFS..   CODE           ?CO?stc32g_isr?1
FF019EH   FF01A7H   00000AH   BYTE   INSEG    CODE           ?PR?GYRO_PROC?IMU
FF01A8H   FF01AAH   000003H   ---    ---      **GAP**
FF01ABH   FF01ADH   000003H   ---    OFFS..   CODE           ?CO?stc32g_isr?2
FF01AEH   FF01B7H   00000AH   BYTE   INSEG    CODE           ?PR?PIT_HANDLER?ENCODER
FF01B8H   FF01BAH   000003H   ---    ---      **GAP**
FF01BBH   FF01BDH   000003H   ---    OFFS..   CODE           ?CO?stc32g_isr?3
FF01BEH   FF01CAH   00000DH   ---    ---      **GAP**
FF01CBH   FF01CDH   000003H   ---    OFFS..   CODE           ?CO?stc32g_isr?4
FF01CEH   FF21CDH   002000H   BYTE   UNIT     CODE           ?CO?ZF_DEVICE_CONFIG
FF21CEH   FF3070H   000EA3H   BYTE   UNIT     CODE           ?C?LIB_CODE
FF3071H   FF398FH   00091FH   BYTE   INSEG    CODE           ?PR?ZF_SPRINTF?ZF_COMMON_FUNCTION
FF3990H   FF3FD2H   000643H   BYTE   INSEG    CODE           ?PR?PWM_INIT?ZF_DRIVER_PWM
FF3FD3H   FF45C2H   0005F0H   BYTE   UNIT     CODE           ?CO?ZF_COMMON_FONT
FF45C3H   FF4B73H   0005B1H   BYTE   INSEG    CODE           ?PR?FIFO_READ_BUFFER?ZF_COMMON_FIFO
FF4B74H   FF511BH   0005A8H   BYTE   INSEG    CODE           ?PR?FIFO_WRITE_BUFFER?ZF_COMMON_FIFO
FF511CH   FF569FH   000584H   BYTE   INSEG    CODE           ?PR?GPIO_SET_DIR?ZF_DRIVER_GPIO
FF56A0H   FF5B78H   0004D9H   BYTE   INSEG    CODE           ?PR?SPI_INIT?ZF_DRIVER_SPI
FF5B79H   FF5F50H   0003D8H   BYTE   INSEG    CODE           ?PR?FIRST_COMPLEMENT_INIT?IMU
FF5F51H   FF6263H   000313H   BYTE   INSEG    CODE           ?PR?GPIO_SET_LEVEL_SPEED?ZF_DRIVER_GPIO
FF6264H   FF6554H   0002F1H   BYTE   INSEG    CODE           ?PR?UART_INIT?ZF_DRIVER_UART
FF6555H   FF683CH   0002E8H   BYTE   INSEG    CODE           ?PR?GPIO_SET_MODE?ZF_DRIVER_GPIO
FF683DH   FF6AFEH   0002C2H   BYTE   INSEG    CODE           ?PR?IPS114_INIT?ZF_DEVICE_IPS114
FF6AFFH   FF6DB0H   0002B2H   BYTE   INSEG    CODE           ?PR?SEEKFREE_ASSISTANT_DATA_ANALYSIS?SEEKFREE_ASSISTANT
FF6DB1H   FF7033H   000283H   BYTE   INSEG    CODE           ?PR?PIT_INIT?ZF_DRIVER_PIT
FF7034H   FF7278H   000245H   BYTE   INSEG    CODE           ?PR?IPS114_SET_REGION?ZF_DEVICE_IPS114
FF7279H   FF74A0H   000228H   BYTE   INSEG    CODE           ?PR?KALMANFILTER?IMU
FF74A1H   FF76B5H   000215H   BYTE   INSEG    CODE           ?PR?GPIO_SET_LEVEL?ZF_DRIVER_GPIO
FF76B6H   FF78C6H   000211H   BYTE   INSEG    CODE           ?PR?SET_SYS_CLK?ZF_COMMON_CLOCK
FF78C7H   FF7ABAH   0001F4H   BYTE   INSEG    CODE           ?PR?IMU660RA_INIT?ZF_DEVICE_IMU660RA
FF7ABBH   FF7CA5H   0001EBH   BYTE   INSEG    CODE           ?PR?IPS114_SHOW_FLOAT?ZF_DEVICE_IPS114
FF7CA6H   FF7E7BH   0001D6H   BYTE   INSEG    CODE           ?PR?UART_WRITE_BUFFER?ZF_DRIVER_UART
FF7E7CH   FF804FH   0001D4H   BYTE   INSEG    CODE           ?PR?PWM_SET_DUTY?ZF_DRIVER_PWM
L251 LINKER/LOCATER V4.66.93.0                                                        03/30/2026  16:35:38  PAGE 12


FF8050H   FF8201H   0001B2H   BYTE   INSEG    CODE           ?PR?GPIO_SET_IMPEDANCE?ZF_DRIVER_GPIO
FF8202H   FF83ACH   0001ABH   BYTE   INSEG    CODE           ?PR?IMU_HANDLE_360?IMU
FF83ADH   FF854FH   0001A3H   BYTE   INSEG    CODE           ?PR?UART_DMA_INIT?ZF_DRIVER_UART
FF8550H   FF86F2H   0001A3H   BYTE   INSEG    CODE           ?PR?SEEKFREE_ASSISTANT_OSCILLOSCOPE_SEND?SEEKFREE_ASSISTAN
                                                             -T
FF86F3H   FF8889H   000197H   BYTE   INSEG    CODE           ?PR?NUMBER_CONVERSION_ASCII?ZF_COMMON_FUNCTION
FF888AH   FF8A0DH   000184H   BYTE   INSEG    CODE           ?PR?IMU_GETVALUES?IMU
FF8A0EH   FF8B53H   000146H   BYTE   INSEG    CODE           ?PR?GPIO_GET_LEVEL?ZF_DRIVER_GPIO
FF8B54H   FF8C95H   000142H   BYTE   INSEG    CODE           ?PR?SOFT_IIC_READ_DATA?ZF_DRIVER_SOFT_IIC
FF8C96H   FF8DD5H   000140H   BYTE   INSEG    CODE           ?PR?PARAMETER_DEBUG?MENU
FF8DD6H   FF8EF4H   00011FH   BYTE   INSEG    CODE           ?PR?IMU_GYRO_OFFSET_INIT?IMU
FF8EF5H   FF9010H   00011CH   BYTE   INSEG    CODE           ?PR?IPS114_SHOW_CHAR?ZF_DEVICE_IPS114
FF9011H   FF9129H   000119H   BYTE   INSEG    CODE           ?PR?IPS114_SHOW_UINT16?ZF_DEVICE_IPS114
FF912AH   FF923CH   000113H   BYTE   INSEG    CODE           ?PR?IMU_HANDLE_180?IMU
FF923DH   FF934CH   000110H   BYTE   INSEG    CODE           ?PR?WIRELESS_UART_SEND_BUFFER?ZF_DEVICE_WIRELESS_UART
FF934DH   FF945BH   00010FH   BYTE   INSEG    CODE           ?PR?GPIO_INIT?ZF_DRIVER_GPIO
FF945CH   FF9568H   00010DH   BYTE   INSEG    CODE           ?PR?ENCODER_DIR_INIT?ZF_DRIVER_ENCODER
FF9569H   FF9671H   000109H   BYTE   INSEG    CODE           ?PR?ENCODER_GET_COUNT?ZF_DRIVER_ENCODER
FF9672H   FF976AH   0000F9H   BYTE   INSEG    CODE           ?PR?PRINTF_REVERSE_ORDER?ZF_COMMON_FUNCTION
FF976BH   FF9858H   0000EEH   BYTE   INSEG    CODE           ?PR?KALMANCREATE?IMU
FF9859H   FF9941H   0000E9H   BYTE   INSEG    CODE           ?PR?_M?MAIN
FF9942H   FF9A24H   0000E3H   BYTE   INSEG    CODE           ?PR?FIFO_INIT?ZF_COMMON_FIFO
FF9A25H   FF9B07H   0000E3H   BYTE   INSEG    CODE           ?PR?SOFT_IIC_WAIT_ACK?ZF_DRIVER_SOFT_IIC
FF9B08H   FF9BE2H   0000DBH   BYTE   INSEG    CODE           ?PR?SOFT_IIC_SEND_ACK?ZF_DRIVER_SOFT_IIC
FF9BE3H   FF9CABH   0000C9H   BYTE   INSEG    CODE           ?PR?IMU_YAW_INTEGRAL?IMU
FF9CACH   FF9D6FH   0000C4H   BYTE   INSEG    CODE           ?PR?IPS114_SHOW_STRING?ZF_DEVICE_IPS114
FF9D70H   FF9E31H   0000C2H   BYTE   INSEG    CODE           ?PR?UART_RX_START_BUFF?ZF_DRIVER_UART
FF9E32H   FF9EF0H   0000BFH   BYTE   INSEG    CODE           ?PR?SOFT_IIC_STOP?ZF_DRIVER_SOFT_IIC
FF9EF1H   FF9FA1H   0000B1H   BYTE   INSEG    CODE           ?PR?IMU660RA_READ_REGISTERS?ZF_DEVICE_IMU660RA
FF9FA2H   FFA051H   0000B0H   BYTE   INSEG    CODE           ?PR?DMA_UART1_IRQHANDLER?ISR
FFA052H   FFA0F8H   0000A7H   BYTE   INSEG    CODE           ?PR?DEBUG_INIT?ZF_COMMON_DEBUG
FFA0F9H   FFA19FH   0000A7H   BYTE   INSEG    CODE           ?PR?SOFT_IIC_START?ZF_DRIVER_SOFT_IIC
FFA1A0H   FFA23FH   0000A0H   BYTE   INSEG    CODE           ?PR?FIFO_HEAD_OFFSET?ZF_COMMON_FIFO
FFA240H   FFA2DFH   0000A0H   BYTE   INSEG    CODE           ?PR?FIFO_END_OFFSET?ZF_COMMON_FIFO
FFA2E0H   FFA37EH   00009FH   BYTE   INSEG    CODE           ?PR?UART_QUERY_BYTE?ZF_DRIVER_UART
FFA37FH   FFA41DH   00009FH   BYTE   INSEG    CODE           ?PR?SET_WIRELESS_TYPE?ZF_DEVICE_TYPE
FFA41EH   FFA4ACH   00008FH   BYTE   INSEG    CODE           ?PR?DMA_UART2_IRQHANDLER?ISR
FFA4ADH   FFA53BH   00008FH   BYTE   INSEG    CODE           ?PR?DMA_UART3_IRQHANDLER?ISR
FFA53CH   FFA5CAH   00008FH   BYTE   INSEG    CODE           ?PR?DMA_UART4_IRQHANDLER?ISR
FFA5CBH   FFA655H   00008BH   BYTE   INSEG    CODE           ?PR?MOTOR_SETSPEED?MOTO
FFA656H   FFA6DAH   000085H   BYTE   INSEG    CODE           ?PR?IPS114_CLEAR?ZF_DEVICE_IPS114
FFA6DBH   FFA75EH   000084H   BYTE   INSEG    CODE           ?PR?WIRELESS_UART_READ_BUFFER?ZF_DEVICE_WIRELESS_UART
FFA75FH   FFA7DFH   000081H   BYTE   INSEG    CODE           ?PR?CLOCK_INIT?ZF_COMMON_CLOCK
FFA7E0H   FFA860H   000081H   BYTE   INSEG    CODE           ?PR?TIMER_FUNCITON_CHECK?ZF_DRIVER_TIMER
FFA861H   FFA8E1H   000081H   BYTE   INSEG    CODE           ?PR?UART_FUNCITON_CHECK?ZF_DRIVER_UART
FFA8E2H   FFA962H   000081H   BYTE   INSEG    CODE           ?PR?WIRELESS_UART_INIT?ZF_DEVICE_WIRELESS_UART
FFA963H   FFA9DBH   000079H   BYTE   INSEG    CODE           ?PR?DEBUG_ASSERT_HANDLER?ZF_COMMON_DEBUG
FFA9DCH   FFAA53H   000078H   BYTE   INSEG    CODE           ?PR?SPI_READ_DAT?ZF_DRIVER_SPI
FFAA54H   FFAAC3H   000070H   BYTE   INSEG    CODE           ?PR?IMU660RA_SIMSPI_R_REG_BYTES?ZF_DEVICE_IMU660RA
FFAAC4H   FFAB29H   000066H   BYTE   INSEG    CODE           ?PR?UART_RX_INTERRUPT?ZF_DRIVER_UART
FFAB2AH   FFAB8EH   000065H   BYTE   INSEG    CODE           ?PR?ENCODER_CLEAR_COUNT?ZF_DRIVER_ENCODER
FFAB8FH   FFABF3H   000065H   BYTE   INSEG    CODE           ?PR?IMU660RA_SELF_CHECK?ZF_DEVICE_IMU660RA
FFABF4H   FFAC4FH   00005CH   BYTE   INSEG    CODE           ?PR?SPI_WRITE_DAT?ZF_DRIVER_SPI
FFAC50H   FFACABH   00005CH   BYTE   INSEG    CODE           ?PR?IMU660RA_SIMSPI_W_REG_BYTES?ZF_DEVICE_IMU660RA
FFACACH   FFAD05H   00005AH   BYTE   INSEG    CODE           ?PR?IMU660RA_GET_GYRO?ZF_DEVICE_IMU660RA
FFAD06H   FFAD5FH   00005AH   BYTE   INSEG    CODE           ?PR?IMU660RA_GET_ACC?ZF_DEVICE_IMU660RA
FFAD60H   FFADB9H   00005AH   BYTE   INSEG    CODE           ?PR?SEEKFREE_ASSISTANT_SUM?SEEKFREE_ASSISTANT
FFADBAH   FFAE12H   000059H   BYTE   INSEG    CODE           ?PR?FIFO_USED?ZF_COMMON_FIFO
FFAE13H   FFAE6AH   000058H   BYTE   INSEG    CODE           ?PR?SYSTEM_DELAY_INIT?ZF_DRIVER_DELAY
FFAE6BH   FFAE8BH   000021H   BYTE   UNIT     CODE           ?C_C51STARTUP
FFAE8CH   FFAEBCH   000031H   BYTE   UNIT     CODE           ?C_C51STARTUP?2
FFAEBDH   FFAEBFH   000003H   BYTE   UNIT     CODE           ?C_C51STARTUP?3
FFAEC0H   FFAF12H   000053H   BYTE   INSEG    CODE           ?PR?IMU660RA_SIMSPI_WR_BYTE?ZF_DEVICE_IMU660RA
FFAF13H   FFAF60H   00004EH   BYTE   INSEG    CODE           ?PR?GYRO_INIT?IMU
FFAF61H   FFAFACH   00004CH   BYTE   INSEG    CODE           ?PR?ENCODER_INIT?ENCODER
L251 LINKER/LOCATER V4.66.93.0                                                        03/30/2026  16:35:38  PAGE 13


FFAFADH   FFAFF3H   000047H   BYTE   INSEG    CODE           ?PR?ALL_INIT?ALL_INIT
FFAFF4H   FFB039H   000046H   BYTE   INSEG    CODE           ?PR?OSCILLOSCOPE_DISPLAY?MENU
FFB03AH   FFB079H   000040H   BYTE   INSEG    CODE           ?PR?INT0_IRQHANDLER?ISR
FFB07AH   FFB0B9H   000040H   BYTE   INSEG    CODE           ?PR?INT1_IRQHANDLER?ISR
FFB0BAH   FFB0F9H   000040H   BYTE   INSEG    CODE           ?PR?INT2_IRQHANDLER?ISR
FFB0FAH   FFB139H   000040H   BYTE   INSEG    CODE           ?PR?INT3_IRQHANDLER?ISR
FFB13AH   FFB179H   000040H   BYTE   INSEG    CODE           ?PR?INT4_IRQHANDLER?ISR
FFB17AH   FFB1B9H   000040H   BYTE   INSEG    CODE           ?PR?TM0_IRQHANDLER?ISR
FFB1BAH   FFB1F9H   000040H   BYTE   INSEG    CODE           ?PR?TM1_IRQHANDLER?ISR
FFB1FAH   FFB239H   000040H   BYTE   INSEG    CODE           ?PR?TM2_IRQHANDLER?ISR
FFB23AH   FFB279H   000040H   BYTE   INSEG    CODE           ?PR?TM3_IRQHANDLER?ISR
FFB27AH   FFB2B9H   000040H   BYTE   INSEG    CODE           ?PR?TM4_IRQHANDLER?ISR
FFB2BAH   FFB2F5H   00003CH   BYTE   INSEG    CODE           ?PR?DEBUG_INTERRUPR_HANDLER?ZF_COMMON_DEBUG
FFB2F6H   FFB331H   00003CH   BYTE   INSEG    CODE           ?PR?SOFT_IIC_DELAY?ZF_DRIVER_SOFT_IIC
FFB332H   FFB36CH   00003BH   BYTE   INSEG    CODE           ?PR?SPI_WRITE_16BIT?ZF_DRIVER_SPI
FFB36DH   FFB3A7H   00003BH   BYTE   INSEG    CODE           ?PR?IPS114_SET_DIR?ZF_DEVICE_IPS114
FFB3A8H   FFB3E1H   00003AH   BYTE   INSEG    CODE           ?PR?IMU660RA_WRITE_REGISTERS?ZF_DEVICE_IMU660RA
FFB3E2H   FFB418H   000037H   BYTE   INSEG    CODE           ?PR?IMU_HANDLE_0?IMU
FFB419H   FFB44DH   000035H   BYTE   INSEG    CODE           ?PR?MY_ABS?IMU
FFB44EH   FFB47BH   00002EH   BYTE   INSEG    CODE           ?PR?SEEKFREE_ASSISTANT_INIT?SEEKFREE_ASSISTANT
FFB47CH   FFB4A7H   00002CH   BYTE   INSEG    CODE           ?PR?MAIN?MAIN
FFB4A8H   FFB4CFH   000028H   BYTE   INSEG    CODE           ?PR?IMU660RA_READ_REGISTER?ZF_DEVICE_IMU660RA
FFB4D0H   FFB4F6H   000027H   BYTE   INSEG    CODE           ?PR?ABS?MOTO
FFB4F7H   FFB51CH   000026H   BYTE   INSEG    CODE           ?PR?WIRELESS_UART_CALLBACK?ZF_DEVICE_WIRELESS_UART
FFB51DH   FFB541H   000025H   BYTE   INSEG    CODE           ?PR?SYSTEM_DELAY_MS?ZF_DRIVER_DELAY
FFB542H   FFB566H   000025H   BYTE   INSEG    CODE           ?PR?IPS114_SET_COLOR?ZF_DEVICE_IPS114
FFB567H   FFB58BH   000025H   BYTE   INSEG    CODE           ?PR?MEMCPY?_?MEMCPY
FFB58CH   FFB5AEH   000023H   BYTE   INSEG    CODE           ?PR?LED_INIT?LED
FFB5AFH   FFB5D0H   000022H   BYTE   INSEG    CODE           ?PR?IPS114_WRITE_INDEX?ZF_DEVICE_IPS114
FFB5D1H   FFB5F0H   000020H   BYTE   INSEG    CODE           ?PR?UART_WRITE_BYTE?ZF_DRIVER_UART
FFB5F1H   FFB60EH   00001EH   BYTE   INSEG    CODE           ?PR?DELAY_CYCLES?ZF_DRIVER_DELAY
FFB60FH   FFB62CH   00001EH   BYTE   INSEG    CODE           ?PR?IMU660RA_WRITE_REGISTER?ZF_DEVICE_IMU660RA
FFB62DH   FFB63EH   000012H   BYTE   INSEG    CODE           ?PR?PUTCHAR?ZF_COMMON_DEBUG
FFB63FH   FFB64CH   00000EH   BYTE   INSEG    CODE           ?PR?PARAMETER_DEBUG_INIT?MENU
FFB64DH   FFB65AH   00000EH   BYTE   INSEG    CODE           ?PR?STRLEN?_?STRLEN
FFB65BH   FFBB6CH   000512H   BYTE   UNIT     HCONST         ?C_INITHDATA
FFBB6DH   FFBD6CH   000200H   BYTE   UNIT     HCONST         ?HC?ZF_DRIVER_EEPROM
FFBD6DH   FFBE9BH   00012FH   BYTE   UNIT     HCONST         ?HC?ZF_DEVICE_DL1A
FFBE9CH   FFBF6BH   0000D0H   BYTE   UNIT     HCONST         ?HC?ZF_DEVICE_IMU963RA
FFBF6CH   FFC012H   0000A7H   BYTE   UNIT     HCONST         ?HC?ZF_DEVICE_IMU660RA
FFC013H   FFC0B6H   0000A4H   BYTE   UNIT     HCONST         ?HC?SEEKFREE_ASSISTANT
FFC0B7H   FFC158H   0000A2H   BYTE   UNIT     HCONST         ?HC?ZF_DEVICE_GPS_TAU1201
FFC159H   FFC1E2H   00008AH   BYTE   UNIT     HCONST         ?HC?ZF_DRIVER_PWM
FFC1E3H   FFC26AH   000088H   BYTE   UNIT     HCONST         ?HC?ZF_DEVICE_ICM20602
FFC26BH   FFC2EAH   000080H   BYTE   UNIT     HCONST         ?HC?MENU
FFC2EBH   FFC355H   00006BH   BYTE   UNIT     HCONST         ?HC?ZF_DRIVER_UART
FFC356H   FFC3ACH   000057H   BYTE   UNIT     HCONST         ?HC?ZF_COMMON_FUNCTION
FFC3ADH   FFC3E0H   000034H   BYTE   UNIT     HCONST         ?HC?ZF_DEVICE_WIRELESS_UART
FFC3E1H   FFC413H   000033H   BYTE   UNIT     HCONST         ?HC?ZF_DEVICE_IPS114
FFC414H   FFC446H   000033H   BYTE   UNIT     HCONST         ?HC?ZF_DEVICE_IPS200
FFC447H   FFC479H   000033H   BYTE   UNIT     HCONST         ?HC?ZF_DEVICE_TFT180
FFC47AH   FFC4A8H   00002FH   BYTE   UNIT     HCONST         ?HC?ZF_DRIVER_SOFT_IIC
FFC4A9H   FFC4D7H   00002FH   BYTE   UNIT     HCONST         ?HC?ZF_DRIVER_SOFT_SPI
FFC4D8H   FFC505H   00002EH   BYTE   UNIT     HCONST         ?HC?ZF_DRIVER_ENCODER
FFC506H   FFC533H   00002EH   BYTE   UNIT     HCONST         ?HC?ZF_DEVICE_BLE6A20
FFC534H   FFC55EH   00002BH   BYTE   UNIT     HCONST         ?HC?ZF_COMMON_FIFO
FFC55FH   FFC589H   00002BH   BYTE   UNIT     HCONST         ?HC?ZF_DRIVER_GPIO
FFC58AH   FFC5B3H   00002AH   BYTE   UNIT     HCONST         ?HC?ZF_DRIVER_ADC
FFC5B4H   FFC5DDH   00002AH   BYTE   UNIT     HCONST         ?HC?ZF_DRIVER_SPI
FFC5DEH   FFC602H   000025H   BYTE   UNIT     HCONST         ?HC?ZF_COMMON_DEBUG
FFC603H   FFC61DH   00001BH   BYTE   UNIT     HCONST         ?HC?ZF_DEVICE_IMU660RB

* * * * * * * * *   R E M O V E D     S E G M E N T S   * * * * * * * *
   *DEL*:           00004EH   BYTE   INSEG    CODE           ?PR?DEBUG_READ_BUFFER?ZF_COMMON_DEBUG
   *DEL*:           000067H   BYTE   INSEG    CODE           ?PR?DEBUG_SEND_BUFFER?ZF_COMMON_DEBUG
L251 LINKER/LOCATER V4.66.93.0                                                        03/30/2026  16:35:38  PAGE 14


   *DEL*:           000186H   BYTE   INSEG    CODE           ?PR?FIFO_CLEAR?ZF_COMMON_FIFO
   *DEL*:           0003B0H   BYTE   INSEG    CODE           ?PR?FUNC_DOUBLE_TO_STR?ZF_COMMON_FUNCTION
   *DEL*:           000275H   BYTE   INSEG    CODE           ?PR?FUNC_STR_TO_DOUBLE?ZF_COMMON_FUNCTION
   *DEL*:           0003B0H   BYTE   INSEG    CODE           ?PR?FUNC_FLOAT_TO_STR?ZF_COMMON_FUNCTION
   *DEL*:           000275H   BYTE   INSEG    CODE           ?PR?FUNC_STR_TO_FLOAT?ZF_COMMON_FUNCTION
   *DEL*:           000028H   BYTE   INSEG    CODE           ?PR?FUNC_SOFT_DELAY?ZF_COMMON_FUNCTION
   *DEL*:           00011BH   BYTE   INSEG    CODE           ?PR?FUNC_UINT_TO_STR?ZF_COMMON_FUNCTION
   *DEL*:           0000C0H   BYTE   INSEG    CODE           ?PR?FUNC_STR_TO_UINT?ZF_COMMON_FUNCTION
   *DEL*:           000184H   BYTE   INSEG    CODE           ?PR?FUNC_HEX_TO_STR?ZF_COMMON_FUNCTION
   *DEL*:           0001ECH   BYTE   INSEG    CODE           ?PR?FUNC_STR_TO_HEX?ZF_COMMON_FUNCTION
   *DEL*:           0001B5H   BYTE   INSEG    CODE           ?PR?FUNC_INT_TO_STR?ZF_COMMON_FUNCTION
   *DEL*:           000141H   BYTE   INSEG    CODE           ?PR?FUNC_STR_TO_INT?ZF_COMMON_FUNCTION
   *DEL*:           0000A6H   BYTE   INSEG    CODE           ?PR?FUNC_GET_GREATEST_COMMON_DIVISOR?ZF_COMMON_FUNCTION
   *DEL*:           0006E4H   BYTE   INSEG    CODE           ?PR?VSNPRINTF?ZF_COMMON_FUNCTION
   *DEL*:           000004H   BYTE   INSEG    CODE           ?PR?INTERRUPT_GLOBAL_DISABLE?ZF_COMMON_INTERRUPT
   *DEL*:           0000CDH   BYTE   INSEG    CODE           ?PR?INTERRUPT_SET_PRIORITY?ZF_COMMON_INTERRUPT
   *DEL*:           00015EH   BYTE   INSEG    CODE           ?PR?ADC_MEAN_FILTER_CONVERT?ZF_DRIVER_ADC
   *DEL*:           000065H   BYTE   INSEG    CODE           ?PR?ADC_CONVERT?ZF_DRIVER_ADC
   *DEL*:           0000C5H   BYTE   INSEG    CODE           ?PR?ADC_INIT?ZF_DRIVER_ADC
   *DEL*:           000001H   BYTE   INSEG    CODE           ?PR?ADC_COLLECT?ZF_DRIVER_ADC
   *DEL*:           000025H   BYTE   INSEG    CODE           ?PR?SYSTEM_DELAY_US?ZF_DRIVER_DELAY
   *DEL*:           00002AH   BYTE   INSEG    CODE           ?PR?IAP_SET_TPS?ZF_DRIVER_EEPROM
   *DEL*:           00000DH   BYTE   INSEG    CODE           ?PR?EEPROM_TRIG?ZF_DRIVER_EEPROM
   *DEL*:           00004FH   BYTE   INSEG    CODE           ?PR?IAP_ERASE_PAGE?ZF_DRIVER_EEPROM
   *DEL*:           000004H   BYTE   INSEG    CODE           ?PR?IAP_IDLE?ZF_DRIVER_EEPROM
   *DEL*:           000075H   BYTE   INSEG    CODE           ?PR?IAP_READ_BUFF?ZF_DRIVER_EEPROM
   *DEL*:           000119H   BYTE   INSEG    CODE           ?PR?EXTERN_IAP_WRITE_BUFF?ZF_DRIVER_EEPROM
   *DEL*:           000072H   BYTE   INSEG    CODE           ?PR?IAP_WRITE_BUFF?ZF_DRIVER_EEPROM
   *DEL*:           000052H   BYTE   INSEG    CODE           ?PR?IAP_READ_BYTE?ZF_DRIVER_EEPROM
   *DEL*:           000008H   BYTE   INSEG    CODE           ?PR?IAP_INIT?ZF_DRIVER_EEPROM
   *DEL*:           000052H   BYTE   INSEG    CODE           ?PR?IAP_WRITE_BYTE?ZF_DRIVER_EEPROM
   *DEL*:           000012H   BYTE   INSEG    CODE           ?PR?IAP_GET_CMD_STATE?ZF_DRIVER_EEPROM
   *DEL*:           000045H   BYTE   INSEG    CODE           ?PR?EXTI_ENABLE?ZF_DRIVER_EXTI
   *DEL*:           000013H   BYTE   INSEG    CODE           ?PR?EXTI_ALL_CLOSE?ZF_DRIVER_EXTI
   *DEL*:           00005BH   BYTE   INSEG    CODE           ?PR?EXTI_INIT?ZF_DRIVER_EXTI
   *DEL*:           000045H   BYTE   INSEG    CODE           ?PR?EXTI_DISABLE?ZF_DRIVER_EXTI
   *DEL*:           000023H   BYTE   INSEG    CODE           ?PR?GPIO_TOGGLE_LEVEL?ZF_DRIVER_GPIO
   *DEL*:           0002D5H   BYTE   INSEG    CODE           ?PR?PWM_SET_FREQ?ZF_DRIVER_PWM
   *DEL*:           000091H   BYTE   INSEG    CODE           ?PR?SOFT_IIC_WRITE_8BIT_REGISTER?ZF_DRIVER_SOFT_IIC
   *DEL*:           000186H   BYTE   INSEG    CODE           ?PR?SOFT_IIC_READ_16BIT_REGISTERS?ZF_DRIVER_SOFT_IIC
   *DEL*:           0000D2H   BYTE   INSEG    CODE           ?PR?SOFT_IIC_SCCB_READ_REGISTER?ZF_DRIVER_SOFT_IIC
   *DEL*:           000117H   BYTE   INSEG    CODE           ?PR?SOFT_IIC_READ_16BIT_REGISTER?ZF_DRIVER_SOFT_IIC
   *DEL*:           0001F3H   BYTE   INSEG    CODE           ?PR?SOFT_IIC_TRANSFER_16BIT_ARRAY?ZF_DRIVER_SOFT_IIC
   *DEL*:           00012FH   BYTE   INSEG    CODE           ?PR?SOFT_IIC_WRITE_16BIT_REGISTERS?ZF_DRIVER_SOFT_IIC
   *DEL*:           000091H   BYTE   INSEG    CODE           ?PR?SOFT_IIC_SCCB_WRITE_REGISTER?ZF_DRIVER_SOFT_IIC
   *DEL*:           000085H   BYTE   INSEG    CODE           ?PR?SOFT_IIC_READ_8BIT?ZF_DRIVER_SOFT_IIC
   *DEL*:           0000F7H   BYTE   INSEG    CODE           ?PR?SOFT_IIC_READ_8BIT_ARRAY?ZF_DRIVER_SOFT_IIC
   *DEL*:           0000DDH   BYTE   INSEG    CODE           ?PR?SOFT_IIC_WRITE_16BIT_REGISTER?ZF_DRIVER_SOFT_IIC
   *DEL*:           00007AH   BYTE   INSEG    CODE           ?PR?SOFT_IIC_WRITE_8BIT?ZF_DRIVER_SOFT_IIC
   *DEL*:           0000D3H   BYTE   INSEG    CODE           ?PR?SOFT_IIC_WRITE_8BIT_ARRAY?ZF_DRIVER_SOFT_IIC
   *DEL*:           0000B0H   BYTE   INSEG    CODE           ?PR?SOFT_IIC_READ_16BIT?ZF_DRIVER_SOFT_IIC
   *DEL*:           000129H   BYTE   INSEG    CODE           ?PR?SOFT_IIC_READ_16BIT_ARRAY?ZF_DRIVER_SOFT_IIC
   *DEL*:           0000DFH   BYTE   INSEG    CODE           ?PR?SOFT_IIC_INIT?ZF_DRIVER_SOFT_IIC
   *DEL*:           000137H   BYTE   INSEG    CODE           ?PR?SOFT_IIC_READ_8BIT_REGISTERS?ZF_DRIVER_SOFT_IIC
   *DEL*:           0000A1H   BYTE   INSEG    CODE           ?PR?SOFT_IIC_WRITE_16BIT?ZF_DRIVER_SOFT_IIC
   *DEL*:           0000FDH   BYTE   INSEG    CODE           ?PR?SOFT_IIC_WRITE_16BIT_ARRAY?ZF_DRIVER_SOFT_IIC
   *DEL*:           0000C5H   BYTE   INSEG    CODE           ?PR?SOFT_IIC_READ_8BIT_REGISTER?ZF_DRIVER_SOFT_IIC
   *DEL*:           000197H   BYTE   INSEG    CODE           ?PR?SOFT_IIC_TRANSFER_8BIT_ARRAY?ZF_DRIVER_SOFT_IIC
   *DEL*:           0000E8H   BYTE   INSEG    CODE           ?PR?SOFT_IIC_WRITE_8BIT_REGISTERS?ZF_DRIVER_SOFT_IIC
   *DEL*:           0002EFH   BYTE   INSEG    CODE           ?PR?SOFT_SPI_INIT?ZF_DRIVER_SOFT_SPI
   *DEL*:           000111H   BYTE   INSEG    CODE           ?PR?SOFT_SPI_READ_8BIT_REGISTERS?ZF_DRIVER_SOFT_SPI
   *DEL*:           000099H   BYTE   INSEG    CODE           ?PR?SOFT_SPI_WRITE_16BIT?ZF_DRIVER_SOFT_SPI
   *DEL*:           000216H   BYTE   INSEG    CODE           ?PR?SOFT_SPI_8BIT_DATA_HANDLER?ZF_DRIVER_SOFT_SPI
   *DEL*:           0000EEH   BYTE   INSEG    CODE           ?PR?SOFT_SPI_WRITE_16BIT_ARRAY?ZF_DRIVER_SOFT_SPI
   *DEL*:           0000B0H   BYTE   INSEG    CODE           ?PR?SOFT_SPI_READ_8BIT_REGISTER?ZF_DRIVER_SOFT_SPI
L251 LINKER/LOCATER V4.66.93.0                                                        03/30/2026  16:35:38  PAGE 15


   *DEL*:           000159H   BYTE   INSEG    CODE           ?PR?SOFT_SPI_TRANSFER_8BIT?ZF_DRIVER_SOFT_SPI
   *DEL*:           000103H   BYTE   INSEG    CODE           ?PR?SOFT_SPI_WRITE_8BIT_REGISTERS?ZF_DRIVER_SOFT_SPI
   *DEL*:           0000ACH   BYTE   INSEG    CODE           ?PR?SOFT_SPI_WRITE_8BIT_REGISTER?ZF_DRIVER_SOFT_SPI
   *DEL*:           00010EH   BYTE   INSEG    CODE           ?PR?SOFT_SPI_READ_16BIT_REGISTERS?ZF_DRIVER_SOFT_SPI
   *DEL*:           000250H   BYTE   INSEG    CODE           ?PR?SOFT_SPI_16BIT_DATA_HANDLER?ZF_DRIVER_SOFT_SPI
   *DEL*:           0000BCH   BYTE   INSEG    CODE           ?PR?SOFT_SPI_READ_16BIT_REGISTER?ZF_DRIVER_SOFT_SPI
   *DEL*:           00015BH   BYTE   INSEG    CODE           ?PR?SOFT_SPI_TRANSFER_16BIT?ZF_DRIVER_SOFT_SPI
   *DEL*:           0000FDH   BYTE   INSEG    CODE           ?PR?SOFT_SPI_WRITE_16BIT_REGISTERS?ZF_DRIVER_SOFT_SPI
   *DEL*:           00009BH   BYTE   INSEG    CODE           ?PR?SOFT_SPI_READ_8BIT?ZF_DRIVER_SOFT_SPI
   *DEL*:           0000FCH   BYTE   INSEG    CODE           ?PR?SOFT_SPI_READ_8BIT_ARRAY?ZF_DRIVER_SOFT_SPI
   *DEL*:           0000B2H   BYTE   INSEG    CODE           ?PR?SOFT_SPI_WRITE_16BIT_REGISTER?ZF_DRIVER_SOFT_SPI
   *DEL*:           000095H   BYTE   INSEG    CODE           ?PR?SOFT_SPI_WRITE_8BIT?ZF_DRIVER_SOFT_SPI
   *DEL*:           0000EEH   BYTE   INSEG    CODE           ?PR?SOFT_SPI_WRITE_8BIT_ARRAY?ZF_DRIVER_SOFT_SPI
   *DEL*:           00003CH   BYTE   INSEG    CODE           ?PR?SOFT_SPI_DELAY?ZF_DRIVER_SOFT_SPI
   *DEL*:           0000A0H   BYTE   INSEG    CODE           ?PR?SOFT_SPI_READ_16BIT?ZF_DRIVER_SOFT_SPI
   *DEL*:           0000FFH   BYTE   INSEG    CODE           ?PR?SOFT_SPI_READ_16BIT_ARRAY?ZF_DRIVER_SOFT_SPI
   *DEL*:           00002BH   BYTE   INSEG    CODE           ?PR?SPI_WRITE_8BIT_REGISTER?ZF_DRIVER_SPI
   *DEL*:           0000BCH   BYTE   INSEG    CODE           ?PR?SPI_READ_16BIT_REGISTERS?ZF_DRIVER_SPI
   *DEL*:           000079H   BYTE   INSEG    CODE           ?PR?SPI_READ_16BIT_REGISTER?ZF_DRIVER_SPI
   *DEL*:           00010DH   BYTE   INSEG    CODE           ?PR?SPI_TRANSFER_16BIT?ZF_DRIVER_SPI
   *DEL*:           00008AH   BYTE   INSEG    CODE           ?PR?SPI_WRITE_16BIT_REGISTERS?ZF_DRIVER_SPI
   *DEL*:           000011H   BYTE   INSEG    CODE           ?PR?SPI_READ_8BIT?ZF_DRIVER_SPI
   *DEL*:           00005DH   BYTE   INSEG    CODE           ?PR?SPI_READ_8BIT_ARRAY?ZF_DRIVER_SPI
   *DEL*:           00006FH   BYTE   INSEG    CODE           ?PR?SPI_WRITE_16BIT_REGISTER?ZF_DRIVER_SPI
   *DEL*:           00004FH   BYTE   INSEG    CODE           ?PR?SPI_WRITE_8BIT_ARRAY?ZF_DRIVER_SPI
   *DEL*:           000045H   BYTE   INSEG    CODE           ?PR?SPI_READ_16BIT?ZF_DRIVER_SPI
   *DEL*:           000088H   BYTE   INSEG    CODE           ?PR?SPI_READ_16BIT_ARRAY?ZF_DRIVER_SPI
   *DEL*:           00006EH   BYTE   INSEG    CODE           ?PR?SPI_READ_8BIT_REGISTERS?ZF_DRIVER_SPI
   *DEL*:           000075H   BYTE   INSEG    CODE           ?PR?SPI_WRITE_16BIT_ARRAY?ZF_DRIVER_SPI
   *DEL*:           000022H   BYTE   INSEG    CODE           ?PR?SPI_READ_8BIT_REGISTER?ZF_DRIVER_SPI
   *DEL*:           0000A4H   BYTE   INSEG    CODE           ?PR?SPI_TRANSFER_8BIT?ZF_DRIVER_SPI
   *DEL*:           000060H   BYTE   INSEG    CODE           ?PR?SPI_WRITE_8BIT_REGISTERS?ZF_DRIVER_SPI
   *DEL*:           00003DH   BYTE   INSEG    CODE           ?PR?UART_WRITE_STRING?ZF_DRIVER_UART
   *DEL*:           000072H   BYTE   INSEG    CODE           ?PR?UART_READ_BYTE?ZF_DRIVER_UART
   *DEL*:           000038H   BYTE   INSEG    CODE           ?PR?EEPROM_READ?EEPROM
   *DEL*:           000074H   BYTE   INSEG    CODE           ?PR?EEPROM_READ_VALUE?EEPROM
   *DEL*:           00007DH   BYTE   INSEG    CODE           ?PR?EEPROM_WRITE_VALUE?EEPROM
   *DEL*:           000032H   BYTE   INSEG    CODE           ?PR?EEPROM_INIT?EEPROM
   *DEL*:           000020H   BYTE   INSEG    CODE           ?PR?VOLTAGE_WARNING_INIT?VOLTAGE_WARNING
   *DEL*:           000084H   BYTE   INSEG    CODE           ?PR?BLE6A20_READ_BUFFER?ZF_DEVICE_BLE6A20
   *DEL*:           000110H   BYTE   INSEG    CODE           ?PR?BLE6A20_SEND_BUFFER?ZF_DEVICE_BLE6A20
   *DEL*:           00005DH   BYTE   INSEG    CODE           ?PR?BLE6A20_SEND_STRING?ZF_DEVICE_BLE6A20
   *DEL*:           000026H   BYTE   INSEG    CODE           ?PR?BLE6A20_CALLBACK?ZF_DEVICE_BLE6A20
   *DEL*:           000088H   BYTE   INSEG    CODE           ?PR?BLE6A20_INIT?ZF_DEVICE_BLE6A20
   *DEL*:           00006DH   BYTE   INSEG    CODE           ?PR?BLE6A20_SEND_BYTE?ZF_DEVICE_BLE6A20
   *DEL*:           00006FH   BYTE   INSEG    CODE           ?PR?DL1A_TIMEOUT_MICROSECONDS_TO_MCLKS?ZF_DEVICE_DL1A
   *DEL*:           000069H   BYTE   INSEG    CODE           ?PR?DL1A_TIMEOUT_MCLKS_TO_MICROSECONDS?ZF_DEVICE_DL1A
   *DEL*:           0000A2H   BYTE   INSEG    CODE           ?PR?DL1A_SET_SIGNAL_RATE_LIMIT?ZF_DEVICE_DL1A
   *DEL*:           000030H   BYTE   INSEG    CODE           ?PR?DL1A_DECODE_TIMEOUT?ZF_DEVICE_DL1A
   *DEL*:           000259H   BYTE   INSEG    CODE           ?PR?DL1A_GET_SPAD_INFO?ZF_DEVICE_DL1A
   *DEL*:           000085H   BYTE   INSEG    CODE           ?PR?DL1A_ENCODE_TIMEOUT?ZF_DEVICE_DL1A
   *DEL*:           0000CBH   BYTE   INSEG    CODE           ?PR?DL1A_GET_SEQUENCE_STEP_ENABLES?ZF_DEVICE_DL1A
   *DEL*:           0000D3H   BYTE   INSEG    CODE           ?PR?DL1A_GET_DISTANCE?ZF_DEVICE_DL1A
   *DEL*:           0000D6H   BYTE   INSEG    CODE           ?PR?DL1A_PERFORM_SINGLE_REF_CALIBRATION?ZF_DEVICE_DL1A
   *DEL*:           00021AH   BYTE   INSEG    CODE           ?PR?DL1A_GET_SEQUENCE_STEP_TIMEOUTS?ZF_DEVICE_DL1A
   *DEL*:           000001H   BYTE   INSEG    CODE           ?PR?DL1A_INT_HANDLER?ZF_DEVICE_DL1A
   *DEL*:           000119H   BYTE   INSEG    CODE           ?PR?DL1A_GET_MEASUREMENT_TIMING_BUDGET?ZF_DEVICE_DL1A
   *DEL*:           000210H   BYTE   INSEG    CODE           ?PR?DL1A_SET_MEASUREMENT_TIMING_BUDGET?ZF_DEVICE_DL1A
   *DEL*:           000602H   BYTE   INSEG    CODE           ?PR?DL1A_INIT?ZF_DEVICE_DL1A
   *DEL*:           00009EH   BYTE   INSEG    CODE           ?PR?DL1A_GET_VCSEL_PULSE_PERIOD?ZF_DEVICE_DL1A
   *DEL*:           0001E4H   BYTE   INSEG    CODE           ?PR?DL1B_GET_DISTANCE?ZF_DEVICE_DL1B
   *DEL*:           000001H   BYTE   INSEG    CODE           ?PR?DL1B_INT_HANDLER?ZF_DEVICE_DL1B
   *DEL*:           00000AH   BYTE   INSEG    CODE           ?PR?DL1B_INIT?ZF_DEVICE_DL1B
   *DEL*:           000094H   BYTE   INSEG    CODE           ?PR?GET_DOUBLE_NUMBER?ZF_DEVICE_GPS_TAU1201
   *DEL*:           000094H   BYTE   INSEG    CODE           ?PR?GET_FLOAT_NUMBER?ZF_DEVICE_GPS_TAU1201
L251 LINKER/LOCATER V4.66.93.0                                                        03/30/2026  16:35:38  PAGE 16


   *DEL*:           0001CEH   BYTE   INSEG    CODE           ?PR?UTC_TO_BTC?ZF_DEVICE_GPS_TAU1201
   *DEL*:           000214H   BYTE   INSEG    CODE           ?PR?GET_TWO_POINTS_DISTANCE?ZF_DEVICE_GPS_TAU1201
   *DEL*:           000102H   BYTE   INSEG    CODE           ?PR?GPS_GNGGA_PARSE?ZF_DEVICE_GPS_TAU1201
   *DEL*:           000668H   BYTE   INSEG    CODE           ?PR?GPS_GNRMC_PARSE?ZF_DEVICE_GPS_TAU1201
   *DEL*:           000212H   BYTE   INSEG    CODE           ?PR?GPS_DATA_PARSE?ZF_DEVICE_GPS_TAU1201
   *DEL*:           000088H   BYTE   INSEG    CODE           ?PR?GET_INT_NUMBER?ZF_DEVICE_GPS_TAU1201
   *DEL*:           0002B0H   BYTE   INSEG    CODE           ?PR?GPS_INIT?ZF_DEVICE_GPS_TAU1201
   *DEL*:           0000D3H   BYTE   INSEG    CODE           ?PR?GET_PARAMETER_INDEX?ZF_DEVICE_GPS_TAU1201
   *DEL*:           00033DH   BYTE   INSEG    CODE           ?PR?GET_TWO_POINTS_AZIMUTH?ZF_DEVICE_GPS_TAU1201
   *DEL*:           000191H   BYTE   INSEG    CODE           ?PR?GPS_UART_CALLBACK?ZF_DEVICE_GPS_TAU1201
   *DEL*:           000024H   BYTE   INSEG    CODE           ?PR?ICM20602_READ_REGISTER?ZF_DEVICE_ICM20602
   *DEL*:           00001EH   BYTE   INSEG    CODE           ?PR?ICM20602_WRITE_REGISTER?ZF_DEVICE_ICM20602
   *DEL*:           000050H   BYTE   INSEG    CODE           ?PR?ICM20602_SIMSPI_WR_BYTE?ZF_DEVICE_ICM20602
   *DEL*:           000051H   BYTE   INSEG    CODE           ?PR?ICM20602_SELF_CHECK?ZF_DEVICE_ICM20602
   *DEL*:           000076H   BYTE   INSEG    CODE           ?PR?ICM20602_SIMSPI_R_REG_BYTES?ZF_DEVICE_ICM20602
   *DEL*:           000031H   BYTE   INSEG    CODE           ?PR?ICM20602_SIMSPI_R_REG_BYTE?ZF_DEVICE_ICM20602
   *DEL*:           00001DH   BYTE   INSEG    CODE           ?PR?ICM20602_SIMSPI_W_REG_BYTE?ZF_DEVICE_ICM20602
   *DEL*:           0001F1H   BYTE   INSEG    CODE           ?PR?ICM20602_INIT?ZF_DEVICE_ICM20602
   *DEL*:           00005AH   BYTE   INSEG    CODE           ?PR?ICM20602_GET_ACC?ZF_DEVICE_ICM20602
   *DEL*:           000040H   BYTE   INSEG    CODE           ?PR?ICM20602_READ_REGISTERS?ZF_DEVICE_ICM20602
   *DEL*:           00005AH   BYTE   INSEG    CODE           ?PR?ICM20602_GET_GYRO?ZF_DEVICE_ICM20602
   *DEL*:           00005AH   BYTE   INSEG    CODE           ?PR?IMU660RB_GET_GYRO?ZF_DEVICE_IMU660RB
   *DEL*:           000024H   BYTE   INSEG    CODE           ?PR?IMU660RB_READ_REGISTER?ZF_DEVICE_IMU660RB
   *DEL*:           000114H   BYTE   INSEG    CODE           ?PR?IMU660RB_GYRO_TRANSITION?ZF_DEVICE_IMU660RB
   *DEL*:           00001EH   BYTE   INSEG    CODE           ?PR?IMU660RB_WRITE_REGISTER?ZF_DEVICE_IMU660RB
   *DEL*:           000053H   BYTE   INSEG    CODE           ?PR?IMU660RB_SIMSPI_WR_BYTE?ZF_DEVICE_IMU660RB
   *DEL*:           00004FH   BYTE   INSEG    CODE           ?PR?IMU660RB_SELF_CHECK?ZF_DEVICE_IMU660RB
   *DEL*:           000070H   BYTE   INSEG    CODE           ?PR?IMU660RB_SIMSPI_R_REG_BYTES?ZF_DEVICE_IMU660RB
   *DEL*:           000037H   BYTE   INSEG    CODE           ?PR?IMU660RB_SIMSPI_R_REG_BYTE?ZF_DEVICE_IMU660RB
   *DEL*:           00001DH   BYTE   INSEG    CODE           ?PR?IMU660RB_SIMSPI_W_REG_BYTE?ZF_DEVICE_IMU660RB
   *DEL*:           000071H   BYTE   INSEG    CODE           ?PR?IMU660RB_INIT?ZF_DEVICE_IMU660RB
   *DEL*:           00005AH   BYTE   INSEG    CODE           ?PR?IMU660RB_GET_ACC?ZF_DEVICE_IMU660RB
   *DEL*:           0000BEH   BYTE   INSEG    CODE           ?PR?IMU660RB_ACC_TRANSITION?ZF_DEVICE_IMU660RB
   *DEL*:           000040H   BYTE   INSEG    CODE           ?PR?IMU660RB_READ_REGISTERS?ZF_DEVICE_IMU660RB
   *DEL*:           00005AH   BYTE   INSEG    CODE           ?PR?IMU963RA_GET_GYRO?ZF_DEVICE_IMU963RA
   *DEL*:           000072H   BYTE   INSEG    CODE           ?PR?IMU963RA_READ_MAG_REGISTER?ZF_DEVICE_IMU963RA
   *DEL*:           00003DH   BYTE   INSEG    CODE           ?PR?IMU963RA_CONNECT_MAG?ZF_DEVICE_IMU963RA
   *DEL*:           00004CH   BYTE   INSEG    CODE           ?PR?IMU963RA_READ_ACC_GYRO_REGISTERS?ZF_DEVICE_IMU963RA
   *DEL*:           000089H   BYTE   INSEG    CODE           ?PR?IMU963RA_WRITE_MAG_REGISTER?ZF_DEVICE_IMU963RA
   *DEL*:           000027H   BYTE   INSEG    CODE           ?PR?IMU963RA_READ_ACC_GYRO_REGISTER?ZF_DEVICE_IMU963RA
   *DEL*:           000054H   BYTE   INSEG    CODE           ?PR?IMU963RA_MAG_SELF_CHECK?ZF_DEVICE_IMU963RA
   *DEL*:           000020H   BYTE   INSEG    CODE           ?PR?IMU963RA_WRITE_ACC_GYRO_REGISTER?ZF_DEVICE_IMU963RA
   *DEL*:           000345H   BYTE   INSEG    CODE           ?PR?IMU963RA_INIT?ZF_DEVICE_IMU963RA
   *DEL*:           000068H   BYTE   INSEG    CODE           ?PR?IMU963RA_ACC_GYRO_SELF_CHECK?ZF_DEVICE_IMU963RA
   *DEL*:           00005AH   BYTE   INSEG    CODE           ?PR?IMU963RA_GET_ACC?ZF_DEVICE_IMU963RA
   *DEL*:           000079H   BYTE   INSEG    CODE           ?PR?IMU963RA_GET_MAG?ZF_DEVICE_IMU963RA
   *DEL*:           000083H   BYTE   INSEG    CODE           ?PR?IPS114_DRAW_POINT?ZF_DEVICE_IPS114
   *DEL*:           00015EH   BYTE   INSEG    CODE           ?PR?IPS114_SHOW_INT32?ZF_DEVICE_IPS114
   *DEL*:           00016DH   BYTE   INSEG    CODE           ?PR?IPS114_SHOW_INT16?ZF_DEVICE_IPS114
   *DEL*:           000214H   BYTE   INSEG    CODE           ?PR?IPS114_SHOW_WAVE?ZF_DEVICE_IPS114
   *DEL*:           000200H   BYTE   INSEG    CODE           ?PR?IPS114_SHOW_CHINESE?ZF_DEVICE_IPS114
   *DEL*:           0000E9H   BYTE   INSEG    CODE           ?PR?IPS114_SHOW_UINT8?ZF_DEVICE_IPS114
   *DEL*:           00012EH   BYTE   INSEG    CODE           ?PR?IPS114_SHOW_INT8?ZF_DEVICE_IPS114
   *DEL*:           0001EBH   BYTE   INSEG    CODE           ?PR?IPS200_SHOW_FLOAT?ZF_DEVICE_IPS200
   *DEL*:           000083H   BYTE   INSEG    CODE           ?PR?IPS200_DRAW_POINT?ZF_DEVICE_IPS200
   *DEL*:           0000C4H   BYTE   INSEG    CODE           ?PR?IPS200_SHOW_STRING?ZF_DEVICE_IPS200
   *DEL*:           00011CH   BYTE   INSEG    CODE           ?PR?IPS200_SHOW_CHAR?ZF_DEVICE_IPS200
   *DEL*:           000119H   BYTE   INSEG    CODE           ?PR?IPS200_SHOW_UINT16?ZF_DEVICE_IPS200
   *DEL*:           000025H   BYTE   INSEG    CODE           ?PR?IPS200_SET_COLOR?ZF_DEVICE_IPS200
   *DEL*:           00015EH   BYTE   INSEG    CODE           ?PR?IPS200_SHOW_INT32?ZF_DEVICE_IPS200
   *DEL*:           00016DH   BYTE   INSEG    CODE           ?PR?IPS200_SHOW_INT16?ZF_DEVICE_IPS200
   *DEL*:           000214H   BYTE   INSEG    CODE           ?PR?IPS200_SHOW_WAVE?ZF_DEVICE_IPS200
   *DEL*:           000013H   BYTE   INSEG    CODE           ?PR?IPS200_SET_DIR?ZF_DEVICE_IPS200
   *DEL*:           000200H   BYTE   INSEG    CODE           ?PR?IPS200_SHOW_CHINESE?ZF_DEVICE_IPS200
   *DEL*:           000085H   BYTE   INSEG    CODE           ?PR?IPS200_CLEAR?ZF_DEVICE_IPS200
L251 LINKER/LOCATER V4.66.93.0                                                        03/30/2026  16:35:38  PAGE 17


   *DEL*:           0000E9H   BYTE   INSEG    CODE           ?PR?IPS200_SHOW_UINT8?ZF_DEVICE_IPS200
   *DEL*:           00012EH   BYTE   INSEG    CODE           ?PR?IPS200_SHOW_INT8?ZF_DEVICE_IPS200
   *DEL*:           000022H   BYTE   INSEG    CODE           ?PR?IPS200_WRITE_INDEX?ZF_DEVICE_IPS200
   *DEL*:           0000ECH   BYTE   INSEG    CODE           ?PR?IPS200_SET_REGION?ZF_DEVICE_IPS200
   *DEL*:           0002C2H   BYTE   INSEG    CODE           ?PR?IPS200_INIT?ZF_DEVICE_IPS200
   *DEL*:           000095H   BYTE   INSEG    CODE           ?PR?IPS200PRO_PROGRESS_BAR_CREATE?ZF_DEVICE_IPS200PRO
   *DEL*:           000053H   BYTE   INSEG    CODE           ?PR?IPS200PRO_SET_CRC_STATE?ZF_DEVICE_IPS200PRO
   *DEL*:           000070H   BYTE   INSEG    CODE           ?PR?IPS200PRO_TABLE_SELECT?ZF_DEVICE_IPS200PRO
   *DEL*:           000036H   BYTE   INSEG    CODE           ?PR?IPS200PRO_PAGE_HIDDEN?ZF_DEVICE_IPS200PRO
   *DEL*:           000055H   BYTE   INSEG    CODE           ?PR?IPS200PRO_SET_DIRECTION?ZF_DEVICE_IPS200PRO
   *DEL*:           00009EH   BYTE   INSEG    CODE           ?PR?IPS200PRO_PAGE_CREATE?ZF_DEVICE_IPS200PRO
   *DEL*:           00010CH   BYTE   INSEG    CODE           ?PR?IPS200PRO_WAVEFORM_ADD_VALUE?ZF_DEVICE_IPS200PRO
   *DEL*:           000095H   BYTE   INSEG    CODE           ?PR?IPS200PRO_METER_CREATE?ZF_DEVICE_IPS200PRO
   *DEL*:           0000E3H   BYTE   INSEG    CODE           ?PR?IPS200PRO_LABEL_PRINTF?ZF_DEVICE_IPS200PRO
   *DEL*:           000072H   BYTE   INSEG    CODE           ?PR?IPS200PRO_WAVEFORM_LINE_STATE?ZF_DEVICE_IPS200PRO
   *DEL*:           000114H   BYTE   INSEG    CODE           ?PR?IPS200PRO_TABLE_CELL_PRINTF?ZF_DEVICE_IPS200PRO
   *DEL*:           000286H   BYTE   INSEG    CODE           ?PR?IPS200PRO_WRITE_PACKET?ZF_DEVICE_IPS200PRO
   *DEL*:           00009AH   BYTE   INSEG    CODE           ?PR?IPS200PRO_SEND_BUFFER?ZF_DEVICE_IPS200PRO
   *DEL*:           000060H   BYTE   INSEG    CODE           ?PR?IPS200PRO_LABEL_MODE?ZF_DEVICE_IPS200PRO
   *DEL*:           000060H   BYTE   INSEG    CODE           ?PR?IPS200PRO_PAGE_SWITCH?ZF_DEVICE_IPS200PRO
   *DEL*:           000053H   BYTE   INSEG    CODE           ?PR?IPS200PRO_CALENDAR_CREATE?ZF_DEVICE_IPS200PRO
   *DEL*:           000087H   BYTE   INSEG    CODE           ?PR?IPS200PRO_CALENDAR_DISPLAY?ZF_DEVICE_IPS200PRO
   *DEL*:           00005EH   BYTE   INSEG    CODE           ?PR?IPS200PRO_WAVEFORM_LINE_TYPE?ZF_DEVICE_IPS200PRO
   *DEL*:           000062H   BYTE   INSEG    CODE           ?PR?IPS200PRO_SET_HIDDEN?ZF_DEVICE_IPS200PRO
   *DEL*:           000095H   BYTE   INSEG    CODE           ?PR?IPS200PRO_CONTAINER_CREATE?ZF_DEVICE_IPS200PRO
   *DEL*:           0000E6H   BYTE   INSEG    CODE           ?PR?IPS200PRO_IMAGE_DRAW_LINE?ZF_DEVICE_IPS200PRO
   *DEL*:           000081H   BYTE   INSEG    CODE           ?PR?IPS200PRO_LABEL_SHOW_STRING?ZF_DEVICE_IPS200PRO
   *DEL*:           000053H   BYTE   INSEG    CODE           ?PR?IPS200PRO_SET_OPTIMIZE?ZF_DEVICE_IPS200PRO
   *DEL*:           000076H   BYTE   INSEG    CODE           ?PR?IPS200PRO_SET_POSITION?ZF_DEVICE_IPS200PRO
   *DEL*:           000055H   BYTE   INSEG    CODE           ?PR?IPS200PRO_SET_DEFAULT_FONT?ZF_DEVICE_IPS200PRO
   *DEL*:           000066H   BYTE   INSEG    CODE           ?PR?IPS200PRO_PAGE_SET_TITLE_POSITION_WIDTH?ZF_DEVICE_IPS2
                                                             -00PRO
   *DEL*:           0000C1H   BYTE   INSEG    CODE           ?PR?IPS200PRO_IMAGE_DRAW_RECTANGLE?ZF_DEVICE_IPS200PRO
   *DEL*:           0000EDH   BYTE   INSEG    CODE           ?PR?IPS200PRO_INIT?ZF_DEVICE_IPS200PRO
   *DEL*:           000072H   BYTE   INSEG    CODE           ?PR?IPS200PRO_CONTAINER_RADIUS?ZF_DEVICE_IPS200PRO
   *DEL*:           00006DH   BYTE   INSEG    CODE           ?PR?IPS200PRO_WAIT_IDLE?ZF_DEVICE_IPS200PRO
   *DEL*:           000055H   BYTE   INSEG    CODE           ?PR?IPS200PRO_SET_FORMAT?ZF_DEVICE_IPS200PRO
   *DEL*:           000067H   BYTE   INSEG    CODE           ?PR?IPS200PRO_SET_PARENT?ZF_DEVICE_IPS200PRO
   *DEL*:           000070H   BYTE   INSEG    CODE           ?PR?IPS200PRO_PROGRESS_BAR_SET_VALUE?ZF_DEVICE_IPS200PRO
   *DEL*:           00004AH   BYTE   INSEG    CODE           ?PR?IPS200PRO_GET_DATE?ZF_DEVICE_IPS200PRO
   *DEL*:           000095H   BYTE   INSEG    CODE           ?PR?IPS200PRO_WAVEFORM_CREATE?ZF_DEVICE_IPS200PRO
   *DEL*:           0000B6H   BYTE   INSEG    CODE           ?PR?IPS200PRO_READ_PARAMETER?ZF_DEVICE_IPS200PRO
   *DEL*:           0000A1H   BYTE   INSEG    CODE           ?PR?IPS200PRO_RECEIVE_BUFFER?ZF_DEVICE_IPS200PRO
   *DEL*:           000086H   BYTE   INSEG    CODE           ?PR?IPS200PRO_SET_DATE?ZF_DEVICE_IPS200PRO
   *DEL*:           000060H   BYTE   INSEG    CODE           ?PR?IPS200PRO_METER_SET_VALUE?ZF_DEVICE_IPS200PRO
   *DEL*:           000076H   BYTE   INSEG    CODE           ?PR?IPS200PRO_SET_COLOR?ZF_DEVICE_IPS200PRO
   *DEL*:           00005FH   BYTE   INSEG    CODE           ?PR?IPS200PRO_GET_INFORMATION?ZF_DEVICE_IPS200PRO
   *DEL*:           000052H   BYTE   INSEG    CODE           ?PR?IPS200PRO_DELETE_WIDGETS?ZF_DEVICE_IPS200PRO
   *DEL*:           00004CH   BYTE   INSEG    CODE           ?PR?IPS200PRO_GET_TIME?ZF_DEVICE_IPS200PRO
   *DEL*:           0000B5H   BYTE   INSEG    CODE           ?PR?IPS200PRO_CREATE_WIDGETS?ZF_DEVICE_IPS200PRO
   *DEL*:           00004EH   BYTE   INSEG    CODE           ?PR?IPS200PRO_WAVEFORM_CLEAR?ZF_DEVICE_IPS200PRO
   *DEL*:           00006FH   BYTE   INSEG    CODE           ?PR?IPS200PRO_PAGE_SET_TITLE_NAME?ZF_DEVICE_IPS200PRO
   *DEL*:           000095H   BYTE   INSEG    CODE           ?PR?IPS200PRO_LABEL_CREATE?ZF_DEVICE_IPS200PRO
   *DEL*:           000070H   BYTE   INSEG    CODE           ?PR?IPS200PRO_TABLE_SET_COL_WIDTH?ZF_DEVICE_IPS200PRO
   *DEL*:           000053H   BYTE   INSEG    CODE           ?PR?IPS200PRO_SET_BACKLIGHT?ZF_DEVICE_IPS200PRO
   *DEL*:           000095H   BYTE   INSEG    CODE           ?PR?IPS200PRO_IMAGE_CREATE?ZF_DEVICE_IPS200PRO
   *DEL*:           00004DH   BYTE   INSEG    CODE           ?PR?IPS200PRO_GET_FREE_STACK_SIZE?ZF_DEVICE_IPS200PRO
   *DEL*:           000091H   BYTE   INSEG    CODE           ?PR?IPS200PRO_SET_TIME?ZF_DEVICE_IPS200PRO
   *DEL*:           0001BFH   BYTE   INSEG    CODE           ?PR?IPS200PRO_IMAGE_DISPLAY?ZF_DEVICE_IPS200PRO
   *DEL*:           000095H   BYTE   INSEG    CODE           ?PR?IPS200PRO_TABLE_CREATE?ZF_DEVICE_IPS200PRO
   *DEL*:           000095H   BYTE   INSEG    CODE           ?PR?IPS200PRO_CLOCK_CREATE?ZF_DEVICE_IPS200PRO
   *DEL*:           000064H   BYTE   INSEG    CODE           ?PR?IPS200PRO_SET_FONT?ZF_DEVICE_IPS200PRO
   *DEL*:           000176H   BYTE   INSEG    CODE           ?PR?TFT180_SET_REGION?ZF_DEVICE_TFT180
   *DEL*:           00036EH   BYTE   INSEG    CODE           ?PR?TFT180_INIT?ZF_DEVICE_TFT180
   *DEL*:           0001EBH   BYTE   INSEG    CODE           ?PR?TFT180_SHOW_FLOAT?ZF_DEVICE_TFT180
L251 LINKER/LOCATER V4.66.93.0                                                        03/30/2026  16:35:38  PAGE 18


   *DEL*:           000083H   BYTE   INSEG    CODE           ?PR?TFT180_DRAW_POINT?ZF_DEVICE_TFT180
   *DEL*:           0000C4H   BYTE   INSEG    CODE           ?PR?TFT180_SHOW_STRING?ZF_DEVICE_TFT180
   *DEL*:           00011CH   BYTE   INSEG    CODE           ?PR?TFT180_SHOW_CHAR?ZF_DEVICE_TFT180
   *DEL*:           000119H   BYTE   INSEG    CODE           ?PR?TFT180_SHOW_UINT16?ZF_DEVICE_TFT180
   *DEL*:           000025H   BYTE   INSEG    CODE           ?PR?TFT180_SET_COLOR?ZF_DEVICE_TFT180
   *DEL*:           00015EH   BYTE   INSEG    CODE           ?PR?TFT180_SHOW_INT32?ZF_DEVICE_TFT180
   *DEL*:           00016DH   BYTE   INSEG    CODE           ?PR?TFT180_SHOW_INT16?ZF_DEVICE_TFT180
   *DEL*:           000214H   BYTE   INSEG    CODE           ?PR?TFT180_SHOW_WAVE?ZF_DEVICE_TFT180
   *DEL*:           00003BH   BYTE   INSEG    CODE           ?PR?TFT180_SET_DIR?ZF_DEVICE_TFT180
   *DEL*:           000079H   BYTE   INSEG    CODE           ?PR?TFT180_CLEAR?ZF_DEVICE_TFT180
   *DEL*:           0000E9H   BYTE   INSEG    CODE           ?PR?TFT180_SHOW_UINT8?ZF_DEVICE_TFT180
   *DEL*:           00012EH   BYTE   INSEG    CODE           ?PR?TFT180_SHOW_INT8?ZF_DEVICE_TFT180
   *DEL*:           000022H   BYTE   INSEG    CODE           ?PR?TFT180_WRITE_INDEX?ZF_DEVICE_TFT180
   *DEL*:           0000C0H   BYTE   INSEG    CODE           ?PR?TSL1401_SEND_DATA?ZF_DEVICE_TSL1401
   *DEL*:           00003DH   BYTE   INSEG    CODE           ?PR?TSL1401_INIT?ZF_DEVICE_TSL1401
   *DEL*:           0000BEH   BYTE   INSEG    CODE           ?PR?TSL1401_COLLECT_PIT_HANDLER?ZF_DEVICE_TSL1401
   *DEL*:           00002DH   BYTE   INSEG    CODE           ?PR?SET_TOF_TYPE?ZF_DEVICE_TYPE
   *DEL*:           00009FH   BYTE   INSEG    CODE           ?PR?SET_GPS_TYPE?ZF_DEVICE_TYPE
   *DEL*:           00005DH   BYTE   INSEG    CODE           ?PR?WIRELESS_UART_SEND_STRING?ZF_DEVICE_WIRELESS_UART
   *DEL*:           00006DH   BYTE   INSEG    CODE           ?PR?WIRELESS_UART_SEND_BYTE?ZF_DEVICE_WIRELESS_UART
   *DEL*:           000079H   BYTE   INSEG    CODE           ?PR?MAIN_LOOP?IMU
   *DEL*:           000131H   BYTE   INSEG    CODE           ?PR?FAST_SQRT?IMU
   *DEL*:           0004A1H   BYTE   INSEG    CODE           ?PR?SEEKFREE_ASSISTANT_CAMERA_BOUNDARY_CONFIG?SEEKFREE_ASS
                                                             -ISTANT
   *DEL*:           000142H   BYTE   INSEG    CODE           ?PR?SEEKFREE_ASSISTANT_CAMERA_DOT_SEND?SEEKFREE_ASSISTANT
   *DEL*:           000061H   BYTE   INSEG    CODE           ?PR?SEEKFREE_ASSISTANT_CAMERA_INFORMATION_CONFIG?SEEKFREE_
                                                             -ASSISTANT
   *DEL*:           00015CH   BYTE   INSEG    CODE           ?PR?SEEKFREE_ASSISTANT_CAMERA_DATA_SEND?SEEKFREE_ASSISTANT
   *DEL*:           00004AH   BYTE   INSEG    CODE           ?PR?SEEKFREE_ASSISTANT_CAMERA_SEND?SEEKFREE_ASSISTANT
   *DEL*:           000059H   BYTE   INSEG    CODE           ?PR?SEEKFREE_ASSISTANT_INTERFACE_INIT?SEEKFREE_ASSISTANT_I
                                                             -NTERFACE
   *DEL*:           00006CH   BYTE   INSEG    CODE           ?PR?MOTOR_PROTECT?MOTO
   *DEL*:           000023H   BYTE   INSEG    CODE           ?PR?LED_SWITCH?LED
   *DEL*:           000012H   BYTE   INSEG    CODE           ?PR?LED_OFF?LED
   *DEL*:           000011H   BYTE   INSEG    CODE           ?PR?LED_ON?LED
   *DEL*:           000394H   BYTE   INSEG    CODE           ?PR?PID_CALC?TRANK
   *DEL*:           000108H   BYTE   INSEG    CODE           ?PR?DUAL_LOOP_CONTROL?TRANK
   *DEL*:           000162H   BYTE   INSEG    CODE           ?PR?PID_INIT?TRANK
   *DEL*:           000137H   BYTE   INSEG    CODE           ?PR?MEDIAN_AVERAGE_FILTER?INDUCTANCE
   *DEL*:           00006FH   BYTE   INSEG    CODE           ?PR?ADC_NORMALIZE_0_100?INDUCTANCE
   *DEL*:           00018EH   BYTE   INSEG    CODE           ?PR?INDUCTANCE_READ?INDUCTANCE
   *DEL*:           00003DH   BYTE   INSEG    CODE           ?PR?RANGE_PROTECT?INDUCTANCE
   *DEL*:           000025H   BYTE   INSEG    CODE           ?PR?INDUCTANCE_INIT?INDUCTANCE
   *DEL*:           00013CH   BYTE   INSEG    CODE           ?PR?INDUCTANCE_COUNT_ERR?INDUCTANCE
   *DEL*:           0000A5H   BYTE   INSEG    CODE           ?PR?SEND_DATA_TO_PC?MENU
   *DEL*:           000095H   BYTE   INSEG    CODE           ?PR?MENU_INIT?MENU
   *DEL*:           0000F3H   BYTE   INSEG    CODE           ?PR?MENU_DISPLAY?MENU
   *DEL*:           0000F2H   BYTE   INSEG    CODE           ?PR?POW?_?POW
   *DEL*:           000037H   BYTE   INSEG    CODE           ?PR?STRNCMP?_?STRNCMP
   *DEL*:           000030H   BYTE   INSEG    CODE           ?PR?STRNCPY?_?STRNCPY
   *DEL*:           00001FH   BYTE   INSEG    CODE           ?PR?STRCHR?_?STRCHR
   *DEL*:           00001AH   BYTE   INSEG    CODE           ?PR?MEMSET?_?MEMSET



OVERLAY MAP OF MODULE:   .\out_file\SEEKFREE (?C_START)


FUNCTION/MODULE                               XDATA_GROUP
--> CALLED FUNCTION/MODULE                    START  STOP
=========================================================
?C_C51STARTUP                                 ----- -----

*** NEW ROOT ********************************

L251 LINKER/LOCATER V4.66.93.0                                                        03/30/2026  16:35:38  PAGE 19


?C_C51STARTUP?3                               ----- -----
  +--> main/main

main/main                                     ----- -----
  +--> _m/main
  +--> SPRINTF/SPRINTF

_m/main                                       ----- -----
  +--> clock_init/zf_common_clock
  +--> debug_init/zf_common_debug
  +--> ALL_init/all_init
  +--> Parameter_Debug/menu
  +--> encoder_get_count/zf_driver_encoder
  +--> Oscilloscope_Display/menu
  +--> encoder_clear_count/zf_driver_encoder
  +--> ips114_show_float/zf_device_ips114
  +--> ips114_show_uint16/zf_device_ips114
  +--> Motor_SetSpeed/moto

clock_init/zf_common_clock                    ----- -----
  +--> set_sys_clk/zf_common_clock
  +--> system_delay_init/zf_driver_delay
  +--> interrupt_global_enable/zf_common_interrupt

set_sys_clk/zf_common_clock                   ----- -----

system_delay_init/zf_driver_delay             ----- -----
  +--> ?C?SLDIV/?C?SLDIV

?C?SLDIV/?C?SLDIV                             ----- -----
  +--> ?C?ULIDIV/?C?ULDIV

?C?ULIDIV/?C?ULDIV                            ----- -----

interrupt_global_enable/zf_common_interr+     ----- -----
... upt

debug_init/zf_common_debug                    ----- -----
  +--> uart_init/zf_driver_uart
  +--> fifo_init/zf_common_fifo
  +--> uart_rx_interrupt/zf_driver_uart
  +--> debug_interrupr_handler/zf_common_debug

uart_init/zf_driver_uart                      ----- -----
  +--> uart_funciton_check/zf_driver_uart
  +--> debug_assert_handler/zf_common_debug
  +--> timer_funciton_check/zf_driver_timer
  +--> gpio_init/zf_driver_gpio
  +--> ?C?ULIDIV/?C?ULDIV
  +--> uart_dma_init/zf_driver_uart

uart_funciton_check/zf_driver_uart            ----- -----

debug_assert_handler/zf_common_debug          ----- -----
  +--> PRINTF/PRINTF
  +--> system_delay_ms/zf_driver_delay

PRINTF/PRINTF                                 1194H 11BBH
  +--> OUT/PRINTF

OUT/PRINTF                                    ----- -----
  +--> PUTCH/PRINTF

PUTCH/PRINTF                                  ----- -----
  +--> putchar/zf_common_debug
L251 LINKER/LOCATER V4.66.93.0                                                        03/30/2026  16:35:38  PAGE 20


  +--> OUT/PRINTF

putchar/zf_common_debug                       ----- -----
  +--> uart_write_byte/zf_driver_uart

uart_write_byte/zf_driver_uart                ----- -----
  +--> uart_write_buffer/zf_driver_uart

uart_write_buffer/zf_driver_uart              ----- -----
  +--> memcpy?_/memcpy

memcpy?_/memcpy                               ----- -----

system_delay_ms/zf_driver_delay               ----- -----
  +--> delay_cycles/zf_driver_delay

delay_cycles/zf_driver_delay                  ----- -----

timer_funciton_check/zf_driver_timer          ----- -----

gpio_init/zf_driver_gpio                      ----- -----
  +--> debug_assert_handler/zf_common_debug
  +--> gpio_set_dir/zf_driver_gpio
  +--> gpio_set_mode/zf_driver_gpio
  +--> gpio_set_impedance/zf_driver_gpio
  +--> gpio_set_level/zf_driver_gpio

gpio_set_dir/zf_driver_gpio                   ----- -----
  +--> debug_assert_handler/zf_common_debug

gpio_set_mode/zf_driver_gpio                  ----- -----

gpio_set_impedance/zf_driver_gpio             ----- -----

gpio_set_level/zf_driver_gpio                 ----- -----

uart_dma_init/zf_driver_uart                  ----- -----

fifo_init/zf_common_fifo                      ----- -----
  +--> debug_assert_handler/zf_common_debug

uart_rx_interrupt/zf_driver_uart              ----- -----

debug_interrupr_handler/zf_common_debug       ----- -----
  +--> uart_query_byte/zf_driver_uart
  +--> fifo_write_buffer/zf_common_fifo

uart_query_byte/zf_driver_uart                ----- -----
  +--> uart_rx_start_buff/zf_driver_uart

uart_rx_start_buff/zf_driver_uart             ----- -----

fifo_write_buffer/zf_common_fifo              ----- -----
  +--> debug_assert_handler/zf_common_debug
  +--> memcpy?_/memcpy
  +--> fifo_head_offset/zf_common_fifo

fifo_head_offset/zf_common_fifo               ----- -----

ALL_init/all_init                             ----- -----
  +--> imu660ra_init/zf_device_imu660ra
  +--> gyro_init/imu
  +--> pwm_init/zf_driver_pwm
  +--> ips114_init/zf_device_ips114
  +--> wireless_uart_init/zf_device_wireless_uart
L251 LINKER/LOCATER V4.66.93.0                                                        03/30/2026  16:35:38  PAGE 21


  +--> encoder_init/encoder
  +--> LED_Init/led
  +--> Oscilloscope_Init/menu
  +--> Parameter_Debug_Init/menu

imu660ra_init/zf_device_imu660ra              ----- -----
  +--> system_delay_ms/zf_driver_delay
  +--> imu660ra_read_register/zf_device_imu660ra
  +--> imu660ra_self_check/zf_device_imu660ra
  +--> PRINTF/PRINTF
  +--> imu660ra_write_register/zf_device_imu660ra
  +--> imu660ra_write_registers/zf_device_imu660ra

imu660ra_read_register/zf_device_imu660r+     ----- -----
... a
  +--> imu660ra_simspi_r_reg_bytes/zf_device_imu660ra

imu660ra_simspi_r_reg_bytes/zf_device_im+     ----- -----
... u660ra
  +--> imu660ra_simspi_wr_byte/zf_device_imu660ra

imu660ra_simspi_wr_byte/zf_device_imu660+     ----- -----
... ra

imu660ra_self_check/zf_device_imu660ra        ----- -----
  +--> imu660ra_read_register/zf_device_imu660ra
  +--> PRINTF/PRINTF
  +--> system_delay_ms/zf_driver_delay

imu660ra_write_register/zf_device_imu660+     ----- -----
... ra
  +--> imu660ra_simspi_w_reg_byte/zf_device_imu660ra

imu660ra_simspi_w_reg_byte/zf_device_imu+     ----- -----
... 660ra
  +--> imu660ra_simspi_wr_byte/zf_device_imu660ra

imu660ra_write_registers/zf_device_imu66+     ----- -----
... 0ra
  +--> imu660ra_simspi_w_reg_bytes/zf_device_imu660ra

imu660ra_simspi_w_reg_bytes/zf_device_im+     ----- -----
... u660ra
  +--> imu660ra_simspi_wr_byte/zf_device_imu660ra

gyro_init/imu                                 ----- -----
  +--> IMU_gyro_Offset_Init/imu
  +--> KalmanCreate/imu

IMU_gyro_Offset_Init/imu                      ----- -----
  +--> system_delay_ms/zf_driver_delay

KalmanCreate/imu                              ----- -----

pwm_init/zf_driver_pwm                        ----- -----
  +--> debug_assert_handler/zf_common_debug
  +--> gpio_init/zf_driver_gpio
  +--> ?C?ULIDIV/?C?ULDIV

ips114_init/zf_device_ips114                  ----- -----
  +--> debug_assert_handler/zf_common_debug
  +--> spi_init/zf_driver_spi
  +--> ips114_set_dir/zf_device_ips114
  +--> ips114_set_color/zf_device_ips114
  +--> system_delay_ms/zf_driver_delay
L251 LINKER/LOCATER V4.66.93.0                                                        03/30/2026  16:35:38  PAGE 22


  +--> ips114_write_index/zf_device_ips114
  +--> spi_write_8bit/zf_driver_spi
  +--> ips114_clear/zf_device_ips114

spi_init/zf_driver_spi                        ----- -----
  +--> debug_assert_handler/zf_common_debug
  +--> gpio_init/zf_driver_gpio
  +--> gpio_set_level_speed/zf_driver_gpio
  +--> ?C?ULIDIV/?C?ULDIV
  +--> uart_funciton_check/zf_driver_uart

gpio_set_level_speed/zf_driver_gpio           ----- -----

ips114_set_dir/zf_device_ips114               ----- -----

ips114_set_color/zf_device_ips114             ----- -----

ips114_write_index/zf_device_ips114           ----- -----
  +--> spi_write_8bit/zf_driver_spi

spi_write_8bit/zf_driver_spi                  ----- -----
  +--> spi_write_dat/zf_driver_spi

spi_write_dat/zf_driver_spi                   ----- -----
  +--> debug_assert_handler/zf_common_debug

ips114_clear/zf_device_ips114                 ----- -----
  +--> ips114_set_region/zf_device_ips114
  +--> spi_write_16bit/zf_driver_spi

ips114_set_region/zf_device_ips114            ----- -----
  +--> debug_assert_handler/zf_common_debug
  +--> ips114_write_index/zf_device_ips114
  +--> spi_write_16bit/zf_driver_spi

spi_write_16bit/zf_driver_spi                 ----- -----
  +--> spi_write_dat/zf_driver_spi

wireless_uart_init/zf_device_wireless_ua+     ----- -----
... rt
  +--> wireless_uart_callback/zf_device_wireless_uart
  +--> set_wireless_type/zf_device_type
  +--> fifo_init/zf_common_fifo
  +--> gpio_init/zf_driver_gpio
  +--> uart_init/zf_driver_uart
  +--> uart_rx_interrupt/zf_driver_uart

wireless_uart_callback/zf_device_wireles+     ----- -----
... s_uart
  +--> fifo_write_buffer/zf_common_fifo

set_wireless_type/zf_device_type              ----- -----

encoder_init/encoder                          ----- -----
  +--> pit_handler/encoder
  +--> ?C?SLDIV/?C?SLDIV
  +--> pit_init/zf_driver_pit
  +--> encoder_dir_init/zf_driver_encoder

pit_handler/encoder                           ----- -----
  +--> imu660ra_get_acc/zf_device_imu660ra
  +--> imu660ra_get_gyro/zf_device_imu660ra
  +--> gyro_proc/imu

imu660ra_get_acc/zf_device_imu660ra           ----- -----
L251 LINKER/LOCATER V4.66.93.0                                                        03/30/2026  16:35:38  PAGE 23


  +--> imu660ra_read_registers/zf_device_imu660ra

imu660ra_read_registers/zf_device_imu660+     ----- -----
... ra
  +--> imu660ra_simspi_r_reg_bytes/zf_device_imu660ra

imu660ra_get_gyro/zf_device_imu660ra          ----- -----
  +--> imu660ra_read_registers/zf_device_imu660ra

gyro_proc/imu                                 ----- -----
  +--> IMU_GetValues/imu
  +--> IMU_YAW_integral/imu
  +--> First_complement_Init/imu

IMU_GetValues/imu                             ----- -----
  +--> imu660ra_get_gyro/zf_device_imu660ra
  +--> imu660ra_get_acc/zf_device_imu660ra

IMU_YAW_integral/imu                          ----- -----
  +--> IMU_Handle_180/imu
  +--> IMU_Handle_360/imu
  +--> IMU_Handle_0/imu

IMU_Handle_180/imu                            ----- -----

IMU_Handle_360/imu                            ----- -----

IMU_Handle_0/imu                              ----- -----

First_complement_Init/imu                     ----- -----
  +--> KalmanFilter/imu
  +--> My_abs/imu

KalmanFilter/imu                              ----- -----

My_abs/imu                                    ----- -----

pit_init/zf_driver_pit                        ----- -----
  +--> ?C?ULIDIV/?C?ULDIV

encoder_dir_init/zf_driver_encoder            ----- -----
  +--> timer_funciton_check/zf_driver_timer
  +--> debug_assert_handler/zf_common_debug
  +--> gpio_init/zf_driver_gpio

LED_Init/led                                  ----- -----
  +--> gpio_init/zf_driver_gpio

Oscilloscope_Init/menu                        ----- -----
  +--> wireless_uart_send_buffer/zf_device_wireless_uart

wireless_uart_send_buffer/zf_device_wire+     ----- -----
... less_uart
  +--> debug_assert_handler/zf_common_debug
  +--> gpio_get_level/zf_driver_gpio
  +--> uart_write_buffer/zf_driver_uart
  +--> system_delay_ms/zf_driver_delay

gpio_get_level/zf_driver_gpio                 ----- -----

Parameter_Debug_Init/menu                     ----- -----
  +--> wireless_uart_read_buffer/zf_device_wireless_uart
  +--> seekfree_assistant_init/seekfree_assistant

wireless_uart_read_buffer/zf_device_wire+     ----- -----
L251 LINKER/LOCATER V4.66.93.0                                                        03/30/2026  16:35:38  PAGE 24


... less_uart
  +--> debug_assert_handler/zf_common_debug
  +--> fifo_read_buffer/zf_common_fifo

fifo_read_buffer/zf_common_fifo               ----- -----
  +--> debug_assert_handler/zf_common_debug
  +--> fifo_used/zf_common_fifo
  +--> memcpy?_/memcpy
  +--> fifo_end_offset/zf_common_fifo

fifo_used/zf_common_fifo                      ----- -----
  +--> debug_assert_handler/zf_common_debug

fifo_end_offset/zf_common_fifo                ----- -----

seekfree_assistant_init/seekfree_assista+     ----- -----
... nt
  +--> fifo_init/zf_common_fifo

Parameter_Debug/menu                          ----- -----
  +--> seekfree_assistant_data_analysis/seekfree_assistant
  +--> SPRINTF/SPRINTF
  +--> strlen?_/STRLEN
  +--> wireless_uart_send_buffer/zf_device_wireless_uart

seekfree_assistant_data_analysis/seekfre+     ----- -----
... e_assistant
  +--> fifo_write_buffer/zf_common_fifo
  +--> fifo_read_buffer/zf_common_fifo
  +--> seekfree_assistant_sum/seekfree_assistant
  +--> fifo_used/zf_common_fifo

seekfree_assistant_sum/seekfree_assistan+     ----- -----
... t

SPRINTF/SPRINTF                               1194H 11BBH
  +--> OUT/SPRINTF

OUT/SPRINTF                                   ----- -----
  +--> PUTCH/SPRINTF

PUTCH/SPRINTF                                 ----- -----

strlen?_/STRLEN                               ----- -----

encoder_get_count/zf_driver_encoder           ----- -----
  +--> gpio_get_level/zf_driver_gpio

Oscilloscope_Display/menu                     ----- -----
  +--> seekfree_assistant_oscilloscope_send/seekfree_assistant

seekfree_assistant_oscilloscope_send/see+     ----- -----
... kfree_assistant
  +--> seekfree_assistant_sum/seekfree_assistant

encoder_clear_count/zf_driver_encoder         ----- -----

ips114_show_float/zf_device_ips114            ----- -----
  +--> debug_assert_handler/zf_common_debug
  +--> zf_sprintf/zf_common_function
  +--> ips114_show_string/zf_device_ips114

zf_sprintf/zf_common_function                 ----- -----
  +--> number_conversion_ascii/zf_common_function
  +--> printf_reverse_order/zf_common_function
L251 LINKER/LOCATER V4.66.93.0                                                        03/30/2026  16:35:38  PAGE 25


  +--> memcpy?_/memcpy

number_conversion_ascii/zf_common_functi+     ----- -----
... on
  +--> ?C?SLDIV/?C?SLDIV
  +--> ?C?ULIDIV/?C?ULDIV

printf_reverse_order/zf_common_function       ----- -----

ips114_show_string/zf_device_ips114           ----- -----
  +--> debug_assert_handler/zf_common_debug
  +--> ips114_show_char/zf_device_ips114

ips114_show_char/zf_device_ips114             ----- -----
  +--> debug_assert_handler/zf_common_debug
  +--> ips114_set_region/zf_device_ips114
  +--> spi_write_16bit/zf_driver_spi

ips114_show_uint16/zf_device_ips114           ----- -----
  +--> debug_assert_handler/zf_common_debug
  +--> ips114_show_char/zf_device_ips114

Motor_SetSpeed/moto                           ----- -----
  +--> gpio_set_level/zf_driver_gpio
  +--> ABS/moto
  +--> pwm_set_duty/zf_driver_pwm

ABS/moto                                      ----- -----

pwm_set_duty/zf_driver_pwm                    ----- -----
  +--> debug_assert_handler/zf_common_debug

*** NEW ROOT ********************************

INT0_IRQHandler/isr                           ----- -----

*** NEW ROOT ********************************

INT1_IRQHandler/isr                           ----- -----

*** NEW ROOT ********************************

INT2_IRQHandler/isr                           ----- -----

*** NEW ROOT ********************************

INT3_IRQHandler/isr                           ----- -----

*** NEW ROOT ********************************

INT4_IRQHandler/isr                           ----- -----

*** NEW ROOT ********************************

DMA_UART1_IRQHandler/isr                      ----- -----
  +--> uart_rx_start_buff/zf_driver_uart

*** NEW ROOT ********************************

DMA_UART2_IRQHandler/isr                      ----- -----
  +--> uart_rx_start_buff/zf_driver_uart

*** NEW ROOT ********************************

DMA_UART3_IRQHandler/isr                      ----- -----
L251 LINKER/LOCATER V4.66.93.0                                                        03/30/2026  16:35:38  PAGE 26


  +--> uart_rx_start_buff/zf_driver_uart

*** NEW ROOT ********************************

DMA_UART4_IRQHandler/isr                      ----- -----
  +--> uart_rx_start_buff/zf_driver_uart

*** NEW ROOT ********************************

TM0_IRQHandler/isr                            ----- -----

*** NEW ROOT ********************************

TM1_IRQHandler/isr                            ----- -----

*** NEW ROOT ********************************

TM2_IRQHandler/isr                            ----- -----

*** NEW ROOT ********************************

TM3_IRQHandler/isr                            ----- -----

*** NEW ROOT ********************************

TM4_IRQHandler/isr                            ----- -----

*** NEW ROOT ********************************

?C_C51STARTUP?2                               ----- -----



PUBLIC SYMBOLS OF MODULE:  .\out_file\SEEKFREE (?C_START)


      VALUE       CLASS    TYPE      PUBLIC SYMBOL NAME
      =================================================
      00FF304AH   CODE     ---       ?C?BMOVEPP
      00FF3048H   CODE     ---       ?C?BMOVEPP8
      00FF243EH   CODE     NEAR LAB  ?C?CASTF
      000000FFH   NUMBER   ---       ?C?CODESEG
      00FF240BH   CODE     NEAR LAB  ?C?FCASTC
      00FF2406H   CODE     NEAR LAB  ?C?FCASTI
      00FF2401H   CODE     NEAR LAB  ?C?FCASTL
      00FF2C4BH   CODE     ---       ?C?FP2SERIES
      00FF21D4H   CODE     ---       ?C?FPADD
      00FF23AFH   CODE     ---       ?C?FPCMP
      00FF23ADH   CODE     ---       ?C?FPCMP3
      00FF2E13H   CODE     ---       ?C?FPCONVERT
      00FF232CH   CODE     ---       ?C?FPDIV
      00FF27A1H   CODE     ---       ?C?FPGETOPN2
      00FF228CH   CODE     ---       ?C?FPMUL
      00FF27DEH   CODE     ---       ?C?FPNANRESULT
      00FF23F3H   CODE     ---       ?C?FPNEG
      00FF27E6H   CODE     ---       ?C?FPOVERFLOW
      00FF27BAH   CODE     ---       ?C?FPRESULT
      00FF27D0H   CODE     ---       ?C?FPRESULT2
      00FF2ECBH   CODE     ---       ?C?FPROUND
      00FF2C54H   CODE     ---       ?C?FPSERIES
      00FF21D1H   CODE     ---       ?C?FPSUB
      00FF27E3H   CODE     ---       ?C?FPUNDERFLOW
      00FF2F3EH   CODE     ---       ?C?FTNPWR
      00FFAE8CH   CODE     ---       ?C?INITHDATA
      00FFBB6BH   HCONST   WORD      ?C?INITHDATA_END
L251 LINKER/LOCATER V4.66.93.0                                                        03/30/2026  16:35:38  PAGE 27


      00FF2FB8H   CODE     ---       ?C?LIMUL
      00FF2FA7H   CODE     ---       ?C?LMUL
      00FF283CH   CODE     ---       ?C?PRNFMT
      00FF2F75H   CODE     ---       ?C?SIDIV
      00FF3014H   CODE     NEAR LAB  ?C?SLDIV
      00FF0000H   CODE     ---       ?C?STARTUP
      00FF2FC3H   CODE     NEAR LAB  ?C?ULDIV
      00FF2FC1H   CODE     NEAR LAB  ?C?ULIDIV
      00000001H   NUMBER   ---       ?C?XDATASEG
      00FF0000H   CODE     ---       ?C_STARTUP
      00011AC4H   XDATA    BYTE      ?eeprom_read?BYTE
      0001172DH   XDATA    BYTE      ?fifo_init?BYTE
      000113E8H   XDATA    BYTE      ?fifo_read_buffer?BYTE
      00011571H   XDATA    BYTE      ?fifo_write_buffer?BYTE
      00011319H   XDATA    BYTE      ?get_two_points_azimuth?BYTE
      00010F7AH   XDATA    BYTE      ?get_two_points_distance?BYTE
      00011A88H   XDATA    BYTE      ?iap_read_buff?BYTE
      00011A92H   XDATA    BYTE      ?iap_write_buff?BYTE
      0001139DH   XDATA    BYTE      ?ips114_show_chinese?BYTE
      00010FAAH   XDATA    BYTE      ?ips114_show_float?BYTE
      00011203H   XDATA    BYTE      ?ips114_show_wave?BYTE
      000113B6H   XDATA    BYTE      ?ips200_show_chinese?BYTE
      00010FDAH   XDATA    BYTE      ?ips200_show_float?BYTE
      00011223H   XDATA    BYTE      ?ips200_show_wave?BYTE
      00011335H   XDATA    BYTE      ?ips200pro_create_widgets?BYTE
      0001116CH   XDATA    BYTE      ?ips200pro_image_display?BYTE
      0001136AH   XDATA    BYTE      ?ips200pro_image_draw_line?BYTE
      000111E1H   XDATA    BYTE      ?ips200pro_image_draw_rectangle?BYTE
      00010F2BH   XDATA    BYTE      ?ips200pro_label_printf?BYTE
      00011866H   XDATA    BYTE      ?ips200pro_receive_buffer?BYTE
      000117B9H   XDATA    BYTE      ?ips200pro_send_buffer?BYTE
      00010E62H   XDATA    BYTE      ?ips200pro_table_cell_printf?BYTE
      00011350H   XDATA    BYTE      ?ips200pro_waveform_add_value?BYTE
      00011282H   XDATA    BYTE      ?ips200pro_write_packet?BYTE
      00011A0EH   XDATA    BYTE      ?KalmanCreate?BYTE
      00011663H   XDATA    BYTE      ?Parameter_Debug?BYTE
      00011A1AH   XDATA    BYTE      ?PID_Calc?BYTE
      00011430H   XDATA    BYTE      ?PID_Init?BYTE
      000111BCH   XDATA    ---       ?printf?BYTE
      00011583H   XDATA    BYTE      ?pwm_init?BYTE
      0001149AH   XDATA    BYTE      ?pwm_set_freq?BYTE
      000112A1H   XDATA    BYTE      ?seekfree_assistant_camera_boundary_config?BYTE
      0001171EH   XDATA    BYTE      ?seekfree_assistant_camera_data_send?BYTE
      00011AF6H   XDATA    BYTE      ?seekfree_assistant_camera_information_config?BYTE
      00011818H   XDATA    BYTE      ?soft_iic_init?BYTE
      000118BEH   XDATA    BYTE      ?soft_iic_read_16bit_array?BYTE
      00011765H   XDATA    BYTE      ?soft_iic_read_16bit_registers?BYTE
      000118B2H   XDATA    BYTE      ?soft_iic_read_8bit_array?BYTE
      0001180BH   XDATA    BYTE      ?soft_iic_read_8bit_registers?BYTE
      000114C2H   XDATA    BYTE      ?soft_iic_transfer_16bit_array?BYTE
      000114AEH   XDATA    BYTE      ?soft_iic_transfer_8bit_array?BYTE
      000118A6H   XDATA    BYTE      ?soft_iic_write_16bit_array?BYTE
      00011757H   XDATA    BYTE      ?soft_iic_write_16bit_registers?BYTE
      0001189AH   XDATA    BYTE      ?soft_iic_write_8bit_array?BYTE
      000117FEH   XDATA    BYTE      ?soft_iic_write_8bit_registers?BYTE
      00011448H   XDATA    BYTE      ?soft_spi_init?BYTE
      000118EEH   XDATA    BYTE      ?soft_spi_read_16bit_array?BYTE
      00011781H   XDATA    BYTE      ?soft_spi_read_16bit_registers?BYTE
      000118E2H   XDATA    BYTE      ?soft_spi_read_8bit_array?BYTE
      00011832H   XDATA    BYTE      ?soft_spi_read_8bit_registers?BYTE
      00011684H   XDATA    BYTE      ?soft_spi_transfer_16bit?BYTE
      00011674H   XDATA    BYTE      ?soft_spi_transfer_8bit?BYTE
      000118D6H   XDATA    BYTE      ?soft_spi_write_16bit_array?BYTE
      00011773H   XDATA    BYTE      ?soft_spi_write_16bit_registers?BYTE
      000118CAH   XDATA    BYTE      ?soft_spi_write_8bit_array?BYTE
L251 LINKER/LOCATER V4.66.93.0                                                        03/30/2026  16:35:38  PAGE 28


      00011825H   XDATA    BYTE      ?soft_spi_write_8bit_registers?BYTE
      000114D6H   XDATA    BYTE      ?spi_init?BYTE
      00011ABAH   XDATA    BYTE      ?spi_read_16bit_array?BYTE
      00011906H   XDATA    BYTE      ?spi_read_16bit_registers?BYTE
      00011AB0H   XDATA    BYTE      ?spi_read_8bit_array?BYTE
      00011A52H   XDATA    BYTE      ?spi_read_8bit_registers?BYTE
      0001179DH   XDATA    BYTE      ?spi_transfer_16bit?BYTE
      0001178FH   XDATA    BYTE      ?spi_transfer_8bit?BYTE
      00011AA6H   XDATA    BYTE      ?spi_write_16bit_array?BYTE
      000118FAH   XDATA    BYTE      ?spi_write_16bit_registers?BYTE
      00011A9CH   XDATA    BYTE      ?spi_write_8bit_array?BYTE
      00011A47H   XDATA    BYTE      ?spi_write_8bit_registers?BYTE
      000111BCH   XDATA    ---       ?sprintf?BYTE
      0001100AH   XDATA    BYTE      ?tft180_show_float?BYTE
      00011243H   XDATA    BYTE      ?tft180_show_wave?BYTE
      0001192AH   XDATA    BYTE      ?uart_init?BYTE
      00010D50H   XDATA    BYTE      ?vsnprintf?BYTE
      00010C12H   XDATA    BYTE      ?zf_sprintf?BYTE
      00FF27F2H   CODE     ---       _chkfloat_?_
      00FF9859H   CODE     ---       _m
      00FFB4D0H   CODE     ---       ABS
*SFR* 000000D0H.6 DATA     BIT       AC
*SFR* 000000E0H   DATA     BYTE      ACC
      00011A27H   XDATA    ---       adc_average
*DEL*:00000000H   CODE     ---       ADC_Collect
*SFR* 000000BCH   DATA     BYTE      ADC_CONTR
*DEL*:00000000H   CODE     ---       adc_convert
*DEL*:00000000H   CODE     ---       adc_init
*DEL*:00000000H   CODE     ---       adc_mean_filter_convert
*DEL*:00000000H   CODE     ---       ADC_Normalize_0_100
*SFR* 000000BDH   DATA     BYTE      ADC_RES
*SFR* 000000BEH   DATA     BYTE      ADC_RESL
*SFR* 000000DEH   DATA     BYTE      ADCCFG
      00FFAFADH   CODE     ---       ALL_init
      00FF3FD3H   CODE     ---       ascii_font_8x16
      00FF2781H   CODE     ---       asin?_
      00FF26AFH   CODE     ---       atan?_
*SFR* 000000EFH   DATA     BYTE      AUXINTIF
*SFR* 0000008EH   DATA     BYTE      AUXR
*SFR* 00000097H   DATA     BYTE      AUXR2
*SFR* 000000F0H   DATA     BYTE      B
*DEL*:00000000H   CODE     ---       ble6a20_callback
*DEL*:00000000H   CODE     ---       ble6a20_init
*DEL*:00000000H   CODE     ---       ble6a20_read_buffer
*DEL*:00000000H   CODE     ---       ble6a20_send_buffer
*DEL*:00000000H   CODE     ---       ble6a20_send_byte
*DEL*:00000000H   CODE     ---       ble6a20_send_string
*SFR* 000000C8H.1 DATA     BIT       C_T2
*SFR* 000000F1H   DATA     BYTE      CANICR
*SFR* 000000FAH   DATA     BYTE      CCAP0H
*SFR* 000000EAH   DATA     BYTE      CCAP0L
*SFR* 000000FBH   DATA     BYTE      CCAP1H
*SFR* 000000EBH   DATA     BYTE      CCAP1L
*SFR* 000000FCH   DATA     BYTE      CCAP2H
*SFR* 000000ECH   DATA     BYTE      CCAP2L
*SFR* 000000FDH   DATA     BYTE      CCAP3H
*SFR* 000000EDH   DATA     BYTE      CCAP3L
*SFR* 000000FEH   DATA     BYTE      CCAP4H
*SFR* 000000EEH   DATA     BYTE      CCAP4L
*SFR* 000000DAH   DATA     BYTE      CCAPM0
*SFR* 000000DBH   DATA     BYTE      CCAPM1
*SFR* 000000DCH   DATA     BYTE      CCAPM2
*SFR* 000000DDH   DATA     BYTE      CCAPM3
*SFR* 000000DEH   DATA     BYTE      CCAPM4
*SFR* 000000D8H.0 DATA     BIT       CCF0
L251 LINKER/LOCATER V4.66.93.0                                                        03/30/2026  16:35:38  PAGE 29


*SFR* 000000D8H.1 DATA     BIT       CCF1
*SFR* 000000D8H.2 DATA     BIT       CCF2
*SFR* 000000D8H.3 DATA     BIT       CCF3
*SFR* 000000D8H.4 DATA     BIT       CCF4
*SFR* 000000D8H   DATA     BYTE      CCON
*SFR* 00000090H.3 DATA     BIT       CEX0
*SFR* 00000090H.4 DATA     BIT       CEX1
*SFR* 00000090H.5 DATA     BIT       CEX2
*SFR* 00000090H.6 DATA     BIT       CEX3
*SFR* 00000090H.7 DATA     BIT       CEX4
*SFR* 000000D8H.7 DATA     BIT       CF
*SFR* 000000F9H   DATA     BYTE      CH
*SFR* 000000EAH   DATA     BYTE      CKCON
*SFR* 000000E9H   DATA     BYTE      CL
      00FFA75FH   CODE     ---       clock_init
*SFR* 000000D9H   DATA     BYTE      CMOD
*SFR* 000000E6H   DATA     BYTE      CMPCR1
*SFR* 000000E7H   DATA     BYTE      CMPCR2
      00FF259FH   CODE     ---       cos?_
*SFR* 000000C8H.0 DATA     BIT       CP_RL2
*SFR* 000000D8H.6 DATA     BIT       CR
*SFR* 000000D0H.7 DATA     BIT       CY
      00010A22H   XDATA    ---       data_buffer
      000107F6H   XDATA    FLOAT     Daty_X
      000107FAH   XDATA    FLOAT     Daty_Y
      000107FEH   XDATA    FLOAT     Daty_Z
      00FFA963H   CODE     ---       debug_assert_handler
      00FFA052H   CODE     ---       debug_init
      00FFB2BAH   CODE     ---       debug_interrupr_handler
*DEL*:00000000H   CODE     ---       debug_read_buffer
*DEL*:00000000H   CODE     ---       debug_send_buffer
      00010C49H   XDATA    ---       debug_uart_buffer
      00010C8AH   XDATA    ---       debug_uart_fifo
      00011848H   XDATA    WORD      dl1a_distance_mm
      0001184AH   XDATA    BYTE      dl1a_finsh_flag
*DEL*:00000000H   CODE     ---       dl1a_get_distance
*DEL*:00000000H   CODE     ---       dl1a_init
*DEL*:00000000H   CODE     ---       dl1a_int_handler
      00011855H   XDATA    WORD      dl1b_distance_mm
      00011857H   XDATA    BYTE      dl1b_finsh_flag
*DEL*:00000000H   CODE     ---       dl1b_get_distance
*DEL*:00000000H   CODE     ---       dl1b_init
*DEL*:00000000H   CODE     ---       dl1b_int_handler
      00FF9FA2H   CODE     ---       DMA_UART1_IRQHandler
      00FFA41EH   CODE     ---       DMA_UART2_IRQHandler
      00FFA4ADH   CODE     ---       DMA_UART3_IRQHandler
      00FFA53CH   CODE     ---       DMA_UART4_IRQHandler
*SFR* 00000083H   DATA     BYTE      DPH
*SFR* 00000082H   DATA     BYTE      DPL
*SFR* 00000084H   DATA     BYTE      DPXL
*DEL*:00000000H   CODE     ---       Dual_Loop_Control
*SFR* 000000A8H.7 DATA     BIT       EA
*SFR* 000000BAH.7 DATA     BIT       EAXFR
*SFR* 000000A8H.6 DATA     BIT       EC
*SFR* 00000090H.2 DATA     BIT       ECI
*DEL*:00000000H   CODE     ---       eeprom_init
*DEL*:00000000H   CODE     ---       eeprom_read
*DEL*:00000000H   CODE     ---       eeprom_read_value
*DEL*:00000000H   CODE     ---       eeprom_trig
*DEL*:00000000H   CODE     ---       eeprom_write_value
      00FFAB2AH   CODE     ---       encoder_clear_count
      00FF945CH   CODE     ---       encoder_dir_init
      00FF9569H   CODE     ---       encoder_get_count
      00FFAF61H   CODE     ---       encoder_init
*SFR* 000000A8H.4 DATA     BIT       ES
L251 LINKER/LOCATER V4.66.93.0                                                        03/30/2026  16:35:38  PAGE 30


*SFR* 000000A8H.1 DATA     BIT       ET0
*SFR* 000000A8H.3 DATA     BIT       ET1
*SFR* 000000A8H.5 DATA     BIT       ET2
*SFR* 000000A8H.0 DATA     BIT       EX0
*SFR* 000000A8H.2 DATA     BIT       EX1
*SFR* 0000008FH.4 DATA     BIT       EX2
*SFR* 0000008FH.5 DATA     BIT       EX3
*SFR* 0000008FH.6 DATA     BIT       EX4
*SFR* 000000C8H.3 DATA     BIT       EXEN2
*SFR* 000000C8H.6 DATA     BIT       EXF2
      00FF2CB1H   CODE     ---       exp?_
*DEL*:00000000H   CODE     ---       extern_iap_write_buff
*DEL*:00000000H   CODE     ---       exti_all_close
*DEL*:00000000H   CODE     ---       exti_disable
*DEL*:00000000H   CODE     ---       exti_enable
*DEL*:00000000H   CODE     ---       exti_init
*SFR* 000000D0H.5 DATA     BIT       F0
*DEL*:00000000H   CODE     ---       fast_sqrt
*SFR* 00000098H.7 DATA     BIT       FE
*DEL*:00000000H   CODE     ---       fifo_clear
      00FF9942H   CODE     ---       fifo_init
      00FF45C3H   CODE     ---       fifo_read_buffer
      00FFADBAH   CODE     ---       fifo_used
      00FF4B74H   CODE     ---       fifo_write_buffer
      000107CAH   XDATA    ---       first_complement
      00FF5B79H   CODE     ---       First_complement_Init
*DEL*:00000000H   CODE     ---       func_double_to_str
*DEL*:00000000H   CODE     ---       func_float_to_str
*DEL*:00000000H   CODE     ---       func_get_greatest_common_divisor
*DEL*:00000000H   CODE     ---       func_hex_to_str
*DEL*:00000000H   CODE     ---       func_int_to_str
*DEL*:00000000H   CODE     ---       func_soft_delay
*DEL*:00000000H   CODE     ---       func_str_to_double
*DEL*:00000000H   CODE     ---       func_str_to_float
*DEL*:00000000H   CODE     ---       func_str_to_hex
*DEL*:00000000H   CODE     ---       func_str_to_int
*DEL*:00000000H   CODE     ---       func_str_to_uint
*DEL*:00000000H   CODE     ---       func_uint_to_str
*DEL*:00000000H   CODE     ---       get_two_points_azimuth
*DEL*:00000000H   CODE     ---       get_two_points_distance
      00FF8A0EH   CODE     ---       gpio_get_level
      00FF934DH   CODE     ---       gpio_init
      00FF8050H   CODE     ---       gpio_set_impedance
      00FF74A1H   CODE     ---       gpio_set_level
      00FF5F51H   CODE     ---       gpio_set_level_speed
*DEL*:00000000H   CODE     ---       gpio_toggle_level
*DEL*:00000000H   CODE     ---       gps_data_parse
      000105D0H   XDATA    INT       gps_gga_state
*DEL*:00000000H   CODE     ---       gps_init
      000105D2H   XDATA    INT       gps_rmc_state
      000104A4H   XDATA    ---       gps_tau1201
      00010423H   XDATA    BYTE      gps_tau1201_flag
      00011CCAH   XDATA    INT       gps_type
*DEL*:00000000H   CODE     ---       gps_uart_callback
      000109A2H   XDATA    ---       gyro_buffer
      00FFAF13H   CODE     ---       gyro_init
      00010812H   XDATA    ---       Gyro_Offset
      0001077AH   XDATA    FLOAT     gyro_Offset_flag
      00FF019EH   CODE     ---       gyro_proc
      000107BEH   XDATA    FLOAT     gyrox
      000107C2H   XDATA    FLOAT     gyroy
      000107C6H   XDATA    FLOAT     gyroz
*SFR* 000000F6H   DATA     BYTE      IAP_ADDRE
*SFR* 000000C3H   DATA     BYTE      IAP_ADDRH
*SFR* 000000C4H   DATA     BYTE      IAP_ADDRL
L251 LINKER/LOCATER V4.66.93.0                                                        03/30/2026  16:35:38  PAGE 31


*SFR* 000000C5H   DATA     BYTE      IAP_CMD
*SFR* 000000C7H   DATA     BYTE      IAP_CONTR
*SFR* 000000C2H   DATA     BYTE      IAP_DATA
*DEL*:00000000H   CODE     ---       iap_erase_page
*DEL*:00000000H   CODE     ---       iap_get_cmd_state
*DEL*:00000000H   CODE     ---       iap_idle
*DEL*:00000000H   CODE     ---       iap_init
*DEL*:00000000H   CODE     ---       iap_read_buff
*DEL*:00000000H   CODE     ---       iap_read_byte
*DEL*:00000000H   CODE     ---       iap_set_tps
*SFR* 000000F5H   DATA     BYTE      IAP_TPS
*SFR* 000000C6H   DATA     BYTE      IAP_TRIG
*DEL*:00000000H   CODE     ---       iap_write_buff
*DEL*:00000000H   CODE     ---       iap_write_byte
      000114EAH   XDATA    INT       icm20602_acc_x
      000114ECH   XDATA    INT       icm20602_acc_y
      000114EEH   XDATA    INT       icm20602_acc_z
*DEL*:00000000H   CODE     ---       icm20602_get_acc
*DEL*:00000000H   CODE     ---       icm20602_get_gyro
      000114F0H   XDATA    INT       icm20602_gyro_x
      000114F2H   XDATA    INT       icm20602_gyro_y
      000114F4H   XDATA    INT       icm20602_gyro_z
*DEL*:00000000H   CODE     ---       icm20602_init
      000114F6H   XDATA    ---       icm20602_transition_factor
*SFR* 000000A8H   DATA     BYTE      IE
*SFR* 000000A8H   DATA     BYTE      IE0
*SFR* 00000088H.1 DATA     BIT       IE0_
*SFR* 000000B1H   DATA     BYTE      IE1
*SFR* 00000088H.3 DATA     BIT       IE1_
*SFR* 000000AFH   DATA     BYTE      IE2
      000114FEH   XDATA    INT       imu660ra_acc_x
      00011500H   XDATA    INT       imu660ra_acc_y
      00011502H   XDATA    INT       imu660ra_acc_z
      00FF01CEH   CODE     ---       imu660ra_config_file
      00FFAD06H   CODE     ---       imu660ra_get_acc
      00FFACACH   CODE     ---       imu660ra_get_gyro
      00011504H   XDATA    INT       imu660ra_gyro_x
      00011506H   XDATA    INT       imu660ra_gyro_y
      00011508H   XDATA    INT       imu660ra_gyro_z
      00FF78C7H   CODE     ---       imu660ra_init
      0001150AH   XDATA    ---       imu660ra_transition_factor
*DEL*:00000000H   CODE     ---       imu660rb_acc_transition
      0001197EH   XDATA    INT       imu660rb_acc_x
      00011980H   XDATA    INT       imu660rb_acc_y
      00011982H   XDATA    INT       imu660rb_acc_z
*DEL*:00000000H   CODE     ---       imu660rb_get_acc
*DEL*:00000000H   CODE     ---       imu660rb_get_gyro
*DEL*:00000000H   CODE     ---       imu660rb_gyro_transition
      00011984H   XDATA    INT       imu660rb_gyro_x
      00011986H   XDATA    INT       imu660rb_gyro_y
      00011988H   XDATA    INT       imu660rb_gyro_z
*DEL*:00000000H   CODE     ---       imu660rb_init
      000112DEH   XDATA    INT       imu963ra_acc_x
      000112E0H   XDATA    INT       imu963ra_acc_y
      000112E2H   XDATA    INT       imu963ra_acc_z
*DEL*:00000000H   CODE     ---       imu963ra_get_acc
*DEL*:00000000H   CODE     ---       imu963ra_get_gyro
*DEL*:00000000H   CODE     ---       imu963ra_get_mag
      000112EAH   XDATA    INT       imu963ra_gyro_x
      000112ECH   XDATA    INT       imu963ra_gyro_y
      000112EEH   XDATA    INT       imu963ra_gyro_z
*DEL*:00000000H   CODE     ---       imu963ra_init
      000112E4H   XDATA    INT       imu963ra_mag_x
      000112E6H   XDATA    INT       imu963ra_mag_y
      000112E8H   XDATA    INT       imu963ra_mag_z
L251 LINKER/LOCATER V4.66.93.0                                                        03/30/2026  16:35:38  PAGE 32


      000112F0H   XDATA    ---       imu963ra_transition_factor
      000107DEH   XDATA    ---       IMU_Data
      00FF888AH   CODE     ---       IMU_GetValues
      00FF8DD6H   CODE     ---       IMU_gyro_Offset_Init
      00FFB3E2H   CODE     ---       IMU_Handle_0
      00FF912AH   CODE     ---       IMU_Handle_180
      00FF8202H   CODE     ---       IMU_Handle_360
      00FF9BE3H   CODE     ---       IMU_YAW_integral
*DEL*:00000000H   CODE     ---       Inductance_Count_Err
*DEL*:00000000H   CODE     ---       Inductance_Init
*DEL*:00000000H   CODE     ---       Inductance_Read
      00011F33H   XDATA    ---       init_buff
*SFR* 000000B0H.2 DATA     BIT       INT0
      000112CCH   XDATA    ---       int0_irq_handler
      00FFB03AH   CODE     ---       INT0_IRQHandler
*SFR* 000000B0H.3 DATA     BIT       INT1
      000112D0H   XDATA    ---       int1_irq_handler
      00FFB07AH   CODE     ---       INT1_IRQHandler
      000112D4H   XDATA    ---       int2_irq_handler
      00FFB0BAH   CODE     ---       INT2_IRQHandler
      000112D8H   XDATA    ---       int3_irq_handler
      00FFB0FAH   CODE     ---       INT3_IRQHandler
      000112DCH   XDATA    ---       int4_irq_handler
      00FFB13AH   CODE     ---       INT4_IRQHandler
*SFR* 0000008FH   DATA     BYTE      INTCLKO
*DEL*:00000000H   CODE     ---       interrupt_global_disable
      00FF0006H   CODE     ---       interrupt_global_enable
*DEL*:00000000H   CODE     ---       interrupt_set_priority
*SFR* 000000B8H   DATA     BYTE      IP
*SFR* 000000B5H   DATA     BYTE      IP2
*SFR* 000000B6H   DATA     BYTE      IP2H
*SFR* 000000DFH   DATA     BYTE      IP3
*SFR* 000000EEH   DATA     BYTE      IP3H
*SFR* 000000B7H   DATA     BYTE      IPH
*SFR* 000000B7H   DATA     BYTE      IPH0
*SFR* 000000B8H   DATA     BYTE      IPL0
      00011C7EH   XDATA    WORD      ips114_bgcolor
      00FFA656H   CODE     ---       ips114_clear
      00011C80H   XDATA    INT       ips114_display_dir
*DEL*:00000000H   CODE     ---       ips114_draw_point
      00FF683DH   CODE     ---       ips114_init
      00011C7CH   XDATA    WORD      ips114_pencolor
      00FFB542H   CODE     ---       ips114_set_color
      00FFB36DH   CODE     ---       ips114_set_dir
      00FF8EF5H   CODE     ---       ips114_show_char
*DEL*:00000000H   CODE     ---       ips114_show_chinese
      00FF7ABBH   CODE     ---       ips114_show_float
*DEL*:00000000H   CODE     ---       ips114_show_int16
*DEL*:00000000H   CODE     ---       ips114_show_int32
*DEL*:00000000H   CODE     ---       ips114_show_int8
      00FF9CACH   CODE     ---       ips114_show_string
      00FF9011H   CODE     ---       ips114_show_uint16
*DEL*:00000000H   CODE     ---       ips114_show_uint8
*DEL*:00000000H   CODE     ---       ips114_show_wave
      00011C82H   XDATA    BYTE      ips114_x_max
      00011C83H   XDATA    BYTE      ips114_y_max
      00011ADAH   XDATA    WORD      ips200_bgcolor
*DEL*:00000000H   CODE     ---       ips200_clear
      00011ADCH   XDATA    INT       ips200_display_dir
*DEL*:00000000H   CODE     ---       ips200_draw_point
*DEL*:00000000H   CODE     ---       ips200_init
      00011AD8H   XDATA    WORD      ips200_pencolor
*DEL*:00000000H   CODE     ---       ips200_set_color
*DEL*:00000000H   CODE     ---       ips200_set_dir
*DEL*:00000000H   CODE     ---       ips200_show_char
L251 LINKER/LOCATER V4.66.93.0                                                        03/30/2026  16:35:38  PAGE 33


*DEL*:00000000H   CODE     ---       ips200_show_chinese
*DEL*:00000000H   CODE     ---       ips200_show_float
*DEL*:00000000H   CODE     ---       ips200_show_int16
*DEL*:00000000H   CODE     ---       ips200_show_int32
*DEL*:00000000H   CODE     ---       ips200_show_int8
*DEL*:00000000H   CODE     ---       ips200_show_string
*DEL*:00000000H   CODE     ---       ips200_show_uint16
*DEL*:00000000H   CODE     ---       ips200_show_uint8
*DEL*:00000000H   CODE     ---       ips200_show_wave
      00011ADEH   XDATA    WORD      ips200_x_max
      00011AE0H   XDATA    WORD      ips200_y_max
*DEL*:00000000H   CODE     ---       ips200pro_calendar_create
*DEL*:00000000H   CODE     ---       ips200pro_calendar_display
*DEL*:00000000H   CODE     ---       ips200pro_clock_create
*DEL*:00000000H   CODE     ---       ips200pro_container_create
*DEL*:00000000H   CODE     ---       ips200pro_container_radius
*DEL*:00000000H   CODE     ---       ips200pro_create_widgets
*DEL*:00000000H   CODE     ---       ips200pro_delete_widgets
*DEL*:00000000H   CODE     ---       ips200pro_get_date
*DEL*:00000000H   CODE     ---       ips200pro_get_free_stack_size
*DEL*:00000000H   CODE     ---       ips200pro_get_information
*DEL*:00000000H   CODE     ---       ips200pro_get_time
*DEL*:00000000H   CODE     ---       ips200pro_image_create
*DEL*:00000000H   CODE     ---       ips200pro_image_display
*DEL*:00000000H   CODE     ---       ips200pro_image_draw_line
*DEL*:00000000H   CODE     ---       ips200pro_image_draw_rectangle
      00010DD6H   XDATA    ---       ips200pro_information
*DEL*:00000000H   CODE     ---       ips200pro_init
*DEL*:00000000H   CODE     ---       ips200pro_label_create
*DEL*:00000000H   CODE     ---       ips200pro_label_mode
*DEL*:00000000H   CODE     ---       ips200pro_label_printf
*DEL*:00000000H   CODE     ---       ips200pro_label_show_string
*DEL*:00000000H   CODE     ---       ips200pro_meter_create
*DEL*:00000000H   CODE     ---       ips200pro_meter_set_value
*DEL*:00000000H   CODE     ---       ips200pro_page_create
*DEL*:00000000H   CODE     ---       ips200pro_page_hidden
*DEL*:00000000H   CODE     ---       ips200pro_page_set_title_name
*DEL*:00000000H   CODE     ---       ips200pro_page_set_title_position_width
*DEL*:00000000H   CODE     ---       ips200pro_page_switch
*DEL*:00000000H   CODE     ---       ips200pro_progress_bar_create
*DEL*:00000000H   CODE     ---       ips200pro_progress_bar_set_value
*DEL*:00000000H   CODE     ---       ips200pro_read_parameter
*DEL*:00000000H   CODE     ---       ips200pro_receive_buffer
*DEL*:00000000H   CODE     ---       ips200pro_send_buffer
*DEL*:00000000H   CODE     ---       ips200pro_set_backlight
*DEL*:00000000H   CODE     ---       ips200pro_set_color
*DEL*:00000000H   CODE     ---       ips200pro_set_crc_state
*DEL*:00000000H   CODE     ---       ips200pro_set_date
*DEL*:00000000H   CODE     ---       ips200pro_set_default_font
*DEL*:00000000H   CODE     ---       ips200pro_set_direction
*DEL*:00000000H   CODE     ---       ips200pro_set_font
*DEL*:00000000H   CODE     ---       ips200pro_set_format
*DEL*:00000000H   CODE     ---       ips200pro_set_hidden
*DEL*:00000000H   CODE     ---       ips200pro_set_optimize
*DEL*:00000000H   CODE     ---       ips200pro_set_parent
*DEL*:00000000H   CODE     ---       ips200pro_set_position
*DEL*:00000000H   CODE     ---       ips200pro_set_time
*DEL*:00000000H   CODE     ---       ips200pro_table_cell_printf
*DEL*:00000000H   CODE     ---       ips200pro_table_create
*DEL*:00000000H   CODE     ---       ips200pro_table_select
*DEL*:00000000H   CODE     ---       ips200pro_table_set_col_width
      00010DDFH   XDATA    ---       ips200pro_time
*DEL*:00000000H   CODE     ---       ips200pro_waveform_add_value
*DEL*:00000000H   CODE     ---       ips200pro_waveform_clear
*DEL*:00000000H   CODE     ---       ips200pro_waveform_create
L251 LINKER/LOCATER V4.66.93.0                                                        03/30/2026  16:35:38  PAGE 34


*DEL*:00000000H   CODE     ---       ips200pro_waveform_line_state
*DEL*:00000000H   CODE     ---       ips200pro_waveform_line_type
*DEL*:00000000H   CODE     ---       ips200pro_write_packet
*SFR* 0000009DH   DATA     BYTE      IRCBAND
*SFR* 0000009FH   DATA     BYTE      IRTRIM
*SFR* 00000088H.0 DATA     BIT       IT0
*SFR* 00000088H.2 DATA     BIT       IT1
      00010719H   XDATA    ---       Kalman1
      00010749H   XDATA    ---       Kalman2
      00FF976BH   CODE     ---       KalmanCreate
      00FF7279H   CODE     ---       KalmanFilter
      00FFB58CH   CODE     ---       LED_Init
*DEL*:00000000H   CODE     ---       LED_Off
*DEL*:00000000H   CODE     ---       LED_On
*DEL*:00000000H   CODE     ---       LED_Switch
      0001093AH   XDATA    ---       left_spid
*SFR* 000000F9H   DATA     BYTE      LINICR
      00FF2D40H   CODE     NEAR LAB  log?_
      00FFB47CH   CODE     ---       MAIN
*DEL*:00000000H   CODE     ---       main_loop
      00010806H   XDATA    FLOAT     Max_Delta_Pitch
      0001081EH   XDATA    FLOAT     Max_Delta_Roll
*DEL*:00000000H   CODE     ---       Median_Average_Filter
      00FFB567H   CODE     ---       memcpy?_
*DEL*:00000000H   CODE     ---       memset?_
*DEL*:00000000H   CODE     ---       Menu_Display
*DEL*:00000000H   CODE     ---       Menu_Init
*DEL*:00000000H   CODE     ---       Motor_Protect
      00FFA5CBH   CODE     ---       Motor_SetSpeed
      00FFB419H   CODE     ---       My_abs
      00FFAFF4H   CODE     ---       Oscilloscope_Display
      00FF0046H   CODE     ---       Oscilloscope_Init
*SFR* 000000D0H.2 DATA     BIT       OV
*SFR* 000000D0H.0 DATA     BIT       P
*SFR* 00000080H   DATA     BYTE      P0
*SFR* 00000094H   DATA     BYTE      P0M0
*SFR* 00000093H   DATA     BYTE      P0M1
*SFR* 00000090H   DATA     BYTE      P1
*SFR* 00000092H   DATA     BYTE      P1M0
*SFR* 00000091H   DATA     BYTE      P1M1
*SFR* 000000A0H   DATA     BYTE      P2
*SFR* 000000A0H.0 DATA     BIT       P20
*SFR* 000000A0H.1 DATA     BIT       P21
*SFR* 000000A0H.2 DATA     BIT       P22
*SFR* 00000096H   DATA     BYTE      P2M0
*SFR* 00000095H   DATA     BYTE      P2M1
*SFR* 000000B0H   DATA     BYTE      P3
*SFR* 000000B2H   DATA     BYTE      P3M0
*SFR* 000000B1H   DATA     BYTE      P3M1
*SFR* 000000C0H   DATA     BYTE      P4
*SFR* 000000C0H.0 DATA     BIT       P40
*SFR* 000000C0H.1 DATA     BIT       P41
*SFR* 000000C0H.2 DATA     BIT       P42
*SFR* 000000C0H.3 DATA     BIT       P43
*SFR* 000000B4H   DATA     BYTE      P4M0
*SFR* 000000B3H   DATA     BYTE      P4M1
*SFR* 000000C8H   DATA     BYTE      P5
*SFR* 000000CAH   DATA     BYTE      P5M0
*SFR* 000000C9H   DATA     BYTE      P5M1
*SFR* 000000E8H   DATA     BYTE      P6
*SFR* 000000CCH   DATA     BYTE      P6M0
*SFR* 000000CBH   DATA     BYTE      P6M1
*SFR* 000000F8H   DATA     BYTE      P7
*SFR* 000000E2H   DATA     BYTE      P7M0
*SFR* 000000E1H   DATA     BYTE      P7M1
L251 LINKER/LOCATER V4.66.93.0                                                        03/30/2026  16:35:38  PAGE 35


*SFR* 000000A2H   DATA     BYTE      P_SW1
*SFR* 000000BAH   DATA     BYTE      P_SW2
*SFR* 000000BBH   DATA     BYTE      P_SW3
      00FF8C96H   CODE     ---       Parameter_Debug
      00FFB63FH   CODE     ---       Parameter_Debug_Init
*SFR* 00000087H   DATA     BYTE      PCON
*DEL*:00000000H   CODE     ---       PID_Calc
*DEL*:00000000H   CODE     ---       PID_Init
      00FF01AEH   CODE     ---       pit_handler
      00FF6DB1H   CODE     ---       pit_init
      0001077EH   XDATA    FLOAT     pitch
      00010715H   XDATA    FLOAT     Pitch_Max
      00010711H   XDATA    FLOAT     Pitch_Min
      0001096EH   XDATA    ---       pos_pid
*DEL*:00000000H   CODE     ---       pow?_
*SFR* 000000B8H.6 DATA     BIT       PPC
      00FF247BH   CODE     NEAR LAB  printf
*SFR* 000000B8H.4 DATA     BIT       PS
*SFR* 000000D0H   DATA     BYTE      PSW
*SFR* 000000D1H   DATA     BYTE      PSW1
*SFR* 000000B8H.1 DATA     BIT       PT0
*SFR* 000000B8H.3 DATA     BIT       PT1
*SFR* 000000B8H.5 DATA     BIT       PT2
      00FFB62DH   CODE     ---       putchar
      00FFC1ABH   HCONST   ---       PWM_ARR_ADDR
      00FFC1B3H   HCONST   ---       PWM_CCER_ADDR
      00FFC1C3H   HCONST   ---       PWM_CCMR_ADDR
      00FFC18BH   HCONST   ---       PWM_CCR_ADDR
      00FF3990H   CODE     ---       pwm_init
      00FFC183H   HCONST   ---       PWM_PSCR_ADDR
      00FF7E7CH   CODE     ---       pwm_set_duty
*DEL*:00000000H   CODE     ---       pwm_set_freq
*SFR* 000000B8H.0 DATA     BIT       PX0
*SFR* 000000B8H.2 DATA     BIT       PX1
*DEL*:00000000H   CODE     ---       range_protect
*SFR* 00000098H.2 DATA     BIT       RB8
*SFR* 000000CBH   DATA     BYTE      RCAP2H
*SFR* 000000CAH   DATA     BYTE      RCAP2L
*SFR* 000000C8H.5 DATA     BIT       RCLK
*SFR* 000000B0H.7 DATA     BIT       RD
      00010904H   XDATA    INT       real_left
      00010902H   XDATA    INT       real_right
*SFR* 00000098H.4 DATA     BIT       REN
*SFR* 00000098H.0 DATA     BIT       RI
      00010906H   XDATA    ---       right_spid
      000107BAH   XDATA    FLOAT     roll
      000107B6H   XDATA    FLOAT     Roll_Max
      00010782H   XDATA    FLOAT     Roll_Min
      00010779H   XDATA    CHAR      Round
*SFR* 000000D0H.3 DATA     BIT       RS0
*SFR* 000000D0H.4 DATA     BIT       RS1
*SFR* 000000FFH   DATA     BYTE      RSTCFG
*SFR* 000000B0H.0 DATA     BIT       RXD
*SFR* 0000009BH   DATA     BYTE      S2BUF
*SFR* 0000009AH   DATA     BYTE      S2CON
*SFR* 0000009AH.1 DATA     BIT       S2TI
*SFR* 000000ACH   DATA     BYTE      S3CON
*SFR* 000000FDH   DATA     BYTE      S4CON
*SFR* 000000A9H   DATA     BYTE      SADDR
*SFR* 000000B9H   DATA     BYTE      SADEN
*SFR* 00000099H   DATA     BYTE      SBUF
*SFR* 00000098H   DATA     BYTE      SCON
*DEL*:00000000H   CODE     ---       seekfree_assistant_camera_boundary_config
*DEL*:00000000H   CODE     ---       seekfree_assistant_camera_data_send
*DEL*:00000000H   CODE     ---       seekfree_assistant_camera_dot_send
L251 LINKER/LOCATER V4.66.93.0                                                        03/30/2026  16:35:38  PAGE 36


*DEL*:00000000H   CODE     ---       seekfree_assistant_camera_information_config
*DEL*:00000000H   CODE     ---       seekfree_assistant_camera_send
      00FF6AFFH   CODE     ---       seekfree_assistant_data_analysis
      00FFB44EH   CODE     ---       seekfree_assistant_init
*DEL*:00000000H   CODE     ---       seekfree_assistant_interface_init
      000105DCH   XDATA    ---       seekfree_assistant_oscilloscope_data
      00FF8550H   CODE     ---       seekfree_assistant_oscilloscope_send
      0001061FH   XDATA    ---       seekfree_assistant_parameter
      00010617H   XDATA    ---       seekfree_assistant_parameter_update_flag
      00011EE4H   XDATA    ---       seekfree_assistant_receive_callback
      00011EE6H   XDATA    ---       seekfree_assistant_transfer_callback
*DEL*:00000000H   CODE     ---       Send_Data_To_PC
      00010A02H   XDATA    ---       send_str
*DEL*:00000000H   CODE     ---       set_gps_type
      00FF76B6H   CODE     ---       set_sys_clk
*DEL*:00000000H   CODE     ---       set_tof_type
      00FFA37FH   CODE     ---       set_wireless_type
      00FF25BCH   CODE     ---       sin?_
*SFR* 00000098H.7 DATA     BIT       SM0
*SFR* 00000098H.6 DATA     BIT       SM1
*SFR* 00000098H.5 DATA     BIT       SM2
      00FFB2F6H   CODE     ---       soft_iic_delay
*DEL*:00000000H   CODE     ---       soft_iic_init
*DEL*:00000000H   CODE     ---       soft_iic_read_16bit
*DEL*:00000000H   CODE     ---       soft_iic_read_16bit_array
*DEL*:00000000H   CODE     ---       soft_iic_read_16bit_register
*DEL*:00000000H   CODE     ---       soft_iic_read_16bit_registers
*DEL*:00000000H   CODE     ---       soft_iic_read_8bit
*DEL*:00000000H   CODE     ---       soft_iic_read_8bit_array
*DEL*:00000000H   CODE     ---       soft_iic_read_8bit_register
*DEL*:00000000H   CODE     ---       soft_iic_read_8bit_registers
      00FF8B54H   CODE     ---       soft_iic_read_data
*DEL*:00000000H   CODE     ---       soft_iic_sccb_read_register
*DEL*:00000000H   CODE     ---       soft_iic_sccb_write_register
      00FF9B08H   CODE     ---       soft_iic_send_ack
      00FF00A6H   CODE     ---       soft_iic_send_data
      00FFA0F9H   CODE     ---       soft_iic_start
      00FF9E32H   CODE     ---       soft_iic_stop
*DEL*:00000000H   CODE     ---       soft_iic_transfer_16bit_array
*DEL*:00000000H   CODE     ---       soft_iic_transfer_8bit_array
      00FF9A25H   CODE     ---       soft_iic_wait_ack
*DEL*:00000000H   CODE     ---       soft_iic_write_16bit
*DEL*:00000000H   CODE     ---       soft_iic_write_16bit_array
*DEL*:00000000H   CODE     ---       soft_iic_write_16bit_register
*DEL*:00000000H   CODE     ---       soft_iic_write_16bit_registers
*DEL*:00000000H   CODE     ---       soft_iic_write_8bit
*DEL*:00000000H   CODE     ---       soft_iic_write_8bit_array
*DEL*:00000000H   CODE     ---       soft_iic_write_8bit_register
*DEL*:00000000H   CODE     ---       soft_iic_write_8bit_registers
*DEL*:00000000H   CODE     ---       soft_spi_delay
*DEL*:00000000H   CODE     ---       soft_spi_init
*DEL*:00000000H   CODE     ---       soft_spi_read_16bit
*DEL*:00000000H   CODE     ---       soft_spi_read_16bit_array
*DEL*:00000000H   CODE     ---       soft_spi_read_16bit_register
*DEL*:00000000H   CODE     ---       soft_spi_read_16bit_registers
*DEL*:00000000H   CODE     ---       soft_spi_read_8bit
*DEL*:00000000H   CODE     ---       soft_spi_read_8bit_array
*DEL*:00000000H   CODE     ---       soft_spi_read_8bit_register
*DEL*:00000000H   CODE     ---       soft_spi_read_8bit_registers
*DEL*:00000000H   CODE     ---       soft_spi_transfer_16bit
*DEL*:00000000H   CODE     ---       soft_spi_transfer_8bit
*DEL*:00000000H   CODE     ---       soft_spi_write_16bit
*DEL*:00000000H   CODE     ---       soft_spi_write_16bit_array
*DEL*:00000000H   CODE     ---       soft_spi_write_16bit_register
*DEL*:00000000H   CODE     ---       soft_spi_write_16bit_registers
L251 LINKER/LOCATER V4.66.93.0                                                        03/30/2026  16:35:38  PAGE 37


*DEL*:00000000H   CODE     ---       soft_spi_write_8bit
*DEL*:00000000H   CODE     ---       soft_spi_write_8bit_array
*DEL*:00000000H   CODE     ---       soft_spi_write_8bit_register
*DEL*:00000000H   CODE     ---       soft_spi_write_8bit_registers
*SFR* 00000081H   DATA     BYTE      SP
*SFR* 000000CEH   DATA     BYTE      SPCTL
      00010EC1H   XDATA    BYTE      spd_left
      00010EC0H   XDATA    BYTE      spd_right
*SFR* 000000CFH   DATA     BYTE      SPDAT
      00010E7FH   XDATA    BYTE      speed
      00010900H   XDATA    INT       speed_left
      000108FEH   XDATA    INT       speed_right
*SFR* 000000BEH   DATA     BYTE      SPH
      00FF56A0H   CODE     ---       spi_init
*DEL*:00000000H   CODE     ---       spi_read_16bit
*DEL*:00000000H   CODE     ---       spi_read_16bit_array
*DEL*:00000000H   CODE     ---       spi_read_16bit_register
*DEL*:00000000H   CODE     ---       spi_read_16bit_registers
*DEL*:00000000H   CODE     ---       spi_read_8bit
*DEL*:00000000H   CODE     ---       spi_read_8bit_array
*DEL*:00000000H   CODE     ---       spi_read_8bit_register
*DEL*:00000000H   CODE     ---       spi_read_8bit_registers
      00FFA9DCH   CODE     ---       spi_read_dat
*DEL*:00000000H   CODE     ---       spi_transfer_16bit
*DEL*:00000000H   CODE     ---       spi_transfer_8bit
      00FFB332H   CODE     ---       spi_write_16bit
*DEL*:00000000H   CODE     ---       spi_write_16bit_array
*DEL*:00000000H   CODE     ---       spi_write_16bit_register
*DEL*:00000000H   CODE     ---       spi_write_16bit_registers
      00FF0066H   CODE     ---       spi_write_8bit
*DEL*:00000000H   CODE     ---       spi_write_8bit_array
*DEL*:00000000H   CODE     ---       spi_write_8bit_register
*DEL*:00000000H   CODE     ---       spi_write_8bit_registers
      00FFABF4H   CODE     ---       spi_write_dat
      00FF24A7H   CODE     NEAR LAB  sprintf
*SFR* 000000CDH   DATA     BYTE      SPSTAT
      00FF24C7H   CODE     ---       sqrt?_
*DEL*:00000000H   CODE     ---       strchr?_
      00FFB64DH   CODE     ---       strlen?_
*DEL*:00000000H   CODE     ---       strncmp?_
*DEL*:00000000H   CODE     ---       strncpy?_
      00011E54H   XDATA    LONG      system_clock
      00FFAE13H   CODE     ---       system_delay_init
      00FFB51DH   CODE     ---       system_delay_ms
*DEL*:00000000H   CODE     ---       system_delay_us
*SFR* 000000B0H.4 DATA     BIT       T0
*SFR* 000000B0H.5 DATA     BIT       T1
*SFR* 00000090H.0 DATA     BIT       T2
*SFR* 000000C8H   DATA     BYTE      T2CON
*SFR* 00000090H.1 DATA     BIT       T2EX
*SFR* 000000D6H   DATA     BYTE      T2H
*SFR* 000000D7H   DATA     BYTE      T2L
*SFR* 000000C9H   DATA     BYTE      T2MOD
*SFR* 000000D4H   DATA     BYTE      T3H
*SFR* 000000D5H   DATA     BYTE      T3L
*SFR* 000000D2H   DATA     BYTE      T4H
*SFR* 000000D3H   DATA     BYTE      T4L
*SFR* 000000DDH   DATA     BYTE      T4T3M
      00FF25E9H   CODE     ---       TAN?_
*SFR* 00000098H.3 DATA     BIT       TB8
*SFR* 000000C8H.4 DATA     BIT       TCLK
*SFR* 00000088H   DATA     BYTE      TCON
*SFR* 00000088H.5 DATA     BIT       TF0
*SFR* 00000088H.7 DATA     BIT       TF1
*SFR* 000000C8H.7 DATA     BIT       TF2
L251 LINKER/LOCATER V4.66.93.0                                                        03/30/2026  16:35:38  PAGE 38


      00011CAEH   XDATA    WORD      tft180_bgcolor
*DEL*:00000000H   CODE     ---       tft180_clear
      00011CB0H   XDATA    INT       tft180_display_dir
*DEL*:00000000H   CODE     ---       tft180_draw_point
*DEL*:00000000H   CODE     ---       tft180_init
      00011CACH   XDATA    WORD      tft180_pencolor
*DEL*:00000000H   CODE     ---       tft180_set_color
*DEL*:00000000H   CODE     ---       tft180_set_dir
*DEL*:00000000H   CODE     ---       tft180_show_char
*DEL*:00000000H   CODE     ---       tft180_show_float
*DEL*:00000000H   CODE     ---       tft180_show_int16
*DEL*:00000000H   CODE     ---       tft180_show_int32
*DEL*:00000000H   CODE     ---       tft180_show_int8
*DEL*:00000000H   CODE     ---       tft180_show_string
*DEL*:00000000H   CODE     ---       tft180_show_uint16
*DEL*:00000000H   CODE     ---       tft180_show_uint8
*DEL*:00000000H   CODE     ---       tft180_show_wave
      00011CB2H   XDATA    BYTE      tft180_x_max
      00011CB3H   XDATA    BYTE      tft180_y_max
*SFR* 0000008CH   DATA     BYTE      TH0
*SFR* 0000008DH   DATA     BYTE      TH1
*SFR* 000000CDH   DATA     BYTE      TH2
*SFR* 00000098H.1 DATA     BIT       TI
      000112CAH   XDATA    ---       tim0_irq_handler
      000112C0H   XDATA    ---       tim11_irq_handler
      000112CEH   XDATA    ---       tim1_irq_handler
      000112D2H   XDATA    ---       tim2_irq_handler
      000112D6H   XDATA    ---       tim3_irq_handler
      000112DAH   XDATA    ---       tim4_irq_handler
      00FFA7E0H   CODE     ---       timer_funciton_check
*SFR* 0000008AH   DATA     BYTE      TL0
*SFR* 0000008BH   DATA     BYTE      TL1
*SFR* 000000CCH   DATA     BYTE      TL2
      00FFB17AH   CODE     ---       TM0_IRQHandler
      00FFB1BAH   CODE     ---       TM1_IRQHandler
      00FFB1FAH   CODE     ---       TM2_IRQHandler
      00FFB23AH   CODE     ---       TM3_IRQHandler
      00FFB27AH   CODE     ---       TM4_IRQHandler
*SFR* 00000089H   DATA     BYTE      TMOD
      00011CC4H   XDATA    ---       tof_module_exti_handler
      00011CC8H   XDATA    INT       tof_type
*SFR* 00000088H.4 DATA     BIT       TR0
*SFR* 00000088H.6 DATA     BIT       TR1
*SFR* 000000C8H.2 DATA     BIT       TR2
*DEL*:00000000H   CODE     ---       tsl1401_collect_pit_handler
      0001020BH   XDATA    ---       tsl1401_data
      0001020AH   XDATA    BYTE      tsl1401_finish_flag
*DEL*:00000000H   CODE     ---       tsl1401_init
*DEL*:00000000H   CODE     ---       tsl1401_send_data
*SFR* 000000B0H.1 DATA     BIT       TXD
      000112C2H   XDATA    ---       uart1_irq_handler
      000112C4H   XDATA    ---       uart2_irq_handler
      000112C6H   XDATA    ---       uart3_irq_handler
      000112C8H   XDATA    ---       uart4_irq_handler
      00FF83ADH   CODE     ---       uart_dma_init
      00FFA861H   CODE     ---       uart_funciton_check
      00FF6264H   CODE     ---       uart_init
      00FFA2E0H   CODE     ---       uart_query_byte
*DEL*:00000000H   CODE     ---       uart_read_byte
      00011926H   XDATA    ---       uart_rx_buff
      00FFAAC4H   CODE     ---       uart_rx_interrupt
      00FF9D70H   CODE     ---       uart_rx_start_buff
      00FF7CA6H   CODE     ---       uart_write_buffer
      00FFB5D1H   CODE     ---       uart_write_byte
*DEL*:00000000H   CODE     ---       uart_write_string
L251 LINKER/LOCATER V4.66.93.0                                                        03/30/2026  16:35:38  PAGE 39


*SFR* 000000F4H   DATA     BYTE      USBCON
*DEL*:00000000H   CODE     ---       voltage_warning_init
*SFR* 000000A6H   DATA     BYTE      VRTRIM
*DEL*:00000000H   CODE     ---       vsnprintf
*SFR* 000000C1H   DATA     BYTE      WDT_CONTR
*SFR* 000000A6H   DATA     BYTE      WDTRST
      00011CC6H   XDATA    INT       wireless_type
      00FFB4F7H   CODE     ---       wireless_uart_callback
      00FFA8E2H   CODE     ---       wireless_uart_init
      00FFA6DBH   CODE     ---       wireless_uart_read_buffer
      00FF923DH   CODE     ---       wireless_uart_send_buffer
*DEL*:00000000H   CODE     ---       wireless_uart_send_byte
*DEL*:00000000H   CODE     ---       wireless_uart_send_string
*SFR* 000000B0H.6 DATA     BIT       WR
*SFR* 000000E9H   DATA     BYTE      WTST
      0001080AH   XDATA    FLOAT     yaw
      00010802H   XDATA    FLOAT     yaw_limit_360
      0001080EH   XDATA    FLOAT     yaw_total
      00010786H   XDATA    ---       Zero
      00FF3071H   CODE     ---       zf_sprintf



SYMBOL TABLE OF MODULE:  .\out_file\SEEKFREE (?C_START)

      VALUE       REP       CLASS    TYPE      SYMBOL NAME
      ====================================================
      ---         MODULE    ---      ---       ?C_START
      00FF0000H   PUBLIC    CODE     ---       ?C?STARTUP
      00FF0000H   PUBLIC    CODE     ---       ?C_STARTUP
      000000D0H.6 SFRSYM    DATA     BIT       AC
      000000E0H   SFRSYM    DATA     BYTE      ACC
      000000F0H   SFRSYM    DATA     BYTE      B
      000000FAH   SFRSYM    DATA     BYTE      CCAP0H
      000000EAH   SFRSYM    DATA     BYTE      CCAP0L
      000000FBH   SFRSYM    DATA     BYTE      CCAP1H
      000000EBH   SFRSYM    DATA     BYTE      CCAP1L
      000000FCH   SFRSYM    DATA     BYTE      CCAP2H
      000000ECH   SFRSYM    DATA     BYTE      CCAP2L
      000000FDH   SFRSYM    DATA     BYTE      CCAP3H
      000000EDH   SFRSYM    DATA     BYTE      CCAP3L
      000000FEH   SFRSYM    DATA     BYTE      CCAP4H
      000000EEH   SFRSYM    DATA     BYTE      CCAP4L
      000000DAH   SFRSYM    DATA     BYTE      CCAPM0
      000000DBH   SFRSYM    DATA     BYTE      CCAPM1
      000000DCH   SFRSYM    DATA     BYTE      CCAPM2
      000000DDH   SFRSYM    DATA     BYTE      CCAPM3
      000000DEH   SFRSYM    DATA     BYTE      CCAPM4
      000000D8H.0 SFRSYM    DATA     BIT       CCF0
      000000D8H.1 SFRSYM    DATA     BIT       CCF1
      000000D8H.2 SFRSYM    DATA     BIT       CCF2
      000000D8H.3 SFRSYM    DATA     BIT       CCF3
      000000D8H.4 SFRSYM    DATA     BIT       CCF4
      000000D8H   SFRSYM    DATA     BYTE      CCON
      00000090H.3 SFRSYM    DATA     BIT       CEX0
      00000090H.4 SFRSYM    DATA     BIT       CEX1
      00000090H.5 SFRSYM    DATA     BIT       CEX2
      00000090H.6 SFRSYM    DATA     BIT       CEX3
      00000090H.7 SFRSYM    DATA     BIT       CEX4
      000000D8H.7 SFRSYM    DATA     BIT       CF
      000000F9H   SFRSYM    DATA     BYTE      CH
      000000E9H   SFRSYM    DATA     BYTE      CL
      000000D9H   SFRSYM    DATA     BYTE      CMOD
      000000C8H.0 SFRSYM    DATA     BIT       CP_RL2
      000000D8H.6 SFRSYM    DATA     BIT       CR
L251 LINKER/LOCATER V4.66.93.0                                                        03/30/2026  16:35:38  PAGE 40


      000000D0H.7 SFRSYM    DATA     BIT       CY
      000000C8H.1 SFRSYM    DATA     BIT       C_T2
      00000083H   SFRSYM    DATA     BYTE      DPH
      00000082H   SFRSYM    DATA     BYTE      DPL
      00000084H   SFRSYM    DATA     BYTE      DPXL
      000000A8H.7 SFRSYM    DATA     BIT       EA
      000000A8H.6 SFRSYM    DATA     BIT       EC
      00000090H.2 SFRSYM    DATA     BIT       ECI
      000000A8H.4 SFRSYM    DATA     BIT       ES
      000000A8H.1 SFRSYM    DATA     BIT       ET0
      000000A8H.3 SFRSYM    DATA     BIT       ET1
      000000A8H.5 SFRSYM    DATA     BIT       ET2
      000000A8H.0 SFRSYM    DATA     BIT       EX0
      000000A8H.2 SFRSYM    DATA     BIT       EX1
      000000C8H.3 SFRSYM    DATA     BIT       EXEN2
      000000C8H.6 SFRSYM    DATA     BIT       EXF2
      000000D0H.5 SFRSYM    DATA     BIT       F0
      00000098H.7 SFRSYM    DATA     BIT       FE
      000000A8H   SFRSYM    DATA     BYTE      IE0
      00000088H.1 SFRSYM    DATA     BIT       IE0_
      000000B1H   SFRSYM    DATA     BYTE      IE1
      00000088H.3 SFRSYM    DATA     BIT       IE1_
      000000B0H.2 SFRSYM    DATA     BIT       INT0
      000000B0H.3 SFRSYM    DATA     BIT       INT1
      000000B7H   SFRSYM    DATA     BYTE      IPH0
      000000B8H   SFRSYM    DATA     BYTE      IPL0
      00000088H.0 SFRSYM    DATA     BIT       IT0
      00000088H.2 SFRSYM    DATA     BIT       IT1
      000000D0H.2 SFRSYM    DATA     BIT       OV
      000000D0H.0 SFRSYM    DATA     BIT       P
      00000080H   SFRSYM    DATA     BYTE      P0
      00000090H   SFRSYM    DATA     BYTE      P1
      000000A0H   SFRSYM    DATA     BYTE      P2
      000000B0H   SFRSYM    DATA     BYTE      P3
      00000087H   SFRSYM    DATA     BYTE      PCON
      000000B8H.6 SFRSYM    DATA     BIT       PPC
      000000B8H.4 SFRSYM    DATA     BIT       PS
      000000D0H   SFRSYM    DATA     BYTE      PSW
      000000D1H   SFRSYM    DATA     BYTE      PSW1
      000000B8H.1 SFRSYM    DATA     BIT       PT0
      000000B8H.3 SFRSYM    DATA     BIT       PT1
      000000B8H.5 SFRSYM    DATA     BIT       PT2
      000000B8H.0 SFRSYM    DATA     BIT       PX0
      000000B8H.2 SFRSYM    DATA     BIT       PX1
      00000098H.2 SFRSYM    DATA     BIT       RB8
      000000CBH   SFRSYM    DATA     BYTE      RCAP2H
      000000CAH   SFRSYM    DATA     BYTE      RCAP2L
      000000C8H.5 SFRSYM    DATA     BIT       RCLK
      000000B0H.7 SFRSYM    DATA     BIT       RD
      00000098H.4 SFRSYM    DATA     BIT       REN
      00000098H.0 SFRSYM    DATA     BIT       RI
      000000D0H.3 SFRSYM    DATA     BIT       RS0
      000000D0H.4 SFRSYM    DATA     BIT       RS1
      000000B0H.0 SFRSYM    DATA     BIT       RXD
      000000A9H   SFRSYM    DATA     BYTE      SADDR
      000000B9H   SFRSYM    DATA     BYTE      SADEN
      00000099H   SFRSYM    DATA     BYTE      SBUF
      00000098H   SFRSYM    DATA     BYTE      SCON
      00000098H.7 SFRSYM    DATA     BIT       SM0
      00000098H.6 SFRSYM    DATA     BIT       SM1
      00000098H.5 SFRSYM    DATA     BIT       SM2
      00000081H   SFRSYM    DATA     BYTE      SP
      000000BEH   SFRSYM    DATA     BYTE      SPH
      000000B0H.4 SFRSYM    DATA     BIT       T0
      000000B0H.5 SFRSYM    DATA     BIT       T1
L251 LINKER/LOCATER V4.66.93.0                                                        03/30/2026  16:35:38  PAGE 41


      00000090H.0 SFRSYM    DATA     BIT       T2
      000000C8H   SFRSYM    DATA     BYTE      T2CON
      00000090H.1 SFRSYM    DATA     BIT       T2EX
      000000C9H   SFRSYM    DATA     BYTE      T2MOD
      00000098H.3 SFRSYM    DATA     BIT       TB8
      000000C8H.4 SFRSYM    DATA     BIT       TCLK
      00000088H   SFRSYM    DATA     BYTE      TCON
      00000088H.5 SFRSYM    DATA     BIT       TF0
      00000088H.7 SFRSYM    DATA     BIT       TF1
      000000C8H.7 SFRSYM    DATA     BIT       TF2
      0000008CH   SFRSYM    DATA     BYTE      TH0
      0000008DH   SFRSYM    DATA     BYTE      TH1
      000000CDH   SFRSYM    DATA     BYTE      TH2
      00000098H.1 SFRSYM    DATA     BIT       TI
      0000008AH   SFRSYM    DATA     BYTE      TL0
      0000008BH   SFRSYM    DATA     BYTE      TL1
      000000CCH   SFRSYM    DATA     BYTE      TL2
      00000089H   SFRSYM    DATA     BYTE      TMOD
      00000088H.4 SFRSYM    DATA     BIT       TR0
      00000088H.6 SFRSYM    DATA     BIT       TR1
      000000C8H.2 SFRSYM    DATA     BIT       TR2
      000000B0H.1 SFRSYM    DATA     BIT       TXD
      000000A6H   SFRSYM    DATA     BYTE      WDTRST
      000000B0H.6 SFRSYM    DATA     BIT       WR
      00000800H   SYMBOL    NUMBER   ---       EDATALEN
      00FFAE73H   SYMBOL    CODE     ---       EDATALOOP
      00000001H   SYMBOL    NUMBER   ---       EDF
      00000001H   SYMBOL    NUMBER   ---       EMAP
      00000000H   SYMBOL    NUMBER   ---       HDATALEN
      00010000H   SYMBOL    NUMBER   ---       HDATASTART
      00000000H   SYMBOL    NUMBER   ---       IBPSTACK
      00000100H   SYMBOL    NUMBER   ---       IBPSTACKTOP
      00000001H   SYMBOL    NUMBER   ---       INTR
      00000001H   SYMBOL    NUMBER   ---       PAGM
      00000003H   SYMBOL    NUMBER   ---       RDRG
      00000001H   SYMBOL    NUMBER   ---       SRCM
      00000800H   SYMBOL    NUMBER   ---       STACKSIZE
      00FFAE6BH   SYMBOL    CODE     ---       STARTUP1
      00000003H   SYMBOL    NUMBER   ---       WSA
      00000003H   SYMBOL    NUMBER   ---       WSB
      00000001H   SYMBOL    NUMBER   ---       XALE
      00000000H   SYMBOL    NUMBER   ---       XBPSTACK
      00010000H   SYMBOL    NUMBER   ---       XBPSTACKTOP
      00008000H   SYMBOL    NUMBER   ---       XDATALEN
      00FFAE82H   SYMBOL    CODE     ---       XDATALOOP
      00010000H   SYMBOL    NUMBER   ---       XDATASTART

      00FF0000H   BLOCK     CODE     NEAR LAB  LVL=0
      00FF0000H   LINE      CODE     ---       #183
      ---         BLOCKEND  ---      ---       LVL=0

      00FFAE6BH   BLOCK     CODE     NEAR LAB  LVL=0
      00FFAE6BH   LINE      CODE     ---       #188
      00FFAE6EH   LINE      CODE     ---       #191
      00FFAE72H   LINE      CODE     ---       #192
      00FFAE73H   LINE      CODE     ---       #193
      00FFAE76H   LINE      CODE     ---       #194
      00FFAE78H   LINE      CODE     ---       #195
      00FFAE7AH   LINE      CODE     ---       #199
      00FFAE7DH   LINE      CODE     ---       #200
      00FFAE81H   LINE      CODE     ---       #201
      00FFAE82H   LINE      CODE     ---       #202
      00FFAE83H   LINE      CODE     ---       #203
      00FFAE84H   LINE      CODE     ---       #204
      00FFAE86H   LINE      CODE     ---       #205
L251 LINKER/LOCATER V4.66.93.0                                                        03/30/2026  16:35:38  PAGE 42


      00FFAE88H   LINE      CODE     ---       #235
      ---         BLOCKEND  ---      ---       LVL=0

      00FFAEBDH   BLOCK     CODE     NEAR LAB  LVL=0
      00FFAEBDH   LINE      CODE     ---       #238
      ---         BLOCKEND  ---      ---       LVL=0

      ---         MODULE    ---      ---       stc32g_isr

      00FF019BH   BLOCK     CODE     NEAR LAB  LVL=0
      00FF019BH   LINE      CODE     ---       #3
      ---         BLOCKEND  ---      ---       LVL=0

      00FF01ABH   BLOCK     CODE     NEAR LAB  LVL=0
      00FF01ABH   LINE      CODE     ---       #6
      ---         BLOCKEND  ---      ---       LVL=0

      00FF01BBH   BLOCK     CODE     NEAR LAB  LVL=0
      00FF01BBH   LINE      CODE     ---       #9
      ---         BLOCKEND  ---      ---       LVL=0

      00FF01CBH   BLOCK     CODE     NEAR LAB  LVL=0
      00FF01CBH   LINE      CODE     ---       #12
      ---         BLOCKEND  ---      ---       LVL=0

      ---         MODULE    ---      ---       zf_common_clock
      00FFA75FH   PUBLIC    CODE     ---       clock_init
      00FF76B6H   PUBLIC    CODE     ---       set_sys_clk
      00011E54H   PUBLIC    XDATA    LONG      system_clock
      00000094H   SFRSYM    DATA     BYTE      P0M0
      000000D0H   SFRSYM    DATA     BYTE      PSW
      000000BAH.7 SFRSYM    DATA     BIT       EAXFR
      0000009DH   SFRSYM    DATA     BYTE      IRCBAND
      00000097H   SFRSYM    DATA     BYTE      AUXR2
      000000EAH   SFRSYM    DATA     BYTE      CKCON
      000000EFH   SFRSYM    DATA     BYTE      AUXINTIF
      000000FDH   SFRSYM    DATA     BYTE      S4CON
      000000ACH   SFRSYM    DATA     BYTE      S3CON
      0000009AH   SFRSYM    DATA     BYTE      S2CON
      000000A6H   SFRSYM    DATA     BYTE      VRTRIM
      000000B7H   SFRSYM    DATA     BYTE      IPH
      000000CDH   SFRSYM    DATA     BYTE      SPSTAT
      000000DDH   SFRSYM    DATA     BYTE      T4T3M
      0000009FH   SFRSYM    DATA     BYTE      IRTRIM
      000000C1H   SFRSYM    DATA     BYTE      WDT_CONTR
      000000E9H   SFRSYM    DATA     BYTE      WTST
      000000DFH   SFRSYM    DATA     BYTE      IP3
      000000F4H   SFRSYM    DATA     BYTE      USBCON
      000000B5H   SFRSYM    DATA     BYTE      IP2
      000000FFH   SFRSYM    DATA     BYTE      RSTCFG
      000000C7H   SFRSYM    DATA     BYTE      IAP_CONTR
      000000F9H   SFRSYM    DATA     BYTE      LINICR
      0000008EH   SFRSYM    DATA     BYTE      AUXR
      000000AFH   SFRSYM    DATA     BYTE      IE2
      00000088H   SFRSYM    DATA     BYTE      TCON
      00000089H   SFRSYM    DATA     BYTE      TMOD
      00000098H   SFRSYM    DATA     BYTE      SCON
      000000F1H   SFRSYM    DATA     BYTE      CANICR
      00000087H   SFRSYM    DATA     BYTE      PCON
      000000BCH   SFRSYM    DATA     BYTE      ADC_CONTR
      000000E7H   SFRSYM    DATA     BYTE      CMPCR2
      000000E6H   SFRSYM    DATA     BYTE      CMPCR1
      000000DEH   SFRSYM    DATA     BYTE      ADCCFG
      000000B8H   SFRSYM    DATA     BYTE      IP
      0000008FH   SFRSYM    DATA     BYTE      INTCLKO
L251 LINKER/LOCATER V4.66.93.0                                                        03/30/2026  16:35:38  PAGE 43


      000000EEH   SFRSYM    DATA     BYTE      IP3H
      000000B6H   SFRSYM    DATA     BYTE      IP2H
      000000A8H   SFRSYM    DATA     BYTE      IE
      000000BBH   SFRSYM    DATA     BYTE      P_SW3
      000000BAH   SFRSYM    DATA     BYTE      P_SW2
      000000A2H   SFRSYM    DATA     BYTE      P_SW1
      000000CEH   SFRSYM    DATA     BYTE      SPCTL
      000000F8H   SFRSYM    DATA     BYTE      P7
      000000E1H   SFRSYM    DATA     BYTE      P7M1
      000000E8H   SFRSYM    DATA     BYTE      P6
      000000C8H   SFRSYM    DATA     BYTE      P5
      000000CBH   SFRSYM    DATA     BYTE      P6M1
      000000E2H   SFRSYM    DATA     BYTE      P7M0
      000000C0H   SFRSYM    DATA     BYTE      P4
      000000C9H   SFRSYM    DATA     BYTE      P5M1
      000000CCH   SFRSYM    DATA     BYTE      P6M0
      000000B0H   SFRSYM    DATA     BYTE      P3
      000000B3H   SFRSYM    DATA     BYTE      P4M1
      000000CAH   SFRSYM    DATA     BYTE      P5M0
      000000A0H   SFRSYM    DATA     BYTE      P2
      000000B1H   SFRSYM    DATA     BYTE      P3M1
      000000B4H   SFRSYM    DATA     BYTE      P4M0
      00000090H   SFRSYM    DATA     BYTE      P1
      00000095H   SFRSYM    DATA     BYTE      P2M1
      000000B2H   SFRSYM    DATA     BYTE      P3M0
      00000080H   SFRSYM    DATA     BYTE      P0
      00000091H   SFRSYM    DATA     BYTE      P1M1
      00000096H   SFRSYM    DATA     BYTE      P2M0
      00000092H   SFRSYM    DATA     BYTE      P1M0
      00000093H   SFRSYM    DATA     BYTE      P0M1

      00FF76B6H   BLOCK     CODE     ---       LVL=0
      00011E58H   SYMBOL    XDATA    DWORD     sys_clk
      00FF76B6H   LINE      CODE     ---       #54
      00FF76C0H   LINE      CODE     ---       #57
      00FF76C3H   LINE      CODE     ---       #59
      00FF7718H   LINE      CODE     ---       #61
      00FF7718H   LINE      CODE     ---       #63
      00FF7725H   LINE      CODE     ---       #64
      00FF7732H   LINE      CODE     ---       #65
      00FF773FH   LINE      CODE     ---       #66
      00FF7743H   LINE      CODE     ---       #67
      00FF774FH   LINE      CODE     ---       #68
      00FF7752H   LINE      CODE     ---       #70
      00FF7752H   LINE      CODE     ---       #72
      00FF775FH   LINE      CODE     ---       #73
      00FF776CH   LINE      CODE     ---       #74
      00FF7779H   LINE      CODE     ---       #75
      00FF777DH   LINE      CODE     ---       #76
      00FF7789H   LINE      CODE     ---       #77
      00FF778CH   LINE      CODE     ---       #79
      00FF778CH   LINE      CODE     ---       #81
      00FF7799H   LINE      CODE     ---       #82
      00FF77A6H   LINE      CODE     ---       #83
      00FF77B3H   LINE      CODE     ---       #84
      00FF77B7H   LINE      CODE     ---       #85
      00FF77C3H   LINE      CODE     ---       #86
      00FF77C6H   LINE      CODE     ---       #88
      00FF77C6H   LINE      CODE     ---       #90
      00FF77D3H   LINE      CODE     ---       #91
      00FF77E0H   LINE      CODE     ---       #92
      00FF77EDH   LINE      CODE     ---       #93
      00FF77F1H   LINE      CODE     ---       #94
      00FF77FDH   LINE      CODE     ---       #95
      00FF7800H   LINE      CODE     ---       #97
L251 LINKER/LOCATER V4.66.93.0                                                        03/30/2026  16:35:38  PAGE 44


      00FF7800H   LINE      CODE     ---       #99
      00FF780DH   LINE      CODE     ---       #100
      00FF781AH   LINE      CODE     ---       #101
      00FF7827H   LINE      CODE     ---       #102
      00FF782BH   LINE      CODE     ---       #103
      00FF7837H   LINE      CODE     ---       #104
      00FF783AH   LINE      CODE     ---       #106
      00FF783AH   LINE      CODE     ---       #108
      00FF7847H   LINE      CODE     ---       #109
      00FF7854H   LINE      CODE     ---       #110
      00FF7861H   LINE      CODE     ---       #111
      00FF7865H   LINE      CODE     ---       #112
      00FF7871H   LINE      CODE     ---       #113
      00FF7873H   LINE      CODE     ---       #115
      00FF7873H   LINE      CODE     ---       #116
      00FF7885H   LINE      CODE     ---       #118
      00FF7892H   LINE      CODE     ---       #119
      00FF789FH   LINE      CODE     ---       #120
      00FF78ACH   LINE      CODE     ---       #121
      00FF78B0H   LINE      CODE     ---       #122
      00FF78BCH   LINE      CODE     ---       #123
      00FF78BCH   LINE      CODE     ---       #124
      00FF78BCH   LINE      CODE     ---       #126
      00FF78C6H   LINE      CODE     ---       #127
      ---         BLOCKEND  ---      ---       LVL=0

      00FFA75FH   BLOCK     CODE     ---       LVL=0
      00011E5CH   SYMBOL    XDATA    DWORD     clock
      00FFA75FH   LINE      CODE     ---       #132
      00FFA769H   LINE      CODE     ---       #134
      00FFA76DH   LINE      CODE     ---       #135
      00FFA771H   LINE      CODE     ---       #136
      00FFA774H   LINE      CODE     ---       #137
      00FFA777H   LINE      CODE     ---       #147
      00FFA78EH   LINE      CODE     ---       #153
      00FFA791H   LINE      CODE     ---       #156
      00FFA794H   LINE      CODE     ---       #157
      00FFA797H   LINE      CODE     ---       #158
      00FFA79AH   LINE      CODE     ---       #159
      00FFA79DH   LINE      CODE     ---       #160
      00FFA7A0H   LINE      CODE     ---       #161
      00FFA7A3H   LINE      CODE     ---       #162
      00FFA7A6H   LINE      CODE     ---       #163
      00FFA7A9H   LINE      CODE     ---       #164
      00FFA7ACH   LINE      CODE     ---       #165
      00FFA7AFH   LINE      CODE     ---       #166
      00FFA7B2H   LINE      CODE     ---       #167
      00FFA7B5H   LINE      CODE     ---       #168
      00FFA7B8H   LINE      CODE     ---       #169
      00FFA7BBH   LINE      CODE     ---       #170
      00FFA7BEH   LINE      CODE     ---       #171
      00FFA7C1H   LINE      CODE     ---       #173
      00FFA7C4H   LINE      CODE     ---       #174
      00FFA7C7H   LINE      CODE     ---       #175
      00FFA7CAH   LINE      CODE     ---       #176
      00FFA7CDH   LINE      CODE     ---       #177
      00FFA7D0H   LINE      CODE     ---       #178
      00FFA7D3H   LINE      CODE     ---       #179
      00FFA7D6H   LINE      CODE     ---       #180
      00FFA7D9H   LINE      CODE     ---       #181
      00FFA7DCH   LINE      CODE     ---       #183
      00FFA7DFH   LINE      CODE     ---       #184
      ---         BLOCKEND  ---      ---       LVL=0

      ---         MODULE    ---      ---       zf_common_debug
L251 LINKER/LOCATER V4.66.93.0                                                        03/30/2026  16:35:38  PAGE 45


      00FFB2BAH   PUBLIC    CODE     ---       debug_interrupr_handler
      00FFA052H   PUBLIC    CODE     ---       debug_init
      00FFA963H   PUBLIC    CODE     ---       debug_assert_handler
      00FFB62DH   PUBLIC    CODE     ---       putchar
      00010C49H   PUBLIC    XDATA    ---       debug_uart_buffer
      00010C8AH   PUBLIC    XDATA    ---       debug_uart_fifo
      000000D0H   SFRSYM    DATA     BYTE      PSW
      0000009DH   SFRSYM    DATA     BYTE      IRCBAND
      00000097H   SFRSYM    DATA     BYTE      AUXR2
      000000EFH   SFRSYM    DATA     BYTE      AUXINTIF
      000000FDH   SFRSYM    DATA     BYTE      S4CON
      000000ACH   SFRSYM    DATA     BYTE      S3CON
      0000009AH   SFRSYM    DATA     BYTE      S2CON
      000000B7H   SFRSYM    DATA     BYTE      IPH
      000000CDH   SFRSYM    DATA     BYTE      SPSTAT
      000000DDH   SFRSYM    DATA     BYTE      T4T3M
      000000C1H   SFRSYM    DATA     BYTE      WDT_CONTR
      000000DFH   SFRSYM    DATA     BYTE      IP3
      000000F4H   SFRSYM    DATA     BYTE      USBCON
      000000B5H   SFRSYM    DATA     BYTE      IP2
      000000FFH   SFRSYM    DATA     BYTE      RSTCFG
      000000C7H   SFRSYM    DATA     BYTE      IAP_CONTR
      000000F9H   SFRSYM    DATA     BYTE      LINICR
      0000008EH   SFRSYM    DATA     BYTE      AUXR
      000000AFH   SFRSYM    DATA     BYTE      IE2
      00000088H   SFRSYM    DATA     BYTE      TCON
      00000089H   SFRSYM    DATA     BYTE      TMOD
      00000098H   SFRSYM    DATA     BYTE      SCON
      000000F1H   SFRSYM    DATA     BYTE      CANICR
      00000087H   SFRSYM    DATA     BYTE      PCON
      000000BCH   SFRSYM    DATA     BYTE      ADC_CONTR
      000000E7H   SFRSYM    DATA     BYTE      CMPCR2
      000000E6H   SFRSYM    DATA     BYTE      CMPCR1
      000000DEH   SFRSYM    DATA     BYTE      ADCCFG
      000000B8H   SFRSYM    DATA     BYTE      IP
      0000008FH   SFRSYM    DATA     BYTE      INTCLKO
      000000EEH   SFRSYM    DATA     BYTE      IP3H
      000000B6H   SFRSYM    DATA     BYTE      IP2H
      000000A8H   SFRSYM    DATA     BYTE      IE
      000000BBH   SFRSYM    DATA     BYTE      P_SW3
      000000BAH   SFRSYM    DATA     BYTE      P_SW2
      000000A2H   SFRSYM    DATA     BYTE      P_SW1
      000000CEH   SFRSYM    DATA     BYTE      SPCTL
      000000F8H   SFRSYM    DATA     BYTE      P7
      000000E8H   SFRSYM    DATA     BYTE      P6
      000000C8H   SFRSYM    DATA     BYTE      P5
      000000C0H   SFRSYM    DATA     BYTE      P4
      000000B0H   SFRSYM    DATA     BYTE      P3
      000000A0H   SFRSYM    DATA     BYTE      P2
      00000090H   SFRSYM    DATA     BYTE      P1
      00000080H   SFRSYM    DATA     BYTE      P0
      00FFC5F6H   SYMBOL    HCONST   ---       ?tpl?0001
      00010C89H   SYMBOL    XDATA    BYTE      zf_debug_assert_enable
      00010CA1H   SYMBOL    XDATA    BYTE      zf_debug_init_flag
      00011BFCH   SYMBOL    XDATA    ---       buff
      00011C00H   SYMBOL    XDATA    DWORD     len
      00011C04H   SYMBOL    XDATA    ---       buff
      00011C08H   SYMBOL    XDATA    DWORD     len

      00FFB2BAH   BLOCK     CODE     ---       LVL=0
      00011F67H   SYMBOL    XDATA    BYTE      dat
      00FFB2BAH   LINE      CODE     ---       #285
      00FFB2BEH   LINE      CODE     ---       #287
      00FFB2C7H   LINE      CODE     ---       #289
      00FFB2D4H   LINE      CODE     ---       #290
L251 LINKER/LOCATER V4.66.93.0                                                        03/30/2026  16:35:38  PAGE 46


      00FFB2F5H   LINE      CODE     ---       #291
      ---         BLOCKEND  ---      ---       LVL=0

      00FFB62DH   BLOCK     CODE     ---       LVL=0
      00011F68H   SYMBOL    XDATA    CHAR      c
      00FFB62DH   LINE      CODE     ---       #307
      00FFB631H   LINE      CODE     ---       #309
      00FFB63AH   LINE      CODE     ---       #311
      00FFB63EH   LINE      CODE     ---       #312
      ---         BLOCKEND  ---      ---       LVL=0

      00FFA963H   BLOCK     CODE     ---       LVL=0
      00011472H   SYMBOL    XDATA    BYTE      pass
      00011473H   SYMBOL    XDATA    ---       file
      00011477H   SYMBOL    XDATA    INT       line
      00FFA977H   BLOCK     CODE     NEAR LAB  LVL=1
      00011479H   SYMBOL    XDATA    ---       log_str
      ---         BLOCKEND  ---      ---       LVL=1
      00FFA963H   LINE      CODE     ---       #350
      00FFA977H   LINE      CODE     ---       #351
      00FFA977H   LINE      CODE     ---       #352
      00FFA98CH   LINE      CODE     ---       #354
      00FFA98EH   LINE      CODE     ---       #370
      00FFA9CBH   LINE      CODE     ---       #373
      00FFA9D2H   LINE      CODE     ---       #374
      00FFA9DBH   LINE      CODE     ---       #375
      ---         BLOCKEND  ---      ---       LVL=0

      00FFA052H   BLOCK     CODE     ---       LVL=0
      00011F69H   SYMBOL    XDATA    BYTE      uartx
      00FFA052H   LINE      CODE     ---       #457
      00FFA052H   LINE      CODE     ---       #458
      00FFA052H   LINE      CODE     ---       #459
      00FFA057H   LINE      CODE     ---       #465
      00FFA072H   LINE      CODE     ---       #472
      00FFA09FH   LINE      CODE     ---       #473
      00FFA0A6H   LINE      CODE     ---       #476
      00FFA0AFH   LINE      CODE     ---       #478
      00FFA0B9H   LINE      CODE     ---       #479
      00FFA0BBH   LINE      CODE     ---       #480
      00FFA0C4H   LINE      CODE     ---       #482
      00FFA0CEH   LINE      CODE     ---       #483
      00FFA0D0H   LINE      CODE     ---       #484
      00FFA0D9H   LINE      CODE     ---       #486
      00FFA0E3H   LINE      CODE     ---       #487
      00FFA0E5H   LINE      CODE     ---       #488
      00FFA0EEH   LINE      CODE     ---       #490
      00FFA0F8H   LINE      CODE     ---       #491
      ---         BLOCKEND  ---      ---       LVL=0

      ---         MODULE    ---      ---       zf_common_fifo
      00FF45C3H   PUBLIC    CODE     ---       fifo_read_buffer
      00FF4B74H   PUBLIC    CODE     ---       fifo_write_buffer
      00FFADBAH   PUBLIC    CODE     ---       fifo_used
      00FF9942H   PUBLIC    CODE     ---       fifo_init
      00011571H   PUBLIC    XDATA    BYTE      ?fifo_write_buffer?BYTE
      000113E8H   PUBLIC    XDATA    BYTE      ?fifo_read_buffer?BYTE
      0001172DH   PUBLIC    XDATA    BYTE      ?fifo_init?BYTE
      000000D0H   SFRSYM    DATA     BYTE      PSW
      0000009DH   SFRSYM    DATA     BYTE      IRCBAND
      00000097H   SFRSYM    DATA     BYTE      AUXR2
      000000EFH   SFRSYM    DATA     BYTE      AUXINTIF
      000000FDH   SFRSYM    DATA     BYTE      S4CON
      000000ACH   SFRSYM    DATA     BYTE      S3CON
      0000009AH   SFRSYM    DATA     BYTE      S2CON
L251 LINKER/LOCATER V4.66.93.0                                                        03/30/2026  16:35:38  PAGE 47


      000000B7H   SFRSYM    DATA     BYTE      IPH
      000000CDH   SFRSYM    DATA     BYTE      SPSTAT
      000000DDH   SFRSYM    DATA     BYTE      T4T3M
      000000C1H   SFRSYM    DATA     BYTE      WDT_CONTR
      000000DFH   SFRSYM    DATA     BYTE      IP3
      000000F4H   SFRSYM    DATA     BYTE      USBCON
      000000B5H   SFRSYM    DATA     BYTE      IP2
      000000FFH   SFRSYM    DATA     BYTE      RSTCFG
      000000C7H   SFRSYM    DATA     BYTE      IAP_CONTR
      000000F9H   SFRSYM    DATA     BYTE      LINICR
      0000008EH   SFRSYM    DATA     BYTE      AUXR
      000000AFH   SFRSYM    DATA     BYTE      IE2
      00000088H   SFRSYM    DATA     BYTE      TCON
      00000089H   SFRSYM    DATA     BYTE      TMOD
      00000098H   SFRSYM    DATA     BYTE      SCON
      000000F1H   SFRSYM    DATA     BYTE      CANICR
      00000087H   SFRSYM    DATA     BYTE      PCON
      000000BCH   SFRSYM    DATA     BYTE      ADC_CONTR
      000000E7H   SFRSYM    DATA     BYTE      CMPCR2
      000000E6H   SFRSYM    DATA     BYTE      CMPCR1
      000000DEH   SFRSYM    DATA     BYTE      ADCCFG
      000000B8H   SFRSYM    DATA     BYTE      IP
      0000008FH   SFRSYM    DATA     BYTE      INTCLKO
      000000EEH   SFRSYM    DATA     BYTE      IP3H
      000000B6H   SFRSYM    DATA     BYTE      IP2H
      000000A8H   SFRSYM    DATA     BYTE      IE
      000000BBH   SFRSYM    DATA     BYTE      P_SW3
      000000BAH   SFRSYM    DATA     BYTE      P_SW2
      000000A2H   SFRSYM    DATA     BYTE      P_SW1
      000000CEH   SFRSYM    DATA     BYTE      SPCTL
      000000F8H   SFRSYM    DATA     BYTE      P7
      000000E8H   SFRSYM    DATA     BYTE      P6
      000000C8H   SFRSYM    DATA     BYTE      P5
      000000C0H   SFRSYM    DATA     BYTE      P4
      000000B0H   SFRSYM    DATA     BYTE      P3
      000000A0H   SFRSYM    DATA     BYTE      P2
      00000090H   SFRSYM    DATA     BYTE      P1
      00000080H   SFRSYM    DATA     BYTE      P0
      00FFA1A0H   SYMBOL    CODE     ---       fifo_head_offset
      00FFA240H   SYMBOL    CODE     ---       fifo_end_offset

      00FFA1A0H   BLOCK     CODE     ---       LVL=0
      00011C0CH   SYMBOL    XDATA    ---       fifo
      00011C10H   SYMBOL    XDATA    DWORD     offset
      00FFA1A0H   LINE      CODE     ---       #51
      00FFA1B4H   LINE      CODE     ---       #53
      00FFA1DCH   LINE      CODE     ---       #55
      00FFA1DEH   LINE      CODE     ---       #57
      00FFA211H   LINE      CODE     ---       #58
      00FFA23FH   LINE      CODE     ---       #59
      ---         BLOCKEND  ---      ---       LVL=0

      00FFA240H   BLOCK     CODE     ---       LVL=0
      00011C14H   SYMBOL    XDATA    ---       fifo
      00011C18H   SYMBOL    XDATA    DWORD     offset
      00FFA240H   LINE      CODE     ---       #69
      00FFA254H   LINE      CODE     ---       #71
      00FFA27CH   LINE      CODE     ---       #73
      00FFA27EH   LINE      CODE     ---       #75
      00FFA2B1H   LINE      CODE     ---       #76
      00FFA2DFH   LINE      CODE     ---       #77
      ---         BLOCKEND  ---      ---       LVL=0
      00011D1EH   SYMBOL    XDATA    ---       fifo
      00011D22H   SYMBOL    XDATA    INT       return_state

L251 LINKER/LOCATER V4.66.93.0                                                        03/30/2026  16:35:38  PAGE 48


      00FFADBAH   BLOCK     CODE     ---       LVL=0
      00011E60H   SYMBOL    XDATA    ---       fifo
      00FFADBAH   LINE      CODE     ---       #120
      00FFADC4H   LINE      CODE     ---       #122
      00FFADE6H   LINE      CODE     ---       #123
      00FFAE12H   LINE      CODE     ---       #124
      ---         BLOCKEND  ---      ---       LVL=0

      00FF4B74H   BLOCK     CODE     ---       LVL=0
      00011571H   SYMBOL    XDATA    ---       fifo
      00011575H   SYMBOL    XDATA    ---       dat
      00011579H   SYMBOL    XDATA    DWORD     length
      00FF4B88H   BLOCK     CODE     NEAR LAB  LVL=1
      0001157DH   SYMBOL    XDATA    INT       return_state
      0001157FH   SYMBOL    XDATA    DWORD     temp_length
      ---         BLOCKEND  ---      ---       LVL=1
      00FF4B74H   LINE      CODE     ---       #178
      00FF4B88H   LINE      CODE     ---       #179
      00FF4B88H   LINE      CODE     ---       #180
      00FF4B90H   LINE      CODE     ---       #181
      00FF4B9CH   LINE      CODE     ---       #182
      00FF4BBEH   LINE      CODE     ---       #184
      00FF4BBEH   LINE      CODE     ---       #186
      00FF4BCCH   LINE      CODE     ---       #188
      00FF4BD6H   LINE      CODE     ---       #189
      00FF4BD9H   LINE      CODE     ---       #190
      00FF4BD9H   LINE      CODE     ---       #191
      00FF4BF4H   LINE      CODE     ---       #193
      00FF4BFEH   LINE      CODE     ---       #194
      00FF4C01H   LINE      CODE     ---       #195
      00FF4C01H   LINE      CODE     ---       #196
      00FF4C15H   LINE      CODE     ---       #198
      00FF4C3BH   LINE      CODE     ---       #200
      00FF4C71H   LINE      CODE     ---       #202
      00FF4C8CH   LINE      CODE     ---       #204
      00FF4CB0H   LINE      CODE     ---       #206
      00FF4CB0H   LINE      CODE     ---       #208
      00FF4CF7H   LINE      CODE     ---       #211
      00FF4D0EH   LINE      CODE     ---       #212
      00FF4D73H   LINE      CODE     ---       #216
      00FF4D96H   LINE      CODE     ---       #217
      00FF4D99H   LINE      CODE     ---       #218
      00FF4D99H   LINE      CODE     ---       #220
      00FF4DE4H   LINE      CODE     ---       #223
      00FF4DFBH   LINE      CODE     ---       #224
      00FF4E62H   LINE      CODE     ---       #228
      00FF4E85H   LINE      CODE     ---       #229
      00FF4E88H   LINE      CODE     ---       #230
      00FF4E88H   LINE      CODE     ---       #232
      00FF4ED7H   LINE      CODE     ---       #235
      00FF4EEEH   LINE      CODE     ---       #236
      00FF4F5BH   LINE      CODE     ---       #240
      00FF4F7EH   LINE      CODE     ---       #241
      00FF4F7EH   LINE      CODE     ---       #242
      00FF4F7EH   LINE      CODE     ---       #243
      00FF4F81H   LINE      CODE     ---       #246
      00FF4FA2H   LINE      CODE     ---       #248
      00FF4FA2H   LINE      CODE     ---       #250
      00FF4FE9H   LINE      CODE     ---       #253
      00FF5000H   LINE      CODE     ---       #254
      00FF5003H   LINE      CODE     ---       #255
      00FF5003H   LINE      CODE     ---       #257
      00FF504EH   LINE      CODE     ---       #260
      00FF5065H   LINE      CODE     ---       #261
      00FF5067H   LINE      CODE     ---       #262
L251 LINKER/LOCATER V4.66.93.0                                                        03/30/2026  16:35:38  PAGE 49


      00FF5067H   LINE      CODE     ---       #264
      00FF50B6H   LINE      CODE     ---       #267
      00FF50CDH   LINE      CODE     ---       #268
      00FF50CDH   LINE      CODE     ---       #269
      00FF50CDH   LINE      CODE     ---       #270
      00FF50CDH   LINE      CODE     ---       #272
      00FF50F5H   LINE      CODE     ---       #273
      00FF50F7H   LINE      CODE     ---       #276
      00FF5101H   LINE      CODE     ---       #277
      00FF5101H   LINE      CODE     ---       #278
      00FF5115H   LINE      CODE     ---       #279
      00FF5115H   LINE      CODE     ---       #281
      00FF511BH   LINE      CODE     ---       #282
      ---         BLOCKEND  ---      ---       LVL=0

      00FF45C3H   BLOCK     CODE     ---       LVL=0
      000113E8H   SYMBOL    XDATA    ---       fifo
      000113ECH   SYMBOL    XDATA    ---       dat
      000113F0H   SYMBOL    XDATA    ---       length
      000113F4H   SYMBOL    XDATA    INT       flag
      00FF45D7H   BLOCK     CODE     NEAR LAB  LVL=1
      000113F6H   SYMBOL    XDATA    INT       return_state
      000113F8H   SYMBOL    XDATA    DWORD     temp_length
      000113FCH   SYMBOL    XDATA    DWORD     fifo_data_length
      ---         BLOCKEND  ---      ---       LVL=1
      00FF45C3H   LINE      CODE     ---       #355
      00FF45D7H   LINE      CODE     ---       #356
      00FF45D7H   LINE      CODE     ---       #357
      00FF45DFH   LINE      CODE     ---       #358
      00FF45EBH   LINE      CODE     ---       #359
      00FF45F7H   LINE      CODE     ---       #361
      00FF4619H   LINE      CODE     ---       #362
      00FF463BH   LINE      CODE     ---       #364
      00FF463BH   LINE      CODE     ---       #366
      00FF4649H   LINE      CODE     ---       #368
      00FF4653H   LINE      CODE     ---       #369
      00FF4656H   LINE      CODE     ---       #372
      00FF4671H   LINE      CODE     ---       #374
      00FF468CH   LINE      CODE     ---       #375
      00FF4696H   LINE      CODE     ---       #376
      00FF4699H   LINE      CODE     ---       #377
      00FF4699H   LINE      CODE     ---       #379
      00FF46B0H   LINE      CODE     ---       #380
      00FF46CFH   LINE      CODE     ---       #382
      00FF46EAH   LINE      CODE     ---       #383
      00FF46F4H   LINE      CODE     ---       #384
      00FF4702H   LINE      CODE     ---       #386
      00FF4716H   LINE      CODE     ---       #387
      00FF4719H   LINE      CODE     ---       #388
      00FF4719H   LINE      CODE     ---       #391
      00FF472DH   LINE      CODE     ---       #392
      00FF4763H   LINE      CODE     ---       #393
      00FF4785H   LINE      CODE     ---       #395
      00FF47A6H   LINE      CODE     ---       #397
      00FF47F9H   LINE      CODE     ---       #398
      00FF4850H   LINE      CODE     ---       #399
      00FF48A8H   LINE      CODE     ---       #400
      00FF48A8H   LINE      CODE     ---       #401
      00FF48ABH   LINE      CODE     ---       #404
      00FF48CFH   LINE      CODE     ---       #406
      00FF48CFH   LINE      CODE     ---       #408
      00FF4918H   LINE      CODE     ---       #409
      00FF4969H   LINE      CODE     ---       #410
      00FF496CH   LINE      CODE     ---       #411
      00FF496CH   LINE      CODE     ---       #413
L251 LINKER/LOCATER V4.66.93.0                                                        03/30/2026  16:35:38  PAGE 50


      00FF49B9H   LINE      CODE     ---       #414
      00FF4A0CH   LINE      CODE     ---       #415
      00FF4A0FH   LINE      CODE     ---       #416
      00FF4A0FH   LINE      CODE     ---       #418
      00FF4A60H   LINE      CODE     ---       #419
      00FF4AB7H   LINE      CODE     ---       #420
      00FF4AB7H   LINE      CODE     ---       #421
      00FF4AB7H   LINE      CODE     ---       #422
      00FF4AB7H   LINE      CODE     ---       #423
      00FF4ACBH   LINE      CODE     ---       #424
      00FF4ACBH   LINE      CODE     ---       #426
      00FF4ADAH   LINE      CODE     ---       #428
      00FF4AECH   LINE      CODE     ---       #430
      00FF4AF6H   LINE      CODE     ---       #431
      00FF4AF8H   LINE      CODE     ---       #432
      00FF4AF8H   LINE      CODE     ---       #433
      00FF4B0CH   LINE      CODE     ---       #434
      00FF4B2AH   LINE      CODE     ---       #435
      00FF4B59H   LINE      CODE     ---       #436
      00FF4B6DH   LINE      CODE     ---       #437
      00FF4B6DH   LINE      CODE     ---       #440
      00FF4B73H   LINE      CODE     ---       #441
      ---         BLOCKEND  ---      ---       LVL=0

      00FF9942H   BLOCK     CODE     ---       LVL=0
      0001172DH   SYMBOL    XDATA    ---       fifo
      00011731H   SYMBOL    XDATA    INT       type
      00011733H   SYMBOL    XDATA    ---       buffer_addr
      00011737H   SYMBOL    XDATA    DWORD     siz
      00FF9942H   LINE      CODE     ---       #549
      00FF9952H   LINE      CODE     ---       #551
      00FF9974H   LINE      CODE     ---       #552
      00FF9974H   LINE      CODE     ---       #554
      00FF9993H   LINE      CODE     ---       #555
      00FF99A1H   LINE      CODE     ---       #556
      00FF99B6H   LINE      CODE     ---       #557
      00FF99CDH   LINE      CODE     ---       #558
      00FF99E4H   LINE      CODE     ---       #559
      00FF9A03H   LINE      CODE     ---       #560
      00FF9A22H   LINE      CODE     ---       #561
      00FF9A22H   LINE      CODE     ---       #562
      00FF9A24H   LINE      CODE     ---       #563
      ---         BLOCKEND  ---      ---       LVL=0

      ---         MODULE    ---      ---       zf_common_font
      00FF3FD3H   PUBLIC    CODE     ---       ascii_font_8x16
      000000D0H   SFRSYM    DATA     BYTE      PSW
      0000009DH   SFRSYM    DATA     BYTE      IRCBAND
      00000097H   SFRSYM    DATA     BYTE      AUXR2
      000000EFH   SFRSYM    DATA     BYTE      AUXINTIF
      000000FDH   SFRSYM    DATA     BYTE      S4CON
      000000ACH   SFRSYM    DATA     BYTE      S3CON
      0000009AH   SFRSYM    DATA     BYTE      S2CON
      000000B7H   SFRSYM    DATA     BYTE      IPH
      000000CDH   SFRSYM    DATA     BYTE      SPSTAT
      000000DDH   SFRSYM    DATA     BYTE      T4T3M
      000000C1H   SFRSYM    DATA     BYTE      WDT_CONTR
      000000DFH   SFRSYM    DATA     BYTE      IP3
      000000F4H   SFRSYM    DATA     BYTE      USBCON
      000000B5H   SFRSYM    DATA     BYTE      IP2
      000000FFH   SFRSYM    DATA     BYTE      RSTCFG
      000000C7H   SFRSYM    DATA     BYTE      IAP_CONTR
      000000F9H   SFRSYM    DATA     BYTE      LINICR
      0000008EH   SFRSYM    DATA     BYTE      AUXR
      000000AFH   SFRSYM    DATA     BYTE      IE2
L251 LINKER/LOCATER V4.66.93.0                                                        03/30/2026  16:35:38  PAGE 51


      00000088H   SFRSYM    DATA     BYTE      TCON
      00000089H   SFRSYM    DATA     BYTE      TMOD
      00000098H   SFRSYM    DATA     BYTE      SCON
      000000F1H   SFRSYM    DATA     BYTE      CANICR
      00000087H   SFRSYM    DATA     BYTE      PCON
      000000BCH   SFRSYM    DATA     BYTE      ADC_CONTR
      000000E7H   SFRSYM    DATA     BYTE      CMPCR2
      000000E6H   SFRSYM    DATA     BYTE      CMPCR1
      000000DEH   SFRSYM    DATA     BYTE      ADCCFG
      000000B8H   SFRSYM    DATA     BYTE      IP
      0000008FH   SFRSYM    DATA     BYTE      INTCLKO
      000000EEH   SFRSYM    DATA     BYTE      IP3H
      000000B6H   SFRSYM    DATA     BYTE      IP2H
      000000A8H   SFRSYM    DATA     BYTE      IE
      000000BBH   SFRSYM    DATA     BYTE      P_SW3
      000000BAH   SFRSYM    DATA     BYTE      P_SW2
      000000A2H   SFRSYM    DATA     BYTE      P_SW1
      000000CEH   SFRSYM    DATA     BYTE      SPCTL
      000000F8H   SFRSYM    DATA     BYTE      P7
      000000E8H   SFRSYM    DATA     BYTE      P6
      000000C8H   SFRSYM    DATA     BYTE      P5
      000000C0H   SFRSYM    DATA     BYTE      P4
      000000B0H   SFRSYM    DATA     BYTE      P3
      000000A0H   SFRSYM    DATA     BYTE      P2
      00000090H   SFRSYM    DATA     BYTE      P1
      00000080H   SFRSYM    DATA     BYTE      P0

      ---         MODULE    ---      ---       zf_common_function
      00FF3071H   PUBLIC    CODE     ---       zf_sprintf
      00010D50H   PUBLIC    XDATA    BYTE      ?vsnprintf?BYTE
      00010C12H   PUBLIC    XDATA    BYTE      ?zf_sprintf?BYTE
      000000D0H   SFRSYM    DATA     BYTE      PSW
      0000009DH   SFRSYM    DATA     BYTE      IRCBAND
      00000097H   SFRSYM    DATA     BYTE      AUXR2
      000000EFH   SFRSYM    DATA     BYTE      AUXINTIF
      000000FDH   SFRSYM    DATA     BYTE      S4CON
      000000ACH   SFRSYM    DATA     BYTE      S3CON
      0000009AH   SFRSYM    DATA     BYTE      S2CON
      000000B7H   SFRSYM    DATA     BYTE      IPH
      000000CDH   SFRSYM    DATA     BYTE      SPSTAT
      000000DDH   SFRSYM    DATA     BYTE      T4T3M
      000000C1H   SFRSYM    DATA     BYTE      WDT_CONTR
      000000DFH   SFRSYM    DATA     BYTE      IP3
      000000F4H   SFRSYM    DATA     BYTE      USBCON
      000000B5H   SFRSYM    DATA     BYTE      IP2
      000000FFH   SFRSYM    DATA     BYTE      RSTCFG
      000000C7H   SFRSYM    DATA     BYTE      IAP_CONTR
      000000F9H   SFRSYM    DATA     BYTE      LINICR
      0000008EH   SFRSYM    DATA     BYTE      AUXR
      000000AFH   SFRSYM    DATA     BYTE      IE2
      00000088H   SFRSYM    DATA     BYTE      TCON
      00000089H   SFRSYM    DATA     BYTE      TMOD
      00000098H   SFRSYM    DATA     BYTE      SCON
      000000F1H   SFRSYM    DATA     BYTE      CANICR
      00000087H   SFRSYM    DATA     BYTE      PCON
      000000BCH   SFRSYM    DATA     BYTE      ADC_CONTR
      000000E7H   SFRSYM    DATA     BYTE      CMPCR2
      000000E6H   SFRSYM    DATA     BYTE      CMPCR1
      000000DEH   SFRSYM    DATA     BYTE      ADCCFG
      000000B8H   SFRSYM    DATA     BYTE      IP
      0000008FH   SFRSYM    DATA     BYTE      INTCLKO
      000000EEH   SFRSYM    DATA     BYTE      IP3H
      000000B6H   SFRSYM    DATA     BYTE      IP2H
      000000A8H   SFRSYM    DATA     BYTE      IE
      000000BBH   SFRSYM    DATA     BYTE      P_SW3
L251 LINKER/LOCATER V4.66.93.0                                                        03/30/2026  16:35:38  PAGE 52


      000000BAH   SFRSYM    DATA     BYTE      P_SW2
      000000A2H   SFRSYM    DATA     BYTE      P_SW1
      000000CEH   SFRSYM    DATA     BYTE      SPCTL
      000000F8H   SFRSYM    DATA     BYTE      P7
      000000E8H   SFRSYM    DATA     BYTE      P6
      000000C8H   SFRSYM    DATA     BYTE      P5
      000000C0H   SFRSYM    DATA     BYTE      P4
      000000B0H   SFRSYM    DATA     BYTE      P3
      000000A0H   SFRSYM    DATA     BYTE      P2
      00000090H   SFRSYM    DATA     BYTE      P1
      00000080H   SFRSYM    DATA     BYTE      P0
      00FFC38CH   SYMBOL    HCONST   ---       ?tpl?0001
      00FFC39CH   SYMBOL    HCONST   ---       ?tpl?0002
      00FF86F3H   SYMBOL    CODE     ---       number_conversion_ascii
      00FF9672H   SYMBOL    CODE     ---       printf_reverse_order
      00011C1CH   SYMBOL    XDATA    DWORD     num1
      00011C20H   SYMBOL    XDATA    DWORD     num2
      00011E64H   SYMBOL    XDATA    LONG      t
      00011B00H   SYMBOL    XDATA    ---       str
      00011B04H   SYMBOL    XDATA    BYTE      sign
      00011B05H   SYMBOL    XDATA    LONG      temp
      000112FCH   SYMBOL    XDATA    ---       str
      00011300H   SYMBOL    XDATA    LONG      number
      00011304H   SYMBOL    XDATA    ---       data_temp
      00011314H   SYMBOL    XDATA    BYTE      temp_bit
      00011315H   SYMBOL    XDATA    LONG      number_temp
      00011C24H   SYMBOL    XDATA    ---       str
      00011C28H   SYMBOL    XDATA    DWORD     temp
      00011384H   SYMBOL    XDATA    ---       str
      00011388H   SYMBOL    XDATA    DWORD     number
      0001138CH   SYMBOL    XDATA    ---       data_temp
      0001139CH   SYMBOL    XDATA    BYTE      temp_bit
      000115B9H   SYMBOL    XDATA    ---       str
      000115BDH   SYMBOL    XDATA    BYTE      sign
      000115BEH   SYMBOL    XDATA    FLOAT     temp
      000115C2H   SYMBOL    XDATA    FLOAT     temp_point
      000115C6H   SYMBOL    XDATA    FLOAT     point_bit
      00011118H   SYMBOL    XDATA    ---       str
      0001111CH   SYMBOL    XDATA    FLOAT     number
      00011120H   SYMBOL    XDATA    BYTE      point_bit
      00011121H   SYMBOL    XDATA    INT       data_int
      00011123H   SYMBOL    XDATA    INT       data_float
      00011125H   SYMBOL    XDATA    ---       data_temp
      00011135H   SYMBOL    XDATA    ---       data_temp_point
      00011141H   SYMBOL    XDATA    BYTE      temp_bit
      000115CAH   SYMBOL    XDATA    ---       str
      000115CEH   SYMBOL    XDATA    BYTE      sign
      000115CFH   SYMBOL    XDATA    FLOAT     temp
      000115D3H   SYMBOL    XDATA    FLOAT     temp_point
      000115D7H   SYMBOL    XDATA    FLOAT     point_bit
      00010F42H   SYMBOL    XDATA    ---       str
      00010F46H   SYMBOL    XDATA    FLOAT     number
      00010F4AH   SYMBOL    XDATA    BYTE      point_bit
      00010F4BH   SYMBOL    XDATA    INT       data_int
      00010F4DH   SYMBOL    XDATA    INT       data_float
      00010F4FH   SYMBOL    XDATA    ---       data_temp
      00010F67H   SYMBOL    XDATA    ---       data_temp_point
      00010F79H   SYMBOL    XDATA    BYTE      temp_bit
      0001173BH   SYMBOL    XDATA    ---       str
      0001173FH   SYMBOL    XDATA    DWORD     str_len
      00011743H   SYMBOL    XDATA    DWORD     result_data
      00011747H   SYMBOL    XDATA    BYTE      temp
      00011748H   SYMBOL    XDATA    BYTE      flag
      000111BCH   SYMBOL    XDATA    ---       str
      000111C0H   SYMBOL    XDATA    DWORD     number
L251 LINKER/LOCATER V4.66.93.0                                                        03/30/2026  16:35:38  PAGE 53


      000111C4H   SYMBOL    XDATA    ---       hex_index
      000111D4H   SYMBOL    XDATA    ---       data_temp
      000111E0H   SYMBOL    XDATA    BYTE      temp_bit

      00FF86F3H   BLOCK     CODE     ---       LVL=0
      00011486H   SYMBOL    XDATA    DWORD     dat
      0001148AH   SYMBOL    XDATA    ---       p
      0001148EH   SYMBOL    XDATA    BYTE      neg_type
      0001148FH   SYMBOL    XDATA    BYTE      radix
      00FF870BH   BLOCK     CODE     NEAR LAB  LVL=1
      00011490H   SYMBOL    XDATA    LONG      neg_dat
      00011494H   SYMBOL    XDATA    DWORD     pos_dat
      00011498H   SYMBOL    XDATA    BYTE      temp_data
      00011499H   SYMBOL    XDATA    BYTE      valid_num
      ---         BLOCKEND  ---      ---       LVL=1
      00FF86F3H   LINE      CODE     ---       #647
      00FF870BH   LINE      CODE     ---       #648
      00FF870BH   LINE      CODE     ---       #651
      00FF8710H   LINE      CODE     ---       #652
      00FF8715H   LINE      CODE     ---       #654
      00FF8721H   LINE      CODE     ---       #656
      00FF8735H   LINE      CODE     ---       #657
      00FF8745H   LINE      CODE     ---       #659
      00FF8763H   LINE      CODE     ---       #660
      00FF8763H   LINE      CODE     ---       #661
      00FF8763H   LINE      CODE     ---       #663
      00FF878BH   LINE      CODE     ---       #664
      00FF87A7H   LINE      CODE     ---       #665
      00FF87B2H   LINE      CODE     ---       #667
      00FF87C0H   LINE      CODE     ---       #669
      00FF87C0H   LINE      CODE     ---       #670
      00FF87C0H   LINE      CODE     ---       #671
      00FF87D3H   LINE      CODE     ---       #672
      00FF87D5H   LINE      CODE     ---       #673
      00FF87D8H   LINE      CODE     ---       #676
      00FF87ECH   LINE      CODE     ---       #677
      00FF87ECH   LINE      CODE     ---       #679
      00FF8807H   LINE      CODE     ---       #680
      00FF8813H   LINE      CODE     ---       #682
      00FF881DH   LINE      CODE     ---       #683
      00FF881FH   LINE      CODE     ---       #686
      00FF8829H   LINE      CODE     ---       #687
      00FF8829H   LINE      CODE     ---       #689
      00FF883AH   LINE      CODE     ---       #691
      00FF8856H   LINE      CODE     ---       #692
      00FF8861H   LINE      CODE     ---       #694
      00FF886FH   LINE      CODE     ---       #696
      00FF886FH   LINE      CODE     ---       #697
      00FF886FH   LINE      CODE     ---       #698
      00FF8882H   LINE      CODE     ---       #699
      00FF8885H   LINE      CODE     ---       #700
      00FF8885H   LINE      CODE     ---       #701
      00FF8889H   LINE      CODE     ---       #702
      ---         BLOCKEND  ---      ---       LVL=0

      00FF9672H   BLOCK     CODE     ---       LVL=0
      000117F1H   SYMBOL    XDATA    ---       d_buff
      000117F5H   SYMBOL    XDATA    DWORD     len
      00FF9686H   BLOCK     CODE     NEAR LAB  LVL=1
      000117F9H   SYMBOL    XDATA    DWORD     i
      000117FDH   SYMBOL    XDATA    CHAR      temp_data
      ---         BLOCKEND  ---      ---       LVL=1
      00FF9672H   LINE      CODE     ---       #712
      00FF9686H   LINE      CODE     ---       #713
      00FF9686H   LINE      CODE     ---       #716
L251 LINKER/LOCATER V4.66.93.0                                                        03/30/2026  16:35:38  PAGE 54


      00FF9695H   LINE      CODE     ---       #718
      00FF96C6H   LINE      CODE     ---       #719
      00FF970EH   LINE      CODE     ---       #720
      00FF972DH   LINE      CODE     ---       #721
      00FF976AH   LINE      CODE     ---       #722
      ---         BLOCKEND  ---      ---       LVL=0
      00010D50H   SYMBOL    XDATA    ---       buffer
      00010D54H   SYMBOL    XDATA    DWORD     siz
      00010D58H   SYMBOL    XDATA    ---       format
      00010D5CH   SYMBOL    XDATA    ---       args
      00010D60H   SYMBOL    XDATA    DWORD     i
      00010D64H   SYMBOL    XDATA    ---       ptr
      00010D68H   SYMBOL    XDATA    INT       j
      00010D6AH   SYMBOL    XDATA    INT       num
      00010D6CH   SYMBOL    XDATA    ---       temp
      00010D7CH   SYMBOL    XDATA    INT       len
      00010D7EH   SYMBOL    XDATA    INT       is_negative
      00010D80H   SYMBOL    XDATA    ---       str
      00010D84H   SYMBOL    XDATA    DWORD     num_x
      00010D88H   SYMBOL    XDATA    ---       temp_x
      00010D91H   SYMBOL    XDATA    ---       hex_digits
      00010DA2H   SYMBOL    XDATA    CHAR      t
      00010DA2H   SYMBOL    XDATA    CHAR      t

      00FF3071H   BLOCK     CODE     ---       LVL=0
      00010C12H   SYMBOL    XDATA    ---       buff
      00010C16H   SYMBOL    XDATA    ---       format
      00FF3085H   BLOCK     CODE     NEAR LAB  LVL=1
      00010C1AH   SYMBOL    XDATA    DWORD     buff_len
      00010C1EH   SYMBOL    XDATA    ---       arg
      00FF30A6H   BLOCK     CODE     NEAR LAB  LVL=2
      00010C22H   SYMBOL    XDATA    CHAR      ret
      00FF31EAH   BLOCK     CODE     NEAR LAB  LVL=3
      00010C23H   SYMBOL    XDATA    CHAR      ch
      ---         BLOCKEND  ---      ---       LVL=3
      00FF3250H   BLOCK     CODE     NEAR LAB  LVL=3
      00010C23H   SYMBOL    XDATA    ---       vstr
      00010C44H   SYMBOL    XDATA    LONG      ival
      00010C48H   SYMBOL    XDATA    BYTE      vlen
      ---         BLOCKEND  ---      ---       LVL=3
      00FF333BH   BLOCK     CODE     NEAR LAB  LVL=3
      00010C23H   SYMBOL    XDATA    ---       vstr
      00010C44H   SYMBOL    XDATA    FLOAT     ival
      00010C48H   SYMBOL    XDATA    BYTE      vlen
      ---         BLOCKEND  ---      ---       LVL=3
      00FF3578H   BLOCK     CODE     NEAR LAB  LVL=3
      00010C23H   SYMBOL    XDATA    ---       vstr
      00010C44H   SYMBOL    XDATA    DWORD     ival
      00010C48H   SYMBOL    XDATA    BYTE      vlen
      ---         BLOCKEND  ---      ---       LVL=3
      00FF362FH   BLOCK     CODE     NEAR LAB  LVL=3
      00010C23H   SYMBOL    XDATA    ---       vstr
      00010C44H   SYMBOL    XDATA    DWORD     ival
      00010C48H   SYMBOL    XDATA    BYTE      vlen
      ---         BLOCKEND  ---      ---       LVL=3
      00FF36E6H   BLOCK     CODE     NEAR LAB  LVL=3
      00010C23H   SYMBOL    XDATA    ---       vstr
      00010C44H   SYMBOL    XDATA    DWORD     ival
      00010C48H   SYMBOL    XDATA    BYTE      vlen
      ---         BLOCKEND  ---      ---       LVL=3
      00FF379DH   BLOCK     CODE     NEAR LAB  LVL=3
      00010C23H   SYMBOL    XDATA    ---       pc
      ---         BLOCKEND  ---      ---       LVL=3
      00FF3839H   BLOCK     CODE     NEAR LAB  LVL=3
      00010C23H   SYMBOL    XDATA    ---       vstr
L251 LINKER/LOCATER V4.66.93.0                                                        03/30/2026  16:35:38  PAGE 55


      00010C44H   SYMBOL    XDATA    DWORD     ival
      ---         BLOCKEND  ---      ---       LVL=3
      ---         BLOCKEND  ---      ---       LVL=2
      ---         BLOCKEND  ---      ---       LVL=1
      00FF3071H   LINE      CODE     ---       #875
      00FF3085H   LINE      CODE     ---       #876
      00FF3085H   LINE      CODE     ---       #877
      00FF3091H   LINE      CODE     ---       #879
      00FF30A3H   LINE      CODE     ---       #881
      00FF30A6H   LINE      CODE     ---       #882
      00FF30A6H   LINE      CODE     ---       #883
      00FF30B7H   LINE      CODE     ---       #884
      00FF30C3H   LINE      CODE     ---       #886
      00FF31E7H   LINE      CODE     ---       #888
      00FF31E7H   LINE      CODE     ---       #891
      00FF31EAH   LINE      CODE     ---       #893
      00FF31EAH   LINE      CODE     ---       #894
      00FF31EAH   LINE      CODE     ---       #895
      00FF3212H   LINE      CODE     ---       #896
      00FF3223H   LINE      CODE     ---       #897
      00FF3236H   LINE      CODE     ---       #898
      00FF324DH   LINE      CODE     ---       #900
      00FF3250H   LINE      CODE     ---       #902
      00FF3250H   LINE      CODE     ---       #903
      00FF3250H   LINE      CODE     ---       #904
      00FF3250H   LINE      CODE     ---       #906
      00FF327EH   LINE      CODE     ---       #907
      00FF329FH   LINE      CODE     ---       #909
      00FF32AFH   LINE      CODE     ---       #911
      00FF32C7H   LINE      CODE     ---       #912
      00FF32D2H   LINE      CODE     ---       #913
      00FF32D2H   LINE      CODE     ---       #914
      00FF32E5H   LINE      CODE     ---       #915
      00FF3304H   LINE      CODE     ---       #916
      00FF331DH   LINE      CODE     ---       #917
      00FF3338H   LINE      CODE     ---       #919
      00FF333BH   LINE      CODE     ---       #921
      00FF333BH   LINE      CODE     ---       #922
      00FF333BH   LINE      CODE     ---       #923
      00FF333BH   LINE      CODE     ---       #925
      00FF3369H   LINE      CODE     ---       #926
      00FF338DH   LINE      CODE     ---       #928
      00FF339EH   LINE      CODE     ---       #930
      00FF33B6H   LINE      CODE     ---       #931
      00FF33C1H   LINE      CODE     ---       #932
      00FF33C1H   LINE      CODE     ---       #933
      00FF33D4H   LINE      CODE     ---       #934
      00FF33F3H   LINE      CODE     ---       #935
      00FF340CH   LINE      CODE     ---       #936
      00FF3427H   LINE      CODE     ---       #938
      00FF345DH   LINE      CODE     ---       #939
      00FF346BH   LINE      CODE     ---       #941
      00FF348FH   LINE      CODE     ---       #942
      00FF3491H   LINE      CODE     ---       #945
      00FF34B5H   LINE      CODE     ---       #946
      00FF34BBH   LINE      CODE     ---       #947
      00FF34BBH   LINE      CODE     ---       #949
      00FF34BDH   LINE      CODE     ---       #951
      00FF34D5H   LINE      CODE     ---       #952
      00FF34E0H   LINE      CODE     ---       #953
      00FF34ECH   LINE      CODE     ---       #955
      00FF3504H   LINE      CODE     ---       #956
      00FF350FH   LINE      CODE     ---       #958
      00FF3522H   LINE      CODE     ---       #959
      00FF3541H   LINE      CODE     ---       #960
L251 LINKER/LOCATER V4.66.93.0                                                        03/30/2026  16:35:38  PAGE 56


      00FF355AH   LINE      CODE     ---       #961
      00FF3575H   LINE      CODE     ---       #963
      00FF3578H   LINE      CODE     ---       #965
      00FF3578H   LINE      CODE     ---       #966
      00FF3578H   LINE      CODE     ---       #968
      00FF35A6H   LINE      CODE     ---       #969
      00FF35C6H   LINE      CODE     ---       #971
      00FF35D9H   LINE      CODE     ---       #972
      00FF35F8H   LINE      CODE     ---       #973
      00FF3611H   LINE      CODE     ---       #974
      00FF362CH   LINE      CODE     ---       #976
      00FF362FH   LINE      CODE     ---       #978
      00FF362FH   LINE      CODE     ---       #979
      00FF362FH   LINE      CODE     ---       #981
      00FF365DH   LINE      CODE     ---       #982
      00FF367DH   LINE      CODE     ---       #984
      00FF3690H   LINE      CODE     ---       #985
      00FF36AFH   LINE      CODE     ---       #986
      00FF36C8H   LINE      CODE     ---       #987
      00FF36E3H   LINE      CODE     ---       #990
      00FF36E6H   LINE      CODE     ---       #992
      00FF36E6H   LINE      CODE     ---       #993
      00FF36E6H   LINE      CODE     ---       #994
      00FF36E6H   LINE      CODE     ---       #996
      00FF3714H   LINE      CODE     ---       #997
      00FF3734H   LINE      CODE     ---       #999
      00FF3747H   LINE      CODE     ---       #1000
      00FF3766H   LINE      CODE     ---       #1001
      00FF377FH   LINE      CODE     ---       #1002
      00FF379AH   LINE      CODE     ---       #1004
      00FF379DH   LINE      CODE     ---       #1006
      00FF379DH   LINE      CODE     ---       #1007
      00FF379DH   LINE      CODE     ---       #1008
      00FF37CBH   LINE      CODE     ---       #1009
      00FF37CDH   LINE      CODE     ---       #1011
      00FF37E7H   LINE      CODE     ---       #1012
      00FF37FAH   LINE      CODE     ---       #1013
      00FF3811H   LINE      CODE     ---       #1014
      00FF3824H   LINE      CODE     ---       #1015
      00FF3836H   LINE      CODE     ---       #1017
      00FF3839H   LINE      CODE     ---       #1019
      00FF3839H   LINE      CODE     ---       #1020
      00FF3839H   LINE      CODE     ---       #1022
      00FF3867H   LINE      CODE     ---       #1024
      00FF3883H   LINE      CODE     ---       #1025
      00FF3892H   LINE      CODE     ---       #1026
      00FF38AFH   LINE      CODE     ---       #1027
      00FF38C4H   LINE      CODE     ---       #1028
      00FF38DBH   LINE      CODE     ---       #1030
      00FF38DEH   LINE      CODE     ---       #1032
      00FF38DEH   LINE      CODE     ---       #1034
      00FF38EDH   LINE      CODE     ---       #1035
      00FF3900H   LINE      CODE     ---       #1036
      00FF3917H   LINE      CODE     ---       #1038
      00FF3919H   LINE      CODE     ---       #1040
      00FF3919H   LINE      CODE     ---       #1041
      00FF3919H   LINE      CODE     ---       #1042
      00FF3919H   LINE      CODE     ---       #1043
      00FF3919H   LINE      CODE     ---       #1046
      00FF3933H   LINE      CODE     ---       #1047
      00FF3946H   LINE      CODE     ---       #1048
      00FF395DH   LINE      CODE     ---       #1049
      00FF395DH   LINE      CODE     ---       #1050
      00FF3970H   LINE      CODE     ---       #1051
      00FF3985H   LINE      CODE     ---       #1054
L251 LINKER/LOCATER V4.66.93.0                                                        03/30/2026  16:35:38  PAGE 57


      00FF398FH   LINE      CODE     ---       #1055
      ---         BLOCKEND  ---      ---       LVL=0

      ---         MODULE    ---      ---       zf_common_typedef
      000112C0H   PUBLIC    XDATA    ---       tim11_irq_handler
      000112C2H   PUBLIC    XDATA    ---       uart1_irq_handler
      000112C4H   PUBLIC    XDATA    ---       uart2_irq_handler
      000112C6H   PUBLIC    XDATA    ---       uart3_irq_handler
      000112C8H   PUBLIC    XDATA    ---       uart4_irq_handler
      000112CAH   PUBLIC    XDATA    ---       tim0_irq_handler
      000112CCH   PUBLIC    XDATA    ---       int0_irq_handler
      000112CEH   PUBLIC    XDATA    ---       tim1_irq_handler
      000112D0H   PUBLIC    XDATA    ---       int1_irq_handler
      000112D2H   PUBLIC    XDATA    ---       tim2_irq_handler
      000112D4H   PUBLIC    XDATA    ---       int2_irq_handler
      000112D6H   PUBLIC    XDATA    ---       tim3_irq_handler
      000112D8H   PUBLIC    XDATA    ---       int3_irq_handler
      000112DAH   PUBLIC    XDATA    ---       tim4_irq_handler
      000112DCH   PUBLIC    XDATA    ---       int4_irq_handler
      000000D0H   SFRSYM    DATA     BYTE      PSW
      0000009DH   SFRSYM    DATA     BYTE      IRCBAND
      00000097H   SFRSYM    DATA     BYTE      AUXR2
      000000EFH   SFRSYM    DATA     BYTE      AUXINTIF
      000000FDH   SFRSYM    DATA     BYTE      S4CON
      000000ACH   SFRSYM    DATA     BYTE      S3CON
      0000009AH   SFRSYM    DATA     BYTE      S2CON
      000000B7H   SFRSYM    DATA     BYTE      IPH
      000000CDH   SFRSYM    DATA     BYTE      SPSTAT
      000000DDH   SFRSYM    DATA     BYTE      T4T3M
      000000C1H   SFRSYM    DATA     BYTE      WDT_CONTR
      000000DFH   SFRSYM    DATA     BYTE      IP3
      000000F4H   SFRSYM    DATA     BYTE      USBCON
      000000B5H   SFRSYM    DATA     BYTE      IP2
      000000FFH   SFRSYM    DATA     BYTE      RSTCFG
      000000C7H   SFRSYM    DATA     BYTE      IAP_CONTR
      000000F9H   SFRSYM    DATA     BYTE      LINICR
      0000008EH   SFRSYM    DATA     BYTE      AUXR
      000000AFH   SFRSYM    DATA     BYTE      IE2
      00000088H   SFRSYM    DATA     BYTE      TCON
      00000089H   SFRSYM    DATA     BYTE      TMOD
      00000098H   SFRSYM    DATA     BYTE      SCON
      000000F1H   SFRSYM    DATA     BYTE      CANICR
      00000087H   SFRSYM    DATA     BYTE      PCON
      000000BCH   SFRSYM    DATA     BYTE      ADC_CONTR
      000000E7H   SFRSYM    DATA     BYTE      CMPCR2
      000000E6H   SFRSYM    DATA     BYTE      CMPCR1
      000000DEH   SFRSYM    DATA     BYTE      ADCCFG
      000000B8H   SFRSYM    DATA     BYTE      IP
      0000008FH   SFRSYM    DATA     BYTE      INTCLKO
      000000EEH   SFRSYM    DATA     BYTE      IP3H
      000000B6H   SFRSYM    DATA     BYTE      IP2H
      000000A8H   SFRSYM    DATA     BYTE      IE
      000000BBH   SFRSYM    DATA     BYTE      P_SW3
      000000BAH   SFRSYM    DATA     BYTE      P_SW2
      000000A2H   SFRSYM    DATA     BYTE      P_SW1
      000000CEH   SFRSYM    DATA     BYTE      SPCTL
      000000F8H   SFRSYM    DATA     BYTE      P7
      000000E8H   SFRSYM    DATA     BYTE      P6
      000000C8H   SFRSYM    DATA     BYTE      P5
      000000C0H   SFRSYM    DATA     BYTE      P4
      000000B0H   SFRSYM    DATA     BYTE      P3
      000000A0H   SFRSYM    DATA     BYTE      P2
      00000090H   SFRSYM    DATA     BYTE      P1
      00000080H   SFRSYM    DATA     BYTE      P0

L251 LINKER/LOCATER V4.66.93.0                                                        03/30/2026  16:35:38  PAGE 58


      ---         MODULE    ---      ---       zf_common_interrupt
      00FF0006H   PUBLIC    CODE     ---       interrupt_global_enable
      000000D0H   SFRSYM    DATA     BYTE      PSW
      0000009DH   SFRSYM    DATA     BYTE      IRCBAND
      00000097H   SFRSYM    DATA     BYTE      AUXR2
      000000EFH   SFRSYM    DATA     BYTE      AUXINTIF
      000000FDH   SFRSYM    DATA     BYTE      S4CON
      000000ACH   SFRSYM    DATA     BYTE      S3CON
      0000009AH   SFRSYM    DATA     BYTE      S2CON
      000000B7H   SFRSYM    DATA     BYTE      IPH
      000000CDH   SFRSYM    DATA     BYTE      SPSTAT
      000000DDH   SFRSYM    DATA     BYTE      T4T3M
      000000C1H   SFRSYM    DATA     BYTE      WDT_CONTR
      000000DFH   SFRSYM    DATA     BYTE      IP3
      000000F4H   SFRSYM    DATA     BYTE      USBCON
      000000B5H   SFRSYM    DATA     BYTE      IP2
      000000FFH   SFRSYM    DATA     BYTE      RSTCFG
      000000C7H   SFRSYM    DATA     BYTE      IAP_CONTR
      000000F9H   SFRSYM    DATA     BYTE      LINICR
      0000008EH   SFRSYM    DATA     BYTE      AUXR
      000000AFH   SFRSYM    DATA     BYTE      IE2
      00000088H   SFRSYM    DATA     BYTE      TCON
      00000089H   SFRSYM    DATA     BYTE      TMOD
      00000098H   SFRSYM    DATA     BYTE      SCON
      000000F1H   SFRSYM    DATA     BYTE      CANICR
      00000087H   SFRSYM    DATA     BYTE      PCON
      000000BCH   SFRSYM    DATA     BYTE      ADC_CONTR
      000000E7H   SFRSYM    DATA     BYTE      CMPCR2
      000000E6H   SFRSYM    DATA     BYTE      CMPCR1
      000000DEH   SFRSYM    DATA     BYTE      ADCCFG
      000000B8H   SFRSYM    DATA     BYTE      IP
      0000008FH   SFRSYM    DATA     BYTE      INTCLKO
      000000EEH   SFRSYM    DATA     BYTE      IP3H
      000000B6H   SFRSYM    DATA     BYTE      IP2H
      000000A8H   SFRSYM    DATA     BYTE      IE
      000000BBH   SFRSYM    DATA     BYTE      P_SW3
      000000BAH   SFRSYM    DATA     BYTE      P_SW2
      000000A2H   SFRSYM    DATA     BYTE      P_SW1
      000000CEH   SFRSYM    DATA     BYTE      SPCTL
      000000F8H   SFRSYM    DATA     BYTE      P7
      000000A8H.7 SFRSYM    DATA     BIT       EA
      000000E8H   SFRSYM    DATA     BYTE      P6
      000000C8H   SFRSYM    DATA     BYTE      P5
      000000C0H   SFRSYM    DATA     BYTE      P4
      000000B0H   SFRSYM    DATA     BYTE      P3
      000000A0H   SFRSYM    DATA     BYTE      P2
      00000090H   SFRSYM    DATA     BYTE      P1
      00000080H   SFRSYM    DATA     BYTE      P0
      00011EF8H   SYMBOL    XDATA    INT       irqn
      00011EFAH   SYMBOL    XDATA    BYTE      priority

      00FF0006H   BLOCK     CODE     ---       LVL=0
      00FF0006H   LINE      CODE     ---       #88
      00FF0006H   LINE      CODE     ---       #90
      00FF0009H   LINE      CODE     ---       #91
      ---         BLOCKEND  ---      ---       LVL=0

      ---         MODULE    ---      ---       zf_driver_adc
      00011A27H   PUBLIC    XDATA    ---       adc_average
      00000094H   SFRSYM    DATA     BYTE      P0M0
      000000D0H   SFRSYM    DATA     BYTE      PSW
      0000009DH   SFRSYM    DATA     BYTE      IRCBAND
      00000097H   SFRSYM    DATA     BYTE      AUXR2
      000000EFH   SFRSYM    DATA     BYTE      AUXINTIF
      000000FDH   SFRSYM    DATA     BYTE      S4CON
L251 LINKER/LOCATER V4.66.93.0                                                        03/30/2026  16:35:38  PAGE 59


      000000ACH   SFRSYM    DATA     BYTE      S3CON
      0000009AH   SFRSYM    DATA     BYTE      S2CON
      000000B7H   SFRSYM    DATA     BYTE      IPH
      000000CDH   SFRSYM    DATA     BYTE      SPSTAT
      000000BEH   SFRSYM    DATA     BYTE      ADC_RESL
      000000DDH   SFRSYM    DATA     BYTE      T4T3M
      000000C1H   SFRSYM    DATA     BYTE      WDT_CONTR
      000000DFH   SFRSYM    DATA     BYTE      IP3
      000000F4H   SFRSYM    DATA     BYTE      USBCON
      000000B5H   SFRSYM    DATA     BYTE      IP2
      000000FFH   SFRSYM    DATA     BYTE      RSTCFG
      000000C7H   SFRSYM    DATA     BYTE      IAP_CONTR
      000000F9H   SFRSYM    DATA     BYTE      LINICR
      0000008EH   SFRSYM    DATA     BYTE      AUXR
      000000AFH   SFRSYM    DATA     BYTE      IE2
      00000088H   SFRSYM    DATA     BYTE      TCON
      00000089H   SFRSYM    DATA     BYTE      TMOD
      00000098H   SFRSYM    DATA     BYTE      SCON
      000000F1H   SFRSYM    DATA     BYTE      CANICR
      00000087H   SFRSYM    DATA     BYTE      PCON
      000000BCH   SFRSYM    DATA     BYTE      ADC_CONTR
      000000E7H   SFRSYM    DATA     BYTE      CMPCR2
      000000E6H   SFRSYM    DATA     BYTE      CMPCR1
      000000DEH   SFRSYM    DATA     BYTE      ADCCFG
      000000B8H   SFRSYM    DATA     BYTE      IP
      0000008FH   SFRSYM    DATA     BYTE      INTCLKO
      000000EEH   SFRSYM    DATA     BYTE      IP3H
      000000B6H   SFRSYM    DATA     BYTE      IP2H
      000000BDH   SFRSYM    DATA     BYTE      ADC_RES
      000000A8H   SFRSYM    DATA     BYTE      IE
      000000BBH   SFRSYM    DATA     BYTE      P_SW3
      000000BAH   SFRSYM    DATA     BYTE      P_SW2
      000000A2H   SFRSYM    DATA     BYTE      P_SW1
      000000CEH   SFRSYM    DATA     BYTE      SPCTL
      000000F8H   SFRSYM    DATA     BYTE      P7
      000000E8H   SFRSYM    DATA     BYTE      P6
      000000C8H   SFRSYM    DATA     BYTE      P5
      000000C0H   SFRSYM    DATA     BYTE      P4
      000000B0H   SFRSYM    DATA     BYTE      P3
      000000A0H   SFRSYM    DATA     BYTE      P2
      00000090H   SFRSYM    DATA     BYTE      P1
      00000080H   SFRSYM    DATA     BYTE      P0
      00000091H   SFRSYM    DATA     BYTE      P1M1
      00000092H   SFRSYM    DATA     BYTE      P1M0
      00000093H   SFRSYM    DATA     BYTE      P0M1
      00011A26H   SYMBOL    XDATA    BYTE      adc_resolution
      00011A7EH   SYMBOL    XDATA    INT       ch
      00011A80H   SYMBOL    XDATA    BYTE      count
      00011A81H   SYMBOL    XDATA    BYTE      i
      00011A82H   SYMBOL    XDATA    WORD      sum
      00011A84H   SYMBOL    XDATA    WORD      min
      00011A86H   SYMBOL    XDATA    WORD      max
      00011E68H   SYMBOL    XDATA    INT       ch
      00011E6AH   SYMBOL    XDATA    WORD      adc_value
      00011E6CH   SYMBOL    XDATA    INT       ch
      00011E6EH   SYMBOL    XDATA    INT       resolution

      ---         MODULE    ---      ---       zf_driver_delay
      00FFAE13H   PUBLIC    CODE     ---       system_delay_init
      00FFB51DH   PUBLIC    CODE     ---       system_delay_ms
      000000D0H   SFRSYM    DATA     BYTE      PSW
      0000009DH   SFRSYM    DATA     BYTE      IRCBAND
      00000097H   SFRSYM    DATA     BYTE      AUXR2
      000000EFH   SFRSYM    DATA     BYTE      AUXINTIF
      000000FDH   SFRSYM    DATA     BYTE      S4CON
L251 LINKER/LOCATER V4.66.93.0                                                        03/30/2026  16:35:38  PAGE 60


      000000ACH   SFRSYM    DATA     BYTE      S3CON
      0000009AH   SFRSYM    DATA     BYTE      S2CON
      000000B7H   SFRSYM    DATA     BYTE      IPH
      000000CDH   SFRSYM    DATA     BYTE      SPSTAT
      000000DDH   SFRSYM    DATA     BYTE      T4T3M
      000000C1H   SFRSYM    DATA     BYTE      WDT_CONTR
      000000DFH   SFRSYM    DATA     BYTE      IP3
      000000F4H   SFRSYM    DATA     BYTE      USBCON
      000000B5H   SFRSYM    DATA     BYTE      IP2
      000000FFH   SFRSYM    DATA     BYTE      RSTCFG
      000000C7H   SFRSYM    DATA     BYTE      IAP_CONTR
      000000F9H   SFRSYM    DATA     BYTE      LINICR
      0000008EH   SFRSYM    DATA     BYTE      AUXR
      000000AFH   SFRSYM    DATA     BYTE      IE2
      00000088H   SFRSYM    DATA     BYTE      TCON
      00000089H   SFRSYM    DATA     BYTE      TMOD
      00000098H   SFRSYM    DATA     BYTE      SCON
      000000F1H   SFRSYM    DATA     BYTE      CANICR
      00000087H   SFRSYM    DATA     BYTE      PCON
      000000BCH   SFRSYM    DATA     BYTE      ADC_CONTR
      000000E7H   SFRSYM    DATA     BYTE      CMPCR2
      000000E6H   SFRSYM    DATA     BYTE      CMPCR1
      000000DEH   SFRSYM    DATA     BYTE      ADCCFG
      000000B8H   SFRSYM    DATA     BYTE      IP
      0000008FH   SFRSYM    DATA     BYTE      INTCLKO
      000000EEH   SFRSYM    DATA     BYTE      IP3H
      000000B6H   SFRSYM    DATA     BYTE      IP2H
      000000A8H   SFRSYM    DATA     BYTE      IE
      000000BBH   SFRSYM    DATA     BYTE      P_SW3
      000000BAH   SFRSYM    DATA     BYTE      P_SW2
      000000A2H   SFRSYM    DATA     BYTE      P_SW1
      000000CEH   SFRSYM    DATA     BYTE      SPCTL
      000000F8H   SFRSYM    DATA     BYTE      P7
      000000E8H   SFRSYM    DATA     BYTE      P6
      000000C8H   SFRSYM    DATA     BYTE      P5
      000000C0H   SFRSYM    DATA     BYTE      P4
      000000B0H   SFRSYM    DATA     BYTE      P3
      000000A0H   SFRSYM    DATA     BYTE      P2
      00000090H   SFRSYM    DATA     BYTE      P1
      00000080H   SFRSYM    DATA     BYTE      P0
      00FFB5F1H   SYMBOL    CODE     ---       delay_cycles
      00011E70H   SYMBOL    XDATA    WORD      zf_delay_1ms
      00011E72H   SYMBOL    XDATA    WORD      zf_delay_1us

      00FFB5F1H   BLOCK     CODE     ---       LVL=0
      00011F1FH   SYMBOL    XDATA    WORD      cycles
      00FFB5F1H   LINE      CODE     ---       #44
      00FFB5F7H   LINE      CODE     ---       #47
      00FFB5F7H   LINE      CODE     ---       #50
      00FFB60EH   LINE      CODE     ---       #51
      ---         BLOCKEND  ---      ---       LVL=0

      00FFAE13H   BLOCK     CODE     ---       LVL=0
      00FFAE13H   LINE      CODE     ---       #59
      00FFAE13H   LINE      CODE     ---       #61
      00FFAE2AH   LINE      CODE     ---       #62
      00FFAE45H   LINE      CODE     ---       #63
      00FFAE6AH   LINE      CODE     ---       #64
      ---         BLOCKEND  ---      ---       LVL=0

      00FFB51DH   BLOCK     CODE     ---       LVL=0
      00011F21H   SYMBOL    XDATA    WORD      ms
      00FFB51DH   LINE      CODE     ---       #72
      00FFB523H   LINE      CODE     ---       #74
      00FFB523H   LINE      CODE     ---       #76
L251 LINKER/LOCATER V4.66.93.0                                                        03/30/2026  16:35:38  PAGE 61


      00FFB52CH   LINE      CODE     ---       #77
      00FFB541H   LINE      CODE     ---       #78
      ---         BLOCKEND  ---      ---       LVL=0
      00011F23H   SYMBOL    XDATA    WORD      us

      ---         MODULE    ---      ---       zf_driver_eeprom
      00011A88H   PUBLIC    XDATA    BYTE      ?iap_read_buff?BYTE
      00011A92H   PUBLIC    XDATA    BYTE      ?iap_write_buff?BYTE
      000000D0H   SFRSYM    DATA     BYTE      PSW
      0000009DH   SFRSYM    DATA     BYTE      IRCBAND
      00000097H   SFRSYM    DATA     BYTE      AUXR2
      000000C6H   SFRSYM    DATA     BYTE      IAP_TRIG
      000000EFH   SFRSYM    DATA     BYTE      AUXINTIF
      000000FDH   SFRSYM    DATA     BYTE      S4CON
      000000ACH   SFRSYM    DATA     BYTE      S3CON
      0000009AH   SFRSYM    DATA     BYTE      S2CON
      000000B7H   SFRSYM    DATA     BYTE      IPH
      000000CDH   SFRSYM    DATA     BYTE      SPSTAT
      000000DDH   SFRSYM    DATA     BYTE      T4T3M
      000000C1H   SFRSYM    DATA     BYTE      WDT_CONTR
      000000C2H   SFRSYM    DATA     BYTE      IAP_DATA
      000000DFH   SFRSYM    DATA     BYTE      IP3
      000000F4H   SFRSYM    DATA     BYTE      USBCON
      000000B5H   SFRSYM    DATA     BYTE      IP2
      000000FFH   SFRSYM    DATA     BYTE      RSTCFG
      000000C7H   SFRSYM    DATA     BYTE      IAP_CONTR
      000000F9H   SFRSYM    DATA     BYTE      LINICR
      0000008EH   SFRSYM    DATA     BYTE      AUXR
      000000AFH   SFRSYM    DATA     BYTE      IE2
      00000088H   SFRSYM    DATA     BYTE      TCON
      00000089H   SFRSYM    DATA     BYTE      TMOD
      00000098H   SFRSYM    DATA     BYTE      SCON
      000000F5H   SFRSYM    DATA     BYTE      IAP_TPS
      000000F1H   SFRSYM    DATA     BYTE      CANICR
      00000087H   SFRSYM    DATA     BYTE      PCON
      000000BCH   SFRSYM    DATA     BYTE      ADC_CONTR
      000000E7H   SFRSYM    DATA     BYTE      CMPCR2
      000000E6H   SFRSYM    DATA     BYTE      CMPCR1
      000000C4H   SFRSYM    DATA     BYTE      IAP_ADDRL
      000000C3H   SFRSYM    DATA     BYTE      IAP_ADDRH
      000000F6H   SFRSYM    DATA     BYTE      IAP_ADDRE
      000000DEH   SFRSYM    DATA     BYTE      ADCCFG
      000000B8H   SFRSYM    DATA     BYTE      IP
      0000008FH   SFRSYM    DATA     BYTE      INTCLKO
      000000EEH   SFRSYM    DATA     BYTE      IP3H
      000000B6H   SFRSYM    DATA     BYTE      IP2H
      000000C5H   SFRSYM    DATA     BYTE      IAP_CMD
      000000A8H   SFRSYM    DATA     BYTE      IE
      000000BBH   SFRSYM    DATA     BYTE      P_SW3
      000000BAH   SFRSYM    DATA     BYTE      P_SW2
      000000A2H   SFRSYM    DATA     BYTE      P_SW1
      000000CEH   SFRSYM    DATA     BYTE      SPCTL
      000000F8H   SFRSYM    DATA     BYTE      P7
      000000A8H.7 SFRSYM    DATA     BIT       EA
      000000E8H   SFRSYM    DATA     BYTE      P6
      000000C8H   SFRSYM    DATA     BYTE      P5
      000000C0H   SFRSYM    DATA     BYTE      P4
      000000B0H   SFRSYM    DATA     BYTE      P3
      000000A0H   SFRSYM    DATA     BYTE      P2
      00000090H   SFRSYM    DATA     BYTE      P1
      00000080H   SFRSYM    DATA     BYTE      P0
      00FFBB6DH   SYMBOL    HCONST   ---       ?tpl?0001
      00011F6AH   SYMBOL    XDATA    BYTE      write_time
      00011DF0H   SYMBOL    XDATA    DWORD     addr
      00011DF4H   SYMBOL    XDATA    BYTE      temp
L251 LINKER/LOCATER V4.66.93.0                                                        03/30/2026  16:35:38  PAGE 62


      00000020H.0 SYMBOL    BIT      BIT       flag
      00011DF5H   SYMBOL    XDATA    DWORD     addr
      00011DF9H   SYMBOL    XDATA    BYTE      byte
      00000020H.1 SYMBOL    BIT      BIT       flag
      00011A88H   SYMBOL    XDATA    DWORD     addr
      00011A8CH   SYMBOL    XDATA    ---       buf
      00011A90H   SYMBOL    XDATA    WORD      len
      00011A92H   SYMBOL    XDATA    DWORD     addr
      00011A96H   SYMBOL    XDATA    ---       buf
      00011A9AH   SYMBOL    XDATA    WORD      len
      00011E74H   SYMBOL    XDATA    DWORD     addr
      00000020H.2 SYMBOL    BIT      BIT       flag
      00010000H   SYMBOL    XDATA    WORD      addr
      00010002H   SYMBOL    XDATA    ---       buf
      00010006H   SYMBOL    XDATA    WORD      len
      00010008H   SYMBOL    XDATA    ---       temp
      00010208H   SYMBOL    XDATA    WORD      i

      ---         MODULE    ---      ---       zf_driver_encoder
      00FF9569H   PUBLIC    CODE     ---       encoder_get_count
      00FF945CH   PUBLIC    CODE     ---       encoder_dir_init
      00FFAB2AH   PUBLIC    CODE     ---       encoder_clear_count
      000000D0H   SFRSYM    DATA     BYTE      PSW
      0000009DH   SFRSYM    DATA     BYTE      IRCBAND
      00000097H   SFRSYM    DATA     BYTE      AUXR2
      000000EFH   SFRSYM    DATA     BYTE      AUXINTIF
      000000FDH   SFRSYM    DATA     BYTE      S4CON
      000000ACH   SFRSYM    DATA     BYTE      S3CON
      0000009AH   SFRSYM    DATA     BYTE      S2CON
      000000B7H   SFRSYM    DATA     BYTE      IPH
      000000CDH   SFRSYM    DATA     BYTE      SPSTAT
      000000DDH   SFRSYM    DATA     BYTE      T4T3M
      000000C1H   SFRSYM    DATA     BYTE      WDT_CONTR
      00000088H.6 SFRSYM    DATA     BIT       TR1
      00000088H.4 SFRSYM    DATA     BIT       TR0
      000000D3H   SFRSYM    DATA     BYTE      T4L
      000000D5H   SFRSYM    DATA     BYTE      T3L
      000000D7H   SFRSYM    DATA     BYTE      T2L
      0000008BH   SFRSYM    DATA     BYTE      TL1
      0000008AH   SFRSYM    DATA     BYTE      TL0
      000000D2H   SFRSYM    DATA     BYTE      T4H
      000000D4H   SFRSYM    DATA     BYTE      T3H
      000000D6H   SFRSYM    DATA     BYTE      T2H
      0000008DH   SFRSYM    DATA     BYTE      TH1
      0000008CH   SFRSYM    DATA     BYTE      TH0
      000000DFH   SFRSYM    DATA     BYTE      IP3
      000000F4H   SFRSYM    DATA     BYTE      USBCON
      000000B5H   SFRSYM    DATA     BYTE      IP2
      000000FFH   SFRSYM    DATA     BYTE      RSTCFG
      000000C7H   SFRSYM    DATA     BYTE      IAP_CONTR
      000000F9H   SFRSYM    DATA     BYTE      LINICR
      0000008EH   SFRSYM    DATA     BYTE      AUXR
      000000AFH   SFRSYM    DATA     BYTE      IE2
      00000088H   SFRSYM    DATA     BYTE      TCON
      00000089H   SFRSYM    DATA     BYTE      TMOD
      00000098H   SFRSYM    DATA     BYTE      SCON
      000000F1H   SFRSYM    DATA     BYTE      CANICR
      00000087H   SFRSYM    DATA     BYTE      PCON
      000000BCH   SFRSYM    DATA     BYTE      ADC_CONTR
      000000E7H   SFRSYM    DATA     BYTE      CMPCR2
      000000E6H   SFRSYM    DATA     BYTE      CMPCR1
      000000DEH   SFRSYM    DATA     BYTE      ADCCFG
      000000B8H   SFRSYM    DATA     BYTE      IP
      0000008FH   SFRSYM    DATA     BYTE      INTCLKO
      000000EEH   SFRSYM    DATA     BYTE      IP3H
L251 LINKER/LOCATER V4.66.93.0                                                        03/30/2026  16:35:38  PAGE 63


      000000B6H   SFRSYM    DATA     BYTE      IP2H
      000000A8H   SFRSYM    DATA     BYTE      IE
      000000BBH   SFRSYM    DATA     BYTE      P_SW3
      000000BAH   SFRSYM    DATA     BYTE      P_SW2
      000000A2H   SFRSYM    DATA     BYTE      P_SW1
      000000CEH   SFRSYM    DATA     BYTE      SPCTL
      000000F8H   SFRSYM    DATA     BYTE      P7
      000000E8H   SFRSYM    DATA     BYTE      P6
      000000C8H   SFRSYM    DATA     BYTE      P5
      000000C0H   SFRSYM    DATA     BYTE      P4
      000000B0H   SFRSYM    DATA     BYTE      P3
      000000A0H   SFRSYM    DATA     BYTE      P2
      00000090H   SFRSYM    DATA     BYTE      P1
      00000080H   SFRSYM    DATA     BYTE      P0
      00011D24H   SYMBOL    XDATA    ---       encoder_dir_pin

      00FF9569H   BLOCK     CODE     ---       LVL=0
      00011E78H   SYMBOL    XDATA    INT       encoder_n
      00FF956FH   BLOCK     CODE     NEAR LAB  LVL=1
      00011E7AH   SYMBOL    XDATA    INT       dat
      ---         BLOCKEND  ---      ---       LVL=1
      00FF9569H   LINE      CODE     ---       #47
      00FF956FH   LINE      CODE     ---       #48
      00FF956FH   LINE      CODE     ---       #49
      00FF9577H   LINE      CODE     ---       #50
      00FF9597H   LINE      CODE     ---       #52
      00FF9597H   LINE      CODE     ---       #54
      00FF95A5H   LINE      CODE     ---       #55
      00FF95B7H   LINE      CODE     ---       #56
      00FF95BAH   LINE      CODE     ---       #58
      00FF95BAH   LINE      CODE     ---       #60
      00FF95C8H   LINE      CODE     ---       #61
      00FF95DAH   LINE      CODE     ---       #62
      00FF95DCH   LINE      CODE     ---       #64
      00FF95DCH   LINE      CODE     ---       #66
      00FF95EAH   LINE      CODE     ---       #67
      00FF95FCH   LINE      CODE     ---       #68
      00FF95FEH   LINE      CODE     ---       #70
      00FF95FEH   LINE      CODE     ---       #72
      00FF960CH   LINE      CODE     ---       #73
      00FF961EH   LINE      CODE     ---       #74
      00FF9620H   LINE      CODE     ---       #76
      00FF9620H   LINE      CODE     ---       #78
      00FF962EH   LINE      CODE     ---       #79
      00FF9640H   LINE      CODE     ---       #80
      00FF9640H   LINE      CODE     ---       #82
      00FF9640H   LINE      CODE     ---       #83
      00FF965DH   LINE      CODE     ---       #85
      00FF966BH   LINE      CODE     ---       #86
      00FF966BH   LINE      CODE     ---       #87
      00FF9671H   LINE      CODE     ---       #88
      ---         BLOCKEND  ---      ---       LVL=0

      00FFAB2AH   BLOCK     CODE     ---       LVL=0
      00011F25H   SYMBOL    XDATA    INT       encoder_n
      00FFAB2AH   LINE      CODE     ---       #97
      00FFAB30H   LINE      CODE     ---       #99
      00FFAB4AH   LINE      CODE     ---       #101
      00FFAB4AH   LINE      CODE     ---       #103
      00FFAB4DH   LINE      CODE     ---       #104
      00FFAB50H   LINE      CODE     ---       #105
      00FFAB53H   LINE      CODE     ---       #106
      00FFAB56H   LINE      CODE     ---       #107
      00FFAB58H   LINE      CODE     ---       #109
      00FFAB58H   LINE      CODE     ---       #111
L251 LINKER/LOCATER V4.66.93.0                                                        03/30/2026  16:35:38  PAGE 64


      00FFAB5BH   LINE      CODE     ---       #112
      00FFAB5EH   LINE      CODE     ---       #113
      00FFAB61H   LINE      CODE     ---       #114
      00FFAB64H   LINE      CODE     ---       #115
      00FFAB66H   LINE      CODE     ---       #117
      00FFAB66H   LINE      CODE     ---       #119
      00FFAB69H   LINE      CODE     ---       #120
      00FFAB6CH   LINE      CODE     ---       #121
      00FFAB6FH   LINE      CODE     ---       #122
      00FFAB72H   LINE      CODE     ---       #123
      00FFAB74H   LINE      CODE     ---       #125
      00FFAB74H   LINE      CODE     ---       #127
      00FFAB77H   LINE      CODE     ---       #128
      00FFAB7AH   LINE      CODE     ---       #129
      00FFAB7DH   LINE      CODE     ---       #130
      00FFAB80H   LINE      CODE     ---       #131
      00FFAB82H   LINE      CODE     ---       #133
      00FFAB82H   LINE      CODE     ---       #135
      00FFAB85H   LINE      CODE     ---       #136
      00FFAB88H   LINE      CODE     ---       #137
      00FFAB8BH   LINE      CODE     ---       #138
      00FFAB8EH   LINE      CODE     ---       #139
      00FFAB8EH   LINE      CODE     ---       #141
      00FFAB8EH   LINE      CODE     ---       #142
      ---         BLOCKEND  ---      ---       LVL=0

      00FF945CH   BLOCK     CODE     ---       LVL=0
      00011D2AH   SYMBOL    XDATA    INT       encoder_n
      00011D2CH   SYMBOL    XDATA    INT       dir_pin
      00011D2EH   SYMBOL    XDATA    INT       lsb_pin
      00FF945CH   LINE      CODE     ---       #154
      00FF946EH   LINE      CODE     ---       #160
      00FF948AH   LINE      CODE     ---       #161
      00FF94ACH   LINE      CODE     ---       #162
      00FF94D4H   LINE      CODE     ---       #164
      00FF94E4H   LINE      CODE     ---       #165
      00FF94FAH   LINE      CODE     ---       #166
      00FF9513H   LINE      CODE     ---       #167
      00FF952DH   LINE      CODE     ---       #169
      00FF952DH   LINE      CODE     ---       #171
      00FF9530H   LINE      CODE     ---       #172
      00FF9533H   LINE      CODE     ---       #173
      00FF9536H   LINE      CODE     ---       #174
      00FF9539H   LINE      CODE     ---       #175
      00FF953BH   LINE      CODE     ---       #177
      00FF953BH   LINE      CODE     ---       #179
      00FF953EH   LINE      CODE     ---       #180
      00FF9541H   LINE      CODE     ---       #181
      00FF9544H   LINE      CODE     ---       #182
      00FF9547H   LINE      CODE     ---       #183
      00FF9549H   LINE      CODE     ---       #185
      00FF9549H   LINE      CODE     ---       #187
      00FF954CH   LINE      CODE     ---       #188
      00FF954FH   LINE      CODE     ---       #189
      00FF9552H   LINE      CODE     ---       #190
      00FF9554H   LINE      CODE     ---       #192
      00FF9554H   LINE      CODE     ---       #194
      00FF9557H   LINE      CODE     ---       #195
      00FF955AH   LINE      CODE     ---       #196
      00FF955DH   LINE      CODE     ---       #197
      00FF955FH   LINE      CODE     ---       #199
      00FF955FH   LINE      CODE     ---       #201
      00FF9562H   LINE      CODE     ---       #202
      00FF9565H   LINE      CODE     ---       #203
      00FF9568H   LINE      CODE     ---       #204
L251 LINKER/LOCATER V4.66.93.0                                                        03/30/2026  16:35:38  PAGE 65


      00FF9568H   LINE      CODE     ---       #206
      00FF9568H   LINE      CODE     ---       #207
      ---         BLOCKEND  ---      ---       LVL=0

      ---         MODULE    ---      ---       zf_driver_exti
      000000D0H   SFRSYM    DATA     BYTE      PSW
      0000009DH   SFRSYM    DATA     BYTE      IRCBAND
      00000097H   SFRSYM    DATA     BYTE      AUXR2
      000000EFH   SFRSYM    DATA     BYTE      AUXINTIF
      000000FDH   SFRSYM    DATA     BYTE      S4CON
      000000ACH   SFRSYM    DATA     BYTE      S3CON
      0000009AH   SFRSYM    DATA     BYTE      S2CON
      000000B7H   SFRSYM    DATA     BYTE      IPH
      000000CDH   SFRSYM    DATA     BYTE      SPSTAT
      000000DDH   SFRSYM    DATA     BYTE      T4T3M
      000000C1H   SFRSYM    DATA     BYTE      WDT_CONTR
      0000008FH.6 SFRSYM    DATA     BIT       EX4
      0000008FH.5 SFRSYM    DATA     BIT       EX3
      0000008FH.4 SFRSYM    DATA     BIT       EX2
      00000088H.2 SFRSYM    DATA     BIT       IT1
      000000A8H.2 SFRSYM    DATA     BIT       EX1
      00000088H.0 SFRSYM    DATA     BIT       IT0
      000000A8H.0 SFRSYM    DATA     BIT       EX0
      000000DFH   SFRSYM    DATA     BYTE      IP3
      000000F4H   SFRSYM    DATA     BYTE      USBCON
      000000B5H   SFRSYM    DATA     BYTE      IP2
      000000FFH   SFRSYM    DATA     BYTE      RSTCFG
      000000C7H   SFRSYM    DATA     BYTE      IAP_CONTR
      000000F9H   SFRSYM    DATA     BYTE      LINICR
      0000008EH   SFRSYM    DATA     BYTE      AUXR
      000000AFH   SFRSYM    DATA     BYTE      IE2
      00000088H   SFRSYM    DATA     BYTE      TCON
      00000089H   SFRSYM    DATA     BYTE      TMOD
      00000098H   SFRSYM    DATA     BYTE      SCON
      000000F1H   SFRSYM    DATA     BYTE      CANICR
      00000087H   SFRSYM    DATA     BYTE      PCON
      000000BCH   SFRSYM    DATA     BYTE      ADC_CONTR
      000000E7H   SFRSYM    DATA     BYTE      CMPCR2
      000000E6H   SFRSYM    DATA     BYTE      CMPCR1
      000000DEH   SFRSYM    DATA     BYTE      ADCCFG
      000000B8H   SFRSYM    DATA     BYTE      IP
      0000008FH   SFRSYM    DATA     BYTE      INTCLKO
      000000EEH   SFRSYM    DATA     BYTE      IP3H
      000000B6H   SFRSYM    DATA     BYTE      IP2H
      000000A8H   SFRSYM    DATA     BYTE      IE
      000000BBH   SFRSYM    DATA     BYTE      P_SW3
      000000BAH   SFRSYM    DATA     BYTE      P_SW2
      000000A2H   SFRSYM    DATA     BYTE      P_SW1
      000000CEH   SFRSYM    DATA     BYTE      SPCTL
      000000F8H   SFRSYM    DATA     BYTE      P7
      000000E8H   SFRSYM    DATA     BYTE      P6
      000000C8H   SFRSYM    DATA     BYTE      P5
      000000C0H   SFRSYM    DATA     BYTE      P4
      000000B0H   SFRSYM    DATA     BYTE      P3
      000000A0H   SFRSYM    DATA     BYTE      P2
      00000090H   SFRSYM    DATA     BYTE      P1
      00000080H   SFRSYM    DATA     BYTE      P0
      00011F27H   SYMBOL    XDATA    INT       eru_pin
      00011F29H   SYMBOL    XDATA    INT       eru_pin
      00011E7CH   SYMBOL    XDATA    INT       eru_pin
      00011E7EH   SYMBOL    XDATA    INT       trigger

      ---         MODULE    ---      ---       zf_driver_gpio
      00FF934DH   PUBLIC    CODE     ---       gpio_init
      00FF8A0EH   PUBLIC    CODE     ---       gpio_get_level
L251 LINKER/LOCATER V4.66.93.0                                                        03/30/2026  16:35:38  PAGE 66


      00FF5F51H   PUBLIC    CODE     ---       gpio_set_level_speed
      00FF74A1H   PUBLIC    CODE     ---       gpio_set_level
      00FF8050H   PUBLIC    CODE     ---       gpio_set_impedance
      00000094H   SFRSYM    DATA     BYTE      P0M0
      000000D0H   SFRSYM    DATA     BYTE      PSW
      0000009DH   SFRSYM    DATA     BYTE      IRCBAND
      00000097H   SFRSYM    DATA     BYTE      AUXR2
      000000EFH   SFRSYM    DATA     BYTE      AUXINTIF
      000000FDH   SFRSYM    DATA     BYTE      S4CON
      000000ACH   SFRSYM    DATA     BYTE      S3CON
      0000009AH   SFRSYM    DATA     BYTE      S2CON
      000000B7H   SFRSYM    DATA     BYTE      IPH
      000000CDH   SFRSYM    DATA     BYTE      SPSTAT
      000000DDH   SFRSYM    DATA     BYTE      T4T3M
      000000C1H   SFRSYM    DATA     BYTE      WDT_CONTR
      000000DFH   SFRSYM    DATA     BYTE      IP3
      000000F4H   SFRSYM    DATA     BYTE      USBCON
      000000B5H   SFRSYM    DATA     BYTE      IP2
      000000FFH   SFRSYM    DATA     BYTE      RSTCFG
      000000C7H   SFRSYM    DATA     BYTE      IAP_CONTR
      000000F9H   SFRSYM    DATA     BYTE      LINICR
      0000008EH   SFRSYM    DATA     BYTE      AUXR
      000000AFH   SFRSYM    DATA     BYTE      IE2
      00000088H   SFRSYM    DATA     BYTE      TCON
      00000089H   SFRSYM    DATA     BYTE      TMOD
      00000098H   SFRSYM    DATA     BYTE      SCON
      000000F1H   SFRSYM    DATA     BYTE      CANICR
      00000087H   SFRSYM    DATA     BYTE      PCON
      000000BCH   SFRSYM    DATA     BYTE      ADC_CONTR
      000000E7H   SFRSYM    DATA     BYTE      CMPCR2
      000000E6H   SFRSYM    DATA     BYTE      CMPCR1
      000000DEH   SFRSYM    DATA     BYTE      ADCCFG
      000000B8H   SFRSYM    DATA     BYTE      IP
      0000008FH   SFRSYM    DATA     BYTE      INTCLKO
      000000EEH   SFRSYM    DATA     BYTE      IP3H
      000000B6H   SFRSYM    DATA     BYTE      IP2H
      000000A8H   SFRSYM    DATA     BYTE      IE
      000000BBH   SFRSYM    DATA     BYTE      P_SW3
      000000BAH   SFRSYM    DATA     BYTE      P_SW2
      000000A2H   SFRSYM    DATA     BYTE      P_SW1
      000000CEH   SFRSYM    DATA     BYTE      SPCTL
      000000F8H   SFRSYM    DATA     BYTE      P7
      000000E1H   SFRSYM    DATA     BYTE      P7M1
      000000E8H   SFRSYM    DATA     BYTE      P6
      000000C8H   SFRSYM    DATA     BYTE      P5
      000000CBH   SFRSYM    DATA     BYTE      P6M1
      000000E2H   SFRSYM    DATA     BYTE      P7M0
      000000C0H   SFRSYM    DATA     BYTE      P4
      000000C9H   SFRSYM    DATA     BYTE      P5M1
      000000CCH   SFRSYM    DATA     BYTE      P6M0
      000000B0H   SFRSYM    DATA     BYTE      P3
      000000B3H   SFRSYM    DATA     BYTE      P4M1
      000000CAH   SFRSYM    DATA     BYTE      P5M0
      000000A0H   SFRSYM    DATA     BYTE      P2
      000000B1H   SFRSYM    DATA     BYTE      P3M1
      000000B4H   SFRSYM    DATA     BYTE      P4M0
      00000090H   SFRSYM    DATA     BYTE      P1
      00000095H   SFRSYM    DATA     BYTE      P2M1
      000000B2H   SFRSYM    DATA     BYTE      P3M0
      00000080H   SFRSYM    DATA     BYTE      P0
      00000091H   SFRSYM    DATA     BYTE      P1M1
      00000096H   SFRSYM    DATA     BYTE      P2M0
      00000092H   SFRSYM    DATA     BYTE      P1M0
      00000093H   SFRSYM    DATA     BYTE      P0M1
      00FF511CH   SYMBOL    CODE     ---       gpio_set_dir
L251 LINKER/LOCATER V4.66.93.0                                                        03/30/2026  16:35:38  PAGE 67


      00FF6555H   SYMBOL    CODE     ---       gpio_set_mode

      00FF6555H   BLOCK     CODE     ---       LVL=0
      00011E80H   SYMBOL    XDATA    INT       pin
      00011E82H   SYMBOL    XDATA    INT       mode
      00FF6555H   LINE      CODE     ---       #42
      00FF6561H   LINE      CODE     ---       #47
      00FF657DH   LINE      CODE     ---       #49
      00FF65BAH   LINE      CODE     ---       #51
      00FF65BDH   LINE      CODE     ---       #56
      00FF65D9H   LINE      CODE     ---       #58
      00FF6614H   LINE      CODE     ---       #59
      00FF6617H   LINE      CODE     ---       #60
      00FF6628H   LINE      CODE     ---       #63
      00FF6679H   LINE      CODE     ---       #65
      00FF6679H   LINE      CODE     ---       #66
      00FF6694H   LINE      CODE     ---       #67
      00FF66AFH   LINE      CODE     ---       #68
      00FF66B2H   LINE      CODE     ---       #69
      00FF66B2H   LINE      CODE     ---       #70
      00FF66CDH   LINE      CODE     ---       #71
      00FF66E8H   LINE      CODE     ---       #72
      00FF66EBH   LINE      CODE     ---       #73
      00FF66EBH   LINE      CODE     ---       #74
      00FF6706H   LINE      CODE     ---       #75
      00FF6721H   LINE      CODE     ---       #76
      00FF6724H   LINE      CODE     ---       #77
      00FF6724H   LINE      CODE     ---       #78
      00FF673FH   LINE      CODE     ---       #79
      00FF675AH   LINE      CODE     ---       #80
      00FF675DH   LINE      CODE     ---       #81
      00FF675DH   LINE      CODE     ---       #82
      00FF6778H   LINE      CODE     ---       #83
      00FF6793H   LINE      CODE     ---       #84
      00FF6796H   LINE      CODE     ---       #85
      00FF6796H   LINE      CODE     ---       #86
      00FF67B1H   LINE      CODE     ---       #87
      00FF67CCH   LINE      CODE     ---       #88
      00FF67CEH   LINE      CODE     ---       #89
      00FF67CEH   LINE      CODE     ---       #90
      00FF67E9H   LINE      CODE     ---       #91
      00FF6804H   LINE      CODE     ---       #92
      00FF6806H   LINE      CODE     ---       #93
      00FF6806H   LINE      CODE     ---       #94
      00FF6821H   LINE      CODE     ---       #95
      00FF683CH   LINE      CODE     ---       #96
      00FF683CH   LINE      CODE     ---       #97
      00FF683CH   LINE      CODE     ---       #98
      00FF683CH   LINE      CODE     ---       #99
      00FF683CH   LINE      CODE     ---       #100
      00FF683CH   LINE      CODE     ---       #104
      00FF683CH   LINE      CODE     ---       #105
      ---         BLOCKEND  ---      ---       LVL=0

      00FF5F51H   BLOCK     CODE     ---       LVL=0
      00011D30H   SYMBOL    XDATA    INT       pin
      00011D32H   SYMBOL    XDATA    INT       speed
      00FF5F5DH   BLOCK     CODE     NEAR LAB  LVL=1
      00011D34H   SYMBOL    XDATA    BYTE      pin_bit
      00011D35H   SYMBOL    XDATA    BYTE      port_flag
      ---         BLOCKEND  ---      ---       LVL=1
      00FF5F51H   LINE      CODE     ---       #108
      00FF5F5DH   LINE      CODE     ---       #109
      00FF5F5DH   LINE      CODE     ---       #111
      00FF5F6DH   LINE      CODE     ---       #112
L251 LINKER/LOCATER V4.66.93.0                                                        03/30/2026  16:35:38  PAGE 68


      00FF5F7DH   LINE      CODE     ---       #115
      00FF5FB9H   LINE      CODE     ---       #117
      00FF5FB9H   LINE      CODE     ---       #119
      00FF600CH   LINE      CODE     ---       #120
      00FF600FH   LINE      CODE     ---       #121
      00FF600FH   LINE      CODE     ---       #122
      00FF6062H   LINE      CODE     ---       #123
      00FF6065H   LINE      CODE     ---       #124
      00FF6065H   LINE      CODE     ---       #125
      00FF60B8H   LINE      CODE     ---       #126
      00FF60BBH   LINE      CODE     ---       #127
      00FF60BBH   LINE      CODE     ---       #128
      00FF610EH   LINE      CODE     ---       #129
      00FF6111H   LINE      CODE     ---       #130
      00FF6111H   LINE      CODE     ---       #131
      00FF6164H   LINE      CODE     ---       #132
      00FF6167H   LINE      CODE     ---       #133
      00FF6167H   LINE      CODE     ---       #134
      00FF61BAH   LINE      CODE     ---       #135
      00FF61BDH   LINE      CODE     ---       #136
      00FF61BDH   LINE      CODE     ---       #137
      00FF620FH   LINE      CODE     ---       #138
      00FF6211H   LINE      CODE     ---       #139
      00FF6211H   LINE      CODE     ---       #140
      00FF6263H   LINE      CODE     ---       #141
      00FF6263H   LINE      CODE     ---       #142
      00FF6263H   LINE      CODE     ---       #144
      00FF6263H   LINE      CODE     ---       #145
      00FF6263H   LINE      CODE     ---       #146
      ---         BLOCKEND  ---      ---       LVL=0

      00FF511CH   BLOCK     CODE     ---       LVL=0
      00011E84H   SYMBOL    XDATA    INT       pin
      00011E86H   SYMBOL    XDATA    INT       dir
      00FF511CH   LINE      CODE     ---       #150
      00FF5128H   LINE      CODE     ---       #152
      00FF517CH   LINE      CODE     ---       #154
      00FF517CH   LINE      CODE     ---       #156
      00FF5196H   LINE      CODE     ---       #158
      00FF51B3H   LINE      CODE     ---       #159
      00FF51D0H   LINE      CODE     ---       #160
      00FF51D3H   LINE      CODE     ---       #166
      00FF51E4H   LINE      CODE     ---       #168
      00FF5201H   LINE      CODE     ---       #169
      00FF521CH   LINE      CODE     ---       #170
      00FF521CH   LINE      CODE     ---       #172
      00FF521FH   LINE      CODE     ---       #174
      00FF521FH   LINE      CODE     ---       #176
      00FF5239H   LINE      CODE     ---       #178
      00FF5256H   LINE      CODE     ---       #179
      00FF5273H   LINE      CODE     ---       #180
      00FF5276H   LINE      CODE     ---       #186
      00FF5287H   LINE      CODE     ---       #188
      00FF52A4H   LINE      CODE     ---       #189
      00FF52BFH   LINE      CODE     ---       #190
      00FF52BFH   LINE      CODE     ---       #192
      00FF52C2H   LINE      CODE     ---       #194
      00FF52C2H   LINE      CODE     ---       #196
      00FF52DCH   LINE      CODE     ---       #198
      00FF52F9H   LINE      CODE     ---       #199
      00FF5316H   LINE      CODE     ---       #200
      00FF5319H   LINE      CODE     ---       #206
      00FF532AH   LINE      CODE     ---       #208
      00FF5347H   LINE      CODE     ---       #209
      00FF5362H   LINE      CODE     ---       #210
L251 LINKER/LOCATER V4.66.93.0                                                        03/30/2026  16:35:38  PAGE 69


      00FF5362H   LINE      CODE     ---       #212
      00FF5365H   LINE      CODE     ---       #214
      00FF5365H   LINE      CODE     ---       #216
      00FF537FH   LINE      CODE     ---       #218
      00FF539CH   LINE      CODE     ---       #219
      00FF53B9H   LINE      CODE     ---       #220
      00FF53BCH   LINE      CODE     ---       #226
      00FF53CDH   LINE      CODE     ---       #228
      00FF53EAH   LINE      CODE     ---       #229
      00FF5405H   LINE      CODE     ---       #230
      00FF5405H   LINE      CODE     ---       #232
      00FF5408H   LINE      CODE     ---       #234
      00FF5408H   LINE      CODE     ---       #236
      00FF5422H   LINE      CODE     ---       #238
      00FF543FH   LINE      CODE     ---       #239
      00FF545CH   LINE      CODE     ---       #240
      00FF545FH   LINE      CODE     ---       #246
      00FF5470H   LINE      CODE     ---       #248
      00FF548DH   LINE      CODE     ---       #249
      00FF54A8H   LINE      CODE     ---       #250
      00FF54A8H   LINE      CODE     ---       #252
      00FF54ABH   LINE      CODE     ---       #254
      00FF54ABH   LINE      CODE     ---       #256
      00FF54C5H   LINE      CODE     ---       #258
      00FF54E2H   LINE      CODE     ---       #259
      00FF54FFH   LINE      CODE     ---       #260
      00FF5502H   LINE      CODE     ---       #266
      00FF5513H   LINE      CODE     ---       #268
      00FF5530H   LINE      CODE     ---       #269
      00FF554BH   LINE      CODE     ---       #270
      00FF554BH   LINE      CODE     ---       #272
      00FF554EH   LINE      CODE     ---       #274
      00FF554EH   LINE      CODE     ---       #276
      00FF5568H   LINE      CODE     ---       #278
      00FF5585H   LINE      CODE     ---       #279
      00FF55A2H   LINE      CODE     ---       #280
      00FF55A5H   LINE      CODE     ---       #286
      00FF55B6H   LINE      CODE     ---       #288
      00FF55D3H   LINE      CODE     ---       #289
      00FF55EEH   LINE      CODE     ---       #290
      00FF55EEH   LINE      CODE     ---       #292
      00FF55F1H   LINE      CODE     ---       #294
      00FF55F1H   LINE      CODE     ---       #296
      00FF560BH   LINE      CODE     ---       #298
      00FF5628H   LINE      CODE     ---       #299
      00FF5645H   LINE      CODE     ---       #300
      00FF5647H   LINE      CODE     ---       #306
      00FF5655H   LINE      CODE     ---       #308
      00FF5672H   LINE      CODE     ---       #309
      00FF568DH   LINE      CODE     ---       #310
      00FF568DH   LINE      CODE     ---       #313
      00FF568FH   LINE      CODE     ---       #315
      00FF568FH   LINE      CODE     ---       #317
      00FF569FH   LINE      CODE     ---       #319
      00FF569FH   LINE      CODE     ---       #320
      00FF569FH   LINE      CODE     ---       #321
      ---         BLOCKEND  ---      ---       LVL=0

      00FF8A0EH   BLOCK     CODE     ---       LVL=0
      00011DFAH   SYMBOL    XDATA    INT       pin
      00FF8A14H   BLOCK     CODE     NEAR LAB  LVL=1
      00011DFCH   SYMBOL    XDATA    BYTE      pin_bit
      00011DFDH   SYMBOL    XDATA    BYTE      port_flag
      00011DFEH   SYMBOL    XDATA    BYTE      status
      ---         BLOCKEND  ---      ---       LVL=1
L251 LINKER/LOCATER V4.66.93.0                                                        03/30/2026  16:35:38  PAGE 70


      00FF8A0EH   LINE      CODE     ---       #329
      00FF8A14H   LINE      CODE     ---       #330
      00FF8A14H   LINE      CODE     ---       #331
      00FF8A24H   LINE      CODE     ---       #332
      00FF8A34H   LINE      CODE     ---       #333
      00FF8A39H   LINE      CODE     ---       #336
      00FF8A6CH   LINE      CODE     ---       #338
      00FF8A88H   LINE      CODE     ---       #339
      00FF8AA4H   LINE      CODE     ---       #340
      00FF8AC0H   LINE      CODE     ---       #341
      00FF8ADBH   LINE      CODE     ---       #342
      00FF8AF6H   LINE      CODE     ---       #343
      00FF8B11H   LINE      CODE     ---       #344
      00FF8B2CH   LINE      CODE     ---       #345
      00FF8B45H   LINE      CODE     ---       #346
      00FF8B45H   LINE      CODE     ---       #347
      00FF8B45H   LINE      CODE     ---       #349
      00FF8B53H   LINE      CODE     ---       #350
      ---         BLOCKEND  ---      ---       LVL=0

      00FF74A1H   BLOCK     CODE     ---       LVL=0
      00011DFFH   SYMBOL    XDATA    INT       pin
      00011E01H   SYMBOL    XDATA    BYTE      dat
      00FF74ABH   BLOCK     CODE     NEAR LAB  LVL=1
      00011E02H   SYMBOL    XDATA    BYTE      pin_bit
      00011E03H   SYMBOL    XDATA    BYTE      port_flag
      ---         BLOCKEND  ---      ---       LVL=1
      00FF74A1H   LINE      CODE     ---       #359
      00FF74ABH   LINE      CODE     ---       #360
      00FF74ABH   LINE      CODE     ---       #361
      00FF74BBH   LINE      CODE     ---       #362
      00FF74CBH   LINE      CODE     ---       #365
      00FF7504H   LINE      CODE     ---       #367
      00FF753BH   LINE      CODE     ---       #368
      00FF7572H   LINE      CODE     ---       #369
      00FF75A9H   LINE      CODE     ---       #370
      00FF75E0H   LINE      CODE     ---       #371
      00FF7617H   LINE      CODE     ---       #372
      00FF764DH   LINE      CODE     ---       #373
      00FF7682H   LINE      CODE     ---       #374
      00FF76B5H   LINE      CODE     ---       #375
      00FF76B5H   LINE      CODE     ---       #376
      00FF76B5H   LINE      CODE     ---       #377
      ---         BLOCKEND  ---      ---       LVL=0
      00011F2BH   SYMBOL    XDATA    INT       pin

      00FF8050H   BLOCK     CODE     ---       LVL=0
      00011E88H   SYMBOL    XDATA    INT       pin
      00FF8056H   BLOCK     CODE     NEAR LAB  LVL=1
      00011E8AH   SYMBOL    XDATA    BYTE      pin_bit
      00011E8BH   SYMBOL    XDATA    BYTE      port_flag
      ---         BLOCKEND  ---      ---       LVL=1
      00FF8050H   LINE      CODE     ---       #397
      00FF8056H   LINE      CODE     ---       #398
      00FF8056H   LINE      CODE     ---       #399
      00FF8066H   LINE      CODE     ---       #400
      00FF8076H   LINE      CODE     ---       #403
      00FF80AFH   LINE      CODE     ---       #405
      00FF80DAH   LINE      CODE     ---       #406
      00FF8105H   LINE      CODE     ---       #407
      00FF8130H   LINE      CODE     ---       #408
      00FF815BH   LINE      CODE     ---       #409
      00FF8185H   LINE      CODE     ---       #410
      00FF81AFH   LINE      CODE     ---       #411
      00FF81D9H   LINE      CODE     ---       #412
L251 LINKER/LOCATER V4.66.93.0                                                        03/30/2026  16:35:38  PAGE 71


      00FF8201H   LINE      CODE     ---       #413
      00FF8201H   LINE      CODE     ---       #414
      00FF8201H   LINE      CODE     ---       #415
      ---         BLOCKEND  ---      ---       LVL=0

      00FF934DH   BLOCK     CODE     ---       LVL=0
      00011CF4H   SYMBOL    XDATA    INT       pin
      00011CF6H   SYMBOL    XDATA    INT       dir
      00011CF8H   SYMBOL    XDATA    BYTE      dat
      00011CF9H   SYMBOL    XDATA    INT       mode
      00FF934DH   LINE      CODE     ---       #426
      00FF9363H   LINE      CODE     ---       #428
      00FF938FH   LINE      CODE     ---       #430
      00FF939DH   LINE      CODE     ---       #432
      00FF93AAH   LINE      CODE     ---       #433
      00FF93B9H   LINE      CODE     ---       #434
      00FF93BCH   LINE      CODE     ---       #435
      00FF93C8H   LINE      CODE     ---       #437
      00FF93D4H   LINE      CODE     ---       #439
      00FF93DDH   LINE      CODE     ---       #440
      00FF93DFH   LINE      CODE     ---       #443
      00FF93EAH   LINE      CODE     ---       #444
      00FF93F9H   LINE      CODE     ---       #445
      00FF93F9H   LINE      CODE     ---       #446
      00FF93FBH   LINE      CODE     ---       #447
      00FF9409H   LINE      CODE     ---       #449
      00FF9417H   LINE      CODE     ---       #451
      00FF9424H   LINE      CODE     ---       #452
      00FF9431H   LINE      CODE     ---       #453
      00FF9433H   LINE      CODE     ---       #454
      00FF9441H   LINE      CODE     ---       #456
      00FF944EH   LINE      CODE     ---       #457
      00FF944EH   LINE      CODE     ---       #459
      00FF945BH   LINE      CODE     ---       #460
      ---         BLOCKEND  ---      ---       LVL=0

      ---         MODULE    ---      ---       zf_driver_pit
      00FF6DB1H   PUBLIC    CODE     ---       pit_init
      000000D0H   SFRSYM    DATA     BYTE      PSW
      0000009DH   SFRSYM    DATA     BYTE      IRCBAND
      00000097H   SFRSYM    DATA     BYTE      AUXR2
      000000EFH   SFRSYM    DATA     BYTE      AUXINTIF
      000000FDH   SFRSYM    DATA     BYTE      S4CON
      000000ACH   SFRSYM    DATA     BYTE      S3CON
      0000009AH   SFRSYM    DATA     BYTE      S2CON
      000000B7H   SFRSYM    DATA     BYTE      IPH
      000000CDH   SFRSYM    DATA     BYTE      SPSTAT
      000000DDH   SFRSYM    DATA     BYTE      T4T3M
      000000C1H   SFRSYM    DATA     BYTE      WDT_CONTR
      00000088H.6 SFRSYM    DATA     BIT       TR1
      00000088H.4 SFRSYM    DATA     BIT       TR0
      000000D3H   SFRSYM    DATA     BYTE      T4L
      000000D5H   SFRSYM    DATA     BYTE      T3L
      000000D7H   SFRSYM    DATA     BYTE      T2L
      0000008BH   SFRSYM    DATA     BYTE      TL1
      0000008AH   SFRSYM    DATA     BYTE      TL0
      000000D2H   SFRSYM    DATA     BYTE      T4H
      000000D4H   SFRSYM    DATA     BYTE      T3H
      000000D6H   SFRSYM    DATA     BYTE      T2H
      0000008DH   SFRSYM    DATA     BYTE      TH1
      0000008CH   SFRSYM    DATA     BYTE      TH0
      000000DFH   SFRSYM    DATA     BYTE      IP3
      000000F4H   SFRSYM    DATA     BYTE      USBCON
      000000B5H   SFRSYM    DATA     BYTE      IP2
      000000FFH   SFRSYM    DATA     BYTE      RSTCFG
L251 LINKER/LOCATER V4.66.93.0                                                        03/30/2026  16:35:38  PAGE 72


      000000A8H.3 SFRSYM    DATA     BIT       ET1
      000000A8H.1 SFRSYM    DATA     BIT       ET0
      000000C7H   SFRSYM    DATA     BYTE      IAP_CONTR
      000000F9H   SFRSYM    DATA     BYTE      LINICR
      0000008EH   SFRSYM    DATA     BYTE      AUXR
      000000AFH   SFRSYM    DATA     BYTE      IE2
      00000088H   SFRSYM    DATA     BYTE      TCON
      00000089H   SFRSYM    DATA     BYTE      TMOD
      00000098H   SFRSYM    DATA     BYTE      SCON
      000000F1H   SFRSYM    DATA     BYTE      CANICR
      00000087H   SFRSYM    DATA     BYTE      PCON
      000000BCH   SFRSYM    DATA     BYTE      ADC_CONTR
      000000E7H   SFRSYM    DATA     BYTE      CMPCR2
      000000E6H   SFRSYM    DATA     BYTE      CMPCR1
      000000DEH   SFRSYM    DATA     BYTE      ADCCFG
      000000B8H   SFRSYM    DATA     BYTE      IP
      0000008FH   SFRSYM    DATA     BYTE      INTCLKO
      000000EEH   SFRSYM    DATA     BYTE      IP3H
      000000B6H   SFRSYM    DATA     BYTE      IP2H
      000000A8H   SFRSYM    DATA     BYTE      IE
      000000BBH   SFRSYM    DATA     BYTE      P_SW3
      000000BAH   SFRSYM    DATA     BYTE      P_SW2
      000000A2H   SFRSYM    DATA     BYTE      P_SW1
      000000CEH   SFRSYM    DATA     BYTE      SPCTL
      000000F8H   SFRSYM    DATA     BYTE      P7
      000000E8H   SFRSYM    DATA     BYTE      P6
      000000C8H   SFRSYM    DATA     BYTE      P5
      000000C0H   SFRSYM    DATA     BYTE      P4
      000000B0H   SFRSYM    DATA     BYTE      P3
      000000A0H   SFRSYM    DATA     BYTE      P2
      00000090H   SFRSYM    DATA     BYTE      P1
      00000080H   SFRSYM    DATA     BYTE      P0

      00FF6DB1H   BLOCK     CODE     ---       LVL=0
      00011A31H   SYMBOL    XDATA    INT       pit_n
      00011A33H   SYMBOL    XDATA    DWORD     period
      00FF6DC1H   BLOCK     CODE     NEAR LAB  LVL=1
      00011A37H   SYMBOL    XDATA    BYTE      freq_div
      00011A38H   SYMBOL    XDATA    WORD      period_temp
      00011A3AH   SYMBOL    XDATA    WORD      temp
      ---         BLOCKEND  ---      ---       LVL=1
      00FF6DB1H   LINE      CODE     ---       #50
      00FF6DC1H   LINE      CODE     ---       #51
      00FF6DC1H   LINE      CODE     ---       #52
      00FF6DC6H   LINE      CODE     ---       #53
      00FF6DCEH   LINE      CODE     ---       #54
      00FF6DD6H   LINE      CODE     ---       #57
      00FF6DECH   LINE      CODE     ---       #60
      00FF6E04H   LINE      CODE     ---       #62
      00FF6E10H   LINE      CODE     ---       #64
      00FF6E13H   LINE      CODE     ---       #65
      00FF6E16H   LINE      CODE     ---       #66
      00FF6E24H   LINE      CODE     ---       #68
      00FF6E27H   LINE      CODE     ---       #69
      00FF6E2AH   LINE      CODE     ---       #70
      00FF6E38H   LINE      CODE     ---       #72
      00FF6E3BH   LINE      CODE     ---       #73
      00FF6E3EH   LINE      CODE     ---       #74
      00FF6E4CH   LINE      CODE     ---       #76
      00FF6E4FH   LINE      CODE     ---       #77
      00FF6E51H   LINE      CODE     ---       #78
      00FF6E5FH   LINE      CODE     ---       #80
      00FF6E62H   LINE      CODE     ---       #81
      00FF6E64H   LINE      CODE     ---       #88
      00FF6E70H   LINE      CODE     ---       #90
L251 LINKER/LOCATER V4.66.93.0                                                        03/30/2026  16:35:38  PAGE 73


      00FF6E73H   LINE      CODE     ---       #91
      00FF6E75H   LINE      CODE     ---       #92
      00FF6E83H   LINE      CODE     ---       #94
      00FF6E86H   LINE      CODE     ---       #95
      00FF6E88H   LINE      CODE     ---       #96
      00FF6E96H   LINE      CODE     ---       #98
      00FF6E99H   LINE      CODE     ---       #99
      00FF6E9BH   LINE      CODE     ---       #100
      00FF6EA9H   LINE      CODE     ---       #102
      00FF6EACH   LINE      CODE     ---       #103
      00FF6EAEH   LINE      CODE     ---       #104
      00FF6EBCH   LINE      CODE     ---       #106
      00FF6EBFH   LINE      CODE     ---       #107
      00FF6EBFH   LINE      CODE     ---       #112
      00FF6EDDH   LINE      CODE     ---       #113
      00FF6EFEH   LINE      CODE     ---       #115
      00FF6F10H   LINE      CODE     ---       #117
      00FF6F1CH   LINE      CODE     ---       #119
      00FF6F2BH   LINE      CODE     ---       #120
      00FF6F2FH   LINE      CODE     ---       #121
      00FF6F37H   LINE      CODE     ---       #122
      00FF6F43H   LINE      CODE     ---       #123
      00FF6F46H   LINE      CODE     ---       #124
      00FF6F49H   LINE      CODE     ---       #125
      00FF6F4CH   LINE      CODE     ---       #126
      00FF6F5AH   LINE      CODE     ---       #128
      00FF6F69H   LINE      CODE     ---       #129
      00FF6F6DH   LINE      CODE     ---       #130
      00FF6F75H   LINE      CODE     ---       #131
      00FF6F81H   LINE      CODE     ---       #132
      00FF6F84H   LINE      CODE     ---       #133
      00FF6F87H   LINE      CODE     ---       #134
      00FF6F8AH   LINE      CODE     ---       #135
      00FF6F98H   LINE      CODE     ---       #137
      00FF6FA7H   LINE      CODE     ---       #138
      00FF6FAFH   LINE      CODE     ---       #139
      00FF6FBBH   LINE      CODE     ---       #140
      00FF6FBEH   LINE      CODE     ---       #141
      00FF6FC1H   LINE      CODE     ---       #142
      00FF6FC3H   LINE      CODE     ---       #143
      00FF6FD1H   LINE      CODE     ---       #145
      00FF6FE0H   LINE      CODE     ---       #146
      00FF6FE8H   LINE      CODE     ---       #147
      00FF6FF4H   LINE      CODE     ---       #148
      00FF6FF7H   LINE      CODE     ---       #149
      00FF6FFAH   LINE      CODE     ---       #150
      00FF6FFCH   LINE      CODE     ---       #151
      00FF700AH   LINE      CODE     ---       #153
      00FF7019H   LINE      CODE     ---       #154
      00FF7021H   LINE      CODE     ---       #155
      00FF702DH   LINE      CODE     ---       #156
      00FF7030H   LINE      CODE     ---       #157
      00FF7033H   LINE      CODE     ---       #158
      ---         BLOCKEND  ---      ---       LVL=0

      ---         MODULE    ---      ---       zf_driver_pwm
      00FFC183H   PUBLIC    HCONST   ---       PWM_PSCR_ADDR
      00FFC18BH   PUBLIC    HCONST   ---       PWM_CCR_ADDR
      00FFC1ABH   PUBLIC    HCONST   ---       PWM_ARR_ADDR
      00FFC1B3H   PUBLIC    HCONST   ---       PWM_CCER_ADDR
      00FFC1C3H   PUBLIC    HCONST   ---       PWM_CCMR_ADDR
      00FF7E7CH   PUBLIC    CODE     ---       pwm_set_duty
      00FF3990H   PUBLIC    CODE     ---       pwm_init
      0001149AH   PUBLIC    XDATA    BYTE      ?pwm_set_freq?BYTE
      00011583H   PUBLIC    XDATA    BYTE      ?pwm_init?BYTE
L251 LINKER/LOCATER V4.66.93.0                                                        03/30/2026  16:35:38  PAGE 74


      000000D0H   SFRSYM    DATA     BYTE      PSW
      0000009DH   SFRSYM    DATA     BYTE      IRCBAND
      00000097H   SFRSYM    DATA     BYTE      AUXR2
      000000EFH   SFRSYM    DATA     BYTE      AUXINTIF
      000000FDH   SFRSYM    DATA     BYTE      S4CON
      000000ACH   SFRSYM    DATA     BYTE      S3CON
      0000009AH   SFRSYM    DATA     BYTE      S2CON
      000000B7H   SFRSYM    DATA     BYTE      IPH
      000000CDH   SFRSYM    DATA     BYTE      SPSTAT
      000000DDH   SFRSYM    DATA     BYTE      T4T3M
      000000C1H   SFRSYM    DATA     BYTE      WDT_CONTR
      000000DFH   SFRSYM    DATA     BYTE      IP3
      000000F4H   SFRSYM    DATA     BYTE      USBCON
      000000B5H   SFRSYM    DATA     BYTE      IP2
      000000FFH   SFRSYM    DATA     BYTE      RSTCFG
      000000C7H   SFRSYM    DATA     BYTE      IAP_CONTR
      000000F9H   SFRSYM    DATA     BYTE      LINICR
      0000008EH   SFRSYM    DATA     BYTE      AUXR
      000000AFH   SFRSYM    DATA     BYTE      IE2
      00000088H   SFRSYM    DATA     BYTE      TCON
      00000089H   SFRSYM    DATA     BYTE      TMOD
      00000098H   SFRSYM    DATA     BYTE      SCON
      000000F1H   SFRSYM    DATA     BYTE      CANICR
      00000087H   SFRSYM    DATA     BYTE      PCON
      000000BCH   SFRSYM    DATA     BYTE      ADC_CONTR
      000000E7H   SFRSYM    DATA     BYTE      CMPCR2
      000000E6H   SFRSYM    DATA     BYTE      CMPCR1
      000000DEH   SFRSYM    DATA     BYTE      ADCCFG
      000000B8H   SFRSYM    DATA     BYTE      IP
      0000008FH   SFRSYM    DATA     BYTE      INTCLKO
      000000EEH   SFRSYM    DATA     BYTE      IP3H
      000000B6H   SFRSYM    DATA     BYTE      IP2H
      000000A8H   SFRSYM    DATA     BYTE      IE
      000000BBH   SFRSYM    DATA     BYTE      P_SW3
      000000BAH   SFRSYM    DATA     BYTE      P_SW2
      000000A2H   SFRSYM    DATA     BYTE      P_SW1
      000000CEH   SFRSYM    DATA     BYTE      SPCTL
      000000F8H   SFRSYM    DATA     BYTE      P7
      000000E8H   SFRSYM    DATA     BYTE      P6
      000000C8H   SFRSYM    DATA     BYTE      P5
      000000C0H   SFRSYM    DATA     BYTE      P4
      000000B0H   SFRSYM    DATA     BYTE      P3
      000000A0H   SFRSYM    DATA     BYTE      P2
      00000090H   SFRSYM    DATA     BYTE      P1
      00000080H   SFRSYM    DATA     BYTE      P0
      0001149AH   SYMBOL    XDATA    INT       pin
      0001149CH   SYMBOL    XDATA    DWORD     freq
      000114A0H   SYMBOL    XDATA    DWORD     duty
      000114A4H   SYMBOL    XDATA    DWORD     match_temp
      000114A8H   SYMBOL    XDATA    DWORD     period_temp
      000114ACH   SYMBOL    XDATA    WORD      freq_div

      00FF7E7CH   BLOCK     CODE     ---       LVL=0
      00011749H   SYMBOL    XDATA    INT       pin
      0001174BH   SYMBOL    XDATA    DWORD     duty
      00FF7E8CH   BLOCK     CODE     NEAR LAB  LVL=1
      0001174FH   SYMBOL    XDATA    DWORD     match_temp
      00011753H   SYMBOL    XDATA    DWORD     arr
      ---         BLOCKEND  ---      ---       LVL=1
      00FF7E7CH   LINE      CODE     ---       #133
      00FF7E8CH   LINE      CODE     ---       #134
      00FF7E8CH   LINE      CODE     ---       #136
      00FF7F04H   LINE      CODE     ---       #139
      00FF7F28H   LINE      CODE     ---       #141
      00FF7F38H   LINE      CODE     ---       #143
L251 LINKER/LOCATER V4.66.93.0                                                        03/30/2026  16:35:38  PAGE 75


      00FF7F71H   LINE      CODE     ---       #144
      00FF7F73H   LINE      CODE     ---       #147
      00FF7F8DH   LINE      CODE     ---       #148
      00FF7F8DH   LINE      CODE     ---       #151
      00FF7FEBH   LINE      CODE     ---       #152
      00FF804FH   LINE      CODE     ---       #154
      ---         BLOCKEND  ---      ---       LVL=0

      00FF3990H   BLOCK     CODE     ---       LVL=0
      00011583H   SYMBOL    XDATA    INT       pin
      00011585H   SYMBOL    XDATA    DWORD     freq
      00011589H   SYMBOL    XDATA    DWORD     duty
      00FF39A0H   BLOCK     CODE     NEAR LAB  LVL=1
      0001158DH   SYMBOL    XDATA    WORD      match_temp
      0001158FH   SYMBOL    XDATA    DWORD     period_temp
      00011593H   SYMBOL    XDATA    WORD      freq_div
      ---         BLOCKEND  ---      ---       LVL=1
      00FF3990H   LINE      CODE     ---       #165
      00FF39A0H   LINE      CODE     ---       #166
      00FF39A0H   LINE      CODE     ---       #168
      00FF39A8H   LINE      CODE     ---       #169
      00FF39B4H   LINE      CODE     ---       #170
      00FF39BCH   LINE      CODE     ---       #173
      00FF39E0H   LINE      CODE     ---       #175
      00FF39F9H   LINE      CODE     ---       #179
      00FF3A1AH   LINE      CODE     ---       #180
      00FF3A3BH   LINE      CODE     ---       #181
      00FF3A64H   LINE      CODE     ---       #183
      00FF3A74H   LINE      CODE     ---       #185
      00FF3AA9H   LINE      CODE     ---       #186
      00FF3AABH   LINE      CODE     ---       #189
      00FF3AC3H   LINE      CODE     ---       #190
      00FF3AC3H   LINE      CODE     ---       #192
      00FF3AFBH   LINE      CODE     ---       #193
      00FF3B37H   LINE      CODE     ---       #195
      00FF3B71H   LINE      CODE     ---       #196
      00FF3BB1H   LINE      CODE     ---       #198
      00FF3C0DH   LINE      CODE     ---       #199
      00FF3C6DH   LINE      CODE     ---       #201
      00FF3C88H   LINE      CODE     ---       #203
      00FF3CD7H   LINE      CODE     ---       #204
      00FF3D1CH   LINE      CODE     ---       #205
      00FF3DB6H   LINE      CODE     ---       #207
      00FF3DC3H   LINE      CODE     ---       #208
      00FF3DD0H   LINE      CODE     ---       #209
      00FF3DD3H   LINE      CODE     ---       #210
      00FF3DEEH   LINE      CODE     ---       #212
      00FF3E3DH   LINE      CODE     ---       #213
      00FF3E82H   LINE      CODE     ---       #214
      00FF3F02H   LINE      CODE     ---       #216
      00FF3F0FH   LINE      CODE     ---       #217
      00FF3F1CH   LINE      CODE     ---       #218
      00FF3F1CH   LINE      CODE     ---       #220
      00FF3F77H   LINE      CODE     ---       #221
      00FF3FD2H   LINE      CODE     ---       #222
      ---         BLOCKEND  ---      ---       LVL=0

      ---         MODULE    ---      ---       zf_driver_soft_iic
      00FF9A25H   PUBLIC    CODE     ---       soft_iic_wait_ack
      00FF9E32H   PUBLIC    CODE     ---       soft_iic_stop
      00FFB2F6H   PUBLIC    CODE     ---       soft_iic_delay
      00FF8B54H   PUBLIC    CODE     ---       soft_iic_read_data
      00FF00A6H   PUBLIC    CODE     ---       soft_iic_send_data
      00FFA0F9H   PUBLIC    CODE     ---       soft_iic_start
      00FF9B08H   PUBLIC    CODE     ---       soft_iic_send_ack
L251 LINKER/LOCATER V4.66.93.0                                                        03/30/2026  16:35:38  PAGE 76


      0001189AH   PUBLIC    XDATA    BYTE      ?soft_iic_write_8bit_array?BYTE
      000118A6H   PUBLIC    XDATA    BYTE      ?soft_iic_write_16bit_array?BYTE
      000117FEH   PUBLIC    XDATA    BYTE      ?soft_iic_write_8bit_registers?BYTE
      00011757H   PUBLIC    XDATA    BYTE      ?soft_iic_write_16bit_registers?BYTE
      000118B2H   PUBLIC    XDATA    BYTE      ?soft_iic_read_8bit_array?BYTE
      000118BEH   PUBLIC    XDATA    BYTE      ?soft_iic_read_16bit_array?BYTE
      0001180BH   PUBLIC    XDATA    BYTE      ?soft_iic_read_8bit_registers?BYTE
      00011765H   PUBLIC    XDATA    BYTE      ?soft_iic_read_16bit_registers?BYTE
      000114AEH   PUBLIC    XDATA    BYTE      ?soft_iic_transfer_8bit_array?BYTE
      000114C2H   PUBLIC    XDATA    BYTE      ?soft_iic_transfer_16bit_array?BYTE
      00011818H   PUBLIC    XDATA    BYTE      ?soft_iic_init?BYTE
      000000D0H   SFRSYM    DATA     BYTE      PSW
      0000009DH   SFRSYM    DATA     BYTE      IRCBAND
      00000097H   SFRSYM    DATA     BYTE      AUXR2
      000000EFH   SFRSYM    DATA     BYTE      AUXINTIF
      000000FDH   SFRSYM    DATA     BYTE      S4CON
      000000ACH   SFRSYM    DATA     BYTE      S3CON
      0000009AH   SFRSYM    DATA     BYTE      S2CON
      000000B7H   SFRSYM    DATA     BYTE      IPH
      000000CDH   SFRSYM    DATA     BYTE      SPSTAT
      000000DDH   SFRSYM    DATA     BYTE      T4T3M
      000000C1H   SFRSYM    DATA     BYTE      WDT_CONTR
      000000DFH   SFRSYM    DATA     BYTE      IP3
      000000F4H   SFRSYM    DATA     BYTE      USBCON
      000000B5H   SFRSYM    DATA     BYTE      IP2
      000000FFH   SFRSYM    DATA     BYTE      RSTCFG
      000000C7H   SFRSYM    DATA     BYTE      IAP_CONTR
      000000F9H   SFRSYM    DATA     BYTE      LINICR
      0000008EH   SFRSYM    DATA     BYTE      AUXR
      000000AFH   SFRSYM    DATA     BYTE      IE2
      00000088H   SFRSYM    DATA     BYTE      TCON
      00000089H   SFRSYM    DATA     BYTE      TMOD
      00000098H   SFRSYM    DATA     BYTE      SCON
      000000F1H   SFRSYM    DATA     BYTE      CANICR
      00000087H   SFRSYM    DATA     BYTE      PCON
      000000BCH   SFRSYM    DATA     BYTE      ADC_CONTR
      000000E7H   SFRSYM    DATA     BYTE      CMPCR2
      000000E6H   SFRSYM    DATA     BYTE      CMPCR1
      000000DEH   SFRSYM    DATA     BYTE      ADCCFG
      000000B8H   SFRSYM    DATA     BYTE      IP
      0000008FH   SFRSYM    DATA     BYTE      INTCLKO
      000000EEH   SFRSYM    DATA     BYTE      IP3H
      000000B6H   SFRSYM    DATA     BYTE      IP2H
      000000A8H   SFRSYM    DATA     BYTE      IE
      000000BBH   SFRSYM    DATA     BYTE      P_SW3
      000000BAH   SFRSYM    DATA     BYTE      P_SW2
      000000A2H   SFRSYM    DATA     BYTE      P_SW1
      000000CEH   SFRSYM    DATA     BYTE      SPCTL
      000000F8H   SFRSYM    DATA     BYTE      P7
      000000E8H   SFRSYM    DATA     BYTE      P6
      000000C8H   SFRSYM    DATA     BYTE      P5
      000000C0H   SFRSYM    DATA     BYTE      P4
      000000B0H   SFRSYM    DATA     BYTE      P3
      000000A0H   SFRSYM    DATA     BYTE      P2
      00000090H   SFRSYM    DATA     BYTE      P1
      00000080H   SFRSYM    DATA     BYTE      P0

      00FFB2F6H   BLOCK     CODE     ---       LVL=0
      00011C2CH   SYMBOL    XDATA    DWORD     delay
      00FFB300H   BLOCK     CODE     NEAR LAB  LVL=1
      00011C30H   SYMBOL    XDATA    DWORD     count
      ---         BLOCKEND  ---      ---       LVL=1
      00FFB2F6H   LINE      CODE     ---       #53
      00FFB300H   LINE      CODE     ---       #54
      00FFB300H   LINE      CODE     ---       #55
L251 LINKER/LOCATER V4.66.93.0                                                        03/30/2026  16:35:38  PAGE 77


      00FFB314H   LINE      CODE     ---       #56
      00FFB331H   LINE      CODE     ---       #57
      ---         BLOCKEND  ---      ---       LVL=0

      00FFA0F9H   BLOCK     CODE     ---       LVL=0
      00011E8CH   SYMBOL    XDATA    ---       soft_iic_obj
      00FFA0F9H   LINE      CODE     ---       #67
      00FFA103H   LINE      CODE     ---       #69
      00FFA125H   LINE      CODE     ---       #70
      00FFA137H   LINE      CODE     ---       #71
      00FFA14BH   LINE      CODE     ---       #73
      00FFA163H   LINE      CODE     ---       #74
      00FFA176H   LINE      CODE     ---       #75
      00FFA18EH   LINE      CODE     ---       #76
      00FFA19FH   LINE      CODE     ---       #77
      ---         BLOCKEND  ---      ---       LVL=0

      00FF9E32H   BLOCK     CODE     ---       LVL=0
      00011E90H   SYMBOL    XDATA    ---       soft_iic_obj
      00FF9E32H   LINE      CODE     ---       #86
      00FF9E3CH   LINE      CODE     ---       #88
      00FF9E5EH   LINE      CODE     ---       #89
      00FF9E71H   LINE      CODE     ---       #90
      00FF9E82H   LINE      CODE     ---       #92
      00FF9E9AH   LINE      CODE     ---       #93
      00FF9EACH   LINE      CODE     ---       #94
      00FF9EC4H   LINE      CODE     ---       #95
      00FF9ED8H   LINE      CODE     ---       #96
      00FF9EF0H   LINE      CODE     ---       #97
      ---         BLOCKEND  ---      ---       LVL=0

      00FF9B08H   BLOCK     CODE     ---       LVL=0
      00011E04H   SYMBOL    XDATA    ---       soft_iic_obj
      00011E08H   SYMBOL    XDATA    BYTE      ack
      00FF9B08H   LINE      CODE     ---       #107
      00FF9B16H   LINE      CODE     ---       #109
      00FF9B38H   LINE      CODE     ---       #110
      00FF9B49H   LINE      CODE     ---       #112
      00FF9B52H   LINE      CODE     ---       #114
      00FF9B66H   LINE      CODE     ---       #115
      00FF9B68H   LINE      CODE     ---       #118
      00FF9B7BH   LINE      CODE     ---       #119
      00FF9B7BH   LINE      CODE     ---       #121
      00FF9B93H   LINE      CODE     ---       #122
      00FF9BA5H   LINE      CODE     ---       #123
      00FF9BBDH   LINE      CODE     ---       #124
      00FF9BCEH   LINE      CODE     ---       #125
      00FF9BE2H   LINE      CODE     ---       #126
      ---         BLOCKEND  ---      ---       LVL=0

      00FF9A25H   BLOCK     CODE     ---       LVL=0
      00011E09H   SYMBOL    XDATA    ---       soft_iic_obj
      00FF9A2FH   BLOCK     CODE     NEAR LAB  LVL=1
      00011E0DH   SYMBOL    XDATA    BYTE      temp
      ---         BLOCKEND  ---      ---       LVL=1
      00FF9A25H   LINE      CODE     ---       #135
      00FF9A2FH   LINE      CODE     ---       #136
      00FF9A2FH   LINE      CODE     ---       #137
      00FF9A34H   LINE      CODE     ---       #138
      00FF9A56H   LINE      CODE     ---       #140
      00FF9A67H   LINE      CODE     ---       #141
      00FF9A7BH   LINE      CODE     ---       #145
      00FF9A93H   LINE      CODE     ---       #147
      00FF9AA5H   LINE      CODE     ---       #148
      00FF9ABDH   LINE      CODE     ---       #150
L251 LINKER/LOCATER V4.66.93.0                                                        03/30/2026  16:35:38  PAGE 78


      00FF9AD4H   LINE      CODE     ---       #152
      00FF9ADAH   LINE      CODE     ---       #153
      00FF9ADAH   LINE      CODE     ---       #154
      00FF9AEBH   LINE      CODE     ---       #158
      00FF9B03H   LINE      CODE     ---       #160
      00FF9B07H   LINE      CODE     ---       #161
      ---         BLOCKEND  ---      ---       LVL=0

      00FF00A6H   BLOCK     CODE     ---       LVL=0
      00011D36H   SYMBOL    XDATA    ---       soft_iic_obj
      00011D3AH   SYMBOL    XDATA    BYTE      dat
      00FF00B4H   BLOCK     CODE     NEAR LAB  LVL=1
      00011D3BH   SYMBOL    XDATA    BYTE      temp
      ---         BLOCKEND  ---      ---       LVL=1
      00FF00A6H   LINE      CODE     ---       #170
      00FF00B4H   LINE      CODE     ---       #171
      00FF00B4H   LINE      CODE     ---       #172
      00FF00BAH   LINE      CODE     ---       #174
      00FF00DCH   LINE      CODE     ---       #176
      00FF00DFH   LINE      CODE     ---       #179
      00FF011CH   LINE      CODE     ---       #180
      00FF0123H   LINE      CODE     ---       #182
      00FF013BH   LINE      CODE     ---       #183
      00FF014DH   LINE      CODE     ---       #184
      00FF0165H   LINE      CODE     ---       #185
      00FF0176H   LINE      CODE     ---       #186
      00FF0182H   LINE      CODE     ---       #187
      00FF0199H   LINE      CODE     ---       #188
      ---         BLOCKEND  ---      ---       LVL=0

      00FF8B54H   BLOCK     CODE     ---       LVL=0
      00011CFBH   SYMBOL    XDATA    ---       soft_iic_obj
      00011CFFH   SYMBOL    XDATA    BYTE      ack
      00FF8B62H   BLOCK     CODE     NEAR LAB  LVL=1
      00011D00H   SYMBOL    XDATA    BYTE      dat
      00011D01H   SYMBOL    XDATA    BYTE      temp
      ---         BLOCKEND  ---      ---       LVL=1
      00FF8B54H   LINE      CODE     ---       #197
      00FF8B62H   LINE      CODE     ---       #198
      00FF8B62H   LINE      CODE     ---       #199
      00FF8B67H   LINE      CODE     ---       #200
      00FF8B6DH   LINE      CODE     ---       #201
      00FF8B8FH   LINE      CODE     ---       #202
      00FF8BA0H   LINE      CODE     ---       #203
      00FF8BB8H   LINE      CODE     ---       #204
      00FF8BCCH   LINE      CODE     ---       #209
      00FF8BCEH   LINE      CODE     ---       #211
      00FF8BDFH   LINE      CODE     ---       #212
      00FF8BF7H   LINE      CODE     ---       #213
      00FF8C09H   LINE      CODE     ---       #214
      00FF8C21H   LINE      CODE     ---       #215
      00FF8C41H   LINE      CODE     ---       #216
      00FF8C57H   LINE      CODE     ---       #217
      00FF8C68H   LINE      CODE     ---       #221
      00FF8C80H   LINE      CODE     ---       #222
      00FF8C91H   LINE      CODE     ---       #223
      00FF8C95H   LINE      CODE     ---       #224
      ---         BLOCKEND  ---      ---       LVL=0
      00011E0EH   SYMBOL    XDATA    ---       soft_iic_obj
      00011E12H   SYMBOL    XDATA    BYTE      dat
      0001189AH   SYMBOL    XDATA    ---       soft_iic_obj
      0001189EH   SYMBOL    XDATA    ---       dat
      000118A2H   SYMBOL    XDATA    DWORD     len
      00011D3CH   SYMBOL    XDATA    ---       soft_iic_obj
      00011D40H   SYMBOL    XDATA    WORD      dat
L251 LINKER/LOCATER V4.66.93.0                                                        03/30/2026  16:35:38  PAGE 79


      000118A6H   SYMBOL    XDATA    ---       soft_iic_obj
      000118AAH   SYMBOL    XDATA    ---       dat
      000118AEH   SYMBOL    XDATA    DWORD     len
      00011D42H   SYMBOL    XDATA    ---       soft_iic_obj
      00011D46H   SYMBOL    XDATA    BYTE      register_name
      00011D47H   SYMBOL    XDATA    BYTE      dat
      000117FEH   SYMBOL    XDATA    ---       soft_iic_obj
      00011802H   SYMBOL    XDATA    BYTE      register_name
      00011803H   SYMBOL    XDATA    ---       dat
      00011807H   SYMBOL    XDATA    DWORD     len
      00011C34H   SYMBOL    XDATA    ---       soft_iic_obj
      00011C38H   SYMBOL    XDATA    WORD      register_name
      00011C3AH   SYMBOL    XDATA    WORD      dat
      00011757H   SYMBOL    XDATA    ---       soft_iic_obj
      0001175BH   SYMBOL    XDATA    WORD      register_name
      0001175DH   SYMBOL    XDATA    ---       dat
      00011761H   SYMBOL    XDATA    DWORD     len
      00011E13H   SYMBOL    XDATA    ---       soft_iic_obj
      00011E17H   SYMBOL    XDATA    BYTE      temp
      000118B2H   SYMBOL    XDATA    ---       soft_iic_obj
      000118B6H   SYMBOL    XDATA    ---       dat
      000118BAH   SYMBOL    XDATA    DWORD     len
      00011D48H   SYMBOL    XDATA    ---       soft_iic_obj
      00011D4CH   SYMBOL    XDATA    WORD      temp
      000118BEH   SYMBOL    XDATA    ---       soft_iic_obj
      000118C2H   SYMBOL    XDATA    ---       dat
      000118C6H   SYMBOL    XDATA    DWORD     len
      00011D4EH   SYMBOL    XDATA    ---       soft_iic_obj
      00011D52H   SYMBOL    XDATA    BYTE      register_name
      00011D53H   SYMBOL    XDATA    BYTE      temp
      0001180BH   SYMBOL    XDATA    ---       soft_iic_obj
      0001180FH   SYMBOL    XDATA    BYTE      register_name
      00011810H   SYMBOL    XDATA    ---       dat
      00011814H   SYMBOL    XDATA    DWORD     len
      00011C3CH   SYMBOL    XDATA    ---       soft_iic_obj
      00011C40H   SYMBOL    XDATA    WORD      register_name
      00011C42H   SYMBOL    XDATA    WORD      temp
      00011765H   SYMBOL    XDATA    ---       soft_iic_obj
      00011769H   SYMBOL    XDATA    WORD      register_name
      0001176BH   SYMBOL    XDATA    ---       dat
      0001176FH   SYMBOL    XDATA    DWORD     len
      000114AEH   SYMBOL    XDATA    ---       soft_iic_obj
      000114B2H   SYMBOL    XDATA    ---       write_data
      000114B6H   SYMBOL    XDATA    DWORD     write_len
      000114BAH   SYMBOL    XDATA    ---       read_data
      000114BEH   SYMBOL    XDATA    DWORD     read_len
      000114C2H   SYMBOL    XDATA    ---       soft_iic_obj
      000114C6H   SYMBOL    XDATA    ---       write_data
      000114CAH   SYMBOL    XDATA    DWORD     write_len
      000114CEH   SYMBOL    XDATA    ---       read_data
      000114D2H   SYMBOL    XDATA    DWORD     read_len
      00011D54H   SYMBOL    XDATA    ---       soft_iic_obj
      00011D58H   SYMBOL    XDATA    BYTE      register_name
      00011D59H   SYMBOL    XDATA    BYTE      dat
      00011D5AH   SYMBOL    XDATA    ---       soft_iic_obj
      00011D5EH   SYMBOL    XDATA    BYTE      register_name
      00011D5FH   SYMBOL    XDATA    BYTE      temp
      00011818H   SYMBOL    XDATA    ---       soft_iic_obj
      0001181CH   SYMBOL    XDATA    BYTE      addr
      0001181DH   SYMBOL    XDATA    DWORD     delay
      00011821H   SYMBOL    XDATA    INT       scl_pin
      00011823H   SYMBOL    XDATA    INT       sda_pin

      ---         MODULE    ---      ---       zf_driver_soft_spi
      000118CAH   PUBLIC    XDATA    BYTE      ?soft_spi_write_8bit_array?BYTE
L251 LINKER/LOCATER V4.66.93.0                                                        03/30/2026  16:35:38  PAGE 80


      000118D6H   PUBLIC    XDATA    BYTE      ?soft_spi_write_16bit_array?BYTE
      00011825H   PUBLIC    XDATA    BYTE      ?soft_spi_write_8bit_registers?BYTE
      00011773H   PUBLIC    XDATA    BYTE      ?soft_spi_write_16bit_registers?BYTE
      000118E2H   PUBLIC    XDATA    BYTE      ?soft_spi_read_8bit_array?BYTE
      000118EEH   PUBLIC    XDATA    BYTE      ?soft_spi_read_16bit_array?BYTE
      00011832H   PUBLIC    XDATA    BYTE      ?soft_spi_read_8bit_registers?BYTE
      00011781H   PUBLIC    XDATA    BYTE      ?soft_spi_read_16bit_registers?BYTE
      00011674H   PUBLIC    XDATA    BYTE      ?soft_spi_transfer_8bit?BYTE
      00011684H   PUBLIC    XDATA    BYTE      ?soft_spi_transfer_16bit?BYTE
      00011448H   PUBLIC    XDATA    BYTE      ?soft_spi_init?BYTE
      000000D0H   SFRSYM    DATA     BYTE      PSW
      0000009DH   SFRSYM    DATA     BYTE      IRCBAND
      00000097H   SFRSYM    DATA     BYTE      AUXR2
      000000EFH   SFRSYM    DATA     BYTE      AUXINTIF
      000000FDH   SFRSYM    DATA     BYTE      S4CON
      000000ACH   SFRSYM    DATA     BYTE      S3CON
      0000009AH   SFRSYM    DATA     BYTE      S2CON
      000000B7H   SFRSYM    DATA     BYTE      IPH
      000000CDH   SFRSYM    DATA     BYTE      SPSTAT
      000000DDH   SFRSYM    DATA     BYTE      T4T3M
      000000C1H   SFRSYM    DATA     BYTE      WDT_CONTR
      000000DFH   SFRSYM    DATA     BYTE      IP3
      000000F4H   SFRSYM    DATA     BYTE      USBCON
      000000B5H   SFRSYM    DATA     BYTE      IP2
      000000FFH   SFRSYM    DATA     BYTE      RSTCFG
      000000C7H   SFRSYM    DATA     BYTE      IAP_CONTR
      000000F9H   SFRSYM    DATA     BYTE      LINICR
      0000008EH   SFRSYM    DATA     BYTE      AUXR
      000000AFH   SFRSYM    DATA     BYTE      IE2
      00000088H   SFRSYM    DATA     BYTE      TCON
      00000089H   SFRSYM    DATA     BYTE      TMOD
      00000098H   SFRSYM    DATA     BYTE      SCON
      000000F1H   SFRSYM    DATA     BYTE      CANICR
      00000087H   SFRSYM    DATA     BYTE      PCON
      000000BCH   SFRSYM    DATA     BYTE      ADC_CONTR
      000000E7H   SFRSYM    DATA     BYTE      CMPCR2
      000000E6H   SFRSYM    DATA     BYTE      CMPCR1
      000000DEH   SFRSYM    DATA     BYTE      ADCCFG
      000000B8H   SFRSYM    DATA     BYTE      IP
      0000008FH   SFRSYM    DATA     BYTE      INTCLKO
      000000EEH   SFRSYM    DATA     BYTE      IP3H
      000000B6H   SFRSYM    DATA     BYTE      IP2H
      000000A8H   SFRSYM    DATA     BYTE      IE
      000000BBH   SFRSYM    DATA     BYTE      P_SW3
      000000BAH   SFRSYM    DATA     BYTE      P_SW2
      000000A2H   SFRSYM    DATA     BYTE      P_SW1
      000000CEH   SFRSYM    DATA     BYTE      SPCTL
      000000F8H   SFRSYM    DATA     BYTE      P7
      000000E8H   SFRSYM    DATA     BYTE      P6
      000000C8H   SFRSYM    DATA     BYTE      P5
      000000C0H   SFRSYM    DATA     BYTE      P4
      000000B0H   SFRSYM    DATA     BYTE      P3
      000000A0H   SFRSYM    DATA     BYTE      P2
      00000090H   SFRSYM    DATA     BYTE      P1
      00000080H   SFRSYM    DATA     BYTE      P0
      00011C44H   SYMBOL    XDATA    DWORD     x
      00011C48H   SYMBOL    XDATA    DWORD     i
      00011C4CH   SYMBOL    XDATA    ---       soft_spi_obj
      00011C50H   SYMBOL    XDATA    BYTE      dat
      00011C51H   SYMBOL    XDATA    BYTE      temp
      00011C52H   SYMBOL    XDATA    BYTE      write_data
      00011C53H   SYMBOL    XDATA    BYTE      read_data
      00011A3CH   SYMBOL    XDATA    ---       soft_spi_obj
      00011A40H   SYMBOL    XDATA    WORD      dat
      00011A42H   SYMBOL    XDATA    BYTE      temp
L251 LINKER/LOCATER V4.66.93.0                                                        03/30/2026  16:35:38  PAGE 81


      00011A43H   SYMBOL    XDATA    WORD      write_data
      00011A45H   SYMBOL    XDATA    WORD      read_data
      00011E18H   SYMBOL    XDATA    ---       soft_spi_obj
      00011E1CH   SYMBOL    XDATA    BYTE      dat
      000118CAH   SYMBOL    XDATA    ---       soft_spi_obj
      000118CEH   SYMBOL    XDATA    ---       dat
      000118D2H   SYMBOL    XDATA    DWORD     len
      00011D60H   SYMBOL    XDATA    ---       soft_spi_obj
      00011D64H   SYMBOL    XDATA    WORD      dat
      000118D6H   SYMBOL    XDATA    ---       soft_spi_obj
      000118DAH   SYMBOL    XDATA    ---       dat
      000118DEH   SYMBOL    XDATA    DWORD     len
      00011D66H   SYMBOL    XDATA    ---       soft_spi_obj
      00011D6AH   SYMBOL    XDATA    BYTE      register_name
      00011D6BH   SYMBOL    XDATA    BYTE      dat
      00011825H   SYMBOL    XDATA    ---       soft_spi_obj
      00011829H   SYMBOL    XDATA    BYTE      register_name
      0001182AH   SYMBOL    XDATA    ---       dat
      0001182EH   SYMBOL    XDATA    DWORD     len
      00011C54H   SYMBOL    XDATA    ---       soft_spi_obj
      00011C58H   SYMBOL    XDATA    WORD      register_name
      00011C5AH   SYMBOL    XDATA    WORD      dat
      00011773H   SYMBOL    XDATA    ---       soft_spi_obj
      00011777H   SYMBOL    XDATA    WORD      register_name
      00011779H   SYMBOL    XDATA    ---       dat
      0001177DH   SYMBOL    XDATA    DWORD     len
      00011E1DH   SYMBOL    XDATA    ---       soft_spi_obj
      00011E21H   SYMBOL    XDATA    BYTE      dat
      000118E2H   SYMBOL    XDATA    ---       soft_spi_obj
      000118E6H   SYMBOL    XDATA    ---       dat
      000118EAH   SYMBOL    XDATA    DWORD     len
      00011E22H   SYMBOL    XDATA    ---       soft_spi_obj
      00011E26H   SYMBOL    XDATA    BYTE      dat
      000118EEH   SYMBOL    XDATA    ---       soft_spi_obj
      000118F2H   SYMBOL    XDATA    ---       dat
      000118F6H   SYMBOL    XDATA    DWORD     len
      00011D6CH   SYMBOL    XDATA    ---       soft_spi_obj
      00011D70H   SYMBOL    XDATA    BYTE      register_name
      00011D71H   SYMBOL    XDATA    BYTE      dat
      00011832H   SYMBOL    XDATA    ---       soft_spi_obj
      00011836H   SYMBOL    XDATA    BYTE      register_name
      00011837H   SYMBOL    XDATA    ---       dat
      0001183BH   SYMBOL    XDATA    DWORD     len
      00011C5CH   SYMBOL    XDATA    ---       soft_spi_obj
      00011C60H   SYMBOL    XDATA    WORD      register_name
      00011C62H   SYMBOL    XDATA    WORD      dat
      00011781H   SYMBOL    XDATA    ---       soft_spi_obj
      00011785H   SYMBOL    XDATA    WORD      register_name
      00011787H   SYMBOL    XDATA    ---       dat
      0001178BH   SYMBOL    XDATA    DWORD     len
      00011674H   SYMBOL    XDATA    ---       soft_spi_obj
      00011678H   SYMBOL    XDATA    ---       write_buffer
      0001167CH   SYMBOL    XDATA    ---       read_buffer
      00011680H   SYMBOL    XDATA    DWORD     len
      00011684H   SYMBOL    XDATA    ---       soft_spi_obj
      00011688H   SYMBOL    XDATA    ---       write_buffer
      0001168CH   SYMBOL    XDATA    ---       read_buffer
      00011690H   SYMBOL    XDATA    DWORD     len
      00011448H   SYMBOL    XDATA    ---       soft_spi_obj
      0001144CH   SYMBOL    XDATA    BYTE      mode
      0001144DH   SYMBOL    XDATA    DWORD     delay
      00011451H   SYMBOL    XDATA    INT       sck_pin
      00011453H   SYMBOL    XDATA    INT       mosi_pin
      00011455H   SYMBOL    XDATA    DWORD     miso_pin
      00011459H   SYMBOL    XDATA    DWORD     cs_pin
L251 LINKER/LOCATER V4.66.93.0                                                        03/30/2026  16:35:38  PAGE 82



      ---         MODULE    ---      ---       zf_driver_spi
      00FF0066H   PUBLIC    CODE     ---       spi_write_8bit
      00FF56A0H   PUBLIC    CODE     ---       spi_init
      00FFB332H   PUBLIC    CODE     ---       spi_write_16bit
      00FFA9DCH   PUBLIC    CODE     ---       spi_read_dat
      00FFABF4H   PUBLIC    CODE     ---       spi_write_dat
      00011A9CH   PUBLIC    XDATA    BYTE      ?spi_write_8bit_array?BYTE
      00011AA6H   PUBLIC    XDATA    BYTE      ?spi_write_16bit_array?BYTE
      00011A47H   PUBLIC    XDATA    BYTE      ?spi_write_8bit_registers?BYTE
      000118FAH   PUBLIC    XDATA    BYTE      ?spi_write_16bit_registers?BYTE
      00011AB0H   PUBLIC    XDATA    BYTE      ?spi_read_8bit_array?BYTE
      00011ABAH   PUBLIC    XDATA    BYTE      ?spi_read_16bit_array?BYTE
      00011A52H   PUBLIC    XDATA    BYTE      ?spi_read_8bit_registers?BYTE
      00011906H   PUBLIC    XDATA    BYTE      ?spi_read_16bit_registers?BYTE
      0001178FH   PUBLIC    XDATA    BYTE      ?spi_transfer_8bit?BYTE
      0001179DH   PUBLIC    XDATA    BYTE      ?spi_transfer_16bit?BYTE
      000114D6H   PUBLIC    XDATA    BYTE      ?spi_init?BYTE
      000000CFH   SFRSYM    DATA     BYTE      SPDAT
      000000D0H   SFRSYM    DATA     BYTE      PSW
      0000009DH   SFRSYM    DATA     BYTE      IRCBAND
      00000097H   SFRSYM    DATA     BYTE      AUXR2
      000000EFH   SFRSYM    DATA     BYTE      AUXINTIF
      000000FDH   SFRSYM    DATA     BYTE      S4CON
      000000ACH   SFRSYM    DATA     BYTE      S3CON
      0000009AH   SFRSYM    DATA     BYTE      S2CON
      0000009BH   SFRSYM    DATA     BYTE      S2BUF
      000000B7H   SFRSYM    DATA     BYTE      IPH
      000000CDH   SFRSYM    DATA     BYTE      SPSTAT
      000000DDH   SFRSYM    DATA     BYTE      T4T3M
      000000C1H   SFRSYM    DATA     BYTE      WDT_CONTR
      000000DFH   SFRSYM    DATA     BYTE      IP3
      000000F4H   SFRSYM    DATA     BYTE      USBCON
      000000B5H   SFRSYM    DATA     BYTE      IP2
      000000FFH   SFRSYM    DATA     BYTE      RSTCFG
      000000C7H   SFRSYM    DATA     BYTE      IAP_CONTR
      000000F9H   SFRSYM    DATA     BYTE      LINICR
      0000008EH   SFRSYM    DATA     BYTE      AUXR
      000000AFH   SFRSYM    DATA     BYTE      IE2
      00000088H   SFRSYM    DATA     BYTE      TCON
      00000089H   SFRSYM    DATA     BYTE      TMOD
      00000098H   SFRSYM    DATA     BYTE      SCON
      000000F1H   SFRSYM    DATA     BYTE      CANICR
      00000087H   SFRSYM    DATA     BYTE      PCON
      00000099H   SFRSYM    DATA     BYTE      SBUF
      000000BCH   SFRSYM    DATA     BYTE      ADC_CONTR
      000000E7H   SFRSYM    DATA     BYTE      CMPCR2
      000000E6H   SFRSYM    DATA     BYTE      CMPCR1
      0000009AH.1 SFRSYM    DATA     BIT       S2TI
      00000098H.1 SFRSYM    DATA     BIT       TI
      000000DEH   SFRSYM    DATA     BYTE      ADCCFG
      000000B8H   SFRSYM    DATA     BYTE      IP
      0000008FH   SFRSYM    DATA     BYTE      INTCLKO
      000000EEH   SFRSYM    DATA     BYTE      IP3H
      000000B6H   SFRSYM    DATA     BYTE      IP2H
      000000A8H   SFRSYM    DATA     BYTE      IE
      000000BBH   SFRSYM    DATA     BYTE      P_SW3
      000000BAH   SFRSYM    DATA     BYTE      P_SW2
      000000A2H   SFRSYM    DATA     BYTE      P_SW1
      000000CEH   SFRSYM    DATA     BYTE      SPCTL
      000000F8H   SFRSYM    DATA     BYTE      P7
      000000E8H   SFRSYM    DATA     BYTE      P6
      000000C8H   SFRSYM    DATA     BYTE      P5
      000000C0H   SFRSYM    DATA     BYTE      P4
      000000B0H   SFRSYM    DATA     BYTE      P3
L251 LINKER/LOCATER V4.66.93.0                                                        03/30/2026  16:35:38  PAGE 83


      000000A0H   SFRSYM    DATA     BYTE      P2
      00000090H   SFRSYM    DATA     BYTE      P1
      00000080H   SFRSYM    DATA     BYTE      P0

      00FFABF4H   BLOCK     CODE     ---       LVL=0
      00011EFBH   SYMBOL    XDATA    INT       spi_n
      00011EFDH   SYMBOL    XDATA    BYTE      dat
      00FFABF4H   LINE      CODE     ---       #81
      00FFABFEH   LINE      CODE     ---       #83
      00FFAC10H   LINE      CODE     ---       #85
      00FFAC10H   LINE      CODE     ---       #86
      00FFAC14H   LINE      CODE     ---       #87
      00FFAC1AH   LINE      CODE     ---       #88
      00FFAC1FH   LINE      CODE     ---       #89
      00FFAC21H   LINE      CODE     ---       #90
      00FFAC21H   LINE      CODE     ---       #91
      00FFAC24H   LINE      CODE     ---       #92
      00FFAC2AH   LINE      CODE     ---       #93
      00FFAC2DH   LINE      CODE     ---       #94
      00FFAC2FH   LINE      CODE     ---       #95
      00FFAC2FH   LINE      CODE     ---       #96
      00FFAC33H   LINE      CODE     ---       #97
      00FFAC39H   LINE      CODE     ---       #98
      00FFAC3DH   LINE      CODE     ---       #99
      00FFAC3FH   LINE      CODE     ---       #100
      00FFAC3FH   LINE      CODE     ---       #101
      00FFAC4FH   LINE      CODE     ---       #102
      00FFAC4FH   LINE      CODE     ---       #103
      00FFAC4FH   LINE      CODE     ---       #104
      ---         BLOCKEND  ---      ---       LVL=0

      00FFA9DCH   BLOCK     CODE     ---       LVL=0
      00011E94H   SYMBOL    XDATA    INT       spi_n
      00011E96H   SYMBOL    XDATA    BYTE      dat
      00FFA9E6H   BLOCK     CODE     NEAR LAB  LVL=1
      00011E97H   SYMBOL    XDATA    BYTE      ret
      ---         BLOCKEND  ---      ---       LVL=1
      00FFA9DCH   LINE      CODE     ---       #107
      00FFA9E6H   LINE      CODE     ---       #108
      00FFA9E6H   LINE      CODE     ---       #109
      00FFA9ECH   LINE      CODE     ---       #110
      00FFA9FEH   LINE      CODE     ---       #112
      00FFA9FEH   LINE      CODE     ---       #113
      00FFAA02H   LINE      CODE     ---       #114
      00FFAA08H   LINE      CODE     ---       #115
      00FFAA0DH   LINE      CODE     ---       #116
      00FFAA13H   LINE      CODE     ---       #117
      00FFAA15H   LINE      CODE     ---       #118
      00FFAA15H   LINE      CODE     ---       #119
      00FFAA18H   LINE      CODE     ---       #120
      00FFAA1EH   LINE      CODE     ---       #121
      00FFAA21H   LINE      CODE     ---       #122
      00FFAA27H   LINE      CODE     ---       #123
      00FFAA29H   LINE      CODE     ---       #124
      00FFAA29H   LINE      CODE     ---       #125
      00FFAA2DH   LINE      CODE     ---       #126
      00FFAA33H   LINE      CODE     ---       #127
      00FFAA37H   LINE      CODE     ---       #128
      00FFAA3DH   LINE      CODE     ---       #129
      00FFAA3FH   LINE      CODE     ---       #130
      00FFAA3FH   LINE      CODE     ---       #131
      00FFAA4FH   LINE      CODE     ---       #132
      00FFAA4FH   LINE      CODE     ---       #133
      00FFAA4FH   LINE      CODE     ---       #135
      00FFAA53H   LINE      CODE     ---       #136
L251 LINKER/LOCATER V4.66.93.0                                                        03/30/2026  16:35:38  PAGE 84


      ---         BLOCKEND  ---      ---       LVL=0

      00FF0066H   BLOCK     CODE     ---       LVL=0
      00011EFEH   SYMBOL    XDATA    INT       spi_n
      00011F00H   SYMBOL    XDATA    BYTE      dat
      00FF0066H   LINE      CODE     ---       #147
      00FF0070H   LINE      CODE     ---       #149
      00FF007DH   LINE      CODE     ---       #150
      ---         BLOCKEND  ---      ---       LVL=0
      00011A9CH   SYMBOL    XDATA    INT       spi_n
      00011A9EH   SYMBOL    XDATA    ---       dat
      00011AA2H   SYMBOL    XDATA    DWORD     len

      00FFB332H   BLOCK     CODE     ---       LVL=0
      00011E98H   SYMBOL    XDATA    INT       spi_n
      00011E9AH   SYMBOL    XDATA    WORD      dat
      00FFB332H   LINE      CODE     ---       #175
      00FFB33EH   LINE      CODE     ---       #177
      00FFB357H   LINE      CODE     ---       #178
      00FFB36CH   LINE      CODE     ---       #179
      ---         BLOCKEND  ---      ---       LVL=0
      00011AA6H   SYMBOL    XDATA    INT       spi_n
      00011AA8H   SYMBOL    XDATA    ---       dat
      00011AACH   SYMBOL    XDATA    DWORD     len
      00011E9CH   SYMBOL    XDATA    INT       spi_n
      00011E9EH   SYMBOL    XDATA    BYTE      register_name
      00011E9FH   SYMBOL    XDATA    BYTE      dat
      00011A47H   SYMBOL    XDATA    INT       spi_n
      00011A49H   SYMBOL    XDATA    BYTE      register_name
      00011A4AH   SYMBOL    XDATA    ---       dat
      00011A4EH   SYMBOL    XDATA    DWORD     len
      00011D72H   SYMBOL    XDATA    INT       spi_n
      00011D74H   SYMBOL    XDATA    WORD      register_name
      00011D76H   SYMBOL    XDATA    WORD      dat
      000118FAH   SYMBOL    XDATA    INT       spi_n
      000118FCH   SYMBOL    XDATA    WORD      register_name
      000118FEH   SYMBOL    XDATA    ---       dat
      00011F2DH   SYMBOL    XDATA    INT       spi_n
      00011AB0H   SYMBOL    XDATA    INT       spi_n
      00011AB2H   SYMBOL    XDATA    ---       dat
      00011AB6H   SYMBOL    XDATA    DWORD     len
      00011EA0H   SYMBOL    XDATA    INT       spi_n
      00011EA2H   SYMBOL    XDATA    WORD      dat
      00011ABAH   SYMBOL    XDATA    INT       spi_n
      00011ABCH   SYMBOL    XDATA    ---       dat
      00011AC0H   SYMBOL    XDATA    DWORD     len
      00011F01H   SYMBOL    XDATA    INT       spi_n
      00011F03H   SYMBOL    XDATA    BYTE      register_name
      00011A52H   SYMBOL    XDATA    INT       spi_n
      00011A54H   SYMBOL    XDATA    BYTE      register_name
      00011A55H   SYMBOL    XDATA    ---       dat
      00011A59H   SYMBOL    XDATA    DWORD     len
      00011D78H   SYMBOL    XDATA    INT       spi_n
      00011D7AH   SYMBOL    XDATA    WORD      register_name
      00011D7CH   SYMBOL    XDATA    WORD      dat
      00011906H   SYMBOL    XDATA    INT       spi_n
      00011908H   SYMBOL    XDATA    WORD      register_name
      0001190AH   SYMBOL    XDATA    ---       dat
      0001190EH   SYMBOL    XDATA    DWORD     len
      0001178FH   SYMBOL    XDATA    INT       spi_n
      00011791H   SYMBOL    XDATA    ---       write_buffer
      00011795H   SYMBOL    XDATA    ---       read_buffer
      00011799H   SYMBOL    XDATA    DWORD     len
      0001179DH   SYMBOL    XDATA    INT       spi_n
      0001179FH   SYMBOL    XDATA    ---       write_buffer
L251 LINKER/LOCATER V4.66.93.0                                                        03/30/2026  16:35:38  PAGE 85


      000117A3H   SYMBOL    XDATA    ---       read_buffer
      000117A7H   SYMBOL    XDATA    DWORD     len

      00FF56A0H   BLOCK     CODE     ---       LVL=0
      000114D6H   SYMBOL    XDATA    INT       spi_n
      000114D8H   SYMBOL    XDATA    INT       mode
      000114DAH   SYMBOL    XDATA    DWORD     baud
      000114DEH   SYMBOL    XDATA    INT       sck_pin
      000114E0H   SYMBOL    XDATA    INT       mosi_pin
      000114E2H   SYMBOL    XDATA    INT       miso_pin
      000114E4H   SYMBOL    XDATA    INT       cs_pin
      00FF56B6H   BLOCK     CODE     NEAR LAB  LVL=1
      000114E6H   SYMBOL    XDATA    DWORD     spi_psc
      ---         BLOCKEND  ---      ---       LVL=1
      00FF56A0H   LINE      CODE     ---       #465
      00FF56B6H   LINE      CODE     ---       #466
      00FF56B6H   LINE      CODE     ---       #468
      00FF56C2H   LINE      CODE     ---       #470
      00FF56DEH   LINE      CODE     ---       #472
      00FF56EEH   LINE      CODE     ---       #474
      00FF56EEH   LINE      CODE     ---       #476
      00FF5707H   LINE      CODE     ---       #477
      00FF5720H   LINE      CODE     ---       #479
      00FF572EH   LINE      CODE     ---       #481
      00FF5743H   LINE      CODE     ---       #482
      00FF5743H   LINE      CODE     ---       #484
      00FF5751H   LINE      CODE     ---       #486
      00FF5769H   LINE      CODE     ---       #487
      00FF5769H   LINE      CODE     ---       #490
      00FF5779H   LINE      CODE     ---       #492
      00FF578AH   LINE      CODE     ---       #493
      00FF579BH   LINE      CODE     ---       #494
      00FF57A9H   LINE      CODE     ---       #496
      00FF57BAH   LINE      CODE     ---       #497
      00FF57BAH   LINE      CODE     ---       #498
      00FF57C8H   LINE      CODE     ---       #500
      00FF57D9H   LINE      CODE     ---       #501
      00FF57D9H   LINE      CODE     ---       #504
      00FF57E8H   LINE      CODE     ---       #506
      00FF57EBH   LINE      CODE     ---       #508
      00FF580DH   LINE      CODE     ---       #510
      00FF580DH   LINE      CODE     ---       #511
      00FF5811H   LINE      CODE     ---       #512
      00FF5813H   LINE      CODE     ---       #514
      00FF5813H   LINE      CODE     ---       #515
      00FF5816H   LINE      CODE     ---       #516
      00FF5818H   LINE      CODE     ---       #518
      00FF5818H   LINE      CODE     ---       #519
      00FF581BH   LINE      CODE     ---       #520
      00FF581DH   LINE      CODE     ---       #522
      00FF581DH   LINE      CODE     ---       #523
      00FF5820H   LINE      CODE     ---       #524
      00FF5820H   LINE      CODE     ---       #525
      00FF5820H   LINE      CODE     ---       #527
      00FF5823H   LINE      CODE     ---       #528
      00FF5826H   LINE      CODE     ---       #529
      00FF5829H   LINE      CODE     ---       #532
      00FF584AH   LINE      CODE     ---       #534
      00FF584DH   LINE      CODE     ---       #536
      00FF585DH   LINE      CODE     ---       #538
      00FF5860H   LINE      CODE     ---       #539
      00FF5862H   LINE      CODE     ---       #540
      00FF5872H   LINE      CODE     ---       #542
      00FF5875H   LINE      CODE     ---       #543
      00FF5877H   LINE      CODE     ---       #544
L251 LINKER/LOCATER V4.66.93.0                                                        03/30/2026  16:35:38  PAGE 86


      00FF5887H   LINE      CODE     ---       #546
      00FF588BH   LINE      CODE     ---       #547
      00FF588DH   LINE      CODE     ---       #550
      00FF5890H   LINE      CODE     ---       #551
      00FF5890H   LINE      CODE     ---       #554
      00FF58A4H   LINE      CODE     ---       #556
      00FF58A4H   LINE      CODE     ---       #557
      00FF58A6H   LINE      CODE     ---       #559
      00FF58A6H   LINE      CODE     ---       #560
      00FF58A9H   LINE      CODE     ---       #561
      00FF58ABH   LINE      CODE     ---       #563
      00FF58ABH   LINE      CODE     ---       #564
      00FF58AEH   LINE      CODE     ---       #565
      00FF58B0H   LINE      CODE     ---       #567
      00FF58B0H   LINE      CODE     ---       #568
      00FF58B3H   LINE      CODE     ---       #569
      00FF58B3H   LINE      CODE     ---       #570
      00FF58B3H   LINE      CODE     ---       #572
      00FF58B6H   LINE      CODE     ---       #573
      00FF58B9H   LINE      CODE     ---       #574
      00FF58CAH   LINE      CODE     ---       #583
      00FF58E2H   LINE      CODE     ---       #586
      00FF58E5H   LINE      CODE     ---       #588
      00FF5907H   LINE      CODE     ---       #590
      00FF5907H   LINE      CODE     ---       #591
      00FF590BH   LINE      CODE     ---       #592
      00FF590DH   LINE      CODE     ---       #594
      00FF590DH   LINE      CODE     ---       #595
      00FF5910H   LINE      CODE     ---       #596
      00FF5912H   LINE      CODE     ---       #598
      00FF5912H   LINE      CODE     ---       #599
      00FF5915H   LINE      CODE     ---       #600
      00FF5917H   LINE      CODE     ---       #602
      00FF5917H   LINE      CODE     ---       #603
      00FF591AH   LINE      CODE     ---       #604
      00FF591AH   LINE      CODE     ---       #605
      00FF591AH   LINE      CODE     ---       #607
      00FF591EH   LINE      CODE     ---       #608
      00FF592BH   LINE      CODE     ---       #612
      00FF594CH   LINE      CODE     ---       #616
      00FF595CH   LINE      CODE     ---       #618
      00FF596EH   LINE      CODE     ---       #619
      00FF5970H   LINE      CODE     ---       #620
      00FF5980H   LINE      CODE     ---       #622
      00FF5992H   LINE      CODE     ---       #623
      00FF5994H   LINE      CODE     ---       #626
      00FF59A2H   LINE      CODE     ---       #627
      00FF59A2H   LINE      CODE     ---       #635
      00FF59BAH   LINE      CODE     ---       #637
      00FF59BAH   LINE      CODE     ---       #638
      00FF59C8H   LINE      CODE     ---       #639
      00FF59CAH   LINE      CODE     ---       #641
      00FF59CAH   LINE      CODE     ---       #642
      00FF59DCH   LINE      CODE     ---       #643
      00FF59DEH   LINE      CODE     ---       #645
      00FF59DEH   LINE      CODE     ---       #646
      00FF59F0H   LINE      CODE     ---       #647
      00FF59F2H   LINE      CODE     ---       #649
      00FF59F2H   LINE      CODE     ---       #650
      00FF5A04H   LINE      CODE     ---       #651
      00FF5A04H   LINE      CODE     ---       #652
      00FF5A04H   LINE      CODE     ---       #654
      00FF5A16H   LINE      CODE     ---       #655
      00FF5A19H   LINE      CODE     ---       #656
      00FF5A2AH   LINE      CODE     ---       #665
L251 LINKER/LOCATER V4.66.93.0                                                        03/30/2026  16:35:38  PAGE 87


      00FF5A44H   LINE      CODE     ---       #667
      00FF5A47H   LINE      CODE     ---       #669
      00FF5A69H   LINE      CODE     ---       #671
      00FF5A69H   LINE      CODE     ---       #672
      00FF5A6DH   LINE      CODE     ---       #673
      00FF5A6FH   LINE      CODE     ---       #675
      00FF5A6FH   LINE      CODE     ---       #676
      00FF5A72H   LINE      CODE     ---       #677
      00FF5A74H   LINE      CODE     ---       #679
      00FF5A74H   LINE      CODE     ---       #680
      00FF5A77H   LINE      CODE     ---       #681
      00FF5A79H   LINE      CODE     ---       #683
      00FF5A79H   LINE      CODE     ---       #684
      00FF5A7CH   LINE      CODE     ---       #685
      00FF5A7CH   LINE      CODE     ---       #686
      00FF5A7CH   LINE      CODE     ---       #688
      00FF5A80H   LINE      CODE     ---       #689
      00FF5A8DH   LINE      CODE     ---       #693
      00FF5AAEH   LINE      CODE     ---       #695
      00FF5ABEH   LINE      CODE     ---       #697
      00FF5AD0H   LINE      CODE     ---       #698
      00FF5AD2H   LINE      CODE     ---       #699
      00FF5AE2H   LINE      CODE     ---       #701
      00FF5AF4H   LINE      CODE     ---       #702
      00FF5AF6H   LINE      CODE     ---       #705
      00FF5B04H   LINE      CODE     ---       #706
      00FF5B04H   LINE      CODE     ---       #714
      00FF5B1CH   LINE      CODE     ---       #716
      00FF5B1CH   LINE      CODE     ---       #717
      00FF5B2AH   LINE      CODE     ---       #718
      00FF5B2CH   LINE      CODE     ---       #720
      00FF5B2CH   LINE      CODE     ---       #721
      00FF5B3EH   LINE      CODE     ---       #722
      00FF5B40H   LINE      CODE     ---       #724
      00FF5B40H   LINE      CODE     ---       #725
      00FF5B52H   LINE      CODE     ---       #726
      00FF5B54H   LINE      CODE     ---       #728
      00FF5B54H   LINE      CODE     ---       #729
      00FF5B66H   LINE      CODE     ---       #730
      00FF5B66H   LINE      CODE     ---       #731
      00FF5B66H   LINE      CODE     ---       #733
      00FF5B78H   LINE      CODE     ---       #734
      ---         BLOCKEND  ---      ---       LVL=0

      ---         MODULE    ---      ---       zf_driver_timer
      00FFA7E0H   PUBLIC    CODE     ---       timer_funciton_check
      000000D0H   SFRSYM    DATA     BYTE      PSW
      0000009DH   SFRSYM    DATA     BYTE      IRCBAND
      00000097H   SFRSYM    DATA     BYTE      AUXR2
      000000EFH   SFRSYM    DATA     BYTE      AUXINTIF
      000000FDH   SFRSYM    DATA     BYTE      S4CON
      000000ACH   SFRSYM    DATA     BYTE      S3CON
      0000009AH   SFRSYM    DATA     BYTE      S2CON
      000000B7H   SFRSYM    DATA     BYTE      IPH
      000000CDH   SFRSYM    DATA     BYTE      SPSTAT
      000000DDH   SFRSYM    DATA     BYTE      T4T3M
      000000C1H   SFRSYM    DATA     BYTE      WDT_CONTR
      000000DFH   SFRSYM    DATA     BYTE      IP3
      000000F4H   SFRSYM    DATA     BYTE      USBCON
      000000B5H   SFRSYM    DATA     BYTE      IP2
      000000FFH   SFRSYM    DATA     BYTE      RSTCFG
      000000C7H   SFRSYM    DATA     BYTE      IAP_CONTR
      000000F9H   SFRSYM    DATA     BYTE      LINICR
      0000008EH   SFRSYM    DATA     BYTE      AUXR
      000000AFH   SFRSYM    DATA     BYTE      IE2
L251 LINKER/LOCATER V4.66.93.0                                                        03/30/2026  16:35:38  PAGE 88


      00000088H   SFRSYM    DATA     BYTE      TCON
      00000089H   SFRSYM    DATA     BYTE      TMOD
      00000098H   SFRSYM    DATA     BYTE      SCON
      000000F1H   SFRSYM    DATA     BYTE      CANICR
      00000087H   SFRSYM    DATA     BYTE      PCON
      000000BCH   SFRSYM    DATA     BYTE      ADC_CONTR
      000000E7H   SFRSYM    DATA     BYTE      CMPCR2
      000000E6H   SFRSYM    DATA     BYTE      CMPCR1
      000000DEH   SFRSYM    DATA     BYTE      ADCCFG
      000000B8H   SFRSYM    DATA     BYTE      IP
      0000008FH   SFRSYM    DATA     BYTE      INTCLKO
      000000EEH   SFRSYM    DATA     BYTE      IP3H
      000000B6H   SFRSYM    DATA     BYTE      IP2H
      000000A8H   SFRSYM    DATA     BYTE      IE
      000000BBH   SFRSYM    DATA     BYTE      P_SW3
      000000BAH   SFRSYM    DATA     BYTE      P_SW2
      000000A2H   SFRSYM    DATA     BYTE      P_SW1
      000000CEH   SFRSYM    DATA     BYTE      SPCTL
      000000F8H   SFRSYM    DATA     BYTE      P7
      000000E8H   SFRSYM    DATA     BYTE      P6
      000000C8H   SFRSYM    DATA     BYTE      P5
      000000C0H   SFRSYM    DATA     BYTE      P4
      000000B0H   SFRSYM    DATA     BYTE      P3
      000000A0H   SFRSYM    DATA     BYTE      P2
      00000090H   SFRSYM    DATA     BYTE      P1
      00000080H   SFRSYM    DATA     BYTE      P0
      00011912H   SYMBOL    XDATA    ---       timer_function_state

      00FFA7E0H   BLOCK     CODE     ---       LVL=0
      00011E27H   SYMBOL    XDATA    INT       index
      00011E29H   SYMBOL    XDATA    INT       mode
      00FFA7ECH   BLOCK     CODE     NEAR LAB  LVL=1
      00011E2BH   SYMBOL    XDATA    BYTE      return_state
      ---         BLOCKEND  ---      ---       LVL=1
      00FFA7E0H   LINE      CODE     ---       #58
      00FFA7ECH   LINE      CODE     ---       #59
      00FFA7ECH   LINE      CODE     ---       #60
      00FFA7F2H   LINE      CODE     ---       #61
      00FFA80FH   LINE      CODE     ---       #63
      00FFA82CH   LINE      CODE     ---       #64
      00FFA82EH   LINE      CODE     ---       #65
      00FFA84FH   LINE      CODE     ---       #67
      00FFA855H   LINE      CODE     ---       #68
      00FFA857H   LINE      CODE     ---       #71
      00FFA85CH   LINE      CODE     ---       #72
      00FFA85CH   LINE      CODE     ---       #73
      00FFA860H   LINE      CODE     ---       #74
      ---         BLOCKEND  ---      ---       LVL=0

      ---         MODULE    ---      ---       zf_driver_uart
      00FF9D70H   PUBLIC    CODE     ---       uart_rx_start_buff
      00FF7CA6H   PUBLIC    CODE     ---       uart_write_buffer
      00FF6264H   PUBLIC    CODE     ---       uart_init
      00FFAAC4H   PUBLIC    CODE     ---       uart_rx_interrupt
      00FFB5D1H   PUBLIC    CODE     ---       uart_write_byte
      00FF83ADH   PUBLIC    CODE     ---       uart_dma_init
      00FFA861H   PUBLIC    CODE     ---       uart_funciton_check
      00FFA2E0H   PUBLIC    CODE     ---       uart_query_byte
      00011926H   PUBLIC    XDATA    ---       uart_rx_buff
      0001192AH   PUBLIC    XDATA    BYTE      ?uart_init?BYTE
      000000D0H   SFRSYM    DATA     BYTE      PSW
      0000009DH   SFRSYM    DATA     BYTE      IRCBAND
      00000097H   SFRSYM    DATA     BYTE      AUXR2
      000000EFH   SFRSYM    DATA     BYTE      AUXINTIF
      000000FDH   SFRSYM    DATA     BYTE      S4CON
L251 LINKER/LOCATER V4.66.93.0                                                        03/30/2026  16:35:38  PAGE 89


      000000ACH   SFRSYM    DATA     BYTE      S3CON
      0000009AH   SFRSYM    DATA     BYTE      S2CON
      000000B7H   SFRSYM    DATA     BYTE      IPH
      000000CDH   SFRSYM    DATA     BYTE      SPSTAT
      000000DDH   SFRSYM    DATA     BYTE      T4T3M
      000000C1H   SFRSYM    DATA     BYTE      WDT_CONTR
      00000088H.6 SFRSYM    DATA     BIT       TR1
      000000D7H   SFRSYM    DATA     BYTE      T2L
      000000D6H   SFRSYM    DATA     BYTE      T2H
      000000DFH   SFRSYM    DATA     BYTE      IP3
      000000F4H   SFRSYM    DATA     BYTE      USBCON
      000000B5H   SFRSYM    DATA     BYTE      IP2
      000000FFH   SFRSYM    DATA     BYTE      RSTCFG
      000000C7H   SFRSYM    DATA     BYTE      IAP_CONTR
      000000F9H   SFRSYM    DATA     BYTE      LINICR
      0000008EH   SFRSYM    DATA     BYTE      AUXR
      000000AFH   SFRSYM    DATA     BYTE      IE2
      00000088H   SFRSYM    DATA     BYTE      TCON
      00000089H   SFRSYM    DATA     BYTE      TMOD
      00000098H   SFRSYM    DATA     BYTE      SCON
      000000F1H   SFRSYM    DATA     BYTE      CANICR
      00000087H   SFRSYM    DATA     BYTE      PCON
      000000BCH   SFRSYM    DATA     BYTE      ADC_CONTR
      000000E7H   SFRSYM    DATA     BYTE      CMPCR2
      000000E6H   SFRSYM    DATA     BYTE      CMPCR1
      000000DEH   SFRSYM    DATA     BYTE      ADCCFG
      000000B8H   SFRSYM    DATA     BYTE      IP
      0000008FH   SFRSYM    DATA     BYTE      INTCLKO
      000000EEH   SFRSYM    DATA     BYTE      IP3H
      000000B6H   SFRSYM    DATA     BYTE      IP2H
      000000A8H   SFRSYM    DATA     BYTE      IE
      000000BBH   SFRSYM    DATA     BYTE      P_SW3
      000000BAH   SFRSYM    DATA     BYTE      P_SW2
      000000A2H   SFRSYM    DATA     BYTE      P_SW1
      000000CEH   SFRSYM    DATA     BYTE      SPCTL
      000000F8H   SFRSYM    DATA     BYTE      P7
      000000E8H   SFRSYM    DATA     BYTE      P6
      000000C8H   SFRSYM    DATA     BYTE      P5
      000000C0H   SFRSYM    DATA     BYTE      P4
      000000B0H   SFRSYM    DATA     BYTE      P3
      000000A0H   SFRSYM    DATA     BYTE      P2
      00000090H   SFRSYM    DATA     BYTE      P1
      00000080H   SFRSYM    DATA     BYTE      P0
      00FFC316H   SYMBOL    HCONST   ---       ?tpl?0001
      0001191EH   SYMBOL    XDATA    ---       uart_function_state

      00FFA861H   BLOCK     CODE     ---       LVL=0
      00011E2CH   SYMBOL    XDATA    INT       index
      00011E2EH   SYMBOL    XDATA    INT       mode
      00FFA86DH   BLOCK     CODE     NEAR LAB  LVL=1
      00011E30H   SYMBOL    XDATA    BYTE      return_state
      ---         BLOCKEND  ---      ---       LVL=1
      00FFA861H   LINE      CODE     ---       #86
      00FFA86DH   LINE      CODE     ---       #87
      00FFA86DH   LINE      CODE     ---       #88
      00FFA873H   LINE      CODE     ---       #89
      00FFA890H   LINE      CODE     ---       #91
      00FFA8ADH   LINE      CODE     ---       #92
      00FFA8AFH   LINE      CODE     ---       #93
      00FFA8D0H   LINE      CODE     ---       #95
      00FFA8D6H   LINE      CODE     ---       #96
      00FFA8D8H   LINE      CODE     ---       #99
      00FFA8DDH   LINE      CODE     ---       #100
      00FFA8DDH   LINE      CODE     ---       #101
      00FFA8E1H   LINE      CODE     ---       #102
L251 LINKER/LOCATER V4.66.93.0                                                        03/30/2026  16:35:38  PAGE 90


      ---         BLOCKEND  ---      ---       LVL=0

      00FF7CA6H   BLOCK     CODE     ---       LVL=0
      00010DF0H   SYMBOL    XDATA    INT       uart_n
      00010DF2H   SYMBOL    XDATA    ---       buff
      00010DF6H   SYMBOL    XDATA    WORD      len
      00FF7CBCH   BLOCK     CODE     NEAR LAB  LVL=1
      00010DF8H   SYMBOL    XDATA    ---       tmp_buff
      00010E38H   SYMBOL    XDATA    WORD      tmp_len
      ---         BLOCKEND  ---      ---       LVL=1
      00FF7CA6H   LINE      CODE     ---       #111
      00FF7CBCH   LINE      CODE     ---       #112
      00FF7CBCH   LINE      CODE     ---       #116
      00FF7CD1H   LINE      CODE     ---       #117
      00FF7CD9H   LINE      CODE     ---       #118
      00FF7CDCH   LINE      CODE     ---       #120
      00FF7CFCH   LINE      CODE     ---       #121
      00FF7D1BH   LINE      CODE     ---       #122
      00FF7D2CH   LINE      CODE     ---       #123
      00FF7D45H   LINE      CODE     ---       #126
      00FF7D65H   LINE      CODE     ---       #128
      00FF7D91H   LINE      CODE     ---       #129
      00FF7DBEH   LINE      CODE     ---       #130
      00FF7DE6H   LINE      CODE     ---       #131
      00FF7E0AH   LINE      CODE     ---       #132
      00FF7E2BH   LINE      CODE     ---       #134
      00FF7E4CH   LINE      CODE     ---       #136
      00FF7E6CH   LINE      CODE     ---       #137
      00FF7E7BH   LINE      CODE     ---       #138
      ---         BLOCKEND  ---      ---       LVL=0
      00011C64H   SYMBOL    XDATA    INT       uart_n
      00011C66H   SYMBOL    XDATA    ---       str
      00011C6AH   SYMBOL    XDATA    WORD      len

      00FFB5D1H   BLOCK     CODE     ---       LVL=0
      00011F04H   SYMBOL    XDATA    INT       uart_n
      00011F06H   SYMBOL    XDATA    BYTE      dat
      00FFB5D1H   LINE      CODE     ---       #159
      00FFB5DBH   LINE      CODE     ---       #161
      00FFB5F0H   LINE      CODE     ---       #162
      ---         BLOCKEND  ---      ---       LVL=0

      00FF9D70H   BLOCK     CODE     ---       LVL=0
      00011F2FH   SYMBOL    XDATA    INT       uart_n
      00FF9D70H   LINE      CODE     ---       #170
      00FF9D76H   LINE      CODE     ---       #172
      00FF9D96H   LINE      CODE     ---       #173
      00FF9DB4H   LINE      CODE     ---       #174
      00FF9DE0H   LINE      CODE     ---       #175
      00FF9E10H   LINE      CODE     ---       #176
      00FF9E31H   LINE      CODE     ---       #177
      ---         BLOCKEND  ---      ---       LVL=0

      00FFAAC4H   BLOCK     CODE     ---       LVL=0
      00011F07H   SYMBOL    XDATA    INT       uart_n
      00011F09H   SYMBOL    XDATA    BYTE      status
      00FFAAC4H   LINE      CODE     ---       #186
      00FFAACEH   LINE      CODE     ---       #188
      00FFAAD7H   LINE      CODE     ---       #190
      00FFAAFFH   LINE      CODE     ---       #191
      00FFAB01H   LINE      CODE     ---       #194
      00FFAB29H   LINE      CODE     ---       #195
      00FFAB29H   LINE      CODE     ---       #196
      ---         BLOCKEND  ---      ---       LVL=0
      00011F0AH   SYMBOL    XDATA    INT       uart_n
L251 LINKER/LOCATER V4.66.93.0                                                        03/30/2026  16:35:38  PAGE 91


      00011F0CH   SYMBOL    XDATA    BYTE      dat

      00FFA2E0H   BLOCK     CODE     ---       LVL=0
      00011D02H   SYMBOL    XDATA    INT       uart_n
      00011D04H   SYMBOL    XDATA    ---       dat
      00FFA2F0H   BLOCK     CODE     NEAR LAB  LVL=1
      00011D08H   SYMBOL    XDATA    BYTE      ret
      ---         BLOCKEND  ---      ---       LVL=1
      00FFA2E0H   LINE      CODE     ---       #230
      00FFA2F0H   LINE      CODE     ---       #231
      00FFA2F0H   LINE      CODE     ---       #232
      00FFA2F5H   LINE      CODE     ---       #235
      00FFA315H   LINE      CODE     ---       #237
      00FFA33CH   LINE      CODE     ---       #239
      00FFA342H   LINE      CODE     ---       #241
      00FFA36AH   LINE      CODE     ---       #242
      00FFA36CH   LINE      CODE     ---       #245
      00FFA371H   LINE      CODE     ---       #246
      00FFA371H   LINE      CODE     ---       #249
      00FFA37AH   LINE      CODE     ---       #251
      00FFA37EH   LINE      CODE     ---       #252
      ---         BLOCKEND  ---      ---       LVL=0

      00FF83ADH   BLOCK     CODE     ---       LVL=0
      00011F31H   SYMBOL    XDATA    INT       uart_n
      00FF83ADH   LINE      CODE     ---       #260
      00FF83B3H   LINE      CODE     ---       #262
      00FF83D3H   LINE      CODE     ---       #263
      00FF83F3H   LINE      CODE     ---       #264
      00FF8413H   LINE      CODE     ---       #266
      00FF8433H   LINE      CODE     ---       #267
      00FF8453H   LINE      CODE     ---       #268
      00FF8473H   LINE      CODE     ---       #270
      00FF8493H   LINE      CODE     ---       #271
      00FF84B1H   LINE      CODE     ---       #272
      00FF84DDH   LINE      CODE     ---       #273
      00FF850DH   LINE      CODE     ---       #274
      00FF852EH   LINE      CODE     ---       #275
      00FF854FH   LINE      CODE     ---       #277
      ---         BLOCKEND  ---      ---       LVL=0

      00FF6264H   BLOCK     CODE     ---       LVL=0
      0001192AH   SYMBOL    XDATA    INT       uart_n
      0001192CH   SYMBOL    XDATA    DWORD     baud
      00011930H   SYMBOL    XDATA    INT       tx_pin
      00011932H   SYMBOL    XDATA    INT       rx_pin
      00FF627AH   BLOCK     CODE     NEAR LAB  LVL=1
      00011934H   SYMBOL    XDATA    WORD      brt
      ---         BLOCKEND  ---      ---       LVL=1
      00FF6264H   LINE      CODE     ---       #289
      00FF627AH   LINE      CODE     ---       #290
      00FF627AH   LINE      CODE     ---       #299
      00FF6296H   LINE      CODE     ---       #306
      00FF62B0H   LINE      CODE     ---       #311
      00FF62E6H   LINE      CODE     ---       #314
      00FF62FFH   LINE      CODE     ---       #315
      00FF6316H   LINE      CODE     ---       #317
      00FF6351H   LINE      CODE     ---       #319
      00FF6375H   LINE      CODE     ---       #321
      00FF6375H   LINE      CODE     ---       #335
      00FF6378H   LINE      CODE     ---       #336
      00FF6380H   LINE      CODE     ---       #337
      00FF638CH   LINE      CODE     ---       #338
      00FF638FH   LINE      CODE     ---       #339
      00FF6392H   LINE      CODE     ---       #342
L251 LINKER/LOCATER V4.66.93.0                                                        03/30/2026  16:35:38  PAGE 92


      00FF6395H   LINE      CODE     ---       #344
      00FF63B1H   LINE      CODE     ---       #346
      00FF63B5H   LINE      CODE     ---       #347
      00FF63B8H   LINE      CODE     ---       #348
      00FF63D4H   LINE      CODE     ---       #350
      00FF63D7H   LINE      CODE     ---       #351
      00FF63DAH   LINE      CODE     ---       #352
      00FF63F6H   LINE      CODE     ---       #354
      00FF63F9H   LINE      CODE     ---       #355
      00FF63FCH   LINE      CODE     ---       #356
      00FF641EH   LINE      CODE     ---       #358
      00FF6421H   LINE      CODE     ---       #359
      00FF6421H   LINE      CODE     ---       #362
      00FF6424H   LINE      CODE     ---       #365
      00FF6424H   LINE      CODE     ---       #369
      00FF6427H   LINE      CODE     ---       #370
      00FF642FH   LINE      CODE     ---       #371
      00FF643BH   LINE      CODE     ---       #372
      00FF643EH   LINE      CODE     ---       #375
      00FF6441H   LINE      CODE     ---       #377
      00FF645DH   LINE      CODE     ---       #379
      00FF6461H   LINE      CODE     ---       #380
      00FF6464H   LINE      CODE     ---       #381
      00FF6486H   LINE      CODE     ---       #383
      00FF6489H   LINE      CODE     ---       #384
      00FF6489H   LINE      CODE     ---       #388
      00FF648CH   LINE      CODE     ---       #391
      00FF648CH   LINE      CODE     ---       #395
      00FF648FH   LINE      CODE     ---       #396
      00FF6497H   LINE      CODE     ---       #397
      00FF64A3H   LINE      CODE     ---       #398
      00FF64A6H   LINE      CODE     ---       #408
      00FF64A9H   LINE      CODE     ---       #410
      00FF64C5H   LINE      CODE     ---       #412
      00FF64C9H   LINE      CODE     ---       #413
      00FF64CCH   LINE      CODE     ---       #414
      00FF64E8H   LINE      CODE     ---       #416
      00FF64EBH   LINE      CODE     ---       #417
      00FF64EBH   LINE      CODE     ---       #421
      00FF64EDH   LINE      CODE     ---       #424
      00FF64EDH   LINE      CODE     ---       #428
      00FF64F0H   LINE      CODE     ---       #429
      00FF64F8H   LINE      CODE     ---       #430
      00FF6504H   LINE      CODE     ---       #431
      00FF6507H   LINE      CODE     ---       #441
      00FF650AH   LINE      CODE     ---       #443
      00FF6526H   LINE      CODE     ---       #445
      00FF652AH   LINE      CODE     ---       #446
      00FF652CH   LINE      CODE     ---       #447
      00FF6548H   LINE      CODE     ---       #451
      00FF654BH   LINE      CODE     ---       #452
      00FF654BH   LINE      CODE     ---       #456
      00FF654BH   LINE      CODE     ---       #459
      00FF654BH   LINE      CODE     ---       #462
      00FF6554H   LINE      CODE     ---       #464
      ---         BLOCKEND  ---      ---       LVL=0

      ---         MODULE    ---      ---       eeprom
      00011F33H   PUBLIC    XDATA    ---       init_buff
      00011AC4H   PUBLIC    XDATA    BYTE      ?eeprom_read?BYTE
      000000D0H   SFRSYM    DATA     BYTE      PSW
      0000009DH   SFRSYM    DATA     BYTE      IRCBAND
      00000097H   SFRSYM    DATA     BYTE      AUXR2
      000000EFH   SFRSYM    DATA     BYTE      AUXINTIF
      000000FDH   SFRSYM    DATA     BYTE      S4CON
L251 LINKER/LOCATER V4.66.93.0                                                        03/30/2026  16:35:38  PAGE 93


      000000ACH   SFRSYM    DATA     BYTE      S3CON
      0000009AH   SFRSYM    DATA     BYTE      S2CON
      000000B7H   SFRSYM    DATA     BYTE      IPH
      000000CDH   SFRSYM    DATA     BYTE      SPSTAT
      000000DDH   SFRSYM    DATA     BYTE      T4T3M
      000000C1H   SFRSYM    DATA     BYTE      WDT_CONTR
      000000DFH   SFRSYM    DATA     BYTE      IP3
      000000F4H   SFRSYM    DATA     BYTE      USBCON
      000000B5H   SFRSYM    DATA     BYTE      IP2
      000000FFH   SFRSYM    DATA     BYTE      RSTCFG
      000000C7H   SFRSYM    DATA     BYTE      IAP_CONTR
      000000F9H   SFRSYM    DATA     BYTE      LINICR
      0000008EH   SFRSYM    DATA     BYTE      AUXR
      000000AFH   SFRSYM    DATA     BYTE      IE2
      00000088H   SFRSYM    DATA     BYTE      TCON
      00000089H   SFRSYM    DATA     BYTE      TMOD
      00000098H   SFRSYM    DATA     BYTE      SCON
      000000F1H   SFRSYM    DATA     BYTE      CANICR
      00000087H   SFRSYM    DATA     BYTE      PCON
      000000BCH   SFRSYM    DATA     BYTE      ADC_CONTR
      000000E7H   SFRSYM    DATA     BYTE      CMPCR2
      000000E6H   SFRSYM    DATA     BYTE      CMPCR1
      000000DEH   SFRSYM    DATA     BYTE      ADCCFG
      000000B8H   SFRSYM    DATA     BYTE      IP
      0000008FH   SFRSYM    DATA     BYTE      INTCLKO
      000000EEH   SFRSYM    DATA     BYTE      IP3H
      000000B6H   SFRSYM    DATA     BYTE      IP2H
      000000A8H   SFRSYM    DATA     BYTE      IE
      000000BBH   SFRSYM    DATA     BYTE      P_SW3
      000000BAH   SFRSYM    DATA     BYTE      P_SW2
      000000A2H   SFRSYM    DATA     BYTE      P_SW1
      000000CEH   SFRSYM    DATA     BYTE      SPCTL
      000000F8H   SFRSYM    DATA     BYTE      P7
      000000E8H   SFRSYM    DATA     BYTE      P6
      000000C8H   SFRSYM    DATA     BYTE      P5
      000000C0H   SFRSYM    DATA     BYTE      P4
      000000B0H   SFRSYM    DATA     BYTE      P3
      000000A0H   SFRSYM    DATA     BYTE      P2
      00000090H   SFRSYM    DATA     BYTE      P1
      00000080H   SFRSYM    DATA     BYTE      P0
      00011AC4H   SYMBOL    XDATA    DWORD     addr
      00011AC8H   SYMBOL    XDATA    ---       buf
      00011ACCH   SYMBOL    XDATA    WORD      len
      00011C6CH   SYMBOL    XDATA    DWORD     addr
      00011C70H   SYMBOL    XDATA    WORD      max
      00011C72H   SYMBOL    XDATA    WORD      min
      00011936H   SYMBOL    XDATA    DWORD     addr
      0001193AH   SYMBOL    XDATA    ---       buff
      0001193EH   SYMBOL    XDATA    ---       buf

      ---         MODULE    ---      ---       voltage_warning
      000000D0H   SFRSYM    DATA     BYTE      PSW
      0000009DH   SFRSYM    DATA     BYTE      IRCBAND
      00000097H   SFRSYM    DATA     BYTE      AUXR2
      000000EFH   SFRSYM    DATA     BYTE      AUXINTIF
      000000FDH   SFRSYM    DATA     BYTE      S4CON
      000000ACH   SFRSYM    DATA     BYTE      S3CON
      0000009AH   SFRSYM    DATA     BYTE      S2CON
      000000B7H   SFRSYM    DATA     BYTE      IPH
      000000CDH   SFRSYM    DATA     BYTE      SPSTAT
      000000DDH   SFRSYM    DATA     BYTE      T4T3M
      000000C1H   SFRSYM    DATA     BYTE      WDT_CONTR
      000000DFH   SFRSYM    DATA     BYTE      IP3
      000000F4H   SFRSYM    DATA     BYTE      USBCON
      000000B5H   SFRSYM    DATA     BYTE      IP2
L251 LINKER/LOCATER V4.66.93.0                                                        03/30/2026  16:35:38  PAGE 94


      000000FFH   SFRSYM    DATA     BYTE      RSTCFG
      000000C7H   SFRSYM    DATA     BYTE      IAP_CONTR
      000000F9H   SFRSYM    DATA     BYTE      LINICR
      0000008EH   SFRSYM    DATA     BYTE      AUXR
      000000AFH   SFRSYM    DATA     BYTE      IE2
      00000088H   SFRSYM    DATA     BYTE      TCON
      00000089H   SFRSYM    DATA     BYTE      TMOD
      00000098H   SFRSYM    DATA     BYTE      SCON
      000000F1H   SFRSYM    DATA     BYTE      CANICR
      00000087H   SFRSYM    DATA     BYTE      PCON
      000000BCH   SFRSYM    DATA     BYTE      ADC_CONTR
      000000E7H   SFRSYM    DATA     BYTE      CMPCR2
      000000E6H   SFRSYM    DATA     BYTE      CMPCR1
      000000DEH   SFRSYM    DATA     BYTE      ADCCFG
      000000B8H   SFRSYM    DATA     BYTE      IP
      0000008FH   SFRSYM    DATA     BYTE      INTCLKO
      000000EEH   SFRSYM    DATA     BYTE      IP3H
      000000B6H   SFRSYM    DATA     BYTE      IP2H
      000000A8H   SFRSYM    DATA     BYTE      IE
      000000BBH   SFRSYM    DATA     BYTE      P_SW3
      000000BAH   SFRSYM    DATA     BYTE      P_SW2
      000000A2H   SFRSYM    DATA     BYTE      P_SW1
      000000CEH   SFRSYM    DATA     BYTE      SPCTL
      000000F8H   SFRSYM    DATA     BYTE      P7
      000000E8H   SFRSYM    DATA     BYTE      P6
      000000C8H   SFRSYM    DATA     BYTE      P5
      000000C0H   SFRSYM    DATA     BYTE      P4
      000000B0H   SFRSYM    DATA     BYTE      P3
      000000A0H   SFRSYM    DATA     BYTE      P2
      00000090H   SFRSYM    DATA     BYTE      P1
      00000080H   SFRSYM    DATA     BYTE      P0
      00011EA4H   SYMBOL    XDATA    INT       channel
      00011EA6H   SYMBOL    XDATA    WORD      value

      ---         MODULE    ---      ---       zf_device_ble6a20
      000000D0H   SFRSYM    DATA     BYTE      PSW
      0000009DH   SFRSYM    DATA     BYTE      IRCBAND
      00000097H   SFRSYM    DATA     BYTE      AUXR2
      000000EFH   SFRSYM    DATA     BYTE      AUXINTIF
      000000FDH   SFRSYM    DATA     BYTE      S4CON
      000000ACH   SFRSYM    DATA     BYTE      S3CON
      0000009AH   SFRSYM    DATA     BYTE      S2CON
      000000B7H   SFRSYM    DATA     BYTE      IPH
      000000CDH   SFRSYM    DATA     BYTE      SPSTAT
      000000DDH   SFRSYM    DATA     BYTE      T4T3M
      000000C1H   SFRSYM    DATA     BYTE      WDT_CONTR
      000000DFH   SFRSYM    DATA     BYTE      IP3
      000000F4H   SFRSYM    DATA     BYTE      USBCON
      000000B5H   SFRSYM    DATA     BYTE      IP2
      000000FFH   SFRSYM    DATA     BYTE      RSTCFG
      000000C7H   SFRSYM    DATA     BYTE      IAP_CONTR
      000000F9H   SFRSYM    DATA     BYTE      LINICR
      0000008EH   SFRSYM    DATA     BYTE      AUXR
      000000AFH   SFRSYM    DATA     BYTE      IE2
      00000088H   SFRSYM    DATA     BYTE      TCON
      00000089H   SFRSYM    DATA     BYTE      TMOD
      00000098H   SFRSYM    DATA     BYTE      SCON
      000000F1H   SFRSYM    DATA     BYTE      CANICR
      00000087H   SFRSYM    DATA     BYTE      PCON
      000000BCH   SFRSYM    DATA     BYTE      ADC_CONTR
      000000E7H   SFRSYM    DATA     BYTE      CMPCR2
      000000E6H   SFRSYM    DATA     BYTE      CMPCR1
      000000DEH   SFRSYM    DATA     BYTE      ADCCFG
      000000B8H   SFRSYM    DATA     BYTE      IP
      0000008FH   SFRSYM    DATA     BYTE      INTCLKO
L251 LINKER/LOCATER V4.66.93.0                                                        03/30/2026  16:35:38  PAGE 95


      000000EEH   SFRSYM    DATA     BYTE      IP3H
      000000B6H   SFRSYM    DATA     BYTE      IP2H
      000000A8H   SFRSYM    DATA     BYTE      IE
      000000BBH   SFRSYM    DATA     BYTE      P_SW3
      000000BAH   SFRSYM    DATA     BYTE      P_SW2
      000000A2H   SFRSYM    DATA     BYTE      P_SW1
      000000CEH   SFRSYM    DATA     BYTE      SPCTL
      000000F8H   SFRSYM    DATA     BYTE      P7
      000000E8H   SFRSYM    DATA     BYTE      P6
      000000C8H   SFRSYM    DATA     BYTE      P5
      000000C0H   SFRSYM    DATA     BYTE      P4
      000000B0H   SFRSYM    DATA     BYTE      P3
      000000A0H   SFRSYM    DATA     BYTE      P2
      00000090H   SFRSYM    DATA     BYTE      P1
      00000080H   SFRSYM    DATA     BYTE      P0
      00010CA2H   SYMBOL    XDATA    ---       ble6a20_buffer
      00010CE2H   SYMBOL    XDATA    ---       ble6a20_fifo
      00011F0DH   SYMBOL    XDATA    BYTE      dat
      00011F0EH   SYMBOL    XDATA    WORD      time_cnt
      00011942H   SYMBOL    XDATA    ---       buff
      00011946H   SYMBOL    XDATA    DWORD     len
      0001194AH   SYMBOL    XDATA    WORD      time_cnt
      0001194CH   SYMBOL    XDATA    WORD      send_len
      00011C74H   SYMBOL    XDATA    ---       str
      00011C78H   SYMBOL    XDATA    DWORD     len
      0001194EH   SYMBOL    XDATA    ---       buff
      00011952H   SYMBOL    XDATA    DWORD     len
      00011956H   SYMBOL    XDATA    DWORD     data_len
      00011F6BH   SYMBOL    XDATA    BYTE      uart_dat
      00011F6CH   SYMBOL    XDATA    BYTE      return_state

      ---         MODULE    ---      ---       zf_device_config
      00FF01CEH   PUBLIC    CODE     ---       imu660ra_config_file

      ---         MODULE    ---      ---       zf_device_dl1a
      00011848H   PUBLIC    XDATA    WORD      dl1a_distance_mm
      0001184AH   PUBLIC    XDATA    BYTE      dl1a_finsh_flag
      000000D0H   SFRSYM    DATA     BYTE      PSW
      0000009DH   SFRSYM    DATA     BYTE      IRCBAND
      00000097H   SFRSYM    DATA     BYTE      AUXR2
      000000EFH   SFRSYM    DATA     BYTE      AUXINTIF
      000000FDH   SFRSYM    DATA     BYTE      S4CON
      000000ACH   SFRSYM    DATA     BYTE      S3CON
      0000009AH   SFRSYM    DATA     BYTE      S2CON
      000000B7H   SFRSYM    DATA     BYTE      IPH
      000000CDH   SFRSYM    DATA     BYTE      SPSTAT
      000000DDH   SFRSYM    DATA     BYTE      T4T3M
      000000C1H   SFRSYM    DATA     BYTE      WDT_CONTR
      000000DFH   SFRSYM    DATA     BYTE      IP3
      000000F4H   SFRSYM    DATA     BYTE      USBCON
      000000B5H   SFRSYM    DATA     BYTE      IP2
      000000FFH   SFRSYM    DATA     BYTE      RSTCFG
      000000C7H   SFRSYM    DATA     BYTE      IAP_CONTR
      000000F9H   SFRSYM    DATA     BYTE      LINICR
      0000008EH   SFRSYM    DATA     BYTE      AUXR
      000000AFH   SFRSYM    DATA     BYTE      IE2
      00000088H   SFRSYM    DATA     BYTE      TCON
      00000089H   SFRSYM    DATA     BYTE      TMOD
      00000098H   SFRSYM    DATA     BYTE      SCON
      000000F1H   SFRSYM    DATA     BYTE      CANICR
      00000087H   SFRSYM    DATA     BYTE      PCON
      000000BCH   SFRSYM    DATA     BYTE      ADC_CONTR
      000000E7H   SFRSYM    DATA     BYTE      CMPCR2
      000000E6H   SFRSYM    DATA     BYTE      CMPCR1
      000000DEH   SFRSYM    DATA     BYTE      ADCCFG
L251 LINKER/LOCATER V4.66.93.0                                                        03/30/2026  16:35:38  PAGE 96


      000000B8H   SFRSYM    DATA     BYTE      IP
      0000008FH   SFRSYM    DATA     BYTE      INTCLKO
      000000EEH   SFRSYM    DATA     BYTE      IP3H
      000000B6H   SFRSYM    DATA     BYTE      IP2H
      000000A8H   SFRSYM    DATA     BYTE      IE
      000000BBH   SFRSYM    DATA     BYTE      P_SW3
      000000BAH   SFRSYM    DATA     BYTE      P_SW2
      000000A2H   SFRSYM    DATA     BYTE      P_SW1
      000000CEH   SFRSYM    DATA     BYTE      SPCTL
      000000F8H   SFRSYM    DATA     BYTE      P7
      000000E8H   SFRSYM    DATA     BYTE      P6
      000000C8H   SFRSYM    DATA     BYTE      P5
      000000C0H   SFRSYM    DATA     BYTE      P4
      000000B0H   SFRSYM    DATA     BYTE      P3
      000000A0H   SFRSYM    DATA     BYTE      P2
      00000090H   SFRSYM    DATA     BYTE      P1
      00000080H   SFRSYM    DATA     BYTE      P0
      00FFBDE4H   SYMBOL    HCONST   ---       ?tpl?0001
      00FFBDECH   SYMBOL    HCONST   ---       ?tpl?0002
      00FFBDF2H   SYMBOL    HCONST   ---       ?tpl?0003
      00FFBDFCH   SYMBOL    HCONST   ---       ?tpl?0004
      0001183FH   SYMBOL    XDATA    ---       dl1a_iic_struct
      0001184BH   SYMBOL    XDATA    BYTE      dl1a_init_flag
      0001195AH   SYMBOL    XDATA    ---       index
      0001195EH   SYMBOL    XDATA    ---       type_is_aperture
      00011962H   SYMBOL    XDATA    BYTE      tmp
      00011963H   SYMBOL    XDATA    BYTE      return_state
      00011964H   SYMBOL    XDATA    WORD      loop_count
      00011D09H   SYMBOL    XDATA    WORD      timeout_period_mclks
      00011D0BH   SYMBOL    XDATA    BYTE      vcsel_period_pclks
      00011D0CH   SYMBOL    XDATA    DWORD     macro_period_ns
      00011B09H   SYMBOL    XDATA    DWORD     timeout_period_us
      00011B0DH   SYMBOL    XDATA    BYTE      vcsel_period_pclks
      00011B0EH   SYMBOL    XDATA    DWORD     macro_period_ns
      00011F35H   SYMBOL    XDATA    WORD      reg_val
      00011F37H   SYMBOL    XDATA    WORD      timeout_mclks
      00000008H   SYMBOL    EDATA    DWORD     ls_byte
      0000000CH   SYMBOL    EDATA    WORD      ms_byte
      0000000EH   SYMBOL    EDATA    WORD      return_data
      00011E31H   SYMBOL    XDATA    ---       enables
      00011E35H   SYMBOL    XDATA    BYTE      sequence_config
      00011F10H   SYMBOL    XDATA    INT       type
      00011F12H   SYMBOL    XDATA    BYTE      data_buffer
      00011966H   SYMBOL    XDATA    ---       enables
      0001196AH   SYMBOL    XDATA    ---       timeouts
      0001196EH   SYMBOL    XDATA    ---       reg_buffer
      00011970H   SYMBOL    XDATA    WORD      reg16_buffer
      00011E36H   SYMBOL    XDATA    BYTE      vhv_init_byte
      00011E37H   SYMBOL    XDATA    BYTE      return_state
      00011E38H   SYMBOL    XDATA    BYTE      data_buffer
      00011E39H   SYMBOL    XDATA    WORD      loop_count
      0001103AH   SYMBOL    XDATA    DWORD     budget_us
      0001103EH   SYMBOL    XDATA    BYTE      return_state
      0001103FH   SYMBOL    XDATA    ---       data_buffer
      00011042H   SYMBOL    XDATA    WORD      dat
      00011044H   SYMBOL    XDATA    DWORD     final_range_timeout_us
      00011048H   SYMBOL    XDATA    WORD      final_range_timeout_mclks
      0001104AH   SYMBOL    XDATA    ---       enables
      0001104FH   SYMBOL    XDATA    ---       timeouts
      00011065H   SYMBOL    XDATA    DWORD     used_budget_us
      00011263H   SYMBOL    XDATA    ---       enables
      00011268H   SYMBOL    XDATA    ---       timeouts
      0001127EH   SYMBOL    XDATA    DWORD     budget_us
      00011B12H   SYMBOL    XDATA    FLOAT     limit_mcps
      00011B16H   SYMBOL    XDATA    ---       data_buffer
L251 LINKER/LOCATER V4.66.93.0                                                        03/30/2026  16:35:38  PAGE 97


      00011B19H   SYMBOL    XDATA    WORD      limit_mcps_16bit
      00011F13H   SYMBOL    XDATA    ---       reg_databuffer
      00010830H   SYMBOL    XDATA    DWORD     measurement_timing_budget_us
      00010834H   SYMBOL    XDATA    BYTE      stop_variable
      00010835H   SYMBOL    XDATA    BYTE      return_state
      00010836H   SYMBOL    XDATA    BYTE      reg_data_buffer
      00010837H   SYMBOL    XDATA    ---       ref_spad_map
      0001083DH   SYMBOL    XDATA    ---       data_buffer
      00010844H   SYMBOL    XDATA    WORD      i
      00010846H   SYMBOL    XDATA    ---       temp_buff1
      0001084EH   SYMBOL    XDATA    ---       temp_buff2
      00010854H   SYMBOL    XDATA    ---       temp_buff3
      0001085EH   SYMBOL    XDATA    ---       temp_buff4

      ---         MODULE    ---      ---       zf_device_dl1b
      00011855H   PUBLIC    XDATA    WORD      dl1b_distance_mm
      00011857H   PUBLIC    XDATA    BYTE      dl1b_finsh_flag
      000000D0H   SFRSYM    DATA     BYTE      PSW
      0000009DH   SFRSYM    DATA     BYTE      IRCBAND
      00000097H   SFRSYM    DATA     BYTE      AUXR2
      000000EFH   SFRSYM    DATA     BYTE      AUXINTIF
      000000FDH   SFRSYM    DATA     BYTE      S4CON
      000000ACH   SFRSYM    DATA     BYTE      S3CON
      0000009AH   SFRSYM    DATA     BYTE      S2CON
      000000B7H   SFRSYM    DATA     BYTE      IPH
      000000CDH   SFRSYM    DATA     BYTE      SPSTAT
      000000DDH   SFRSYM    DATA     BYTE      T4T3M
      000000C1H   SFRSYM    DATA     BYTE      WDT_CONTR
      000000DFH   SFRSYM    DATA     BYTE      IP3
      000000F4H   SFRSYM    DATA     BYTE      USBCON
      000000B5H   SFRSYM    DATA     BYTE      IP2
      000000FFH   SFRSYM    DATA     BYTE      RSTCFG
      000000C7H   SFRSYM    DATA     BYTE      IAP_CONTR
      000000F9H   SFRSYM    DATA     BYTE      LINICR
      0000008EH   SFRSYM    DATA     BYTE      AUXR
      000000AFH   SFRSYM    DATA     BYTE      IE2
      00000088H   SFRSYM    DATA     BYTE      TCON
      00000089H   SFRSYM    DATA     BYTE      TMOD
      00000098H   SFRSYM    DATA     BYTE      SCON
      000000F1H   SFRSYM    DATA     BYTE      CANICR
      00000087H   SFRSYM    DATA     BYTE      PCON
      000000BCH   SFRSYM    DATA     BYTE      ADC_CONTR
      000000E7H   SFRSYM    DATA     BYTE      CMPCR2
      000000E6H   SFRSYM    DATA     BYTE      CMPCR1
      000000DEH   SFRSYM    DATA     BYTE      ADCCFG
      000000B8H   SFRSYM    DATA     BYTE      IP
      0000008FH   SFRSYM    DATA     BYTE      INTCLKO
      000000EEH   SFRSYM    DATA     BYTE      IP3H
      000000B6H   SFRSYM    DATA     BYTE      IP2H
      000000A8H   SFRSYM    DATA     BYTE      IE
      000000BBH   SFRSYM    DATA     BYTE      P_SW3
      000000BAH   SFRSYM    DATA     BYTE      P_SW2
      000000A2H   SFRSYM    DATA     BYTE      P_SW1
      000000CEH   SFRSYM    DATA     BYTE      SPCTL
      000000F8H   SFRSYM    DATA     BYTE      P7
      000000E8H   SFRSYM    DATA     BYTE      P6
      000000C8H   SFRSYM    DATA     BYTE      P5
      000000C0H   SFRSYM    DATA     BYTE      P4
      000000B0H   SFRSYM    DATA     BYTE      P3
      000000A0H   SFRSYM    DATA     BYTE      P2
      00000090H   SFRSYM    DATA     BYTE      P1
      00000080H   SFRSYM    DATA     BYTE      P0
      0001184CH   SYMBOL    XDATA    ---       dl1b_iic_struct
      00011858H   SYMBOL    XDATA    BYTE      dl1b_init_flag
      00011E3BH   SYMBOL    XDATA    ---       data_buffer
L251 LINKER/LOCATER V4.66.93.0                                                        03/30/2026  16:35:38  PAGE 98


      00011E3EH   SYMBOL    XDATA    INT       dl1b_distance_temp
      00011F6DH   SYMBOL    XDATA    BYTE      return_state

      ---         MODULE    ---      ---       zf_device_gps_tau1201
      00010423H   PUBLIC    XDATA    BYTE      gps_tau1201_flag
      000104A4H   PUBLIC    XDATA    ---       gps_tau1201
      000105D0H   PUBLIC    XDATA    INT       gps_gga_state
      000105D2H   PUBLIC    XDATA    INT       gps_rmc_state
      00010F7AH   PUBLIC    XDATA    BYTE      ?get_two_points_distance?BYTE
      00011319H   PUBLIC    XDATA    BYTE      ?get_two_points_azimuth?BYTE
      000000D0H   SFRSYM    DATA     BYTE      PSW
      0000009DH   SFRSYM    DATA     BYTE      IRCBAND
      00000097H   SFRSYM    DATA     BYTE      AUXR2
      000000EFH   SFRSYM    DATA     BYTE      AUXINTIF
      000000FDH   SFRSYM    DATA     BYTE      S4CON
      000000ACH   SFRSYM    DATA     BYTE      S3CON
      0000009AH   SFRSYM    DATA     BYTE      S2CON
      000000B7H   SFRSYM    DATA     BYTE      IPH
      000000CDH   SFRSYM    DATA     BYTE      SPSTAT
      000000DDH   SFRSYM    DATA     BYTE      T4T3M
      000000C1H   SFRSYM    DATA     BYTE      WDT_CONTR
      000000DFH   SFRSYM    DATA     BYTE      IP3
      000000F4H   SFRSYM    DATA     BYTE      USBCON
      000000B5H   SFRSYM    DATA     BYTE      IP2
      000000FFH   SFRSYM    DATA     BYTE      RSTCFG
      000000C7H   SFRSYM    DATA     BYTE      IAP_CONTR
      000000F9H   SFRSYM    DATA     BYTE      LINICR
      0000008EH   SFRSYM    DATA     BYTE      AUXR
      000000AFH   SFRSYM    DATA     BYTE      IE2
      00000088H   SFRSYM    DATA     BYTE      TCON
      00000089H   SFRSYM    DATA     BYTE      TMOD
      00000098H   SFRSYM    DATA     BYTE      SCON
      000000F1H   SFRSYM    DATA     BYTE      CANICR
      00000087H   SFRSYM    DATA     BYTE      PCON
      000000BCH   SFRSYM    DATA     BYTE      ADC_CONTR
      000000E7H   SFRSYM    DATA     BYTE      CMPCR2
      000000E6H   SFRSYM    DATA     BYTE      CMPCR1
      000000DEH   SFRSYM    DATA     BYTE      ADCCFG
      000000B8H   SFRSYM    DATA     BYTE      IP
      0000008FH   SFRSYM    DATA     BYTE      INTCLKO
      000000EEH   SFRSYM    DATA     BYTE      IP3H
      000000B6H   SFRSYM    DATA     BYTE      IP2H
      000000A8H   SFRSYM    DATA     BYTE      IE
      000000BBH   SFRSYM    DATA     BYTE      P_SW3
      000000BAH   SFRSYM    DATA     BYTE      P_SW2
      000000A2H   SFRSYM    DATA     BYTE      P_SW1
      000000CEH   SFRSYM    DATA     BYTE      SPCTL
      000000F8H   SFRSYM    DATA     BYTE      P7
      000000E8H   SFRSYM    DATA     BYTE      P6
      000000C8H   SFRSYM    DATA     BYTE      P5
      000000C0H   SFRSYM    DATA     BYTE      P4
      000000B0H   SFRSYM    DATA     BYTE      P3
      000000A0H   SFRSYM    DATA     BYTE      P2
      00000090H   SFRSYM    DATA     BYTE      P1
      00000080H   SFRSYM    DATA     BYTE      P0
      00FFC0BFH   SYMBOL    HCONST   ---       ?tpl?0001
      00FFC0C4H   SYMBOL    HCONST   ---       ?tpl?0002
      00FFC0E0H   SYMBOL    HCONST   ---       ?tpl?0003
      00FFC0EBH   SYMBOL    HCONST   ---       ?tpl?0004
      00FFC0F6H   SYMBOL    HCONST   ---       ?tpl?0005
      00FFC101H   SYMBOL    HCONST   ---       ?tpl?0006
      00FFC10CH   SYMBOL    HCONST   ---       ?tpl?0007
      00FFC117H   SYMBOL    HCONST   ---       ?tpl?0008
      00FFC122H   SYMBOL    HCONST   ---       ?tpl?0009
      00FFC12DH   SYMBOL    HCONST   ---       ?tpl?000A
L251 LINKER/LOCATER V4.66.93.0                                                        03/30/2026  16:35:38  PAGE 99


      00FFC138H   SYMBOL    HCONST   ---       ?tpl?000B
      00FFC143H   SYMBOL    HCONST   ---       ?tpl?000C
      00FFC14EH   SYMBOL    HCONST   ---       ?tpl?000D
      0001040CH   SYMBOL    XDATA    ---       gps_tau1201_receiver_fifo
      00010424H   SYMBOL    XDATA    ---       gps_gga_buffer
      000104CFH   SYMBOL    XDATA    BYTE      gps_tau1201_state
      000104D0H   SYMBOL    XDATA    ---       gps_rmc_buffer
      00010550H   SYMBOL    XDATA    ---       gps_tau1201_receiver_buffer
      00011859H   SYMBOL    XDATA    BYTE      num
      0001185AH   SYMBOL    XDATA    ---       str
      0001185EH   SYMBOL    XDATA    BYTE      i
      0001185FH   SYMBOL    XDATA    BYTE      j
      00011860H   SYMBOL    XDATA    ---       temp
      00011864H   SYMBOL    XDATA    BYTE      len
      00011865H   SYMBOL    XDATA    BYTE      len1
      000115DBH   SYMBOL    XDATA    ---       s
      000115DFH   SYMBOL    XDATA    ---       buf
      000115E9H   SYMBOL    XDATA    BYTE      i
      000115EAH   SYMBOL    XDATA    INT       return_value
      00011400H   SYMBOL    XDATA    ---       s
      00011404H   SYMBOL    XDATA    BYTE      i
      00011405H   SYMBOL    XDATA    ---       buf
      00011414H   SYMBOL    XDATA    FLOAT     return_value
      00011418H   SYMBOL    XDATA    ---       s
      0001141CH   SYMBOL    XDATA    BYTE      i
      0001141DH   SYMBOL    XDATA    ---       buf
      0001142CH   SYMBOL    XDATA    FLOAT     return_value
      00011E40H   SYMBOL    XDATA    ---       time
      00011E44H   SYMBOL    XDATA    BYTE      day_num
      000110EDH   SYMBOL    XDATA    ---       line
      000110F1H   SYMBOL    XDATA    ---       gps
      000110F5H   SYMBOL    XDATA    BYTE      state
      000110F6H   SYMBOL    XDATA    BYTE      temp
      000110F7H   SYMBOL    XDATA    FLOAT     latitude
      000110FBH   SYMBOL    XDATA    FLOAT     longitude
      000110FFH   SYMBOL    XDATA    FLOAT     lati_cent_tmp
      00011103H   SYMBOL    XDATA    FLOAT     lati_second_tmp
      00011107H   SYMBOL    XDATA    FLOAT     long_cent_tmp
      0001110BH   SYMBOL    XDATA    FLOAT     long_second_tmp
      0001110FH   SYMBOL    XDATA    FLOAT     speed_tmp
      00011113H   SYMBOL    XDATA    ---       buf
      00011117H   SYMBOL    XDATA    BYTE      return_state
      000117ABH   SYMBOL    XDATA    ---       line
      000117AFH   SYMBOL    XDATA    ---       gps
      000117B3H   SYMBOL    XDATA    BYTE      state
      000117B4H   SYMBOL    XDATA    ---       buf
      000117B8H   SYMBOL    XDATA    BYTE      return_state
      00010F7AH   SYMBOL    XDATA    FLOAT     latitude1
      00010F7EH   SYMBOL    XDATA    FLOAT     longitude1
      00010F82H   SYMBOL    XDATA    FLOAT     latitude2
      00010F86H   SYMBOL    XDATA    FLOAT     longitude2
      00010F8AH   SYMBOL    XDATA    FLOAT     EARTH_RADIUS
      00010F8EH   SYMBOL    XDATA    FLOAT     rad_latitude1
      00010F92H   SYMBOL    XDATA    FLOAT     rad_latitude2
      00010F96H   SYMBOL    XDATA    FLOAT     rad_longitude1
      00010F9AH   SYMBOL    XDATA    FLOAT     rad_longitude2
      00010F9EH   SYMBOL    XDATA    FLOAT     distance
      00010FA2H   SYMBOL    XDATA    FLOAT     a
      00010FA6H   SYMBOL    XDATA    FLOAT     b
      00011319H   SYMBOL    XDATA    FLOAT     latitude1
      0001131DH   SYMBOL    XDATA    FLOAT     longitude1
      00011321H   SYMBOL    XDATA    FLOAT     latitude2
      00011325H   SYMBOL    XDATA    FLOAT     longitude2
      00011329H   SYMBOL    XDATA    FLOAT     x
      0001132DH   SYMBOL    XDATA    FLOAT     y
L251 LINKER/LOCATER V4.66.93.0                                                        03/30/2026  16:35:38  PAGE 100


      00011331H   SYMBOL    XDATA    FLOAT     angle
      00011972H   SYMBOL    XDATA    BYTE      return_state
      00011973H   SYMBOL    XDATA    ---       check_buffer
      00011978H   SYMBOL    XDATA    BYTE      bbc_xor_origin
      00011979H   SYMBOL    XDATA    BYTE      bbc_xor_calculation
      0001197AH   SYMBOL    XDATA    DWORD     data_len
      00011A5DH   SYMBOL    XDATA    BYTE      uart_dat
      00011A5EH   SYMBOL    XDATA    ---       temp_gps
      00011A64H   SYMBOL    XDATA    DWORD     temp_length
      00010A42H   SYMBOL    XDATA    ---       set_rate
      00010A5EH   SYMBOL    XDATA    ---       open_gga
      00010A69H   SYMBOL    XDATA    ---       open_rmc
      00010A74H   SYMBOL    XDATA    ---       close_gll
      00010A7FH   SYMBOL    XDATA    ---       close_gsa
      00010A8AH   SYMBOL    XDATA    ---       close_grs
      00010A95H   SYMBOL    XDATA    ---       close_gsv
      00010AA0H   SYMBOL    XDATA    ---       close_vtg
      00010AABH   SYMBOL    XDATA    ---       close_zda
      00010AB6H   SYMBOL    XDATA    ---       close_gst
      00010AC1H   SYMBOL    XDATA    ---       close_txt
      00010ACCH   SYMBOL    XDATA    ---       close_txt_ant

      ---         MODULE    ---      ---       zf_device_icm20602
      000114EAH   PUBLIC    XDATA    INT       icm20602_acc_x
      000114ECH   PUBLIC    XDATA    INT       icm20602_acc_y
      000114EEH   PUBLIC    XDATA    INT       icm20602_acc_z
      000114F0H   PUBLIC    XDATA    INT       icm20602_gyro_x
      000114F2H   PUBLIC    XDATA    INT       icm20602_gyro_y
      000114F4H   PUBLIC    XDATA    INT       icm20602_gyro_z
      000114F6H   PUBLIC    XDATA    ---       icm20602_transition_factor
      000000D0H   SFRSYM    DATA     BYTE      PSW
      0000009DH   SFRSYM    DATA     BYTE      IRCBAND
      00000097H   SFRSYM    DATA     BYTE      AUXR2
      000000EFH   SFRSYM    DATA     BYTE      AUXINTIF
      000000FDH   SFRSYM    DATA     BYTE      S4CON
      000000ACH   SFRSYM    DATA     BYTE      S3CON
      0000009AH   SFRSYM    DATA     BYTE      S2CON
      000000B7H   SFRSYM    DATA     BYTE      IPH
      000000CDH   SFRSYM    DATA     BYTE      SPSTAT
      000000DDH   SFRSYM    DATA     BYTE      T4T3M
      000000C1H   SFRSYM    DATA     BYTE      WDT_CONTR
      000000DFH   SFRSYM    DATA     BYTE      IP3
      000000F4H   SFRSYM    DATA     BYTE      USBCON
      000000B5H   SFRSYM    DATA     BYTE      IP2
      000000FFH   SFRSYM    DATA     BYTE      RSTCFG
      000000C7H   SFRSYM    DATA     BYTE      IAP_CONTR
      000000F9H   SFRSYM    DATA     BYTE      LINICR
      0000008EH   SFRSYM    DATA     BYTE      AUXR
      000000AFH   SFRSYM    DATA     BYTE      IE2
      000000C0H.3 SFRSYM    DATA     BIT       P43
      000000C0H.2 SFRSYM    DATA     BIT       P42
      00000088H   SFRSYM    DATA     BYTE      TCON
      00000089H   SFRSYM    DATA     BYTE      TMOD
      000000C0H.1 SFRSYM    DATA     BIT       P41
      00000098H   SFRSYM    DATA     BYTE      SCON
      000000C0H.0 SFRSYM    DATA     BIT       P40
      000000F1H   SFRSYM    DATA     BYTE      CANICR
      00000087H   SFRSYM    DATA     BYTE      PCON
      000000BCH   SFRSYM    DATA     BYTE      ADC_CONTR
      000000E7H   SFRSYM    DATA     BYTE      CMPCR2
      000000E6H   SFRSYM    DATA     BYTE      CMPCR1
      000000DEH   SFRSYM    DATA     BYTE      ADCCFG
      000000B8H   SFRSYM    DATA     BYTE      IP
      0000008FH   SFRSYM    DATA     BYTE      INTCLKO
      000000EEH   SFRSYM    DATA     BYTE      IP3H
L251 LINKER/LOCATER V4.66.93.0                                                        03/30/2026  16:35:38  PAGE 101


      000000B6H   SFRSYM    DATA     BYTE      IP2H
      000000A8H   SFRSYM    DATA     BYTE      IE
      000000BBH   SFRSYM    DATA     BYTE      P_SW3
      000000BAH   SFRSYM    DATA     BYTE      P_SW2
      000000A2H   SFRSYM    DATA     BYTE      P_SW1
      000000CEH   SFRSYM    DATA     BYTE      SPCTL
      000000F8H   SFRSYM    DATA     BYTE      P7
      000000E8H   SFRSYM    DATA     BYTE      P6
      000000C8H   SFRSYM    DATA     BYTE      P5
      000000C0H   SFRSYM    DATA     BYTE      P4
      000000B0H   SFRSYM    DATA     BYTE      P3
      000000A0H   SFRSYM    DATA     BYTE      P2
      00000090H   SFRSYM    DATA     BYTE      P1
      00000080H   SFRSYM    DATA     BYTE      P0
      00011F39H   SYMBOL    XDATA    BYTE      byte
      00011F3AH   SYMBOL    XDATA    BYTE      i
      00011F3BH   SYMBOL    XDATA    BYTE      cmd
      00011F3CH   SYMBOL    XDATA    BYTE      val
      00011E45H   SYMBOL    XDATA    BYTE      cmd
      00011E46H   SYMBOL    XDATA    ---       val
      00011B1BH   SYMBOL    XDATA    BYTE      cmd
      00011B1CH   SYMBOL    XDATA    ---       val
      00011B20H   SYMBOL    XDATA    DWORD     num
      00000010H   SYMBOL    EDATA    DWORD     i
      00011F3DH   SYMBOL    XDATA    BYTE      reg
      00011F3EH   SYMBOL    XDATA    BYTE      dat
      00011F3FH   SYMBOL    XDATA    BYTE      reg
      00011F40H   SYMBOL    XDATA    BYTE      dat
      00011B24H   SYMBOL    XDATA    BYTE      reg
      00011B25H   SYMBOL    XDATA    ---       dat
      00011B29H   SYMBOL    XDATA    DWORD     len
      00011EA8H   SYMBOL    XDATA    BYTE      dat
      00011EA9H   SYMBOL    XDATA    BYTE      return_state
      00011EAAH   SYMBOL    XDATA    WORD      timeout_count
      00011D7EH   SYMBOL    XDATA    ---       dat
      00011D84H   SYMBOL    XDATA    ---       dat
      00011EACH   SYMBOL    XDATA    BYTE      val
      00011EADH   SYMBOL    XDATA    BYTE      return_state
      00011EAEH   SYMBOL    XDATA    WORD      timeout_count

      ---         MODULE    ---      ---       zf_device_imu660ra
      00FFACACH   PUBLIC    CODE     ---       imu660ra_get_gyro
      00FF78C7H   PUBLIC    CODE     ---       imu660ra_init
      00FFAD06H   PUBLIC    CODE     ---       imu660ra_get_acc
      000114FEH   PUBLIC    XDATA    INT       imu660ra_acc_x
      00011500H   PUBLIC    XDATA    INT       imu660ra_acc_y
      00011502H   PUBLIC    XDATA    INT       imu660ra_acc_z
      00011504H   PUBLIC    XDATA    INT       imu660ra_gyro_x
      00011506H   PUBLIC    XDATA    INT       imu660ra_gyro_y
      00011508H   PUBLIC    XDATA    INT       imu660ra_gyro_z
      0001150AH   PUBLIC    XDATA    ---       imu660ra_transition_factor
      000000D0H   SFRSYM    DATA     BYTE      PSW
      0000009DH   SFRSYM    DATA     BYTE      IRCBAND
      00000097H   SFRSYM    DATA     BYTE      AUXR2
      000000EFH   SFRSYM    DATA     BYTE      AUXINTIF
      000000FDH   SFRSYM    DATA     BYTE      S4CON
      000000ACH   SFRSYM    DATA     BYTE      S3CON
      0000009AH   SFRSYM    DATA     BYTE      S2CON
      000000B7H   SFRSYM    DATA     BYTE      IPH
      000000CDH   SFRSYM    DATA     BYTE      SPSTAT
      000000DDH   SFRSYM    DATA     BYTE      T4T3M
      000000C1H   SFRSYM    DATA     BYTE      WDT_CONTR
      000000DFH   SFRSYM    DATA     BYTE      IP3
      000000F4H   SFRSYM    DATA     BYTE      USBCON
      000000B5H   SFRSYM    DATA     BYTE      IP2
L251 LINKER/LOCATER V4.66.93.0                                                        03/30/2026  16:35:38  PAGE 102


      000000FFH   SFRSYM    DATA     BYTE      RSTCFG
      000000C7H   SFRSYM    DATA     BYTE      IAP_CONTR
      000000F9H   SFRSYM    DATA     BYTE      LINICR
      0000008EH   SFRSYM    DATA     BYTE      AUXR
      000000AFH   SFRSYM    DATA     BYTE      IE2
      000000C0H.3 SFRSYM    DATA     BIT       P43
      000000C0H.2 SFRSYM    DATA     BIT       P42
      00000088H   SFRSYM    DATA     BYTE      TCON
      00000089H   SFRSYM    DATA     BYTE      TMOD
      000000C0H.1 SFRSYM    DATA     BIT       P41
      00000098H   SFRSYM    DATA     BYTE      SCON
      000000C0H.0 SFRSYM    DATA     BIT       P40
      000000F1H   SFRSYM    DATA     BYTE      CANICR
      00000087H   SFRSYM    DATA     BYTE      PCON
      000000BCH   SFRSYM    DATA     BYTE      ADC_CONTR
      000000E7H   SFRSYM    DATA     BYTE      CMPCR2
      000000E6H   SFRSYM    DATA     BYTE      CMPCR1
      000000DEH   SFRSYM    DATA     BYTE      ADCCFG
      000000B8H   SFRSYM    DATA     BYTE      IP
      0000008FH   SFRSYM    DATA     BYTE      INTCLKO
      000000EEH   SFRSYM    DATA     BYTE      IP3H
      000000B6H   SFRSYM    DATA     BYTE      IP2H
      000000A8H   SFRSYM    DATA     BYTE      IE
      000000BBH   SFRSYM    DATA     BYTE      P_SW3
      000000BAH   SFRSYM    DATA     BYTE      P_SW2
      000000A2H   SFRSYM    DATA     BYTE      P_SW1
      000000CEH   SFRSYM    DATA     BYTE      SPCTL
      000000F8H   SFRSYM    DATA     BYTE      P7
      000000E8H   SFRSYM    DATA     BYTE      P6
      000000C8H   SFRSYM    DATA     BYTE      P5
      000000C0H   SFRSYM    DATA     BYTE      P4
      000000B0H   SFRSYM    DATA     BYTE      P3
      000000A0H   SFRSYM    DATA     BYTE      P2
      00000090H   SFRSYM    DATA     BYTE      P1
      00000080H   SFRSYM    DATA     BYTE      P0
      00FFB4A8H   SYMBOL    CODE     ---       imu660ra_read_register
      00FFB3A8H   SYMBOL    CODE     ---       imu660ra_write_registers
      00FFB60FH   SYMBOL    CODE     ---       imu660ra_write_register
      00FFAEC0H   SYMBOL    CODE     ---       imu660ra_simspi_wr_byte
      00FFAB8FH   SYMBOL    CODE     ---       imu660ra_self_check
      00FFAA54H   SYMBOL    CODE     ---       imu660ra_simspi_r_reg_bytes
      00FFAC50H   SYMBOL    CODE     ---       imu660ra_simspi_w_reg_bytes
      00FF0026H   SYMBOL    CODE     ---       imu660ra_simspi_w_reg_byte
      00FF9EF1H   SYMBOL    CODE     ---       imu660ra_read_registers

      00FFAEC0H   BLOCK     CODE     ---       LVL=0
      00011F41H   SYMBOL    XDATA    BYTE      byte
      00FFAEC4H   BLOCK     CODE     NEAR LAB  LVL=1
      00011F42H   SYMBOL    XDATA    BYTE      i
      ---         BLOCKEND  ---      ---       LVL=1
      00FFAEC0H   LINE      CODE     ---       #160
      00FFAEC4H   LINE      CODE     ---       #161
      00FFAEC4H   LINE      CODE     ---       #163
      00FFAECBH   LINE      CODE     ---       #165
      00FFAECEH   LINE      CODE     ---       #166
      00FFAEDDH   LINE      CODE     ---       #167
      00FFAEE4H   LINE      CODE     ---       #168
      00FFAEE7H   LINE      CODE     ---       #169
      00FFAEF4H   LINE      CODE     ---       #170
      00FFAF0BH   LINE      CODE     ---       #171
      00FFAF0EH   LINE      CODE     ---       #172
      00FFAF12H   LINE      CODE     ---       #173
      ---         BLOCKEND  ---      ---       LVL=0

      00FF0026H   BLOCK     CODE     ---       LVL=0
L251 LINKER/LOCATER V4.66.93.0                                                        03/30/2026  16:35:38  PAGE 103


      00011F43H   SYMBOL    XDATA    BYTE      cmd
      00011F44H   SYMBOL    XDATA    BYTE      val
      00FF0026H   LINE      CODE     ---       #182
      00FF0030H   LINE      CODE     ---       #184
      00FF0034H   LINE      CODE     ---       #185
      00FF003BH   LINE      CODE     ---       #186
      00FF0042H   LINE      CODE     ---       #187
      ---         BLOCKEND  ---      ---       LVL=0

      00FFAC50H   BLOCK     CODE     ---       LVL=0
      00011B2DH   SYMBOL    XDATA    BYTE      cmd
      00011B2EH   SYMBOL    XDATA    ---       dat_addr
      00011B32H   SYMBOL    XDATA    DWORD     len
      00FFAC50H   LINE      CODE     ---       #197
      00FFAC68H   LINE      CODE     ---       #199
      00FFAC6CH   LINE      CODE     ---       #200
      00FFAC73H   LINE      CODE     ---       #201
      00FFAC75H   LINE      CODE     ---       #203
      00FFAC8EH   LINE      CODE     ---       #204
      00FFACABH   LINE      CODE     ---       #205
      ---         BLOCKEND  ---      ---       LVL=0

      00FFAA54H   BLOCK     CODE     ---       LVL=0
      00011B36H   SYMBOL    XDATA    BYTE      cmd
      00011B37H   SYMBOL    XDATA    ---       val
      00011B3BH   SYMBOL    XDATA    DWORD     num
      00FFAA54H   LINE      CODE     ---       #215
      00FFAA6CH   LINE      CODE     ---       #217
      00FFAA76H   LINE      CODE     ---       #218
      00FFAA7DH   LINE      CODE     ---       #219
      00FFAA7FH   LINE      CODE     ---       #221
      00FFAAA6H   LINE      CODE     ---       #222
      00FFAAC3H   LINE      CODE     ---       #223
      ---         BLOCKEND  ---      ---       LVL=0

      00FFB60FH   BLOCK     CODE     ---       LVL=0
      00011F45H   SYMBOL    XDATA    BYTE      reg
      00011F46H   SYMBOL    XDATA    BYTE      dat
      00FFB60FH   LINE      CODE     ---       #234
      00FFB619H   LINE      CODE     ---       #236
      00FFB61CH   LINE      CODE     ---       #237
      00FFB629H   LINE      CODE     ---       #238
      00FFB62CH   LINE      CODE     ---       #239
      ---         BLOCKEND  ---      ---       LVL=0

      00FFB3A8H   BLOCK     CODE     ---       LVL=0
      00011B3FH   SYMBOL    XDATA    BYTE      reg
      00011B40H   SYMBOL    XDATA    ---       dat
      00011B44H   SYMBOL    XDATA    DWORD     len
      00FFB3A8H   LINE      CODE     ---       #249
      00FFB3C0H   LINE      CODE     ---       #251
      00FFB3C3H   LINE      CODE     ---       #252
      00FFB3DEH   LINE      CODE     ---       #253
      00FFB3E1H   LINE      CODE     ---       #254
      ---         BLOCKEND  ---      ---       LVL=0

      00FFB4A8H   BLOCK     CODE     ---       LVL=0
      00011F16H   SYMBOL    XDATA    BYTE      reg
      00FFB4ACH   BLOCK     CODE     NEAR LAB  LVL=1
      00011F17H   SYMBOL    XDATA    ---       dat
      ---         BLOCKEND  ---      ---       LVL=1
      00FFB4A8H   LINE      CODE     ---       #263
      00FFB4ACH   LINE      CODE     ---       #264
      00FFB4ACH   LINE      CODE     ---       #266
      00FFB4AFH   LINE      CODE     ---       #267
L251 LINKER/LOCATER V4.66.93.0                                                        03/30/2026  16:35:38  PAGE 104


      00FFB4C8H   LINE      CODE     ---       #268
      00FFB4CBH   LINE      CODE     ---       #269
      00FFB4CFH   LINE      CODE     ---       #270
      ---         BLOCKEND  ---      ---       LVL=0

      00FF9EF1H   BLOCK     CODE     ---       LVL=0
      00011512H   SYMBOL    XDATA    BYTE      reg
      00011513H   SYMBOL    XDATA    ---       dat
      00011517H   SYMBOL    XDATA    DWORD     len
      00FF9F09H   BLOCK     CODE     NEAR LAB  LVL=1
      0001151BH   SYMBOL    XDATA    WORD      i
      0001151DH   SYMBOL    XDATA    ---       temp_data
      ---         BLOCKEND  ---      ---       LVL=1
      00FF9EF1H   LINE      CODE     ---       #281
      00FF9F09H   LINE      CODE     ---       #282
      00FF9F09H   LINE      CODE     ---       #283
      00FF9F11H   LINE      CODE     ---       #285
      00FF9F14H   LINE      CODE     ---       #286
      00FF9F39H   LINE      CODE     ---       #287
      00FF9F3CH   LINE      CODE     ---       #289
      00FF9F46H   LINE      CODE     ---       #291
      00FF9F7CH   LINE      CODE     ---       #292
      00FF9FA1H   LINE      CODE     ---       #293
      ---         BLOCKEND  ---      ---       LVL=0

      00FFAB8FH   BLOCK     CODE     ---       LVL=0
      00011EB0H   SYMBOL    XDATA    BYTE      dat
      00011EB1H   SYMBOL    XDATA    BYTE      return_state
      00011EB2H   SYMBOL    XDATA    WORD      timeout_count
      00FFAB8FH   LINE      CODE     ---       #312
      00FFAB8FH   LINE      CODE     ---       #313
      00FFAB8FH   LINE      CODE     ---       #314
      00FFAB99H   LINE      CODE     ---       #315
      00FFABA1H   LINE      CODE     ---       #317
      00FFABA1H   LINE      CODE     ---       #319
      00FFABB8H   LINE      CODE     ---       #321
      00FFABBEH   LINE      CODE     ---       #322
      00FFABC0H   LINE      CODE     ---       #323
      00FFABC0H   LINE      CODE     ---       #325
      00FFABC8H   LINE      CODE     ---       #326
      00FFABDFH   LINE      CODE     ---       #327
      00FFABE6H   LINE      CODE     ---       #328
      00FFABEFH   LINE      CODE     ---       #331
      00FFABF3H   LINE      CODE     ---       #332
      ---         BLOCKEND  ---      ---       LVL=0

      00FFAD06H   BLOCK     CODE     ---       LVL=0
      00011D8AH   SYMBOL    XDATA    ---       dat
      00FFAD06H   LINE      CODE     ---       #342
      00FFAD06H   LINE      CODE     ---       #343
      00FFAD06H   LINE      CODE     ---       #346
      00FFAD17H   LINE      CODE     ---       #347
      00FFAD2FH   LINE      CODE     ---       #348
      00FFAD47H   LINE      CODE     ---       #349
      00FFAD5FH   LINE      CODE     ---       #350
      ---         BLOCKEND  ---      ---       LVL=0

      00FFACACH   BLOCK     CODE     ---       LVL=0
      00011D90H   SYMBOL    XDATA    ---       dat
      00FFACACH   LINE      CODE     ---       #359
      00FFACACH   LINE      CODE     ---       #360
      00FFACACH   LINE      CODE     ---       #363
      00FFACBDH   LINE      CODE     ---       #364
      00FFACD5H   LINE      CODE     ---       #365
      00FFACEDH   LINE      CODE     ---       #366
L251 LINKER/LOCATER V4.66.93.0                                                        03/30/2026  16:35:38  PAGE 105


      00FFAD05H   LINE      CODE     ---       #367
      ---         BLOCKEND  ---      ---       LVL=0

      00FF78C7H   BLOCK     CODE     ---       LVL=0
      00011F6EH   SYMBOL    XDATA    BYTE      return_state
      00FF78C7H   LINE      CODE     ---       #376
      00FF78C7H   LINE      CODE     ---       #377
      00FF78C7H   LINE      CODE     ---       #378
      00FF78CCH   LINE      CODE     ---       #379
      00FF78D3H   LINE      CODE     ---       #389
      00FF78D7H   LINE      CODE     ---       #395
      00FF78D7H   LINE      CODE     ---       #397
      00FF78DFH   LINE      CODE     ---       #402
      00FF78EAH   LINE      CODE     ---       #403
      00FF78F0H   LINE      CODE     ---       #404
      00FF78F3H   LINE      CODE     ---       #405
      00FF78F3H   LINE      CODE     ---       #407
      00FF78FAH   LINE      CODE     ---       #408
      00FF7901H   LINE      CODE     ---       #409
      00FF7908H   LINE      CODE     ---       #410
      00FF7919H   LINE      CODE     ---       #411
      00FF7921H   LINE      CODE     ---       #412
      00FF7928H   LINE      CODE     ---       #414
      00FF7932H   LINE      CODE     ---       #419
      00FF793DH   LINE      CODE     ---       #420
      00FF7943H   LINE      CODE     ---       #421
      00FF7946H   LINE      CODE     ---       #422
      00FF7946H   LINE      CODE     ---       #424
      00FF794EH   LINE      CODE     ---       #425
      00FF7956H   LINE      CODE     ---       #426
      00FF795EH   LINE      CODE     ---       #433
      00FF7976H   LINE      CODE     ---       #435
      00FF7976H   LINE      CODE     ---       #437
      00FF7981H   LINE      CODE     ---       #438
      00FF7987H   LINE      CODE     ---       #440
      00FF7989H   LINE      CODE     ---       #442
      00FF7989H   LINE      CODE     ---       #444
      00FF7990H   LINE      CODE     ---       #445
      00FF79A0H   LINE      CODE     ---       #447
      00FF79A2H   LINE      CODE     ---       #449
      00FF79A2H   LINE      CODE     ---       #451
      00FF79AAH   LINE      CODE     ---       #452
      00FF79BAH   LINE      CODE     ---       #454
      00FF79BCH   LINE      CODE     ---       #456
      00FF79BCH   LINE      CODE     ---       #458
      00FF79C4H   LINE      CODE     ---       #459
      00FF79D4H   LINE      CODE     ---       #461
      00FF79D6H   LINE      CODE     ---       #463
      00FF79D6H   LINE      CODE     ---       #465
      00FF79DEH   LINE      CODE     ---       #466
      00FF79EEH   LINE      CODE     ---       #468
      00FF79EEH   LINE      CODE     ---       #469
      00FF79EEH   LINE      CODE     ---       #471
      00FF79FAH   LINE      CODE     ---       #473
      00FF79FAH   LINE      CODE     ---       #474
      00FF79FAH   LINE      CODE     ---       #482
      00FF7A19H   LINE      CODE     ---       #484
      00FF7A19H   LINE      CODE     ---       #486
      00FF7A24H   LINE      CODE     ---       #487
      00FF7A2AH   LINE      CODE     ---       #489
      00FF7A2DH   LINE      CODE     ---       #491
      00FF7A2DH   LINE      CODE     ---       #493
      00FF7A35H   LINE      CODE     ---       #494
      00FF7A47H   LINE      CODE     ---       #496
      00FF7A49H   LINE      CODE     ---       #498
L251 LINKER/LOCATER V4.66.93.0                                                        03/30/2026  16:35:38  PAGE 106


      00FF7A49H   LINE      CODE     ---       #500
      00FF7A51H   LINE      CODE     ---       #501
      00FF7A63H   LINE      CODE     ---       #503
      00FF7A65H   LINE      CODE     ---       #505
      00FF7A65H   LINE      CODE     ---       #507
      00FF7A6DH   LINE      CODE     ---       #508
      00FF7A7FH   LINE      CODE     ---       #510
      00FF7A81H   LINE      CODE     ---       #512
      00FF7A81H   LINE      CODE     ---       #514
      00FF7A89H   LINE      CODE     ---       #515
      00FF7A9BH   LINE      CODE     ---       #517
      00FF7A9DH   LINE      CODE     ---       #519
      00FF7A9DH   LINE      CODE     ---       #521
      00FF7AA4H   LINE      CODE     ---       #522
      00FF7AB6H   LINE      CODE     ---       #524
      00FF7AB6H   LINE      CODE     ---       #525
      00FF7AB6H   LINE      CODE     ---       #527
      00FF7AB6H   LINE      CODE     ---       #529
      00FF7AB6H   LINE      CODE     ---       #530
      00FF7AB6H   LINE      CODE     ---       #534
      00FF7ABAH   LINE      CODE     ---       #535
      ---         BLOCKEND  ---      ---       LVL=0

      ---         MODULE    ---      ---       zf_device_imu660rb
      0001197EH   PUBLIC    XDATA    INT       imu660rb_acc_x
      00011980H   PUBLIC    XDATA    INT       imu660rb_acc_y
      00011982H   PUBLIC    XDATA    INT       imu660rb_acc_z
      00011984H   PUBLIC    XDATA    INT       imu660rb_gyro_x
      00011986H   PUBLIC    XDATA    INT       imu660rb_gyro_y
      00011988H   PUBLIC    XDATA    INT       imu660rb_gyro_z
      000000D0H   SFRSYM    DATA     BYTE      PSW
      0000009DH   SFRSYM    DATA     BYTE      IRCBAND
      00000097H   SFRSYM    DATA     BYTE      AUXR2
      000000EFH   SFRSYM    DATA     BYTE      AUXINTIF
      000000FDH   SFRSYM    DATA     BYTE      S4CON
      000000ACH   SFRSYM    DATA     BYTE      S3CON
      0000009AH   SFRSYM    DATA     BYTE      S2CON
      000000B7H   SFRSYM    DATA     BYTE      IPH
      000000CDH   SFRSYM    DATA     BYTE      SPSTAT
      000000DDH   SFRSYM    DATA     BYTE      T4T3M
      000000C1H   SFRSYM    DATA     BYTE      WDT_CONTR
      000000DFH   SFRSYM    DATA     BYTE      IP3
      000000F4H   SFRSYM    DATA     BYTE      USBCON
      000000B5H   SFRSYM    DATA     BYTE      IP2
      000000FFH   SFRSYM    DATA     BYTE      RSTCFG
      000000C7H   SFRSYM    DATA     BYTE      IAP_CONTR
      000000F9H   SFRSYM    DATA     BYTE      LINICR
      0000008EH   SFRSYM    DATA     BYTE      AUXR
      000000AFH   SFRSYM    DATA     BYTE      IE2
      000000C0H.3 SFRSYM    DATA     BIT       P43
      000000C0H.2 SFRSYM    DATA     BIT       P42
      00000088H   SFRSYM    DATA     BYTE      TCON
      00000089H   SFRSYM    DATA     BYTE      TMOD
      000000C0H.1 SFRSYM    DATA     BIT       P41
      00000098H   SFRSYM    DATA     BYTE      SCON
      000000C0H.0 SFRSYM    DATA     BIT       P40
      000000F1H   SFRSYM    DATA     BYTE      CANICR
      00000087H   SFRSYM    DATA     BYTE      PCON
      000000BCH   SFRSYM    DATA     BYTE      ADC_CONTR
      000000E7H   SFRSYM    DATA     BYTE      CMPCR2
      000000E6H   SFRSYM    DATA     BYTE      CMPCR1
      000000DEH   SFRSYM    DATA     BYTE      ADCCFG
      000000B8H   SFRSYM    DATA     BYTE      IP
      0000008FH   SFRSYM    DATA     BYTE      INTCLKO
      000000EEH   SFRSYM    DATA     BYTE      IP3H
L251 LINKER/LOCATER V4.66.93.0                                                        03/30/2026  16:35:38  PAGE 107


      000000B6H   SFRSYM    DATA     BYTE      IP2H
      000000A8H   SFRSYM    DATA     BYTE      IE
      000000BBH   SFRSYM    DATA     BYTE      P_SW3
      000000BAH   SFRSYM    DATA     BYTE      P_SW2
      000000A2H   SFRSYM    DATA     BYTE      P_SW1
      000000CEH   SFRSYM    DATA     BYTE      SPCTL
      000000F8H   SFRSYM    DATA     BYTE      P7
      000000E8H   SFRSYM    DATA     BYTE      P6
      000000C8H   SFRSYM    DATA     BYTE      P5
      000000C0H   SFRSYM    DATA     BYTE      P4
      000000B0H   SFRSYM    DATA     BYTE      P3
      000000A0H   SFRSYM    DATA     BYTE      P2
      00000090H   SFRSYM    DATA     BYTE      P1
      00000080H   SFRSYM    DATA     BYTE      P0
      00011F47H   SYMBOL    XDATA    BYTE      byte
      00011F48H   SYMBOL    XDATA    BYTE      i
      00011F49H   SYMBOL    XDATA    BYTE      cmd
      00011F4AH   SYMBOL    XDATA    BYTE      val
      00011E4AH   SYMBOL    XDATA    BYTE      cmd
      00011E4BH   SYMBOL    XDATA    ---       val
      00011B48H   SYMBOL    XDATA    BYTE      cmd
      00011B49H   SYMBOL    XDATA    ---       val
      00011B4DH   SYMBOL    XDATA    DWORD     num
      00011F4BH   SYMBOL    XDATA    BYTE      reg
      00011F4CH   SYMBOL    XDATA    BYTE      dat
      00011F4DH   SYMBOL    XDATA    BYTE      reg
      00011F4EH   SYMBOL    XDATA    BYTE      dat
      00011B51H   SYMBOL    XDATA    BYTE      reg
      00011B52H   SYMBOL    XDATA    ---       dat
      00011B56H   SYMBOL    XDATA    DWORD     len
      00011EB4H   SYMBOL    XDATA    BYTE      dat
      00011EB5H   SYMBOL    XDATA    BYTE      return_state
      00011EB6H   SYMBOL    XDATA    WORD      timeout_count
      00011D96H   SYMBOL    XDATA    ---       dat
      00011D9CH   SYMBOL    XDATA    ---       dat
      00011DA2H   SYMBOL    XDATA    INT       acc_value
      00011DA4H   SYMBOL    XDATA    FLOAT     acc_data
      00011DA8H   SYMBOL    XDATA    INT       gyro_value
      00011DAAH   SYMBOL    XDATA    FLOAT     gyro_data
      00011F6FH   SYMBOL    XDATA    BYTE      return_state

      ---         MODULE    ---      ---       zf_device_imu963ra
      000112DEH   PUBLIC    XDATA    INT       imu963ra_acc_x
      000112E0H   PUBLIC    XDATA    INT       imu963ra_acc_y
      000112E2H   PUBLIC    XDATA    INT       imu963ra_acc_z
      000112E4H   PUBLIC    XDATA    INT       imu963ra_mag_x
      000112E6H   PUBLIC    XDATA    INT       imu963ra_mag_y
      000112E8H   PUBLIC    XDATA    INT       imu963ra_mag_z
      000112EAH   PUBLIC    XDATA    INT       imu963ra_gyro_x
      000112ECH   PUBLIC    XDATA    INT       imu963ra_gyro_y
      000112EEH   PUBLIC    XDATA    INT       imu963ra_gyro_z
      000112F0H   PUBLIC    XDATA    ---       imu963ra_transition_factor
      000000D0H   SFRSYM    DATA     BYTE      PSW
      0000009DH   SFRSYM    DATA     BYTE      IRCBAND
      00000097H   SFRSYM    DATA     BYTE      AUXR2
      000000EFH   SFRSYM    DATA     BYTE      AUXINTIF
      000000FDH   SFRSYM    DATA     BYTE      S4CON
      000000ACH   SFRSYM    DATA     BYTE      S3CON
      0000009AH   SFRSYM    DATA     BYTE      S2CON
      000000B7H   SFRSYM    DATA     BYTE      IPH
      000000CDH   SFRSYM    DATA     BYTE      SPSTAT
      000000DDH   SFRSYM    DATA     BYTE      T4T3M
      000000C1H   SFRSYM    DATA     BYTE      WDT_CONTR
      000000DFH   SFRSYM    DATA     BYTE      IP3
      000000F4H   SFRSYM    DATA     BYTE      USBCON
L251 LINKER/LOCATER V4.66.93.0                                                        03/30/2026  16:35:38  PAGE 108


      000000B5H   SFRSYM    DATA     BYTE      IP2
      000000FFH   SFRSYM    DATA     BYTE      RSTCFG
      000000C7H   SFRSYM    DATA     BYTE      IAP_CONTR
      000000F9H   SFRSYM    DATA     BYTE      LINICR
      0000008EH   SFRSYM    DATA     BYTE      AUXR
      000000AFH   SFRSYM    DATA     BYTE      IE2
      000000C0H.2 SFRSYM    DATA     BIT       P42
      00000088H   SFRSYM    DATA     BYTE      TCON
      00000089H   SFRSYM    DATA     BYTE      TMOD
      00000098H   SFRSYM    DATA     BYTE      SCON
      000000F1H   SFRSYM    DATA     BYTE      CANICR
      00000087H   SFRSYM    DATA     BYTE      PCON
      000000BCH   SFRSYM    DATA     BYTE      ADC_CONTR
      000000E7H   SFRSYM    DATA     BYTE      CMPCR2
      000000E6H   SFRSYM    DATA     BYTE      CMPCR1
      000000DEH   SFRSYM    DATA     BYTE      ADCCFG
      000000B8H   SFRSYM    DATA     BYTE      IP
      0000008FH   SFRSYM    DATA     BYTE      INTCLKO
      000000EEH   SFRSYM    DATA     BYTE      IP3H
      000000B6H   SFRSYM    DATA     BYTE      IP2H
      000000A8H   SFRSYM    DATA     BYTE      IE
      000000BBH   SFRSYM    DATA     BYTE      P_SW3
      000000BAH   SFRSYM    DATA     BYTE      P_SW2
      000000A2H   SFRSYM    DATA     BYTE      P_SW1
      000000CEH   SFRSYM    DATA     BYTE      SPCTL
      000000F8H   SFRSYM    DATA     BYTE      P7
      000000E8H   SFRSYM    DATA     BYTE      P6
      000000C8H   SFRSYM    DATA     BYTE      P5
      000000C0H   SFRSYM    DATA     BYTE      P4
      000000B0H   SFRSYM    DATA     BYTE      P3
      000000A0H   SFRSYM    DATA     BYTE      P2
      00000090H   SFRSYM    DATA     BYTE      P1
      00000080H   SFRSYM    DATA     BYTE      P0
      00011F4FH   SYMBOL    XDATA    BYTE      reg
      00011F50H   SYMBOL    XDATA    BYTE      dat
      00011F51H   SYMBOL    XDATA    BYTE      reg
      00011F52H   SYMBOL    XDATA    BYTE      dat
      00011B5AH   SYMBOL    XDATA    BYTE      reg
      00011B5BH   SYMBOL    XDATA    ---       dat
      00011B5FH   SYMBOL    XDATA    DWORD     len
      00011DAEH   SYMBOL    XDATA    BYTE      addr
      00011DAFH   SYMBOL    XDATA    BYTE      reg
      00011DB0H   SYMBOL    XDATA    BYTE      dat
      00011DB1H   SYMBOL    XDATA    BYTE      return_state
      00011DB2H   SYMBOL    XDATA    WORD      timeout_count
      00011EB8H   SYMBOL    XDATA    BYTE      addr
      00011EB9H   SYMBOL    XDATA    BYTE      reg
      00011EBAH   SYMBOL    XDATA    WORD      timeout_count
      00011F53H   SYMBOL    XDATA    BYTE      addr
      00011F54H   SYMBOL    XDATA    BYTE      reg
      00011EBCH   SYMBOL    XDATA    BYTE      return_state
      00011EBDH   SYMBOL    XDATA    BYTE      dat
      00011EBEH   SYMBOL    XDATA    WORD      timeout_count
      00011EC0H   SYMBOL    XDATA    BYTE      return_state
      00011EC1H   SYMBOL    XDATA    BYTE      dat
      00011EC2H   SYMBOL    XDATA    WORD      timeout_count
      00011DB4H   SYMBOL    XDATA    ---       dat
      00011DBAH   SYMBOL    XDATA    ---       dat
      00011D10H   SYMBOL    XDATA    BYTE      temp_status
      00011D11H   SYMBOL    XDATA    ---       dat
      00011F70H   SYMBOL    XDATA    BYTE      return_state

      ---         MODULE    ---      ---       zf_device_ips114
      00FF7ABBH   PUBLIC    CODE     ---       ips114_show_float
      00FF9CACH   PUBLIC    CODE     ---       ips114_show_string
L251 LINKER/LOCATER V4.66.93.0                                                        03/30/2026  16:35:38  PAGE 109


      00FF8EF5H   PUBLIC    CODE     ---       ips114_show_char
      00FF9011H   PUBLIC    CODE     ---       ips114_show_uint16
      00FFB542H   PUBLIC    CODE     ---       ips114_set_color
      00FFB36DH   PUBLIC    CODE     ---       ips114_set_dir
      00FFA656H   PUBLIC    CODE     ---       ips114_clear
      00FF683DH   PUBLIC    CODE     ---       ips114_init
      00011C7CH   PUBLIC    XDATA    WORD      ips114_pencolor
      00011C7EH   PUBLIC    XDATA    WORD      ips114_bgcolor
      00011C80H   PUBLIC    XDATA    INT       ips114_display_dir
      00011C82H   PUBLIC    XDATA    BYTE      ips114_x_max
      00011C83H   PUBLIC    XDATA    BYTE      ips114_y_max
      00010FAAH   PUBLIC    XDATA    BYTE      ?ips114_show_float?BYTE
      00011203H   PUBLIC    XDATA    BYTE      ?ips114_show_wave?BYTE
      0001139DH   PUBLIC    XDATA    BYTE      ?ips114_show_chinese?BYTE
      000000D0H   SFRSYM    DATA     BYTE      PSW
      0000009DH   SFRSYM    DATA     BYTE      IRCBAND
      00000097H   SFRSYM    DATA     BYTE      AUXR2
      000000EFH   SFRSYM    DATA     BYTE      AUXINTIF
      000000FDH   SFRSYM    DATA     BYTE      S4CON
      000000ACH   SFRSYM    DATA     BYTE      S3CON
      0000009AH   SFRSYM    DATA     BYTE      S2CON
      000000B7H   SFRSYM    DATA     BYTE      IPH
      000000CDH   SFRSYM    DATA     BYTE      SPSTAT
      000000DDH   SFRSYM    DATA     BYTE      T4T3M
      000000C1H   SFRSYM    DATA     BYTE      WDT_CONTR
      000000DFH   SFRSYM    DATA     BYTE      IP3
      000000F4H   SFRSYM    DATA     BYTE      USBCON
      000000B5H   SFRSYM    DATA     BYTE      IP2
      000000FFH   SFRSYM    DATA     BYTE      RSTCFG
      000000C7H   SFRSYM    DATA     BYTE      IAP_CONTR
      000000F9H   SFRSYM    DATA     BYTE      LINICR
      0000008EH   SFRSYM    DATA     BYTE      AUXR
      000000AFH   SFRSYM    DATA     BYTE      IE2
      00000088H   SFRSYM    DATA     BYTE      TCON
      00000089H   SFRSYM    DATA     BYTE      TMOD
      00000098H   SFRSYM    DATA     BYTE      SCON
      000000A0H.2 SFRSYM    DATA     BIT       P22
      000000A0H.1 SFRSYM    DATA     BIT       P21
      000000A0H.0 SFRSYM    DATA     BIT       P20
      000000F1H   SFRSYM    DATA     BYTE      CANICR
      00000087H   SFRSYM    DATA     BYTE      PCON
      000000BCH   SFRSYM    DATA     BYTE      ADC_CONTR
      000000E7H   SFRSYM    DATA     BYTE      CMPCR2
      000000E6H   SFRSYM    DATA     BYTE      CMPCR1
      000000DEH   SFRSYM    DATA     BYTE      ADCCFG
      000000B8H   SFRSYM    DATA     BYTE      IP
      0000008FH   SFRSYM    DATA     BYTE      INTCLKO
      000000EEH   SFRSYM    DATA     BYTE      IP3H
      000000B6H   SFRSYM    DATA     BYTE      IP2H
      000000A8H   SFRSYM    DATA     BYTE      IE
      000000BBH   SFRSYM    DATA     BYTE      P_SW3
      000000BAH   SFRSYM    DATA     BYTE      P_SW2
      000000A2H   SFRSYM    DATA     BYTE      P_SW1
      000000CEH   SFRSYM    DATA     BYTE      SPCTL
      000000F8H   SFRSYM    DATA     BYTE      P7
      000000E8H   SFRSYM    DATA     BYTE      P6
      000000C8H   SFRSYM    DATA     BYTE      P5
      000000C0H   SFRSYM    DATA     BYTE      P4
      000000B0H   SFRSYM    DATA     BYTE      P3
      000000A0H   SFRSYM    DATA     BYTE      P2
      00000090H   SFRSYM    DATA     BYTE      P1
      00000080H   SFRSYM    DATA     BYTE      P0
      00FFB5AFH   SYMBOL    CODE     ---       ips114_write_index
      00FF7034H   SYMBOL    CODE     ---       ips114_set_region

L251 LINKER/LOCATER V4.66.93.0                                                        03/30/2026  16:35:38  PAGE 110


      00FFB5AFH   BLOCK     CODE     ---       LVL=0
      00011F71H   SYMBOL    XDATA    BYTE      dat
      00FFB5AFH   LINE      CODE     ---       #83
      00FFB5B3H   LINE      CODE     ---       #85
      00FFB5B6H   LINE      CODE     ---       #86
      00FFB5B9H   LINE      CODE     ---       #87
      00FFB5BCH   LINE      CODE     ---       #88
      00FFB5C7H   LINE      CODE     ---       #89
      00FFB5CAH   LINE      CODE     ---       #90
      00FFB5CDH   LINE      CODE     ---       #91
      00FFB5D0H   LINE      CODE     ---       #92
      ---         BLOCKEND  ---      ---       LVL=0

      00FF7034H   BLOCK     CODE     ---       LVL=0
      00011C84H   SYMBOL    XDATA    WORD      x1
      00011C86H   SYMBOL    XDATA    WORD      y1
      00011C88H   SYMBOL    XDATA    WORD      x2
      00011C8AH   SYMBOL    XDATA    WORD      y2
      00FF7034H   LINE      CODE     ---       #103
      00FF704CH   LINE      CODE     ---       #105
      00FF7070H   LINE      CODE     ---       #106
      00FF7094H   LINE      CODE     ---       #107
      00FF70B8H   LINE      CODE     ---       #108
      00FF70DCH   LINE      CODE     ---       #110
      00FF70E8H   LINE      CODE     ---       #112
      00FF70EDH   LINE      CODE     ---       #113
      00FF7100H   LINE      CODE     ---       #114
      00FF7113H   LINE      CODE     ---       #115
      00FF7118H   LINE      CODE     ---       #116
      00FF712BH   LINE      CODE     ---       #117
      00FF713EH   LINE      CODE     ---       #118
      00FF7143H   LINE      CODE     ---       #119
      00FF7146H   LINE      CODE     ---       #120
      00FF7154H   LINE      CODE     ---       #122
      00FF7159H   LINE      CODE     ---       #123
      00FF716CH   LINE      CODE     ---       #124
      00FF717FH   LINE      CODE     ---       #125
      00FF7184H   LINE      CODE     ---       #126
      00FF7197H   LINE      CODE     ---       #127
      00FF71AAH   LINE      CODE     ---       #128
      00FF71AFH   LINE      CODE     ---       #129
      00FF71B2H   LINE      CODE     ---       #130
      00FF71C0H   LINE      CODE     ---       #132
      00FF71C5H   LINE      CODE     ---       #133
      00FF71D8H   LINE      CODE     ---       #134
      00FF71EBH   LINE      CODE     ---       #135
      00FF71F0H   LINE      CODE     ---       #136
      00FF7203H   LINE      CODE     ---       #137
      00FF7216H   LINE      CODE     ---       #138
      00FF721BH   LINE      CODE     ---       #139
      00FF721DH   LINE      CODE     ---       #142
      00FF7222H   LINE      CODE     ---       #143
      00FF7235H   LINE      CODE     ---       #144
      00FF7248H   LINE      CODE     ---       #145
      00FF724DH   LINE      CODE     ---       #146
      00FF7260H   LINE      CODE     ---       #147
      00FF7273H   LINE      CODE     ---       #148
      00FF7278H   LINE      CODE     ---       #149
      00FF7278H   LINE      CODE     ---       #150
      ---         BLOCKEND  ---      ---       LVL=0

      00FFA656H   BLOCK     CODE     ---       LVL=0
      00011DC0H   SYMBOL    XDATA    WORD      color
      00FFA65CH   BLOCK     CODE     NEAR LAB  LVL=1
      00011DC2H   SYMBOL    XDATA    WORD      i
L251 LINKER/LOCATER V4.66.93.0                                                        03/30/2026  16:35:38  PAGE 111


      00011DC4H   SYMBOL    XDATA    WORD      j
      ---         BLOCKEND  ---      ---       LVL=1
      00FFA656H   LINE      CODE     ---       #158
      00FFA65CH   LINE      CODE     ---       #159
      00FFA65CH   LINE      CODE     ---       #161
      00FFA67BH   LINE      CODE     ---       #163
      00FFA685H   LINE      CODE     ---       #165
      00FFA68FH   LINE      CODE     ---       #167
      00FFA69CH   LINE      CODE     ---       #168
      00FFA6BBH   LINE      CODE     ---       #169
      00FFA6DAH   LINE      CODE     ---       #170
      ---         BLOCKEND  ---      ---       LVL=0

      00FFB36DH   BLOCK     CODE     ---       LVL=0
      00011F55H   SYMBOL    XDATA    INT       dir
      00FFB36DH   LINE      CODE     ---       #178
      00FFB373H   LINE      CODE     ---       #180
      00FFB37FH   LINE      CODE     ---       #181
      00FFB38DH   LINE      CODE     ---       #183
      00FFB393H   LINE      CODE     ---       #184
      00FFB399H   LINE      CODE     ---       #185
      00FFB39BH   LINE      CODE     ---       #188
      00FFB3A1H   LINE      CODE     ---       #189
      00FFB3A7H   LINE      CODE     ---       #190
      00FFB3A7H   LINE      CODE     ---       #191
      ---         BLOCKEND  ---      ---       LVL=0

      00FFB542H   BLOCK     CODE     ---       LVL=0
      00011EC4H   SYMBOL    XDATA    WORD      pen
      00011EC6H   SYMBOL    XDATA    WORD      bgcolor
      00FFB542H   LINE      CODE     ---       #200
      00FFB54EH   LINE      CODE     ---       #202
      00FFB55AH   LINE      CODE     ---       #203
      00FFB566H   LINE      CODE     ---       #204
      ---         BLOCKEND  ---      ---       LVL=0
      00011DC6H   SYMBOL    XDATA    WORD      x
      00011DC8H   SYMBOL    XDATA    WORD      y
      00011DCAH   SYMBOL    XDATA    WORD      color

      00FF8EF5H   BLOCK     CODE     ---       LVL=0
      00011C8CH   SYMBOL    XDATA    WORD      x
      00011C8EH   SYMBOL    XDATA    WORD      y
      00011C90H   SYMBOL    XDATA    CHAR      dat
      00FF8F05H   BLOCK     CODE     NEAR LAB  LVL=1
      00011C91H   SYMBOL    XDATA    BYTE      i
      00011C92H   SYMBOL    XDATA    BYTE      j
      00011C93H   SYMBOL    XDATA    BYTE      temp
      ---         BLOCKEND  ---      ---       LVL=1
      00FF8EF5H   LINE      CODE     ---       #231
      00FF8F05H   LINE      CODE     ---       #232
      00FF8F05H   LINE      CODE     ---       #236
      00FF8F29H   LINE      CODE     ---       #237
      00FF8F4DH   LINE      CODE     ---       #239
      00FF8F55H   LINE      CODE     ---       #241
      00FF8F86H   LINE      CODE     ---       #242
      00FF8FAEH   LINE      CODE     ---       #243
      00FF8FB5H   LINE      CODE     ---       #245
      00FF8FBCH   LINE      CODE     ---       #246
      00FF8FCBH   LINE      CODE     ---       #248
      00FF8FD8H   LINE      CODE     ---       #249
      00FF8FDFH   LINE      CODE     ---       #250
      00FF8FF6H   LINE      CODE     ---       #251
      00FF9010H   LINE      CODE     ---       #252
      ---         BLOCKEND  ---      ---       LVL=0

L251 LINKER/LOCATER V4.66.93.0                                                        03/30/2026  16:35:38  PAGE 112


      00FF9CACH   BLOCK     CODE     ---       LVL=0
      00011ACEH   SYMBOL    XDATA    WORD      x
      00011AD0H   SYMBOL    XDATA    WORD      y
      00011AD2H   SYMBOL    XDATA    ---       dat
      00FF9CC2H   BLOCK     CODE     NEAR LAB  LVL=1
      00011AD6H   SYMBOL    XDATA    WORD      j
      ---         BLOCKEND  ---      ---       LVL=1
      00FF9CACH   LINE      CODE     ---       #262
      00FF9CC2H   LINE      CODE     ---       #263
      00FF9CC2H   LINE      CODE     ---       #264
      00FF9CCAH   LINE      CODE     ---       #266
      00FF9CEEH   LINE      CODE     ---       #267
      00FF9D12H   LINE      CODE     ---       #269
      00FF9D14H   LINE      CODE     ---       #271
      00FF9D46H   LINE      CODE     ---       #272
      00FF9D55H   LINE      CODE     ---       #273
      00FF9D6FH   LINE      CODE     ---       #274
      ---         BLOCKEND  ---      ---       LVL=0
      00011B63H   SYMBOL    XDATA    WORD      x
      00011B65H   SYMBOL    XDATA    WORD      y
      00011B67H   SYMBOL    XDATA    CHAR      dat
      00011B68H   SYMBOL    XDATA    ---       a
      00011B6BH   SYMBOL    XDATA    BYTE      i
      00011B6CH   SYMBOL    XDATA    WORD      x
      00011B6EH   SYMBOL    XDATA    WORD      y
      00011B70H   SYMBOL    XDATA    BYTE      dat
      00011B71H   SYMBOL    XDATA    ---       a
      00011B74H   SYMBOL    XDATA    BYTE      i
      0001198AH   SYMBOL    XDATA    WORD      x
      0001198CH   SYMBOL    XDATA    WORD      y
      0001198EH   SYMBOL    XDATA    INT       dat
      00011990H   SYMBOL    XDATA    ---       a
      00011995H   SYMBOL    XDATA    BYTE      i

      00FF9011H   BLOCK     CODE     ---       LVL=0
      00011996H   SYMBOL    XDATA    WORD      x
      00011998H   SYMBOL    XDATA    WORD      y
      0001199AH   SYMBOL    XDATA    WORD      dat
      00FF9023H   BLOCK     CODE     NEAR LAB  LVL=1
      0001199CH   SYMBOL    XDATA    ---       a
      000119A1H   SYMBOL    XDATA    BYTE      i
      ---         BLOCKEND  ---      ---       LVL=1
      00FF9011H   LINE      CODE     ---       #384
      00FF9023H   LINE      CODE     ---       #385
      00FF9023H   LINE      CODE     ---       #389
      00FF9047H   LINE      CODE     ---       #390
      00FF906BH   LINE      CODE     ---       #392
      00FF907BH   LINE      CODE     ---       #393
      00FF9093H   LINE      CODE     ---       #394
      00FF90ABH   LINE      CODE     ---       #395
      00FF90C3H   LINE      CODE     ---       #396
      00FF90D5H   LINE      CODE     ---       #398
      00FF90DAH   LINE      CODE     ---       #399
      00FF90DCH   LINE      CODE     ---       #401
      00FF9112H   LINE      CODE     ---       #402
      00FF911DH   LINE      CODE     ---       #403
      00FF9129H   LINE      CODE     ---       #404
      ---         BLOCKEND  ---      ---       LVL=0
      00011069H   SYMBOL    XDATA    WORD      x
      0001106BH   SYMBOL    XDATA    WORD      y
      0001106DH   SYMBOL    XDATA    LONG      dat
      00011071H   SYMBOL    XDATA    BYTE      num
      00011072H   SYMBOL    XDATA    ---       buff
      00011094H   SYMBOL    XDATA    BYTE      length

L251 LINKER/LOCATER V4.66.93.0                                                        03/30/2026  16:35:38  PAGE 113


      00FF7ABBH   BLOCK     CODE     ---       LVL=0
      00010FAAH   SYMBOL    XDATA    WORD      x
      00010FACH   SYMBOL    XDATA    WORD      y
      00010FAEH   SYMBOL    XDATA    FLOAT     dat
      00010FB2H   SYMBOL    XDATA    BYTE      num
      00010FB3H   SYMBOL    XDATA    BYTE      pointnum
      00FF7AD5H   BLOCK     CODE     NEAR LAB  LVL=1
      00010FB4H   SYMBOL    XDATA    BYTE      length
      00010FB5H   SYMBOL    XDATA    ---       buff
      00010FD7H   SYMBOL    XDATA    CHAR      start
      00010FD8H   SYMBOL    XDATA    CHAR      end
      00010FD9H   SYMBOL    XDATA    CHAR      point
      ---         BLOCKEND  ---      ---       LVL=1
      00FF7ABBH   LINE      CODE     ---       #459
      00FF7AD5H   LINE      CODE     ---       #460
      00FF7AD5H   LINE      CODE     ---       #465
      00FF7AF9H   LINE      CODE     ---       #466
      00FF7B1DH   LINE      CODE     ---       #468
      00FF7B2FH   LINE      CODE     ---       #469
      00FF7B41H   LINE      CODE     ---       #471
      00FF7B81H   LINE      CODE     ---       #474
      00FF7BAEH   LINE      CODE     ---       #475
      00FF7BB9H   LINE      CODE     ---       #476
      00FF7BB9H   LINE      CODE     ---       #477
      00FF7BC9H   LINE      CODE     ---       #478
      00FF7BE1H   LINE      CODE     ---       #479
      00FF7BF9H   LINE      CODE     ---       #480
      00FF7BFBH   LINE      CODE     ---       #482
      00FF7C13H   LINE      CODE     ---       #483
      00FF7C1EH   LINE      CODE     ---       #484
      00FF7C29H   LINE      CODE     ---       #485
      00FF7C34H   LINE      CODE     ---       #487
      00FF7C5FH   LINE      CODE     ---       #488
      00FF7C77H   LINE      CODE     ---       #490
      00FF7C8EH   LINE      CODE     ---       #492
      00FF7CA5H   LINE      CODE     ---       #493
      ---         BLOCKEND  ---      ---       LVL=0
      00011203H   SYMBOL    XDATA    WORD      x
      00011205H   SYMBOL    XDATA    WORD      y
      00011207H   SYMBOL    XDATA    ---       p
      0001120BH   SYMBOL    XDATA    WORD      width
      0001120DH   SYMBOL    XDATA    WORD      value_max
      0001120FH   SYMBOL    XDATA    WORD      dis_width
      00011211H   SYMBOL    XDATA    WORD      dis_value_max
      00011213H   SYMBOL    XDATA    DWORD     i
      00011217H   SYMBOL    XDATA    DWORD     j
      0001121BH   SYMBOL    XDATA    DWORD     width_index
      0001121FH   SYMBOL    XDATA    DWORD     value_max_index
      0001139DH   SYMBOL    XDATA    WORD      x
      0001139FH   SYMBOL    XDATA    WORD      y
      000113A1H   SYMBOL    XDATA    BYTE      siz
      000113A2H   SYMBOL    XDATA    ---       p
      000113A6H   SYMBOL    XDATA    BYTE      number
      000113A7H   SYMBOL    XDATA    WORD      color
      000113A9H   SYMBOL    XDATA    INT       i
      000113ABH   SYMBOL    XDATA    INT       j
      000113ADH   SYMBOL    XDATA    INT       k
      000113AFH   SYMBOL    XDATA    BYTE      temp
      000113B0H   SYMBOL    XDATA    BYTE      temp1
      000113B1H   SYMBOL    XDATA    BYTE      temp2
      000113B2H   SYMBOL    XDATA    ---       p_data

      00FF683DH   BLOCK     CODE     ---       LVL=0
      00FF683DH   LINE      CODE     ---       #585
      00FF683DH   LINE      CODE     ---       #590
L251 LINKER/LOCATER V4.66.93.0                                                        03/30/2026  16:35:38  PAGE 114


      00FF684EH   LINE      CODE     ---       #591
      00FF685FH   LINE      CODE     ---       #592
      00FF6898H   LINE      CODE     ---       #600
      00FF68A1H   LINE      CODE     ---       #601
      00FF68B0H   LINE      CODE     ---       #603
      00FF68B3H   LINE      CODE     ---       #604
      00FF68BAH   LINE      CODE     ---       #606
      00FF68BDH   LINE      CODE     ---       #607
      00FF68C4H   LINE      CODE     ---       #609
      00FF68C9H   LINE      CODE     ---       #610
      00FF68D0H   LINE      CODE     ---       #611
      00FF68E6H   LINE      CODE     ---       #612
      00FF68FFH   LINE      CODE     ---       #613
      00FF6918H   LINE      CODE     ---       #614
      00FF6921H   LINE      CODE     ---       #616
      00FF6926H   LINE      CODE     ---       #617
      00FF692FH   LINE      CODE     ---       #619
      00FF6934H   LINE      CODE     ---       #620
      00FF693DH   LINE      CODE     ---       #621
      00FF6946H   LINE      CODE     ---       #622
      00FF694EH   LINE      CODE     ---       #623
      00FF6957H   LINE      CODE     ---       #624
      00FF6960H   LINE      CODE     ---       #626
      00FF6965H   LINE      CODE     ---       #627
      00FF696EH   LINE      CODE     ---       #629
      00FF6973H   LINE      CODE     ---       #630
      00FF697CH   LINE      CODE     ---       #632
      00FF6981H   LINE      CODE     ---       #633
      00FF698AH   LINE      CODE     ---       #635
      00FF698FH   LINE      CODE     ---       #636
      00FF6998H   LINE      CODE     ---       #638
      00FF699DH   LINE      CODE     ---       #639
      00FF69A6H   LINE      CODE     ---       #641
      00FF69ABH   LINE      CODE     ---       #642
      00FF69B4H   LINE      CODE     ---       #644
      00FF69B9H   LINE      CODE     ---       #645
      00FF69C2H   LINE      CODE     ---       #647
      00FF69C7H   LINE      CODE     ---       #648
      00FF69D0H   LINE      CODE     ---       #649
      00FF69D9H   LINE      CODE     ---       #651
      00FF69DEH   LINE      CODE     ---       #652
      00FF69E7H   LINE      CODE     ---       #653
      00FF69F0H   LINE      CODE     ---       #654
      00FF69F9H   LINE      CODE     ---       #655
      00FF6A02H   LINE      CODE     ---       #656
      00FF6A0BH   LINE      CODE     ---       #657
      00FF6A14H   LINE      CODE     ---       #658
      00FF6A1DH   LINE      CODE     ---       #659
      00FF6A26H   LINE      CODE     ---       #660
      00FF6A2FH   LINE      CODE     ---       #661
      00FF6A38H   LINE      CODE     ---       #662
      00FF6A41H   LINE      CODE     ---       #663
      00FF6A4AH   LINE      CODE     ---       #664
      00FF6A53H   LINE      CODE     ---       #665
      00FF6A5CH   LINE      CODE     ---       #667
      00FF6A61H   LINE      CODE     ---       #668
      00FF6A6AH   LINE      CODE     ---       #669
      00FF6A73H   LINE      CODE     ---       #670
      00FF6A7CH   LINE      CODE     ---       #671
      00FF6A85H   LINE      CODE     ---       #672
      00FF6A8EH   LINE      CODE     ---       #673
      00FF6A97H   LINE      CODE     ---       #674
      00FF6AA0H   LINE      CODE     ---       #675
      00FF6AA9H   LINE      CODE     ---       #676
      00FF6AB2H   LINE      CODE     ---       #677
L251 LINKER/LOCATER V4.66.93.0                                                        03/30/2026  16:35:38  PAGE 115


      00FF6ABBH   LINE      CODE     ---       #678
      00FF6AC4H   LINE      CODE     ---       #679
      00FF6ACDH   LINE      CODE     ---       #680
      00FF6AD6H   LINE      CODE     ---       #681
      00FF6ADFH   LINE      CODE     ---       #683
      00FF6AE4H   LINE      CODE     ---       #685
      00FF6AE9H   LINE      CODE     ---       #686
      00FF6AF0H   LINE      CODE     ---       #688
      00FF6AF5H   LINE      CODE     ---       #690
      00FF6AFEH   LINE      CODE     ---       #691
      ---         BLOCKEND  ---      ---       LVL=0

      ---         MODULE    ---      ---       zf_device_ips200
      00011AD8H   PUBLIC    XDATA    WORD      ips200_pencolor
      00011ADAH   PUBLIC    XDATA    WORD      ips200_bgcolor
      00011ADCH   PUBLIC    XDATA    INT       ips200_display_dir
      00011ADEH   PUBLIC    XDATA    WORD      ips200_x_max
      00011AE0H   PUBLIC    XDATA    WORD      ips200_y_max
      00010FDAH   PUBLIC    XDATA    BYTE      ?ips200_show_float?BYTE
      00011223H   PUBLIC    XDATA    BYTE      ?ips200_show_wave?BYTE
      000113B6H   PUBLIC    XDATA    BYTE      ?ips200_show_chinese?BYTE
      000000D0H   SFRSYM    DATA     BYTE      PSW
      0000009DH   SFRSYM    DATA     BYTE      IRCBAND
      00000097H   SFRSYM    DATA     BYTE      AUXR2
      000000EFH   SFRSYM    DATA     BYTE      AUXINTIF
      000000FDH   SFRSYM    DATA     BYTE      S4CON
      000000ACH   SFRSYM    DATA     BYTE      S3CON
      0000009AH   SFRSYM    DATA     BYTE      S2CON
      000000B7H   SFRSYM    DATA     BYTE      IPH
      000000CDH   SFRSYM    DATA     BYTE      SPSTAT
      000000DDH   SFRSYM    DATA     BYTE      T4T3M
      000000C1H   SFRSYM    DATA     BYTE      WDT_CONTR
      000000DFH   SFRSYM    DATA     BYTE      IP3
      000000F4H   SFRSYM    DATA     BYTE      USBCON
      000000B5H   SFRSYM    DATA     BYTE      IP2
      000000FFH   SFRSYM    DATA     BYTE      RSTCFG
      000000C7H   SFRSYM    DATA     BYTE      IAP_CONTR
      000000F9H   SFRSYM    DATA     BYTE      LINICR
      0000008EH   SFRSYM    DATA     BYTE      AUXR
      000000AFH   SFRSYM    DATA     BYTE      IE2
      00000088H   SFRSYM    DATA     BYTE      TCON
      00000089H   SFRSYM    DATA     BYTE      TMOD
      00000098H   SFRSYM    DATA     BYTE      SCON
      000000A0H.2 SFRSYM    DATA     BIT       P22
      000000A0H.1 SFRSYM    DATA     BIT       P21
      000000A0H.0 SFRSYM    DATA     BIT       P20
      000000F1H   SFRSYM    DATA     BYTE      CANICR
      00000087H   SFRSYM    DATA     BYTE      PCON
      000000BCH   SFRSYM    DATA     BYTE      ADC_CONTR
      000000E7H   SFRSYM    DATA     BYTE      CMPCR2
      000000E6H   SFRSYM    DATA     BYTE      CMPCR1
      000000DEH   SFRSYM    DATA     BYTE      ADCCFG
      000000B8H   SFRSYM    DATA     BYTE      IP
      0000008FH   SFRSYM    DATA     BYTE      INTCLKO
      000000EEH   SFRSYM    DATA     BYTE      IP3H
      000000B6H   SFRSYM    DATA     BYTE      IP2H
      000000A8H   SFRSYM    DATA     BYTE      IE
      000000BBH   SFRSYM    DATA     BYTE      P_SW3
      000000BAH   SFRSYM    DATA     BYTE      P_SW2
      000000A2H   SFRSYM    DATA     BYTE      P_SW1
      000000CEH   SFRSYM    DATA     BYTE      SPCTL
      000000F8H   SFRSYM    DATA     BYTE      P7
      000000E8H   SFRSYM    DATA     BYTE      P6
      000000C8H   SFRSYM    DATA     BYTE      P5
      000000C0H   SFRSYM    DATA     BYTE      P4
L251 LINKER/LOCATER V4.66.93.0                                                        03/30/2026  16:35:38  PAGE 116


      000000B0H   SFRSYM    DATA     BYTE      P3
      000000A0H   SFRSYM    DATA     BYTE      P2
      00000090H   SFRSYM    DATA     BYTE      P1
      00000080H   SFRSYM    DATA     BYTE      P0
      00011F72H   SYMBOL    XDATA    BYTE      dat
      00011C94H   SYMBOL    XDATA    WORD      x1
      00011C96H   SYMBOL    XDATA    WORD      y1
      00011C98H   SYMBOL    XDATA    WORD      x2
      00011C9AH   SYMBOL    XDATA    WORD      y2
      00011DCCH   SYMBOL    XDATA    WORD      color
      00011DCEH   SYMBOL    XDATA    WORD      i
      00011DD0H   SYMBOL    XDATA    WORD      j
      00011F57H   SYMBOL    XDATA    INT       dir
      00011EC8H   SYMBOL    XDATA    WORD      pen
      00011ECAH   SYMBOL    XDATA    WORD      bgcolor
      00011DD2H   SYMBOL    XDATA    WORD      x
      00011DD4H   SYMBOL    XDATA    WORD      y
      00011DD6H   SYMBOL    XDATA    WORD      color
      00011C9CH   SYMBOL    XDATA    WORD      x
      00011C9EH   SYMBOL    XDATA    WORD      y
      00011CA0H   SYMBOL    XDATA    CHAR      dat
      00011CA1H   SYMBOL    XDATA    BYTE      i
      00011CA2H   SYMBOL    XDATA    BYTE      j
      00011CA3H   SYMBOL    XDATA    BYTE      temp
      00011AE2H   SYMBOL    XDATA    WORD      x
      00011AE4H   SYMBOL    XDATA    WORD      y
      00011AE6H   SYMBOL    XDATA    ---       dat
      00011AEAH   SYMBOL    XDATA    WORD      j
      00011B75H   SYMBOL    XDATA    WORD      x
      00011B77H   SYMBOL    XDATA    WORD      y
      00011B79H   SYMBOL    XDATA    CHAR      dat
      00011B7AH   SYMBOL    XDATA    ---       a
      00011B7DH   SYMBOL    XDATA    BYTE      i
      00011B7EH   SYMBOL    XDATA    WORD      x
      00011B80H   SYMBOL    XDATA    WORD      y
      00011B82H   SYMBOL    XDATA    BYTE      dat
      00011B83H   SYMBOL    XDATA    ---       a
      00011B86H   SYMBOL    XDATA    BYTE      i
      000119A2H   SYMBOL    XDATA    WORD      x
      000119A4H   SYMBOL    XDATA    WORD      y
      000119A6H   SYMBOL    XDATA    INT       dat
      000119A8H   SYMBOL    XDATA    ---       a
      000119ADH   SYMBOL    XDATA    BYTE      i
      000119AEH   SYMBOL    XDATA    WORD      x
      000119B0H   SYMBOL    XDATA    WORD      y
      000119B2H   SYMBOL    XDATA    WORD      dat
      000119B4H   SYMBOL    XDATA    ---       a
      000119B9H   SYMBOL    XDATA    BYTE      i
      00011095H   SYMBOL    XDATA    WORD      x
      00011097H   SYMBOL    XDATA    WORD      y
      00011099H   SYMBOL    XDATA    LONG      dat
      0001109DH   SYMBOL    XDATA    BYTE      num
      0001109EH   SYMBOL    XDATA    ---       buff
      000110C0H   SYMBOL    XDATA    BYTE      length
      00010FDAH   SYMBOL    XDATA    WORD      x
      00010FDCH   SYMBOL    XDATA    WORD      y
      00010FDEH   SYMBOL    XDATA    FLOAT     dat
      00010FE2H   SYMBOL    XDATA    BYTE      num
      00010FE3H   SYMBOL    XDATA    BYTE      pointnum
      00010FE4H   SYMBOL    XDATA    BYTE      length
      00010FE5H   SYMBOL    XDATA    ---       buff
      00011007H   SYMBOL    XDATA    CHAR      start
      00011008H   SYMBOL    XDATA    CHAR      end
      00011009H   SYMBOL    XDATA    CHAR      point
      00011223H   SYMBOL    XDATA    WORD      x
L251 LINKER/LOCATER V4.66.93.0                                                        03/30/2026  16:35:38  PAGE 117


      00011225H   SYMBOL    XDATA    WORD      y
      00011227H   SYMBOL    XDATA    ---       p
      0001122BH   SYMBOL    XDATA    WORD      width
      0001122DH   SYMBOL    XDATA    WORD      value_max
      0001122FH   SYMBOL    XDATA    WORD      dis_width
      00011231H   SYMBOL    XDATA    WORD      dis_value_max
      00011233H   SYMBOL    XDATA    DWORD     i
      00011237H   SYMBOL    XDATA    DWORD     j
      0001123BH   SYMBOL    XDATA    DWORD     width_index
      0001123FH   SYMBOL    XDATA    DWORD     value_max_index
      000113B6H   SYMBOL    XDATA    WORD      x
      000113B8H   SYMBOL    XDATA    WORD      y
      000113BAH   SYMBOL    XDATA    BYTE      siz
      000113BBH   SYMBOL    XDATA    ---       p
      000113BFH   SYMBOL    XDATA    BYTE      number
      000113C0H   SYMBOL    XDATA    WORD      color
      000113C2H   SYMBOL    XDATA    INT       i
      000113C4H   SYMBOL    XDATA    INT       j
      000113C6H   SYMBOL    XDATA    INT       k
      000113C8H   SYMBOL    XDATA    BYTE      temp
      000113C9H   SYMBOL    XDATA    BYTE      temp1
      000113CAH   SYMBOL    XDATA    BYTE      temp2
      000113CBH   SYMBOL    XDATA    ---       p_data

      ---         MODULE    ---      ---       zf_device_ips200pro
      00010DD6H   PUBLIC    XDATA    ---       ips200pro_information
      00010DDFH   PUBLIC    XDATA    ---       ips200pro_time
      000117B9H   PUBLIC    XDATA    BYTE      ?ips200pro_send_buffer?BYTE
      00011866H   PUBLIC    XDATA    BYTE      ?ips200pro_receive_buffer?BYTE
      00011282H   PUBLIC    XDATA    BYTE      ?ips200pro_write_packet?BYTE
      00011335H   PUBLIC    XDATA    BYTE      ?ips200pro_create_widgets?BYTE
      00010F2BH   PUBLIC    XDATA    BYTE      ?ips200pro_label_printf?BYTE
      00010E62H   PUBLIC    XDATA    BYTE      ?ips200pro_table_cell_printf?BYTE
      00011350H   PUBLIC    XDATA    BYTE      ?ips200pro_waveform_add_value?BYTE
      0001116CH   PUBLIC    XDATA    BYTE      ?ips200pro_image_display?BYTE
      0001136AH   PUBLIC    XDATA    BYTE      ?ips200pro_image_draw_line?BYTE
      000111E1H   PUBLIC    XDATA    BYTE      ?ips200pro_image_draw_rectangle?BYTE
      000000D0H   SFRSYM    DATA     BYTE      PSW
      0000009DH   SFRSYM    DATA     BYTE      IRCBAND
      00000097H   SFRSYM    DATA     BYTE      AUXR2
      000000EFH   SFRSYM    DATA     BYTE      AUXINTIF
      000000FDH   SFRSYM    DATA     BYTE      S4CON
      000000ACH   SFRSYM    DATA     BYTE      S3CON
      0000009AH   SFRSYM    DATA     BYTE      S2CON
      000000B7H   SFRSYM    DATA     BYTE      IPH
      000000CDH   SFRSYM    DATA     BYTE      SPSTAT
      000000DDH   SFRSYM    DATA     BYTE      T4T3M
      000000C1H   SFRSYM    DATA     BYTE      WDT_CONTR
      000000DFH   SFRSYM    DATA     BYTE      IP3
      000000F4H   SFRSYM    DATA     BYTE      USBCON
      000000B5H   SFRSYM    DATA     BYTE      IP2
      000000FFH   SFRSYM    DATA     BYTE      RSTCFG
      000000C7H   SFRSYM    DATA     BYTE      IAP_CONTR
      000000F9H   SFRSYM    DATA     BYTE      LINICR
      0000008EH   SFRSYM    DATA     BYTE      AUXR
      000000AFH   SFRSYM    DATA     BYTE      IE2
      00000088H   SFRSYM    DATA     BYTE      TCON
      00000089H   SFRSYM    DATA     BYTE      TMOD
      00000098H   SFRSYM    DATA     BYTE      SCON
      000000A0H.2 SFRSYM    DATA     BIT       P22
      000000A0H.1 SFRSYM    DATA     BIT       P21
      000000F1H   SFRSYM    DATA     BYTE      CANICR
      00000087H   SFRSYM    DATA     BYTE      PCON
      000000BCH   SFRSYM    DATA     BYTE      ADC_CONTR
      000000E7H   SFRSYM    DATA     BYTE      CMPCR2
L251 LINKER/LOCATER V4.66.93.0                                                        03/30/2026  16:35:38  PAGE 118


      000000E6H   SFRSYM    DATA     BYTE      CMPCR1
      000000DEH   SFRSYM    DATA     BYTE      ADCCFG
      000000B8H   SFRSYM    DATA     BYTE      IP
      0000008FH   SFRSYM    DATA     BYTE      INTCLKO
      000000EEH   SFRSYM    DATA     BYTE      IP3H
      000000B6H   SFRSYM    DATA     BYTE      IP2H
      000000A8H   SFRSYM    DATA     BYTE      IE
      000000BBH   SFRSYM    DATA     BYTE      P_SW3
      000000BAH   SFRSYM    DATA     BYTE      P_SW2
      000000A2H   SFRSYM    DATA     BYTE      P_SW1
      000000CEH   SFRSYM    DATA     BYTE      SPCTL
      000000F8H   SFRSYM    DATA     BYTE      P7
      000000E8H   SFRSYM    DATA     BYTE      P6
      000000C8H   SFRSYM    DATA     BYTE      P5
      000000C0H   SFRSYM    DATA     BYTE      P4
      000000B0H   SFRSYM    DATA     BYTE      P3
      000000A0H   SFRSYM    DATA     BYTE      P2
      00000090H   SFRSYM    DATA     BYTE      P1
      00000080H   SFRSYM    DATA     BYTE      P0
      00010DA3H   SYMBOL    XDATA    ---       ips200pro_printf_buffer
      00010DE7H   SYMBOL    XDATA    BYTE      ips200pro_page_num
      00011ECCH   SYMBOL    XDATA    DWORD     wait_time
      000117B9H   SYMBOL    XDATA    ---       buffer
      000117BDH   SYMBOL    XDATA    DWORD     length
      000117C1H   SYMBOL    XDATA    DWORD     time_out
      000117C5H   SYMBOL    XDATA    BYTE      end_flag
      000117C6H   SYMBOL    XDATA    BYTE      return_state
      00011866H   SYMBOL    XDATA    ---       buffer
      0001186AH   SYMBOL    XDATA    DWORD     length
      0001186EH   SYMBOL    XDATA    DWORD     time_out
      00011872H   SYMBOL    XDATA    BYTE      return_state
      00011282H   SYMBOL    XDATA    INT       command1
      00011284H   SYMBOL    XDATA    INT       command2
      00011286H   SYMBOL    XDATA    BYTE      widgets_id
      00011287H   SYMBOL    XDATA    ---       temp
      0001128BH   SYMBOL    XDATA    DWORD     length
      0001128FH   SYMBOL    XDATA    ---       buffer
      00011293H   SYMBOL    XDATA    DWORD     buffer_length
      00011297H   SYMBOL    XDATA    BYTE      return_state
      00011298H   SYMBOL    XDATA    ---       p
      0001129CH   SYMBOL    XDATA    BYTE      tmp
      0001129DH   SYMBOL    XDATA    WORD      i
      0001129FH   SYMBOL    XDATA    WORD      struct_len
      00011CA4H   SYMBOL    XDATA    INT       command2
      00011CA6H   SYMBOL    XDATA    ---       temp
      00011CAAH   SYMBOL    XDATA    BYTE      length
      00011CABH   SYMBOL    XDATA    BYTE      return_state
      000115ECH   SYMBOL    XDATA    WORD      year
      000115EEH   SYMBOL    XDATA    BYTE      month
      000115EFH   SYMBOL    XDATA    BYTE      day
      000115F0H   SYMBOL    XDATA    BYTE      return_state
      000115F1H   SYMBOL    XDATA    ---       temp
      00011694H   SYMBOL    XDATA    BYTE      hour
      00011695H   SYMBOL    XDATA    BYTE      minute
      00011696H   SYMBOL    XDATA    BYTE      second
      00011697H   SYMBOL    XDATA    BYTE      return_state
      00011698H   SYMBOL    XDATA    ---       temp
      000115FDH   SYMBOL    XDATA    WORD      child_id
      000115FFH   SYMBOL    XDATA    WORD      parent_id
      00011601H   SYMBOL    XDATA    BYTE      return_state
      00011602H   SYMBOL    XDATA    ---       temp
      00011873H   SYMBOL    XDATA    INT       format
      00011875H   SYMBOL    XDATA    BYTE      return_state
      00011876H   SYMBOL    XDATA    ---       temp
      000119BAH   SYMBOL    XDATA    BYTE      backlight
L251 LINKER/LOCATER V4.66.93.0                                                        03/30/2026  16:35:38  PAGE 119


      000119BBH   SYMBOL    XDATA    BYTE      return_state
      000119BCH   SYMBOL    XDATA    ---       temp
      00011880H   SYMBOL    XDATA    INT       dir
      00011882H   SYMBOL    XDATA    BYTE      return_state
      00011883H   SYMBOL    XDATA    ---       temp
      000119C6H   SYMBOL    XDATA    BYTE      crc_state
      000119C7H   SYMBOL    XDATA    BYTE      return_state
      000119C8H   SYMBOL    XDATA    ---       temp
      0001188DH   SYMBOL    XDATA    INT       font
      0001188FH   SYMBOL    XDATA    BYTE      return_state
      00011890H   SYMBOL    XDATA    ---       temp
      000119D2H   SYMBOL    XDATA    BYTE      state
      000119D3H   SYMBOL    XDATA    BYTE      return_state
      000119D4H   SYMBOL    XDATA    ---       temp
      0001160EH   SYMBOL    XDATA    ---       time
      00011612H   SYMBOL    XDATA    BYTE      return_state
      00011613H   SYMBOL    XDATA    ---       temp
      0001161FH   SYMBOL    XDATA    ---       time
      00011623H   SYMBOL    XDATA    BYTE      return_state
      00011624H   SYMBOL    XDATA    ---       temp
      0001145DH   SYMBOL    XDATA    ---       information
      00011461H   SYMBOL    XDATA    BYTE      return_state
      00011462H   SYMBOL    XDATA    ---       temp
      00011630H   SYMBOL    XDATA    ---       stack_size
      00011634H   SYMBOL    XDATA    BYTE      return_state
      00011635H   SYMBOL    XDATA    ---       temp
      00011335H   SYMBOL    XDATA    WORD      widgets_id
      00011337H   SYMBOL    XDATA    INT       x
      00011339H   SYMBOL    XDATA    INT       y
      0001133BH   SYMBOL    XDATA    WORD      width
      0001133DH   SYMBOL    XDATA    WORD      height
      0001133FH   SYMBOL    XDATA    BYTE      return_state
      00011340H   SYMBOL    XDATA    ---       temp
      00011A68H   SYMBOL    XDATA    WORD      widgets_id
      00011A6AH   SYMBOL    XDATA    BYTE      return_state
      00011A6BH   SYMBOL    XDATA    ---       temp
      000116C4H   SYMBOL    XDATA    WORD      widgets_id
      000116C6H   SYMBOL    XDATA    INT       font_size
      000116C8H   SYMBOL    XDATA    BYTE      return_state
      000116C9H   SYMBOL    XDATA    ---       temp
      00011525H   SYMBOL    XDATA    WORD      widgets_id
      00011527H   SYMBOL    XDATA    INT       color_type
      00011529H   SYMBOL    XDATA    WORD      color
      0001152BH   SYMBOL    XDATA    BYTE      return_state
      0001152CH   SYMBOL    XDATA    ---       temp
      00011538H   SYMBOL    XDATA    WORD      widgets_id
      0001153AH   SYMBOL    XDATA    INT       x
      0001153CH   SYMBOL    XDATA    INT       y
      0001153EH   SYMBOL    XDATA    BYTE      return_state
      0001153FH   SYMBOL    XDATA    ---       temp
      000117C7H   SYMBOL    XDATA    WORD      widgets_id
      000117C9H   SYMBOL    XDATA    BYTE      state
      000117CAH   SYMBOL    XDATA    BYTE      return_state
      000117CBH   SYMBOL    XDATA    ---       temp
      00011E4FH   SYMBOL    XDATA    ---       str
      00011E53H   SYMBOL    XDATA    BYTE      return_state
      000116D3H   SYMBOL    XDATA    WORD      page_id
      000116D5H   SYMBOL    XDATA    INT       anim_en
      000116D7H   SYMBOL    XDATA    BYTE      return_state
      000116D8H   SYMBOL    XDATA    ---       temp
      00011ED0H   SYMBOL    XDATA    WORD      page_id
      00011ED2H   SYMBOL    XDATA    BYTE      state
      00011ED3H   SYMBOL    XDATA    BYTE      return_state
      000116E2H   SYMBOL    XDATA    WORD      page_id
      000116E4H   SYMBOL    XDATA    ---       str
L251 LINKER/LOCATER V4.66.93.0                                                        03/30/2026  16:35:38  PAGE 120


      000116E8H   SYMBOL    XDATA    BYTE      return_state
      000116E9H   SYMBOL    XDATA    ---       temp
      000116A4H   SYMBOL    XDATA    INT       title_position
      000116A6H   SYMBOL    XDATA    BYTE      title_width
      000116A7H   SYMBOL    XDATA    BYTE      return_state
      000116A8H   SYMBOL    XDATA    ---       temp
      00011B87H   SYMBOL    XDATA    INT       x
      00011B89H   SYMBOL    XDATA    INT       y
      00011B8BH   SYMBOL    XDATA    WORD      width
      00011B8DH   SYMBOL    XDATA    WORD      height
      00011B8FH   SYMBOL    XDATA    BYTE      return_state
      00010DE8H   SYMBOL    XDATA    BYTE      lebel_num
      00010F2BH   SYMBOL    XDATA    WORD      label_id
      00010F2DH   SYMBOL    XDATA    ---       format
      00010F31H   SYMBOL    XDATA    LONG      str_length
      00010F35H   SYMBOL    XDATA    BYTE      return_state
      00010F36H   SYMBOL    XDATA    ---       temp
      00010F3EH   SYMBOL    XDATA    ---       arg
      000116F1H   SYMBOL    XDATA    WORD      label_id
      000116F3H   SYMBOL    XDATA    ---       str
      000116F7H   SYMBOL    XDATA    BYTE      return_state
      000116F8H   SYMBOL    XDATA    ---       temp
      00011700H   SYMBOL    XDATA    WORD      label_id
      00011702H   SYMBOL    XDATA    INT       mode
      00011704H   SYMBOL    XDATA    BYTE      return_state
      00011705H   SYMBOL    XDATA    ---       temp
      00011B90H   SYMBOL    XDATA    INT       x
      00011B92H   SYMBOL    XDATA    INT       y
      00011B94H   SYMBOL    XDATA    WORD      row_num
      00011B96H   SYMBOL    XDATA    WORD      col_num
      00011B98H   SYMBOL    XDATA    BYTE      return_state
      00010DE9H   SYMBOL    XDATA    BYTE      table_num
      00010E62H   SYMBOL    XDATA    WORD      table_id
      00010E64H   SYMBOL    XDATA    BYTE      row
      00010E65H   SYMBOL    XDATA    BYTE      col
      00010E66H   SYMBOL    XDATA    ---       format
      00010E6AH   SYMBOL    XDATA    LONG      str_length
      00010E6EH   SYMBOL    XDATA    BYTE      return_state
      00010E6FH   SYMBOL    XDATA    ---       arg
      00010E73H   SYMBOL    XDATA    ---       temp
      00011595H   SYMBOL    XDATA    WORD      table_id
      00011597H   SYMBOL    XDATA    BYTE      col
      00011598H   SYMBOL    XDATA    WORD      width
      0001159AH   SYMBOL    XDATA    BYTE      return_state
      0001159BH   SYMBOL    XDATA    ---       temp
      00011641H   SYMBOL    XDATA    WORD      table_id
      00011643H   SYMBOL    XDATA    BYTE      row
      00011644H   SYMBOL    XDATA    BYTE      col
      00011645H   SYMBOL    XDATA    BYTE      return_state
      00011646H   SYMBOL    XDATA    ---       temp
      00011B99H   SYMBOL    XDATA    INT       x
      00011B9BH   SYMBOL    XDATA    INT       y
      00011B9DH   SYMBOL    XDATA    WORD      siz
      00011B9FH   SYMBOL    XDATA    INT       style
      00011BA1H   SYMBOL    XDATA    BYTE      return_state
      00010DEAH   SYMBOL    XDATA    BYTE      meter_num
      0001170FH   SYMBOL    XDATA    WORD      meter_id
      00011711H   SYMBOL    XDATA    INT       value
      00011713H   SYMBOL    XDATA    BYTE      return_state
      00011714H   SYMBOL    XDATA    ---       temp
      00011BA2H   SYMBOL    XDATA    INT       x
      00011BA4H   SYMBOL    XDATA    INT       y
      00011BA6H   SYMBOL    XDATA    WORD      clock_size
      00011BA8H   SYMBOL    XDATA    INT       clock_type
      00011BAAH   SYMBOL    XDATA    BYTE      return_state
L251 LINKER/LOCATER V4.66.93.0                                                        03/30/2026  16:35:38  PAGE 121


      00010DEBH   SYMBOL    XDATA    BYTE      clock_num
      00011BABH   SYMBOL    XDATA    INT       x
      00011BADH   SYMBOL    XDATA    INT       y
      00011BAFH   SYMBOL    XDATA    WORD      width
      00011BB1H   SYMBOL    XDATA    WORD      height
      00011BB3H   SYMBOL    XDATA    BYTE      return_state
      00010DECH   SYMBOL    XDATA    BYTE      progress_bar_num
      00011652H   SYMBOL    XDATA    WORD      progress_bar_id
      00011654H   SYMBOL    XDATA    BYTE      start_value
      00011655H   SYMBOL    XDATA    BYTE      end_value
      00011656H   SYMBOL    XDATA    BYTE      return_state
      00011657H   SYMBOL    XDATA    ---       temp
      00011BB4H   SYMBOL    XDATA    INT       x
      00011BB6H   SYMBOL    XDATA    INT       y
      00011BB8H   SYMBOL    XDATA    WORD      width
      00011BBAH   SYMBOL    XDATA    WORD      height
      00011BBCH   SYMBOL    XDATA    BYTE      return_state
      000115A7H   SYMBOL    XDATA    WORD      year
      000115A9H   SYMBOL    XDATA    BYTE      month
      000115AAH   SYMBOL    XDATA    INT       mode
      000115ACH   SYMBOL    XDATA    BYTE      return_state
      000115ADH   SYMBOL    XDATA    ---       temp
      00011BBDH   SYMBOL    XDATA    INT       x
      00011BBFH   SYMBOL    XDATA    INT       y
      00011BC1H   SYMBOL    XDATA    WORD      width
      00011BC3H   SYMBOL    XDATA    WORD      height
      00011BC5H   SYMBOL    XDATA    BYTE      return_state
      00010DEDH   SYMBOL    XDATA    BYTE      waveform_num
      00011350H   SYMBOL    XDATA    WORD      waveform_id
      00011352H   SYMBOL    XDATA    BYTE      line_id
      00011353H   SYMBOL    XDATA    ---       dat
      00011357H   SYMBOL    XDATA    WORD      length
      00011359H   SYMBOL    XDATA    WORD      color
      0001135BH   SYMBOL    XDATA    BYTE      return_state
      0001135CH   SYMBOL    XDATA    WORD      i
      0001135EH   SYMBOL    XDATA    ---       temp
      0001154BH   SYMBOL    XDATA    WORD      waveform_id
      0001154DH   SYMBOL    XDATA    WORD      line_id
      0001154FH   SYMBOL    XDATA    WORD      line_state
      00011551H   SYMBOL    XDATA    BYTE      return_state
      00011552H   SYMBOL    XDATA    ---       temp
      000117D5H   SYMBOL    XDATA    WORD      waveform_id
      000117D7H   SYMBOL    XDATA    BYTE      line_type
      000117D8H   SYMBOL    XDATA    BYTE      return_state
      000117D9H   SYMBOL    XDATA    ---       temp
      00011A73H   SYMBOL    XDATA    WORD      waveform_id
      00011A75H   SYMBOL    XDATA    BYTE      return_state
      00011A76H   SYMBOL    XDATA    ---       temp
      00011BC6H   SYMBOL    XDATA    INT       x
      00011BC8H   SYMBOL    XDATA    INT       y
      00011BCAH   SYMBOL    XDATA    WORD      width
      00011BCCH   SYMBOL    XDATA    WORD      height
      00011BCEH   SYMBOL    XDATA    BYTE      return_state
      00010DEEH   SYMBOL    XDATA    BYTE      image_num
      0001116CH   SYMBOL    XDATA    WORD      image_id
      0001116EH   SYMBOL    XDATA    ---       image
      00011172H   SYMBOL    XDATA    WORD      width
      00011174H   SYMBOL    XDATA    WORD      height
      00011176H   SYMBOL    XDATA    INT       image_type
      00011178H   SYMBOL    XDATA    BYTE      threshold
      00011179H   SYMBOL    XDATA    BYTE      return_state
      0001117AH   SYMBOL    XDATA    WORD      send_length
      0001117CH   SYMBOL    XDATA    DWORD     image_size
      00011180H   SYMBOL    XDATA    ---       image_data
      00011184H   SYMBOL    XDATA    ---       temp
L251 LINKER/LOCATER V4.66.93.0                                                        03/30/2026  16:35:38  PAGE 122


      0001136AH   SYMBOL    XDATA    WORD      image_id
      0001136CH   SYMBOL    XDATA    BYTE      line_id
      0001136DH   SYMBOL    XDATA    ---       line_data
      00011371H   SYMBOL    XDATA    WORD      line_length
      00011373H   SYMBOL    XDATA    INT       data_type
      00011375H   SYMBOL    XDATA    WORD      color
      00011377H   SYMBOL    XDATA    BYTE      return_state
      00011378H   SYMBOL    XDATA    ---       temp
      000111E1H   SYMBOL    XDATA    WORD      image_id
      000111E3H   SYMBOL    XDATA    BYTE      rectangle_id
      000111E4H   SYMBOL    XDATA    INT       x
      000111E6H   SYMBOL    XDATA    INT       y
      000111E8H   SYMBOL    XDATA    WORD      rectangle_width
      000111EAH   SYMBOL    XDATA    WORD      rectangle_height
      000111ECH   SYMBOL    XDATA    WORD      color
      000111EEH   SYMBOL    XDATA    BYTE      return_state
      000111EFH   SYMBOL    XDATA    ---       temp
      00011BCFH   SYMBOL    XDATA    INT       x
      00011BD1H   SYMBOL    XDATA    INT       y
      00011BD3H   SYMBOL    XDATA    WORD      width
      00011BD5H   SYMBOL    XDATA    WORD      height
      00011BD7H   SYMBOL    XDATA    BYTE      return_state
      00010DEFH   SYMBOL    XDATA    BYTE      container_num
      0001155EH   SYMBOL    XDATA    WORD      container_id
      00011560H   SYMBOL    XDATA    WORD      border_width
      00011562H   SYMBOL    XDATA    WORD      radius
      00011564H   SYMBOL    XDATA    BYTE      return_state
      00011565H   SYMBOL    XDATA    ---       temp
      00011BD8H   SYMBOL    XDATA    ---       str
      00011BDCH   SYMBOL    XDATA    INT       title_position
      00011BDEH   SYMBOL    XDATA    BYTE      title_size
      00011BDFH   SYMBOL    XDATA    WORD      page_id

      ---         MODULE    ---      ---       zf_device_tft180
      00011CACH   PUBLIC    XDATA    WORD      tft180_pencolor
      00011CAEH   PUBLIC    XDATA    WORD      tft180_bgcolor
      00011CB0H   PUBLIC    XDATA    INT       tft180_display_dir
      00011CB2H   PUBLIC    XDATA    BYTE      tft180_x_max
      00011CB3H   PUBLIC    XDATA    BYTE      tft180_y_max
      0001100AH   PUBLIC    XDATA    BYTE      ?tft180_show_float?BYTE
      00011243H   PUBLIC    XDATA    BYTE      ?tft180_show_wave?BYTE
      000000D0H   SFRSYM    DATA     BYTE      PSW
      0000009DH   SFRSYM    DATA     BYTE      IRCBAND
      00000097H   SFRSYM    DATA     BYTE      AUXR2
      000000EFH   SFRSYM    DATA     BYTE      AUXINTIF
      000000FDH   SFRSYM    DATA     BYTE      S4CON
      000000ACH   SFRSYM    DATA     BYTE      S3CON
      0000009AH   SFRSYM    DATA     BYTE      S2CON
      000000B7H   SFRSYM    DATA     BYTE      IPH
      000000CDH   SFRSYM    DATA     BYTE      SPSTAT
      000000DDH   SFRSYM    DATA     BYTE      T4T3M
      000000C1H   SFRSYM    DATA     BYTE      WDT_CONTR
      000000DFH   SFRSYM    DATA     BYTE      IP3
      000000F4H   SFRSYM    DATA     BYTE      USBCON
      000000B5H   SFRSYM    DATA     BYTE      IP2
      000000FFH   SFRSYM    DATA     BYTE      RSTCFG
      000000C7H   SFRSYM    DATA     BYTE      IAP_CONTR
      000000F9H   SFRSYM    DATA     BYTE      LINICR
      0000008EH   SFRSYM    DATA     BYTE      AUXR
      000000AFH   SFRSYM    DATA     BYTE      IE2
      00000088H   SFRSYM    DATA     BYTE      TCON
      00000089H   SFRSYM    DATA     BYTE      TMOD
      00000098H   SFRSYM    DATA     BYTE      SCON
      000000A0H.2 SFRSYM    DATA     BIT       P22
      000000A0H.1 SFRSYM    DATA     BIT       P21
L251 LINKER/LOCATER V4.66.93.0                                                        03/30/2026  16:35:38  PAGE 123


      000000A0H.0 SFRSYM    DATA     BIT       P20
      000000F1H   SFRSYM    DATA     BYTE      CANICR
      00000087H   SFRSYM    DATA     BYTE      PCON
      000000BCH   SFRSYM    DATA     BYTE      ADC_CONTR
      000000E7H   SFRSYM    DATA     BYTE      CMPCR2
      000000E6H   SFRSYM    DATA     BYTE      CMPCR1
      000000DEH   SFRSYM    DATA     BYTE      ADCCFG
      000000B8H   SFRSYM    DATA     BYTE      IP
      0000008FH   SFRSYM    DATA     BYTE      INTCLKO
      000000EEH   SFRSYM    DATA     BYTE      IP3H
      000000B6H   SFRSYM    DATA     BYTE      IP2H
      000000A8H   SFRSYM    DATA     BYTE      IE
      000000BBH   SFRSYM    DATA     BYTE      P_SW3
      000000BAH   SFRSYM    DATA     BYTE      P_SW2
      000000A2H   SFRSYM    DATA     BYTE      P_SW1
      000000CEH   SFRSYM    DATA     BYTE      SPCTL
      000000F8H   SFRSYM    DATA     BYTE      P7
      000000E8H   SFRSYM    DATA     BYTE      P6
      000000C8H   SFRSYM    DATA     BYTE      P5
      000000C0H   SFRSYM    DATA     BYTE      P4
      000000B0H   SFRSYM    DATA     BYTE      P3
      000000A0H   SFRSYM    DATA     BYTE      P2
      00000090H   SFRSYM    DATA     BYTE      P1
      00000080H   SFRSYM    DATA     BYTE      P0
      00011F73H   SYMBOL    XDATA    BYTE      dat
      00011CB4H   SYMBOL    XDATA    WORD      x1
      00011CB6H   SYMBOL    XDATA    WORD      y1
      00011CB8H   SYMBOL    XDATA    WORD      x2
      00011CBAH   SYMBOL    XDATA    WORD      y2
      00011DD8H   SYMBOL    XDATA    WORD      color
      00011DDAH   SYMBOL    XDATA    DWORD     i
      00011F59H   SYMBOL    XDATA    INT       dir
      00011ED4H   SYMBOL    XDATA    WORD      pen
      00011ED6H   SYMBOL    XDATA    WORD      bgcolor
      00011DDEH   SYMBOL    XDATA    WORD      x
      00011DE0H   SYMBOL    XDATA    WORD      y
      00011DE2H   SYMBOL    XDATA    WORD      color
      00011CBCH   SYMBOL    XDATA    WORD      x
      00011CBEH   SYMBOL    XDATA    WORD      y
      00011CC0H   SYMBOL    XDATA    CHAR      dat
      00011CC1H   SYMBOL    XDATA    BYTE      i
      00011CC2H   SYMBOL    XDATA    BYTE      j
      00011CC3H   SYMBOL    XDATA    BYTE      temp
      00011AECH   SYMBOL    XDATA    WORD      x
      00011AEEH   SYMBOL    XDATA    WORD      y
      00011AF0H   SYMBOL    XDATA    ---       dat
      00011AF4H   SYMBOL    XDATA    WORD      j
      00011BE1H   SYMBOL    XDATA    WORD      x
      00011BE3H   SYMBOL    XDATA    WORD      y
      00011BE5H   SYMBOL    XDATA    CHAR      dat
      00011BE6H   SYMBOL    XDATA    ---       a
      00011BE9H   SYMBOL    XDATA    BYTE      i
      00011BEAH   SYMBOL    XDATA    WORD      x
      00011BECH   SYMBOL    XDATA    WORD      y
      00011BEEH   SYMBOL    XDATA    BYTE      dat
      00011BEFH   SYMBOL    XDATA    ---       a
      00011BF2H   SYMBOL    XDATA    BYTE      i
      000119DEH   SYMBOL    XDATA    WORD      x
      000119E0H   SYMBOL    XDATA    WORD      y
      000119E2H   SYMBOL    XDATA    INT       dat
      000119E4H   SYMBOL    XDATA    ---       a
      000119E9H   SYMBOL    XDATA    BYTE      i
      000119EAH   SYMBOL    XDATA    WORD      x
      000119ECH   SYMBOL    XDATA    WORD      y
      000119EEH   SYMBOL    XDATA    WORD      dat
L251 LINKER/LOCATER V4.66.93.0                                                        03/30/2026  16:35:38  PAGE 124


      000119F0H   SYMBOL    XDATA    ---       a
      000119F5H   SYMBOL    XDATA    BYTE      i
      000110C1H   SYMBOL    XDATA    WORD      x
      000110C3H   SYMBOL    XDATA    WORD      y
      000110C5H   SYMBOL    XDATA    LONG      dat
      000110C9H   SYMBOL    XDATA    BYTE      num
      000110CAH   SYMBOL    XDATA    ---       buff
      000110ECH   SYMBOL    XDATA    BYTE      length
      0001100AH   SYMBOL    XDATA    WORD      x
      0001100CH   SYMBOL    XDATA    WORD      y
      0001100EH   SYMBOL    XDATA    FLOAT     dat
      00011012H   SYMBOL    XDATA    BYTE      num
      00011013H   SYMBOL    XDATA    BYTE      pointnum
      00011014H   SYMBOL    XDATA    BYTE      length
      00011015H   SYMBOL    XDATA    ---       buff
      00011037H   SYMBOL    XDATA    CHAR      start
      00011038H   SYMBOL    XDATA    CHAR      end
      00011039H   SYMBOL    XDATA    CHAR      point
      00011243H   SYMBOL    XDATA    WORD      x
      00011245H   SYMBOL    XDATA    WORD      y
      00011247H   SYMBOL    XDATA    ---       p
      0001124BH   SYMBOL    XDATA    WORD      width
      0001124DH   SYMBOL    XDATA    WORD      value_max
      0001124FH   SYMBOL    XDATA    WORD      dis_width
      00011251H   SYMBOL    XDATA    WORD      dis_value_max
      00011253H   SYMBOL    XDATA    DWORD     i
      00011257H   SYMBOL    XDATA    DWORD     j
      0001125BH   SYMBOL    XDATA    DWORD     width_index
      0001125FH   SYMBOL    XDATA    DWORD     value_max_index

      ---         MODULE    ---      ---       zf_device_tsl1401
      0001020AH   PUBLIC    XDATA    BYTE      tsl1401_finish_flag
      0001020BH   PUBLIC    XDATA    ---       tsl1401_data
      000000D0H   SFRSYM    DATA     BYTE      PSW
      0000009DH   SFRSYM    DATA     BYTE      IRCBAND
      00000097H   SFRSYM    DATA     BYTE      AUXR2
      000000EFH   SFRSYM    DATA     BYTE      AUXINTIF
      000000FDH   SFRSYM    DATA     BYTE      S4CON
      000000ACH   SFRSYM    DATA     BYTE      S3CON
      0000009AH   SFRSYM    DATA     BYTE      S2CON
      000000B7H   SFRSYM    DATA     BYTE      IPH
      000000CDH   SFRSYM    DATA     BYTE      SPSTAT
      000000DDH   SFRSYM    DATA     BYTE      T4T3M
      000000C1H   SFRSYM    DATA     BYTE      WDT_CONTR
      000000DFH   SFRSYM    DATA     BYTE      IP3
      000000F4H   SFRSYM    DATA     BYTE      USBCON
      000000B5H   SFRSYM    DATA     BYTE      IP2
      000000FFH   SFRSYM    DATA     BYTE      RSTCFG
      000000C7H   SFRSYM    DATA     BYTE      IAP_CONTR
      000000F9H   SFRSYM    DATA     BYTE      LINICR
      0000008EH   SFRSYM    DATA     BYTE      AUXR
      000000AFH   SFRSYM    DATA     BYTE      IE2
      00000088H   SFRSYM    DATA     BYTE      TCON
      00000089H   SFRSYM    DATA     BYTE      TMOD
      00000098H   SFRSYM    DATA     BYTE      SCON
      000000F1H   SFRSYM    DATA     BYTE      CANICR
      00000087H   SFRSYM    DATA     BYTE      PCON
      000000BCH   SFRSYM    DATA     BYTE      ADC_CONTR
      000000E7H   SFRSYM    DATA     BYTE      CMPCR2
      000000E6H   SFRSYM    DATA     BYTE      CMPCR1
      000000DEH   SFRSYM    DATA     BYTE      ADCCFG
      000000B8H   SFRSYM    DATA     BYTE      IP
      0000008FH   SFRSYM    DATA     BYTE      INTCLKO
      000000EEH   SFRSYM    DATA     BYTE      IP3H
      000000B6H   SFRSYM    DATA     BYTE      IP2H
L251 LINKER/LOCATER V4.66.93.0                                                        03/30/2026  16:35:38  PAGE 125


      000000A8H   SFRSYM    DATA     BYTE      IE
      000000BBH   SFRSYM    DATA     BYTE      P_SW3
      000000BAH   SFRSYM    DATA     BYTE      P_SW2
      000000A2H   SFRSYM    DATA     BYTE      P_SW1
      000000CEH   SFRSYM    DATA     BYTE      SPCTL
      000000F8H   SFRSYM    DATA     BYTE      P7
      000000E8H   SFRSYM    DATA     BYTE      P6
      000000C8H   SFRSYM    DATA     BYTE      P5
      000000C0H   SFRSYM    DATA     BYTE      P4
      000000B0H   SFRSYM    DATA     BYTE      P3
      000000A0H   SFRSYM    DATA     BYTE      P2
      00000090H   SFRSYM    DATA     BYTE      P1
      00000080H   SFRSYM    DATA     BYTE      P0
      0001040BH   SYMBOL    XDATA    BYTE      tsl1401_init_state
      00011F74H   SYMBOL    XDATA    BYTE      i
      00011ED8H   SYMBOL    XDATA    INT       uart_n
      00011EDAH   SYMBOL    XDATA    BYTE      index
      00011EDBH   SYMBOL    XDATA    BYTE      i

      ---         MODULE    ---      ---       zf_device_type
      00FFA37FH   PUBLIC    CODE     ---       set_wireless_type
      00011CC4H   PUBLIC    XDATA    ---       tof_module_exti_handler
      00011CC6H   PUBLIC    XDATA    INT       wireless_type
      00011CC8H   PUBLIC    XDATA    INT       tof_type
      00011CCAH   PUBLIC    XDATA    INT       gps_type
      000000D0H   SFRSYM    DATA     BYTE      PSW
      0000009DH   SFRSYM    DATA     BYTE      IRCBAND
      00000097H   SFRSYM    DATA     BYTE      AUXR2
      000000EFH   SFRSYM    DATA     BYTE      AUXINTIF
      000000FDH   SFRSYM    DATA     BYTE      S4CON
      000000ACH   SFRSYM    DATA     BYTE      S3CON
      0000009AH   SFRSYM    DATA     BYTE      S2CON
      000000B7H   SFRSYM    DATA     BYTE      IPH
      000000CDH   SFRSYM    DATA     BYTE      SPSTAT
      000000DDH   SFRSYM    DATA     BYTE      T4T3M
      000000C1H   SFRSYM    DATA     BYTE      WDT_CONTR
      000000DFH   SFRSYM    DATA     BYTE      IP3
      000000F4H   SFRSYM    DATA     BYTE      USBCON
      000000B5H   SFRSYM    DATA     BYTE      IP2
      000000FFH   SFRSYM    DATA     BYTE      RSTCFG
      000000C7H   SFRSYM    DATA     BYTE      IAP_CONTR
      000000F9H   SFRSYM    DATA     BYTE      LINICR
      0000008EH   SFRSYM    DATA     BYTE      AUXR
      000000AFH   SFRSYM    DATA     BYTE      IE2
      00000088H   SFRSYM    DATA     BYTE      TCON
      00000089H   SFRSYM    DATA     BYTE      TMOD
      00000098H   SFRSYM    DATA     BYTE      SCON
      000000F1H   SFRSYM    DATA     BYTE      CANICR
      00000087H   SFRSYM    DATA     BYTE      PCON
      000000BCH   SFRSYM    DATA     BYTE      ADC_CONTR
      000000E7H   SFRSYM    DATA     BYTE      CMPCR2
      000000E6H   SFRSYM    DATA     BYTE      CMPCR1
      000000DEH   SFRSYM    DATA     BYTE      ADCCFG
      000000B8H   SFRSYM    DATA     BYTE      IP
      0000008FH   SFRSYM    DATA     BYTE      INTCLKO
      000000EEH   SFRSYM    DATA     BYTE      IP3H
      000000B6H   SFRSYM    DATA     BYTE      IP2H
      000000A8H   SFRSYM    DATA     BYTE      IE
      000000BBH   SFRSYM    DATA     BYTE      P_SW3
      000000BAH   SFRSYM    DATA     BYTE      P_SW2
      000000A2H   SFRSYM    DATA     BYTE      P_SW1
      000000CEH   SFRSYM    DATA     BYTE      SPCTL
      000000F8H   SFRSYM    DATA     BYTE      P7
      000000E8H   SFRSYM    DATA     BYTE      P6
      000000C8H   SFRSYM    DATA     BYTE      P5
L251 LINKER/LOCATER V4.66.93.0                                                        03/30/2026  16:35:38  PAGE 126


      000000C0H   SFRSYM    DATA     BYTE      P4
      000000B0H   SFRSYM    DATA     BYTE      P3
      000000A0H   SFRSYM    DATA     BYTE      P2
      00000090H   SFRSYM    DATA     BYTE      P1
      00000080H   SFRSYM    DATA     BYTE      P0

      00FFA37FH   BLOCK     CODE     ---       LVL=0
      00011CCCH   SYMBOL    XDATA    INT       type_set
      00011CCEH   SYMBOL    XDATA    INT       uartx
      00011CD0H   SYMBOL    XDATA    ---       uart_callback
      00FFA37FH   LINE      CODE     ---       #52
      00FFA395H   LINE      CODE     ---       #54
      00FFA3A1H   LINE      CODE     ---       #56
      00FFA3ADH   LINE      CODE     ---       #58
      00FFA3BDH   LINE      CODE     ---       #59
      00FFA3BFH   LINE      CODE     ---       #60
      00FFA3CDH   LINE      CODE     ---       #62
      00FFA3DDH   LINE      CODE     ---       #63
      00FFA3DFH   LINE      CODE     ---       #64
      00FFA3EDH   LINE      CODE     ---       #66
      00FFA3FDH   LINE      CODE     ---       #67
      00FFA3FFH   LINE      CODE     ---       #68
      00FFA40DH   LINE      CODE     ---       #70
      00FFA41DH   LINE      CODE     ---       #71
      ---         BLOCKEND  ---      ---       LVL=0
      00011DE4H   SYMBOL    XDATA    INT       type_set
      00011DE6H   SYMBOL    XDATA    ---       exti_callback
      00011CD4H   SYMBOL    XDATA    INT       type_set
      00011CD6H   SYMBOL    XDATA    INT       uartx
      00011CD8H   SYMBOL    XDATA    ---       uart_callback

      ---         MODULE    ---      ---       zf_device_wireless_uart
      00FF923DH   PUBLIC    CODE     ---       wireless_uart_send_buffer
      00FFB4F7H   PUBLIC    CODE     ---       wireless_uart_callback
      00FFA8E2H   PUBLIC    CODE     ---       wireless_uart_init
      00FFA6DBH   PUBLIC    CODE     ---       wireless_uart_read_buffer
      000000D0H   SFRSYM    DATA     BYTE      PSW
      0000009DH   SFRSYM    DATA     BYTE      IRCBAND
      00000097H   SFRSYM    DATA     BYTE      AUXR2
      000000EFH   SFRSYM    DATA     BYTE      AUXINTIF
      000000FDH   SFRSYM    DATA     BYTE      S4CON
      000000ACH   SFRSYM    DATA     BYTE      S3CON
      0000009AH   SFRSYM    DATA     BYTE      S2CON
      000000B7H   SFRSYM    DATA     BYTE      IPH
      000000CDH   SFRSYM    DATA     BYTE      SPSTAT
      000000DDH   SFRSYM    DATA     BYTE      T4T3M
      000000C1H   SFRSYM    DATA     BYTE      WDT_CONTR
      000000DFH   SFRSYM    DATA     BYTE      IP3
      000000F4H   SFRSYM    DATA     BYTE      USBCON
      000000B5H   SFRSYM    DATA     BYTE      IP2
      000000FFH   SFRSYM    DATA     BYTE      RSTCFG
      000000C7H   SFRSYM    DATA     BYTE      IAP_CONTR
      000000F9H   SFRSYM    DATA     BYTE      LINICR
      0000008EH   SFRSYM    DATA     BYTE      AUXR
      000000AFH   SFRSYM    DATA     BYTE      IE2
      00000088H   SFRSYM    DATA     BYTE      TCON
      00000089H   SFRSYM    DATA     BYTE      TMOD
      00000098H   SFRSYM    DATA     BYTE      SCON
      000000F1H   SFRSYM    DATA     BYTE      CANICR
      00000087H   SFRSYM    DATA     BYTE      PCON
      000000BCH   SFRSYM    DATA     BYTE      ADC_CONTR
      000000E7H   SFRSYM    DATA     BYTE      CMPCR2
      000000E6H   SFRSYM    DATA     BYTE      CMPCR1
      000000DEH   SFRSYM    DATA     BYTE      ADCCFG
      000000B8H   SFRSYM    DATA     BYTE      IP
L251 LINKER/LOCATER V4.66.93.0                                                        03/30/2026  16:35:38  PAGE 127


      0000008FH   SFRSYM    DATA     BYTE      INTCLKO
      000000EEH   SFRSYM    DATA     BYTE      IP3H
      000000B6H   SFRSYM    DATA     BYTE      IP2H
      000000A8H   SFRSYM    DATA     BYTE      IE
      000000BBH   SFRSYM    DATA     BYTE      P_SW3
      000000BAH   SFRSYM    DATA     BYTE      P_SW2
      000000A2H   SFRSYM    DATA     BYTE      P_SW1
      000000CEH   SFRSYM    DATA     BYTE      SPCTL
      000000F8H   SFRSYM    DATA     BYTE      P7
      000000E8H   SFRSYM    DATA     BYTE      P6
      000000C8H   SFRSYM    DATA     BYTE      P5
      000000C0H   SFRSYM    DATA     BYTE      P4
      000000B0H   SFRSYM    DATA     BYTE      P3
      000000A0H   SFRSYM    DATA     BYTE      P2
      00000090H   SFRSYM    DATA     BYTE      P1
      00000080H   SFRSYM    DATA     BYTE      P0
      00010CF9H   SYMBOL    XDATA    ---       wireless_uart_fifo
      00010D10H   SYMBOL    XDATA    ---       wireless_uart_buffer
      00011F19H   SYMBOL    XDATA    BYTE      dat
      00011F1AH   SYMBOL    XDATA    WORD      time_cnt

      00FF923DH   BLOCK     CODE     ---       LVL=0
      000119F6H   SYMBOL    XDATA    ---       buff
      000119FAH   SYMBOL    XDATA    DWORD     len
      00FF9251H   BLOCK     CODE     NEAR LAB  LVL=1
      000119FEH   SYMBOL    XDATA    WORD      time_cnt
      00011A00H   SYMBOL    XDATA    WORD      send_len
      ---         BLOCKEND  ---      ---       LVL=1
      00FF923DH   LINE      CODE     ---       #103
      00FF9251H   LINE      CODE     ---       #104
      00FF9251H   LINE      CODE     ---       #108
      00FF9259H   LINE      CODE     ---       #109
      00FF9261H   LINE      CODE     ---       #110
      00FF9283H   LINE      CODE     ---       #112
      00FF9286H   LINE      CODE     ---       #114
      00FF9292H   LINE      CODE     ---       #116
      00FF92B8H   LINE      CODE     ---       #117
      00FF92CFH   LINE      CODE     ---       #118
      00FF92E8H   LINE      CODE     ---       #119
      00FF9303H   LINE      CODE     ---       #120
      00FF930BH   LINE      CODE     ---       #121
      00FF930DH   LINE      CODE     ---       #124
      00FF9314H   LINE      CODE     ---       #125
      00FF9323H   LINE      CODE     ---       #126
      00FF9323H   LINE      CODE     ---       #127
      00FF9342H   LINE      CODE     ---       #129
      00FF934CH   LINE      CODE     ---       #130
      ---         BLOCKEND  ---      ---       LVL=0
      00011CDCH   SYMBOL    XDATA    ---       str
      00011CE0H   SYMBOL    XDATA    DWORD     len

      00FFA6DBH   BLOCK     CODE     ---       LVL=0
      00011A02H   SYMBOL    XDATA    ---       buff
      00011A06H   SYMBOL    XDATA    DWORD     len
      00FFA6EFH   BLOCK     CODE     NEAR LAB  LVL=1
      00011A0AH   SYMBOL    XDATA    DWORD     data_len
      ---         BLOCKEND  ---      ---       LVL=1
      00FFA6DBH   LINE      CODE     ---       #156
      00FFA6EFH   LINE      CODE     ---       #157
      00FFA6EFH   LINE      CODE     ---       #158
      00FFA703H   LINE      CODE     ---       #159
      00FFA725H   LINE      CODE     ---       #160
      00FFA754H   LINE      CODE     ---       #161
      00FFA75EH   LINE      CODE     ---       #162
      ---         BLOCKEND  ---      ---       LVL=0
L251 LINKER/LOCATER V4.66.93.0                                                        03/30/2026  16:35:38  PAGE 128



      00FFB4F7H   BLOCK     CODE     ---       LVL=0
      00011F75H   SYMBOL    XDATA    BYTE      uart_dat
      00FFB4F7H   LINE      CODE     ---       #173
      00FFB4FBH   LINE      CODE     ---       #176
      00FFB51CH   LINE      CODE     ---       #187
      ---         BLOCKEND  ---      ---       LVL=0

      00FFA8E2H   BLOCK     CODE     ---       LVL=0
      00011F76H   SYMBOL    XDATA    BYTE      return_state
      00FFA8E2H   LINE      CODE     ---       #196
      00FFA8E2H   LINE      CODE     ---       #197
      00FFA8E2H   LINE      CODE     ---       #198
      00FFA8E7H   LINE      CODE     ---       #199
      00FFA8FAH   LINE      CODE     ---       #201
      00FFA927H   LINE      CODE     ---       #202
      00FFA938H   LINE      CODE     ---       #205
      00FFA955H   LINE      CODE     ---       #206
      00FFA95EH   LINE      CODE     ---       #259
      00FFA962H   LINE      CODE     ---       #260
      ---         BLOCKEND  ---      ---       LVL=0

      ---         MODULE    ---      ---       imu
      00FF8202H   PUBLIC    CODE     ---       IMU_Handle_360
      00FF912AH   PUBLIC    CODE     ---       IMU_Handle_180
      00FF5B79H   PUBLIC    CODE     ---       First_complement_Init
      00FFB3E2H   PUBLIC    CODE     ---       IMU_Handle_0
      00FF976BH   PUBLIC    CODE     ---       KalmanCreate
      00FF7279H   PUBLIC    CODE     ---       KalmanFilter
      00FF8DD6H   PUBLIC    CODE     ---       IMU_gyro_Offset_Init
      00FF019EH   PUBLIC    CODE     ---       gyro_proc
      00FFAF13H   PUBLIC    CODE     ---       gyro_init
      00FFB419H   PUBLIC    CODE     ---       My_abs
      00FF888AH   PUBLIC    CODE     ---       IMU_GetValues
      00FF9BE3H   PUBLIC    CODE     ---       IMU_YAW_integral
      00010711H   PUBLIC    XDATA    FLOAT     Pitch_Min
      00010715H   PUBLIC    XDATA    FLOAT     Pitch_Max
      00010719H   PUBLIC    XDATA    ---       Kalman1
      00010749H   PUBLIC    XDATA    ---       Kalman2
      00010779H   PUBLIC    XDATA    CHAR      Round
      0001077AH   PUBLIC    XDATA    FLOAT     gyro_Offset_flag
      0001077EH   PUBLIC    XDATA    FLOAT     pitch
      00010782H   PUBLIC    XDATA    FLOAT     Roll_Min
      00010786H   PUBLIC    XDATA    ---       Zero
      000107B6H   PUBLIC    XDATA    FLOAT     Roll_Max
      000107BAH   PUBLIC    XDATA    FLOAT     roll
      000107BEH   PUBLIC    XDATA    FLOAT     gyrox
      000107C2H   PUBLIC    XDATA    FLOAT     gyroy
      000107C6H   PUBLIC    XDATA    FLOAT     gyroz
      000107CAH   PUBLIC    XDATA    ---       first_complement
      000107DEH   PUBLIC    XDATA    ---       IMU_Data
      000107F6H   PUBLIC    XDATA    FLOAT     Daty_X
      000107FAH   PUBLIC    XDATA    FLOAT     Daty_Y
      000107FEH   PUBLIC    XDATA    FLOAT     Daty_Z
      00010802H   PUBLIC    XDATA    FLOAT     yaw_limit_360
      00010806H   PUBLIC    XDATA    FLOAT     Max_Delta_Pitch
      0001080AH   PUBLIC    XDATA    FLOAT     yaw
      0001080EH   PUBLIC    XDATA    FLOAT     yaw_total
      00010812H   PUBLIC    XDATA    ---       Gyro_Offset
      0001081EH   PUBLIC    XDATA    FLOAT     Max_Delta_Roll
      00011A0EH   PUBLIC    XDATA    BYTE      ?KalmanCreate?BYTE
      000000D0H   SFRSYM    DATA     BYTE      PSW
      0000009DH   SFRSYM    DATA     BYTE      IRCBAND
      00000097H   SFRSYM    DATA     BYTE      AUXR2
      000000EFH   SFRSYM    DATA     BYTE      AUXINTIF
L251 LINKER/LOCATER V4.66.93.0                                                        03/30/2026  16:35:38  PAGE 129


      000000FDH   SFRSYM    DATA     BYTE      S4CON
      000000ACH   SFRSYM    DATA     BYTE      S3CON
      0000009AH   SFRSYM    DATA     BYTE      S2CON
      000000B7H   SFRSYM    DATA     BYTE      IPH
      000000CDH   SFRSYM    DATA     BYTE      SPSTAT
      000000DDH   SFRSYM    DATA     BYTE      T4T3M
      000000C1H   SFRSYM    DATA     BYTE      WDT_CONTR
      000000DFH   SFRSYM    DATA     BYTE      IP3
      000000F4H   SFRSYM    DATA     BYTE      USBCON
      000000B5H   SFRSYM    DATA     BYTE      IP2
      000000FFH   SFRSYM    DATA     BYTE      RSTCFG
      000000C7H   SFRSYM    DATA     BYTE      IAP_CONTR
      000000F9H   SFRSYM    DATA     BYTE      LINICR
      0000008EH   SFRSYM    DATA     BYTE      AUXR
      000000AFH   SFRSYM    DATA     BYTE      IE2
      00000088H   SFRSYM    DATA     BYTE      TCON
      00000089H   SFRSYM    DATA     BYTE      TMOD
      00000098H   SFRSYM    DATA     BYTE      SCON
      000000F1H   SFRSYM    DATA     BYTE      CANICR
      00000087H   SFRSYM    DATA     BYTE      PCON
      000000BCH   SFRSYM    DATA     BYTE      ADC_CONTR
      000000E7H   SFRSYM    DATA     BYTE      CMPCR2
      000000E6H   SFRSYM    DATA     BYTE      CMPCR1
      000000DEH   SFRSYM    DATA     BYTE      ADCCFG
      000000B8H   SFRSYM    DATA     BYTE      IP
      0000008FH   SFRSYM    DATA     BYTE      INTCLKO
      000000EEH   SFRSYM    DATA     BYTE      IP3H
      000000B6H   SFRSYM    DATA     BYTE      IP2H
      000000A8H   SFRSYM    DATA     BYTE      IE
      000000BBH   SFRSYM    DATA     BYTE      P_SW3
      000000BAH   SFRSYM    DATA     BYTE      P_SW2
      000000A2H   SFRSYM    DATA     BYTE      P_SW1
      000000CEH   SFRSYM    DATA     BYTE      SPCTL
      000000F8H   SFRSYM    DATA     BYTE      P7
      000000E8H   SFRSYM    DATA     BYTE      P6
      000000C8H   SFRSYM    DATA     BYTE      P5
      000000C0H   SFRSYM    DATA     BYTE      P4
      000000B0H   SFRSYM    DATA     BYTE      P3
      000000A0H   SFRSYM    DATA     BYTE      P2
      00000090H   SFRSYM    DATA     BYTE      P1
      00000080H   SFRSYM    DATA     BYTE      P0

      00FF5B79H   BLOCK     CODE     ---       LVL=0
      00FF5B7BH   BLOCK     CODE     NEAR LAB  LVL=1
      00011EDCH   SYMBOL    XDATA    FLOAT     k
      00010822H   SYMBOL    XDATA    FLOAT     Pitch_Temp
      00010826H   SYMBOL    XDATA    FLOAT     Roll_Temp
      0001082AH   SYMBOL    XDATA    FLOAT     Delta_Roll
      0001082EH   SYMBOL    XDATA    CHAR      Pitch_Flag
      0001082FH   SYMBOL    XDATA    CHAR      Roll_Flag
      ---         BLOCKEND  ---      ---       LVL=1
      00FF5B79H   LINE      CODE     ---       #30
      00FF5B7BH   LINE      CODE     ---       #31
      00FF5B7BH   LINE      CODE     ---       #32
      00FF5B8DH   LINE      CODE     ---       #39
      00FF5BC5H   LINE      CODE     ---       #40
      00FF5BFDH   LINE      CODE     ---       #42
      00FF5C2BH   LINE      CODE     ---       #43
      00FF5C59H   LINE      CODE     ---       #45
      00FF5CBFH   LINE      CODE     ---       #46
      00FF5D25H   LINE      CODE     ---       #48
      00FF5D53H   LINE      CODE     ---       #50
      00FF5D74H   LINE      CODE     ---       #51
      00FF5D74H   LINE      CODE     ---       #53
      00FF5D93H   LINE      CODE     ---       #54
L251 LINKER/LOCATER V4.66.93.0                                                        03/30/2026  16:35:38  PAGE 130


      00FF5DB2H   LINE      CODE     ---       #57
      00FF5DBBH   LINE      CODE     ---       #59
      00FF5DCFH   LINE      CODE     ---       #60
      00FF5DE3H   LINE      CODE     ---       #61
      00FF5DE9H   LINE      CODE     ---       #62
      00FF5DE9H   LINE      CODE     ---       #64
      00FF5DF2H   LINE      CODE     ---       #66
      00FF5E06H   LINE      CODE     ---       #67
      00FF5E1AH   LINE      CODE     ---       #68
      00FF5E20H   LINE      CODE     ---       #69
      00FF5E20H   LINE      CODE     ---       #72
      00FF5E43H   LINE      CODE     ---       #74
      00FF5E5AH   LINE      CODE     ---       #75
      00FF5E5CH   LINE      CODE     ---       #76
      00FF5E7FH   LINE      CODE     ---       #78
      00FF5E96H   LINE      CODE     ---       #79
      00FF5E96H   LINE      CODE     ---       #82
      00FF5EB9H   LINE      CODE     ---       #84
      00FF5ED0H   LINE      CODE     ---       #85
      00FF5ED2H   LINE      CODE     ---       #86
      00FF5EF5H   LINE      CODE     ---       #88
      00FF5F0CH   LINE      CODE     ---       #89
      00FF5F0CH   LINE      CODE     ---       #90
      00FF5F2DH   LINE      CODE     ---       #91
      00FF5F4EH   LINE      CODE     ---       #92
      ---         BLOCKEND  ---      ---       LVL=0

      00FF8DD6H   BLOCK     CODE     ---       LVL=0
      00011F5BH   SYMBOL    XDATA    WORD      i
      00FF8DD6H   LINE      CODE     ---       #97
      00FF8DD6H   LINE      CODE     ---       #98
      00FF8DD6H   LINE      CODE     ---       #99
      00FF8DDEH   LINE      CODE     ---       #100
      00FF8DEAH   LINE      CODE     ---       #101
      00FF8DF6H   LINE      CODE     ---       #102
      00FF8E02H   LINE      CODE     ---       #103
      00FF8E0CH   LINE      CODE     ---       #105
      00FF8E2DH   LINE      CODE     ---       #106
      00FF8E4EH   LINE      CODE     ---       #107
      00FF8E6FH   LINE      CODE     ---       #108
      00FF8E76H   LINE      CODE     ---       #109
      00FF8E96H   LINE      CODE     ---       #111
      00FF8EB0H   LINE      CODE     ---       #112
      00FF8ECAH   LINE      CODE     ---       #113
      00FF8EE4H   LINE      CODE     ---       #115
      00FF8EF4H   LINE      CODE     ---       #116
      ---         BLOCKEND  ---      ---       LVL=0

      00FF888AH   BLOCK     CODE     ---       LVL=0
      00FF888AH   LINE      CODE     ---       #118
      00FF888AH   LINE      CODE     ---       #120
      00FF888DH   LINE      CODE     ---       #121
      00FF8890H   LINE      CODE     ---       #123
      00FF88D1H   LINE      CODE     ---       #124
      00FF8912H   LINE      CODE     ---       #125
      00FF8953H   LINE      CODE     ---       #127
      00FF8991H   LINE      CODE     ---       #128
      00FF89CFH   LINE      CODE     ---       #129
      00FF8A0DH   LINE      CODE     ---       #130
      ---         BLOCKEND  ---      ---       LVL=0

      00FF9BE3H   BLOCK     CODE     ---       LVL=0
      00FF9BE3H   LINE      CODE     ---       #136
      00FF9BE3H   LINE      CODE     ---       #138
      00FF9C11H   LINE      CODE     ---       #140
L251 LINKER/LOCATER V4.66.93.0                                                        03/30/2026  16:35:38  PAGE 131


      00FF9C22H   LINE      CODE     ---       #141
      00FF9C24H   LINE      CODE     ---       #144
      00FF9C27H   LINE      CODE     ---       #145
      00FF9C2AH   LINE      CODE     ---       #146
      00FF9C2DH   LINE      CODE     ---       #147
      00FF9C2DH   LINE      CODE     ---       #149
      00FF9C5BH   LINE      CODE     ---       #151
      00FF9C6CH   LINE      CODE     ---       #152
      00FF9C6CH   LINE      CODE     ---       #153
      00FF9C9AH   LINE      CODE     ---       #155
      00FF9CABH   LINE      CODE     ---       #156
      ---         BLOCKEND  ---      ---       LVL=0

      00FF912AH   BLOCK     CODE     ---       LVL=0
      00FF912AH   LINE      CODE     ---       #159
      00FF912AH   LINE      CODE     ---       #161
      00FF9160H   LINE      CODE     ---       #163
      00FF91B2H   LINE      CODE     ---       #165
      00FF91B2H   LINE      CODE     ---       #166
      00FF91B2H   LINE      CODE     ---       #167
      00FF91DCH   LINE      CODE     ---       #169
      00FF91F6H   LINE      CODE     ---       #170
      00FF91F8H   LINE      CODE     ---       #171
      00FF9222H   LINE      CODE     ---       #173
      00FF923CH   LINE      CODE     ---       #174
      ---         BLOCKEND  ---      ---       LVL=0

      00FF8202H   BLOCK     CODE     ---       LVL=0
      00FF8202H   LINE      CODE     ---       #180
      00FF8202H   LINE      CODE     ---       #182
      00FF820EH   LINE      CODE     ---       #184
      00FF8244H   LINE      CODE     ---       #185
      00FF8259H   LINE      CODE     ---       #187
      00FF8269H   LINE      CODE     ---       #188
      00FF826FH   LINE      CODE     ---       #189
      00FF8271H   LINE      CODE     ---       #190
      00FF8286H   LINE      CODE     ---       #192
      00FF8296H   LINE      CODE     ---       #193
      00FF829CH   LINE      CODE     ---       #194
      00FF829CH   LINE      CODE     ---       #196
      00FF82A8H   LINE      CODE     ---       #198
      00FF82D2H   LINE      CODE     ---       #200
      00FF8308H   LINE      CODE     ---       #201
      00FF8320H   LINE      CODE     ---       #203
      00FF8330H   LINE      CODE     ---       #204
      00FF8335H   LINE      CODE     ---       #205
      00FF8337H   LINE      CODE     ---       #207
      00FF834CH   LINE      CODE     ---       #209
      00FF8382H   LINE      CODE     ---       #210
      00FF8397H   LINE      CODE     ---       #213
      00FF83A7H   LINE      CODE     ---       #214
      00FF83ACH   LINE      CODE     ---       #215
      00FF83ACH   LINE      CODE     ---       #217
      00FF83ACH   LINE      CODE     ---       #218
      ---         BLOCKEND  ---      ---       LVL=0

      00FFB3E2H   BLOCK     CODE     ---       LVL=0
      00FFB3E2H   LINE      CODE     ---       #222
      00FFB3E2H   LINE      CODE     ---       #224
      00FFB418H   LINE      CODE     ---       #225
      ---         BLOCKEND  ---      ---       LVL=0
      000116B4H   SYMBOL    XDATA    FLOAT     num
      000116B8H   SYMBOL    XDATA    FLOAT     halfx
      000116BCH   SYMBOL    XDATA    FLOAT     y
      000116C0H   SYMBOL    XDATA    LONG      i
L251 LINKER/LOCATER V4.66.93.0                                                        03/30/2026  16:35:38  PAGE 132



      00FFB419H   BLOCK     CODE     ---       LVL=0
      00011EE0H   SYMBOL    XDATA    FLOAT     x
      00FFB419H   LINE      CODE     ---       #240
      00FFB423H   LINE      CODE     ---       #242
      00FFB44DH   LINE      CODE     ---       #243
      ---         BLOCKEND  ---      ---       LVL=0

      00FF976BH   BLOCK     CODE     ---       LVL=0
      00011A0EH   SYMBOL    XDATA    ---       p
      00011A12H   SYMBOL    XDATA    FLOAT     T_Q
      00011A16H   SYMBOL    XDATA    FLOAT     T_R
      00FF976BH   LINE      CODE     ---       #245
      00FF977FH   LINE      CODE     ---       #247
      00FF9792H   LINE      CODE     ---       #248
      00FF97A9H   LINE      CODE     ---       #249
      00FF97C8H   LINE      CODE     ---       #250
      00FF97E7H   LINE      CODE     ---       #251
      00FF9802H   LINE      CODE     ---       #252
      00FF9819H   LINE      CODE     ---       #253
      00FF9834H   LINE      CODE     ---       #254
      00FF9858H   LINE      CODE     ---       #255
      ---         BLOCKEND  ---      ---       LVL=0

      00FF7279H   BLOCK     CODE     ---       LVL=0
      00011CE4H   SYMBOL    XDATA    ---       p
      00011CE8H   SYMBOL    XDATA    FLOAT     dat
      00FF7279H   LINE      CODE     ---       #257
      00FF728DH   LINE      CODE     ---       #259
      00FF72CBH   LINE      CODE     ---       #260
      00FF7327H   LINE      CODE     ---       #261
      00FF7385H   LINE      CODE     ---       #262
      00FF73EEH   LINE      CODE     ---       #263
      00FF743BH   LINE      CODE     ---       #264
      00FF7465H   LINE      CODE     ---       #265
      00FF748BH   LINE      CODE     ---       #266
      00FF74A0H   LINE      CODE     ---       #267
      ---         BLOCKEND  ---      ---       LVL=0

      00FFAF13H   BLOCK     CODE     ---       LVL=0
      00FFAF13H   LINE      CODE     ---       #269
      00FFAF13H   LINE      CODE     ---       #272
      00FFAF16H   LINE      CODE     ---       #273
      00FFAF3BH   LINE      CODE     ---       #274
      00FFAF60H   LINE      CODE     ---       #275
      ---         BLOCKEND  ---      ---       LVL=0

      00FF019EH   BLOCK     CODE     ---       LVL=0
      00FF019EH   LINE      CODE     ---       #277
      00FF019EH   LINE      CODE     ---       #279
      00FF01A1H   LINE      CODE     ---       #280
      00FF01A4H   LINE      CODE     ---       #281
      00FF01A7H   LINE      CODE     ---       #282
      ---         BLOCKEND  ---      ---       LVL=0

      ---         MODULE    ---      ---       seekfree_assistant
      00FF8550H   PUBLIC    CODE     ---       seekfree_assistant_oscilloscope_send
      00FFB44EH   PUBLIC    CODE     ---       seekfree_assistant_init
      00FF6AFFH   PUBLIC    CODE     ---       seekfree_assistant_data_analysis
      000105DCH   PUBLIC    XDATA    ---       seekfree_assistant_oscilloscope_data
      00010617H   PUBLIC    XDATA    ---       seekfree_assistant_parameter_update_flag
      0001061FH   PUBLIC    XDATA    ---       seekfree_assistant_parameter
      0001171EH   PUBLIC    XDATA    BYTE      ?seekfree_assistant_camera_data_send?BYTE
      00011AF6H   PUBLIC    XDATA    BYTE      ?seekfree_assistant_camera_information_config?BYTE
      000112A1H   PUBLIC    XDATA    BYTE      ?seekfree_assistant_camera_boundary_config?BYTE
L251 LINKER/LOCATER V4.66.93.0                                                        03/30/2026  16:35:38  PAGE 133


      000000D0H   SFRSYM    DATA     BYTE      PSW
      0000009DH   SFRSYM    DATA     BYTE      IRCBAND
      00000097H   SFRSYM    DATA     BYTE      AUXR2
      000000EFH   SFRSYM    DATA     BYTE      AUXINTIF
      000000FDH   SFRSYM    DATA     BYTE      S4CON
      000000ACH   SFRSYM    DATA     BYTE      S3CON
      0000009AH   SFRSYM    DATA     BYTE      S2CON
      000000B7H   SFRSYM    DATA     BYTE      IPH
      000000CDH   SFRSYM    DATA     BYTE      SPSTAT
      000000DDH   SFRSYM    DATA     BYTE      T4T3M
      000000C1H   SFRSYM    DATA     BYTE      WDT_CONTR
      000000DFH   SFRSYM    DATA     BYTE      IP3
      000000F4H   SFRSYM    DATA     BYTE      USBCON
      000000B5H   SFRSYM    DATA     BYTE      IP2
      000000FFH   SFRSYM    DATA     BYTE      RSTCFG
      000000C7H   SFRSYM    DATA     BYTE      IAP_CONTR
      000000F9H   SFRSYM    DATA     BYTE      LINICR
      0000008EH   SFRSYM    DATA     BYTE      AUXR
      000000AFH   SFRSYM    DATA     BYTE      IE2
      00000088H   SFRSYM    DATA     BYTE      TCON
      00000089H   SFRSYM    DATA     BYTE      TMOD
      00000098H   SFRSYM    DATA     BYTE      SCON
      000000F1H   SFRSYM    DATA     BYTE      CANICR
      00000087H   SFRSYM    DATA     BYTE      PCON
      000000BCH   SFRSYM    DATA     BYTE      ADC_CONTR
      000000E7H   SFRSYM    DATA     BYTE      CMPCR2
      000000E6H   SFRSYM    DATA     BYTE      CMPCR1
      000000DEH   SFRSYM    DATA     BYTE      ADCCFG
      000000B8H   SFRSYM    DATA     BYTE      IP
      0000008FH   SFRSYM    DATA     BYTE      INTCLKO
      000000EEH   SFRSYM    DATA     BYTE      IP3H
      000000B6H   SFRSYM    DATA     BYTE      IP2H
      000000A8H   SFRSYM    DATA     BYTE      IE
      000000BBH   SFRSYM    DATA     BYTE      P_SW3
      000000BAH   SFRSYM    DATA     BYTE      P_SW2
      000000A2H   SFRSYM    DATA     BYTE      P_SW1
      000000CEH   SFRSYM    DATA     BYTE      SPCTL
      000000F8H   SFRSYM    DATA     BYTE      P7
      000000A8H.7 SFRSYM    DATA     BIT       EA
      000000E8H   SFRSYM    DATA     BYTE      P6
      000000C8H   SFRSYM    DATA     BYTE      P5
      000000C0H   SFRSYM    DATA     BYTE      P4
      000000B0H   SFRSYM    DATA     BYTE      P3
      000000A0H   SFRSYM    DATA     BYTE      P2
      00000090H   SFRSYM    DATA     BYTE      P1
      00000080H   SFRSYM    DATA     BYTE      P0
      00FFAD60H   SYMBOL    CODE     ---       seekfree_assistant_sum
      000105D4H   SYMBOL    XDATA    ---       seekfree_assistant_camera_dot_data
      00010600H   SYMBOL    XDATA    ---       seekfree_assistant_fifo
      0001063FH   SYMBOL    XDATA    ---       seekfree_assistant_camera_buffer
      00010689H   SYMBOL    XDATA    ---       seekfree_assistant_camera_data
      00010691H   SYMBOL    XDATA    ---       seekfree_assistant_buffer
      00FFC013H   SYMBOL    HCONST   ---       ?tpl?0001
      00FFC037H   SYMBOL    HCONST   ---       ?tpl?0002

      00FFAD60H   BLOCK     CODE     ---       LVL=0
      00011BF3H   SYMBOL    XDATA    ---       buffer
      00011BF7H   SYMBOL    XDATA    DWORD     length
      00FFAD74H   BLOCK     CODE     NEAR LAB  LVL=1
      00011BFBH   SYMBOL    XDATA    BYTE      temp_sum
      ---         BLOCKEND  ---      ---       LVL=1
      00FFAD60H   LINE      CODE     ---       #57
      00FFAD74H   LINE      CODE     ---       #58
      00FFAD74H   LINE      CODE     ---       #59
      00FFAD79H   LINE      CODE     ---       #61
L251 LINKER/LOCATER V4.66.93.0                                                        03/30/2026  16:35:38  PAGE 134


      00FFAD7BH   LINE      CODE     ---       #63
      00FFAD98H   LINE      CODE     ---       #64
      00FFADB5H   LINE      CODE     ---       #66
      00FFADB9H   LINE      CODE     ---       #67
      ---         BLOCKEND  ---      ---       LVL=0
      0001171EH   SYMBOL    XDATA    INT       camera_type
      00011720H   SYMBOL    XDATA    ---       image_addr
      00011724H   SYMBOL    XDATA    BYTE      boundary_num
      00011725H   SYMBOL    XDATA    WORD      width
      00011727H   SYMBOL    XDATA    WORD      height
      00011729H   SYMBOL    XDATA    DWORD     image_size
      00011AF6H   SYMBOL    XDATA    INT       camera_type
      00011AF8H   SYMBOL    XDATA    ---       image_addr
      00011AFCH   SYMBOL    XDATA    WORD      width
      00011AFEH   SYMBOL    XDATA    WORD      height

      00FF8550H   BLOCK     CODE     ---       LVL=0
      00011142H   SYMBOL    XDATA    ---       seekfree_assistant_oscilloscope
      00FF855AH   BLOCK     CODE     NEAR LAB  LVL=1
      00011146H   SYMBOL    XDATA    BYTE      packet_size
      00011147H   SYMBOL    XDATA    BYTE      i
      00011148H   SYMBOL    XDATA    ---       temp_oscilloscope
      ---         BLOCKEND  ---      ---       LVL=1
      00FF8550H   LINE      CODE     ---       #149
      00FF855AH   LINE      CODE     ---       #150
      00FF855AH   LINE      CODE     ---       #151
      00FF855FH   LINE      CODE     ---       #152
      00FF8564H   LINE      CODE     ---       #153
      00FF8579H   LINE      CODE     ---       #155
      00FF8590H   LINE      CODE     ---       #158
      00FF8598H   LINE      CODE     ---       #160
      00FF85CEH   LINE      CODE     ---       #161
      00FF8604H   LINE      CODE     ---       #162
      00FF863AH   LINE      CODE     ---       #163
      00FF8670H   LINE      CODE     ---       #164
      00FF868CH   LINE      CODE     ---       #167
      00FF8692H   LINE      CODE     ---       #170
      00FF86ACH   LINE      CODE     ---       #171
      00FF86B4H   LINE      CODE     ---       #174
      00FF86BEH   LINE      CODE     ---       #177
      00FF86C3H   LINE      CODE     ---       #178
      00FF86DAH   LINE      CODE     ---       #182
      00FF86F2H   LINE      CODE     ---       #183
      ---         BLOCKEND  ---      ---       LVL=0
      00011D17H   SYMBOL    XDATA    ---       buffer
      00011D1BH   SYMBOL    XDATA    BYTE      i
      00011D1CH   SYMBOL    XDATA    WORD      dot_bytes
      000112A1H   SYMBOL    XDATA    INT       boundary_type
      000112A3H   SYMBOL    XDATA    WORD      dot_num
      000112A5H   SYMBOL    XDATA    ---       dot_x1
      000112A9H   SYMBOL    XDATA    ---       dot_x2
      000112ADH   SYMBOL    XDATA    ---       dot_x3
      000112B1H   SYMBOL    XDATA    ---       dot_y1
      000112B5H   SYMBOL    XDATA    ---       dot_y2
      000112B9H   SYMBOL    XDATA    ---       dot_y3
      000112BDH   SYMBOL    XDATA    BYTE      i
      000112BEH   SYMBOL    XDATA    BYTE      boundary_num
      000112BFH   SYMBOL    XDATA    BYTE      boundary_data_type

      00FF6AFFH   BLOCK     CODE     ---       LVL=0
      00010AD7H   SYMBOL    XDATA    BYTE      temp_sum
      00010AD8H   SYMBOL    XDATA    DWORD     read_length
      00010ADCH   SYMBOL    XDATA    WORD      struct_len
      00010ADEH   SYMBOL    XDATA    ---       receive_packet
      00010AE2H   SYMBOL    XDATA    ---       temp_buffer
L251 LINKER/LOCATER V4.66.93.0                                                        03/30/2026  16:35:38  PAGE 135


      00010B62H   SYMBOL    XDATA    DWORD     i
      00000020H.3 SYMBOL    BIT      BIT       flag
      00FF6AFFH   LINE      CODE     ---       #345
      00FF6AFFH   LINE      CODE     ---       #346
      00FF6AFFH   LINE      CODE     ---       #348
      00FF6B04H   LINE      CODE     ---       #349
      00FF6B10H   LINE      CODE     ---       #350
      00FF6B1AH   LINE      CODE     ---       #354
      00FF6B2FH   LINE      CODE     ---       #356
      00FF6B3BH   LINE      CODE     ---       #358
      00FF6B3EH   LINE      CODE     ---       #359
      00FF6B42H   LINE      CODE     ---       #361
      00FF6B45H   LINE      CODE     ---       #364
      00FF6B63H   LINE      CODE     ---       #366
      00FF6B71H   LINE      CODE     ---       #369
      00FF6B98H   LINE      CODE     ---       #370
      00FF6B98H   LINE      CODE     ---       #372
      00FF6B9BH   LINE      CODE     ---       #375
      00FF6BA9H   LINE      CODE     ---       #376
      00FF6BD8H   LINE      CODE     ---       #377
      00FF6BE8H   LINE      CODE     ---       #380
      00FF6BF6H   LINE      CODE     ---       #381
      00FF6BF9H   LINE      CODE     ---       #386
      00FF6C0BH   LINE      CODE     ---       #387
      00FF6C20H   LINE      CODE     ---       #388
      00FF6C32H   LINE      CODE     ---       #390
      00FF6C4EH   LINE      CODE     ---       #395
      00FF6C89H   LINE      CODE     ---       #396
      00FF6CC4H   LINE      CODE     ---       #397
      00FF6CFFH   LINE      CODE     ---       #398
      00FF6D33H   LINE      CODE     ---       #399
      00FF6D53H   LINE      CODE     ---       #400
      00FF6D55H   LINE      CODE     ---       #403
      00FF6D63H   LINE      CODE     ---       #404
      00FF6D63H   LINE      CODE     ---       #405
      00FF6D63H   LINE      CODE     ---       #408
      00FF6D90H   LINE      CODE     ---       #409
      00FF6DACH   LINE      CODE     ---       #410
      00FF6DB0H   LINE      CODE     ---       #411
      ---         BLOCKEND  ---      ---       LVL=0

      00FFB44EH   BLOCK     CODE     ---       LVL=0
      00FFB44EH   LINE      CODE     ---       #436
      00FFB44EH   LINE      CODE     ---       #438
      00FFB47BH   LINE      CODE     ---       #439
      ---         BLOCKEND  ---      ---       LVL=0

      ---         MODULE    ---      ---       seekfree_assistant_interface
      00011EE4H   PUBLIC    XDATA    ---       seekfree_assistant_receive_callback
      00011EE6H   PUBLIC    XDATA    ---       seekfree_assistant_transfer_callback
      000000D0H   SFRSYM    DATA     BYTE      PSW
      0000009DH   SFRSYM    DATA     BYTE      IRCBAND
      00000097H   SFRSYM    DATA     BYTE      AUXR2
      000000EFH   SFRSYM    DATA     BYTE      AUXINTIF
      000000FDH   SFRSYM    DATA     BYTE      S4CON
      000000ACH   SFRSYM    DATA     BYTE      S3CON
      0000009AH   SFRSYM    DATA     BYTE      S2CON
      000000B7H   SFRSYM    DATA     BYTE      IPH
      000000CDH   SFRSYM    DATA     BYTE      SPSTAT
      000000DDH   SFRSYM    DATA     BYTE      T4T3M
      000000C1H   SFRSYM    DATA     BYTE      WDT_CONTR
      000000DFH   SFRSYM    DATA     BYTE      IP3
      000000F4H   SFRSYM    DATA     BYTE      USBCON
      000000B5H   SFRSYM    DATA     BYTE      IP2
      000000FFH   SFRSYM    DATA     BYTE      RSTCFG
L251 LINKER/LOCATER V4.66.93.0                                                        03/30/2026  16:35:38  PAGE 136


      000000C7H   SFRSYM    DATA     BYTE      IAP_CONTR
      000000F9H   SFRSYM    DATA     BYTE      LINICR
      0000008EH   SFRSYM    DATA     BYTE      AUXR
      000000AFH   SFRSYM    DATA     BYTE      IE2
      00000088H   SFRSYM    DATA     BYTE      TCON
      00000089H   SFRSYM    DATA     BYTE      TMOD
      00000098H   SFRSYM    DATA     BYTE      SCON
      000000F1H   SFRSYM    DATA     BYTE      CANICR
      00000087H   SFRSYM    DATA     BYTE      PCON
      000000BCH   SFRSYM    DATA     BYTE      ADC_CONTR
      000000E7H   SFRSYM    DATA     BYTE      CMPCR2
      000000E6H   SFRSYM    DATA     BYTE      CMPCR1
      000000DEH   SFRSYM    DATA     BYTE      ADCCFG
      000000B8H   SFRSYM    DATA     BYTE      IP
      0000008FH   SFRSYM    DATA     BYTE      INTCLKO
      000000EEH   SFRSYM    DATA     BYTE      IP3H
      000000B6H   SFRSYM    DATA     BYTE      IP2H
      000000A8H   SFRSYM    DATA     BYTE      IE
      000000BBH   SFRSYM    DATA     BYTE      P_SW3
      000000BAH   SFRSYM    DATA     BYTE      P_SW2
      000000A2H   SFRSYM    DATA     BYTE      P_SW1
      000000CEH   SFRSYM    DATA     BYTE      SPCTL
      000000F8H   SFRSYM    DATA     BYTE      P7
      000000E8H   SFRSYM    DATA     BYTE      P6
      000000C8H   SFRSYM    DATA     BYTE      P5
      000000C0H   SFRSYM    DATA     BYTE      P4
      000000B0H   SFRSYM    DATA     BYTE      P3
      000000A0H   SFRSYM    DATA     BYTE      P2
      00000090H   SFRSYM    DATA     BYTE      P1
      00000080H   SFRSYM    DATA     BYTE      P0
      00011F5DH   SYMBOL    XDATA    INT       transfer_device

      ---         MODULE    ---      ---       main
      00FFB47CH   PUBLIC    CODE     ---       main
      00FF9859H   PUBLIC    CODE     ---       _m
      00010E7FH   PUBLIC    XDATA    BYTE      speed
      00010EC0H   PUBLIC    XDATA    BYTE      spd_right
      00010EC1H   PUBLIC    XDATA    BYTE      spd_left
      000000D0H   SFRSYM    DATA     BYTE      PSW
      0000009DH   SFRSYM    DATA     BYTE      IRCBAND
      00000097H   SFRSYM    DATA     BYTE      AUXR2
      000000EFH   SFRSYM    DATA     BYTE      AUXINTIF
      000000FDH   SFRSYM    DATA     BYTE      S4CON
      000000ACH   SFRSYM    DATA     BYTE      S3CON
      0000009AH   SFRSYM    DATA     BYTE      S2CON
      000000B7H   SFRSYM    DATA     BYTE      IPH
      000000CDH   SFRSYM    DATA     BYTE      SPSTAT
      000000DDH   SFRSYM    DATA     BYTE      T4T3M
      000000C1H   SFRSYM    DATA     BYTE      WDT_CONTR
      000000DFH   SFRSYM    DATA     BYTE      IP3
      000000F4H   SFRSYM    DATA     BYTE      USBCON
      000000B5H   SFRSYM    DATA     BYTE      IP2
      000000FFH   SFRSYM    DATA     BYTE      RSTCFG
      000000C7H   SFRSYM    DATA     BYTE      IAP_CONTR
      000000F9H   SFRSYM    DATA     BYTE      LINICR
      0000008EH   SFRSYM    DATA     BYTE      AUXR
      000000AFH   SFRSYM    DATA     BYTE      IE2
      00000088H   SFRSYM    DATA     BYTE      TCON
      00000089H   SFRSYM    DATA     BYTE      TMOD
      00000098H   SFRSYM    DATA     BYTE      SCON
      000000F1H   SFRSYM    DATA     BYTE      CANICR
      00000087H   SFRSYM    DATA     BYTE      PCON
      000000BCH   SFRSYM    DATA     BYTE      ADC_CONTR
      000000E7H   SFRSYM    DATA     BYTE      CMPCR2
      000000E6H   SFRSYM    DATA     BYTE      CMPCR1
L251 LINKER/LOCATER V4.66.93.0                                                        03/30/2026  16:35:38  PAGE 137


      000000DEH   SFRSYM    DATA     BYTE      ADCCFG
      000000B8H   SFRSYM    DATA     BYTE      IP
      0000008FH   SFRSYM    DATA     BYTE      INTCLKO
      000000EEH   SFRSYM    DATA     BYTE      IP3H
      000000B6H   SFRSYM    DATA     BYTE      IP2H
      000000A8H   SFRSYM    DATA     BYTE      IE
      000000BBH   SFRSYM    DATA     BYTE      P_SW3
      000000BAH   SFRSYM    DATA     BYTE      P_SW2
      000000A2H   SFRSYM    DATA     BYTE      P_SW1
      000000CEH   SFRSYM    DATA     BYTE      SPCTL
      000000F8H   SFRSYM    DATA     BYTE      P7
      000000E8H   SFRSYM    DATA     BYTE      P6
      000000C8H   SFRSYM    DATA     BYTE      P5
      000000C0H   SFRSYM    DATA     BYTE      P4
      000000B0H   SFRSYM    DATA     BYTE      P3
      000000A0H   SFRSYM    DATA     BYTE      P2
      00000090H   SFRSYM    DATA     BYTE      P1
      00000080H   SFRSYM    DATA     BYTE      P0
      00010E80H   SYMBOL    XDATA    ---       temp_uart_buffer

      00FFB47CH   BLOCK     CODE     ---       LVL=0
      00FFB47CH   LINE      CODE     ---       #7
      ---         BLOCKEND  ---      ---       LVL=0

      00FF9859H   BLOCK     CODE     ---       LVL=0
      00FF9859H   LINE      CODE     ---       #7
      00FF9859H   LINE      CODE     ---       #9
      00FF9864H   LINE      CODE     ---       #10
      00FF9867H   LINE      CODE     ---       #12
      00FF986AH   LINE      CODE     ---       #17
      00FF986AH   LINE      CODE     ---       #19
      00FF98A1H   LINE      CODE     ---       #20
      00FF98ACH   LINE      CODE     ---       #21
      00FF98B7H   LINE      CODE     ---       #22
      00FF98BCH   LINE      CODE     ---       #23
      00FF98D7H   LINE      CODE     ---       #24
      00FF98F4H   LINE      CODE     ---       #25
      00FF9911H   LINE      CODE     ---       #26
      00FF9922H   LINE      CODE     ---       #27
      00FF9933H   LINE      CODE     ---       #28
      00FF993EH   LINE      CODE     ---       #29
      00FF9941H   LINE      CODE     ---       #30
      ---         BLOCKEND  ---      ---       LVL=0

      ---         MODULE    ---      ---       isr
      00FFB03AH   PUBLIC    CODE     ---       INT0_IRQHandler
      00FFB07AH   PUBLIC    CODE     ---       INT1_IRQHandler
      00FFB0BAH   PUBLIC    CODE     ---       INT2_IRQHandler
      00FFB0FAH   PUBLIC    CODE     ---       INT3_IRQHandler
      00FFB13AH   PUBLIC    CODE     ---       INT4_IRQHandler
      00FF9FA2H   PUBLIC    CODE     ---       DMA_UART1_IRQHandler
      00FFA41EH   PUBLIC    CODE     ---       DMA_UART2_IRQHandler
      00FFA4ADH   PUBLIC    CODE     ---       DMA_UART3_IRQHandler
      00FFA53CH   PUBLIC    CODE     ---       DMA_UART4_IRQHandler
      00FFB17AH   PUBLIC    CODE     ---       TM0_IRQHandler
      00FFB1BAH   PUBLIC    CODE     ---       TM1_IRQHandler
      00FFB1FAH   PUBLIC    CODE     ---       TM2_IRQHandler
      00FFB23AH   PUBLIC    CODE     ---       TM3_IRQHandler
      00FFB27AH   PUBLIC    CODE     ---       TM4_IRQHandler
      000000D0H   SFRSYM    DATA     BYTE      PSW
      0000009DH   SFRSYM    DATA     BYTE      IRCBAND
      00000097H   SFRSYM    DATA     BYTE      AUXR2
      000000EFH   SFRSYM    DATA     BYTE      AUXINTIF
      000000FDH   SFRSYM    DATA     BYTE      S4CON
      000000ACH   SFRSYM    DATA     BYTE      S3CON
L251 LINKER/LOCATER V4.66.93.0                                                        03/30/2026  16:35:38  PAGE 138


      0000009AH   SFRSYM    DATA     BYTE      S2CON
      000000B7H   SFRSYM    DATA     BYTE      IPH
      000000CDH   SFRSYM    DATA     BYTE      SPSTAT
      000000DDH   SFRSYM    DATA     BYTE      T4T3M
      000000C1H   SFRSYM    DATA     BYTE      WDT_CONTR
      000000DFH   SFRSYM    DATA     BYTE      IP3
      000000F4H   SFRSYM    DATA     BYTE      USBCON
      000000B5H   SFRSYM    DATA     BYTE      IP2
      000000FFH   SFRSYM    DATA     BYTE      RSTCFG
      000000C7H   SFRSYM    DATA     BYTE      IAP_CONTR
      000000F9H   SFRSYM    DATA     BYTE      LINICR
      0000008EH   SFRSYM    DATA     BYTE      AUXR
      000000AFH   SFRSYM    DATA     BYTE      IE2
      00000088H   SFRSYM    DATA     BYTE      TCON
      00000089H   SFRSYM    DATA     BYTE      TMOD
      00000098H   SFRSYM    DATA     BYTE      SCON
      000000F1H   SFRSYM    DATA     BYTE      CANICR
      00000087H   SFRSYM    DATA     BYTE      PCON
      000000BCH   SFRSYM    DATA     BYTE      ADC_CONTR
      000000E7H   SFRSYM    DATA     BYTE      CMPCR2
      000000E6H   SFRSYM    DATA     BYTE      CMPCR1
      000000DEH   SFRSYM    DATA     BYTE      ADCCFG
      000000B8H   SFRSYM    DATA     BYTE      IP
      0000008FH   SFRSYM    DATA     BYTE      INTCLKO
      000000EEH   SFRSYM    DATA     BYTE      IP3H
      000000B6H   SFRSYM    DATA     BYTE      IP2H
      000000A8H   SFRSYM    DATA     BYTE      IE
      000000BBH   SFRSYM    DATA     BYTE      P_SW3
      000000BAH   SFRSYM    DATA     BYTE      P_SW2
      000000A2H   SFRSYM    DATA     BYTE      P_SW1
      000000CEH   SFRSYM    DATA     BYTE      SPCTL
      000000F8H   SFRSYM    DATA     BYTE      P7
      000000E8H   SFRSYM    DATA     BYTE      P6
      000000C8H   SFRSYM    DATA     BYTE      P5
      000000C0H   SFRSYM    DATA     BYTE      P4
      000000B0H   SFRSYM    DATA     BYTE      P3
      000000A0H   SFRSYM    DATA     BYTE      P2
      00000090H   SFRSYM    DATA     BYTE      P1
      00000080H   SFRSYM    DATA     BYTE      P0

      00FFB03AH   BLOCK     CODE     ---       LVL=0
      00FFB03AH   LINE      CODE     ---       #39
      00FFB04EH   LINE      CODE     ---       #41
      00FFB051H   LINE      CODE     ---       #42
      00FFB05DH   LINE      CODE     ---       #44
      00FFB065H   LINE      CODE     ---       #45
      ---         BLOCKEND  ---      ---       LVL=0

      00FFB07AH   BLOCK     CODE     ---       LVL=0
      00FFB07AH   LINE      CODE     ---       #49
      00FFB08EH   LINE      CODE     ---       #51
      00FFB091H   LINE      CODE     ---       #52
      00FFB09DH   LINE      CODE     ---       #54
      00FFB0A5H   LINE      CODE     ---       #55
      ---         BLOCKEND  ---      ---       LVL=0

      00FFB0BAH   BLOCK     CODE     ---       LVL=0
      00FFB0BAH   LINE      CODE     ---       #58
      00FFB0CEH   LINE      CODE     ---       #60
      00FFB0D1H   LINE      CODE     ---       #61
      00FFB0DDH   LINE      CODE     ---       #63
      00FFB0E5H   LINE      CODE     ---       #64
      ---         BLOCKEND  ---      ---       LVL=0

      00FFB0FAH   BLOCK     CODE     ---       LVL=0
L251 LINKER/LOCATER V4.66.93.0                                                        03/30/2026  16:35:38  PAGE 139


      00FFB0FAH   LINE      CODE     ---       #66
      00FFB10EH   LINE      CODE     ---       #68
      00FFB111H   LINE      CODE     ---       #69
      00FFB11DH   LINE      CODE     ---       #71
      00FFB125H   LINE      CODE     ---       #72
      ---         BLOCKEND  ---      ---       LVL=0

      00FFB13AH   BLOCK     CODE     ---       LVL=0
      00FFB13AH   LINE      CODE     ---       #75
      00FFB14EH   LINE      CODE     ---       #77
      00FFB151H   LINE      CODE     ---       #78
      00FFB15DH   LINE      CODE     ---       #80
      00FFB165H   LINE      CODE     ---       #81
      ---         BLOCKEND  ---      ---       LVL=0

      00FF9FA2H   BLOCK     CODE     ---       LVL=0
      00FF9FB6H   BLOCK     CODE     NEAR LAB  LVL=1
      00011F77H   SYMBOL    XDATA    BYTE      dwon_count
      ---         BLOCKEND  ---      ---       LVL=1
      00FF9FA2H   LINE      CODE     ---       #85
      00FF9FB6H   LINE      CODE     ---       #86
      00FF9FB6H   LINE      CODE     ---       #89
      00FF9FC4H   LINE      CODE     ---       #91
      00FF9FD6H   LINE      CODE     ---       #92
      00FF9FDBH   LINE      CODE     ---       #95
      00FF9FE4H   LINE      CODE     ---       #97
      00FF9FF5H   LINE      CODE     ---       #99
      00FF9FF9H   LINE      CODE     ---       #100
      00FF9FFBH   LINE      CODE     ---       #104
      00FFA000H   LINE      CODE     ---       #105
      00FFA000H   LINE      CODE     ---       #107
      00FFA00CH   LINE      CODE     ---       #109
      00FFA018H   LINE      CODE     ---       #110
      00FFA018H   LINE      CODE     ---       #113
      00FFA026H   LINE      CODE     ---       #115
      00FFA038H   LINE      CODE     ---       #116
      00FFA03DH   LINE      CODE     ---       #120
      ---         BLOCKEND  ---      ---       LVL=0

      00FFA41EH   BLOCK     CODE     ---       LVL=0
      00FFA41EH   LINE      CODE     ---       #123
      00FFA432H   LINE      CODE     ---       #125
      00FFA440H   LINE      CODE     ---       #127
      00FFA452H   LINE      CODE     ---       #128
      00FFA459H   LINE      CODE     ---       #130
      00FFA465H   LINE      CODE     ---       #132
      00FFA471H   LINE      CODE     ---       #133
      00FFA471H   LINE      CODE     ---       #136
      00FFA47FH   LINE      CODE     ---       #138
      00FFA491H   LINE      CODE     ---       #139
      00FFA498H   LINE      CODE     ---       #143
      ---         BLOCKEND  ---      ---       LVL=0

      00FFA4ADH   BLOCK     CODE     ---       LVL=0
      00FFA4ADH   LINE      CODE     ---       #146
      00FFA4C1H   LINE      CODE     ---       #148
      00FFA4CFH   LINE      CODE     ---       #150
      00FFA4E1H   LINE      CODE     ---       #151
      00FFA4E8H   LINE      CODE     ---       #153
      00FFA4F4H   LINE      CODE     ---       #155
      00FFA500H   LINE      CODE     ---       #156
      00FFA500H   LINE      CODE     ---       #159
      00FFA50EH   LINE      CODE     ---       #161
      00FFA520H   LINE      CODE     ---       #162
      00FFA527H   LINE      CODE     ---       #166
L251 LINKER/LOCATER V4.66.93.0                                                        03/30/2026  16:35:38  PAGE 140


      ---         BLOCKEND  ---      ---       LVL=0

      00FFA53CH   BLOCK     CODE     ---       LVL=0
      00FFA53CH   LINE      CODE     ---       #169
      00FFA550H   LINE      CODE     ---       #171
      00FFA55EH   LINE      CODE     ---       #173
      00FFA570H   LINE      CODE     ---       #174
      00FFA577H   LINE      CODE     ---       #176
      00FFA583H   LINE      CODE     ---       #178
      00FFA58FH   LINE      CODE     ---       #179
      00FFA58FH   LINE      CODE     ---       #182
      00FFA59DH   LINE      CODE     ---       #184
      00FFA5AFH   LINE      CODE     ---       #185
      00FFA5B6H   LINE      CODE     ---       #189
      ---         BLOCKEND  ---      ---       LVL=0

      00FFB17AH   BLOCK     CODE     ---       LVL=0
      00FFB17AH   LINE      CODE     ---       #192
      00FFB18EH   LINE      CODE     ---       #194
      00FFB191H   LINE      CODE     ---       #196
      00FFB19DH   LINE      CODE     ---       #198
      00FFB1A5H   LINE      CODE     ---       #199
      ---         BLOCKEND  ---      ---       LVL=0

      00FFB1BAH   BLOCK     CODE     ---       LVL=0
      00FFB1BAH   LINE      CODE     ---       #202
      00FFB1CEH   LINE      CODE     ---       #204
      00FFB1D1H   LINE      CODE     ---       #206
      00FFB1DDH   LINE      CODE     ---       #208
      00FFB1E5H   LINE      CODE     ---       #209
      ---         BLOCKEND  ---      ---       LVL=0

      00FFB1FAH   BLOCK     CODE     ---       LVL=0
      00FFB1FAH   LINE      CODE     ---       #212
      00FFB20EH   LINE      CODE     ---       #214
      00FFB211H   LINE      CODE     ---       #216
      00FFB21DH   LINE      CODE     ---       #218
      00FFB225H   LINE      CODE     ---       #219
      ---         BLOCKEND  ---      ---       LVL=0

      00FFB23AH   BLOCK     CODE     ---       LVL=0
      00FFB23AH   LINE      CODE     ---       #222
      00FFB24EH   LINE      CODE     ---       #224
      00FFB251H   LINE      CODE     ---       #226
      00FFB25DH   LINE      CODE     ---       #228
      00FFB265H   LINE      CODE     ---       #229
      ---         BLOCKEND  ---      ---       LVL=0

      00FFB27AH   BLOCK     CODE     ---       LVL=0
      00FFB27AH   LINE      CODE     ---       #232
      00FFB28EH   LINE      CODE     ---       #234
      00FFB291H   LINE      CODE     ---       #236
      00FFB29DH   LINE      CODE     ---       #238
      00FFB2A5H   LINE      CODE     ---       #239
      ---         BLOCKEND  ---      ---       LVL=0

      ---         MODULE    ---      ---       all_init
      00FFAFADH   PUBLIC    CODE     ---       ALL_init
      000000D0H   SFRSYM    DATA     BYTE      PSW
      0000009DH   SFRSYM    DATA     BYTE      IRCBAND
      00000097H   SFRSYM    DATA     BYTE      AUXR2
      000000EFH   SFRSYM    DATA     BYTE      AUXINTIF
      000000FDH   SFRSYM    DATA     BYTE      S4CON
      000000ACH   SFRSYM    DATA     BYTE      S3CON
      0000009AH   SFRSYM    DATA     BYTE      S2CON
L251 LINKER/LOCATER V4.66.93.0                                                        03/30/2026  16:35:38  PAGE 141


      000000B7H   SFRSYM    DATA     BYTE      IPH
      000000CDH   SFRSYM    DATA     BYTE      SPSTAT
      000000DDH   SFRSYM    DATA     BYTE      T4T3M
      000000C1H   SFRSYM    DATA     BYTE      WDT_CONTR
      000000DFH   SFRSYM    DATA     BYTE      IP3
      000000F4H   SFRSYM    DATA     BYTE      USBCON
      000000B5H   SFRSYM    DATA     BYTE      IP2
      000000FFH   SFRSYM    DATA     BYTE      RSTCFG
      000000C7H   SFRSYM    DATA     BYTE      IAP_CONTR
      000000F9H   SFRSYM    DATA     BYTE      LINICR
      0000008EH   SFRSYM    DATA     BYTE      AUXR
      000000AFH   SFRSYM    DATA     BYTE      IE2
      00000088H   SFRSYM    DATA     BYTE      TCON
      00000089H   SFRSYM    DATA     BYTE      TMOD
      00000098H   SFRSYM    DATA     BYTE      SCON
      000000F1H   SFRSYM    DATA     BYTE      CANICR
      00000087H   SFRSYM    DATA     BYTE      PCON
      000000BCH   SFRSYM    DATA     BYTE      ADC_CONTR
      000000E7H   SFRSYM    DATA     BYTE      CMPCR2
      000000E6H   SFRSYM    DATA     BYTE      CMPCR1
      000000DEH   SFRSYM    DATA     BYTE      ADCCFG
      000000B8H   SFRSYM    DATA     BYTE      IP
      0000008FH   SFRSYM    DATA     BYTE      INTCLKO
      000000EEH   SFRSYM    DATA     BYTE      IP3H
      000000B6H   SFRSYM    DATA     BYTE      IP2H
      000000A8H   SFRSYM    DATA     BYTE      IE
      000000BBH   SFRSYM    DATA     BYTE      P_SW3
      000000BAH   SFRSYM    DATA     BYTE      P_SW2
      000000A2H   SFRSYM    DATA     BYTE      P_SW1
      000000CEH   SFRSYM    DATA     BYTE      SPCTL
      000000F8H   SFRSYM    DATA     BYTE      P7
      000000E8H   SFRSYM    DATA     BYTE      P6
      000000C8H   SFRSYM    DATA     BYTE      P5
      000000C0H   SFRSYM    DATA     BYTE      P4
      000000B0H   SFRSYM    DATA     BYTE      P3
      000000A0H   SFRSYM    DATA     BYTE      P2
      00000090H   SFRSYM    DATA     BYTE      P1
      00000080H   SFRSYM    DATA     BYTE      P0

      00FFAFADH   BLOCK     CODE     ---       LVL=0
      00FFAFADH   LINE      CODE     ---       #2
      00FFAFADH   LINE      CODE     ---       #4
      00FFAFB0H   LINE      CODE     ---       #5
      00FFAFB3H   LINE      CODE     ---       #6
      00FFAFCAH   LINE      CODE     ---       #7
      00FFAFE1H   LINE      CODE     ---       #8
      00FFAFE4H   LINE      CODE     ---       #9
      00FFAFE7H   LINE      CODE     ---       #10
      00FFAFEAH   LINE      CODE     ---       #11
      00FFAFEDH   LINE      CODE     ---       #12
      00FFAFF0H   LINE      CODE     ---       #13
      00FFAFF3H   LINE      CODE     ---       #15
      ---         BLOCKEND  ---      ---       LVL=0

      ---         MODULE    ---      ---       encoder
      00FF01AEH   PUBLIC    CODE     ---       pit_handler
      00FFAF61H   PUBLIC    CODE     ---       encoder_init
      000000D0H   SFRSYM    DATA     BYTE      PSW
      0000009DH   SFRSYM    DATA     BYTE      IRCBAND
      00000097H   SFRSYM    DATA     BYTE      AUXR2
      000000EFH   SFRSYM    DATA     BYTE      AUXINTIF
      000000FDH   SFRSYM    DATA     BYTE      S4CON
      000000ACH   SFRSYM    DATA     BYTE      S3CON
      0000009AH   SFRSYM    DATA     BYTE      S2CON
      000000B7H   SFRSYM    DATA     BYTE      IPH
L251 LINKER/LOCATER V4.66.93.0                                                        03/30/2026  16:35:38  PAGE 142


      000000CDH   SFRSYM    DATA     BYTE      SPSTAT
      000000DDH   SFRSYM    DATA     BYTE      T4T3M
      000000C1H   SFRSYM    DATA     BYTE      WDT_CONTR
      000000DFH   SFRSYM    DATA     BYTE      IP3
      000000F4H   SFRSYM    DATA     BYTE      USBCON
      000000B5H   SFRSYM    DATA     BYTE      IP2
      000000FFH   SFRSYM    DATA     BYTE      RSTCFG
      000000C7H   SFRSYM    DATA     BYTE      IAP_CONTR
      000000F9H   SFRSYM    DATA     BYTE      LINICR
      0000008EH   SFRSYM    DATA     BYTE      AUXR
      000000AFH   SFRSYM    DATA     BYTE      IE2
      00000088H   SFRSYM    DATA     BYTE      TCON
      00000089H   SFRSYM    DATA     BYTE      TMOD
      00000098H   SFRSYM    DATA     BYTE      SCON
      000000F1H   SFRSYM    DATA     BYTE      CANICR
      00000087H   SFRSYM    DATA     BYTE      PCON
      000000BCH   SFRSYM    DATA     BYTE      ADC_CONTR
      000000E7H   SFRSYM    DATA     BYTE      CMPCR2
      000000E6H   SFRSYM    DATA     BYTE      CMPCR1
      000000DEH   SFRSYM    DATA     BYTE      ADCCFG
      000000B8H   SFRSYM    DATA     BYTE      IP
      0000008FH   SFRSYM    DATA     BYTE      INTCLKO
      000000EEH   SFRSYM    DATA     BYTE      IP3H
      000000B6H   SFRSYM    DATA     BYTE      IP2H
      000000A8H   SFRSYM    DATA     BYTE      IE
      000000BBH   SFRSYM    DATA     BYTE      P_SW3
      000000BAH   SFRSYM    DATA     BYTE      P_SW2
      000000A2H   SFRSYM    DATA     BYTE      P_SW1
      000000CEH   SFRSYM    DATA     BYTE      SPCTL
      000000F8H   SFRSYM    DATA     BYTE      P7
      000000E8H   SFRSYM    DATA     BYTE      P6
      000000C8H   SFRSYM    DATA     BYTE      P5
      000000C0H   SFRSYM    DATA     BYTE      P4
      000000B0H   SFRSYM    DATA     BYTE      P3
      000000A0H   SFRSYM    DATA     BYTE      P2
      00000090H   SFRSYM    DATA     BYTE      P1
      00000080H   SFRSYM    DATA     BYTE      P0

      00FFAF61H   BLOCK     CODE     ---       LVL=0
      00FFAF61H   LINE      CODE     ---       #17
      00FFAF61H   LINE      CODE     ---       #19
      00FFAF6BH   LINE      CODE     ---       #20
      00FFAF90H   LINE      CODE     ---       #21
      00FFAF9DH   LINE      CODE     ---       #22
      00FFAFACH   LINE      CODE     ---       #24
      ---         BLOCKEND  ---      ---       LVL=0

      00FF01AEH   BLOCK     CODE     ---       LVL=0
      00FF01AEH   LINE      CODE     ---       #26
      00FF01AEH   LINE      CODE     ---       #28
      00FF01B1H   LINE      CODE     ---       #29
      00FF01B4H   LINE      CODE     ---       #30
      00FF01B7H   LINE      CODE     ---       #33
      ---         BLOCKEND  ---      ---       LVL=0

      ---         MODULE    ---      ---       moto
      00FFA5CBH   PUBLIC    CODE     ---       Motor_SetSpeed
      00FFB4D0H   PUBLIC    CODE     ---       ABS
      000000D0H   SFRSYM    DATA     BYTE      PSW
      0000009DH   SFRSYM    DATA     BYTE      IRCBAND
      00000097H   SFRSYM    DATA     BYTE      AUXR2
      000000EFH   SFRSYM    DATA     BYTE      AUXINTIF
      000000FDH   SFRSYM    DATA     BYTE      S4CON
      000000ACH   SFRSYM    DATA     BYTE      S3CON
      0000009AH   SFRSYM    DATA     BYTE      S2CON
L251 LINKER/LOCATER V4.66.93.0                                                        03/30/2026  16:35:38  PAGE 143


      000000B7H   SFRSYM    DATA     BYTE      IPH
      000000CDH   SFRSYM    DATA     BYTE      SPSTAT
      000000DDH   SFRSYM    DATA     BYTE      T4T3M
      000000C1H   SFRSYM    DATA     BYTE      WDT_CONTR
      000000DFH   SFRSYM    DATA     BYTE      IP3
      000000F4H   SFRSYM    DATA     BYTE      USBCON
      000000B5H   SFRSYM    DATA     BYTE      IP2
      000000FFH   SFRSYM    DATA     BYTE      RSTCFG
      000000C7H   SFRSYM    DATA     BYTE      IAP_CONTR
      000000F9H   SFRSYM    DATA     BYTE      LINICR
      0000008EH   SFRSYM    DATA     BYTE      AUXR
      000000AFH   SFRSYM    DATA     BYTE      IE2
      00000088H   SFRSYM    DATA     BYTE      TCON
      00000089H   SFRSYM    DATA     BYTE      TMOD
      00000098H   SFRSYM    DATA     BYTE      SCON
      000000F1H   SFRSYM    DATA     BYTE      CANICR
      00000087H   SFRSYM    DATA     BYTE      PCON
      000000BCH   SFRSYM    DATA     BYTE      ADC_CONTR
      000000E7H   SFRSYM    DATA     BYTE      CMPCR2
      000000E6H   SFRSYM    DATA     BYTE      CMPCR1
      000000DEH   SFRSYM    DATA     BYTE      ADCCFG
      000000B8H   SFRSYM    DATA     BYTE      IP
      0000008FH   SFRSYM    DATA     BYTE      INTCLKO
      000000EEH   SFRSYM    DATA     BYTE      IP3H
      000000B6H   SFRSYM    DATA     BYTE      IP2H
      000000A8H   SFRSYM    DATA     BYTE      IE
      000000BBH   SFRSYM    DATA     BYTE      P_SW3
      000000BAH   SFRSYM    DATA     BYTE      P_SW2
      000000A2H   SFRSYM    DATA     BYTE      P_SW1
      000000CEH   SFRSYM    DATA     BYTE      SPCTL
      000000F8H   SFRSYM    DATA     BYTE      P7
      000000E8H   SFRSYM    DATA     BYTE      P6
      000000C8H   SFRSYM    DATA     BYTE      P5
      000000C0H   SFRSYM    DATA     BYTE      P4
      000000B0H   SFRSYM    DATA     BYTE      P3
      000000A0H   SFRSYM    DATA     BYTE      P2
      00000090H   SFRSYM    DATA     BYTE      P1
      00000080H   SFRSYM    DATA     BYTE      P0

      00FFB4D0H   BLOCK     CODE     ---       LVL=0
      00011F5FH   SYMBOL    XDATA    INT       P
      00FFB4D0H   LINE      CODE     ---       #2
      00FFB4D6H   LINE      CODE     ---       #4
      00FFB4E2H   LINE      CODE     ---       #5
      00FFB4EAH   LINE      CODE     ---       #7
      00FFB4F6H   LINE      CODE     ---       #8
      ---         BLOCKEND  ---      ---       LVL=0

      00FFA5CBH   BLOCK     CODE     ---       LVL=0
      00011EE8H   SYMBOL    XDATA    INT       speed_left
      00011EEAH   SYMBOL    XDATA    INT       speed_right
      00FFA5CBH   LINE      CODE     ---       #10
      00FFA5D7H   LINE      CODE     ---       #13
      00FFA5E3H   LINE      CODE     ---       #14
      00FFA5EBH   LINE      CODE     ---       #15
      00FFA5F9H   LINE      CODE     ---       #16
      00FFA602H   LINE      CODE     ---       #17
      00FFA602H   LINE      CODE     ---       #19
      00FFA60EH   LINE      CODE     ---       #20
      00FFA616H   LINE      CODE     ---       #22
      00FFA624H   LINE      CODE     ---       #23
      00FFA62DH   LINE      CODE     ---       #24
      00FFA62DH   LINE      CODE     ---       #26
      00FFA641H   LINE      CODE     ---       #27
      00FFA655H   LINE      CODE     ---       #28
L251 LINKER/LOCATER V4.66.93.0                                                        03/30/2026  16:35:38  PAGE 144


      ---         BLOCKEND  ---      ---       LVL=0
      00011DEAH   SYMBOL    XDATA    ---       inductance_norm_data
      00011DEEH   SYMBOL    XDATA    WORD      sum

      ---         MODULE    ---      ---       led
      00FFB58CH   PUBLIC    CODE     ---       LED_Init
      000000D0H   SFRSYM    DATA     BYTE      PSW
      0000009DH   SFRSYM    DATA     BYTE      IRCBAND
      00000097H   SFRSYM    DATA     BYTE      AUXR2
      000000EFH   SFRSYM    DATA     BYTE      AUXINTIF
      000000FDH   SFRSYM    DATA     BYTE      S4CON
      000000ACH   SFRSYM    DATA     BYTE      S3CON
      0000009AH   SFRSYM    DATA     BYTE      S2CON
      000000B7H   SFRSYM    DATA     BYTE      IPH
      000000CDH   SFRSYM    DATA     BYTE      SPSTAT
      000000DDH   SFRSYM    DATA     BYTE      T4T3M
      000000C1H   SFRSYM    DATA     BYTE      WDT_CONTR
      000000DFH   SFRSYM    DATA     BYTE      IP3
      000000F4H   SFRSYM    DATA     BYTE      USBCON
      000000B5H   SFRSYM    DATA     BYTE      IP2
      000000FFH   SFRSYM    DATA     BYTE      RSTCFG
      000000C7H   SFRSYM    DATA     BYTE      IAP_CONTR
      000000F9H   SFRSYM    DATA     BYTE      LINICR
      0000008EH   SFRSYM    DATA     BYTE      AUXR
      000000AFH   SFRSYM    DATA     BYTE      IE2
      00000088H   SFRSYM    DATA     BYTE      TCON
      00000089H   SFRSYM    DATA     BYTE      TMOD
      00000098H   SFRSYM    DATA     BYTE      SCON
      000000F1H   SFRSYM    DATA     BYTE      CANICR
      00000087H   SFRSYM    DATA     BYTE      PCON
      000000BCH   SFRSYM    DATA     BYTE      ADC_CONTR
      000000E7H   SFRSYM    DATA     BYTE      CMPCR2
      000000E6H   SFRSYM    DATA     BYTE      CMPCR1
      000000DEH   SFRSYM    DATA     BYTE      ADCCFG
      000000B8H   SFRSYM    DATA     BYTE      IP
      0000008FH   SFRSYM    DATA     BYTE      INTCLKO
      000000EEH   SFRSYM    DATA     BYTE      IP3H
      000000B6H   SFRSYM    DATA     BYTE      IP2H
      000000A8H   SFRSYM    DATA     BYTE      IE
      000000BBH   SFRSYM    DATA     BYTE      P_SW3
      000000BAH   SFRSYM    DATA     BYTE      P_SW2
      000000A2H   SFRSYM    DATA     BYTE      P_SW1
      000000CEH   SFRSYM    DATA     BYTE      SPCTL
      000000F8H   SFRSYM    DATA     BYTE      P7
      000000E8H   SFRSYM    DATA     BYTE      P6
      000000C8H   SFRSYM    DATA     BYTE      P5
      000000C0H   SFRSYM    DATA     BYTE      P4
      000000B0H   SFRSYM    DATA     BYTE      P3
      000000A0H   SFRSYM    DATA     BYTE      P2
      00000090H   SFRSYM    DATA     BYTE      P1
      00000080H   SFRSYM    DATA     BYTE      P0

      00FFB58CH   BLOCK     CODE     ---       LVL=0
      00FFB58CH   LINE      CODE     ---       #19
      00FFB58CH   LINE      CODE     ---       #21
      00FFB59DH   LINE      CODE     ---       #22
      00FFB5AEH   LINE      CODE     ---       #23
      ---         BLOCKEND  ---      ---       LVL=0
      00011F61H   SYMBOL    XDATA    INT       pin
      00011F63H   SYMBOL    XDATA    INT       pin
      00011F65H   SYMBOL    XDATA    INT       pin

      ---         MODULE    ---      ---       trank
      000108FEH   PUBLIC    XDATA    INT       speed_right
      00010900H   PUBLIC    XDATA    INT       speed_left
L251 LINKER/LOCATER V4.66.93.0                                                        03/30/2026  16:35:38  PAGE 145


      00010902H   PUBLIC    XDATA    INT       real_right
      00010904H   PUBLIC    XDATA    INT       real_left
      00010906H   PUBLIC    XDATA    ---       right_spid
      0001093AH   PUBLIC    XDATA    ---       left_spid
      0001096EH   PUBLIC    XDATA    ---       pos_pid
      00011430H   PUBLIC    XDATA    BYTE      ?PID_Init?BYTE
      00011A1AH   PUBLIC    XDATA    BYTE      ?PID_Calc?BYTE
      000000D0H   SFRSYM    DATA     BYTE      PSW
      0000009DH   SFRSYM    DATA     BYTE      IRCBAND
      00000097H   SFRSYM    DATA     BYTE      AUXR2
      000000EFH   SFRSYM    DATA     BYTE      AUXINTIF
      000000FDH   SFRSYM    DATA     BYTE      S4CON
      000000ACH   SFRSYM    DATA     BYTE      S3CON
      0000009AH   SFRSYM    DATA     BYTE      S2CON
      000000B7H   SFRSYM    DATA     BYTE      IPH
      000000CDH   SFRSYM    DATA     BYTE      SPSTAT
      000000DDH   SFRSYM    DATA     BYTE      T4T3M
      000000C1H   SFRSYM    DATA     BYTE      WDT_CONTR
      000000DFH   SFRSYM    DATA     BYTE      IP3
      000000F4H   SFRSYM    DATA     BYTE      USBCON
      000000B5H   SFRSYM    DATA     BYTE      IP2
      000000FFH   SFRSYM    DATA     BYTE      RSTCFG
      000000C7H   SFRSYM    DATA     BYTE      IAP_CONTR
      000000F9H   SFRSYM    DATA     BYTE      LINICR
      0000008EH   SFRSYM    DATA     BYTE      AUXR
      000000AFH   SFRSYM    DATA     BYTE      IE2
      00000088H   SFRSYM    DATA     BYTE      TCON
      00000089H   SFRSYM    DATA     BYTE      TMOD
      00000098H   SFRSYM    DATA     BYTE      SCON
      000000F1H   SFRSYM    DATA     BYTE      CANICR
      00000087H   SFRSYM    DATA     BYTE      PCON
      000000BCH   SFRSYM    DATA     BYTE      ADC_CONTR
      000000E7H   SFRSYM    DATA     BYTE      CMPCR2
      000000E6H   SFRSYM    DATA     BYTE      CMPCR1
      000000DEH   SFRSYM    DATA     BYTE      ADCCFG
      000000B8H   SFRSYM    DATA     BYTE      IP
      0000008FH   SFRSYM    DATA     BYTE      INTCLKO
      000000EEH   SFRSYM    DATA     BYTE      IP3H
      000000B6H   SFRSYM    DATA     BYTE      IP2H
      000000A8H   SFRSYM    DATA     BYTE      IE
      000000BBH   SFRSYM    DATA     BYTE      P_SW3
      000000BAH   SFRSYM    DATA     BYTE      P_SW2
      000000A2H   SFRSYM    DATA     BYTE      P_SW1
      000000CEH   SFRSYM    DATA     BYTE      SPCTL
      000000F8H   SFRSYM    DATA     BYTE      P7
      000000E8H   SFRSYM    DATA     BYTE      P6
      000000C8H   SFRSYM    DATA     BYTE      P5
      000000C0H   SFRSYM    DATA     BYTE      P4
      000000B0H   SFRSYM    DATA     BYTE      P3
      000000A0H   SFRSYM    DATA     BYTE      P2
      00000090H   SFRSYM    DATA     BYTE      P1
      00000080H   SFRSYM    DATA     BYTE      P0
      00011430H   SYMBOL    XDATA    ---       pid
      00011434H   SYMBOL    XDATA    FLOAT     kp
      00011438H   SYMBOL    XDATA    FLOAT     ki
      0001143CH   SYMBOL    XDATA    FLOAT     kd
      00011440H   SYMBOL    XDATA    FLOAT     max_out
      00011444H   SYMBOL    XDATA    FLOAT     max_i
      00011A1AH   SYMBOL    XDATA    ---       pid
      00011A1EH   SYMBOL    XDATA    FLOAT     target
      00011A22H   SYMBOL    XDATA    FLOAT     measure
      00011EECH   SYMBOL    XDATA    INT       left_pwm
      00011EEEH   SYMBOL    XDATA    INT       right_pwm

      ---         MODULE    ---      ---       inductance
L251 LINKER/LOCATER V4.66.93.0                                                        03/30/2026  16:35:38  PAGE 146


      000000D0H   SFRSYM    DATA     BYTE      PSW
      0000009DH   SFRSYM    DATA     BYTE      IRCBAND
      00000097H   SFRSYM    DATA     BYTE      AUXR2
      000000EFH   SFRSYM    DATA     BYTE      AUXINTIF
      000000FDH   SFRSYM    DATA     BYTE      S4CON
      000000ACH   SFRSYM    DATA     BYTE      S3CON
      0000009AH   SFRSYM    DATA     BYTE      S2CON
      000000B7H   SFRSYM    DATA     BYTE      IPH
      000000CDH   SFRSYM    DATA     BYTE      SPSTAT
      000000DDH   SFRSYM    DATA     BYTE      T4T3M
      000000C1H   SFRSYM    DATA     BYTE      WDT_CONTR
      000000DFH   SFRSYM    DATA     BYTE      IP3
      000000F4H   SFRSYM    DATA     BYTE      USBCON
      000000B5H   SFRSYM    DATA     BYTE      IP2
      000000FFH   SFRSYM    DATA     BYTE      RSTCFG
      000000C7H   SFRSYM    DATA     BYTE      IAP_CONTR
      000000F9H   SFRSYM    DATA     BYTE      LINICR
      0000008EH   SFRSYM    DATA     BYTE      AUXR
      000000AFH   SFRSYM    DATA     BYTE      IE2
      00000088H   SFRSYM    DATA     BYTE      TCON
      00000089H   SFRSYM    DATA     BYTE      TMOD
      00000098H   SFRSYM    DATA     BYTE      SCON
      000000F1H   SFRSYM    DATA     BYTE      CANICR
      00000087H   SFRSYM    DATA     BYTE      PCON
      000000BCH   SFRSYM    DATA     BYTE      ADC_CONTR
      000000E7H   SFRSYM    DATA     BYTE      CMPCR2
      000000E6H   SFRSYM    DATA     BYTE      CMPCR1
      000000DEH   SFRSYM    DATA     BYTE      ADCCFG
      000000B8H   SFRSYM    DATA     BYTE      IP
      0000008FH   SFRSYM    DATA     BYTE      INTCLKO
      000000EEH   SFRSYM    DATA     BYTE      IP3H
      000000B6H   SFRSYM    DATA     BYTE      IP2H
      000000A8H   SFRSYM    DATA     BYTE      IE
      000000BBH   SFRSYM    DATA     BYTE      P_SW3
      000000BAH   SFRSYM    DATA     BYTE      P_SW2
      000000A2H   SFRSYM    DATA     BYTE      P_SW1
      000000CEH   SFRSYM    DATA     BYTE      SPCTL
      000000F8H   SFRSYM    DATA     BYTE      P7
      000000E8H   SFRSYM    DATA     BYTE      P6
      000000C8H   SFRSYM    DATA     BYTE      P5
      000000C0H   SFRSYM    DATA     BYTE      P4
      000000B0H   SFRSYM    DATA     BYTE      P3
      000000A0H   SFRSYM    DATA     BYTE      P2
      00000090H   SFRSYM    DATA     BYTE      P1
      00000080H   SFRSYM    DATA     BYTE      P0
      00011F1CH   SYMBOL    XDATA    CHAR      value
      00011F1DH   SYMBOL    XDATA    CHAR      min_value
      00011F1EH   SYMBOL    XDATA    CHAR      max_value
      000117E3H   SYMBOL    XDATA    ---       arr
      000117E7H   SYMBOL    XDATA    INT       times
      000117E9H   SYMBOL    XDATA    INT       min
      000117EBH   SYMBOL    XDATA    INT       max
      000117EDH   SYMBOL    XDATA    INT       sum
      000117EFH   SYMBOL    XDATA    INT       i
      00011CECH   SYMBOL    XDATA    WORD      adc_val
      00011CEEH   SYMBOL    XDATA    WORD      adc_max
      00011CF0H   SYMBOL    XDATA    WORD      adc_min
      00011CF2H   SYMBOL    XDATA    WORD      temp
      000113CFH   SYMBOL    XDATA    WORD      L
      000113D1H   SYMBOL    XDATA    WORD      LM
      000113D3H   SYMBOL    XDATA    WORD      RM
      000113D5H   SYMBOL    XDATA    WORD      R
      000113D7H   SYMBOL    XDATA    CHAR      scaled_err
      000113D8H   SYMBOL    XDATA    FLOAT     sqrt_a
      000113DCH   SYMBOL    XDATA    FLOAT     sqrt_b
L251 LINKER/LOCATER V4.66.93.0                                                        03/30/2026  16:35:38  PAGE 147


      000113E0H   SYMBOL    XDATA    FLOAT     numerator
      000113E4H   SYMBOL    XDATA    FLOAT     denominator
      00010EC2H   SYMBOL    XDATA    ---       inductance_norm_data
      00010EC6H   SYMBOL    XDATA    BYTE      i
      00010EC7H   SYMBOL    XDATA    ---       inductance_init_data
      00010EF9H   SYMBOL    XDATA    ---       inductance_filter_data

      ---         MODULE    ---      ---       menu
      00FFAFF4H   PUBLIC    CODE     ---       Oscilloscope_Display
      00FFB63FH   PUBLIC    CODE     ---       Parameter_Debug_Init
      00FF0046H   PUBLIC    CODE     ---       Oscilloscope_Init
      00FF8C96H   PUBLIC    CODE     ---       Parameter_Debug
      000109A2H   PUBLIC    XDATA    ---       gyro_buffer
      00010A02H   PUBLIC    XDATA    ---       send_str
      00010A22H   PUBLIC    XDATA    ---       data_buffer
      00011663H   PUBLIC    XDATA    BYTE      ?Parameter_Debug?BYTE
      000000D0H   SFRSYM    DATA     BYTE      PSW
      0000009DH   SFRSYM    DATA     BYTE      IRCBAND
      00000097H   SFRSYM    DATA     BYTE      AUXR2
      000000EFH   SFRSYM    DATA     BYTE      AUXINTIF
      000000FDH   SFRSYM    DATA     BYTE      S4CON
      000000ACH   SFRSYM    DATA     BYTE      S3CON
      0000009AH   SFRSYM    DATA     BYTE      S2CON
      000000B7H   SFRSYM    DATA     BYTE      IPH
      000000CDH   SFRSYM    DATA     BYTE      SPSTAT
      000000DDH   SFRSYM    DATA     BYTE      T4T3M
      000000C1H   SFRSYM    DATA     BYTE      WDT_CONTR
      000000DFH   SFRSYM    DATA     BYTE      IP3
      000000F4H   SFRSYM    DATA     BYTE      USBCON
      000000B5H   SFRSYM    DATA     BYTE      IP2
      000000FFH   SFRSYM    DATA     BYTE      RSTCFG
      000000C7H   SFRSYM    DATA     BYTE      IAP_CONTR
      000000F9H   SFRSYM    DATA     BYTE      LINICR
      0000008EH   SFRSYM    DATA     BYTE      AUXR
      000000AFH   SFRSYM    DATA     BYTE      IE2
      00000088H   SFRSYM    DATA     BYTE      TCON
      00000089H   SFRSYM    DATA     BYTE      TMOD
      00000098H   SFRSYM    DATA     BYTE      SCON
      000000F1H   SFRSYM    DATA     BYTE      CANICR
      00000087H   SFRSYM    DATA     BYTE      PCON
      000000BCH   SFRSYM    DATA     BYTE      ADC_CONTR
      000000E7H   SFRSYM    DATA     BYTE      CMPCR2
      000000E6H   SFRSYM    DATA     BYTE      CMPCR1
      000000DEH   SFRSYM    DATA     BYTE      ADCCFG
      000000B8H   SFRSYM    DATA     BYTE      IP
      0000008FH   SFRSYM    DATA     BYTE      INTCLKO
      000000EEH   SFRSYM    DATA     BYTE      IP3H
      000000B6H   SFRSYM    DATA     BYTE      IP2H
      000000A8H   SFRSYM    DATA     BYTE      IE
      000000BBH   SFRSYM    DATA     BYTE      P_SW3
      000000BAH   SFRSYM    DATA     BYTE      P_SW2
      000000A2H   SFRSYM    DATA     BYTE      P_SW1
      000000CEH   SFRSYM    DATA     BYTE      SPCTL
      000000F8H   SFRSYM    DATA     BYTE      P7
      000000E8H   SFRSYM    DATA     BYTE      P6
      000000C8H   SFRSYM    DATA     BYTE      P5
      000000C0H   SFRSYM    DATA     BYTE      P4
      000000B0H   SFRSYM    DATA     BYTE      P3
      000000A0H   SFRSYM    DATA     BYTE      P2
      00000090H   SFRSYM    DATA     BYTE      P1
      00000080H   SFRSYM    DATA     BYTE      P0
      000109C2H   SYMBOL    XDATA    ---       temp_uart_buffer
      00011EF0H   SYMBOL    XDATA    ---       inductance_data
      00010B66H   SYMBOL    XDATA    ---       inductance_data
      00010B6AH   SYMBOL    XDATA    ---       send_buf
L251 LINKER/LOCATER V4.66.93.0                                                        03/30/2026  16:35:38  PAGE 148



      00FFB63FH   BLOCK     CODE     ---       LVL=0
      00FFB63FH   LINE      CODE     ---       #88
      00FFB63FH   LINE      CODE     ---       #90
      00FFB649H   LINE      CODE     ---       #91
      00FFB64CH   LINE      CODE     ---       #92
      ---         BLOCKEND  ---      ---       LVL=0

      00FF8C96H   BLOCK     CODE     ---       LVL=0
      00011663H   SYMBOL    XDATA    ---       param1
      00011667H   SYMBOL    XDATA    ---       param2
      0001166BH   SYMBOL    XDATA    ---       param3
      0001166FH   SYMBOL    XDATA    ---       speed
      00FF8CAAH   BLOCK     CODE     NEAR LAB  LVL=1
      00011673H   SYMBOL    XDATA    BYTE      i
      ---         BLOCKEND  ---      ---       LVL=1
      00FF8C96H   LINE      CODE     ---       #94
      00FF8CAAH   LINE      CODE     ---       #95
      00FF8CAAH   LINE      CODE     ---       #97
      00FF8CADH   LINE      CODE     ---       #99
      00FF8CB5H   LINE      CODE     ---       #101
      00FF8CD0H   LINE      CODE     ---       #103
      00FF8CE7H   LINE      CODE     ---       #104
      00FF8D06H   LINE      CODE     ---       #105
      00FF8D1EH   LINE      CODE     ---       #106
      00FF8D46H   LINE      CODE     ---       #107
      00FF8D6EH   LINE      CODE     ---       #108
      00FF8D96H   LINE      CODE     ---       #109
      00FF8DBBH   LINE      CODE     ---       #110
      00FF8DD5H   LINE      CODE     ---       #112
      ---         BLOCKEND  ---      ---       LVL=0

      00FF0046H   BLOCK     CODE     ---       LVL=0
      00FF0046H   LINE      CODE     ---       #114
      00FF0046H   LINE      CODE     ---       #116
      00FF0050H   LINE      CODE     ---       #117
      ---         BLOCKEND  ---      ---       LVL=0

      00FFAFF4H   BLOCK     CODE     ---       LVL=0
      00011EF4H   SYMBOL    XDATA    WORD      num1
      00011EF6H   SYMBOL    XDATA    WORD      num2
      00FFAFF4H   LINE      CODE     ---       #119
      00FFB000H   LINE      CODE     ---       #121
      00FFB014H   LINE      CODE     ---       #122
      00FFB028H   LINE      CODE     ---       #123
      00FFB02EH   LINE      CODE     ---       #124
      00FFB039H   LINE      CODE     ---       #125
      ---         BLOCKEND  ---      ---       LVL=0

      ---         MODULE    ---      ---       ?C?FPADD
      00FF21D4H   PUBLIC    CODE     ---       ?C?FPADD
      00FF21D1H   PUBLIC    CODE     ---       ?C?FPSUB

      ---         MODULE    ---      ---       ?C?FPMUL
      00FF228CH   PUBLIC    CODE     ---       ?C?FPMUL

      ---         MODULE    ---      ---       ?C?FPDIV
      00FF232CH   PUBLIC    CODE     ---       ?C?FPDIV

      ---         MODULE    ---      ---       ?C?FPCMP
      00FF23AFH   PUBLIC    CODE     ---       ?C?FPCMP
      00FF23ADH   PUBLIC    CODE     ---       ?C?FPCMP3

      ---         MODULE    ---      ---       ?C?FPNEG
      00FF23F3H   PUBLIC    CODE     ---       ?C?FPNEG
L251 LINKER/LOCATER V4.66.93.0                                                        03/30/2026  16:35:38  PAGE 149



      ---         MODULE    ---      ---       ?C?FCAST
      00FF240BH   PUBLIC    CODE     NEAR LAB  ?C?FCASTC
      00FF2406H   PUBLIC    CODE     NEAR LAB  ?C?FCASTI
      00FF2401H   PUBLIC    CODE     NEAR LAB  ?C?FCASTL

      ---         MODULE    ---      ---       ?C?CASTF
      00FF243EH   PUBLIC    CODE     NEAR LAB  ?C?CASTF

      ---         MODULE    ---      ---       PRINTF
      000111BCH   PUBLIC    XDATA    ---       ?PRINTF?BYTE
      00FF247BH   PUBLIC    CODE     NEAR LAB  PRINTF

      ---         MODULE    ---      ---       SPRINTF
      000111BCH   PUBLIC    XDATA    ---       ?SPRINTF?BYTE
      00FF24A7H   PUBLIC    CODE     NEAR LAB  SPRINTF

      ---         MODULE    ---      ---       SQRT?_
      00FF24C7H   PUBLIC    CODE     ---       SQRT?_

      ---         MODULE    ---      ---       pow

      ---         MODULE    ---      ---       SIN?_
      00FF259FH   PUBLIC    CODE     ---       COS?_
      00FF25BCH   PUBLIC    CODE     ---       SIN?_
      00FF25E9H   PUBLIC    CODE     ---       TAN?_

      ---         MODULE    ---      ---       ATAN?_
      00FF26AFH   PUBLIC    CODE     ---       ATAN?_

      ---         MODULE    ---      ---       ASIN?_
      00FF2781H   PUBLIC    CODE     ---       ASIN?_

      ---         MODULE    ---      ---       ?C?FPGETOPN
      00FF27A1H   PUBLIC    CODE     ---       ?C?FPGETOPN2
      00FF27DEH   PUBLIC    CODE     ---       ?C?FPNANRESULT
      00FF27E6H   PUBLIC    CODE     ---       ?C?FPOVERFLOW
      00FF27BAH   PUBLIC    CODE     ---       ?C?FPRESULT
      00FF27D0H   PUBLIC    CODE     ---       ?C?FPRESULT2
      00FF27E3H   PUBLIC    CODE     ---       ?C?FPUNDERFLOW

      ---         MODULE    ---      ---       _CHKFLOAT_?_
      00FF27F2H   PUBLIC    CODE     ---       _CHKFLOAT_?_

      ---         MODULE    ---      ---       ?C?PRNFMT
      00FF283CH   PUBLIC    CODE     ---       ?C?PRNFMT

      ---         MODULE    ---      ---       ?C?FPSERIES
      00FF2C4BH   PUBLIC    CODE     ---       ?C?FP2SERIES
      00FF2C54H   PUBLIC    CODE     ---       ?C?FPSERIES

      ---         MODULE    ---      ---       EXP?_
      00FF2CB1H   PUBLIC    CODE     ---       EXP?_

      ---         MODULE    ---      ---       LOG?_
      00FF2D40H   PUBLIC    CODE     NEAR LAB  LOG?_

      ---         MODULE    ---      ---       ?C?FPCONVERT
      00FF2E13H   PUBLIC    CODE     ---       ?C?FPCONVERT
      00FF2ECBH   PUBLIC    CODE     ---       ?C?FPROUND

      ---         MODULE    ---      ---       ?C?FTNPWR
      00FF2F3EH   PUBLIC    CODE     ---       ?C?FTNPWR

      ---         MODULE    ---      ---       ?C?INITHDATA
L251 LINKER/LOCATER V4.66.93.0                                                        03/30/2026  16:35:38  PAGE 150


      00FFAE8CH   PUBLIC    CODE     ---       ?C?INITHDATA

      ---         MODULE    ---      ---       ?C?SIDIV
      00FF2F75H   PUBLIC    CODE     ---       ?C?SIDIV

      ---         MODULE    ---      ---       ?C?LMUL
      00FF2FA7H   PUBLIC    CODE     ---       ?C?LMUL

      ---         MODULE    ---      ---       ?C?LIMUL
      00FF2FB8H   PUBLIC    CODE     ---       ?C?LIMUL

      ---         MODULE    ---      ---       ?C?ULDIV
      00FF2FC3H   PUBLIC    CODE     NEAR LAB  ?C?ULDIV
      00FF2FC1H   PUBLIC    CODE     NEAR LAB  ?C?ULIDIV

      ---         MODULE    ---      ---       ?C?SLDIV
      00FF3014H   PUBLIC    CODE     NEAR LAB  ?C?SLDIV

      ---         MODULE    ---      ---       ?C?BMOVEPP
      00FF304AH   PUBLIC    CODE     ---       ?C?BMOVEPP
      00FF3048H   PUBLIC    CODE     ---       ?C?BMOVEPP8

      ---         MODULE    ---      ---       STRNCMP

      ---         MODULE    ---      ---       STRNCPY

      ---         MODULE    ---      ---       STRLEN
      00FFB64DH   PUBLIC    CODE     ---       strlen?_

      ---         MODULE    ---      ---       STRCHR

      ---         MODULE    ---      ---       memcpy
      00FFB567H   PUBLIC    CODE     ---       memcpy?_

      ---         MODULE    ---      ---       memset

      ---         MODULE    ---      ---       ?C?INITHDATA_END
      00FFBB6BH   PUBLIC    HCONST   WORD      ?C?INITHDATA_END

Program Size: data=8.4 edata+hdata=2060 xdata=8056 const=4041 code=46610
L251 RUN COMPLETE.  0 WARNING(S),  0 ERROR(S)
