L251 LINKER/LOCATER V4.66.93.0                                                          04/19/2026  22:06:36  PAGE 1


L251 LINKER/LOCATER V4.66.93.0, INVOKED BY:
E:\KEIL_V5\C251\BIN\L251.EXE .\out_file\START251.obj, .\out_file\stc32g_isr.obj, .\out_file\zf_common_clock.obj, .\out_f
>> ile\zf_common_debug.obj, .\out_file\zf_common_fifo.obj, .\out_file\zf_common_font.obj, .\out_file\zf_common_function.
>> obj, .\out_file\zf_common_typedef.obj, .\out_file\zf_common_interrupt.obj, .\out_file\zf_driver_adc.obj, .\out_file\z
>> f_driver_delay.obj, .\out_file\zf_driver_eeprom.obj, .\out_file\zf_driver_encoder.obj, .\out_file\zf_driver_exti.obj,
>>  .\out_file\zf_driver_gpio.obj, .\out_file\zf_driver_pit.obj, .\out_file\zf_driver_pwm.obj, .\out_file\zf_driver_soft
>> _iic.obj, .\out_file\zf_driver_soft_spi.obj, .\out_file\zf_driver_spi.obj, .\out_file\zf_driver_timer.obj, .\out_file
>> \zf_driver_uart.obj, .\out_file\eeprom.obj, .\out_file\voltage_warning.obj, .\out_file\zf_device_ble6a20.obj, .\out_f
>> ile\zf_device_config.obj, .\out_file\zf_device_dl1a.obj, .\out_file\zf_device_dl1b.obj, .\out_file\zf_device_gps_tau1
>> 201.obj, .\out_file\zf_device_icm20602.obj, .\out_file\zf_device_imu660ra.obj, .\out_file\zf_device_imu660rb.obj, .\o
>> ut_file\zf_device_imu963ra.obj, .\out_file\zf_device_ips114.obj, .\out_file\zf_device_ips200.obj, .\out_file\zf_devic
>> e_ips200pro.obj, .\out_file\zf_device_tft180.obj, .\out_file\zf_device_tsl1401.obj, .\out_file\zf_device_type.obj, .\
>> out_file\zf_device_wireless_uart.obj, .\out_file\imu.obj, .\out_file\seekfree_assistant.obj, .\out_file\seekfree_assi
>> stant_interface.obj, .\out_file\main.obj, .\out_file\isr.obj, .\out_file\all_init.obj, .\out_file\encoder.obj, .\out_
>> file\moto.obj, .\out_file\led.obj, .\out_file\trank.obj, .\out_file\inductance.obj, .\out_file\menu.obj TO .\out_file
>> \SEEKFREE PRINT (.\out_file\SEEKFREE.map) CASE DISABLEWARNING (57, 16) REMOVEUNUSED CLASSES (EDATA (0X0-0XFFF), HDATA
>>  (0X0-0XFFF))


CPU MODE:     251 SOURCE MODE
INTR FRAME:   4 BYTES SAVED ON INTERRUPT
MEMORY MODEL: LARGE WITH FLOATING POINT ARITHMETIC


INPUT MODULES INCLUDED:
  .\out_file\START251.obj (?C_START)
         COMMENT TYPE 0: A251 V4.69.13.0
  .\out_file\stc32g_isr.obj (stc32g_isr)
         COMMENT TYPE 0: A251 V4.69.13.0
  .\out_file\zf_common_clock.obj (zf_common_clock)
         COMMENT TYPE 0: C251 V5.60.0
  .\out_file\zf_common_debug.obj (zf_common_debug)
         COMMENT TYPE 0: C251 V5.60.0
  .\out_file\zf_common_fifo.obj (zf_common_fifo)
         COMMENT TYPE 0: C251 V5.60.0
  .\out_file\zf_common_font.obj (zf_common_font)
         COMMENT TYPE 0: C251 V5.60.0
  .\out_file\zf_common_function.obj (zf_common_function)
         COMMENT TYPE 0: C251 V5.60.0
  .\out_file\zf_common_typedef.obj (zf_common_typedef)
         COMMENT TYPE 0: C251 V5.60.0
  .\out_file\zf_common_interrupt.obj (zf_common_interrupt)
         COMMENT TYPE 0: C251 V5.60.0
  .\out_file\zf_driver_adc.obj (zf_driver_adc)
         COMMENT TYPE 0: C251 V5.60.0
  .\out_file\zf_driver_delay.obj (zf_driver_delay)
         COMMENT TYPE 0: C251 V5.60.0
  .\out_file\zf_driver_eeprom.obj (zf_driver_eeprom)
         COMMENT TYPE 0: C251 V5.60.0
  .\out_file\zf_driver_encoder.obj (zf_driver_encoder)
         COMMENT TYPE 0: C251 V5.60.0
  .\out_file\zf_driver_exti.obj (zf_driver_exti)
         COMMENT TYPE 0: C251 V5.60.0
  .\out_file\zf_driver_gpio.obj (zf_driver_gpio)
         COMMENT TYPE 0: C251 V5.60.0
  .\out_file\zf_driver_pit.obj (zf_driver_pit)
         COMMENT TYPE 0: C251 V5.60.0
  .\out_file\zf_driver_pwm.obj (zf_driver_pwm)
         COMMENT TYPE 0: C251 V5.60.0
  .\out_file\zf_driver_soft_iic.obj (zf_driver_soft_iic)
         COMMENT TYPE 0: C251 V5.60.0
  .\out_file\zf_driver_soft_spi.obj (zf_driver_soft_spi)
         COMMENT TYPE 0: C251 V5.60.0
  .\out_file\zf_driver_spi.obj (zf_driver_spi)
         COMMENT TYPE 0: C251 V5.60.0
  .\out_file\zf_driver_timer.obj (zf_driver_timer)
L251 LINKER/LOCATER V4.66.93.0                                                        04/19/2026  22:06:36  PAGE 2


         COMMENT TYPE 0: C251 V5.60.0
  .\out_file\zf_driver_uart.obj (zf_driver_uart)
         COMMENT TYPE 0: C251 V5.60.0
  .\out_file\eeprom.obj (eeprom)
         COMMENT TYPE 0: C251 V5.60.0
  .\out_file\voltage_warning.obj (voltage_warning)
         COMMENT TYPE 0: C251 V5.60.0
  .\out_file\zf_device_ble6a20.obj (zf_device_ble6a20)
         COMMENT TYPE 0: C251 V5.60.0
  .\out_file\zf_device_config.obj (zf_device_config)
         COMMENT TYPE 0: C251 V5.60.0
  .\out_file\zf_device_dl1a.obj (zf_device_dl1a)
         COMMENT TYPE 0: C251 V5.60.0
  .\out_file\zf_device_dl1b.obj (zf_device_dl1b)
         COMMENT TYPE 0: C251 V5.60.0
  .\out_file\zf_device_gps_tau1201.obj (zf_device_gps_tau1201)
         COMMENT TYPE 0: C251 V5.60.0
  .\out_file\zf_device_icm20602.obj (zf_device_icm20602)
         COMMENT TYPE 0: C251 V5.60.0
  .\out_file\zf_device_imu660ra.obj (zf_device_imu660ra)
         COMMENT TYPE 0: C251 V5.60.0
  .\out_file\zf_device_imu660rb.obj (zf_device_imu660rb)
         COMMENT TYPE 0: C251 V5.60.0
  .\out_file\zf_device_imu963ra.obj (zf_device_imu963ra)
         COMMENT TYPE 0: C251 V5.60.0
  .\out_file\zf_device_ips114.obj (zf_device_ips114)
         COMMENT TYPE 0: C251 V5.60.0
  .\out_file\zf_device_ips200.obj (zf_device_ips200)
         COMMENT TYPE 0: C251 V5.60.0
  .\out_file\zf_device_ips200pro.obj (zf_device_ips200pro)
         COMMENT TYPE 0: C251 V5.60.0
  .\out_file\zf_device_tft180.obj (zf_device_tft180)
         COMMENT TYPE 0: C251 V5.60.0
  .\out_file\zf_device_tsl1401.obj (zf_device_tsl1401)
         COMMENT TYPE 0: C251 V5.60.0
  .\out_file\zf_device_type.obj (zf_device_type)
         COMMENT TYPE 0: C251 V5.60.0
  .\out_file\zf_device_wireless_uart.obj (zf_device_wireless_uart)
         COMMENT TYPE 0: C251 V5.60.0
  .\out_file\imu.obj (imu)
         COMMENT TYPE 0: C251 V5.60.0
  .\out_file\seekfree_assistant.obj (seekfree_assistant)
         COMMENT TYPE 0: C251 V5.60.0
  .\out_file\seekfree_assistant_interface.obj (seekfree_assistant_interface)
         COMMENT TYPE 0: C251 V5.60.0
  .\out_file\main.obj (main)
         COMMENT TYPE 0: C251 V5.60.0
  .\out_file\isr.obj (isr)
         COMMENT TYPE 0: C251 V5.60.0
  .\out_file\all_init.obj (all_init)
         COMMENT TYPE 0: C251 V5.60.0
  .\out_file\encoder.obj (encoder)
         COMMENT TYPE 0: C251 V5.60.0
  .\out_file\moto.obj (moto)
         COMMENT TYPE 0: C251 V5.60.0
  .\out_file\led.obj (led)
         COMMENT TYPE 0: C251 V5.60.0
  .\out_file\trank.obj (trank)
         COMMENT TYPE 0: C251 V5.60.0
  .\out_file\inductance.obj (inductance)
         COMMENT TYPE 0: C251 V5.60.0
  .\out_file\menu.obj (menu)
         COMMENT TYPE 0: C251 V5.60.0
  E:\KEIL_V5\C251\LIB\C2SFPL.LIB (?C?FPADD)
         COMMENT TYPE 0: A251 V4.69.6.0
L251 LINKER/LOCATER V4.66.93.0                                                        04/19/2026  22:06:36  PAGE 3


  E:\KEIL_V5\C251\LIB\C2SFPL.LIB (?C?FPMUL)
         COMMENT TYPE 0: A251 V4.69.6.0
  E:\KEIL_V5\C251\LIB\C2SFPL.LIB (?C?FPDIV)
         COMMENT TYPE 0: A251 V4.69.6.0
  E:\KEIL_V5\C251\LIB\C2SFPL.LIB (?C?FPCMP)
         COMMENT TYPE 0: A251 V4.69.6.0
  E:\KEIL_V5\C251\LIB\C2SFPL.LIB (?C?FPNEG)
         COMMENT TYPE 0: A251 V4.69.6.0
  E:\KEIL_V5\C251\LIB\C2SFPL.LIB (?C?FCAST)
         COMMENT TYPE 0: A251 V4.69.6.0
  E:\KEIL_V5\C251\LIB\C2SFPL.LIB (?C?CASTF)
         COMMENT TYPE 0: A251 V4.69.6.0
  E:\KEIL_V5\C251\LIB\C2SFPL.LIB (PRINTF)
         COMMENT TYPE 0: A251 V4.69.6.0
  E:\KEIL_V5\C251\LIB\C2SFPL.LIB (SPRINTF)
         COMMENT TYPE 0: A251 V4.69.6.0
  E:\KEIL_V5\C251\LIB\C2SFPL.LIB (SQRT?_)
         COMMENT TYPE 0: A251 V4.69.6.0
  E:\KEIL_V5\C251\LIB\C2SFPL.LIB (pow)
         COMMENT TYPE 0: C251 V5.58.7
  E:\KEIL_V5\C251\LIB\C2SFPL.LIB (SIN?_)
         COMMENT TYPE 0: A251 V4.69.6.0
  E:\KEIL_V5\C251\LIB\C2SFPL.LIB (ATAN?_)
         COMMENT TYPE 0: A251 V4.69.6.0
  E:\KEIL_V5\C251\LIB\C2SFPL.LIB (ASIN?_)
         COMMENT TYPE 0: A251 V4.69.6.0
  E:\KEIL_V5\C251\LIB\C2SFPL.LIB (?C?FPGETOPN)
         COMMENT TYPE 0: A251 V4.69.6.0
  E:\KEIL_V5\C251\LIB\C2SFPL.LIB (_CHKFLOAT_?_)
         COMMENT TYPE 0: A251 V4.69.6.0
  E:\KEIL_V5\C251\LIB\C2SFPL.LIB (?C?PRNFMT)
         COMMENT TYPE 0: A251 V4.69.6.0
  E:\KEIL_V5\C251\LIB\C2SFPL.LIB (?C?FPSERIES)
         COMMENT TYPE 0: A251 V4.69.6.0
  E:\KEIL_V5\C251\LIB\C2SFPL.LIB (EXP?_)
         COMMENT TYPE 0: A251 V4.69.6.0
  E:\KEIL_V5\C251\LIB\C2SFPL.LIB (LOG?_)
         COMMENT TYPE 0: A251 V4.69.6.0
  E:\KEIL_V5\C251\LIB\C2SFPL.LIB (?C?FPCONVERT)
         COMMENT TYPE 0: A251 V4.69.6.0
  E:\KEIL_V5\C251\LIB\C2SFPL.LIB (?C?FTNPWR)
         COMMENT TYPE 0: A251 V4.69.6.0
  E:\KEIL_V5\C251\LIB\C2SL.LIB (?C?INITHDATA)
         COMMENT TYPE 0: A251 V4.69.6.0
  E:\KEIL_V5\C251\LIB\C2SL.LIB (?C?SIDIV)
         COMMENT TYPE 0: A251 V4.69.6.0
  E:\KEIL_V5\C251\LIB\C2SL.LIB (?C?LMUL)
         COMMENT TYPE 0: A251 V4.69.6.0
  E:\KEIL_V5\C251\LIB\C2SL.LIB (?C?LIMUL)
         COMMENT TYPE 0: A251 V4.69.6.0
  E:\KEIL_V5\C251\LIB\C2SL.LIB (?C?ULDIV)
         COMMENT TYPE 0: A251 V4.69.6.0
  E:\KEIL_V5\C251\LIB\C2SL.LIB (?C?SLDIV)
         COMMENT TYPE 0: A251 V4.69.6.0
  E:\KEIL_V5\C251\LIB\C2SL.LIB (?C?BMOVEPP)
         COMMENT TYPE 0: A251 V4.69.6.0
  E:\KEIL_V5\C251\LIB\C2SL.LIB (STRNCMP)
         COMMENT TYPE 0: C251 V5.58.7
  E:\KEIL_V5\C251\LIB\C2SL.LIB (STRNCPY)
         COMMENT TYPE 0: C251 V5.58.7
  E:\KEIL_V5\C251\LIB\C2SL.LIB (STRLEN)
         COMMENT TYPE 0: C251 V5.58.7
  E:\KEIL_V5\C251\LIB\C2SL.LIB (STRCHR)
         COMMENT TYPE 0: C251 V5.58.7
  E:\KEIL_V5\C251\LIB\C2SL.LIB (memcpy)
L251 LINKER/LOCATER V4.66.93.0                                                        04/19/2026  22:06:36  PAGE 4


         COMMENT TYPE 0: C251 V5.58.7
  E:\KEIL_V5\C251\LIB\C2SL.LIB (memset)
         COMMENT TYPE 0: C251 V5.58.7
  E:\KEIL_V5\C251\LIB\C2SL.LIB (?C?INITHDATA_END)
         COMMENT TYPE 0: A251 V4.69.6.0


ACTIVE MEMORY CLASSES OF MODULE:  .\out_file\SEEKFREE (?C_START)

BASE        START       END         USED      MEMORY CLASS
==========================================================
000000H     000000H     000FFFH     00080CH   EDATA
000000H     000000H     000FFFH               HDATA
FF0000H     FF0000H     FFFFFFH     00A4AAH   CODE
010000H     010000H     01FFFFH     001FFFH   XDATA
000000H     FF0000H     FFFFFFH     001037H   HCONST
000020H.0   000020H.0   00002FH.7   000000H.4 BIT
FF0000H     FF0000H     FFFFFFH     000004H   CONST
000000H     000000H     00007FH     000008H   DATA


MEMORY MAP OF MODULE:  .\out_file\SEEKFREE (?C_START)


START     STOP      LENGTH    ALIGN  RELOC    MEMORY CLASS   SEGMENT NAME
=========================================================================
000000H   000007H   000008H   ---    AT..     DATA           "REG BANK 0"
000008H   00000FH   000008H   BYTE   UNIT     EDATA          ?ED?DL1A_ENCODE_TIMEOUT?ZF_DEVICE_DL1A
000010H   000013H   000004H   BYTE   UNIT     EDATA          ?ED?ICM20602_SIMSPI_R_REG_BYTES?ZF_DEVICE_ICM20602
000014H.0 00001FH.7 00000CH.0 ---    ---      **GAP**
000020H.0 000020H.0 000000H.1 BIT    UNIT     BIT            ?BI?IAP_READ_BYTE?ZF_DRIVER_EEPROM
000020H.1 000020H.1 000000H.1 BIT    UNIT     BIT            ?BI?IAP_WRITE_BYTE?ZF_DRIVER_EEPROM
000020H.2 000020H.2 000000H.1 BIT    UNIT     BIT            ?BI?IAP_ERASE_PAGE?ZF_DRIVER_EEPROM
000020H.3 000020H.3 000000H.1 BIT    UNIT     BIT            ?BI?SEEKFREE_ASSISTANT_DATA_ANALYSIS?SEEKFREE_ASSISTANT
000020H.4 000020H   000000H.4 ---    ---      **GAP**
000021H   000820H   000800H   BYTE   UNIT     EDATA          ?STACK
000821H   00FFFFH   00F7DFH   ---    ---      **GAP**
010000H   010209H   00020AH   BYTE   UNIT     XDATA          ?XD?EXTERN_IAP_WRITE_BUFF?ZF_DRIVER_EEPROM
01020AH   01040BH   000202H   BYTE   INSEG    XDATA          ?XD?ZF_DEVICE_TSL1401
01040CH   0105D3H   0001C8H   BYTE   INSEG    XDATA          ?XD?ZF_DEVICE_GPS_TAU1201
0105D4H   010710H   00013DH   BYTE   INSEG    XDATA          ?XD?SEEKFREE_ASSISTANT
010711H   01083EH   00012EH   BYTE   INSEG    XDATA          ?XD?TRANK
01083FH   01095DH   00011FH   BYTE   INSEG    XDATA          ?XD?IMU
01095EH   010A2BH   0000CEH   BYTE   UNIT     XDATA          ?XD?DL1A_INIT?ZF_DEVICE_DL1A
010A2CH   010ACBH   0000A0H   BYTE   INSEG    XDATA          ?XD?MENU
010ACCH   010B60H   000095H   BYTE   UNIT     XDATA          ?XD?GPS_INIT?ZF_DEVICE_GPS_TAU1201
010B61H   010BEFH   00008FH   BYTE   UNIT     XDATA          ?XD?SEEKFREE_ASSISTANT_DATA_ANALYSIS?SEEKFREE_ASSISTANT
010BF0H   010C73H   000084H   BYTE   UNIT     XDATA          ?XD?SEND_DATA_TO_PC?MENU
010C74H   010CD2H   00005FH   BYTE   UNIT     XDATA          ?XD?ZF_SPRINTF?ZF_COMMON_FUNCTION
010CD3H   010D2BH   000059H   BYTE   INSEG    XDATA          ?XD?ZF_COMMON_DEBUG
010D2CH   010D82H   000057H   BYTE   INSEG    XDATA          ?XD?ZF_DEVICE_BLE6A20
010D83H   010DD9H   000057H   BYTE   INSEG    XDATA          ?XD?ZF_DEVICE_WIRELESS_UART
010DDAH   010E2CH   000053H   BYTE   UNIT     XDATA          ?XD?VSNPRINTF?ZF_COMMON_FUNCTION
010E2DH   010E79H   00004DH   BYTE   INSEG    XDATA          ?XD?ZF_DEVICE_IPS200PRO
010E7AH   010EC3H   00004AH   BYTE   UNIT     XDATA          ?XD?UART_WRITE_BUFFER?ZF_DRIVER_UART
010EC4H   010F08H   000045H   BYTE   UNIT     XDATA          ?XD?IPS200PRO_TABLE_CELL_PRINTF?ZF_DEVICE_IPS200PRO
010F09H   010F49H   000041H   BYTE   UNIT     XDATA          ?XD?INDUCTANCE_READ?INDUCTANCE
010F4AH   010F88H   00003FH   BYTE   UNIT     XDATA          ?XD?IPS200PRO_LABEL_PRINTF?ZF_DEVICE_IPS200PRO
010F89H   010FC0H   000038H   BYTE   UNIT     XDATA          ?XD?FUNC_DOUBLE_TO_STR?ZF_COMMON_FUNCTION
010FC1H   010FF0H   000030H   BYTE   UNIT     XDATA          ?XD?GET_TWO_POINTS_DISTANCE?ZF_DEVICE_GPS_TAU1201
010FF1H   011020H   000030H   BYTE   UNIT     XDATA          ?XD?IPS114_SHOW_FLOAT?ZF_DEVICE_IPS114
011021H   011050H   000030H   BYTE   UNIT     XDATA          ?XD?IPS200_SHOW_FLOAT?ZF_DEVICE_IPS200
011051H   011080H   000030H   BYTE   UNIT     XDATA          ?XD?TFT180_SHOW_FLOAT?ZF_DEVICE_TFT180
011081H   0110AFH   00002FH   BYTE   UNIT     XDATA          ?XD?DL1A_SET_MEASUREMENT_TIMING_BUDGET?ZF_DEVICE_DL1A
0110B0H   0110DBH   00002CH   BYTE   UNIT     XDATA          ?XD?IPS114_SHOW_INT32?ZF_DEVICE_IPS114
L251 LINKER/LOCATER V4.66.93.0                                                        04/19/2026  22:06:36  PAGE 5


0110DCH   011107H   00002CH   BYTE   UNIT     XDATA          ?XD?IPS200_SHOW_INT32?ZF_DEVICE_IPS200
011108H   011133H   00002CH   BYTE   UNIT     XDATA          ?XD?TFT180_SHOW_INT32?ZF_DEVICE_TFT180
011134H   01115EH   00002BH   BYTE   UNIT     XDATA          ?XD?GPS_GNRMC_PARSE?ZF_DEVICE_GPS_TAU1201
01115FH   011188H   00002AH   BYTE   UNIT     XDATA          ?XD?FUNC_FLOAT_TO_STR?ZF_COMMON_FUNCTION
011189H   0111B2H   00002AH   BYTE   UNIT     XDATA          ?XD?SEEKFREE_ASSISTANT_OSCILLOSCOPE_SEND?SEEKFREE_ASSISTAN
                                                             -T
0111B3H   0111DAH   000028H   BYTE   UNIT     XDATA          ?XD?IPS200PRO_IMAGE_DISPLAY?ZF_DEVICE_IPS200PRO
0111DBH   011202H   000028H   BYTE   UNIT     XDATA          _XDATA_GROUP_
011203H   011227H   000025H   BYTE   UNIT     XDATA          ?XD?FUNC_HEX_TO_STR?ZF_COMMON_FUNCTION
011228H   011249H   000022H   BYTE   UNIT     XDATA          ?XD?IPS200PRO_IMAGE_DRAW_RECTANGLE?ZF_DEVICE_IPS200PRO
01124AH   011269H   000020H   BYTE   UNIT     XDATA          ?XD?IPS114_SHOW_WAVE?ZF_DEVICE_IPS114
01126AH   011289H   000020H   BYTE   UNIT     XDATA          ?XD?IPS200_SHOW_WAVE?ZF_DEVICE_IPS200
01128AH   0112A9H   000020H   BYTE   UNIT     XDATA          ?XD?TFT180_SHOW_WAVE?ZF_DEVICE_TFT180
0112AAH   0112C8H   00001FH   BYTE   UNIT     XDATA          ?XD?DL1A_GET_MEASUREMENT_TIMING_BUDGET?ZF_DEVICE_DL1A
0112C9H   0112E7H   00001FH   BYTE   UNIT     XDATA          ?XD?IPS200PRO_WRITE_PACKET?ZF_DEVICE_IPS200PRO
0112E8H   011306H   00001FH   BYTE   UNIT     XDATA          ?XD?SEEKFREE_ASSISTANT_CAMERA_BOUNDARY_CONFIG?SEEKFREE_ASS
                                                             -ISTANT
011307H   011324H   00001EH   BYTE   INSEG    XDATA          ?XD?ZF_COMMON_TYPEDEF
011325H   011342H   00001EH   BYTE   INSEG    XDATA          ?XD?ZF_DEVICE_IMU963RA
011343H   01135FH   00001DH   BYTE   UNIT     XDATA          ?XD?FUNC_INT_TO_STR?ZF_COMMON_FUNCTION
011360H   01137BH   00001CH   BYTE   UNIT     XDATA          ?XD?GET_TWO_POINTS_AZIMUTH?ZF_DEVICE_GPS_TAU1201
01137CH   011396H   00001BH   BYTE   UNIT     XDATA          ?XD?IPS200PRO_CREATE_WIDGETS?ZF_DEVICE_IPS200PRO
011397H   0113B0H   00001AH   BYTE   UNIT     XDATA          ?XD?IPS200PRO_WAVEFORM_ADD_VALUE?ZF_DEVICE_IPS200PRO
0113B1H   0113CAH   00001AH   BYTE   UNIT     XDATA          ?XD?IPS200PRO_IMAGE_DRAW_LINE?ZF_DEVICE_IPS200PRO
0113CBH   0113E3H   000019H   BYTE   UNIT     XDATA          ?XD?FUNC_UINT_TO_STR?ZF_COMMON_FUNCTION
0113E4H   0113FCH   000019H   BYTE   UNIT     XDATA          ?XD?IPS114_SHOW_CHINESE?ZF_DEVICE_IPS114
0113FDH   011415H   000019H   BYTE   UNIT     XDATA          ?XD?IPS200_SHOW_CHINESE?ZF_DEVICE_IPS200
011416H   01142EH   000019H   BYTE   UNIT     XDATA          ?XD?PARAMETER_DEBUG?MENU
01142FH   011446H   000018H   BYTE   UNIT     XDATA          ?XD?FIFO_READ_BUFFER?ZF_COMMON_FIFO
011447H   01145EH   000018H   BYTE   UNIT     XDATA          ?XD?GET_FLOAT_NUMBER?ZF_DEVICE_GPS_TAU1201
01145FH   011476H   000018H   BYTE   UNIT     XDATA          ?XD?GET_DOUBLE_NUMBER?ZF_DEVICE_GPS_TAU1201
011477H   01148EH   000018H   BYTE   UNIT     XDATA          ?XD?PID_INIT?TRANK
01148FH   0114A6H   000018H   BYTE   UNIT     XDATA          ?XD?OSCILLOSCOPE_DISPLAY?MENU
0114A7H   0114BBH   000015H   BYTE   UNIT     XDATA          ?XD?SOFT_SPI_INIT?ZF_DRIVER_SOFT_SPI
0114BCH   0114D0H   000015H   BYTE   UNIT     XDATA          ?XD?IPS200PRO_GET_INFORMATION?ZF_DEVICE_IPS200PRO
0114D1H   0114E4H   000014H   BYTE   UNIT     XDATA          ?XD?DEBUG_ASSERT_HANDLER?ZF_COMMON_DEBUG
0114E5H   0114F8H   000014H   BYTE   UNIT     XDATA          ?XD?NUMBER_CONVERSION_ASCII?ZF_COMMON_FUNCTION
0114F9H   01150CH   000014H   BYTE   UNIT     XDATA          ?XD?PWM_SET_FREQ?ZF_DRIVER_PWM
01150DH   011520H   000014H   BYTE   UNIT     XDATA          ?XD?SOFT_IIC_TRANSFER_8BIT_ARRAY?ZF_DRIVER_SOFT_IIC
011521H   011534H   000014H   BYTE   UNIT     XDATA          ?XD?SOFT_IIC_TRANSFER_16BIT_ARRAY?ZF_DRIVER_SOFT_IIC
011535H   011548H   000014H   BYTE   UNIT     XDATA          ?XD?SPI_INIT?ZF_DRIVER_SPI
011549H   01155CH   000014H   BYTE   INSEG    XDATA          ?XD?ZF_DEVICE_ICM20602
01155DH   011570H   000014H   BYTE   INSEG    XDATA          ?XD?ZF_DEVICE_IMU660RA
011571H   011584H   000014H   BYTE   UNIT     XDATA          ?XD?INDUCTANCE_COUNT_ERR?INDUCTANCE
011585H   011597H   000013H   BYTE   UNIT     XDATA          ?XD?IMU660RA_READ_REGISTERS?ZF_DEVICE_IMU660RA
011598H   0115AAH   000013H   BYTE   UNIT     XDATA          ?XD?IPS200PRO_SET_COLOR?ZF_DEVICE_IPS200PRO
0115ABH   0115BDH   000013H   BYTE   UNIT     XDATA          ?XD?IPS200PRO_SET_POSITION?ZF_DEVICE_IPS200PRO
0115BEH   0115D0H   000013H   BYTE   UNIT     XDATA          ?XD?IPS200PRO_WAVEFORM_LINE_STATE?ZF_DEVICE_IPS200PRO
0115D1H   0115E3H   000013H   BYTE   UNIT     XDATA          ?XD?IPS200PRO_CONTAINER_RADIUS?ZF_DEVICE_IPS200PRO
0115E4H   0115F5H   000012H   BYTE   UNIT     XDATA          ?XD?FIFO_WRITE_BUFFER?ZF_COMMON_FIFO
0115F6H   011607H   000012H   BYTE   UNIT     XDATA          ?XD?PWM_INIT?ZF_DRIVER_PWM
011608H   011619H   000012H   BYTE   UNIT     XDATA          ?XD?IPS200PRO_TABLE_SET_COL_WIDTH?ZF_DEVICE_IPS200PRO
01161AH   01162BH   000012H   BYTE   UNIT     XDATA          ?XD?IPS200PRO_CALENDAR_DISPLAY?ZF_DEVICE_IPS200PRO
01162CH   01163CH   000011H   BYTE   UNIT     XDATA          ?XD?FUNC_STR_TO_FLOAT?ZF_COMMON_FUNCTION
01163DH   01164DH   000011H   BYTE   UNIT     XDATA          ?XD?FUNC_STR_TO_DOUBLE?ZF_COMMON_FUNCTION
01164EH   01165EH   000011H   BYTE   UNIT     XDATA          ?XD?GET_INT_NUMBER?ZF_DEVICE_GPS_TAU1201
01165FH   01166FH   000011H   BYTE   UNIT     XDATA          ?XD?IPS200PRO_SET_DATE?ZF_DEVICE_IPS200PRO
011670H   011680H   000011H   BYTE   UNIT     XDATA          ?XD?IPS200PRO_SET_PARENT?ZF_DEVICE_IPS200PRO
011681H   011691H   000011H   BYTE   UNIT     XDATA          ?XD?IPS200PRO_GET_DATE?ZF_DEVICE_IPS200PRO
011692H   0116A2H   000011H   BYTE   UNIT     XDATA          ?XD?IPS200PRO_GET_TIME?ZF_DEVICE_IPS200PRO
0116A3H   0116B3H   000011H   BYTE   UNIT     XDATA          ?XD?IPS200PRO_GET_FREE_STACK_SIZE?ZF_DEVICE_IPS200PRO
0116B4H   0116C4H   000011H   BYTE   UNIT     XDATA          ?XD?IPS200PRO_TABLE_SELECT?ZF_DEVICE_IPS200PRO
0116C5H   0116D5H   000011H   BYTE   UNIT     XDATA          ?XD?IPS200PRO_PROGRESS_BAR_SET_VALUE?ZF_DEVICE_IPS200PRO
0116D6H   0116E5H   000010H   BYTE   UNIT     XDATA          ?XD?SOFT_SPI_TRANSFER_8BIT?ZF_DRIVER_SOFT_SPI
0116E6H   0116F5H   000010H   BYTE   UNIT     XDATA          ?XD?SOFT_SPI_TRANSFER_16BIT?ZF_DRIVER_SOFT_SPI
L251 LINKER/LOCATER V4.66.93.0                                                        04/19/2026  22:06:36  PAGE 6


0116F6H   011705H   000010H   BYTE   UNIT     XDATA          ?XD?IPS200PRO_SET_TIME?ZF_DEVICE_IPS200PRO
011706H   011715H   000010H   BYTE   UNIT     XDATA          ?XD?IPS200PRO_PAGE_SET_TITLE_POSITION_WIDTH?ZF_DEVICE_IPS2
                                                             -00PRO
011716H   011725H   000010H   BYTE   UNIT     XDATA          ?XD?FAST_SQRT?IMU
011726H   011734H   00000FH   BYTE   UNIT     XDATA          ?XD?IPS200PRO_SET_FONT?ZF_DEVICE_IPS200PRO
011735H   011743H   00000FH   BYTE   UNIT     XDATA          ?XD?IPS200PRO_PAGE_SWITCH?ZF_DEVICE_IPS200PRO
011744H   011752H   00000FH   BYTE   UNIT     XDATA          ?XD?IPS200PRO_PAGE_SET_TITLE_NAME?ZF_DEVICE_IPS200PRO
011753H   011761H   00000FH   BYTE   UNIT     XDATA          ?XD?IPS200PRO_LABEL_SHOW_STRING?ZF_DEVICE_IPS200PRO
011762H   011770H   00000FH   BYTE   UNIT     XDATA          ?XD?IPS200PRO_LABEL_MODE?ZF_DEVICE_IPS200PRO
011771H   01177FH   00000FH   BYTE   UNIT     XDATA          ?XD?IPS200PRO_METER_SET_VALUE?ZF_DEVICE_IPS200PRO
011780H   01178EH   00000FH   BYTE   UNIT     XDATA          ?XD?SEEKFREE_ASSISTANT_CAMERA_DATA_SEND?SEEKFREE_ASSISTANT
01178FH   01179CH   00000EH   BYTE   UNIT     XDATA          ?XD?FIFO_INIT?ZF_COMMON_FIFO
01179DH   0117AAH   00000EH   BYTE   UNIT     XDATA          ?XD?FUNC_STR_TO_HEX?ZF_COMMON_FUNCTION
0117ABH   0117B8H   00000EH   BYTE   UNIT     XDATA          ?XD?PWM_SET_DUTY?ZF_DRIVER_PWM
0117B9H   0117C6H   00000EH   BYTE   UNIT     XDATA          ?XD?SOFT_IIC_WRITE_16BIT_REGISTERS?ZF_DRIVER_SOFT_IIC
0117C7H   0117D4H   00000EH   BYTE   UNIT     XDATA          ?XD?SOFT_IIC_READ_16BIT_REGISTERS?ZF_DRIVER_SOFT_IIC
0117D5H   0117E2H   00000EH   BYTE   UNIT     XDATA          ?XD?SOFT_SPI_WRITE_16BIT_REGISTERS?ZF_DRIVER_SOFT_SPI
0117E3H   0117F0H   00000EH   BYTE   UNIT     XDATA          ?XD?SOFT_SPI_READ_16BIT_REGISTERS?ZF_DRIVER_SOFT_SPI
0117F1H   0117FEH   00000EH   BYTE   UNIT     XDATA          ?XD?SPI_TRANSFER_8BIT?ZF_DRIVER_SPI
0117FFH   01180CH   00000EH   BYTE   UNIT     XDATA          ?XD?SPI_TRANSFER_16BIT?ZF_DRIVER_SPI
01180DH   01181AH   00000EH   BYTE   UNIT     XDATA          ?XD?GPS_GNGGA_PARSE?ZF_DEVICE_GPS_TAU1201
01181BH   011828H   00000EH   BYTE   UNIT     XDATA          ?XD?IPS200PRO_SEND_BUFFER?ZF_DEVICE_IPS200PRO
011829H   011836H   00000EH   BYTE   UNIT     XDATA          ?XD?IPS200PRO_SET_HIDDEN?ZF_DEVICE_IPS200PRO
011837H   011844H   00000EH   BYTE   UNIT     XDATA          ?XD?IPS200PRO_WAVEFORM_LINE_TYPE?ZF_DEVICE_IPS200PRO
011845H   011852H   00000EH   BYTE   UNIT     XDATA          ?XD?MEDIAN_AVERAGE_FILTER?INDUCTANCE
011853H   01185FH   00000DH   BYTE   UNIT     XDATA          ?XD?PRINTF_REVERSE_ORDER?ZF_COMMON_FUNCTION
011860H   01186CH   00000DH   BYTE   UNIT     XDATA          ?XD?SOFT_IIC_WRITE_8BIT_REGISTERS?ZF_DRIVER_SOFT_IIC
01186DH   011879H   00000DH   BYTE   UNIT     XDATA          ?XD?SOFT_IIC_READ_8BIT_REGISTERS?ZF_DRIVER_SOFT_IIC
01187AH   011886H   00000DH   BYTE   UNIT     XDATA          ?XD?SOFT_IIC_INIT?ZF_DRIVER_SOFT_IIC
011887H   011893H   00000DH   BYTE   UNIT     XDATA          ?XD?SOFT_SPI_WRITE_8BIT_REGISTERS?ZF_DRIVER_SOFT_SPI
011894H   0118A0H   00000DH   BYTE   UNIT     XDATA          ?XD?SOFT_SPI_READ_8BIT_REGISTERS?ZF_DRIVER_SOFT_SPI
0118A1H   0118ADH   00000DH   BYTE   INSEG    XDATA          ?XD?ZF_DEVICE_DL1A
0118AEH   0118BAH   00000DH   BYTE   INSEG    XDATA          ?XD?ZF_DEVICE_DL1B
0118BBH   0118C7H   00000DH   BYTE   UNIT     XDATA          ?XD?GET_PARAMETER_INDEX?ZF_DEVICE_GPS_TAU1201
0118C8H   0118D4H   00000DH   BYTE   UNIT     XDATA          ?XD?IPS200PRO_RECEIVE_BUFFER?ZF_DEVICE_IPS200PRO
0118D5H   0118E1H   00000DH   BYTE   UNIT     XDATA          ?XD?IPS200PRO_SET_FORMAT?ZF_DEVICE_IPS200PRO
0118E2H   0118EEH   00000DH   BYTE   UNIT     XDATA          ?XD?IPS200PRO_SET_DIRECTION?ZF_DEVICE_IPS200PRO
0118EFH   0118FBH   00000DH   BYTE   UNIT     XDATA          ?XD?IPS200PRO_SET_DEFAULT_FONT?ZF_DEVICE_IPS200PRO
0118FCH   011907H   00000CH   BYTE   UNIT     XDATA          ?XD?SOFT_IIC_WRITE_8BIT_ARRAY?ZF_DRIVER_SOFT_IIC
011908H   011913H   00000CH   BYTE   UNIT     XDATA          ?XD?SOFT_IIC_WRITE_16BIT_ARRAY?ZF_DRIVER_SOFT_IIC
011914H   01191FH   00000CH   BYTE   UNIT     XDATA          ?XD?SOFT_IIC_READ_8BIT_ARRAY?ZF_DRIVER_SOFT_IIC
011920H   01192BH   00000CH   BYTE   UNIT     XDATA          ?XD?SOFT_IIC_READ_16BIT_ARRAY?ZF_DRIVER_SOFT_IIC
01192CH   011937H   00000CH   BYTE   UNIT     XDATA          ?XD?SOFT_SPI_WRITE_8BIT_ARRAY?ZF_DRIVER_SOFT_SPI
011938H   011943H   00000CH   BYTE   UNIT     XDATA          ?XD?SOFT_SPI_WRITE_16BIT_ARRAY?ZF_DRIVER_SOFT_SPI
011944H   01194FH   00000CH   BYTE   UNIT     XDATA          ?XD?SOFT_SPI_READ_8BIT_ARRAY?ZF_DRIVER_SOFT_SPI
011950H   01195BH   00000CH   BYTE   UNIT     XDATA          ?XD?SOFT_SPI_READ_16BIT_ARRAY?ZF_DRIVER_SOFT_SPI
01195CH   011967H   00000CH   BYTE   UNIT     XDATA          ?XD?SPI_WRITE_16BIT_REGISTERS?ZF_DRIVER_SPI
011968H   011973H   00000CH   BYTE   UNIT     XDATA          ?XD?SPI_READ_16BIT_REGISTERS?ZF_DRIVER_SPI
011974H   01197FH   00000CH   BYTE   INSEG    XDATA          ?XD?ZF_DRIVER_TIMER
011980H   01198BH   00000CH   BYTE   INSEG    XDATA          ?XD?ZF_DRIVER_UART
01198CH   011997H   00000CH   BYTE   UNIT     XDATA          ?XD?UART_INIT?ZF_DRIVER_UART
011998H   0119A3H   00000CH   BYTE   UNIT     XDATA          ?XD?EEPROM_READ_VALUE?EEPROM
0119A4H   0119AFH   00000CH   BYTE   UNIT     XDATA          ?XD?BLE6A20_SEND_BUFFER?ZF_DEVICE_BLE6A20
0119B0H   0119BBH   00000CH   BYTE   UNIT     XDATA          ?XD?BLE6A20_READ_BUFFER?ZF_DEVICE_BLE6A20
0119BCH   0119C7H   00000CH   BYTE   UNIT     XDATA          ?XD?DL1A_GET_SPAD_INFO?ZF_DEVICE_DL1A
0119C8H   0119D3H   00000CH   BYTE   UNIT     XDATA          ?XD?DL1A_GET_SEQUENCE_STEP_TIMEOUTS?ZF_DEVICE_DL1A
0119D4H   0119DFH   00000CH   BYTE   UNIT     XDATA          ?XD?GPS_DATA_PARSE?ZF_DEVICE_GPS_TAU1201
0119E0H   0119EBH   00000CH   BYTE   INSEG    XDATA          ?XD?ZF_DEVICE_IMU660RB
0119ECH   0119F7H   00000CH   BYTE   UNIT     XDATA          ?XD?IPS114_SHOW_INT16?ZF_DEVICE_IPS114
0119F8H   011A03H   00000CH   BYTE   UNIT     XDATA          ?XD?IPS114_SHOW_UINT16?ZF_DEVICE_IPS114
011A04H   011A0FH   00000CH   BYTE   UNIT     XDATA          ?XD?IPS200_SHOW_INT16?ZF_DEVICE_IPS200
011A10H   011A1BH   00000CH   BYTE   UNIT     XDATA          ?XD?IPS200_SHOW_UINT16?ZF_DEVICE_IPS200
011A1CH   011A27H   00000CH   BYTE   UNIT     XDATA          ?XD?IPS200PRO_SET_BACKLIGHT?ZF_DEVICE_IPS200PRO
011A28H   011A33H   00000CH   BYTE   UNIT     XDATA          ?XD?IPS200PRO_SET_CRC_STATE?ZF_DEVICE_IPS200PRO
011A34H   011A3FH   00000CH   BYTE   UNIT     XDATA          ?XD?IPS200PRO_SET_OPTIMIZE?ZF_DEVICE_IPS200PRO
L251 LINKER/LOCATER V4.66.93.0                                                        04/19/2026  22:06:36  PAGE 7


011A40H   011A4BH   00000CH   BYTE   UNIT     XDATA          ?XD?TFT180_SHOW_INT16?ZF_DEVICE_TFT180
011A4CH   011A57H   00000CH   BYTE   UNIT     XDATA          ?XD?TFT180_SHOW_UINT16?ZF_DEVICE_TFT180
011A58H   011A63H   00000CH   BYTE   UNIT     XDATA          ?XD?WIRELESS_UART_SEND_BUFFER?ZF_DEVICE_WIRELESS_UART
011A64H   011A6FH   00000CH   BYTE   UNIT     XDATA          ?XD?WIRELESS_UART_READ_BUFFER?ZF_DEVICE_WIRELESS_UART
011A70H   011A7BH   00000CH   BYTE   UNIT     XDATA          ?XD?KALMANCREATE?IMU
011A7CH   011A87H   00000CH   BYTE   UNIT     XDATA          ?XD?PID_CALC?TRANK
011A88H   011A93H   00000CH   BYTE   UNIT     XDATA          ?XD?CALCULATE_DIFFERENTIAL_DRIVE?TRANK
011A94H   011A9FH   00000CH   BYTE   UNIT     XDATA          ?XD?RANGE_PROTECT_FLOAT?INDUCTANCE
011AA0H   011AAAH   00000BH   BYTE   INSEG    XDATA          ?XD?ZF_DRIVER_ADC
011AABH   011AB5H   00000BH   BYTE   UNIT     XDATA          ?XD?PIT_INIT?ZF_DRIVER_PIT
011AB6H   011AC0H   00000BH   BYTE   UNIT     XDATA          ?XD?SOFT_SPI_16BIT_DATA_HANDLER?ZF_DRIVER_SOFT_SPI
011AC1H   011ACBH   00000BH   BYTE   UNIT     XDATA          ?XD?SPI_WRITE_8BIT_REGISTERS?ZF_DRIVER_SPI
011ACCH   011AD6H   00000BH   BYTE   UNIT     XDATA          ?XD?SPI_READ_8BIT_REGISTERS?ZF_DRIVER_SPI
011AD7H   011AE1H   00000BH   BYTE   UNIT     XDATA          ?XD?GPS_UART_CALLBACK?ZF_DEVICE_GPS_TAU1201
011AE2H   011AECH   00000BH   BYTE   UNIT     XDATA          ?XD?IPS200PRO_DELETE_WIDGETS?ZF_DEVICE_IPS200PRO
011AEDH   011AF7H   00000BH   BYTE   UNIT     XDATA          ?XD?IPS200PRO_WAVEFORM_CLEAR?ZF_DEVICE_IPS200PRO
011AF8H   011B01H   00000AH   BYTE   UNIT     XDATA          ?XD?ADC_MEAN_FILTER_CONVERT?ZF_DRIVER_ADC
011B02H   011B0BH   00000AH   BYTE   UNIT     XDATA          ?XD?IAP_READ_BUFF?ZF_DRIVER_EEPROM
011B0CH   011B15H   00000AH   BYTE   UNIT     XDATA          ?XD?IAP_WRITE_BUFF?ZF_DRIVER_EEPROM
011B16H   011B1FH   00000AH   BYTE   UNIT     XDATA          ?XD?SPI_WRITE_8BIT_ARRAY?ZF_DRIVER_SPI
011B20H   011B29H   00000AH   BYTE   UNIT     XDATA          ?XD?SPI_WRITE_16BIT_ARRAY?ZF_DRIVER_SPI
011B2AH   011B33H   00000AH   BYTE   UNIT     XDATA          ?XD?SPI_READ_8BIT_ARRAY?ZF_DRIVER_SPI
011B34H   011B3DH   00000AH   BYTE   UNIT     XDATA          ?XD?SPI_READ_16BIT_ARRAY?ZF_DRIVER_SPI
011B3EH   011B47H   00000AH   BYTE   UNIT     XDATA          ?XD?EEPROM_READ?EEPROM
011B48H   011B51H   00000AH   BYTE   UNIT     XDATA          ?XD?IPS114_SHOW_STRING?ZF_DEVICE_IPS114
011B52H   011B5BH   00000AH   BYTE   INSEG    XDATA          ?XD?ZF_DEVICE_IPS200
011B5CH   011B65H   00000AH   BYTE   UNIT     XDATA          ?XD?IPS200_SHOW_STRING?ZF_DEVICE_IPS200
011B66H   011B6FH   00000AH   BYTE   UNIT     XDATA          ?XD?TFT180_SHOW_STRING?ZF_DEVICE_TFT180
011B70H   011B79H   00000AH   BYTE   UNIT     XDATA          ?XD?SEEKFREE_ASSISTANT_CAMERA_INFORMATION_CONFIG?SEEKFREE_
                                                             -ASSISTANT
011B7AH   011B83H   00000AH   BYTE   INSEG    XDATA          ?XD?MAIN
011B84H   011B8CH   000009H   BYTE   UNIT     XDATA          ?XD?FUNC_STR_TO_INT?ZF_COMMON_FUNCTION
011B8DH   011B95H   000009H   BYTE   UNIT     XDATA          ?XD?DL1A_TIMEOUT_MICROSECONDS_TO_MCLKS?ZF_DEVICE_DL1A
011B96H   011B9EH   000009H   BYTE   UNIT     XDATA          ?XD?DL1A_SET_SIGNAL_RATE_LIMIT?ZF_DEVICE_DL1A
011B9FH   011BA7H   000009H   BYTE   UNIT     XDATA          ?XD?ICM20602_SIMSPI_R_REG_BYTES?ZF_DEVICE_ICM20602
011BA8H   011BB0H   000009H   BYTE   UNIT     XDATA          ?XD?ICM20602_READ_REGISTERS?ZF_DEVICE_ICM20602
011BB1H   011BB9H   000009H   BYTE   UNIT     XDATA          ?XD?IMU660RA_SIMSPI_W_REG_BYTES?ZF_DEVICE_IMU660RA
011BBAH   011BC2H   000009H   BYTE   UNIT     XDATA          ?XD?IMU660RA_SIMSPI_R_REG_BYTES?ZF_DEVICE_IMU660RA
011BC3H   011BCBH   000009H   BYTE   UNIT     XDATA          ?XD?IMU660RA_WRITE_REGISTERS?ZF_DEVICE_IMU660RA
011BCCH   011BD4H   000009H   BYTE   UNIT     XDATA          ?XD?IMU660RB_SIMSPI_R_REG_BYTES?ZF_DEVICE_IMU660RB
011BD5H   011BDDH   000009H   BYTE   UNIT     XDATA          ?XD?IMU660RB_READ_REGISTERS?ZF_DEVICE_IMU660RB
011BDEH   011BE6H   000009H   BYTE   UNIT     XDATA          ?XD?IMU963RA_READ_ACC_GYRO_REGISTERS?ZF_DEVICE_IMU963RA
011BE7H   011BEFH   000009H   BYTE   UNIT     XDATA          ?XD?IPS114_SHOW_INT8?ZF_DEVICE_IPS114
011BF0H   011BF8H   000009H   BYTE   UNIT     XDATA          ?XD?IPS114_SHOW_UINT8?ZF_DEVICE_IPS114
011BF9H   011C01H   000009H   BYTE   UNIT     XDATA          ?XD?IPS200_SHOW_INT8?ZF_DEVICE_IPS200
011C02H   011C0AH   000009H   BYTE   UNIT     XDATA          ?XD?IPS200_SHOW_UINT8?ZF_DEVICE_IPS200
011C0BH   011C13H   000009H   BYTE   UNIT     XDATA          ?XD?IPS200PRO_LABEL_CREATE?ZF_DEVICE_IPS200PRO
011C14H   011C1CH   000009H   BYTE   UNIT     XDATA          ?XD?IPS200PRO_TABLE_CREATE?ZF_DEVICE_IPS200PRO
011C1DH   011C25H   000009H   BYTE   UNIT     XDATA          ?XD?IPS200PRO_METER_CREATE?ZF_DEVICE_IPS200PRO
011C26H   011C2EH   000009H   BYTE   UNIT     XDATA          ?XD?IPS200PRO_CLOCK_CREATE?ZF_DEVICE_IPS200PRO
011C2FH   011C37H   000009H   BYTE   UNIT     XDATA          ?XD?IPS200PRO_PROGRESS_BAR_CREATE?ZF_DEVICE_IPS200PRO
011C38H   011C40H   000009H   BYTE   UNIT     XDATA          ?XD?IPS200PRO_CALENDAR_CREATE?ZF_DEVICE_IPS200PRO
011C41H   011C49H   000009H   BYTE   UNIT     XDATA          ?XD?IPS200PRO_WAVEFORM_CREATE?ZF_DEVICE_IPS200PRO
011C4AH   011C52H   000009H   BYTE   UNIT     XDATA          ?XD?IPS200PRO_IMAGE_CREATE?ZF_DEVICE_IPS200PRO
011C53H   011C5BH   000009H   BYTE   UNIT     XDATA          ?XD?IPS200PRO_CONTAINER_CREATE?ZF_DEVICE_IPS200PRO
011C5CH   011C64H   000009H   BYTE   UNIT     XDATA          ?XD?IPS200PRO_INIT?ZF_DEVICE_IPS200PRO
011C65H   011C6DH   000009H   BYTE   UNIT     XDATA          ?XD?TFT180_SHOW_INT8?ZF_DEVICE_TFT180
011C6EH   011C76H   000009H   BYTE   UNIT     XDATA          ?XD?TFT180_SHOW_UINT8?ZF_DEVICE_TFT180
011C77H   011C7FH   000009H   BYTE   UNIT     XDATA          ?XD?SEEKFREE_ASSISTANT_SUM?SEEKFREE_ASSISTANT
011C80H   011C87H   000008H   BYTE   UNIT     XDATA          ?XD?DEBUG_SEND_BUFFER?ZF_COMMON_DEBUG
011C88H   011C8FH   000008H   BYTE   UNIT     XDATA          ?XD?DEBUG_READ_BUFFER?ZF_COMMON_DEBUG
011C90H   011C97H   000008H   BYTE   UNIT     XDATA          ?XD?FIFO_HEAD_OFFSET?ZF_COMMON_FIFO
011C98H   011C9FH   000008H   BYTE   UNIT     XDATA          ?XD?FIFO_END_OFFSET?ZF_COMMON_FIFO
011CA0H   011CA7H   000008H   BYTE   UNIT     XDATA          ?XD?FUNC_GET_GREATEST_COMMON_DIVISOR?ZF_COMMON_FUNCTION
011CA8H   011CAFH   000008H   BYTE   UNIT     XDATA          ?XD?FUNC_STR_TO_UINT?ZF_COMMON_FUNCTION
L251 LINKER/LOCATER V4.66.93.0                                                        04/19/2026  22:06:36  PAGE 8


011CB0H   011CB7H   000008H   BYTE   UNIT     XDATA          ?XD?SOFT_IIC_DELAY?ZF_DRIVER_SOFT_IIC
011CB8H   011CBFH   000008H   BYTE   UNIT     XDATA          ?XD?SOFT_IIC_WRITE_16BIT_REGISTER?ZF_DRIVER_SOFT_IIC
011CC0H   011CC7H   000008H   BYTE   UNIT     XDATA          ?XD?SOFT_IIC_READ_16BIT_REGISTER?ZF_DRIVER_SOFT_IIC
011CC8H   011CCFH   000008H   BYTE   UNIT     XDATA          ?XD?SOFT_SPI_DELAY?ZF_DRIVER_SOFT_SPI
011CD0H   011CD7H   000008H   BYTE   UNIT     XDATA          ?XD?SOFT_SPI_8BIT_DATA_HANDLER?ZF_DRIVER_SOFT_SPI
011CD8H   011CDFH   000008H   BYTE   UNIT     XDATA          ?XD?SOFT_SPI_WRITE_16BIT_REGISTER?ZF_DRIVER_SOFT_SPI
011CE0H   011CE7H   000008H   BYTE   UNIT     XDATA          ?XD?SOFT_SPI_READ_16BIT_REGISTER?ZF_DRIVER_SOFT_SPI
011CE8H   011CEFH   000008H   BYTE   UNIT     XDATA          ?XD?UART_WRITE_STRING?ZF_DRIVER_UART
011CF0H   011CF7H   000008H   BYTE   UNIT     XDATA          ?XD?EEPROM_WRITE_VALUE?EEPROM
011CF8H   011CFFH   000008H   BYTE   UNIT     XDATA          ?XD?BLE6A20_SEND_STRING?ZF_DEVICE_BLE6A20
011D00H   011D07H   000008H   BYTE   INSEG    XDATA          ?XD?ZF_DEVICE_IPS114
011D08H   011D0FH   000008H   BYTE   UNIT     XDATA          ?XD?IPS114_SET_REGION?ZF_DEVICE_IPS114
011D10H   011D17H   000008H   BYTE   UNIT     XDATA          ?XD?IPS114_SHOW_CHAR?ZF_DEVICE_IPS114
011D18H   011D1FH   000008H   BYTE   UNIT     XDATA          ?XD?IPS200_SET_REGION?ZF_DEVICE_IPS200
011D20H   011D27H   000008H   BYTE   UNIT     XDATA          ?XD?IPS200_SHOW_CHAR?ZF_DEVICE_IPS200
011D28H   011D2FH   000008H   BYTE   UNIT     XDATA          ?XD?IPS200PRO_READ_PARAMETER?ZF_DEVICE_IPS200PRO
011D30H   011D37H   000008H   BYTE   INSEG    XDATA          ?XD?ZF_DEVICE_TFT180
011D38H   011D3FH   000008H   BYTE   UNIT     XDATA          ?XD?TFT180_SET_REGION?ZF_DEVICE_TFT180
011D40H   011D47H   000008H   BYTE   UNIT     XDATA          ?XD?TFT180_SHOW_CHAR?ZF_DEVICE_TFT180
011D48H   011D4FH   000008H   BYTE   INSEG    XDATA          ?XD?ZF_DEVICE_TYPE
011D50H   011D57H   000008H   BYTE   UNIT     XDATA          ?XD?SET_WIRELESS_TYPE?ZF_DEVICE_TYPE
011D58H   011D5FH   000008H   BYTE   UNIT     XDATA          ?XD?SET_GPS_TYPE?ZF_DEVICE_TYPE
011D60H   011D67H   000008H   BYTE   UNIT     XDATA          ?XD?WIRELESS_UART_SEND_STRING?ZF_DEVICE_WIRELESS_UART
011D68H   011D6FH   000008H   BYTE   UNIT     XDATA          ?XD?KALMANFILTER?IMU
011D70H   011D77H   000008H   BYTE   UNIT     XDATA          ?XD?ADC_NORMALIZE_0_100?INDUCTANCE
011D78H   011D7EH   000007H   BYTE   UNIT     XDATA          ?XD?GPIO_INIT?ZF_DRIVER_GPIO
011D7FH   011D85H   000007H   BYTE   UNIT     XDATA          ?XD?SOFT_IIC_READ_DATA?ZF_DRIVER_SOFT_IIC
011D86H   011D8CH   000007H   BYTE   UNIT     XDATA          ?XD?UART_QUERY_BYTE?ZF_DRIVER_UART
011D8DH   011D93H   000007H   BYTE   UNIT     XDATA          ?XD?DL1A_TIMEOUT_MCLKS_TO_MICROSECONDS?ZF_DEVICE_DL1A
011D94H   011D9AH   000007H   BYTE   UNIT     XDATA          ?XD?IMU963RA_GET_MAG?ZF_DEVICE_IMU963RA
011D9BH   011DA1H   000007H   BYTE   UNIT     XDATA          ?XD?SEEKFREE_ASSISTANT_CAMERA_DOT_SEND?SEEKFREE_ASSISTANT
011DA2H   011DA7H   000006H   BYTE   UNIT     XDATA          ?XD?FIFO_CLEAR?ZF_COMMON_FIFO
011DA8H   011DADH   000006H   BYTE   INSEG    XDATA          ?XD?ZF_DRIVER_ENCODER
011DAEH   011DB3H   000006H   BYTE   UNIT     XDATA          ?XD?ENCODER_DIR_INIT?ZF_DRIVER_ENCODER
011DB4H   011DB9H   000006H   BYTE   UNIT     XDATA          ?XD?GPIO_SET_LEVEL_SPEED?ZF_DRIVER_GPIO
011DBAH   011DBFH   000006H   BYTE   UNIT     XDATA          ?XD?SOFT_IIC_SEND_DATA?ZF_DRIVER_SOFT_IIC
011DC0H   011DC5H   000006H   BYTE   UNIT     XDATA          ?XD?SOFT_IIC_WRITE_16BIT?ZF_DRIVER_SOFT_IIC
011DC6H   011DCBH   000006H   BYTE   UNIT     XDATA          ?XD?SOFT_IIC_WRITE_8BIT_REGISTER?ZF_DRIVER_SOFT_IIC
011DCCH   011DD1H   000006H   BYTE   UNIT     XDATA          ?XD?SOFT_IIC_READ_16BIT?ZF_DRIVER_SOFT_IIC
011DD2H   011DD7H   000006H   BYTE   UNIT     XDATA          ?XD?SOFT_IIC_READ_8BIT_REGISTER?ZF_DRIVER_SOFT_IIC
011DD8H   011DDDH   000006H   BYTE   UNIT     XDATA          ?XD?SOFT_IIC_SCCB_WRITE_REGISTER?ZF_DRIVER_SOFT_IIC
011DDEH   011DE3H   000006H   BYTE   UNIT     XDATA          ?XD?SOFT_IIC_SCCB_READ_REGISTER?ZF_DRIVER_SOFT_IIC
011DE4H   011DE9H   000006H   BYTE   UNIT     XDATA          ?XD?SOFT_SPI_WRITE_16BIT?ZF_DRIVER_SOFT_SPI
011DEAH   011DEFH   000006H   BYTE   UNIT     XDATA          ?XD?SOFT_SPI_WRITE_8BIT_REGISTER?ZF_DRIVER_SOFT_SPI
011DF0H   011DF5H   000006H   BYTE   UNIT     XDATA          ?XD?SOFT_SPI_READ_8BIT_REGISTER?ZF_DRIVER_SOFT_SPI
011DF6H   011DFBH   000006H   BYTE   UNIT     XDATA          ?XD?SPI_WRITE_16BIT_REGISTER?ZF_DRIVER_SPI
011DFCH   011E01H   000006H   BYTE   UNIT     XDATA          ?XD?SPI_READ_16BIT_REGISTER?ZF_DRIVER_SPI
011E02H   011E07H   000006H   BYTE   UNIT     XDATA          ?XD?ICM20602_GET_ACC?ZF_DEVICE_ICM20602
011E08H   011E0DH   000006H   BYTE   UNIT     XDATA          ?XD?ICM20602_GET_GYRO?ZF_DEVICE_ICM20602
011E0EH   011E13H   000006H   BYTE   UNIT     XDATA          ?XD?IMU660RA_GET_ACC?ZF_DEVICE_IMU660RA
011E14H   011E19H   000006H   BYTE   UNIT     XDATA          ?XD?IMU660RA_GET_GYRO?ZF_DEVICE_IMU660RA
011E1AH   011E1FH   000006H   BYTE   UNIT     XDATA          ?XD?IMU660RB_GET_ACC?ZF_DEVICE_IMU660RB
011E20H   011E25H   000006H   BYTE   UNIT     XDATA          ?XD?IMU660RB_GET_GYRO?ZF_DEVICE_IMU660RB
011E26H   011E2BH   000006H   BYTE   UNIT     XDATA          ?XD?IMU660RB_ACC_TRANSITION?ZF_DEVICE_IMU660RB
011E2CH   011E31H   000006H   BYTE   UNIT     XDATA          ?XD?IMU660RB_GYRO_TRANSITION?ZF_DEVICE_IMU660RB
011E32H   011E37H   000006H   BYTE   UNIT     XDATA          ?XD?IMU963RA_WRITE_MAG_REGISTER?ZF_DEVICE_IMU963RA
011E38H   011E3DH   000006H   BYTE   UNIT     XDATA          ?XD?IMU963RA_GET_ACC?ZF_DEVICE_IMU963RA
011E3EH   011E43H   000006H   BYTE   UNIT     XDATA          ?XD?IMU963RA_GET_GYRO?ZF_DEVICE_IMU963RA
011E44H   011E49H   000006H   BYTE   UNIT     XDATA          ?XD?IPS114_CLEAR?ZF_DEVICE_IPS114
011E4AH   011E4FH   000006H   BYTE   UNIT     XDATA          ?XD?IPS114_DRAW_POINT?ZF_DEVICE_IPS114
011E50H   011E55H   000006H   BYTE   UNIT     XDATA          ?XD?IPS200_CLEAR?ZF_DEVICE_IPS200
011E56H   011E5BH   000006H   BYTE   UNIT     XDATA          ?XD?IPS200_DRAW_POINT?ZF_DEVICE_IPS200
011E5CH   011E61H   000006H   BYTE   UNIT     XDATA          ?XD?TFT180_CLEAR?ZF_DEVICE_TFT180
011E62H   011E67H   000006H   BYTE   UNIT     XDATA          ?XD?TFT180_DRAW_POINT?ZF_DEVICE_TFT180
011E68H   011E6DH   000006H   BYTE   UNIT     XDATA          ?XD?SET_TOF_TYPE?ZF_DEVICE_TYPE
L251 LINKER/LOCATER V4.66.93.0                                                        04/19/2026  22:06:36  PAGE 9


011E6EH   011E73H   000006H   BYTE   UNIT     XDATA          ?XD?MOTOR_PROTECT?MOTO
011E74H   011E79H   000006H   BYTE   UNIT     XDATA          ?XD?INCPID_CALC?TRANK
011E7AH   011E7FH   000006H   BYTE   UNIT     XDATA          ?XD?RANGE_PROTECT_INT?INDUCTANCE
011E80H   011E84H   000005H   BYTE   UNIT     XDATA          ?XD?IAP_READ_BYTE?ZF_DRIVER_EEPROM
011E85H   011E89H   000005H   BYTE   UNIT     XDATA          ?XD?IAP_WRITE_BYTE?ZF_DRIVER_EEPROM
011E8AH   011E8EH   000005H   BYTE   UNIT     XDATA          ?XD?GPIO_GET_LEVEL?ZF_DRIVER_GPIO
011E8FH   011E93H   000005H   BYTE   UNIT     XDATA          ?XD?GPIO_SET_LEVEL?ZF_DRIVER_GPIO
011E94H   011E98H   000005H   BYTE   UNIT     XDATA          ?XD?SOFT_IIC_SEND_ACK?ZF_DRIVER_SOFT_IIC
011E99H   011E9DH   000005H   BYTE   UNIT     XDATA          ?XD?SOFT_IIC_WAIT_ACK?ZF_DRIVER_SOFT_IIC
011E9EH   011EA2H   000005H   BYTE   UNIT     XDATA          ?XD?SOFT_IIC_WRITE_8BIT?ZF_DRIVER_SOFT_IIC
011EA3H   011EA7H   000005H   BYTE   UNIT     XDATA          ?XD?SOFT_IIC_READ_8BIT?ZF_DRIVER_SOFT_IIC
011EA8H   011EACH   000005H   BYTE   UNIT     XDATA          ?XD?SOFT_SPI_WRITE_8BIT?ZF_DRIVER_SOFT_SPI
011EADH   011EB1H   000005H   BYTE   UNIT     XDATA          ?XD?SOFT_SPI_READ_8BIT?ZF_DRIVER_SOFT_SPI
011EB2H   011EB6H   000005H   BYTE   UNIT     XDATA          ?XD?SOFT_SPI_READ_16BIT?ZF_DRIVER_SOFT_SPI
011EB7H   011EBBH   000005H   BYTE   UNIT     XDATA          ?XD?TIMER_FUNCITON_CHECK?ZF_DRIVER_TIMER
011EBCH   011EC0H   000005H   BYTE   UNIT     XDATA          ?XD?UART_FUNCITON_CHECK?ZF_DRIVER_UART
011EC1H   011EC5H   000005H   BYTE   UNIT     XDATA          ?XD?DL1A_GET_SEQUENCE_STEP_ENABLES?ZF_DEVICE_DL1A
011EC6H   011ECAH   000005H   BYTE   UNIT     XDATA          ?XD?DL1A_PERFORM_SINGLE_REF_CALIBRATION?ZF_DEVICE_DL1A
011ECBH   011ECFH   000005H   BYTE   UNIT     XDATA          ?XD?DL1B_GET_DISTANCE?ZF_DEVICE_DL1B
011ED0H   011ED4H   000005H   BYTE   UNIT     XDATA          ?XD?UTC_TO_BTC?ZF_DEVICE_GPS_TAU1201
011ED5H   011ED9H   000005H   BYTE   UNIT     XDATA          ?XD?ICM20602_SIMSPI_R_REG_BYTE?ZF_DEVICE_ICM20602
011EDAH   011EDEH   000005H   BYTE   UNIT     XDATA          ?XD?IMU660RB_SIMSPI_R_REG_BYTE?ZF_DEVICE_IMU660RB
011EDFH   011EE3H   000005H   BYTE   UNIT     XDATA          ?XD?IPS200PRO_PAGE_CREATE?ZF_DEVICE_IPS200PRO
011EE4H   011EE7H   000004H   BYTE   INSEG    XDATA          ?XD?ZF_COMMON_CLOCK
011EE8H   011EEBH   000004H   BYTE   UNIT     XDATA          ?XD?SET_SYS_CLK?ZF_COMMON_CLOCK
011EECH   011EEFH   000004H   BYTE   UNIT     XDATA          ?XD?CLOCK_INIT?ZF_COMMON_CLOCK
011EF0H   011EF3H   000004H   BYTE   UNIT     XDATA          ?XD?FIFO_USED?ZF_COMMON_FIFO
011EF4H   011EF7H   000004H   BYTE   UNIT     XDATA          ?XD?FUNC_SOFT_DELAY?ZF_COMMON_FUNCTION
011EF8H   011EFBH   000004H   BYTE   UNIT     XDATA          ?XD?ADC_CONVERT?ZF_DRIVER_ADC
011EFCH   011EFFH   000004H   BYTE   UNIT     XDATA          ?XD?ADC_INIT?ZF_DRIVER_ADC
011F00H   011F03H   000004H   BYTE   INSEG    XDATA          ?XD?ZF_DRIVER_DELAY
011F04H   011F07H   000004H   BYTE   UNIT     XDATA          ?XD?IAP_ERASE_PAGE?ZF_DRIVER_EEPROM
011F08H   011F0BH   000004H   BYTE   UNIT     XDATA          ?XD?ENCODER_GET_COUNT?ZF_DRIVER_ENCODER
011F0CH   011F0FH   000004H   BYTE   UNIT     XDATA          ?XD?EXTI_INIT?ZF_DRIVER_EXTI
011F10H   011F13H   000004H   BYTE   UNIT     XDATA          ?XD?GPIO_SET_MODE?ZF_DRIVER_GPIO
011F14H   011F17H   000004H   BYTE   UNIT     XDATA          ?XD?GPIO_SET_DIR?ZF_DRIVER_GPIO
011F18H   011F1BH   000004H   BYTE   UNIT     XDATA          ?XD?GPIO_SET_IMPEDANCE?ZF_DRIVER_GPIO
011F1CH   011F1FH   000004H   BYTE   UNIT     XDATA          ?XD?SOFT_IIC_START?ZF_DRIVER_SOFT_IIC
011F20H   011F23H   000004H   BYTE   UNIT     XDATA          ?XD?SOFT_IIC_STOP?ZF_DRIVER_SOFT_IIC
011F24H   011F27H   000004H   BYTE   UNIT     XDATA          ?XD?SPI_READ_DAT?ZF_DRIVER_SPI
011F28H   011F2BH   000004H   BYTE   UNIT     XDATA          ?XD?SPI_WRITE_16BIT?ZF_DRIVER_SPI
011F2CH   011F2FH   000004H   BYTE   UNIT     XDATA          ?XD?SPI_WRITE_8BIT_REGISTER?ZF_DRIVER_SPI
011F30H   011F33H   000004H   BYTE   UNIT     XDATA          ?XD?SPI_READ_16BIT?ZF_DRIVER_SPI
011F34H   011F37H   000004H   BYTE   UNIT     XDATA          ?XD?VOLTAGE_WARNING_INIT?VOLTAGE_WARNING
011F38H   011F3BH   000004H   BYTE   UNIT     XDATA          ?XD?ICM20602_SELF_CHECK?ZF_DEVICE_ICM20602
011F3CH   011F3FH   000004H   BYTE   UNIT     XDATA          ?XD?ICM20602_INIT?ZF_DEVICE_ICM20602
011F40H   011F43H   000004H   BYTE   UNIT     XDATA          ?XD?IMU660RA_SELF_CHECK?ZF_DEVICE_IMU660RA
011F44H   011F47H   000004H   BYTE   UNIT     XDATA          ?XD?IMU660RB_SELF_CHECK?ZF_DEVICE_IMU660RB
011F48H   011F4BH   000004H   BYTE   UNIT     XDATA          ?XD?IMU963RA_READ_MAG_REGISTER?ZF_DEVICE_IMU963RA
011F4CH   011F4FH   000004H   BYTE   UNIT     XDATA          ?XD?IMU963RA_ACC_GYRO_SELF_CHECK?ZF_DEVICE_IMU963RA
011F50H   011F53H   000004H   BYTE   UNIT     XDATA          ?XD?IMU963RA_MAG_SELF_CHECK?ZF_DEVICE_IMU963RA
011F54H   011F57H   000004H   BYTE   UNIT     XDATA          ?XD?IPS114_SET_COLOR?ZF_DEVICE_IPS114
011F58H   011F5BH   000004H   BYTE   UNIT     XDATA          ?XD?IPS200_SET_COLOR?ZF_DEVICE_IPS200
011F5CH   011F5FH   000004H   BYTE   UNIT     XDATA          ?XD?IPS200PRO_WAIT_IDLE?ZF_DEVICE_IPS200PRO
011F60H   011F63H   000004H   BYTE   UNIT     XDATA          ?XD?IPS200PRO_PAGE_HIDDEN?ZF_DEVICE_IPS200PRO
011F64H   011F67H   000004H   BYTE   UNIT     XDATA          ?XD?TFT180_SET_COLOR?ZF_DEVICE_TFT180
011F68H   011F6BH   000004H   BYTE   UNIT     XDATA          ?XD?TSL1401_SEND_DATA?ZF_DEVICE_TSL1401
011F6CH   011F6FH   000004H   BYTE   UNIT     XDATA          ?XD?FIRST_COMPLEMENT_INIT?IMU
011F70H   011F73H   000004H   BYTE   UNIT     XDATA          ?XD?MY_ABS?IMU
011F74H   011F77H   000004H   BYTE   INSEG    XDATA          ?XD?SEEKFREE_ASSISTANT_INTERFACE
011F78H   011F7BH   000004H   BYTE   UNIT     XDATA          ?XD?MOTOR_SETSPEED?MOTO
011F7CH   011F7FH   000004H   BYTE   UNIT     XDATA          ?XD?MENU_DISPLAY?MENU
011F80H   011F82H   000003H   BYTE   UNIT     XDATA          ?XD?INTERRUPT_SET_PRIORITY?ZF_COMMON_INTERRUPT
011F83H   011F85H   000003H   BYTE   UNIT     XDATA          ?XD?SPI_WRITE_DAT?ZF_DRIVER_SPI
011F86H   011F88H   000003H   BYTE   UNIT     XDATA          ?XD?SPI_WRITE_8BIT?ZF_DRIVER_SPI
L251 LINKER/LOCATER V4.66.93.0                                                        04/19/2026  22:06:36  PAGE 10


011F89H   011F8BH   000003H   BYTE   UNIT     XDATA          ?XD?SPI_READ_8BIT_REGISTER?ZF_DRIVER_SPI
011F8CH   011F8EH   000003H   BYTE   UNIT     XDATA          ?XD?UART_WRITE_BYTE?ZF_DRIVER_UART
011F8FH   011F91H   000003H   BYTE   UNIT     XDATA          ?XD?UART_RX_INTERRUPT?ZF_DRIVER_UART
011F92H   011F94H   000003H   BYTE   UNIT     XDATA          ?XD?UART_READ_BYTE?ZF_DRIVER_UART
011F95H   011F97H   000003H   BYTE   UNIT     XDATA          ?XD?BLE6A20_SEND_BYTE?ZF_DEVICE_BLE6A20
011F98H   011F9AH   000003H   BYTE   UNIT     XDATA          ?XD?DL1A_GET_VCSEL_PULSE_PERIOD?ZF_DEVICE_DL1A
011F9BH   011F9DH   000003H   BYTE   UNIT     XDATA          ?XD?DL1A_GET_DISTANCE?ZF_DEVICE_DL1A
011F9EH   011FA0H   000003H   BYTE   UNIT     XDATA          ?XD?IMU660RA_READ_REGISTER?ZF_DEVICE_IMU660RA
011FA1H   011FA3H   000003H   BYTE   UNIT     XDATA          ?XD?WIRELESS_UART_SEND_BYTE?ZF_DEVICE_WIRELESS_UART
011FA4H   011FA5H   000002H   BYTE   UNIT     XDATA          ?XD?DELAY_CYCLES?ZF_DRIVER_DELAY
011FA6H   011FA7H   000002H   BYTE   UNIT     XDATA          ?XD?SYSTEM_DELAY_MS?ZF_DRIVER_DELAY
011FA8H   011FA9H   000002H   BYTE   UNIT     XDATA          ?XD?SYSTEM_DELAY_US?ZF_DRIVER_DELAY
011FAAH   011FABH   000002H   BYTE   UNIT     XDATA          ?XD?ENCODER_CLEAR_COUNT?ZF_DRIVER_ENCODER
011FACH   011FADH   000002H   BYTE   UNIT     XDATA          ?XD?EXTI_ENABLE?ZF_DRIVER_EXTI
011FAEH   011FAFH   000002H   BYTE   UNIT     XDATA          ?XD?EXTI_DISABLE?ZF_DRIVER_EXTI
011FB0H   011FB1H   000002H   BYTE   UNIT     XDATA          ?XD?GPIO_TOGGLE_LEVEL?ZF_DRIVER_GPIO
011FB2H   011FB3H   000002H   BYTE   UNIT     XDATA          ?XD?SPI_READ_8BIT?ZF_DRIVER_SPI
011FB4H   011FB5H   000002H   BYTE   UNIT     XDATA          ?XD?UART_RX_START_BUFF?ZF_DRIVER_UART
011FB6H   011FB7H   000002H   BYTE   UNIT     XDATA          ?XD?UART_DMA_INIT?ZF_DRIVER_UART
011FB8H   011FB9H   000002H   BYTE   INSEG    XDATA          ?XD?EEPROM
011FBAH   011FBBH   000002H   BYTE   UNIT     XDATA          ?XD?DL1A_DECODE_TIMEOUT?ZF_DEVICE_DL1A
011FBCH   011FBDH   000002H   BYTE   UNIT     XDATA          ?XD?DL1A_ENCODE_TIMEOUT?ZF_DEVICE_DL1A
011FBEH   011FBFH   000002H   BYTE   UNIT     XDATA          ?XD?ICM20602_SIMSPI_WR_BYTE?ZF_DEVICE_ICM20602
011FC0H   011FC1H   000002H   BYTE   UNIT     XDATA          ?XD?ICM20602_SIMSPI_W_REG_BYTE?ZF_DEVICE_ICM20602
011FC2H   011FC3H   000002H   BYTE   UNIT     XDATA          ?XD?ICM20602_WRITE_REGISTER?ZF_DEVICE_ICM20602
011FC4H   011FC5H   000002H   BYTE   UNIT     XDATA          ?XD?ICM20602_READ_REGISTER?ZF_DEVICE_ICM20602
011FC6H   011FC7H   000002H   BYTE   UNIT     XDATA          ?XD?IMU660RA_SIMSPI_WR_BYTE?ZF_DEVICE_IMU660RA
011FC8H   011FC9H   000002H   BYTE   UNIT     XDATA          ?XD?IMU660RA_SIMSPI_W_REG_BYTE?ZF_DEVICE_IMU660RA
011FCAH   011FCBH   000002H   BYTE   UNIT     XDATA          ?XD?IMU660RA_WRITE_REGISTER?ZF_DEVICE_IMU660RA
011FCCH   011FCDH   000002H   BYTE   UNIT     XDATA          ?XD?IMU660RB_SIMSPI_WR_BYTE?ZF_DEVICE_IMU660RB
011FCEH   011FCFH   000002H   BYTE   UNIT     XDATA          ?XD?IMU660RB_SIMSPI_W_REG_BYTE?ZF_DEVICE_IMU660RB
011FD0H   011FD1H   000002H   BYTE   UNIT     XDATA          ?XD?IMU660RB_WRITE_REGISTER?ZF_DEVICE_IMU660RB
011FD2H   011FD3H   000002H   BYTE   UNIT     XDATA          ?XD?IMU660RB_READ_REGISTER?ZF_DEVICE_IMU660RB
011FD4H   011FD5H   000002H   BYTE   UNIT     XDATA          ?XD?IMU963RA_WRITE_ACC_GYRO_REGISTER?ZF_DEVICE_IMU963RA
011FD6H   011FD7H   000002H   BYTE   UNIT     XDATA          ?XD?IMU963RA_READ_ACC_GYRO_REGISTER?ZF_DEVICE_IMU963RA
011FD8H   011FD9H   000002H   BYTE   UNIT     XDATA          ?XD?IMU963RA_CONNECT_MAG?ZF_DEVICE_IMU963RA
011FDAH   011FDBH   000002H   BYTE   UNIT     XDATA          ?XD?IPS114_SET_DIR?ZF_DEVICE_IPS114
011FDCH   011FDDH   000002H   BYTE   UNIT     XDATA          ?XD?IPS200_SET_DIR?ZF_DEVICE_IPS200
011FDEH   011FDFH   000002H   BYTE   UNIT     XDATA          ?XD?TFT180_SET_DIR?ZF_DEVICE_TFT180
011FE0H   011FE1H   000002H   BYTE   UNIT     XDATA          ?XD?IMU_GYRO_OFFSET_INIT?IMU
011FE2H   011FE3H   000002H   BYTE   UNIT     XDATA          ?XD?SEEKFREE_ASSISTANT_INTERFACE_INIT?SEEKFREE_ASSISTANT_I
                                                             -NTERFACE
011FE4H   011FE5H   000002H   BYTE   INSEG    XDATA          ?XD?ENCODER
011FE6H   011FE7H   000002H   BYTE   UNIT     XDATA          ?XD?ABS?MOTO
011FE8H   011FE9H   000002H   BYTE   UNIT     XDATA          ?XD?LED_ON?LED
011FEAH   011FEBH   000002H   BYTE   UNIT     XDATA          ?XD?LED_OFF?LED
011FECH   011FEDH   000002H   BYTE   UNIT     XDATA          ?XD?LED_SWITCH?LED
011FEEH   011FEEH   000001H   BYTE   UNIT     XDATA          ?XD?DEBUG_INTERRUPR_HANDLER?ZF_COMMON_DEBUG
011FEFH   011FEFH   000001H   BYTE   UNIT     XDATA          ?XD?PUTCHAR?ZF_COMMON_DEBUG
011FF0H   011FF0H   000001H   BYTE   UNIT     XDATA          ?XD?DEBUG_INIT?ZF_COMMON_DEBUG
011FF1H   011FF1H   000001H   BYTE   UNIT     XDATA          ?XD?IAP_SET_TPS?ZF_DRIVER_EEPROM
011FF2H   011FF2H   000001H   BYTE   UNIT     XDATA          ?XD?BLE6A20_CALLBACK?ZF_DEVICE_BLE6A20
011FF3H   011FF3H   000001H   BYTE   UNIT     XDATA          ?XD?BLE6A20_INIT?ZF_DEVICE_BLE6A20
011FF4H   011FF4H   000001H   BYTE   UNIT     XDATA          ?XD?DL1B_INIT?ZF_DEVICE_DL1B
011FF5H   011FF5H   000001H   BYTE   UNIT     XDATA          ?XD?IMU660RA_INIT?ZF_DEVICE_IMU660RA
011FF6H   011FF6H   000001H   BYTE   UNIT     XDATA          ?XD?IMU660RB_INIT?ZF_DEVICE_IMU660RB
011FF7H   011FF7H   000001H   BYTE   UNIT     XDATA          ?XD?IMU963RA_INIT?ZF_DEVICE_IMU963RA
011FF8H   011FF8H   000001H   BYTE   UNIT     XDATA          ?XD?IPS114_WRITE_INDEX?ZF_DEVICE_IPS114
011FF9H   011FF9H   000001H   BYTE   UNIT     XDATA          ?XD?IPS200_WRITE_INDEX?ZF_DEVICE_IPS200
011FFAH   011FFAH   000001H   BYTE   UNIT     XDATA          ?XD?TFT180_WRITE_INDEX?ZF_DEVICE_TFT180
011FFBH   011FFBH   000001H   BYTE   UNIT     XDATA          ?XD?TSL1401_COLLECT_PIT_HANDLER?ZF_DEVICE_TSL1401
011FFCH   011FFCH   000001H   BYTE   UNIT     XDATA          ?XD?WIRELESS_UART_CALLBACK?ZF_DEVICE_WIRELESS_UART
011FFDH   011FFDH   000001H   BYTE   UNIT     XDATA          ?XD?WIRELESS_UART_INIT?ZF_DEVICE_WIRELESS_UART
011FFEH   011FFEH   000001H   BYTE   INSEG    XDATA          ?XD?ISR
011FFFH   FEFFFFH   FDE001H   ---    ---      **GAP**
L251 LINKER/LOCATER V4.66.93.0                                                        04/19/2026  22:06:36  PAGE 11


FF0000H   FF0002H   000003H   ---    OFFS..   CODE           ?CO?START251?4
FF0003H   FF0005H   000003H   ---    OFFS..   CODE           ?PR?IV?0
FF0006H   FF0009H   000004H   BYTE   INSEG    CODE           ?PR?INTERRUPT_GLOBAL_ENABLE?ZF_COMMON_INTERRUPT
FF000AH   FF000AH   000001H   ---    ---      **GAP**
FF000BH   FF000DH   000003H   ---    OFFS..   CODE           ?PR?IV?1
FF000EH   FF0011H   000004H   BYTE   UNIT     CONST          ?CO?PRINTF
FF0012H   FF0012H   000001H   ---    ---      **GAP**
FF0013H   FF0015H   000003H   ---    OFFS..   CODE           ?PR?IV?2
FF0016H   FF0017H   000002H   BYTE   UNIT     HCONST         ?HC?MAIN
FF0018H   FF001AH   000003H   ---    ---      **GAP**
FF001BH   FF001DH   000003H   ---    OFFS..   CODE           ?PR?IV?3
FF001EH   FF0022H   000005H   ---    ---      **GAP**
FF0023H   FF0025H   000003H   ---    OFFS..   CODE           ?PR?IV?4
FF0026H   FF0042H   00001DH   BYTE   INSEG    CODE           ?PR?IMU660RA_SIMSPI_W_REG_BYTE?ZF_DEVICE_IMU660RA
FF0043H   FF0045H   000003H   ---    OFFS..   CODE           ?PR?IV?8
FF0046H   FF0050H   00000BH   BYTE   INSEG    CODE           ?PR?OSCILLOSCOPE_INIT?MENU
FF0051H   FF0052H   000002H   ---    ---      **GAP**
FF0053H   FF0055H   000003H   ---    OFFS..   CODE           ?PR?IV?10
FF0056H   FF005AH   000005H   ---    ---      **GAP**
FF005BH   FF005DH   000003H   ---    OFFS..   CODE           ?PR?IV?11
FF005EH   FF0062H   000005H   ---    ---      **GAP**
FF0063H   FF0065H   000003H   ---    OFFS..   CODE           ?PR?IV?12
FF0066H   FF007DH   000018H   BYTE   INSEG    CODE           ?PR?SPI_WRITE_8BIT?ZF_DRIVER_SPI
FF007EH   FF0082H   000005H   ---    ---      **GAP**
FF0083H   FF0085H   000003H   ---    OFFS..   CODE           ?PR?IV?16
FF0086H   FF008AH   000005H   ---    ---      **GAP**
FF008BH   FF008DH   000003H   ---    OFFS..   CODE           ?PR?IV?17
FF008EH   FF0092H   000005H   ---    ---      **GAP**
FF0093H   FF0095H   000003H   ---    OFFS..   CODE           ?PR?IV?18
FF0096H   FF009AH   000005H   ---    ---      **GAP**
FF009BH   FF009DH   000003H   ---    OFFS..   CODE           ?PR?IV?19
FF009EH   FF00A2H   000005H   ---    ---      **GAP**
FF00A3H   FF00A5H   000003H   ---    OFFS..   CODE           ?PR?IV?20
FF00A6H   FF0199H   0000F4H   BYTE   INSEG    CODE           ?PR?SOFT_IIC_SEND_DATA?ZF_DRIVER_SOFT_IIC
FF019AH   FF019AH   000001H   ---    ---      **GAP**
FF019BH   FF019DH   000003H   ---    OFFS..   CODE           ?CO?stc32g_isr?1
FF019EH   FF01A7H   00000AH   BYTE   INSEG    CODE           ?PR?GYRO_PROC?IMU
FF01A8H   FF01AAH   000003H   ---    ---      **GAP**
FF01ABH   FF01ADH   000003H   ---    OFFS..   CODE           ?CO?stc32g_isr?2
FF01AEH   FF01B7H   00000AH   BYTE   INSEG    CODE           ?PR?PIT_HANDLER?ENCODER
FF01B8H   FF01BAH   000003H   ---    ---      **GAP**
FF01BBH   FF01BDH   000003H   ---    OFFS..   CODE           ?CO?stc32g_isr?3
FF01BEH   FF01CAH   00000DH   ---    ---      **GAP**
FF01CBH   FF01CDH   000003H   ---    OFFS..   CODE           ?CO?stc32g_isr?4
FF01CEH   FF21CDH   002000H   BYTE   UNIT     CODE           ?CO?ZF_DEVICE_CONFIG
FF21CEH   FF3070H   000EA3H   BYTE   UNIT     CODE           ?C?LIB_CODE
FF3071H   FF36B3H   000643H   BYTE   INSEG    CODE           ?PR?PWM_INIT?ZF_DRIVER_PWM
FF36B4H   FF3CA3H   0005F0H   BYTE   UNIT     CODE           ?CO?ZF_COMMON_FONT
FF3CA4H   FF4254H   0005B1H   BYTE   INSEG    CODE           ?PR?FIFO_READ_BUFFER?ZF_COMMON_FIFO
FF4255H   FF47FCH   0005A8H   BYTE   INSEG    CODE           ?PR?FIFO_WRITE_BUFFER?ZF_COMMON_FIFO
FF47FDH   FF4D80H   000584H   BYTE   INSEG    CODE           ?PR?GPIO_SET_DIR?ZF_DRIVER_GPIO
FF4D81H   FF5259H   0004D9H   BYTE   INSEG    CODE           ?PR?SPI_INIT?ZF_DRIVER_SPI
FF525AH   FF5631H   0003D8H   BYTE   INSEG    CODE           ?PR?FIRST_COMPLEMENT_INIT?IMU
FF5632H   FF5944H   000313H   BYTE   INSEG    CODE           ?PR?GPIO_SET_LEVEL_SPEED?ZF_DRIVER_GPIO
FF5945H   FF5C35H   0002F1H   BYTE   INSEG    CODE           ?PR?UART_INIT?ZF_DRIVER_UART
FF5C36H   FF5F1DH   0002E8H   BYTE   INSEG    CODE           ?PR?GPIO_SET_MODE?ZF_DRIVER_GPIO
FF5F1EH   FF61DFH   0002C2H   BYTE   INSEG    CODE           ?PR?IPS114_INIT?ZF_DEVICE_IPS114
FF61E0H   FF6462H   000283H   BYTE   INSEG    CODE           ?PR?PIT_INIT?ZF_DRIVER_PIT
FF6463H   FF66A7H   000245H   BYTE   INSEG    CODE           ?PR?IPS114_SET_REGION?ZF_DEVICE_IPS114
FF66A8H   FF68CFH   000228H   BYTE   INSEG    CODE           ?PR?KALMANFILTER?IMU
FF68D0H   FF6AE4H   000215H   BYTE   INSEG    CODE           ?PR?GPIO_SET_LEVEL?ZF_DRIVER_GPIO
FF6AE5H   FF6CF5H   000211H   BYTE   INSEG    CODE           ?PR?SET_SYS_CLK?ZF_COMMON_CLOCK
FF6CF6H   FF6EE9H   0001F4H   BYTE   INSEG    CODE           ?PR?IMU660RA_INIT?ZF_DEVICE_IMU660RA
FF6EEAH   FF70BFH   0001D6H   BYTE   INSEG    CODE           ?PR?UART_WRITE_BUFFER?ZF_DRIVER_UART
FF70C0H   FF7271H   0001B2H   BYTE   INSEG    CODE           ?PR?GPIO_SET_IMPEDANCE?ZF_DRIVER_GPIO
L251 LINKER/LOCATER V4.66.93.0                                                        04/19/2026  22:06:36  PAGE 12


FF7272H   FF741CH   0001ABH   BYTE   INSEG    CODE           ?PR?IMU_HANDLE_360?IMU
FF741DH   FF75BFH   0001A3H   BYTE   INSEG    CODE           ?PR?UART_DMA_INIT?ZF_DRIVER_UART
FF75C0H   FF7762H   0001A3H   BYTE   INSEG    CODE           ?PR?_M?MAIN
FF7763H   FF78FCH   00019AH   BYTE   INSEG    CODE           ?PR?INDUCTANCE_READ?INDUCTANCE
FF78FDH   FF7A90H   000194H   BYTE   INSEG    CODE           ?PR?PID_INIT?TRANK
FF7A91H   FF7C14H   000184H   BYTE   INSEG    CODE           ?PR?IMU_GETVALUES?IMU
FF7C15H   FF7D5AH   000146H   BYTE   INSEG    CODE           ?PR?GPIO_GET_LEVEL?ZF_DRIVER_GPIO
FF7D5BH   FF7E9CH   000142H   BYTE   INSEG    CODE           ?PR?SOFT_IIC_READ_DATA?ZF_DRIVER_SOFT_IIC
FF7E9DH   FF7FD3H   000137H   BYTE   INSEG    CODE           ?PR?MEDIAN_AVERAGE_FILTER?INDUCTANCE
FF7FD4H   FF80F2H   00011FH   BYTE   INSEG    CODE           ?PR?IMU_GYRO_OFFSET_INIT?IMU
FF80F3H   FF820EH   00011CH   BYTE   INSEG    CODE           ?PR?IPS114_SHOW_CHAR?ZF_DEVICE_IPS114
FF820FH   FF8327H   000119H   BYTE   INSEG    CODE           ?PR?IPS114_SHOW_UINT16?ZF_DEVICE_IPS114
FF8328H   FF843AH   000113H   BYTE   INSEG    CODE           ?PR?IMU_HANDLE_180?IMU
FF843BH   FF854AH   000110H   BYTE   INSEG    CODE           ?PR?WIRELESS_UART_SEND_BUFFER?ZF_DEVICE_WIRELESS_UART
FF854BH   FF8659H   00010FH   BYTE   INSEG    CODE           ?PR?GPIO_INIT?ZF_DRIVER_GPIO
FF865AH   FF8766H   00010DH   BYTE   INSEG    CODE           ?PR?ENCODER_DIR_INIT?ZF_DRIVER_ENCODER
FF8767H   FF8854H   0000EEH   BYTE   INSEG    CODE           ?PR?KALMANCREATE?IMU
FF8855H   FF8937H   0000E3H   BYTE   INSEG    CODE           ?PR?FIFO_INIT?ZF_COMMON_FIFO
FF8938H   FF8A1AH   0000E3H   BYTE   INSEG    CODE           ?PR?SOFT_IIC_WAIT_ACK?ZF_DRIVER_SOFT_IIC
FF8A1BH   FF8AF5H   0000DBH   BYTE   INSEG    CODE           ?PR?SOFT_IIC_SEND_ACK?ZF_DRIVER_SOFT_IIC
FF8AF6H   FF8BBEH   0000C9H   BYTE   INSEG    CODE           ?PR?IMU_YAW_INTEGRAL?IMU
FF8BBFH   FF8C83H   0000C5H   BYTE   INSEG    CODE           ?PR?ADC_INIT?ZF_DRIVER_ADC
FF8C84H   FF8D45H   0000C2H   BYTE   INSEG    CODE           ?PR?UART_RX_START_BUFF?ZF_DRIVER_UART
FF8D46H   FF8E04H   0000BFH   BYTE   INSEG    CODE           ?PR?SOFT_IIC_STOP?ZF_DRIVER_SOFT_IIC
FF8E05H   FF8EB5H   0000B1H   BYTE   INSEG    CODE           ?PR?IMU660RA_READ_REGISTERS?ZF_DEVICE_IMU660RA
FF8EB6H   FF8F65H   0000B0H   BYTE   INSEG    CODE           ?PR?DMA_UART1_IRQHANDLER?ISR
FF8F66H   FF900CH   0000A7H   BYTE   INSEG    CODE           ?PR?DEBUG_INIT?ZF_COMMON_DEBUG
FF900DH   FF90B3H   0000A7H   BYTE   INSEG    CODE           ?PR?SOFT_IIC_START?ZF_DRIVER_SOFT_IIC
FF90B4H   FF9153H   0000A0H   BYTE   INSEG    CODE           ?PR?FIFO_HEAD_OFFSET?ZF_COMMON_FIFO
FF9154H   FF91F3H   0000A0H   BYTE   INSEG    CODE           ?PR?FIFO_END_OFFSET?ZF_COMMON_FIFO
FF91F4H   FF9292H   00009FH   BYTE   INSEG    CODE           ?PR?UART_QUERY_BYTE?ZF_DRIVER_UART
FF9293H   FF9331H   00009FH   BYTE   INSEG    CODE           ?PR?SET_WIRELESS_TYPE?ZF_DEVICE_TYPE
FF9332H   FF93C0H   00008FH   BYTE   INSEG    CODE           ?PR?DMA_UART2_IRQHANDLER?ISR
FF93C1H   FF944FH   00008FH   BYTE   INSEG    CODE           ?PR?DMA_UART3_IRQHANDLER?ISR
FF9450H   FF94DEH   00008FH   BYTE   INSEG    CODE           ?PR?DMA_UART4_IRQHANDLER?ISR
FF94DFH   FF9567H   000089H   BYTE   INSEG    CODE           ?PR?ADC_NORMALIZE_0_100?INDUCTANCE
FF9568H   FF95ECH   000085H   BYTE   INSEG    CODE           ?PR?IPS114_CLEAR?ZF_DEVICE_IPS114
FF95EDH   FF9670H   000084H   BYTE   INSEG    CODE           ?PR?WIRELESS_UART_READ_BUFFER?ZF_DEVICE_WIRELESS_UART
FF9671H   FF96F1H   000081H   BYTE   INSEG    CODE           ?PR?CLOCK_INIT?ZF_COMMON_CLOCK
FF96F2H   FF9772H   000081H   BYTE   INSEG    CODE           ?PR?TIMER_FUNCITON_CHECK?ZF_DRIVER_TIMER
FF9773H   FF97F3H   000081H   BYTE   INSEG    CODE           ?PR?UART_FUNCITON_CHECK?ZF_DRIVER_UART
FF97F4H   FF9874H   000081H   BYTE   INSEG    CODE           ?PR?WIRELESS_UART_INIT?ZF_DEVICE_WIRELESS_UART
FF9875H   FF98F1H   00007DH   BYTE   INSEG    CODE           ?PR?ALL_INIT?ALL_INIT
FF98F2H   FF996AH   000079H   BYTE   INSEG    CODE           ?PR?DEBUG_ASSERT_HANDLER?ZF_COMMON_DEBUG
FF996BH   FF99E2H   000078H   BYTE   INSEG    CODE           ?PR?SPI_READ_DAT?ZF_DRIVER_SPI
FF99E3H   FF9A52H   000070H   BYTE   INSEG    CODE           ?PR?IMU660RA_SIMSPI_R_REG_BYTES?ZF_DEVICE_IMU660RA
FF9A53H   FF9AB8H   000066H   BYTE   INSEG    CODE           ?PR?UART_RX_INTERRUPT?ZF_DRIVER_UART
FF9AB9H   FF9B1DH   000065H   BYTE   INSEG    CODE           ?PR?ADC_CONVERT?ZF_DRIVER_ADC
FF9B1EH   FF9B82H   000065H   BYTE   INSEG    CODE           ?PR?IMU660RA_SELF_CHECK?ZF_DEVICE_IMU660RA
FF9B83H   FF9BDEH   00005CH   BYTE   INSEG    CODE           ?PR?SPI_WRITE_DAT?ZF_DRIVER_SPI
FF9BDFH   FF9C3AH   00005CH   BYTE   INSEG    CODE           ?PR?IMU660RA_SIMSPI_W_REG_BYTES?ZF_DEVICE_IMU660RA
FF9C3BH   FF9C94H   00005AH   BYTE   INSEG    CODE           ?PR?IMU660RA_GET_GYRO?ZF_DEVICE_IMU660RA
FF9C95H   FF9CEEH   00005AH   BYTE   INSEG    CODE           ?PR?IMU660RA_GET_ACC?ZF_DEVICE_IMU660RA
FF9CEFH   FF9D47H   000059H   BYTE   INSEG    CODE           ?PR?FIFO_USED?ZF_COMMON_FIFO
FF9D48H   FF9D9FH   000058H   BYTE   INSEG    CODE           ?PR?SYSTEM_DELAY_INIT?ZF_DRIVER_DELAY
FF9DA0H   FF9DC0H   000021H   BYTE   UNIT     CODE           ?C_C51STARTUP
FF9DC1H   FF9DF1H   000031H   BYTE   UNIT     CODE           ?C_C51STARTUP?2
FF9DF2H   FF9DF4H   000003H   BYTE   UNIT     CODE           ?C_C51STARTUP?3
FF9DF5H   FF9E47H   000053H   BYTE   INSEG    CODE           ?PR?IMU660RA_SIMSPI_WR_BYTE?ZF_DEVICE_IMU660RA
FF9E48H   FF9E95H   00004EH   BYTE   INSEG    CODE           ?PR?GYRO_INIT?IMU
FF9E96H   FF9EE1H   00004CH   BYTE   INSEG    CODE           ?PR?ENCODER_INIT?ENCODER
FF9EE2H   FF9F21H   000040H   BYTE   INSEG    CODE           ?PR?INT0_IRQHANDLER?ISR
FF9F22H   FF9F61H   000040H   BYTE   INSEG    CODE           ?PR?INT1_IRQHANDLER?ISR
FF9F62H   FF9FA1H   000040H   BYTE   INSEG    CODE           ?PR?INT2_IRQHANDLER?ISR
FF9FA2H   FF9FE1H   000040H   BYTE   INSEG    CODE           ?PR?INT3_IRQHANDLER?ISR
L251 LINKER/LOCATER V4.66.93.0                                                        04/19/2026  22:06:36  PAGE 13


FF9FE2H   FFA021H   000040H   BYTE   INSEG    CODE           ?PR?INT4_IRQHANDLER?ISR
FFA022H   FFA061H   000040H   BYTE   INSEG    CODE           ?PR?TM0_IRQHANDLER?ISR
FFA062H   FFA0A1H   000040H   BYTE   INSEG    CODE           ?PR?TM1_IRQHANDLER?ISR
FFA0A2H   FFA0E1H   000040H   BYTE   INSEG    CODE           ?PR?TM2_IRQHANDLER?ISR
FFA0E2H   FFA121H   000040H   BYTE   INSEG    CODE           ?PR?TM3_IRQHANDLER?ISR
FFA122H   FFA161H   000040H   BYTE   INSEG    CODE           ?PR?TM4_IRQHANDLER?ISR
FFA162H   FFA19DH   00003CH   BYTE   INSEG    CODE           ?PR?DEBUG_INTERRUPR_HANDLER?ZF_COMMON_DEBUG
FFA19EH   FFA1D9H   00003CH   BYTE   INSEG    CODE           ?PR?SOFT_IIC_DELAY?ZF_DRIVER_SOFT_IIC
FFA1DAH   FFA214H   00003BH   BYTE   INSEG    CODE           ?PR?SPI_WRITE_16BIT?ZF_DRIVER_SPI
FFA215H   FFA24FH   00003BH   BYTE   INSEG    CODE           ?PR?IPS114_SET_DIR?ZF_DEVICE_IPS114
FFA250H   FFA289H   00003AH   BYTE   INSEG    CODE           ?PR?IMU660RA_WRITE_REGISTERS?ZF_DEVICE_IMU660RA
FFA28AH   FFA2C0H   000037H   BYTE   INSEG    CODE           ?PR?IMU_HANDLE_0?IMU
FFA2C1H   FFA2F5H   000035H   BYTE   INSEG    CODE           ?PR?MY_ABS?IMU
FFA2F6H   FFA323H   00002EH   BYTE   INSEG    CODE           ?PR?SEEKFREE_ASSISTANT_INIT?SEEKFREE_ASSISTANT
FFA324H   FFA34FH   00002CH   BYTE   INSEG    CODE           ?PR?MAIN?MAIN
FFA350H   FFA377H   000028H   BYTE   INSEG    CODE           ?PR?IMU660RA_READ_REGISTER?ZF_DEVICE_IMU660RA
FFA378H   FFA39DH   000026H   BYTE   INSEG    CODE           ?PR?WIRELESS_UART_CALLBACK?ZF_DEVICE_WIRELESS_UART
FFA39EH   FFA3C2H   000025H   BYTE   INSEG    CODE           ?PR?SYSTEM_DELAY_MS?ZF_DRIVER_DELAY
FFA3C3H   FFA3E7H   000025H   BYTE   INSEG    CODE           ?PR?IPS114_SET_COLOR?ZF_DEVICE_IPS114
FFA3E8H   FFA40CH   000025H   BYTE   INSEG    CODE           ?PR?INDUCTANCE_INIT?INDUCTANCE
FFA40DH   FFA431H   000025H   BYTE   INSEG    CODE           ?PR?MEMCPY?_?MEMCPY
FFA432H   FFA454H   000023H   BYTE   INSEG    CODE           ?PR?LED_INIT?LED
FFA455H   FFA476H   000022H   BYTE   INSEG    CODE           ?PR?IPS114_WRITE_INDEX?ZF_DEVICE_IPS114
FFA477H   FFA496H   000020H   BYTE   INSEG    CODE           ?PR?UART_WRITE_BYTE?ZF_DRIVER_UART
FFA497H   FFA4B4H   00001EH   BYTE   INSEG    CODE           ?PR?DELAY_CYCLES?ZF_DRIVER_DELAY
FFA4B5H   FFA4D2H   00001EH   BYTE   INSEG    CODE           ?PR?IMU660RA_WRITE_REGISTER?ZF_DEVICE_IMU660RA
FFA4D3H   FFA4E4H   000012H   BYTE   INSEG    CODE           ?PR?PUTCHAR?ZF_COMMON_DEBUG
FFA4E5H   FFA4F2H   00000EH   BYTE   INSEG    CODE           ?PR?PARAMETER_DEBUG_INIT?MENU
FFA4F3H   FFAA7BH   000589H   BYTE   UNIT     HCONST         ?C_INITHDATA
FFAA7CH   FFAC7BH   000200H   BYTE   UNIT     HCONST         ?HC?ZF_DRIVER_EEPROM
FFAC7CH   FFADAAH   00012FH   BYTE   UNIT     HCONST         ?HC?ZF_DEVICE_DL1A
FFADABH   FFAE7AH   0000D0H   BYTE   UNIT     HCONST         ?HC?ZF_DEVICE_IMU963RA
FFAE7BH   FFAF21H   0000A7H   BYTE   UNIT     HCONST         ?HC?ZF_DEVICE_IMU660RA
FFAF22H   FFAFC5H   0000A4H   BYTE   UNIT     HCONST         ?HC?SEEKFREE_ASSISTANT
FFAFC6H   FFB067H   0000A2H   BYTE   UNIT     HCONST         ?HC?ZF_DEVICE_GPS_TAU1201
FFB068H   FFB0F1H   00008AH   BYTE   UNIT     HCONST         ?HC?ZF_DRIVER_PWM
FFB0F2H   FFB179H   000088H   BYTE   UNIT     HCONST         ?HC?ZF_DEVICE_ICM20602
FFB17AH   FFB1F4H   00007BH   BYTE   UNIT     HCONST         ?HC?MENU
FFB1F5H   FFB25FH   00006BH   BYTE   UNIT     HCONST         ?HC?ZF_DRIVER_UART
FFB260H   FFB2B6H   000057H   BYTE   UNIT     HCONST         ?HC?ZF_COMMON_FUNCTION
FFB2B7H   FFB2EAH   000034H   BYTE   UNIT     HCONST         ?HC?ZF_DEVICE_WIRELESS_UART
FFB2EBH   FFB31DH   000033H   BYTE   UNIT     HCONST         ?HC?ZF_DEVICE_IPS114
FFB31EH   FFB350H   000033H   BYTE   UNIT     HCONST         ?HC?ZF_DEVICE_IPS200
FFB351H   FFB383H   000033H   BYTE   UNIT     HCONST         ?HC?ZF_DEVICE_TFT180
FFB384H   FFB3B2H   00002FH   BYTE   UNIT     HCONST         ?HC?ZF_DRIVER_SOFT_IIC
FFB3B3H   FFB3E1H   00002FH   BYTE   UNIT     HCONST         ?HC?ZF_DRIVER_SOFT_SPI
FFB3E2H   FFB40FH   00002EH   BYTE   UNIT     HCONST         ?HC?ZF_DRIVER_ENCODER
FFB410H   FFB43DH   00002EH   BYTE   UNIT     HCONST         ?HC?ZF_DEVICE_BLE6A20
FFB43EH   FFB468H   00002BH   BYTE   UNIT     HCONST         ?HC?ZF_COMMON_FIFO
FFB469H   FFB493H   00002BH   BYTE   UNIT     HCONST         ?HC?ZF_DRIVER_GPIO
FFB494H   FFB4BDH   00002AH   BYTE   UNIT     HCONST         ?HC?ZF_DRIVER_ADC
FFB4BEH   FFB4E7H   00002AH   BYTE   UNIT     HCONST         ?HC?ZF_DRIVER_SPI
FFB4E8H   FFB50CH   000025H   BYTE   UNIT     HCONST         ?HC?ZF_COMMON_DEBUG
FFB50DH   FFB527H   00001BH   BYTE   UNIT     HCONST         ?HC?ZF_DEVICE_IMU660RB

* * * * * * * * *   R E M O V E D     S E G M E N T S   * * * * * * * *
   *DEL*:           00004EH   BYTE   INSEG    CODE           ?PR?DEBUG_READ_BUFFER?ZF_COMMON_DEBUG
   *DEL*:           000067H   BYTE   INSEG    CODE           ?PR?DEBUG_SEND_BUFFER?ZF_COMMON_DEBUG
   *DEL*:           000186H   BYTE   INSEG    CODE           ?PR?FIFO_CLEAR?ZF_COMMON_FIFO
   *DEL*:           0003B0H   BYTE   INSEG    CODE           ?PR?FUNC_DOUBLE_TO_STR?ZF_COMMON_FUNCTION
   *DEL*:           000275H   BYTE   INSEG    CODE           ?PR?FUNC_STR_TO_DOUBLE?ZF_COMMON_FUNCTION
   *DEL*:           000197H   BYTE   INSEG    CODE           ?PR?NUMBER_CONVERSION_ASCII?ZF_COMMON_FUNCTION
   *DEL*:           0003B0H   BYTE   INSEG    CODE           ?PR?FUNC_FLOAT_TO_STR?ZF_COMMON_FUNCTION
   *DEL*:           000275H   BYTE   INSEG    CODE           ?PR?FUNC_STR_TO_FLOAT?ZF_COMMON_FUNCTION
   *DEL*:           000028H   BYTE   INSEG    CODE           ?PR?FUNC_SOFT_DELAY?ZF_COMMON_FUNCTION
L251 LINKER/LOCATER V4.66.93.0                                                        04/19/2026  22:06:36  PAGE 14


   *DEL*:           00091FH   BYTE   INSEG    CODE           ?PR?ZF_SPRINTF?ZF_COMMON_FUNCTION
   *DEL*:           00011BH   BYTE   INSEG    CODE           ?PR?FUNC_UINT_TO_STR?ZF_COMMON_FUNCTION
   *DEL*:           0000C0H   BYTE   INSEG    CODE           ?PR?FUNC_STR_TO_UINT?ZF_COMMON_FUNCTION
   *DEL*:           000184H   BYTE   INSEG    CODE           ?PR?FUNC_HEX_TO_STR?ZF_COMMON_FUNCTION
   *DEL*:           0001ECH   BYTE   INSEG    CODE           ?PR?FUNC_STR_TO_HEX?ZF_COMMON_FUNCTION
   *DEL*:           0001B5H   BYTE   INSEG    CODE           ?PR?FUNC_INT_TO_STR?ZF_COMMON_FUNCTION
   *DEL*:           000141H   BYTE   INSEG    CODE           ?PR?FUNC_STR_TO_INT?ZF_COMMON_FUNCTION
   *DEL*:           0000A6H   BYTE   INSEG    CODE           ?PR?FUNC_GET_GREATEST_COMMON_DIVISOR?ZF_COMMON_FUNCTION
   *DEL*:           0006E4H   BYTE   INSEG    CODE           ?PR?VSNPRINTF?ZF_COMMON_FUNCTION
   *DEL*:           0000F9H   BYTE   INSEG    CODE           ?PR?PRINTF_REVERSE_ORDER?ZF_COMMON_FUNCTION
   *DEL*:           000004H   BYTE   INSEG    CODE           ?PR?INTERRUPT_GLOBAL_DISABLE?ZF_COMMON_INTERRUPT
   *DEL*:           0000CDH   BYTE   INSEG    CODE           ?PR?INTERRUPT_SET_PRIORITY?ZF_COMMON_INTERRUPT
   *DEL*:           00015EH   BYTE   INSEG    CODE           ?PR?ADC_MEAN_FILTER_CONVERT?ZF_DRIVER_ADC
   *DEL*:           000001H   BYTE   INSEG    CODE           ?PR?ADC_COLLECT?ZF_DRIVER_ADC
   *DEL*:           000025H   BYTE   INSEG    CODE           ?PR?SYSTEM_DELAY_US?ZF_DRIVER_DELAY
   *DEL*:           00002AH   BYTE   INSEG    CODE           ?PR?IAP_SET_TPS?ZF_DRIVER_EEPROM
   *DEL*:           00000DH   BYTE   INSEG    CODE           ?PR?EEPROM_TRIG?ZF_DRIVER_EEPROM
   *DEL*:           00004FH   BYTE   INSEG    CODE           ?PR?IAP_ERASE_PAGE?ZF_DRIVER_EEPROM
   *DEL*:           000004H   BYTE   INSEG    CODE           ?PR?IAP_IDLE?ZF_DRIVER_EEPROM
   *DEL*:           000075H   BYTE   INSEG    CODE           ?PR?IAP_READ_BUFF?ZF_DRIVER_EEPROM
   *DEL*:           000119H   BYTE   INSEG    CODE           ?PR?EXTERN_IAP_WRITE_BUFF?ZF_DRIVER_EEPROM
   *DEL*:           000072H   BYTE   INSEG    CODE           ?PR?IAP_WRITE_BUFF?ZF_DRIVER_EEPROM
   *DEL*:           000052H   BYTE   INSEG    CODE           ?PR?IAP_READ_BYTE?ZF_DRIVER_EEPROM
   *DEL*:           000008H   BYTE   INSEG    CODE           ?PR?IAP_INIT?ZF_DRIVER_EEPROM
   *DEL*:           000052H   BYTE   INSEG    CODE           ?PR?IAP_WRITE_BYTE?ZF_DRIVER_EEPROM
   *DEL*:           000012H   BYTE   INSEG    CODE           ?PR?IAP_GET_CMD_STATE?ZF_DRIVER_EEPROM
   *DEL*:           000109H   BYTE   INSEG    CODE           ?PR?ENCODER_GET_COUNT?ZF_DRIVER_ENCODER
   *DEL*:           000065H   BYTE   INSEG    CODE           ?PR?ENCODER_CLEAR_COUNT?ZF_DRIVER_ENCODER
   *DEL*:           000045H   BYTE   INSEG    CODE           ?PR?EXTI_ENABLE?ZF_DRIVER_EXTI
   *DEL*:           000013H   BYTE   INSEG    CODE           ?PR?EXTI_ALL_CLOSE?ZF_DRIVER_EXTI
   *DEL*:           00005BH   BYTE   INSEG    CODE           ?PR?EXTI_INIT?ZF_DRIVER_EXTI
   *DEL*:           000045H   BYTE   INSEG    CODE           ?PR?EXTI_DISABLE?ZF_DRIVER_EXTI
   *DEL*:           000023H   BYTE   INSEG    CODE           ?PR?GPIO_TOGGLE_LEVEL?ZF_DRIVER_GPIO
   *DEL*:           0002D5H   BYTE   INSEG    CODE           ?PR?PWM_SET_FREQ?ZF_DRIVER_PWM
   *DEL*:           0001D4H   BYTE   INSEG    CODE           ?PR?PWM_SET_DUTY?ZF_DRIVER_PWM
   *DEL*:           000091H   BYTE   INSEG    CODE           ?PR?SOFT_IIC_WRITE_8BIT_REGISTER?ZF_DRIVER_SOFT_IIC
   *DEL*:           000186H   BYTE   INSEG    CODE           ?PR?SOFT_IIC_READ_16BIT_REGISTERS?ZF_DRIVER_SOFT_IIC
   *DEL*:           0000D2H   BYTE   INSEG    CODE           ?PR?SOFT_IIC_SCCB_READ_REGISTER?ZF_DRIVER_SOFT_IIC
   *DEL*:           000117H   BYTE   INSEG    CODE           ?PR?SOFT_IIC_READ_16BIT_REGISTER?ZF_DRIVER_SOFT_IIC
   *DEL*:           0001F3H   BYTE   INSEG    CODE           ?PR?SOFT_IIC_TRANSFER_16BIT_ARRAY?ZF_DRIVER_SOFT_IIC
   *DEL*:           00012FH   BYTE   INSEG    CODE           ?PR?SOFT_IIC_WRITE_16BIT_REGISTERS?ZF_DRIVER_SOFT_IIC
   *DEL*:           000091H   BYTE   INSEG    CODE           ?PR?SOFT_IIC_SCCB_WRITE_REGISTER?ZF_DRIVER_SOFT_IIC
   *DEL*:           000085H   BYTE   INSEG    CODE           ?PR?SOFT_IIC_READ_8BIT?ZF_DRIVER_SOFT_IIC
   *DEL*:           0000F7H   BYTE   INSEG    CODE           ?PR?SOFT_IIC_READ_8BIT_ARRAY?ZF_DRIVER_SOFT_IIC
   *DEL*:           0000DDH   BYTE   INSEG    CODE           ?PR?SOFT_IIC_WRITE_16BIT_REGISTER?ZF_DRIVER_SOFT_IIC
   *DEL*:           00007AH   BYTE   INSEG    CODE           ?PR?SOFT_IIC_WRITE_8BIT?ZF_DRIVER_SOFT_IIC
   *DEL*:           0000D3H   BYTE   INSEG    CODE           ?PR?SOFT_IIC_WRITE_8BIT_ARRAY?ZF_DRIVER_SOFT_IIC
   *DEL*:           0000B0H   BYTE   INSEG    CODE           ?PR?SOFT_IIC_READ_16BIT?ZF_DRIVER_SOFT_IIC
   *DEL*:           000129H   BYTE   INSEG    CODE           ?PR?SOFT_IIC_READ_16BIT_ARRAY?ZF_DRIVER_SOFT_IIC
   *DEL*:           0000DFH   BYTE   INSEG    CODE           ?PR?SOFT_IIC_INIT?ZF_DRIVER_SOFT_IIC
   *DEL*:           000137H   BYTE   INSEG    CODE           ?PR?SOFT_IIC_READ_8BIT_REGISTERS?ZF_DRIVER_SOFT_IIC
   *DEL*:           0000A1H   BYTE   INSEG    CODE           ?PR?SOFT_IIC_WRITE_16BIT?ZF_DRIVER_SOFT_IIC
   *DEL*:           0000FDH   BYTE   INSEG    CODE           ?PR?SOFT_IIC_WRITE_16BIT_ARRAY?ZF_DRIVER_SOFT_IIC
   *DEL*:           0000C5H   BYTE   INSEG    CODE           ?PR?SOFT_IIC_READ_8BIT_REGISTER?ZF_DRIVER_SOFT_IIC
   *DEL*:           000197H   BYTE   INSEG    CODE           ?PR?SOFT_IIC_TRANSFER_8BIT_ARRAY?ZF_DRIVER_SOFT_IIC
   *DEL*:           0000E8H   BYTE   INSEG    CODE           ?PR?SOFT_IIC_WRITE_8BIT_REGISTERS?ZF_DRIVER_SOFT_IIC
   *DEL*:           0002EFH   BYTE   INSEG    CODE           ?PR?SOFT_SPI_INIT?ZF_DRIVER_SOFT_SPI
   *DEL*:           000111H   BYTE   INSEG    CODE           ?PR?SOFT_SPI_READ_8BIT_REGISTERS?ZF_DRIVER_SOFT_SPI
   *DEL*:           000099H   BYTE   INSEG    CODE           ?PR?SOFT_SPI_WRITE_16BIT?ZF_DRIVER_SOFT_SPI
   *DEL*:           000216H   BYTE   INSEG    CODE           ?PR?SOFT_SPI_8BIT_DATA_HANDLER?ZF_DRIVER_SOFT_SPI
   *DEL*:           0000EEH   BYTE   INSEG    CODE           ?PR?SOFT_SPI_WRITE_16BIT_ARRAY?ZF_DRIVER_SOFT_SPI
   *DEL*:           0000B0H   BYTE   INSEG    CODE           ?PR?SOFT_SPI_READ_8BIT_REGISTER?ZF_DRIVER_SOFT_SPI
   *DEL*:           000159H   BYTE   INSEG    CODE           ?PR?SOFT_SPI_TRANSFER_8BIT?ZF_DRIVER_SOFT_SPI
   *DEL*:           000103H   BYTE   INSEG    CODE           ?PR?SOFT_SPI_WRITE_8BIT_REGISTERS?ZF_DRIVER_SOFT_SPI
   *DEL*:           0000ACH   BYTE   INSEG    CODE           ?PR?SOFT_SPI_WRITE_8BIT_REGISTER?ZF_DRIVER_SOFT_SPI
L251 LINKER/LOCATER V4.66.93.0                                                        04/19/2026  22:06:36  PAGE 15


   *DEL*:           00010EH   BYTE   INSEG    CODE           ?PR?SOFT_SPI_READ_16BIT_REGISTERS?ZF_DRIVER_SOFT_SPI
   *DEL*:           000250H   BYTE   INSEG    CODE           ?PR?SOFT_SPI_16BIT_DATA_HANDLER?ZF_DRIVER_SOFT_SPI
   *DEL*:           0000BCH   BYTE   INSEG    CODE           ?PR?SOFT_SPI_READ_16BIT_REGISTER?ZF_DRIVER_SOFT_SPI
   *DEL*:           00015BH   BYTE   INSEG    CODE           ?PR?SOFT_SPI_TRANSFER_16BIT?ZF_DRIVER_SOFT_SPI
   *DEL*:           0000FDH   BYTE   INSEG    CODE           ?PR?SOFT_SPI_WRITE_16BIT_REGISTERS?ZF_DRIVER_SOFT_SPI
   *DEL*:           00009BH   BYTE   INSEG    CODE           ?PR?SOFT_SPI_READ_8BIT?ZF_DRIVER_SOFT_SPI
   *DEL*:           0000FCH   BYTE   INSEG    CODE           ?PR?SOFT_SPI_READ_8BIT_ARRAY?ZF_DRIVER_SOFT_SPI
   *DEL*:           0000B2H   BYTE   INSEG    CODE           ?PR?SOFT_SPI_WRITE_16BIT_REGISTER?ZF_DRIVER_SOFT_SPI
   *DEL*:           000095H   BYTE   INSEG    CODE           ?PR?SOFT_SPI_WRITE_8BIT?ZF_DRIVER_SOFT_SPI
   *DEL*:           0000EEH   BYTE   INSEG    CODE           ?PR?SOFT_SPI_WRITE_8BIT_ARRAY?ZF_DRIVER_SOFT_SPI
   *DEL*:           00003CH   BYTE   INSEG    CODE           ?PR?SOFT_SPI_DELAY?ZF_DRIVER_SOFT_SPI
   *DEL*:           0000A0H   BYTE   INSEG    CODE           ?PR?SOFT_SPI_READ_16BIT?ZF_DRIVER_SOFT_SPI
   *DEL*:           0000FFH   BYTE   INSEG    CODE           ?PR?SOFT_SPI_READ_16BIT_ARRAY?ZF_DRIVER_SOFT_SPI
   *DEL*:           00002BH   BYTE   INSEG    CODE           ?PR?SPI_WRITE_8BIT_REGISTER?ZF_DRIVER_SPI
   *DEL*:           0000BCH   BYTE   INSEG    CODE           ?PR?SPI_READ_16BIT_REGISTERS?ZF_DRIVER_SPI
   *DEL*:           000079H   BYTE   INSEG    CODE           ?PR?SPI_READ_16BIT_REGISTER?ZF_DRIVER_SPI
   *DEL*:           00010DH   BYTE   INSEG    CODE           ?PR?SPI_TRANSFER_16BIT?ZF_DRIVER_SPI
   *DEL*:           00008AH   BYTE   INSEG    CODE           ?PR?SPI_WRITE_16BIT_REGISTERS?ZF_DRIVER_SPI
   *DEL*:           000011H   BYTE   INSEG    CODE           ?PR?SPI_READ_8BIT?ZF_DRIVER_SPI
   *DEL*:           00005DH   BYTE   INSEG    CODE           ?PR?SPI_READ_8BIT_ARRAY?ZF_DRIVER_SPI
   *DEL*:           00006FH   BYTE   INSEG    CODE           ?PR?SPI_WRITE_16BIT_REGISTER?ZF_DRIVER_SPI
   *DEL*:           00004FH   BYTE   INSEG    CODE           ?PR?SPI_WRITE_8BIT_ARRAY?ZF_DRIVER_SPI
   *DEL*:           000045H   BYTE   INSEG    CODE           ?PR?SPI_READ_16BIT?ZF_DRIVER_SPI
   *DEL*:           000088H   BYTE   INSEG    CODE           ?PR?SPI_READ_16BIT_ARRAY?ZF_DRIVER_SPI
   *DEL*:           00006EH   BYTE   INSEG    CODE           ?PR?SPI_READ_8BIT_REGISTERS?ZF_DRIVER_SPI
   *DEL*:           000075H   BYTE   INSEG    CODE           ?PR?SPI_WRITE_16BIT_ARRAY?ZF_DRIVER_SPI
   *DEL*:           000022H   BYTE   INSEG    CODE           ?PR?SPI_READ_8BIT_REGISTER?ZF_DRIVER_SPI
   *DEL*:           0000A4H   BYTE   INSEG    CODE           ?PR?SPI_TRANSFER_8BIT?ZF_DRIVER_SPI
   *DEL*:           000060H   BYTE   INSEG    CODE           ?PR?SPI_WRITE_8BIT_REGISTERS?ZF_DRIVER_SPI
   *DEL*:           00003DH   BYTE   INSEG    CODE           ?PR?UART_WRITE_STRING?ZF_DRIVER_UART
   *DEL*:           000072H   BYTE   INSEG    CODE           ?PR?UART_READ_BYTE?ZF_DRIVER_UART
   *DEL*:           000038H   BYTE   INSEG    CODE           ?PR?EEPROM_READ?EEPROM
   *DEL*:           000074H   BYTE   INSEG    CODE           ?PR?EEPROM_READ_VALUE?EEPROM
   *DEL*:           00007DH   BYTE   INSEG    CODE           ?PR?EEPROM_WRITE_VALUE?EEPROM
   *DEL*:           000032H   BYTE   INSEG    CODE           ?PR?EEPROM_INIT?EEPROM
   *DEL*:           000020H   BYTE   INSEG    CODE           ?PR?VOLTAGE_WARNING_INIT?VOLTAGE_WARNING
   *DEL*:           000084H   BYTE   INSEG    CODE           ?PR?BLE6A20_READ_BUFFER?ZF_DEVICE_BLE6A20
   *DEL*:           000110H   BYTE   INSEG    CODE           ?PR?BLE6A20_SEND_BUFFER?ZF_DEVICE_BLE6A20
   *DEL*:           00005DH   BYTE   INSEG    CODE           ?PR?BLE6A20_SEND_STRING?ZF_DEVICE_BLE6A20
   *DEL*:           000026H   BYTE   INSEG    CODE           ?PR?BLE6A20_CALLBACK?ZF_DEVICE_BLE6A20
   *DEL*:           000088H   BYTE   INSEG    CODE           ?PR?BLE6A20_INIT?ZF_DEVICE_BLE6A20
   *DEL*:           00006DH   BYTE   INSEG    CODE           ?PR?BLE6A20_SEND_BYTE?ZF_DEVICE_BLE6A20
   *DEL*:           00006FH   BYTE   INSEG    CODE           ?PR?DL1A_TIMEOUT_MICROSECONDS_TO_MCLKS?ZF_DEVICE_DL1A
   *DEL*:           000069H   BYTE   INSEG    CODE           ?PR?DL1A_TIMEOUT_MCLKS_TO_MICROSECONDS?ZF_DEVICE_DL1A
   *DEL*:           0000A2H   BYTE   INSEG    CODE           ?PR?DL1A_SET_SIGNAL_RATE_LIMIT?ZF_DEVICE_DL1A
   *DEL*:           000030H   BYTE   INSEG    CODE           ?PR?DL1A_DECODE_TIMEOUT?ZF_DEVICE_DL1A
   *DEL*:           000259H   BYTE   INSEG    CODE           ?PR?DL1A_GET_SPAD_INFO?ZF_DEVICE_DL1A
   *DEL*:           000085H   BYTE   INSEG    CODE           ?PR?DL1A_ENCODE_TIMEOUT?ZF_DEVICE_DL1A
   *DEL*:           0000CBH   BYTE   INSEG    CODE           ?PR?DL1A_GET_SEQUENCE_STEP_ENABLES?ZF_DEVICE_DL1A
   *DEL*:           0000D3H   BYTE   INSEG    CODE           ?PR?DL1A_GET_DISTANCE?ZF_DEVICE_DL1A
   *DEL*:           0000D6H   BYTE   INSEG    CODE           ?PR?DL1A_PERFORM_SINGLE_REF_CALIBRATION?ZF_DEVICE_DL1A
   *DEL*:           00021AH   BYTE   INSEG    CODE           ?PR?DL1A_GET_SEQUENCE_STEP_TIMEOUTS?ZF_DEVICE_DL1A
   *DEL*:           000001H   BYTE   INSEG    CODE           ?PR?DL1A_INT_HANDLER?ZF_DEVICE_DL1A
   *DEL*:           000119H   BYTE   INSEG    CODE           ?PR?DL1A_GET_MEASUREMENT_TIMING_BUDGET?ZF_DEVICE_DL1A
   *DEL*:           000210H   BYTE   INSEG    CODE           ?PR?DL1A_SET_MEASUREMENT_TIMING_BUDGET?ZF_DEVICE_DL1A
   *DEL*:           000602H   BYTE   INSEG    CODE           ?PR?DL1A_INIT?ZF_DEVICE_DL1A
   *DEL*:           00009EH   BYTE   INSEG    CODE           ?PR?DL1A_GET_VCSEL_PULSE_PERIOD?ZF_DEVICE_DL1A
   *DEL*:           0001E4H   BYTE   INSEG    CODE           ?PR?DL1B_GET_DISTANCE?ZF_DEVICE_DL1B
   *DEL*:           000001H   BYTE   INSEG    CODE           ?PR?DL1B_INT_HANDLER?ZF_DEVICE_DL1B
   *DEL*:           00000AH   BYTE   INSEG    CODE           ?PR?DL1B_INIT?ZF_DEVICE_DL1B
   *DEL*:           000094H   BYTE   INSEG    CODE           ?PR?GET_DOUBLE_NUMBER?ZF_DEVICE_GPS_TAU1201
   *DEL*:           000094H   BYTE   INSEG    CODE           ?PR?GET_FLOAT_NUMBER?ZF_DEVICE_GPS_TAU1201
   *DEL*:           0001CEH   BYTE   INSEG    CODE           ?PR?UTC_TO_BTC?ZF_DEVICE_GPS_TAU1201
   *DEL*:           000214H   BYTE   INSEG    CODE           ?PR?GET_TWO_POINTS_DISTANCE?ZF_DEVICE_GPS_TAU1201
   *DEL*:           000102H   BYTE   INSEG    CODE           ?PR?GPS_GNGGA_PARSE?ZF_DEVICE_GPS_TAU1201
L251 LINKER/LOCATER V4.66.93.0                                                        04/19/2026  22:06:36  PAGE 16


   *DEL*:           000668H   BYTE   INSEG    CODE           ?PR?GPS_GNRMC_PARSE?ZF_DEVICE_GPS_TAU1201
   *DEL*:           000212H   BYTE   INSEG    CODE           ?PR?GPS_DATA_PARSE?ZF_DEVICE_GPS_TAU1201
   *DEL*:           000088H   BYTE   INSEG    CODE           ?PR?GET_INT_NUMBER?ZF_DEVICE_GPS_TAU1201
   *DEL*:           0002B0H   BYTE   INSEG    CODE           ?PR?GPS_INIT?ZF_DEVICE_GPS_TAU1201
   *DEL*:           0000D3H   BYTE   INSEG    CODE           ?PR?GET_PARAMETER_INDEX?ZF_DEVICE_GPS_TAU1201
   *DEL*:           00033DH   BYTE   INSEG    CODE           ?PR?GET_TWO_POINTS_AZIMUTH?ZF_DEVICE_GPS_TAU1201
   *DEL*:           000191H   BYTE   INSEG    CODE           ?PR?GPS_UART_CALLBACK?ZF_DEVICE_GPS_TAU1201
   *DEL*:           000024H   BYTE   INSEG    CODE           ?PR?ICM20602_READ_REGISTER?ZF_DEVICE_ICM20602
   *DEL*:           00001EH   BYTE   INSEG    CODE           ?PR?ICM20602_WRITE_REGISTER?ZF_DEVICE_ICM20602
   *DEL*:           000050H   BYTE   INSEG    CODE           ?PR?ICM20602_SIMSPI_WR_BYTE?ZF_DEVICE_ICM20602
   *DEL*:           000051H   BYTE   INSEG    CODE           ?PR?ICM20602_SELF_CHECK?ZF_DEVICE_ICM20602
   *DEL*:           000076H   BYTE   INSEG    CODE           ?PR?ICM20602_SIMSPI_R_REG_BYTES?ZF_DEVICE_ICM20602
   *DEL*:           000031H   BYTE   INSEG    CODE           ?PR?ICM20602_SIMSPI_R_REG_BYTE?ZF_DEVICE_ICM20602
   *DEL*:           00001DH   BYTE   INSEG    CODE           ?PR?ICM20602_SIMSPI_W_REG_BYTE?ZF_DEVICE_ICM20602
   *DEL*:           0001F1H   BYTE   INSEG    CODE           ?PR?ICM20602_INIT?ZF_DEVICE_ICM20602
   *DEL*:           00005AH   BYTE   INSEG    CODE           ?PR?ICM20602_GET_ACC?ZF_DEVICE_ICM20602
   *DEL*:           000040H   BYTE   INSEG    CODE           ?PR?ICM20602_READ_REGISTERS?ZF_DEVICE_ICM20602
   *DEL*:           00005AH   BYTE   INSEG    CODE           ?PR?ICM20602_GET_GYRO?ZF_DEVICE_ICM20602
   *DEL*:           00005AH   BYTE   INSEG    CODE           ?PR?IMU660RB_GET_GYRO?ZF_DEVICE_IMU660RB
   *DEL*:           000024H   BYTE   INSEG    CODE           ?PR?IMU660RB_READ_REGISTER?ZF_DEVICE_IMU660RB
   *DEL*:           000114H   BYTE   INSEG    CODE           ?PR?IMU660RB_GYRO_TRANSITION?ZF_DEVICE_IMU660RB
   *DEL*:           00001EH   BYTE   INSEG    CODE           ?PR?IMU660RB_WRITE_REGISTER?ZF_DEVICE_IMU660RB
   *DEL*:           000053H   BYTE   INSEG    CODE           ?PR?IMU660RB_SIMSPI_WR_BYTE?ZF_DEVICE_IMU660RB
   *DEL*:           00004FH   BYTE   INSEG    CODE           ?PR?IMU660RB_SELF_CHECK?ZF_DEVICE_IMU660RB
   *DEL*:           000070H   BYTE   INSEG    CODE           ?PR?IMU660RB_SIMSPI_R_REG_BYTES?ZF_DEVICE_IMU660RB
   *DEL*:           000037H   BYTE   INSEG    CODE           ?PR?IMU660RB_SIMSPI_R_REG_BYTE?ZF_DEVICE_IMU660RB
   *DEL*:           00001DH   BYTE   INSEG    CODE           ?PR?IMU660RB_SIMSPI_W_REG_BYTE?ZF_DEVICE_IMU660RB
   *DEL*:           000071H   BYTE   INSEG    CODE           ?PR?IMU660RB_INIT?ZF_DEVICE_IMU660RB
   *DEL*:           00005AH   BYTE   INSEG    CODE           ?PR?IMU660RB_GET_ACC?ZF_DEVICE_IMU660RB
   *DEL*:           0000BEH   BYTE   INSEG    CODE           ?PR?IMU660RB_ACC_TRANSITION?ZF_DEVICE_IMU660RB
   *DEL*:           000040H   BYTE   INSEG    CODE           ?PR?IMU660RB_READ_REGISTERS?ZF_DEVICE_IMU660RB
   *DEL*:           00005AH   BYTE   INSEG    CODE           ?PR?IMU963RA_GET_GYRO?ZF_DEVICE_IMU963RA
   *DEL*:           000072H   BYTE   INSEG    CODE           ?PR?IMU963RA_READ_MAG_REGISTER?ZF_DEVICE_IMU963RA
   *DEL*:           00003DH   BYTE   INSEG    CODE           ?PR?IMU963RA_CONNECT_MAG?ZF_DEVICE_IMU963RA
   *DEL*:           00004CH   BYTE   INSEG    CODE           ?PR?IMU963RA_READ_ACC_GYRO_REGISTERS?ZF_DEVICE_IMU963RA
   *DEL*:           000089H   BYTE   INSEG    CODE           ?PR?IMU963RA_WRITE_MAG_REGISTER?ZF_DEVICE_IMU963RA
   *DEL*:           000027H   BYTE   INSEG    CODE           ?PR?IMU963RA_READ_ACC_GYRO_REGISTER?ZF_DEVICE_IMU963RA
   *DEL*:           000054H   BYTE   INSEG    CODE           ?PR?IMU963RA_MAG_SELF_CHECK?ZF_DEVICE_IMU963RA
   *DEL*:           000020H   BYTE   INSEG    CODE           ?PR?IMU963RA_WRITE_ACC_GYRO_REGISTER?ZF_DEVICE_IMU963RA
   *DEL*:           000345H   BYTE   INSEG    CODE           ?PR?IMU963RA_INIT?ZF_DEVICE_IMU963RA
   *DEL*:           000068H   BYTE   INSEG    CODE           ?PR?IMU963RA_ACC_GYRO_SELF_CHECK?ZF_DEVICE_IMU963RA
   *DEL*:           00005AH   BYTE   INSEG    CODE           ?PR?IMU963RA_GET_ACC?ZF_DEVICE_IMU963RA
   *DEL*:           000079H   BYTE   INSEG    CODE           ?PR?IMU963RA_GET_MAG?ZF_DEVICE_IMU963RA
   *DEL*:           0001EBH   BYTE   INSEG    CODE           ?PR?IPS114_SHOW_FLOAT?ZF_DEVICE_IPS114
   *DEL*:           000083H   BYTE   INSEG    CODE           ?PR?IPS114_DRAW_POINT?ZF_DEVICE_IPS114
   *DEL*:           0000C4H   BYTE   INSEG    CODE           ?PR?IPS114_SHOW_STRING?ZF_DEVICE_IPS114
   *DEL*:           00015EH   BYTE   INSEG    CODE           ?PR?IPS114_SHOW_INT32?ZF_DEVICE_IPS114
   *DEL*:           00016DH   BYTE   INSEG    CODE           ?PR?IPS114_SHOW_INT16?ZF_DEVICE_IPS114
   *DEL*:           000214H   BYTE   INSEG    CODE           ?PR?IPS114_SHOW_WAVE?ZF_DEVICE_IPS114
   *DEL*:           000200H   BYTE   INSEG    CODE           ?PR?IPS114_SHOW_CHINESE?ZF_DEVICE_IPS114
   *DEL*:           0000E9H   BYTE   INSEG    CODE           ?PR?IPS114_SHOW_UINT8?ZF_DEVICE_IPS114
   *DEL*:           00012EH   BYTE   INSEG    CODE           ?PR?IPS114_SHOW_INT8?ZF_DEVICE_IPS114
   *DEL*:           0001EBH   BYTE   INSEG    CODE           ?PR?IPS200_SHOW_FLOAT?ZF_DEVICE_IPS200
   *DEL*:           000083H   BYTE   INSEG    CODE           ?PR?IPS200_DRAW_POINT?ZF_DEVICE_IPS200
   *DEL*:           0000C4H   BYTE   INSEG    CODE           ?PR?IPS200_SHOW_STRING?ZF_DEVICE_IPS200
   *DEL*:           00011CH   BYTE   INSEG    CODE           ?PR?IPS200_SHOW_CHAR?ZF_DEVICE_IPS200
   *DEL*:           000119H   BYTE   INSEG    CODE           ?PR?IPS200_SHOW_UINT16?ZF_DEVICE_IPS200
   *DEL*:           000025H   BYTE   INSEG    CODE           ?PR?IPS200_SET_COLOR?ZF_DEVICE_IPS200
   *DEL*:           00015EH   BYTE   INSEG    CODE           ?PR?IPS200_SHOW_INT32?ZF_DEVICE_IPS200
   *DEL*:           00016DH   BYTE   INSEG    CODE           ?PR?IPS200_SHOW_INT16?ZF_DEVICE_IPS200
   *DEL*:           000214H   BYTE   INSEG    CODE           ?PR?IPS200_SHOW_WAVE?ZF_DEVICE_IPS200
   *DEL*:           000013H   BYTE   INSEG    CODE           ?PR?IPS200_SET_DIR?ZF_DEVICE_IPS200
   *DEL*:           000200H   BYTE   INSEG    CODE           ?PR?IPS200_SHOW_CHINESE?ZF_DEVICE_IPS200
   *DEL*:           000085H   BYTE   INSEG    CODE           ?PR?IPS200_CLEAR?ZF_DEVICE_IPS200
   *DEL*:           0000E9H   BYTE   INSEG    CODE           ?PR?IPS200_SHOW_UINT8?ZF_DEVICE_IPS200
L251 LINKER/LOCATER V4.66.93.0                                                        04/19/2026  22:06:36  PAGE 17


   *DEL*:           00012EH   BYTE   INSEG    CODE           ?PR?IPS200_SHOW_INT8?ZF_DEVICE_IPS200
   *DEL*:           000022H   BYTE   INSEG    CODE           ?PR?IPS200_WRITE_INDEX?ZF_DEVICE_IPS200
   *DEL*:           0000ECH   BYTE   INSEG    CODE           ?PR?IPS200_SET_REGION?ZF_DEVICE_IPS200
   *DEL*:           0002C2H   BYTE   INSEG    CODE           ?PR?IPS200_INIT?ZF_DEVICE_IPS200
   *DEL*:           000095H   BYTE   INSEG    CODE           ?PR?IPS200PRO_PROGRESS_BAR_CREATE?ZF_DEVICE_IPS200PRO
   *DEL*:           000053H   BYTE   INSEG    CODE           ?PR?IPS200PRO_SET_CRC_STATE?ZF_DEVICE_IPS200PRO
   *DEL*:           000070H   BYTE   INSEG    CODE           ?PR?IPS200PRO_TABLE_SELECT?ZF_DEVICE_IPS200PRO
   *DEL*:           000036H   BYTE   INSEG    CODE           ?PR?IPS200PRO_PAGE_HIDDEN?ZF_DEVICE_IPS200PRO
   *DEL*:           000055H   BYTE   INSEG    CODE           ?PR?IPS200PRO_SET_DIRECTION?ZF_DEVICE_IPS200PRO
   *DEL*:           00009EH   BYTE   INSEG    CODE           ?PR?IPS200PRO_PAGE_CREATE?ZF_DEVICE_IPS200PRO
   *DEL*:           00010CH   BYTE   INSEG    CODE           ?PR?IPS200PRO_WAVEFORM_ADD_VALUE?ZF_DEVICE_IPS200PRO
   *DEL*:           000095H   BYTE   INSEG    CODE           ?PR?IPS200PRO_METER_CREATE?ZF_DEVICE_IPS200PRO
   *DEL*:           0000E3H   BYTE   INSEG    CODE           ?PR?IPS200PRO_LABEL_PRINTF?ZF_DEVICE_IPS200PRO
   *DEL*:           000072H   BYTE   INSEG    CODE           ?PR?IPS200PRO_WAVEFORM_LINE_STATE?ZF_DEVICE_IPS200PRO
   *DEL*:           000114H   BYTE   INSEG    CODE           ?PR?IPS200PRO_TABLE_CELL_PRINTF?ZF_DEVICE_IPS200PRO
   *DEL*:           000286H   BYTE   INSEG    CODE           ?PR?IPS200PRO_WRITE_PACKET?ZF_DEVICE_IPS200PRO
   *DEL*:           00009AH   BYTE   INSEG    CODE           ?PR?IPS200PRO_SEND_BUFFER?ZF_DEVICE_IPS200PRO
   *DEL*:           000060H   BYTE   INSEG    CODE           ?PR?IPS200PRO_LABEL_MODE?ZF_DEVICE_IPS200PRO
   *DEL*:           000060H   BYTE   INSEG    CODE           ?PR?IPS200PRO_PAGE_SWITCH?ZF_DEVICE_IPS200PRO
   *DEL*:           000053H   BYTE   INSEG    CODE           ?PR?IPS200PRO_CALENDAR_CREATE?ZF_DEVICE_IPS200PRO
   *DEL*:           000087H   BYTE   INSEG    CODE           ?PR?IPS200PRO_CALENDAR_DISPLAY?ZF_DEVICE_IPS200PRO
   *DEL*:           00005EH   BYTE   INSEG    CODE           ?PR?IPS200PRO_WAVEFORM_LINE_TYPE?ZF_DEVICE_IPS200PRO
   *DEL*:           000062H   BYTE   INSEG    CODE           ?PR?IPS200PRO_SET_HIDDEN?ZF_DEVICE_IPS200PRO
   *DEL*:           000095H   BYTE   INSEG    CODE           ?PR?IPS200PRO_CONTAINER_CREATE?ZF_DEVICE_IPS200PRO
   *DEL*:           0000E6H   BYTE   INSEG    CODE           ?PR?IPS200PRO_IMAGE_DRAW_LINE?ZF_DEVICE_IPS200PRO
   *DEL*:           000081H   BYTE   INSEG    CODE           ?PR?IPS200PRO_LABEL_SHOW_STRING?ZF_DEVICE_IPS200PRO
   *DEL*:           000053H   BYTE   INSEG    CODE           ?PR?IPS200PRO_SET_OPTIMIZE?ZF_DEVICE_IPS200PRO
   *DEL*:           000076H   BYTE   INSEG    CODE           ?PR?IPS200PRO_SET_POSITION?ZF_DEVICE_IPS200PRO
   *DEL*:           000055H   BYTE   INSEG    CODE           ?PR?IPS200PRO_SET_DEFAULT_FONT?ZF_DEVICE_IPS200PRO
   *DEL*:           000066H   BYTE   INSEG    CODE           ?PR?IPS200PRO_PAGE_SET_TITLE_POSITION_WIDTH?ZF_DEVICE_IPS2
                                                             -00PRO
   *DEL*:           0000C1H   BYTE   INSEG    CODE           ?PR?IPS200PRO_IMAGE_DRAW_RECTANGLE?ZF_DEVICE_IPS200PRO
   *DEL*:           0000EDH   BYTE   INSEG    CODE           ?PR?IPS200PRO_INIT?ZF_DEVICE_IPS200PRO
   *DEL*:           000072H   BYTE   INSEG    CODE           ?PR?IPS200PRO_CONTAINER_RADIUS?ZF_DEVICE_IPS200PRO
   *DEL*:           00006DH   BYTE   INSEG    CODE           ?PR?IPS200PRO_WAIT_IDLE?ZF_DEVICE_IPS200PRO
   *DEL*:           000055H   BYTE   INSEG    CODE           ?PR?IPS200PRO_SET_FORMAT?ZF_DEVICE_IPS200PRO
   *DEL*:           000067H   BYTE   INSEG    CODE           ?PR?IPS200PRO_SET_PARENT?ZF_DEVICE_IPS200PRO
   *DEL*:           000070H   BYTE   INSEG    CODE           ?PR?IPS200PRO_PROGRESS_BAR_SET_VALUE?ZF_DEVICE_IPS200PRO
   *DEL*:           00004AH   BYTE   INSEG    CODE           ?PR?IPS200PRO_GET_DATE?ZF_DEVICE_IPS200PRO
   *DEL*:           000095H   BYTE   INSEG    CODE           ?PR?IPS200PRO_WAVEFORM_CREATE?ZF_DEVICE_IPS200PRO
   *DEL*:           0000B6H   BYTE   INSEG    CODE           ?PR?IPS200PRO_READ_PARAMETER?ZF_DEVICE_IPS200PRO
   *DEL*:           0000A1H   BYTE   INSEG    CODE           ?PR?IPS200PRO_RECEIVE_BUFFER?ZF_DEVICE_IPS200PRO
   *DEL*:           000086H   BYTE   INSEG    CODE           ?PR?IPS200PRO_SET_DATE?ZF_DEVICE_IPS200PRO
   *DEL*:           000060H   BYTE   INSEG    CODE           ?PR?IPS200PRO_METER_SET_VALUE?ZF_DEVICE_IPS200PRO
   *DEL*:           000076H   BYTE   INSEG    CODE           ?PR?IPS200PRO_SET_COLOR?ZF_DEVICE_IPS200PRO
   *DEL*:           00005FH   BYTE   INSEG    CODE           ?PR?IPS200PRO_GET_INFORMATION?ZF_DEVICE_IPS200PRO
   *DEL*:           000052H   BYTE   INSEG    CODE           ?PR?IPS200PRO_DELETE_WIDGETS?ZF_DEVICE_IPS200PRO
   *DEL*:           00004CH   BYTE   INSEG    CODE           ?PR?IPS200PRO_GET_TIME?ZF_DEVICE_IPS200PRO
   *DEL*:           0000B5H   BYTE   INSEG    CODE           ?PR?IPS200PRO_CREATE_WIDGETS?ZF_DEVICE_IPS200PRO
   *DEL*:           00004EH   BYTE   INSEG    CODE           ?PR?IPS200PRO_WAVEFORM_CLEAR?ZF_DEVICE_IPS200PRO
   *DEL*:           00006FH   BYTE   INSEG    CODE           ?PR?IPS200PRO_PAGE_SET_TITLE_NAME?ZF_DEVICE_IPS200PRO
   *DEL*:           000095H   BYTE   INSEG    CODE           ?PR?IPS200PRO_LABEL_CREATE?ZF_DEVICE_IPS200PRO
   *DEL*:           000070H   BYTE   INSEG    CODE           ?PR?IPS200PRO_TABLE_SET_COL_WIDTH?ZF_DEVICE_IPS200PRO
   *DEL*:           000053H   BYTE   INSEG    CODE           ?PR?IPS200PRO_SET_BACKLIGHT?ZF_DEVICE_IPS200PRO
   *DEL*:           000095H   BYTE   INSEG    CODE           ?PR?IPS200PRO_IMAGE_CREATE?ZF_DEVICE_IPS200PRO
   *DEL*:           00004DH   BYTE   INSEG    CODE           ?PR?IPS200PRO_GET_FREE_STACK_SIZE?ZF_DEVICE_IPS200PRO
   *DEL*:           000091H   BYTE   INSEG    CODE           ?PR?IPS200PRO_SET_TIME?ZF_DEVICE_IPS200PRO
   *DEL*:           0001BFH   BYTE   INSEG    CODE           ?PR?IPS200PRO_IMAGE_DISPLAY?ZF_DEVICE_IPS200PRO
   *DEL*:           000095H   BYTE   INSEG    CODE           ?PR?IPS200PRO_TABLE_CREATE?ZF_DEVICE_IPS200PRO
   *DEL*:           000095H   BYTE   INSEG    CODE           ?PR?IPS200PRO_CLOCK_CREATE?ZF_DEVICE_IPS200PRO
   *DEL*:           000064H   BYTE   INSEG    CODE           ?PR?IPS200PRO_SET_FONT?ZF_DEVICE_IPS200PRO
   *DEL*:           000176H   BYTE   INSEG    CODE           ?PR?TFT180_SET_REGION?ZF_DEVICE_TFT180
   *DEL*:           00036EH   BYTE   INSEG    CODE           ?PR?TFT180_INIT?ZF_DEVICE_TFT180
   *DEL*:           0001EBH   BYTE   INSEG    CODE           ?PR?TFT180_SHOW_FLOAT?ZF_DEVICE_TFT180
   *DEL*:           000083H   BYTE   INSEG    CODE           ?PR?TFT180_DRAW_POINT?ZF_DEVICE_TFT180
L251 LINKER/LOCATER V4.66.93.0                                                        04/19/2026  22:06:36  PAGE 18


   *DEL*:           0000C4H   BYTE   INSEG    CODE           ?PR?TFT180_SHOW_STRING?ZF_DEVICE_TFT180
   *DEL*:           00011CH   BYTE   INSEG    CODE           ?PR?TFT180_SHOW_CHAR?ZF_DEVICE_TFT180
   *DEL*:           000119H   BYTE   INSEG    CODE           ?PR?TFT180_SHOW_UINT16?ZF_DEVICE_TFT180
   *DEL*:           000025H   BYTE   INSEG    CODE           ?PR?TFT180_SET_COLOR?ZF_DEVICE_TFT180
   *DEL*:           00015EH   BYTE   INSEG    CODE           ?PR?TFT180_SHOW_INT32?ZF_DEVICE_TFT180
   *DEL*:           00016DH   BYTE   INSEG    CODE           ?PR?TFT180_SHOW_INT16?ZF_DEVICE_TFT180
   *DEL*:           000214H   BYTE   INSEG    CODE           ?PR?TFT180_SHOW_WAVE?ZF_DEVICE_TFT180
   *DEL*:           00003BH   BYTE   INSEG    CODE           ?PR?TFT180_SET_DIR?ZF_DEVICE_TFT180
   *DEL*:           000079H   BYTE   INSEG    CODE           ?PR?TFT180_CLEAR?ZF_DEVICE_TFT180
   *DEL*:           0000E9H   BYTE   INSEG    CODE           ?PR?TFT180_SHOW_UINT8?ZF_DEVICE_TFT180
   *DEL*:           00012EH   BYTE   INSEG    CODE           ?PR?TFT180_SHOW_INT8?ZF_DEVICE_TFT180
   *DEL*:           000022H   BYTE   INSEG    CODE           ?PR?TFT180_WRITE_INDEX?ZF_DEVICE_TFT180
   *DEL*:           0000C0H   BYTE   INSEG    CODE           ?PR?TSL1401_SEND_DATA?ZF_DEVICE_TSL1401
   *DEL*:           00003DH   BYTE   INSEG    CODE           ?PR?TSL1401_INIT?ZF_DEVICE_TSL1401
   *DEL*:           0000BEH   BYTE   INSEG    CODE           ?PR?TSL1401_COLLECT_PIT_HANDLER?ZF_DEVICE_TSL1401
   *DEL*:           00002DH   BYTE   INSEG    CODE           ?PR?SET_TOF_TYPE?ZF_DEVICE_TYPE
   *DEL*:           00009FH   BYTE   INSEG    CODE           ?PR?SET_GPS_TYPE?ZF_DEVICE_TYPE
   *DEL*:           00005DH   BYTE   INSEG    CODE           ?PR?WIRELESS_UART_SEND_STRING?ZF_DEVICE_WIRELESS_UART
   *DEL*:           00006DH   BYTE   INSEG    CODE           ?PR?WIRELESS_UART_SEND_BYTE?ZF_DEVICE_WIRELESS_UART
   *DEL*:           000079H   BYTE   INSEG    CODE           ?PR?MAIN_LOOP?IMU
   *DEL*:           000131H   BYTE   INSEG    CODE           ?PR?FAST_SQRT?IMU
   *DEL*:           0004A1H   BYTE   INSEG    CODE           ?PR?SEEKFREE_ASSISTANT_CAMERA_BOUNDARY_CONFIG?SEEKFREE_ASS
                                                             -ISTANT
   *DEL*:           000142H   BYTE   INSEG    CODE           ?PR?SEEKFREE_ASSISTANT_CAMERA_DOT_SEND?SEEKFREE_ASSISTANT
   *DEL*:           0001A3H   BYTE   INSEG    CODE           ?PR?SEEKFREE_ASSISTANT_OSCILLOSCOPE_SEND?SEEKFREE_ASSISTAN
                                                             -T
   *DEL*:           00005AH   BYTE   INSEG    CODE           ?PR?SEEKFREE_ASSISTANT_SUM?SEEKFREE_ASSISTANT
   *DEL*:           000061H   BYTE   INSEG    CODE           ?PR?SEEKFREE_ASSISTANT_CAMERA_INFORMATION_CONFIG?SEEKFREE_
                                                             -ASSISTANT
   *DEL*:           0002B2H   BYTE   INSEG    CODE           ?PR?SEEKFREE_ASSISTANT_DATA_ANALYSIS?SEEKFREE_ASSISTANT
   *DEL*:           00015CH   BYTE   INSEG    CODE           ?PR?SEEKFREE_ASSISTANT_CAMERA_DATA_SEND?SEEKFREE_ASSISTANT
   *DEL*:           00004AH   BYTE   INSEG    CODE           ?PR?SEEKFREE_ASSISTANT_CAMERA_SEND?SEEKFREE_ASSISTANT
   *DEL*:           000059H   BYTE   INSEG    CODE           ?PR?SEEKFREE_ASSISTANT_INTERFACE_INIT?SEEKFREE_ASSISTANT_I
                                                             -NTERFACE
   *DEL*:           00008BH   BYTE   INSEG    CODE           ?PR?MOTOR_SETSPEED?MOTO
   *DEL*:           000027H   BYTE   INSEG    CODE           ?PR?ABS?MOTO
   *DEL*:           000074H   BYTE   INSEG    CODE           ?PR?MOTOR_PROTECT?MOTO
   *DEL*:           000023H   BYTE   INSEG    CODE           ?PR?LED_SWITCH?LED
   *DEL*:           000012H   BYTE   INSEG    CODE           ?PR?LED_OFF?LED
   *DEL*:           000011H   BYTE   INSEG    CODE           ?PR?LED_ON?LED
   *DEL*:           00018EH   BYTE   INSEG    CODE           ?PR?CALCULATE_DIFFERENTIAL_DRIVE?TRANK
   *DEL*:           000288H   BYTE   INSEG    CODE           ?PR?PID_CALC?TRANK
   *DEL*:           0000F3H   BYTE   INSEG    CODE           ?PR?DUAL_LOOP_CONTROL?TRANK
   *DEL*:           000226H   BYTE   INSEG    CODE           ?PR?INCPID_CALC?TRANK
   *DEL*:           000074H   BYTE   INSEG    CODE           ?PR?DIR_CONTROL?TRANK
   *DEL*:           000049H   BYTE   INSEG    CODE           ?PR?RANGE_PROTECT_INT?INDUCTANCE
   *DEL*:           000069H   BYTE   INSEG    CODE           ?PR?RANGE_PROTECT_FLOAT?INDUCTANCE
   *DEL*:           0000D8H   BYTE   INSEG    CODE           ?PR?INDUCTANCE_COUNT_ERR?INDUCTANCE
   *DEL*:           0000A5H   BYTE   INSEG    CODE           ?PR?SEND_DATA_TO_PC?MENU
   *DEL*:           000095H   BYTE   INSEG    CODE           ?PR?MENU_INIT?MENU
   *DEL*:           0000A8H   BYTE   INSEG    CODE           ?PR?OSCILLOSCOPE_DISPLAY?MENU
   *DEL*:           0000FBH   BYTE   INSEG    CODE           ?PR?MENU_DISPLAY?MENU
   *DEL*:           000111H   BYTE   INSEG    CODE           ?PR?PARAMETER_DEBUG?MENU
   *DEL*:           0000F2H   BYTE   INSEG    CODE           ?PR?POW?_?POW
   *DEL*:           000037H   BYTE   INSEG    CODE           ?PR?STRNCMP?_?STRNCMP
   *DEL*:           000030H   BYTE   INSEG    CODE           ?PR?STRNCPY?_?STRNCPY
   *DEL*:           00000EH   BYTE   INSEG    CODE           ?PR?STRLEN?_?STRLEN
   *DEL*:           00001FH   BYTE   INSEG    CODE           ?PR?STRCHR?_?STRCHR
   *DEL*:           00001AH   BYTE   INSEG    CODE           ?PR?MEMSET?_?MEMSET



OVERLAY MAP OF MODULE:   .\out_file\SEEKFREE (?C_START)


L251 LINKER/LOCATER V4.66.93.0                                                        04/19/2026  22:06:36  PAGE 19


FUNCTION/MODULE                               XDATA_GROUP
--> CALLED FUNCTION/MODULE                    START  STOP
=========================================================
?C_C51STARTUP                                 ----- -----

*** NEW ROOT ********************************

?C_C51STARTUP?3                               ----- -----
  +--> main/main

main/main                                     ----- -----
  +--> _m/main
  +--> SPRINTF/SPRINTF

_m/main                                       ----- -----
  +--> clock_init/zf_common_clock
  +--> debug_init/zf_common_debug
  +--> ALL_init/all_init
  +--> PID_Init/trank
  +--> adc_convert/zf_driver_adc
  +--> ips114_show_uint16/zf_device_ips114
  +--> Inductance_Read/inductance

clock_init/zf_common_clock                    ----- -----
  +--> set_sys_clk/zf_common_clock
  +--> system_delay_init/zf_driver_delay
  +--> interrupt_global_enable/zf_common_interrupt

set_sys_clk/zf_common_clock                   ----- -----

system_delay_init/zf_driver_delay             ----- -----
  +--> ?C?SLDIV/?C?SLDIV

?C?SLDIV/?C?SLDIV                             ----- -----
  +--> ?C?ULIDIV/?C?ULDIV

?C?ULIDIV/?C?ULDIV                            ----- -----

interrupt_global_enable/zf_common_interr+     ----- -----
... upt

debug_init/zf_common_debug                    ----- -----
  +--> uart_init/zf_driver_uart
  +--> fifo_init/zf_common_fifo
  +--> uart_rx_interrupt/zf_driver_uart
  +--> debug_interrupr_handler/zf_common_debug

uart_init/zf_driver_uart                      ----- -----
  +--> uart_funciton_check/zf_driver_uart
  +--> debug_assert_handler/zf_common_debug
  +--> timer_funciton_check/zf_driver_timer
  +--> gpio_init/zf_driver_gpio
  +--> ?C?ULIDIV/?C?ULDIV
  +--> uart_dma_init/zf_driver_uart

uart_funciton_check/zf_driver_uart            ----- -----

debug_assert_handler/zf_common_debug          ----- -----
  +--> PRINTF/PRINTF
  +--> system_delay_ms/zf_driver_delay

PRINTF/PRINTF                                 11DBH 1202H
  +--> OUT/PRINTF

OUT/PRINTF                                    ----- -----
L251 LINKER/LOCATER V4.66.93.0                                                        04/19/2026  22:06:36  PAGE 20


  +--> PUTCH/PRINTF

PUTCH/PRINTF                                  ----- -----
  +--> putchar/zf_common_debug
  +--> OUT/PRINTF

putchar/zf_common_debug                       ----- -----
  +--> uart_write_byte/zf_driver_uart

uart_write_byte/zf_driver_uart                ----- -----
  +--> uart_write_buffer/zf_driver_uart

uart_write_buffer/zf_driver_uart              ----- -----
  +--> memcpy?_/memcpy

memcpy?_/memcpy                               ----- -----

system_delay_ms/zf_driver_delay               ----- -----
  +--> delay_cycles/zf_driver_delay

delay_cycles/zf_driver_delay                  ----- -----

timer_funciton_check/zf_driver_timer          ----- -----

gpio_init/zf_driver_gpio                      ----- -----
  +--> debug_assert_handler/zf_common_debug
  +--> gpio_set_dir/zf_driver_gpio
  +--> gpio_set_mode/zf_driver_gpio
  +--> gpio_set_impedance/zf_driver_gpio
  +--> gpio_set_level/zf_driver_gpio

gpio_set_dir/zf_driver_gpio                   ----- -----
  +--> debug_assert_handler/zf_common_debug

gpio_set_mode/zf_driver_gpio                  ----- -----

gpio_set_impedance/zf_driver_gpio             ----- -----

gpio_set_level/zf_driver_gpio                 ----- -----

uart_dma_init/zf_driver_uart                  ----- -----

fifo_init/zf_common_fifo                      ----- -----
  +--> debug_assert_handler/zf_common_debug

uart_rx_interrupt/zf_driver_uart              ----- -----

debug_interrupr_handler/zf_common_debug       ----- -----
  +--> uart_query_byte/zf_driver_uart
  +--> fifo_write_buffer/zf_common_fifo

uart_query_byte/zf_driver_uart                ----- -----
  +--> uart_rx_start_buff/zf_driver_uart

uart_rx_start_buff/zf_driver_uart             ----- -----

fifo_write_buffer/zf_common_fifo              ----- -----
  +--> debug_assert_handler/zf_common_debug
  +--> memcpy?_/memcpy
  +--> fifo_head_offset/zf_common_fifo

fifo_head_offset/zf_common_fifo               ----- -----

ALL_init/all_init                             ----- -----
  +--> imu660ra_init/zf_device_imu660ra
L251 LINKER/LOCATER V4.66.93.0                                                        04/19/2026  22:06:36  PAGE 21


  +--> gyro_init/imu
  +--> pwm_init/zf_driver_pwm
  +--> gpio_init/zf_driver_gpio
  +--> ips114_init/zf_device_ips114
  +--> wireless_uart_init/zf_device_wireless_uart
  +--> encoder_init/encoder
  +--> LED_Init/led
  +--> Oscilloscope_Init/menu
  +--> Parameter_Debug_Init/menu
  +--> Inductance_Init/inductance

imu660ra_init/zf_device_imu660ra              ----- -----
  +--> system_delay_ms/zf_driver_delay
  +--> imu660ra_read_register/zf_device_imu660ra
  +--> imu660ra_self_check/zf_device_imu660ra
  +--> PRINTF/PRINTF
  +--> imu660ra_write_register/zf_device_imu660ra
  +--> imu660ra_write_registers/zf_device_imu660ra

imu660ra_read_register/zf_device_imu660r+     ----- -----
... a
  +--> imu660ra_simspi_r_reg_bytes/zf_device_imu660ra

imu660ra_simspi_r_reg_bytes/zf_device_im+     ----- -----
... u660ra
  +--> imu660ra_simspi_wr_byte/zf_device_imu660ra

imu660ra_simspi_wr_byte/zf_device_imu660+     ----- -----
... ra

imu660ra_self_check/zf_device_imu660ra        ----- -----
  +--> imu660ra_read_register/zf_device_imu660ra
  +--> PRINTF/PRINTF
  +--> system_delay_ms/zf_driver_delay

imu660ra_write_register/zf_device_imu660+     ----- -----
... ra
  +--> imu660ra_simspi_w_reg_byte/zf_device_imu660ra

imu660ra_simspi_w_reg_byte/zf_device_imu+     ----- -----
... 660ra
  +--> imu660ra_simspi_wr_byte/zf_device_imu660ra

imu660ra_write_registers/zf_device_imu66+     ----- -----
... 0ra
  +--> imu660ra_simspi_w_reg_bytes/zf_device_imu660ra

imu660ra_simspi_w_reg_bytes/zf_device_im+     ----- -----
... u660ra
  +--> imu660ra_simspi_wr_byte/zf_device_imu660ra

gyro_init/imu                                 ----- -----
  +--> IMU_gyro_Offset_Init/imu
  +--> KalmanCreate/imu

IMU_gyro_Offset_Init/imu                      ----- -----
  +--> system_delay_ms/zf_driver_delay

KalmanCreate/imu                              ----- -----

pwm_init/zf_driver_pwm                        ----- -----
  +--> debug_assert_handler/zf_common_debug
  +--> gpio_init/zf_driver_gpio
  +--> ?C?ULIDIV/?C?ULDIV

L251 LINKER/LOCATER V4.66.93.0                                                        04/19/2026  22:06:36  PAGE 22


ips114_init/zf_device_ips114                  ----- -----
  +--> debug_assert_handler/zf_common_debug
  +--> spi_init/zf_driver_spi
  +--> ips114_set_dir/zf_device_ips114
  +--> ips114_set_color/zf_device_ips114
  +--> system_delay_ms/zf_driver_delay
  +--> ips114_write_index/zf_device_ips114
  +--> spi_write_8bit/zf_driver_spi
  +--> ips114_clear/zf_device_ips114

spi_init/zf_driver_spi                        ----- -----
  +--> debug_assert_handler/zf_common_debug
  +--> gpio_init/zf_driver_gpio
  +--> gpio_set_level_speed/zf_driver_gpio
  +--> ?C?ULIDIV/?C?ULDIV
  +--> uart_funciton_check/zf_driver_uart

gpio_set_level_speed/zf_driver_gpio           ----- -----

ips114_set_dir/zf_device_ips114               ----- -----

ips114_set_color/zf_device_ips114             ----- -----

ips114_write_index/zf_device_ips114           ----- -----
  +--> spi_write_8bit/zf_driver_spi

spi_write_8bit/zf_driver_spi                  ----- -----
  +--> spi_write_dat/zf_driver_spi

spi_write_dat/zf_driver_spi                   ----- -----
  +--> debug_assert_handler/zf_common_debug

ips114_clear/zf_device_ips114                 ----- -----
  +--> ips114_set_region/zf_device_ips114
  +--> spi_write_16bit/zf_driver_spi

ips114_set_region/zf_device_ips114            ----- -----
  +--> debug_assert_handler/zf_common_debug
  +--> ips114_write_index/zf_device_ips114
  +--> spi_write_16bit/zf_driver_spi

spi_write_16bit/zf_driver_spi                 ----- -----
  +--> spi_write_dat/zf_driver_spi

wireless_uart_init/zf_device_wireless_ua+     ----- -----
... rt
  +--> wireless_uart_callback/zf_device_wireless_uart
  +--> set_wireless_type/zf_device_type
  +--> fifo_init/zf_common_fifo
  +--> gpio_init/zf_driver_gpio
  +--> uart_init/zf_driver_uart
  +--> uart_rx_interrupt/zf_driver_uart

wireless_uart_callback/zf_device_wireles+     ----- -----
... s_uart
  +--> fifo_write_buffer/zf_common_fifo

set_wireless_type/zf_device_type              ----- -----

encoder_init/encoder                          ----- -----
  +--> pit_handler/encoder
  +--> ?C?SLDIV/?C?SLDIV
  +--> pit_init/zf_driver_pit
  +--> encoder_dir_init/zf_driver_encoder

L251 LINKER/LOCATER V4.66.93.0                                                        04/19/2026  22:06:36  PAGE 23


pit_handler/encoder                           ----- -----
  +--> imu660ra_get_acc/zf_device_imu660ra
  +--> imu660ra_get_gyro/zf_device_imu660ra
  +--> gyro_proc/imu

imu660ra_get_acc/zf_device_imu660ra           ----- -----
  +--> imu660ra_read_registers/zf_device_imu660ra

imu660ra_read_registers/zf_device_imu660+     ----- -----
... ra
  +--> imu660ra_simspi_r_reg_bytes/zf_device_imu660ra

imu660ra_get_gyro/zf_device_imu660ra          ----- -----
  +--> imu660ra_read_registers/zf_device_imu660ra

gyro_proc/imu                                 ----- -----
  +--> IMU_GetValues/imu
  +--> IMU_YAW_integral/imu
  +--> First_complement_Init/imu

IMU_GetValues/imu                             ----- -----
  +--> imu660ra_get_gyro/zf_device_imu660ra
  +--> imu660ra_get_acc/zf_device_imu660ra

IMU_YAW_integral/imu                          ----- -----
  +--> IMU_Handle_180/imu
  +--> IMU_Handle_360/imu
  +--> IMU_Handle_0/imu

IMU_Handle_180/imu                            ----- -----

IMU_Handle_360/imu                            ----- -----

IMU_Handle_0/imu                              ----- -----

First_complement_Init/imu                     ----- -----
  +--> KalmanFilter/imu
  +--> My_abs/imu

KalmanFilter/imu                              ----- -----

My_abs/imu                                    ----- -----

pit_init/zf_driver_pit                        ----- -----
  +--> ?C?ULIDIV/?C?ULDIV

encoder_dir_init/zf_driver_encoder            ----- -----
  +--> timer_funciton_check/zf_driver_timer
  +--> debug_assert_handler/zf_common_debug
  +--> gpio_init/zf_driver_gpio

LED_Init/led                                  ----- -----
  +--> gpio_init/zf_driver_gpio

Oscilloscope_Init/menu                        ----- -----
  +--> wireless_uart_send_buffer/zf_device_wireless_uart

wireless_uart_send_buffer/zf_device_wire+     ----- -----
... less_uart
  +--> debug_assert_handler/zf_common_debug
  +--> gpio_get_level/zf_driver_gpio
  +--> uart_write_buffer/zf_driver_uart
  +--> system_delay_ms/zf_driver_delay

gpio_get_level/zf_driver_gpio                 ----- -----
L251 LINKER/LOCATER V4.66.93.0                                                        04/19/2026  22:06:36  PAGE 24



Parameter_Debug_Init/menu                     ----- -----
  +--> wireless_uart_read_buffer/zf_device_wireless_uart
  +--> seekfree_assistant_init/seekfree_assistant

wireless_uart_read_buffer/zf_device_wire+     ----- -----
... less_uart
  +--> debug_assert_handler/zf_common_debug
  +--> fifo_read_buffer/zf_common_fifo

fifo_read_buffer/zf_common_fifo               ----- -----
  +--> debug_assert_handler/zf_common_debug
  +--> fifo_used/zf_common_fifo
  +--> memcpy?_/memcpy
  +--> fifo_end_offset/zf_common_fifo

fifo_used/zf_common_fifo                      ----- -----
  +--> debug_assert_handler/zf_common_debug

fifo_end_offset/zf_common_fifo                ----- -----

seekfree_assistant_init/seekfree_assista+     ----- -----
... nt
  +--> fifo_init/zf_common_fifo

Inductance_Init/inductance                    ----- -----
  +--> adc_init/zf_driver_adc

adc_init/zf_driver_adc                        ----- -----

PID_Init/trank                                ----- -----

adc_convert/zf_driver_adc                     ----- -----

ips114_show_uint16/zf_device_ips114           ----- -----
  +--> debug_assert_handler/zf_common_debug
  +--> ips114_show_char/zf_device_ips114

ips114_show_char/zf_device_ips114             ----- -----
  +--> debug_assert_handler/zf_common_debug
  +--> ips114_set_region/zf_device_ips114
  +--> spi_write_16bit/zf_driver_spi

Inductance_Read/inductance                    ----- -----
  +--> adc_convert/zf_driver_adc
  +--> Median_Average_Filter/inductance
  +--> ADC_Normalize_0_100/inductance

Median_Average_Filter/inductance              ----- -----

ADC_Normalize_0_100/inductance                ----- -----

SPRINTF/SPRINTF                               11DBH 1202H
  +--> OUT/SPRINTF

OUT/SPRINTF                                   ----- -----
  +--> PUTCH/SPRINTF

PUTCH/SPRINTF                                 ----- -----

*** NEW ROOT ********************************

INT0_IRQHandler/isr                           ----- -----

*** NEW ROOT ********************************
L251 LINKER/LOCATER V4.66.93.0                                                        04/19/2026  22:06:36  PAGE 25



INT1_IRQHandler/isr                           ----- -----

*** NEW ROOT ********************************

INT2_IRQHandler/isr                           ----- -----

*** NEW ROOT ********************************

INT3_IRQHandler/isr                           ----- -----

*** NEW ROOT ********************************

INT4_IRQHandler/isr                           ----- -----

*** NEW ROOT ********************************

DMA_UART1_IRQHandler/isr                      ----- -----
  +--> uart_rx_start_buff/zf_driver_uart

*** NEW ROOT ********************************

DMA_UART2_IRQHandler/isr                      ----- -----
  +--> uart_rx_start_buff/zf_driver_uart

*** NEW ROOT ********************************

DMA_UART3_IRQHandler/isr                      ----- -----
  +--> uart_rx_start_buff/zf_driver_uart

*** NEW ROOT ********************************

DMA_UART4_IRQHandler/isr                      ----- -----
  +--> uart_rx_start_buff/zf_driver_uart

*** NEW ROOT ********************************

TM0_IRQHandler/isr                            ----- -----

*** NEW ROOT ********************************

TM1_IRQHandler/isr                            ----- -----

*** NEW ROOT ********************************

TM2_IRQHandler/isr                            ----- -----

*** NEW ROOT ********************************

TM3_IRQHandler/isr                            ----- -----

*** NEW ROOT ********************************

TM4_IRQHandler/isr                            ----- -----

*** NEW ROOT ********************************

?C_C51STARTUP?2                               ----- -----



PUBLIC SYMBOLS OF MODULE:  .\out_file\SEEKFREE (?C_START)


      VALUE       CLASS    TYPE      PUBLIC SYMBOL NAME
L251 LINKER/LOCATER V4.66.93.0                                                        04/19/2026  22:06:36  PAGE 26


      =================================================
      00FF304AH   CODE     ---       ?C?BMOVEPP
      00FF3048H   CODE     ---       ?C?BMOVEPP8
      00FF243EH   CODE     NEAR LAB  ?C?CASTF
      000000FFH   NUMBER   ---       ?C?CODESEG
      00FF240BH   CODE     NEAR LAB  ?C?FCASTC
      00FF2406H   CODE     NEAR LAB  ?C?FCASTI
      00FF2401H   CODE     NEAR LAB  ?C?FCASTL
      00FF2C4BH   CODE     ---       ?C?FP2SERIES
      00FF21D4H   CODE     ---       ?C?FPADD
      00FF23AFH   CODE     ---       ?C?FPCMP
      00FF23ADH   CODE     ---       ?C?FPCMP3
      00FF2E13H   CODE     ---       ?C?FPCONVERT
      00FF232CH   CODE     ---       ?C?FPDIV
      00FF27A1H   CODE     ---       ?C?FPGETOPN2
      00FF228CH   CODE     ---       ?C?FPMUL
      00FF27DEH   CODE     ---       ?C?FPNANRESULT
      00FF23F3H   CODE     ---       ?C?FPNEG
      00FF27E6H   CODE     ---       ?C?FPOVERFLOW
      00FF27BAH   CODE     ---       ?C?FPRESULT
      00FF27D0H   CODE     ---       ?C?FPRESULT2
      00FF2ECBH   CODE     ---       ?C?FPROUND
      00FF2C54H   CODE     ---       ?C?FPSERIES
      00FF21D1H   CODE     ---       ?C?FPSUB
      00FF27E3H   CODE     ---       ?C?FPUNDERFLOW
      00FF2F3EH   CODE     ---       ?C?FTNPWR
      00FF9DC1H   CODE     ---       ?C?INITHDATA
      00FFAA7AH   HCONST   WORD      ?C?INITHDATA_END
      00FF2FB8H   CODE     ---       ?C?LIMUL
      00FF2FA7H   CODE     ---       ?C?LMUL
      00FF283CH   CODE     ---       ?C?PRNFMT
      00FF2F75H   CODE     ---       ?C?SIDIV
      00FF3014H   CODE     NEAR LAB  ?C?SLDIV
      00FF0000H   CODE     ---       ?C?STARTUP
      00FF2FC3H   CODE     NEAR LAB  ?C?ULDIV
      00FF2FC1H   CODE     NEAR LAB  ?C?ULIDIV
      00000001H   NUMBER   ---       ?C?XDATASEG
      00FF0000H   CODE     ---       ?C_STARTUP
      00011B3EH   XDATA    BYTE      ?eeprom_read?BYTE
      0001178FH   XDATA    BYTE      ?fifo_init?BYTE
      0001142FH   XDATA    BYTE      ?fifo_read_buffer?BYTE
      000115E4H   XDATA    BYTE      ?fifo_write_buffer?BYTE
      00011360H   XDATA    BYTE      ?get_two_points_azimuth?BYTE
      00010FC1H   XDATA    BYTE      ?get_two_points_distance?BYTE
      00011B02H   XDATA    BYTE      ?iap_read_buff?BYTE
      00011B0CH   XDATA    BYTE      ?iap_write_buff?BYTE
      000113E4H   XDATA    BYTE      ?ips114_show_chinese?BYTE
      00010FF1H   XDATA    BYTE      ?ips114_show_float?BYTE
      0001124AH   XDATA    BYTE      ?ips114_show_wave?BYTE
      000113FDH   XDATA    BYTE      ?ips200_show_chinese?BYTE
      00011021H   XDATA    BYTE      ?ips200_show_float?BYTE
      0001126AH   XDATA    BYTE      ?ips200_show_wave?BYTE
      0001137CH   XDATA    BYTE      ?ips200pro_create_widgets?BYTE
      000111B3H   XDATA    BYTE      ?ips200pro_image_display?BYTE
      000113B1H   XDATA    BYTE      ?ips200pro_image_draw_line?BYTE
      00011228H   XDATA    BYTE      ?ips200pro_image_draw_rectangle?BYTE
      00010F72H   XDATA    BYTE      ?ips200pro_label_printf?BYTE
      000118C8H   XDATA    BYTE      ?ips200pro_receive_buffer?BYTE
      0001181BH   XDATA    BYTE      ?ips200pro_send_buffer?BYTE
      00010EECH   XDATA    BYTE      ?ips200pro_table_cell_printf?BYTE
      00011397H   XDATA    BYTE      ?ips200pro_waveform_add_value?BYTE
      000112C9H   XDATA    BYTE      ?ips200pro_write_packet?BYTE
      00011A70H   XDATA    BYTE      ?KalmanCreate?BYTE
      0001148FH   XDATA    BYTE      ?Oscilloscope_Display?BYTE
      00011416H   XDATA    BYTE      ?Parameter_Debug?BYTE
L251 LINKER/LOCATER V4.66.93.0                                                        04/19/2026  22:06:36  PAGE 27


      00011A7CH   XDATA    BYTE      ?PID_Calc?BYTE
      00011477H   XDATA    BYTE      ?PID_Init?BYTE
      00011203H   XDATA    ---       ?printf?BYTE
      000115F6H   XDATA    BYTE      ?pwm_init?BYTE
      000114F9H   XDATA    BYTE      ?pwm_set_freq?BYTE
      00011A94H   XDATA    BYTE      ?range_protect_float?BYTE
      000112E8H   XDATA    BYTE      ?seekfree_assistant_camera_boundary_config?BYTE
      00011780H   XDATA    BYTE      ?seekfree_assistant_camera_data_send?BYTE
      00011B70H   XDATA    BYTE      ?seekfree_assistant_camera_information_config?BYTE
      0001187AH   XDATA    BYTE      ?soft_iic_init?BYTE
      00011920H   XDATA    BYTE      ?soft_iic_read_16bit_array?BYTE
      000117C7H   XDATA    BYTE      ?soft_iic_read_16bit_registers?BYTE
      00011914H   XDATA    BYTE      ?soft_iic_read_8bit_array?BYTE
      0001186DH   XDATA    BYTE      ?soft_iic_read_8bit_registers?BYTE
      00011521H   XDATA    BYTE      ?soft_iic_transfer_16bit_array?BYTE
      0001150DH   XDATA    BYTE      ?soft_iic_transfer_8bit_array?BYTE
      00011908H   XDATA    BYTE      ?soft_iic_write_16bit_array?BYTE
      000117B9H   XDATA    BYTE      ?soft_iic_write_16bit_registers?BYTE
      000118FCH   XDATA    BYTE      ?soft_iic_write_8bit_array?BYTE
      00011860H   XDATA    BYTE      ?soft_iic_write_8bit_registers?BYTE
      000114A7H   XDATA    BYTE      ?soft_spi_init?BYTE
      00011950H   XDATA    BYTE      ?soft_spi_read_16bit_array?BYTE
      000117E3H   XDATA    BYTE      ?soft_spi_read_16bit_registers?BYTE
      00011944H   XDATA    BYTE      ?soft_spi_read_8bit_array?BYTE
      00011894H   XDATA    BYTE      ?soft_spi_read_8bit_registers?BYTE
      000116E6H   XDATA    BYTE      ?soft_spi_transfer_16bit?BYTE
      000116D6H   XDATA    BYTE      ?soft_spi_transfer_8bit?BYTE
      00011938H   XDATA    BYTE      ?soft_spi_write_16bit_array?BYTE
      000117D5H   XDATA    BYTE      ?soft_spi_write_16bit_registers?BYTE
      0001192CH   XDATA    BYTE      ?soft_spi_write_8bit_array?BYTE
      00011887H   XDATA    BYTE      ?soft_spi_write_8bit_registers?BYTE
      00011535H   XDATA    BYTE      ?spi_init?BYTE
      00011B34H   XDATA    BYTE      ?spi_read_16bit_array?BYTE
      00011968H   XDATA    BYTE      ?spi_read_16bit_registers?BYTE
      00011B2AH   XDATA    BYTE      ?spi_read_8bit_array?BYTE
      00011ACCH   XDATA    BYTE      ?spi_read_8bit_registers?BYTE
      000117FFH   XDATA    BYTE      ?spi_transfer_16bit?BYTE
      000117F1H   XDATA    BYTE      ?spi_transfer_8bit?BYTE
      00011B20H   XDATA    BYTE      ?spi_write_16bit_array?BYTE
      0001195CH   XDATA    BYTE      ?spi_write_16bit_registers?BYTE
      00011B16H   XDATA    BYTE      ?spi_write_8bit_array?BYTE
      00011AC1H   XDATA    BYTE      ?spi_write_8bit_registers?BYTE
      00011203H   XDATA    ---       ?sprintf?BYTE
      00011051H   XDATA    BYTE      ?tft180_show_float?BYTE
      0001128AH   XDATA    BYTE      ?tft180_show_wave?BYTE
      0001198CH   XDATA    BYTE      ?uart_init?BYTE
      00010DDAH   XDATA    BYTE      ?vsnprintf?BYTE
      00010C9CH   XDATA    BYTE      ?zf_sprintf?BYTE
      00FF27F2H   CODE     ---       _chkfloat_?_
      00FF75C0H   CODE     ---       _m
*DEL*:00000000H   CODE     ---       ABS
*SFR* 000000D0H.6 DATA     BIT       AC
*SFR* 000000E0H   DATA     BYTE      ACC
      00011B7AH   XDATA    ---       adc
      00011AA1H   XDATA    ---       adc_average
*DEL*:00000000H   CODE     ---       ADC_Collect
*SFR* 000000BCH   DATA     BYTE      ADC_CONTR
      00FF9AB9H   CODE     ---       adc_convert
      00010725H   XDATA    ---       adc_inductance
      00FF8BBFH   CODE     ---       adc_init
*DEL*:00000000H   CODE     ---       adc_mean_filter_convert
      00FF94DFH   CODE     ---       ADC_Normalize_0_100
*SFR* 000000BDH   DATA     BYTE      ADC_RES
*SFR* 000000BEH   DATA     BYTE      ADC_RESL
*SFR* 000000DEH   DATA     BYTE      ADCCFG
L251 LINKER/LOCATER V4.66.93.0                                                        04/19/2026  22:06:36  PAGE 28


      00FF9875H   CODE     ---       ALL_init
      00FF36B4H   CODE     ---       ascii_font_8x16
      00FF2781H   CODE     ---       asin?_
      00FF26AFH   CODE     ---       atan?_
*SFR* 000000EFH   DATA     BYTE      AUXINTIF
*SFR* 0000008EH   DATA     BYTE      AUXR
*SFR* 00000097H   DATA     BYTE      AUXR2
*SFR* 000000F0H   DATA     BYTE      B
*DEL*:00000000H   CODE     ---       ble6a20_callback
*DEL*:00000000H   CODE     ---       ble6a20_init
*DEL*:00000000H   CODE     ---       ble6a20_read_buffer
*DEL*:00000000H   CODE     ---       ble6a20_send_buffer
*DEL*:00000000H   CODE     ---       ble6a20_send_byte
*DEL*:00000000H   CODE     ---       ble6a20_send_string
*SFR* 000000C8H.1 DATA     BIT       C_T2
*DEL*:00000000H   CODE     ---       Calculate_Differential_Drive
*SFR* 000000F1H   DATA     BYTE      CANICR
*SFR* 000000FAH   DATA     BYTE      CCAP0H
*SFR* 000000EAH   DATA     BYTE      CCAP0L
*SFR* 000000FBH   DATA     BYTE      CCAP1H
*SFR* 000000EBH   DATA     BYTE      CCAP1L
*SFR* 000000FCH   DATA     BYTE      CCAP2H
*SFR* 000000ECH   DATA     BYTE      CCAP2L
*SFR* 000000FDH   DATA     BYTE      CCAP3H
*SFR* 000000EDH   DATA     BYTE      CCAP3L
*SFR* 000000FEH   DATA     BYTE      CCAP4H
*SFR* 000000EEH   DATA     BYTE      CCAP4L
*SFR* 000000DAH   DATA     BYTE      CCAPM0
*SFR* 000000DBH   DATA     BYTE      CCAPM1
*SFR* 000000DCH   DATA     BYTE      CCAPM2
*SFR* 000000DDH   DATA     BYTE      CCAPM3
*SFR* 000000DEH   DATA     BYTE      CCAPM4
*SFR* 000000D8H.0 DATA     BIT       CCF0
*SFR* 000000D8H.1 DATA     BIT       CCF1
*SFR* 000000D8H.2 DATA     BIT       CCF2
*SFR* 000000D8H.3 DATA     BIT       CCF3
*SFR* 000000D8H.4 DATA     BIT       CCF4
*SFR* 000000D8H   DATA     BYTE      CCON
*SFR* 00000090H.3 DATA     BIT       CEX0
*SFR* 00000090H.4 DATA     BIT       CEX1
*SFR* 00000090H.5 DATA     BIT       CEX2
*SFR* 00000090H.6 DATA     BIT       CEX3
*SFR* 00000090H.7 DATA     BIT       CEX4
*SFR* 000000D8H.7 DATA     BIT       CF
*SFR* 000000F9H   DATA     BYTE      CH
*SFR* 000000EAH   DATA     BYTE      CKCON
*SFR* 000000E9H   DATA     BYTE      CL
      00FF9671H   CODE     ---       clock_init
*SFR* 000000D9H   DATA     BYTE      CMOD
*SFR* 000000E6H   DATA     BYTE      CMPCR1
*SFR* 000000E7H   DATA     BYTE      CMPCR2
      00011FE4H   XDATA    WORD      cnt
      00FF259FH   CODE     ---       cos?_
*SFR* 000000C8H.0 DATA     BIT       CP_RL2
*SFR* 000000D8H.6 DATA     BIT       CR
*SFR* 000000D0H.7 DATA     BIT       CY
      00010AACH   XDATA    ---       data_buffer
      00010924H   XDATA    FLOAT     Daty_X
      00010928H   XDATA    FLOAT     Daty_Y
      0001092CH   XDATA    FLOAT     Daty_Z
      00FF98F2H   CODE     ---       debug_assert_handler
      00FF8F66H   CODE     ---       debug_init
      00FFA162H   CODE     ---       debug_interrupr_handler
*DEL*:00000000H   CODE     ---       debug_read_buffer
*DEL*:00000000H   CODE     ---       debug_send_buffer
L251 LINKER/LOCATER V4.66.93.0                                                        04/19/2026  22:06:36  PAGE 29


      00010CD3H   XDATA    ---       debug_uart_buffer
      00010D14H   XDATA    ---       debug_uart_fifo
*DEL*:00000000H   CODE     ---       Dir_Control
      000118AAH   XDATA    WORD      dl1a_distance_mm
      000118ACH   XDATA    BYTE      dl1a_finsh_flag
*DEL*:00000000H   CODE     ---       dl1a_get_distance
*DEL*:00000000H   CODE     ---       dl1a_init
*DEL*:00000000H   CODE     ---       dl1a_int_handler
      000118B7H   XDATA    WORD      dl1b_distance_mm
      000118B9H   XDATA    BYTE      dl1b_finsh_flag
*DEL*:00000000H   CODE     ---       dl1b_get_distance
*DEL*:00000000H   CODE     ---       dl1b_init
*DEL*:00000000H   CODE     ---       dl1b_int_handler
      00FF8EB6H   CODE     ---       DMA_UART1_IRQHandler
      00FF9332H   CODE     ---       DMA_UART2_IRQHandler
      00FF93C1H   CODE     ---       DMA_UART3_IRQHandler
      00FF9450H   CODE     ---       DMA_UART4_IRQHandler
*SFR* 00000083H   DATA     BYTE      DPH
*SFR* 00000082H   DATA     BYTE      DPL
*SFR* 00000084H   DATA     BYTE      DPXL
*DEL*:00000000H   CODE     ---       Dual_Loop_Control
*SFR* 000000A8H.7 DATA     BIT       EA
*SFR* 000000BAH.7 DATA     BIT       EAXFR
*SFR* 000000A8H.6 DATA     BIT       EC
*SFR* 00000090H.2 DATA     BIT       ECI
*DEL*:00000000H   CODE     ---       eeprom_init
*DEL*:00000000H   CODE     ---       eeprom_read
*DEL*:00000000H   CODE     ---       eeprom_read_value
*DEL*:00000000H   CODE     ---       eeprom_trig
*DEL*:00000000H   CODE     ---       eeprom_write_value
      00010835H   XDATA    FLOAT     elemid
      00010711H   XDATA    FLOAT     eleOut_0
      00010715H   XDATA    FLOAT     eleOut_1
      00010773H   XDATA    FLOAT     eleValue
*DEL*:00000000H   CODE     ---       encoder_clear_count
      00FF865AH   CODE     ---       encoder_dir_init
*DEL*:00000000H   CODE     ---       encoder_get_count
      00FF9E96H   CODE     ---       encoder_init
*SFR* 000000A8H.4 DATA     BIT       ES
*SFR* 000000A8H.1 DATA     BIT       ET0
*SFR* 000000A8H.3 DATA     BIT       ET1
*SFR* 000000A8H.5 DATA     BIT       ET2
*SFR* 000000A8H.0 DATA     BIT       EX0
*SFR* 000000A8H.2 DATA     BIT       EX1
*SFR* 0000008FH.4 DATA     BIT       EX2
*SFR* 0000008FH.5 DATA     BIT       EX3
*SFR* 0000008FH.6 DATA     BIT       EX4
*SFR* 000000C8H.3 DATA     BIT       EXEN2
*SFR* 000000C8H.6 DATA     BIT       EXF2
      00FF2CB1H   CODE     ---       exp?_
*DEL*:00000000H   CODE     ---       extern_iap_write_buff
*DEL*:00000000H   CODE     ---       exti_all_close
*DEL*:00000000H   CODE     ---       exti_disable
*DEL*:00000000H   CODE     ---       exti_enable
*DEL*:00000000H   CODE     ---       exti_init
*SFR* 000000D0H.5 DATA     BIT       F0
*DEL*:00000000H   CODE     ---       fast_sqrt
*SFR* 00000098H.7 DATA     BIT       FE
*DEL*:00000000H   CODE     ---       fifo_clear
      00FF8855H   CODE     ---       fifo_init
      00FF3CA4H   CODE     ---       fifo_read_buffer
      00FF9CEFH   CODE     ---       fifo_used
      00FF4255H   CODE     ---       fifo_write_buffer
      000108F8H   XDATA    ---       first_complement
      00FF525AH   CODE     ---       First_complement_Init
L251 LINKER/LOCATER V4.66.93.0                                                        04/19/2026  22:06:36  PAGE 30


*DEL*:00000000H   CODE     ---       func_double_to_str
*DEL*:00000000H   CODE     ---       func_float_to_str
*DEL*:00000000H   CODE     ---       func_get_greatest_common_divisor
*DEL*:00000000H   CODE     ---       func_hex_to_str
*DEL*:00000000H   CODE     ---       func_int_to_str
*DEL*:00000000H   CODE     ---       func_soft_delay
*DEL*:00000000H   CODE     ---       func_str_to_double
*DEL*:00000000H   CODE     ---       func_str_to_float
*DEL*:00000000H   CODE     ---       func_str_to_hex
*DEL*:00000000H   CODE     ---       func_str_to_int
*DEL*:00000000H   CODE     ---       func_str_to_uint
*DEL*:00000000H   CODE     ---       func_uint_to_str
*DEL*:00000000H   CODE     ---       get_two_points_azimuth
*DEL*:00000000H   CODE     ---       get_two_points_distance
      00FF7C15H   CODE     ---       gpio_get_level
      00FF854BH   CODE     ---       gpio_init
      00FF70C0H   CODE     ---       gpio_set_impedance
      00FF68D0H   CODE     ---       gpio_set_level
      00FF5632H   CODE     ---       gpio_set_level_speed
*DEL*:00000000H   CODE     ---       gpio_toggle_level
*DEL*:00000000H   CODE     ---       gps_data_parse
      000105D0H   XDATA    INT       gps_gga_state
*DEL*:00000000H   CODE     ---       gps_init
      000105D2H   XDATA    INT       gps_rmc_state
      000104A4H   XDATA    ---       gps_tau1201
      00010423H   XDATA    BYTE      gps_tau1201_flag
      00011D4EH   XDATA    INT       gps_type
*DEL*:00000000H   CODE     ---       gps_uart_callback
      00010A2CH   XDATA    ---       gyro_buffer
      00FF9E48H   CODE     ---       gyro_init
      00010940H   XDATA    ---       Gyro_Offset
      000108A8H   XDATA    FLOAT     gyro_Offset_flag
      000107BDH   XDATA    ---       Gyro_PID
      00FF019EH   CODE     ---       gyro_proc
      000107BBH   XDATA    INT       Gyro_Z
      000108ECH   XDATA    FLOAT     gyrox
      000108F0H   XDATA    FLOAT     gyroy
      000108F4H   XDATA    FLOAT     gyroz
      000107B7H   XDATA    FLOAT     High_Speed
*SFR* 000000F6H   DATA     BYTE      IAP_ADDRE
*SFR* 000000C3H   DATA     BYTE      IAP_ADDRH
*SFR* 000000C4H   DATA     BYTE      IAP_ADDRL
*SFR* 000000C5H   DATA     BYTE      IAP_CMD
*SFR* 000000C7H   DATA     BYTE      IAP_CONTR
*SFR* 000000C2H   DATA     BYTE      IAP_DATA
*DEL*:00000000H   CODE     ---       iap_erase_page
*DEL*:00000000H   CODE     ---       iap_get_cmd_state
*DEL*:00000000H   CODE     ---       iap_idle
*DEL*:00000000H   CODE     ---       iap_init
*DEL*:00000000H   CODE     ---       iap_read_buff
*DEL*:00000000H   CODE     ---       iap_read_byte
*DEL*:00000000H   CODE     ---       iap_set_tps
*SFR* 000000F5H   DATA     BYTE      IAP_TPS
*SFR* 000000C6H   DATA     BYTE      IAP_TRIG
*DEL*:00000000H   CODE     ---       iap_write_buff
*DEL*:00000000H   CODE     ---       iap_write_byte
      00011549H   XDATA    INT       icm20602_acc_x
      0001154BH   XDATA    INT       icm20602_acc_y
      0001154DH   XDATA    INT       icm20602_acc_z
*DEL*:00000000H   CODE     ---       icm20602_get_acc
*DEL*:00000000H   CODE     ---       icm20602_get_gyro
      0001154FH   XDATA    INT       icm20602_gyro_x
      00011551H   XDATA    INT       icm20602_gyro_y
      00011553H   XDATA    INT       icm20602_gyro_z
*DEL*:00000000H   CODE     ---       icm20602_init
L251 LINKER/LOCATER V4.66.93.0                                                        04/19/2026  22:06:36  PAGE 31


      00011555H   XDATA    ---       icm20602_transition_factor
*SFR* 000000A8H   DATA     BYTE      IE
*SFR* 000000A8H   DATA     BYTE      IE0
*SFR* 00000088H.1 DATA     BIT       IE0_
*SFR* 000000B1H   DATA     BYTE      IE1
*SFR* 00000088H.3 DATA     BIT       IE1_
*SFR* 000000AFH   DATA     BYTE      IE2
      0001155DH   XDATA    INT       imu660ra_acc_x
      0001155FH   XDATA    INT       imu660ra_acc_y
      00011561H   XDATA    INT       imu660ra_acc_z
      00FF01CEH   CODE     ---       imu660ra_config_file
      00FF9C95H   CODE     ---       imu660ra_get_acc
      00FF9C3BH   CODE     ---       imu660ra_get_gyro
      00011563H   XDATA    INT       imu660ra_gyro_x
      00011565H   XDATA    INT       imu660ra_gyro_y
      00011567H   XDATA    INT       imu660ra_gyro_z
      00FF6CF6H   CODE     ---       imu660ra_init
      00011569H   XDATA    ---       imu660ra_transition_factor
*DEL*:00000000H   CODE     ---       imu660rb_acc_transition
      000119E0H   XDATA    INT       imu660rb_acc_x
      000119E2H   XDATA    INT       imu660rb_acc_y
      000119E4H   XDATA    INT       imu660rb_acc_z
*DEL*:00000000H   CODE     ---       imu660rb_get_acc
*DEL*:00000000H   CODE     ---       imu660rb_get_gyro
*DEL*:00000000H   CODE     ---       imu660rb_gyro_transition
      000119E6H   XDATA    INT       imu660rb_gyro_x
      000119E8H   XDATA    INT       imu660rb_gyro_y
      000119EAH   XDATA    INT       imu660rb_gyro_z
*DEL*:00000000H   CODE     ---       imu660rb_init
      00011325H   XDATA    INT       imu963ra_acc_x
      00011327H   XDATA    INT       imu963ra_acc_y
      00011329H   XDATA    INT       imu963ra_acc_z
*DEL*:00000000H   CODE     ---       imu963ra_get_acc
*DEL*:00000000H   CODE     ---       imu963ra_get_gyro
*DEL*:00000000H   CODE     ---       imu963ra_get_mag
      00011331H   XDATA    INT       imu963ra_gyro_x
      00011333H   XDATA    INT       imu963ra_gyro_y
      00011335H   XDATA    INT       imu963ra_gyro_z
*DEL*:00000000H   CODE     ---       imu963ra_init
      0001132BH   XDATA    INT       imu963ra_mag_x
      0001132DH   XDATA    INT       imu963ra_mag_y
      0001132FH   XDATA    INT       imu963ra_mag_z
      00011337H   XDATA    ---       imu963ra_transition_factor
      0001090CH   XDATA    ---       IMU_Data
      00FF7A91H   CODE     ---       IMU_GetValues
      00FF7FD4H   CODE     ---       IMU_gyro_Offset_Init
      00FFA28AH   CODE     ---       IMU_Handle_0
      00FF8328H   CODE     ---       IMU_Handle_180
      00FF7272H   CODE     ---       IMU_Handle_360
      00FF8AF6H   CODE     ---       IMU_YAW_integral
*DEL*:00000000H   CODE     ---       IncPID_Calc
*DEL*:00000000H   CODE     ---       Inductance_Count_Err
      00FFA3E8H   CODE     ---       Inductance_Init
      00FF7763H   CODE     ---       Inductance_Read
      00011FB8H   XDATA    ---       init_buff
*SFR* 000000B0H.2 DATA     BIT       INT0
      00011313H   XDATA    ---       int0_irq_handler
      00FF9EE2H   CODE     ---       INT0_IRQHandler
*SFR* 000000B0H.3 DATA     BIT       INT1
      00011317H   XDATA    ---       int1_irq_handler
      00FF9F22H   CODE     ---       INT1_IRQHandler
      0001131BH   XDATA    ---       int2_irq_handler
      00FF9F62H   CODE     ---       INT2_IRQHandler
      0001131FH   XDATA    ---       int3_irq_handler
      00FF9FA2H   CODE     ---       INT3_IRQHandler
L251 LINKER/LOCATER V4.66.93.0                                                        04/19/2026  22:06:36  PAGE 32


      00011323H   XDATA    ---       int4_irq_handler
      00FF9FE2H   CODE     ---       INT4_IRQHandler
*SFR* 0000008FH   DATA     BYTE      INTCLKO
*DEL*:00000000H   CODE     ---       interrupt_global_disable
      00FF0006H   CODE     ---       interrupt_global_enable
*DEL*:00000000H   CODE     ---       interrupt_set_priority
*SFR* 000000B8H   DATA     BYTE      IP
*SFR* 000000B5H   DATA     BYTE      IP2
*SFR* 000000B6H   DATA     BYTE      IP2H
*SFR* 000000DFH   DATA     BYTE      IP3
*SFR* 000000EEH   DATA     BYTE      IP3H
*SFR* 000000B7H   DATA     BYTE      IPH
*SFR* 000000B7H   DATA     BYTE      IPH0
*SFR* 000000B8H   DATA     BYTE      IPL0
      00011D02H   XDATA    WORD      ips114_bgcolor
      00FF9568H   CODE     ---       ips114_clear
      00011D04H   XDATA    INT       ips114_display_dir
*DEL*:00000000H   CODE     ---       ips114_draw_point
      00FF5F1EH   CODE     ---       ips114_init
      00011D00H   XDATA    WORD      ips114_pencolor
      00FFA3C3H   CODE     ---       ips114_set_color
      00FFA215H   CODE     ---       ips114_set_dir
      00FF80F3H   CODE     ---       ips114_show_char
*DEL*:00000000H   CODE     ---       ips114_show_chinese
*DEL*:00000000H   CODE     ---       ips114_show_float
*DEL*:00000000H   CODE     ---       ips114_show_int16
*DEL*:00000000H   CODE     ---       ips114_show_int32
*DEL*:00000000H   CODE     ---       ips114_show_int8
*DEL*:00000000H   CODE     ---       ips114_show_string
      00FF820FH   CODE     ---       ips114_show_uint16
*DEL*:00000000H   CODE     ---       ips114_show_uint8
*DEL*:00000000H   CODE     ---       ips114_show_wave
      00011D06H   XDATA    BYTE      ips114_x_max
      00011D07H   XDATA    BYTE      ips114_y_max
      00011B54H   XDATA    WORD      ips200_bgcolor
*DEL*:00000000H   CODE     ---       ips200_clear
      00011B56H   XDATA    INT       ips200_display_dir
*DEL*:00000000H   CODE     ---       ips200_draw_point
*DEL*:00000000H   CODE     ---       ips200_init
      00011B52H   XDATA    WORD      ips200_pencolor
*DEL*:00000000H   CODE     ---       ips200_set_color
*DEL*:00000000H   CODE     ---       ips200_set_dir
*DEL*:00000000H   CODE     ---       ips200_show_char
*DEL*:00000000H   CODE     ---       ips200_show_chinese
*DEL*:00000000H   CODE     ---       ips200_show_float
*DEL*:00000000H   CODE     ---       ips200_show_int16
*DEL*:00000000H   CODE     ---       ips200_show_int32
*DEL*:00000000H   CODE     ---       ips200_show_int8
*DEL*:00000000H   CODE     ---       ips200_show_string
*DEL*:00000000H   CODE     ---       ips200_show_uint16
*DEL*:00000000H   CODE     ---       ips200_show_uint8
*DEL*:00000000H   CODE     ---       ips200_show_wave
      00011B58H   XDATA    WORD      ips200_x_max
      00011B5AH   XDATA    WORD      ips200_y_max
*DEL*:00000000H   CODE     ---       ips200pro_calendar_create
*DEL*:00000000H   CODE     ---       ips200pro_calendar_display
*DEL*:00000000H   CODE     ---       ips200pro_clock_create
*DEL*:00000000H   CODE     ---       ips200pro_container_create
*DEL*:00000000H   CODE     ---       ips200pro_container_radius
*DEL*:00000000H   CODE     ---       ips200pro_create_widgets
*DEL*:00000000H   CODE     ---       ips200pro_delete_widgets
*DEL*:00000000H   CODE     ---       ips200pro_get_date
*DEL*:00000000H   CODE     ---       ips200pro_get_free_stack_size
*DEL*:00000000H   CODE     ---       ips200pro_get_information
*DEL*:00000000H   CODE     ---       ips200pro_get_time
L251 LINKER/LOCATER V4.66.93.0                                                        04/19/2026  22:06:36  PAGE 33


*DEL*:00000000H   CODE     ---       ips200pro_image_create
*DEL*:00000000H   CODE     ---       ips200pro_image_display
*DEL*:00000000H   CODE     ---       ips200pro_image_draw_line
*DEL*:00000000H   CODE     ---       ips200pro_image_draw_rectangle
      00010E60H   XDATA    ---       ips200pro_information
*DEL*:00000000H   CODE     ---       ips200pro_init
*DEL*:00000000H   CODE     ---       ips200pro_label_create
*DEL*:00000000H   CODE     ---       ips200pro_label_mode
*DEL*:00000000H   CODE     ---       ips200pro_label_printf
*DEL*:00000000H   CODE     ---       ips200pro_label_show_string
*DEL*:00000000H   CODE     ---       ips200pro_meter_create
*DEL*:00000000H   CODE     ---       ips200pro_meter_set_value
*DEL*:00000000H   CODE     ---       ips200pro_page_create
*DEL*:00000000H   CODE     ---       ips200pro_page_hidden
*DEL*:00000000H   CODE     ---       ips200pro_page_set_title_name
*DEL*:00000000H   CODE     ---       ips200pro_page_set_title_position_width
*DEL*:00000000H   CODE     ---       ips200pro_page_switch
*DEL*:00000000H   CODE     ---       ips200pro_progress_bar_create
*DEL*:00000000H   CODE     ---       ips200pro_progress_bar_set_value
*DEL*:00000000H   CODE     ---       ips200pro_read_parameter
*DEL*:00000000H   CODE     ---       ips200pro_receive_buffer
*DEL*:00000000H   CODE     ---       ips200pro_send_buffer
*DEL*:00000000H   CODE     ---       ips200pro_set_backlight
*DEL*:00000000H   CODE     ---       ips200pro_set_color
*DEL*:00000000H   CODE     ---       ips200pro_set_crc_state
*DEL*:00000000H   CODE     ---       ips200pro_set_date
*DEL*:00000000H   CODE     ---       ips200pro_set_default_font
*DEL*:00000000H   CODE     ---       ips200pro_set_direction
*DEL*:00000000H   CODE     ---       ips200pro_set_font
*DEL*:00000000H   CODE     ---       ips200pro_set_format
*DEL*:00000000H   CODE     ---       ips200pro_set_hidden
*DEL*:00000000H   CODE     ---       ips200pro_set_optimize
*DEL*:00000000H   CODE     ---       ips200pro_set_parent
*DEL*:00000000H   CODE     ---       ips200pro_set_position
*DEL*:00000000H   CODE     ---       ips200pro_set_time
*DEL*:00000000H   CODE     ---       ips200pro_table_cell_printf
*DEL*:00000000H   CODE     ---       ips200pro_table_create
*DEL*:00000000H   CODE     ---       ips200pro_table_select
*DEL*:00000000H   CODE     ---       ips200pro_table_set_col_width
      00010E69H   XDATA    ---       ips200pro_time
*DEL*:00000000H   CODE     ---       ips200pro_waveform_add_value
*DEL*:00000000H   CODE     ---       ips200pro_waveform_clear
*DEL*:00000000H   CODE     ---       ips200pro_waveform_create
*DEL*:00000000H   CODE     ---       ips200pro_waveform_line_state
*DEL*:00000000H   CODE     ---       ips200pro_waveform_line_type
*DEL*:00000000H   CODE     ---       ips200pro_write_packet
*SFR* 0000009DH   DATA     BYTE      IRCBAND
*SFR* 0000009FH   DATA     BYTE      IRTRIM
*SFR* 00000088H.0 DATA     BIT       IT0
*SFR* 00000088H.2 DATA     BIT       IT1
      00010847H   XDATA    ---       Kalman1
      00010877H   XDATA    ---       Kalman2
      00FF8767H   CODE     ---       KalmanCreate
      00FF66A8H   CODE     ---       KalmanFilter
      00FFA432H   CODE     ---       LED_Init
*DEL*:00000000H   CODE     ---       LED_Off
*DEL*:00000000H   CODE     ---       LED_On
*DEL*:00000000H   CODE     ---       LED_Switch
      000107B3H   XDATA    FLOAT     Left_High_Speed
      00010777H   XDATA    ---       left_spid
      00010839H   XDATA    FLOAT     left_spid_out
*SFR* 000000F9H   DATA     BYTE      LINICR
      00FF2D40H   CODE     NEAR LAB  log?_
      00FFA324H   CODE     ---       MAIN
*DEL*:00000000H   CODE     ---       main_loop
L251 LINKER/LOCATER V4.66.93.0                                                        04/19/2026  22:06:36  PAGE 34


      00010934H   XDATA    FLOAT     Max_Delta_Pitch
      0001094CH   XDATA    FLOAT     Max_Delta_Roll
      00FF7E9DH   CODE     ---       Median_Average_Filter
      00FFA40DH   CODE     ---       memcpy?_
*DEL*:00000000H   CODE     ---       memset?_
*DEL*:00000000H   CODE     ---       Menu_Display
*DEL*:00000000H   CODE     ---       Menu_Init
*DEL*:00000000H   CODE     ---       Motor_Protect
*DEL*:00000000H   CODE     ---       Motor_SetSpeed
      00FFA2C1H   CODE     ---       My_abs
*DEL*:00000000H   CODE     ---       Oscilloscope_Display
      00FF0046H   CODE     ---       Oscilloscope_Init
*SFR* 000000D0H.2 DATA     BIT       OV
*SFR* 000000D0H.0 DATA     BIT       P
*SFR* 00000080H   DATA     BYTE      P0
*SFR* 00000094H   DATA     BYTE      P0M0
*SFR* 00000093H   DATA     BYTE      P0M1
*SFR* 00000090H   DATA     BYTE      P1
*SFR* 00000092H   DATA     BYTE      P1M0
*SFR* 00000091H   DATA     BYTE      P1M1
*SFR* 000000A0H   DATA     BYTE      P2
*SFR* 000000A0H.0 DATA     BIT       P20
*SFR* 000000A0H.1 DATA     BIT       P21
*SFR* 000000A0H.2 DATA     BIT       P22
*SFR* 00000096H   DATA     BYTE      P2M0
*SFR* 00000095H   DATA     BYTE      P2M1
*SFR* 000000B0H   DATA     BYTE      P3
*SFR* 000000B2H   DATA     BYTE      P3M0
*SFR* 000000B1H   DATA     BYTE      P3M1
*SFR* 000000C0H   DATA     BYTE      P4
*SFR* 000000C0H.0 DATA     BIT       P40
*SFR* 000000C0H.1 DATA     BIT       P41
*SFR* 000000C0H.2 DATA     BIT       P42
*SFR* 000000C0H.3 DATA     BIT       P43
*SFR* 000000B4H   DATA     BYTE      P4M0
*SFR* 000000B3H   DATA     BYTE      P4M1
*SFR* 000000C8H   DATA     BYTE      P5
*SFR* 000000CAH   DATA     BYTE      P5M0
*SFR* 000000C9H   DATA     BYTE      P5M1
*SFR* 000000E8H   DATA     BYTE      P6
*SFR* 000000CCH   DATA     BYTE      P6M0
*SFR* 000000CBH   DATA     BYTE      P6M1
*SFR* 000000F8H   DATA     BYTE      P7
*SFR* 000000E2H   DATA     BYTE      P7M0
*SFR* 000000E1H   DATA     BYTE      P7M1
*SFR* 000000A2H   DATA     BYTE      P_SW1
*SFR* 000000BAH   DATA     BYTE      P_SW2
*SFR* 000000BBH   DATA     BYTE      P_SW3
*DEL*:00000000H   CODE     ---       Parameter_Debug
      00FFA4E5H   CODE     ---       Parameter_Debug_Init
*SFR* 00000087H   DATA     BYTE      PCON
*DEL*:00000000H   CODE     ---       PID_Calc
      00FF78FDH   CODE     ---       PID_Init
      00FF01AEH   CODE     ---       pit_handler
      00FF61E0H   CODE     ---       pit_init
      000108ACH   XDATA    FLOAT     pitch
      00010843H   XDATA    FLOAT     Pitch_Max
      0001083FH   XDATA    FLOAT     Pitch_Min
*DEL*:00000000H   CODE     ---       pow?_
*SFR* 000000B8H.6 DATA     BIT       PPC
      00FF247BH   CODE     NEAR LAB  printf
*SFR* 000000B8H.4 DATA     BIT       PS
*SFR* 000000D0H   DATA     BYTE      PSW
*SFR* 000000D1H   DATA     BYTE      PSW1
*SFR* 000000B8H.1 DATA     BIT       PT0
L251 LINKER/LOCATER V4.66.93.0                                                        04/19/2026  22:06:36  PAGE 35


*SFR* 000000B8H.3 DATA     BIT       PT1
*SFR* 000000B8H.5 DATA     BIT       PT2
      00FFA4D3H   CODE     ---       putchar
      00FFB0BAH   HCONST   ---       PWM_ARR_ADDR
      00FFB0C2H   HCONST   ---       PWM_CCER_ADDR
      00FFB0D2H   HCONST   ---       PWM_CCMR_ADDR
      00FFB09AH   HCONST   ---       PWM_CCR_ADDR
      00FF3071H   CODE     ---       pwm_init
      00FFB092H   HCONST   ---       PWM_PSCR_ADDR
*DEL*:00000000H   CODE     ---       pwm_set_duty
*DEL*:00000000H   CODE     ---       pwm_set_freq
*SFR* 000000B8H.0 DATA     BIT       PX0
*SFR* 000000B8H.2 DATA     BIT       PX1
*DEL*:00000000H   CODE     ---       range_protect_float
*DEL*:00000000H   CODE     ---       range_protect_int
*SFR* 00000098H.2 DATA     BIT       RB8
*SFR* 000000CBH   DATA     BYTE      RCAP2H
*SFR* 000000CAH   DATA     BYTE      RCAP2L
*SFR* 000000C8H.5 DATA     BIT       RCLK
*SFR* 000000B0H.7 DATA     BIT       RD
      0001072FH   XDATA    LONG      real_left
      00010721H   XDATA    LONG      real_right
*SFR* 00000098H.4 DATA     BIT       REN
*SFR* 00000098H.0 DATA     BIT       RI
      0001076FH   XDATA    FLOAT     Right_High_Speed
      00010733H   XDATA    ---       right_spid
      000108E8H   XDATA    FLOAT     roll
      000108E4H   XDATA    FLOAT     Roll_Max
      000108B0H   XDATA    FLOAT     Roll_Min
      000108A7H   XDATA    CHAR      Round
*SFR* 000000D0H.3 DATA     BIT       RS0
*SFR* 000000D0H.4 DATA     BIT       RS1
*SFR* 000000FFH   DATA     BYTE      RSTCFG
*SFR* 000000B0H.0 DATA     BIT       RXD
*SFR* 0000009BH   DATA     BYTE      S2BUF
*SFR* 0000009AH   DATA     BYTE      S2CON
*SFR* 0000009AH.1 DATA     BIT       S2TI
*SFR* 000000ACH   DATA     BYTE      S3CON
*SFR* 000000FDH   DATA     BYTE      S4CON
*SFR* 000000A9H   DATA     BYTE      SADDR
*SFR* 000000B9H   DATA     BYTE      SADEN
*SFR* 00000099H   DATA     BYTE      SBUF
*SFR* 00000098H   DATA     BYTE      SCON
*DEL*:00000000H   CODE     ---       seekfree_assistant_camera_boundary_config
*DEL*:00000000H   CODE     ---       seekfree_assistant_camera_data_send
*DEL*:00000000H   CODE     ---       seekfree_assistant_camera_dot_send
*DEL*:00000000H   CODE     ---       seekfree_assistant_camera_information_config
*DEL*:00000000H   CODE     ---       seekfree_assistant_camera_send
*DEL*:00000000H   CODE     ---       seekfree_assistant_data_analysis
      00FFA2F6H   CODE     ---       seekfree_assistant_init
*DEL*:00000000H   CODE     ---       seekfree_assistant_interface_init
      000105DCH   XDATA    ---       seekfree_assistant_oscilloscope_data
*DEL*:00000000H   CODE     ---       seekfree_assistant_oscilloscope_send
      0001061FH   XDATA    ---       seekfree_assistant_parameter
      00010617H   XDATA    ---       seekfree_assistant_parameter_update_flag
      00011F74H   XDATA    ---       seekfree_assistant_receive_callback
      00011F76H   XDATA    ---       seekfree_assistant_transfer_callback
*DEL*:00000000H   CODE     ---       Send_Data_To_PC
      00010A8CH   XDATA    ---       send_str
*DEL*:00000000H   CODE     ---       set_gps_type
      00FF6AE5H   CODE     ---       set_sys_clk
*DEL*:00000000H   CODE     ---       set_tof_type
      00FF9293H   CODE     ---       set_wireless_type
      00FF25BCH   CODE     ---       sin?_
*SFR* 00000098H.7 DATA     BIT       SM0
L251 LINKER/LOCATER V4.66.93.0                                                        04/19/2026  22:06:36  PAGE 36


*SFR* 00000098H.6 DATA     BIT       SM1
*SFR* 00000098H.5 DATA     BIT       SM2
      00FFA19EH   CODE     ---       soft_iic_delay
*DEL*:00000000H   CODE     ---       soft_iic_init
*DEL*:00000000H   CODE     ---       soft_iic_read_16bit
*DEL*:00000000H   CODE     ---       soft_iic_read_16bit_array
*DEL*:00000000H   CODE     ---       soft_iic_read_16bit_register
*DEL*:00000000H   CODE     ---       soft_iic_read_16bit_registers
*DEL*:00000000H   CODE     ---       soft_iic_read_8bit
*DEL*:00000000H   CODE     ---       soft_iic_read_8bit_array
*DEL*:00000000H   CODE     ---       soft_iic_read_8bit_register
*DEL*:00000000H   CODE     ---       soft_iic_read_8bit_registers
      00FF7D5BH   CODE     ---       soft_iic_read_data
*DEL*:00000000H   CODE     ---       soft_iic_sccb_read_register
*DEL*:00000000H   CODE     ---       soft_iic_sccb_write_register
      00FF8A1BH   CODE     ---       soft_iic_send_ack
      00FF00A6H   CODE     ---       soft_iic_send_data
      00FF900DH   CODE     ---       soft_iic_start
      00FF8D46H   CODE     ---       soft_iic_stop
*DEL*:00000000H   CODE     ---       soft_iic_transfer_16bit_array
*DEL*:00000000H   CODE     ---       soft_iic_transfer_8bit_array
      00FF8938H   CODE     ---       soft_iic_wait_ack
*DEL*:00000000H   CODE     ---       soft_iic_write_16bit
*DEL*:00000000H   CODE     ---       soft_iic_write_16bit_array
*DEL*:00000000H   CODE     ---       soft_iic_write_16bit_register
*DEL*:00000000H   CODE     ---       soft_iic_write_16bit_registers
*DEL*:00000000H   CODE     ---       soft_iic_write_8bit
*DEL*:00000000H   CODE     ---       soft_iic_write_8bit_array
*DEL*:00000000H   CODE     ---       soft_iic_write_8bit_register
*DEL*:00000000H   CODE     ---       soft_iic_write_8bit_registers
*DEL*:00000000H   CODE     ---       soft_spi_delay
*DEL*:00000000H   CODE     ---       soft_spi_init
*DEL*:00000000H   CODE     ---       soft_spi_read_16bit
*DEL*:00000000H   CODE     ---       soft_spi_read_16bit_array
*DEL*:00000000H   CODE     ---       soft_spi_read_16bit_register
*DEL*:00000000H   CODE     ---       soft_spi_read_16bit_registers
*DEL*:00000000H   CODE     ---       soft_spi_read_8bit
*DEL*:00000000H   CODE     ---       soft_spi_read_8bit_array
*DEL*:00000000H   CODE     ---       soft_spi_read_8bit_register
*DEL*:00000000H   CODE     ---       soft_spi_read_8bit_registers
*DEL*:00000000H   CODE     ---       soft_spi_transfer_16bit
*DEL*:00000000H   CODE     ---       soft_spi_transfer_8bit
*DEL*:00000000H   CODE     ---       soft_spi_write_16bit
*DEL*:00000000H   CODE     ---       soft_spi_write_16bit_array
*DEL*:00000000H   CODE     ---       soft_spi_write_16bit_register
*DEL*:00000000H   CODE     ---       soft_spi_write_16bit_registers
*DEL*:00000000H   CODE     ---       soft_spi_write_8bit
*DEL*:00000000H   CODE     ---       soft_spi_write_8bit_array
*DEL*:00000000H   CODE     ---       soft_spi_write_8bit_register
*DEL*:00000000H   CODE     ---       soft_spi_write_8bit_registers
*SFR* 00000081H   DATA     BYTE      SP
*SFR* 000000CEH   DATA     BYTE      SPCTL
*SFR* 000000CFH   DATA     BYTE      SPDAT
      0001071DH   XDATA    LONG      speed_left
      00010719H   XDATA    LONG      speed_right
*SFR* 000000BEH   DATA     BYTE      SPH
      00FF4D81H   CODE     ---       spi_init
*DEL*:00000000H   CODE     ---       spi_read_16bit
*DEL*:00000000H   CODE     ---       spi_read_16bit_array
*DEL*:00000000H   CODE     ---       spi_read_16bit_register
*DEL*:00000000H   CODE     ---       spi_read_16bit_registers
*DEL*:00000000H   CODE     ---       spi_read_8bit
*DEL*:00000000H   CODE     ---       spi_read_8bit_array
*DEL*:00000000H   CODE     ---       spi_read_8bit_register
*DEL*:00000000H   CODE     ---       spi_read_8bit_registers
L251 LINKER/LOCATER V4.66.93.0                                                        04/19/2026  22:06:36  PAGE 37


      00FF996BH   CODE     ---       spi_read_dat
*DEL*:00000000H   CODE     ---       spi_transfer_16bit
*DEL*:00000000H   CODE     ---       spi_transfer_8bit
      00FFA1DAH   CODE     ---       spi_write_16bit
*DEL*:00000000H   CODE     ---       spi_write_16bit_array
*DEL*:00000000H   CODE     ---       spi_write_16bit_register
*DEL*:00000000H   CODE     ---       spi_write_16bit_registers
      00FF0066H   CODE     ---       spi_write_8bit
*DEL*:00000000H   CODE     ---       spi_write_8bit_array
*DEL*:00000000H   CODE     ---       spi_write_8bit_register
*DEL*:00000000H   CODE     ---       spi_write_8bit_registers
      00FF9B83H   CODE     ---       spi_write_dat
      00FF24A7H   CODE     NEAR LAB  sprintf
*SFR* 000000CDH   DATA     BYTE      SPSTAT
      00FF24C7H   CODE     ---       sqrt?_
*DEL*:00000000H   CODE     ---       strchr?_
*DEL*:00000000H   CODE     ---       strlen?_
*DEL*:00000000H   CODE     ---       strncmp?_
*DEL*:00000000H   CODE     ---       strncpy?_
      00011EE4H   XDATA    LONG      system_clock
      00FF9D48H   CODE     ---       system_delay_init
      00FFA39EH   CODE     ---       system_delay_ms
*DEL*:00000000H   CODE     ---       system_delay_us
*SFR* 000000B0H.4 DATA     BIT       T0
*SFR* 000000B0H.5 DATA     BIT       T1
*SFR* 00000090H.0 DATA     BIT       T2
*SFR* 000000C8H   DATA     BYTE      T2CON
*SFR* 00000090H.1 DATA     BIT       T2EX
*SFR* 000000D6H   DATA     BYTE      T2H
*SFR* 000000D7H   DATA     BYTE      T2L
*SFR* 000000C9H   DATA     BYTE      T2MOD
*SFR* 000000D4H   DATA     BYTE      T3H
*SFR* 000000D5H   DATA     BYTE      T3L
*SFR* 000000D2H   DATA     BYTE      T4H
*SFR* 000000D3H   DATA     BYTE      T4L
*SFR* 000000DDH   DATA     BYTE      T4T3M
      00FF25E9H   CODE     ---       TAN?_
*SFR* 00000098H.3 DATA     BIT       TB8
*SFR* 000000C8H.4 DATA     BIT       TCLK
*SFR* 00000088H   DATA     BYTE      TCON
*SFR* 00000088H.5 DATA     BIT       TF0
*SFR* 00000088H.7 DATA     BIT       TF1
*SFR* 000000C8H.7 DATA     BIT       TF2
      00011D32H   XDATA    WORD      tft180_bgcolor
*DEL*:00000000H   CODE     ---       tft180_clear
      00011D34H   XDATA    INT       tft180_display_dir
*DEL*:00000000H   CODE     ---       tft180_draw_point
*DEL*:00000000H   CODE     ---       tft180_init
      00011D30H   XDATA    WORD      tft180_pencolor
*DEL*:00000000H   CODE     ---       tft180_set_color
*DEL*:00000000H   CODE     ---       tft180_set_dir
*DEL*:00000000H   CODE     ---       tft180_show_char
*DEL*:00000000H   CODE     ---       tft180_show_float
*DEL*:00000000H   CODE     ---       tft180_show_int16
*DEL*:00000000H   CODE     ---       tft180_show_int32
*DEL*:00000000H   CODE     ---       tft180_show_int8
*DEL*:00000000H   CODE     ---       tft180_show_string
*DEL*:00000000H   CODE     ---       tft180_show_uint16
*DEL*:00000000H   CODE     ---       tft180_show_uint8
*DEL*:00000000H   CODE     ---       tft180_show_wave
      00011D36H   XDATA    BYTE      tft180_x_max
      00011D37H   XDATA    BYTE      tft180_y_max
*SFR* 0000008CH   DATA     BYTE      TH0
*SFR* 0000008DH   DATA     BYTE      TH1
*SFR* 000000CDH   DATA     BYTE      TH2
L251 LINKER/LOCATER V4.66.93.0                                                        04/19/2026  22:06:36  PAGE 38


*SFR* 00000098H.1 DATA     BIT       TI
      00011311H   XDATA    ---       tim0_irq_handler
      00011307H   XDATA    ---       tim11_irq_handler
      00011315H   XDATA    ---       tim1_irq_handler
      00011319H   XDATA    ---       tim2_irq_handler
      0001131DH   XDATA    ---       tim3_irq_handler
      00011321H   XDATA    ---       tim4_irq_handler
      00FF96F2H   CODE     ---       timer_funciton_check
*SFR* 0000008AH   DATA     BYTE      TL0
*SFR* 0000008BH   DATA     BYTE      TL1
*SFR* 000000CCH   DATA     BYTE      TL2
      00FFA022H   CODE     ---       TM0_IRQHandler
      00FFA062H   CODE     ---       TM1_IRQHandler
      00FFA0A2H   CODE     ---       TM2_IRQHandler
      00FFA0E2H   CODE     ---       TM3_IRQHandler
      00FFA122H   CODE     ---       TM4_IRQHandler
*SFR* 00000089H   DATA     BYTE      TMOD
      00011D48H   XDATA    ---       tof_module_exti_handler
      00011D4CH   XDATA    INT       tof_type
*SFR* 00000088H.4 DATA     BIT       TR0
*SFR* 00000088H.6 DATA     BIT       TR1
*SFR* 000000C8H.2 DATA     BIT       TR2
*DEL*:00000000H   CODE     ---       tsl1401_collect_pit_handler
      0001020BH   XDATA    ---       tsl1401_data
      0001020AH   XDATA    BYTE      tsl1401_finish_flag
*DEL*:00000000H   CODE     ---       tsl1401_init
*DEL*:00000000H   CODE     ---       tsl1401_send_data
      000107F9H   XDATA    ---       Turn_PID
*SFR* 000000B0H.1 DATA     BIT       TXD
      00011309H   XDATA    ---       uart1_irq_handler
      0001130BH   XDATA    ---       uart2_irq_handler
      0001130DH   XDATA    ---       uart3_irq_handler
      0001130FH   XDATA    ---       uart4_irq_handler
      00FF741DH   CODE     ---       uart_dma_init
      00FF9773H   CODE     ---       uart_funciton_check
      00FF5945H   CODE     ---       uart_init
      00FF91F4H   CODE     ---       uart_query_byte
*DEL*:00000000H   CODE     ---       uart_read_byte
      00011988H   XDATA    ---       uart_rx_buff
      00FF9A53H   CODE     ---       uart_rx_interrupt
      00FF8C84H   CODE     ---       uart_rx_start_buff
      00FF6EEAH   CODE     ---       uart_write_buffer
      00FFA477H   CODE     ---       uart_write_byte
*DEL*:00000000H   CODE     ---       uart_write_string
*SFR* 000000F4H   DATA     BYTE      USBCON
*DEL*:00000000H   CODE     ---       voltage_warning_init
*SFR* 000000A6H   DATA     BYTE      VRTRIM
*DEL*:00000000H   CODE     ---       vsnprintf
*SFR* 000000C1H   DATA     BYTE      WDT_CONTR
*SFR* 000000A6H   DATA     BYTE      WDTRST
      00011D4AH   XDATA    INT       wireless_type
      00FFA378H   CODE     ---       wireless_uart_callback
      00FF97F4H   CODE     ---       wireless_uart_init
      00FF95EDH   CODE     ---       wireless_uart_read_buffer
      00FF843BH   CODE     ---       wireless_uart_send_buffer
*DEL*:00000000H   CODE     ---       wireless_uart_send_byte
*DEL*:00000000H   CODE     ---       wireless_uart_send_string
*SFR* 000000B0H.6 DATA     BIT       WR
*SFR* 000000E9H   DATA     BYTE      WTST
      00010938H   XDATA    FLOAT     yaw
      00010930H   XDATA    FLOAT     yaw_limit_360
      0001093CH   XDATA    FLOAT     yaw_total
      000108B4H   XDATA    ---       Zero
*DEL*:00000000H   CODE     ---       zf_sprintf

L251 LINKER/LOCATER V4.66.93.0                                                        04/19/2026  22:06:36  PAGE 39




SYMBOL TABLE OF MODULE:  .\out_file\SEEKFREE (?C_START)

      VALUE       REP       CLASS    TYPE      SYMBOL NAME
      ====================================================
      ---         MODULE    ---      ---       ?C_START
      00FF0000H   PUBLIC    CODE     ---       ?C?STARTUP
      00FF0000H   PUBLIC    CODE     ---       ?C_STARTUP
      000000D0H.6 SFRSYM    DATA     BIT       AC
      000000E0H   SFRSYM    DATA     BYTE      ACC
      000000F0H   SFRSYM    DATA     BYTE      B
      000000FAH   SFRSYM    DATA     BYTE      CCAP0H
      000000EAH   SFRSYM    DATA     BYTE      CCAP0L
      000000FBH   SFRSYM    DATA     BYTE      CCAP1H
      000000EBH   SFRSYM    DATA     BYTE      CCAP1L
      000000FCH   SFRSYM    DATA     BYTE      CCAP2H
      000000ECH   SFRSYM    DATA     BYTE      CCAP2L
      000000FDH   SFRSYM    DATA     BYTE      CCAP3H
      000000EDH   SFRSYM    DATA     BYTE      CCAP3L
      000000FEH   SFRSYM    DATA     BYTE      CCAP4H
      000000EEH   SFRSYM    DATA     BYTE      CCAP4L
      000000DAH   SFRSYM    DATA     BYTE      CCAPM0
      000000DBH   SFRSYM    DATA     BYTE      CCAPM1
      000000DCH   SFRSYM    DATA     BYTE      CCAPM2
      000000DDH   SFRSYM    DATA     BYTE      CCAPM3
      000000DEH   SFRSYM    DATA     BYTE      CCAPM4
      000000D8H.0 SFRSYM    DATA     BIT       CCF0
      000000D8H.1 SFRSYM    DATA     BIT       CCF1
      000000D8H.2 SFRSYM    DATA     BIT       CCF2
      000000D8H.3 SFRSYM    DATA     BIT       CCF3
      000000D8H.4 SFRSYM    DATA     BIT       CCF4
      000000D8H   SFRSYM    DATA     BYTE      CCON
      00000090H.3 SFRSYM    DATA     BIT       CEX0
      00000090H.4 SFRSYM    DATA     BIT       CEX1
      00000090H.5 SFRSYM    DATA     BIT       CEX2
      00000090H.6 SFRSYM    DATA     BIT       CEX3
      00000090H.7 SFRSYM    DATA     BIT       CEX4
      000000D8H.7 SFRSYM    DATA     BIT       CF
      000000F9H   SFRSYM    DATA     BYTE      CH
      000000E9H   SFRSYM    DATA     BYTE      CL
      000000D9H   SFRSYM    DATA     BYTE      CMOD
      000000C8H.0 SFRSYM    DATA     BIT       CP_RL2
      000000D8H.6 SFRSYM    DATA     BIT       CR
      000000D0H.7 SFRSYM    DATA     BIT       CY
      000000C8H.1 SFRSYM    DATA     BIT       C_T2
      00000083H   SFRSYM    DATA     BYTE      DPH
      00000082H   SFRSYM    DATA     BYTE      DPL
      00000084H   SFRSYM    DATA     BYTE      DPXL
      000000A8H.7 SFRSYM    DATA     BIT       EA
      000000A8H.6 SFRSYM    DATA     BIT       EC
      00000090H.2 SFRSYM    DATA     BIT       ECI
      000000A8H.4 SFRSYM    DATA     BIT       ES
      000000A8H.1 SFRSYM    DATA     BIT       ET0
      000000A8H.3 SFRSYM    DATA     BIT       ET1
      000000A8H.5 SFRSYM    DATA     BIT       ET2
      000000A8H.0 SFRSYM    DATA     BIT       EX0
      000000A8H.2 SFRSYM    DATA     BIT       EX1
      000000C8H.3 SFRSYM    DATA     BIT       EXEN2
      000000C8H.6 SFRSYM    DATA     BIT       EXF2
      000000D0H.5 SFRSYM    DATA     BIT       F0
      00000098H.7 SFRSYM    DATA     BIT       FE
      000000A8H   SFRSYM    DATA     BYTE      IE0
      00000088H.1 SFRSYM    DATA     BIT       IE0_
      000000B1H   SFRSYM    DATA     BYTE      IE1
L251 LINKER/LOCATER V4.66.93.0                                                        04/19/2026  22:06:36  PAGE 40


      00000088H.3 SFRSYM    DATA     BIT       IE1_
      000000B0H.2 SFRSYM    DATA     BIT       INT0
      000000B0H.3 SFRSYM    DATA     BIT       INT1
      000000B7H   SFRSYM    DATA     BYTE      IPH0
      000000B8H   SFRSYM    DATA     BYTE      IPL0
      00000088H.0 SFRSYM    DATA     BIT       IT0
      00000088H.2 SFRSYM    DATA     BIT       IT1
      000000D0H.2 SFRSYM    DATA     BIT       OV
      000000D0H.0 SFRSYM    DATA     BIT       P
      00000080H   SFRSYM    DATA     BYTE      P0
      00000090H   SFRSYM    DATA     BYTE      P1
      000000A0H   SFRSYM    DATA     BYTE      P2
      000000B0H   SFRSYM    DATA     BYTE      P3
      00000087H   SFRSYM    DATA     BYTE      PCON
      000000B8H.6 SFRSYM    DATA     BIT       PPC
      000000B8H.4 SFRSYM    DATA     BIT       PS
      000000D0H   SFRSYM    DATA     BYTE      PSW
      000000D1H   SFRSYM    DATA     BYTE      PSW1
      000000B8H.1 SFRSYM    DATA     BIT       PT0
      000000B8H.3 SFRSYM    DATA     BIT       PT1
      000000B8H.5 SFRSYM    DATA     BIT       PT2
      000000B8H.0 SFRSYM    DATA     BIT       PX0
      000000B8H.2 SFRSYM    DATA     BIT       PX1
      00000098H.2 SFRSYM    DATA     BIT       RB8
      000000CBH   SFRSYM    DATA     BYTE      RCAP2H
      000000CAH   SFRSYM    DATA     BYTE      RCAP2L
      000000C8H.5 SFRSYM    DATA     BIT       RCLK
      000000B0H.7 SFRSYM    DATA     BIT       RD
      00000098H.4 SFRSYM    DATA     BIT       REN
      00000098H.0 SFRSYM    DATA     BIT       RI
      000000D0H.3 SFRSYM    DATA     BIT       RS0
      000000D0H.4 SFRSYM    DATA     BIT       RS1
      000000B0H.0 SFRSYM    DATA     BIT       RXD
      000000A9H   SFRSYM    DATA     BYTE      SADDR
      000000B9H   SFRSYM    DATA     BYTE      SADEN
      00000099H   SFRSYM    DATA     BYTE      SBUF
      00000098H   SFRSYM    DATA     BYTE      SCON
      00000098H.7 SFRSYM    DATA     BIT       SM0
      00000098H.6 SFRSYM    DATA     BIT       SM1
      00000098H.5 SFRSYM    DATA     BIT       SM2
      00000081H   SFRSYM    DATA     BYTE      SP
      000000BEH   SFRSYM    DATA     BYTE      SPH
      000000B0H.4 SFRSYM    DATA     BIT       T0
      000000B0H.5 SFRSYM    DATA     BIT       T1
      00000090H.0 SFRSYM    DATA     BIT       T2
      000000C8H   SFRSYM    DATA     BYTE      T2CON
      00000090H.1 SFRSYM    DATA     BIT       T2EX
      000000C9H   SFRSYM    DATA     BYTE      T2MOD
      00000098H.3 SFRSYM    DATA     BIT       TB8
      000000C8H.4 SFRSYM    DATA     BIT       TCLK
      00000088H   SFRSYM    DATA     BYTE      TCON
      00000088H.5 SFRSYM    DATA     BIT       TF0
      00000088H.7 SFRSYM    DATA     BIT       TF1
      000000C8H.7 SFRSYM    DATA     BIT       TF2
      0000008CH   SFRSYM    DATA     BYTE      TH0
      0000008DH   SFRSYM    DATA     BYTE      TH1
      000000CDH   SFRSYM    DATA     BYTE      TH2
      00000098H.1 SFRSYM    DATA     BIT       TI
      0000008AH   SFRSYM    DATA     BYTE      TL0
      0000008BH   SFRSYM    DATA     BYTE      TL1
      000000CCH   SFRSYM    DATA     BYTE      TL2
      00000089H   SFRSYM    DATA     BYTE      TMOD
      00000088H.4 SFRSYM    DATA     BIT       TR0
      00000088H.6 SFRSYM    DATA     BIT       TR1
      000000C8H.2 SFRSYM    DATA     BIT       TR2
L251 LINKER/LOCATER V4.66.93.0                                                        04/19/2026  22:06:36  PAGE 41


      000000B0H.1 SFRSYM    DATA     BIT       TXD
      000000A6H   SFRSYM    DATA     BYTE      WDTRST
      000000B0H.6 SFRSYM    DATA     BIT       WR
      00000800H   SYMBOL    NUMBER   ---       EDATALEN
      00FF9DA8H   SYMBOL    CODE     ---       EDATALOOP
      00000001H   SYMBOL    NUMBER   ---       EDF
      00000001H   SYMBOL    NUMBER   ---       EMAP
      00000000H   SYMBOL    NUMBER   ---       HDATALEN
      00010000H   SYMBOL    NUMBER   ---       HDATASTART
      00000000H   SYMBOL    NUMBER   ---       IBPSTACK
      00000100H   SYMBOL    NUMBER   ---       IBPSTACKTOP
      00000001H   SYMBOL    NUMBER   ---       INTR
      00000001H   SYMBOL    NUMBER   ---       PAGM
      00000003H   SYMBOL    NUMBER   ---       RDRG
      00000001H   SYMBOL    NUMBER   ---       SRCM
      00000800H   SYMBOL    NUMBER   ---       STACKSIZE
      00FF9DA0H   SYMBOL    CODE     ---       STARTUP1
      00000003H   SYMBOL    NUMBER   ---       WSA
      00000003H   SYMBOL    NUMBER   ---       WSB
      00000001H   SYMBOL    NUMBER   ---       XALE
      00000000H   SYMBOL    NUMBER   ---       XBPSTACK
      00010000H   SYMBOL    NUMBER   ---       XBPSTACKTOP
      00008000H   SYMBOL    NUMBER   ---       XDATALEN
      00FF9DB7H   SYMBOL    CODE     ---       XDATALOOP
      00010000H   SYMBOL    NUMBER   ---       XDATASTART

      00FF0000H   BLOCK     CODE     NEAR LAB  LVL=0
      00FF0000H   LINE      CODE     ---       #183
      ---         BLOCKEND  ---      ---       LVL=0

      00FF9DA0H   BLOCK     CODE     NEAR LAB  LVL=0
      00FF9DA0H   LINE      CODE     ---       #188
      00FF9DA3H   LINE      CODE     ---       #191
      00FF9DA7H   LINE      CODE     ---       #192
      00FF9DA8H   LINE      CODE     ---       #193
      00FF9DABH   LINE      CODE     ---       #194
      00FF9DADH   LINE      CODE     ---       #195
      00FF9DAFH   LINE      CODE     ---       #199
      00FF9DB2H   LINE      CODE     ---       #200
      00FF9DB6H   LINE      CODE     ---       #201
      00FF9DB7H   LINE      CODE     ---       #202
      00FF9DB8H   LINE      CODE     ---       #203
      00FF9DB9H   LINE      CODE     ---       #204
      00FF9DBBH   LINE      CODE     ---       #205
      00FF9DBDH   LINE      CODE     ---       #235
      ---         BLOCKEND  ---      ---       LVL=0

      00FF9DF2H   BLOCK     CODE     NEAR LAB  LVL=0
      00FF9DF2H   LINE      CODE     ---       #238
      ---         BLOCKEND  ---      ---       LVL=0

      ---         MODULE    ---      ---       stc32g_isr

      00FF019BH   BLOCK     CODE     NEAR LAB  LVL=0
      00FF019BH   LINE      CODE     ---       #3
      ---         BLOCKEND  ---      ---       LVL=0

      00FF01ABH   BLOCK     CODE     NEAR LAB  LVL=0
      00FF01ABH   LINE      CODE     ---       #6
      ---         BLOCKEND  ---      ---       LVL=0

      00FF01BBH   BLOCK     CODE     NEAR LAB  LVL=0
      00FF01BBH   LINE      CODE     ---       #9
      ---         BLOCKEND  ---      ---       LVL=0

L251 LINKER/LOCATER V4.66.93.0                                                        04/19/2026  22:06:36  PAGE 42


      00FF01CBH   BLOCK     CODE     NEAR LAB  LVL=0
      00FF01CBH   LINE      CODE     ---       #12
      ---         BLOCKEND  ---      ---       LVL=0

      ---         MODULE    ---      ---       zf_common_clock
      00FF9671H   PUBLIC    CODE     ---       clock_init
      00FF6AE5H   PUBLIC    CODE     ---       set_sys_clk
      00011EE4H   PUBLIC    XDATA    LONG      system_clock
      00000094H   SFRSYM    DATA     BYTE      P0M0
      000000D0H   SFRSYM    DATA     BYTE      PSW
      000000BAH.7 SFRSYM    DATA     BIT       EAXFR
      0000009DH   SFRSYM    DATA     BYTE      IRCBAND
      00000097H   SFRSYM    DATA     BYTE      AUXR2
      000000EAH   SFRSYM    DATA     BYTE      CKCON
      000000EFH   SFRSYM    DATA     BYTE      AUXINTIF
      000000FDH   SFRSYM    DATA     BYTE      S4CON
      000000ACH   SFRSYM    DATA     BYTE      S3CON
      0000009AH   SFRSYM    DATA     BYTE      S2CON
      000000A6H   SFRSYM    DATA     BYTE      VRTRIM
      000000B7H   SFRSYM    DATA     BYTE      IPH
      000000CDH   SFRSYM    DATA     BYTE      SPSTAT
      000000DDH   SFRSYM    DATA     BYTE      T4T3M
      0000009FH   SFRSYM    DATA     BYTE      IRTRIM
      000000C1H   SFRSYM    DATA     BYTE      WDT_CONTR
      000000E9H   SFRSYM    DATA     BYTE      WTST
      000000DFH   SFRSYM    DATA     BYTE      IP3
      000000F4H   SFRSYM    DATA     BYTE      USBCON
      000000B5H   SFRSYM    DATA     BYTE      IP2
      000000FFH   SFRSYM    DATA     BYTE      RSTCFG
      000000C7H   SFRSYM    DATA     BYTE      IAP_CONTR
      000000F9H   SFRSYM    DATA     BYTE      LINICR
      0000008EH   SFRSYM    DATA     BYTE      AUXR
      000000AFH   SFRSYM    DATA     BYTE      IE2
      00000088H   SFRSYM    DATA     BYTE      TCON
      00000089H   SFRSYM    DATA     BYTE      TMOD
      00000098H   SFRSYM    DATA     BYTE      SCON
      000000F1H   SFRSYM    DATA     BYTE      CANICR
      00000087H   SFRSYM    DATA     BYTE      PCON
      000000BCH   SFRSYM    DATA     BYTE      ADC_CONTR
      000000E7H   SFRSYM    DATA     BYTE      CMPCR2
      000000E6H   SFRSYM    DATA     BYTE      CMPCR1
      000000DEH   SFRSYM    DATA     BYTE      ADCCFG
      000000B8H   SFRSYM    DATA     BYTE      IP
      0000008FH   SFRSYM    DATA     BYTE      INTCLKO
      000000EEH   SFRSYM    DATA     BYTE      IP3H
      000000B6H   SFRSYM    DATA     BYTE      IP2H
      000000A8H   SFRSYM    DATA     BYTE      IE
      000000BBH   SFRSYM    DATA     BYTE      P_SW3
      000000BAH   SFRSYM    DATA     BYTE      P_SW2
      000000A2H   SFRSYM    DATA     BYTE      P_SW1
      000000CEH   SFRSYM    DATA     BYTE      SPCTL
      000000F8H   SFRSYM    DATA     BYTE      P7
      000000E1H   SFRSYM    DATA     BYTE      P7M1
      000000E8H   SFRSYM    DATA     BYTE      P6
      000000C8H   SFRSYM    DATA     BYTE      P5
      000000CBH   SFRSYM    DATA     BYTE      P6M1
      000000E2H   SFRSYM    DATA     BYTE      P7M0
      000000C0H   SFRSYM    DATA     BYTE      P4
      000000C9H   SFRSYM    DATA     BYTE      P5M1
      000000CCH   SFRSYM    DATA     BYTE      P6M0
      000000B0H   SFRSYM    DATA     BYTE      P3
      000000B3H   SFRSYM    DATA     BYTE      P4M1
      000000CAH   SFRSYM    DATA     BYTE      P5M0
      000000A0H   SFRSYM    DATA     BYTE      P2
      000000B1H   SFRSYM    DATA     BYTE      P3M1
L251 LINKER/LOCATER V4.66.93.0                                                        04/19/2026  22:06:36  PAGE 43


      000000B4H   SFRSYM    DATA     BYTE      P4M0
      00000090H   SFRSYM    DATA     BYTE      P1
      00000095H   SFRSYM    DATA     BYTE      P2M1
      000000B2H   SFRSYM    DATA     BYTE      P3M0
      00000080H   SFRSYM    DATA     BYTE      P0
      00000091H   SFRSYM    DATA     BYTE      P1M1
      00000096H   SFRSYM    DATA     BYTE      P2M0
      00000092H   SFRSYM    DATA     BYTE      P1M0
      00000093H   SFRSYM    DATA     BYTE      P0M1

      00FF6AE5H   BLOCK     CODE     ---       LVL=0
      00011EE8H   SYMBOL    XDATA    DWORD     sys_clk
      00FF6AE5H   LINE      CODE     ---       #54
      00FF6AEFH   LINE      CODE     ---       #57
      00FF6AF2H   LINE      CODE     ---       #59
      00FF6B47H   LINE      CODE     ---       #61
      00FF6B47H   LINE      CODE     ---       #63
      00FF6B54H   LINE      CODE     ---       #64
      00FF6B61H   LINE      CODE     ---       #65
      00FF6B6EH   LINE      CODE     ---       #66
      00FF6B72H   LINE      CODE     ---       #67
      00FF6B7EH   LINE      CODE     ---       #68
      00FF6B81H   LINE      CODE     ---       #70
      00FF6B81H   LINE      CODE     ---       #72
      00FF6B8EH   LINE      CODE     ---       #73
      00FF6B9BH   LINE      CODE     ---       #74
      00FF6BA8H   LINE      CODE     ---       #75
      00FF6BACH   LINE      CODE     ---       #76
      00FF6BB8H   LINE      CODE     ---       #77
      00FF6BBBH   LINE      CODE     ---       #79
      00FF6BBBH   LINE      CODE     ---       #81
      00FF6BC8H   LINE      CODE     ---       #82
      00FF6BD5H   LINE      CODE     ---       #83
      00FF6BE2H   LINE      CODE     ---       #84
      00FF6BE6H   LINE      CODE     ---       #85
      00FF6BF2H   LINE      CODE     ---       #86
      00FF6BF5H   LINE      CODE     ---       #88
      00FF6BF5H   LINE      CODE     ---       #90
      00FF6C02H   LINE      CODE     ---       #91
      00FF6C0FH   LINE      CODE     ---       #92
      00FF6C1CH   LINE      CODE     ---       #93
      00FF6C20H   LINE      CODE     ---       #94
      00FF6C2CH   LINE      CODE     ---       #95
      00FF6C2FH   LINE      CODE     ---       #97
      00FF6C2FH   LINE      CODE     ---       #99
      00FF6C3CH   LINE      CODE     ---       #100
      00FF6C49H   LINE      CODE     ---       #101
      00FF6C56H   LINE      CODE     ---       #102
      00FF6C5AH   LINE      CODE     ---       #103
      00FF6C66H   LINE      CODE     ---       #104
      00FF6C69H   LINE      CODE     ---       #106
      00FF6C69H   LINE      CODE     ---       #108
      00FF6C76H   LINE      CODE     ---       #109
      00FF6C83H   LINE      CODE     ---       #110
      00FF6C90H   LINE      CODE     ---       #111
      00FF6C94H   LINE      CODE     ---       #112
      00FF6CA0H   LINE      CODE     ---       #113
      00FF6CA2H   LINE      CODE     ---       #115
      00FF6CA2H   LINE      CODE     ---       #116
      00FF6CB4H   LINE      CODE     ---       #118
      00FF6CC1H   LINE      CODE     ---       #119
      00FF6CCEH   LINE      CODE     ---       #120
      00FF6CDBH   LINE      CODE     ---       #121
      00FF6CDFH   LINE      CODE     ---       #122
      00FF6CEBH   LINE      CODE     ---       #123
L251 LINKER/LOCATER V4.66.93.0                                                        04/19/2026  22:06:36  PAGE 44


      00FF6CEBH   LINE      CODE     ---       #124
      00FF6CEBH   LINE      CODE     ---       #126
      00FF6CF5H   LINE      CODE     ---       #127
      ---         BLOCKEND  ---      ---       LVL=0

      00FF9671H   BLOCK     CODE     ---       LVL=0
      00011EECH   SYMBOL    XDATA    DWORD     clock
      00FF9671H   LINE      CODE     ---       #132
      00FF967BH   LINE      CODE     ---       #134
      00FF967FH   LINE      CODE     ---       #135
      00FF9683H   LINE      CODE     ---       #136
      00FF9686H   LINE      CODE     ---       #137
      00FF9689H   LINE      CODE     ---       #147
      00FF96A0H   LINE      CODE     ---       #153
      00FF96A3H   LINE      CODE     ---       #156
      00FF96A6H   LINE      CODE     ---       #157
      00FF96A9H   LINE      CODE     ---       #158
      00FF96ACH   LINE      CODE     ---       #159
      00FF96AFH   LINE      CODE     ---       #160
      00FF96B2H   LINE      CODE     ---       #161
      00FF96B5H   LINE      CODE     ---       #162
      00FF96B8H   LINE      CODE     ---       #163
      00FF96BBH   LINE      CODE     ---       #164
      00FF96BEH   LINE      CODE     ---       #165
      00FF96C1H   LINE      CODE     ---       #166
      00FF96C4H   LINE      CODE     ---       #167
      00FF96C7H   LINE      CODE     ---       #168
      00FF96CAH   LINE      CODE     ---       #169
      00FF96CDH   LINE      CODE     ---       #170
      00FF96D0H   LINE      CODE     ---       #171
      00FF96D3H   LINE      CODE     ---       #173
      00FF96D6H   LINE      CODE     ---       #174
      00FF96D9H   LINE      CODE     ---       #175
      00FF96DCH   LINE      CODE     ---       #176
      00FF96DFH   LINE      CODE     ---       #177
      00FF96E2H   LINE      CODE     ---       #178
      00FF96E5H   LINE      CODE     ---       #179
      00FF96E8H   LINE      CODE     ---       #180
      00FF96EBH   LINE      CODE     ---       #181
      00FF96EEH   LINE      CODE     ---       #183
      00FF96F1H   LINE      CODE     ---       #184
      ---         BLOCKEND  ---      ---       LVL=0

      ---         MODULE    ---      ---       zf_common_debug
      00FFA162H   PUBLIC    CODE     ---       debug_interrupr_handler
      00FF8F66H   PUBLIC    CODE     ---       debug_init
      00FF98F2H   PUBLIC    CODE     ---       debug_assert_handler
      00FFA4D3H   PUBLIC    CODE     ---       putchar
      00010CD3H   PUBLIC    XDATA    ---       debug_uart_buffer
      00010D14H   PUBLIC    XDATA    ---       debug_uart_fifo
      000000D0H   SFRSYM    DATA     BYTE      PSW
      0000009DH   SFRSYM    DATA     BYTE      IRCBAND
      00000097H   SFRSYM    DATA     BYTE      AUXR2
      000000EFH   SFRSYM    DATA     BYTE      AUXINTIF
      000000FDH   SFRSYM    DATA     BYTE      S4CON
      000000ACH   SFRSYM    DATA     BYTE      S3CON
      0000009AH   SFRSYM    DATA     BYTE      S2CON
      000000B7H   SFRSYM    DATA     BYTE      IPH
      000000CDH   SFRSYM    DATA     BYTE      SPSTAT
      000000DDH   SFRSYM    DATA     BYTE      T4T3M
      000000C1H   SFRSYM    DATA     BYTE      WDT_CONTR
      000000DFH   SFRSYM    DATA     BYTE      IP3
      000000F4H   SFRSYM    DATA     BYTE      USBCON
      000000B5H   SFRSYM    DATA     BYTE      IP2
      000000FFH   SFRSYM    DATA     BYTE      RSTCFG
L251 LINKER/LOCATER V4.66.93.0                                                        04/19/2026  22:06:36  PAGE 45


      000000C7H   SFRSYM    DATA     BYTE      IAP_CONTR
      000000F9H   SFRSYM    DATA     BYTE      LINICR
      0000008EH   SFRSYM    DATA     BYTE      AUXR
      000000AFH   SFRSYM    DATA     BYTE      IE2
      00000088H   SFRSYM    DATA     BYTE      TCON
      00000089H   SFRSYM    DATA     BYTE      TMOD
      00000098H   SFRSYM    DATA     BYTE      SCON
      000000F1H   SFRSYM    DATA     BYTE      CANICR
      00000087H   SFRSYM    DATA     BYTE      PCON
      000000BCH   SFRSYM    DATA     BYTE      ADC_CONTR
      000000E7H   SFRSYM    DATA     BYTE      CMPCR2
      000000E6H   SFRSYM    DATA     BYTE      CMPCR1
      000000DEH   SFRSYM    DATA     BYTE      ADCCFG
      000000B8H   SFRSYM    DATA     BYTE      IP
      0000008FH   SFRSYM    DATA     BYTE      INTCLKO
      000000EEH   SFRSYM    DATA     BYTE      IP3H
      000000B6H   SFRSYM    DATA     BYTE      IP2H
      000000A8H   SFRSYM    DATA     BYTE      IE
      000000BBH   SFRSYM    DATA     BYTE      P_SW3
      000000BAH   SFRSYM    DATA     BYTE      P_SW2
      000000A2H   SFRSYM    DATA     BYTE      P_SW1
      000000CEH   SFRSYM    DATA     BYTE      SPCTL
      000000F8H   SFRSYM    DATA     BYTE      P7
      000000E8H   SFRSYM    DATA     BYTE      P6
      000000C8H   SFRSYM    DATA     BYTE      P5
      000000C0H   SFRSYM    DATA     BYTE      P4
      000000B0H   SFRSYM    DATA     BYTE      P3
      000000A0H   SFRSYM    DATA     BYTE      P2
      00000090H   SFRSYM    DATA     BYTE      P1
      00000080H   SFRSYM    DATA     BYTE      P0
      00FFB500H   SYMBOL    HCONST   ---       ?tpl?0001
      00010D13H   SYMBOL    XDATA    BYTE      zf_debug_assert_enable
      00010D2BH   SYMBOL    XDATA    BYTE      zf_debug_init_flag
      00011C80H   SYMBOL    XDATA    ---       buff
      00011C84H   SYMBOL    XDATA    DWORD     len
      00011C88H   SYMBOL    XDATA    ---       buff
      00011C8CH   SYMBOL    XDATA    DWORD     len

      00FFA162H   BLOCK     CODE     ---       LVL=0
      00011FEEH   SYMBOL    XDATA    BYTE      dat
      00FFA162H   LINE      CODE     ---       #285
      00FFA166H   LINE      CODE     ---       #287
      00FFA16FH   LINE      CODE     ---       #289
      00FFA17CH   LINE      CODE     ---       #290
      00FFA19DH   LINE      CODE     ---       #291
      ---         BLOCKEND  ---      ---       LVL=0

      00FFA4D3H   BLOCK     CODE     ---       LVL=0
      00011FEFH   SYMBOL    XDATA    CHAR      c
      00FFA4D3H   LINE      CODE     ---       #307
      00FFA4D7H   LINE      CODE     ---       #309
      00FFA4E0H   LINE      CODE     ---       #311
      00FFA4E4H   LINE      CODE     ---       #312
      ---         BLOCKEND  ---      ---       LVL=0

      00FF98F2H   BLOCK     CODE     ---       LVL=0
      000114D1H   SYMBOL    XDATA    BYTE      pass
      000114D2H   SYMBOL    XDATA    ---       file
      000114D6H   SYMBOL    XDATA    INT       line
      00FF9906H   BLOCK     CODE     NEAR LAB  LVL=1
      000114D8H   SYMBOL    XDATA    ---       log_str
      ---         BLOCKEND  ---      ---       LVL=1
      00FF98F2H   LINE      CODE     ---       #350
      00FF9906H   LINE      CODE     ---       #351
      00FF9906H   LINE      CODE     ---       #352
L251 LINKER/LOCATER V4.66.93.0                                                        04/19/2026  22:06:36  PAGE 46


      00FF991BH   LINE      CODE     ---       #354
      00FF991DH   LINE      CODE     ---       #370
      00FF995AH   LINE      CODE     ---       #373
      00FF9961H   LINE      CODE     ---       #374
      00FF996AH   LINE      CODE     ---       #375
      ---         BLOCKEND  ---      ---       LVL=0

      00FF8F66H   BLOCK     CODE     ---       LVL=0
      00011FF0H   SYMBOL    XDATA    BYTE      uartx
      00FF8F66H   LINE      CODE     ---       #457
      00FF8F66H   LINE      CODE     ---       #458
      00FF8F66H   LINE      CODE     ---       #459
      00FF8F6BH   LINE      CODE     ---       #465
      00FF8F86H   LINE      CODE     ---       #472
      00FF8FB3H   LINE      CODE     ---       #473
      00FF8FBAH   LINE      CODE     ---       #476
      00FF8FC3H   LINE      CODE     ---       #478
      00FF8FCDH   LINE      CODE     ---       #479
      00FF8FCFH   LINE      CODE     ---       #480
      00FF8FD8H   LINE      CODE     ---       #482
      00FF8FE2H   LINE      CODE     ---       #483
      00FF8FE4H   LINE      CODE     ---       #484
      00FF8FEDH   LINE      CODE     ---       #486
      00FF8FF7H   LINE      CODE     ---       #487
      00FF8FF9H   LINE      CODE     ---       #488
      00FF9002H   LINE      CODE     ---       #490
      00FF900CH   LINE      CODE     ---       #491
      ---         BLOCKEND  ---      ---       LVL=0

      ---         MODULE    ---      ---       zf_common_fifo
      00FF3CA4H   PUBLIC    CODE     ---       fifo_read_buffer
      00FF4255H   PUBLIC    CODE     ---       fifo_write_buffer
      00FF9CEFH   PUBLIC    CODE     ---       fifo_used
      00FF8855H   PUBLIC    CODE     ---       fifo_init
      000115E4H   PUBLIC    XDATA    BYTE      ?fifo_write_buffer?BYTE
      0001142FH   PUBLIC    XDATA    BYTE      ?fifo_read_buffer?BYTE
      0001178FH   PUBLIC    XDATA    BYTE      ?fifo_init?BYTE
      000000D0H   SFRSYM    DATA     BYTE      PSW
      0000009DH   SFRSYM    DATA     BYTE      IRCBAND
      00000097H   SFRSYM    DATA     BYTE      AUXR2
      000000EFH   SFRSYM    DATA     BYTE      AUXINTIF
      000000FDH   SFRSYM    DATA     BYTE      S4CON
      000000ACH   SFRSYM    DATA     BYTE      S3CON
      0000009AH   SFRSYM    DATA     BYTE      S2CON
      000000B7H   SFRSYM    DATA     BYTE      IPH
      000000CDH   SFRSYM    DATA     BYTE      SPSTAT
      000000DDH   SFRSYM    DATA     BYTE      T4T3M
      000000C1H   SFRSYM    DATA     BYTE      WDT_CONTR
      000000DFH   SFRSYM    DATA     BYTE      IP3
      000000F4H   SFRSYM    DATA     BYTE      USBCON
      000000B5H   SFRSYM    DATA     BYTE      IP2
      000000FFH   SFRSYM    DATA     BYTE      RSTCFG
      000000C7H   SFRSYM    DATA     BYTE      IAP_CONTR
      000000F9H   SFRSYM    DATA     BYTE      LINICR
      0000008EH   SFRSYM    DATA     BYTE      AUXR
      000000AFH   SFRSYM    DATA     BYTE      IE2
      00000088H   SFRSYM    DATA     BYTE      TCON
      00000089H   SFRSYM    DATA     BYTE      TMOD
      00000098H   SFRSYM    DATA     BYTE      SCON
      000000F1H   SFRSYM    DATA     BYTE      CANICR
      00000087H   SFRSYM    DATA     BYTE      PCON
      000000BCH   SFRSYM    DATA     BYTE      ADC_CONTR
      000000E7H   SFRSYM    DATA     BYTE      CMPCR2
      000000E6H   SFRSYM    DATA     BYTE      CMPCR1
      000000DEH   SFRSYM    DATA     BYTE      ADCCFG
L251 LINKER/LOCATER V4.66.93.0                                                        04/19/2026  22:06:36  PAGE 47


      000000B8H   SFRSYM    DATA     BYTE      IP
      0000008FH   SFRSYM    DATA     BYTE      INTCLKO
      000000EEH   SFRSYM    DATA     BYTE      IP3H
      000000B6H   SFRSYM    DATA     BYTE      IP2H
      000000A8H   SFRSYM    DATA     BYTE      IE
      000000BBH   SFRSYM    DATA     BYTE      P_SW3
      000000BAH   SFRSYM    DATA     BYTE      P_SW2
      000000A2H   SFRSYM    DATA     BYTE      P_SW1
      000000CEH   SFRSYM    DATA     BYTE      SPCTL
      000000F8H   SFRSYM    DATA     BYTE      P7
      000000E8H   SFRSYM    DATA     BYTE      P6
      000000C8H   SFRSYM    DATA     BYTE      P5
      000000C0H   SFRSYM    DATA     BYTE      P4
      000000B0H   SFRSYM    DATA     BYTE      P3
      000000A0H   SFRSYM    DATA     BYTE      P2
      00000090H   SFRSYM    DATA     BYTE      P1
      00000080H   SFRSYM    DATA     BYTE      P0
      00FF90B4H   SYMBOL    CODE     ---       fifo_head_offset
      00FF9154H   SYMBOL    CODE     ---       fifo_end_offset

      00FF90B4H   BLOCK     CODE     ---       LVL=0
      00011C90H   SYMBOL    XDATA    ---       fifo
      00011C94H   SYMBOL    XDATA    DWORD     offset
      00FF90B4H   LINE      CODE     ---       #51
      00FF90C8H   LINE      CODE     ---       #53
      00FF90F0H   LINE      CODE     ---       #55
      00FF90F2H   LINE      CODE     ---       #57
      00FF9125H   LINE      CODE     ---       #58
      00FF9153H   LINE      CODE     ---       #59
      ---         BLOCKEND  ---      ---       LVL=0

      00FF9154H   BLOCK     CODE     ---       LVL=0
      00011C98H   SYMBOL    XDATA    ---       fifo
      00011C9CH   SYMBOL    XDATA    DWORD     offset
      00FF9154H   LINE      CODE     ---       #69
      00FF9168H   LINE      CODE     ---       #71
      00FF9190H   LINE      CODE     ---       #73
      00FF9192H   LINE      CODE     ---       #75
      00FF91C5H   LINE      CODE     ---       #76
      00FF91F3H   LINE      CODE     ---       #77
      ---         BLOCKEND  ---      ---       LVL=0
      00011DA2H   SYMBOL    XDATA    ---       fifo
      00011DA6H   SYMBOL    XDATA    INT       return_state

      00FF9CEFH   BLOCK     CODE     ---       LVL=0
      00011EF0H   SYMBOL    XDATA    ---       fifo
      00FF9CEFH   LINE      CODE     ---       #120
      00FF9CF9H   LINE      CODE     ---       #122
      00FF9D1BH   LINE      CODE     ---       #123
      00FF9D47H   LINE      CODE     ---       #124
      ---         BLOCKEND  ---      ---       LVL=0

      00FF4255H   BLOCK     CODE     ---       LVL=0
      000115E4H   SYMBOL    XDATA    ---       fifo
      000115E8H   SYMBOL    XDATA    ---       dat
      000115ECH   SYMBOL    XDATA    DWORD     length
      00FF4269H   BLOCK     CODE     NEAR LAB  LVL=1
      000115F0H   SYMBOL    XDATA    INT       return_state
      000115F2H   SYMBOL    XDATA    DWORD     temp_length
      ---         BLOCKEND  ---      ---       LVL=1
      00FF4255H   LINE      CODE     ---       #178
      00FF4269H   LINE      CODE     ---       #179
      00FF4269H   LINE      CODE     ---       #180
      00FF4271H   LINE      CODE     ---       #181
      00FF427DH   LINE      CODE     ---       #182
L251 LINKER/LOCATER V4.66.93.0                                                        04/19/2026  22:06:36  PAGE 48


      00FF429FH   LINE      CODE     ---       #184
      00FF429FH   LINE      CODE     ---       #186
      00FF42ADH   LINE      CODE     ---       #188
      00FF42B7H   LINE      CODE     ---       #189
      00FF42BAH   LINE      CODE     ---       #190
      00FF42BAH   LINE      CODE     ---       #191
      00FF42D5H   LINE      CODE     ---       #193
      00FF42DFH   LINE      CODE     ---       #194
      00FF42E2H   LINE      CODE     ---       #195
      00FF42E2H   LINE      CODE     ---       #196
      00FF42F6H   LINE      CODE     ---       #198
      00FF431CH   LINE      CODE     ---       #200
      00FF4352H   LINE      CODE     ---       #202
      00FF436DH   LINE      CODE     ---       #204
      00FF4391H   LINE      CODE     ---       #206
      00FF4391H   LINE      CODE     ---       #208
      00FF43D8H   LINE      CODE     ---       #211
      00FF43EFH   LINE      CODE     ---       #212
      00FF4454H   LINE      CODE     ---       #216
      00FF4477H   LINE      CODE     ---       #217
      00FF447AH   LINE      CODE     ---       #218
      00FF447AH   LINE      CODE     ---       #220
      00FF44C5H   LINE      CODE     ---       #223
      00FF44DCH   LINE      CODE     ---       #224
      00FF4543H   LINE      CODE     ---       #228
      00FF4566H   LINE      CODE     ---       #229
      00FF4569H   LINE      CODE     ---       #230
      00FF4569H   LINE      CODE     ---       #232
      00FF45B8H   LINE      CODE     ---       #235
      00FF45CFH   LINE      CODE     ---       #236
      00FF463CH   LINE      CODE     ---       #240
      00FF465FH   LINE      CODE     ---       #241
      00FF465FH   LINE      CODE     ---       #242
      00FF465FH   LINE      CODE     ---       #243
      00FF4662H   LINE      CODE     ---       #246
      00FF4683H   LINE      CODE     ---       #248
      00FF4683H   LINE      CODE     ---       #250
      00FF46CAH   LINE      CODE     ---       #253
      00FF46E1H   LINE      CODE     ---       #254
      00FF46E4H   LINE      CODE     ---       #255
      00FF46E4H   LINE      CODE     ---       #257
      00FF472FH   LINE      CODE     ---       #260
      00FF4746H   LINE      CODE     ---       #261
      00FF4748H   LINE      CODE     ---       #262
      00FF4748H   LINE      CODE     ---       #264
      00FF4797H   LINE      CODE     ---       #267
      00FF47AEH   LINE      CODE     ---       #268
      00FF47AEH   LINE      CODE     ---       #269
      00FF47AEH   LINE      CODE     ---       #270
      00FF47AEH   LINE      CODE     ---       #272
      00FF47D6H   LINE      CODE     ---       #273
      00FF47D8H   LINE      CODE     ---       #276
      00FF47E2H   LINE      CODE     ---       #277
      00FF47E2H   LINE      CODE     ---       #278
      00FF47F6H   LINE      CODE     ---       #279
      00FF47F6H   LINE      CODE     ---       #281
      00FF47FCH   LINE      CODE     ---       #282
      ---         BLOCKEND  ---      ---       LVL=0

      00FF3CA4H   BLOCK     CODE     ---       LVL=0
      0001142FH   SYMBOL    XDATA    ---       fifo
      00011433H   SYMBOL    XDATA    ---       dat
      00011437H   SYMBOL    XDATA    ---       length
      0001143BH   SYMBOL    XDATA    INT       flag
      00FF3CB8H   BLOCK     CODE     NEAR LAB  LVL=1
L251 LINKER/LOCATER V4.66.93.0                                                        04/19/2026  22:06:36  PAGE 49


      0001143DH   SYMBOL    XDATA    INT       return_state
      0001143FH   SYMBOL    XDATA    DWORD     temp_length
      00011443H   SYMBOL    XDATA    DWORD     fifo_data_length
      ---         BLOCKEND  ---      ---       LVL=1
      00FF3CA4H   LINE      CODE     ---       #355
      00FF3CB8H   LINE      CODE     ---       #356
      00FF3CB8H   LINE      CODE     ---       #357
      00FF3CC0H   LINE      CODE     ---       #358
      00FF3CCCH   LINE      CODE     ---       #359
      00FF3CD8H   LINE      CODE     ---       #361
      00FF3CFAH   LINE      CODE     ---       #362
      00FF3D1CH   LINE      CODE     ---       #364
      00FF3D1CH   LINE      CODE     ---       #366
      00FF3D2AH   LINE      CODE     ---       #368
      00FF3D34H   LINE      CODE     ---       #369
      00FF3D37H   LINE      CODE     ---       #372
      00FF3D52H   LINE      CODE     ---       #374
      00FF3D6DH   LINE      CODE     ---       #375
      00FF3D77H   LINE      CODE     ---       #376
      00FF3D7AH   LINE      CODE     ---       #377
      00FF3D7AH   LINE      CODE     ---       #379
      00FF3D91H   LINE      CODE     ---       #380
      00FF3DB0H   LINE      CODE     ---       #382
      00FF3DCBH   LINE      CODE     ---       #383
      00FF3DD5H   LINE      CODE     ---       #384
      00FF3DE3H   LINE      CODE     ---       #386
      00FF3DF7H   LINE      CODE     ---       #387
      00FF3DFAH   LINE      CODE     ---       #388
      00FF3DFAH   LINE      CODE     ---       #391
      00FF3E0EH   LINE      CODE     ---       #392
      00FF3E44H   LINE      CODE     ---       #393
      00FF3E66H   LINE      CODE     ---       #395
      00FF3E87H   LINE      CODE     ---       #397
      00FF3EDAH   LINE      CODE     ---       #398
      00FF3F31H   LINE      CODE     ---       #399
      00FF3F89H   LINE      CODE     ---       #400
      00FF3F89H   LINE      CODE     ---       #401
      00FF3F8CH   LINE      CODE     ---       #404
      00FF3FB0H   LINE      CODE     ---       #406
      00FF3FB0H   LINE      CODE     ---       #408
      00FF3FF9H   LINE      CODE     ---       #409
      00FF404AH   LINE      CODE     ---       #410
      00FF404DH   LINE      CODE     ---       #411
      00FF404DH   LINE      CODE     ---       #413
      00FF409AH   LINE      CODE     ---       #414
      00FF40EDH   LINE      CODE     ---       #415
      00FF40F0H   LINE      CODE     ---       #416
      00FF40F0H   LINE      CODE     ---       #418
      00FF4141H   LINE      CODE     ---       #419
      00FF4198H   LINE      CODE     ---       #420
      00FF4198H   LINE      CODE     ---       #421
      00FF4198H   LINE      CODE     ---       #422
      00FF4198H   LINE      CODE     ---       #423
      00FF41ACH   LINE      CODE     ---       #424
      00FF41ACH   LINE      CODE     ---       #426
      00FF41BBH   LINE      CODE     ---       #428
      00FF41CDH   LINE      CODE     ---       #430
      00FF41D7H   LINE      CODE     ---       #431
      00FF41D9H   LINE      CODE     ---       #432
      00FF41D9H   LINE      CODE     ---       #433
      00FF41EDH   LINE      CODE     ---       #434
      00FF420BH   LINE      CODE     ---       #435
      00FF423AH   LINE      CODE     ---       #436
      00FF424EH   LINE      CODE     ---       #437
      00FF424EH   LINE      CODE     ---       #440
L251 LINKER/LOCATER V4.66.93.0                                                        04/19/2026  22:06:36  PAGE 50


      00FF4254H   LINE      CODE     ---       #441
      ---         BLOCKEND  ---      ---       LVL=0

      00FF8855H   BLOCK     CODE     ---       LVL=0
      0001178FH   SYMBOL    XDATA    ---       fifo
      00011793H   SYMBOL    XDATA    INT       type
      00011795H   SYMBOL    XDATA    ---       buffer_addr
      00011799H   SYMBOL    XDATA    DWORD     siz
      00FF8855H   LINE      CODE     ---       #549
      00FF8865H   LINE      CODE     ---       #551
      00FF8887H   LINE      CODE     ---       #552
      00FF8887H   LINE      CODE     ---       #554
      00FF88A6H   LINE      CODE     ---       #555
      00FF88B4H   LINE      CODE     ---       #556
      00FF88C9H   LINE      CODE     ---       #557
      00FF88E0H   LINE      CODE     ---       #558
      00FF88F7H   LINE      CODE     ---       #559
      00FF8916H   LINE      CODE     ---       #560
      00FF8935H   LINE      CODE     ---       #561
      00FF8935H   LINE      CODE     ---       #562
      00FF8937H   LINE      CODE     ---       #563
      ---         BLOCKEND  ---      ---       LVL=0

      ---         MODULE    ---      ---       zf_common_font
      00FF36B4H   PUBLIC    CODE     ---       ascii_font_8x16
      000000D0H   SFRSYM    DATA     BYTE      PSW
      0000009DH   SFRSYM    DATA     BYTE      IRCBAND
      00000097H   SFRSYM    DATA     BYTE      AUXR2
      000000EFH   SFRSYM    DATA     BYTE      AUXINTIF
      000000FDH   SFRSYM    DATA     BYTE      S4CON
      000000ACH   SFRSYM    DATA     BYTE      S3CON
      0000009AH   SFRSYM    DATA     BYTE      S2CON
      000000B7H   SFRSYM    DATA     BYTE      IPH
      000000CDH   SFRSYM    DATA     BYTE      SPSTAT
      000000DDH   SFRSYM    DATA     BYTE      T4T3M
      000000C1H   SFRSYM    DATA     BYTE      WDT_CONTR
      000000DFH   SFRSYM    DATA     BYTE      IP3
      000000F4H   SFRSYM    DATA     BYTE      USBCON
      000000B5H   SFRSYM    DATA     BYTE      IP2
      000000FFH   SFRSYM    DATA     BYTE      RSTCFG
      000000C7H   SFRSYM    DATA     BYTE      IAP_CONTR
      000000F9H   SFRSYM    DATA     BYTE      LINICR
      0000008EH   SFRSYM    DATA     BYTE      AUXR
      000000AFH   SFRSYM    DATA     BYTE      IE2
      00000088H   SFRSYM    DATA     BYTE      TCON
      00000089H   SFRSYM    DATA     BYTE      TMOD
      00000098H   SFRSYM    DATA     BYTE      SCON
      000000F1H   SFRSYM    DATA     BYTE      CANICR
      00000087H   SFRSYM    DATA     BYTE      PCON
      000000BCH   SFRSYM    DATA     BYTE      ADC_CONTR
      000000E7H   SFRSYM    DATA     BYTE      CMPCR2
      000000E6H   SFRSYM    DATA     BYTE      CMPCR1
      000000DEH   SFRSYM    DATA     BYTE      ADCCFG
      000000B8H   SFRSYM    DATA     BYTE      IP
      0000008FH   SFRSYM    DATA     BYTE      INTCLKO
      000000EEH   SFRSYM    DATA     BYTE      IP3H
      000000B6H   SFRSYM    DATA     BYTE      IP2H
      000000A8H   SFRSYM    DATA     BYTE      IE
      000000BBH   SFRSYM    DATA     BYTE      P_SW3
      000000BAH   SFRSYM    DATA     BYTE      P_SW2
      000000A2H   SFRSYM    DATA     BYTE      P_SW1
      000000CEH   SFRSYM    DATA     BYTE      SPCTL
      000000F8H   SFRSYM    DATA     BYTE      P7
      000000E8H   SFRSYM    DATA     BYTE      P6
      000000C8H   SFRSYM    DATA     BYTE      P5
L251 LINKER/LOCATER V4.66.93.0                                                        04/19/2026  22:06:36  PAGE 51


      000000C0H   SFRSYM    DATA     BYTE      P4
      000000B0H   SFRSYM    DATA     BYTE      P3
      000000A0H   SFRSYM    DATA     BYTE      P2
      00000090H   SFRSYM    DATA     BYTE      P1
      00000080H   SFRSYM    DATA     BYTE      P0

      ---         MODULE    ---      ---       zf_common_function
      00010DDAH   PUBLIC    XDATA    BYTE      ?vsnprintf?BYTE
      00010C9CH   PUBLIC    XDATA    BYTE      ?zf_sprintf?BYTE
      000000D0H   SFRSYM    DATA     BYTE      PSW
      0000009DH   SFRSYM    DATA     BYTE      IRCBAND
      00000097H   SFRSYM    DATA     BYTE      AUXR2
      000000EFH   SFRSYM    DATA     BYTE      AUXINTIF
      000000FDH   SFRSYM    DATA     BYTE      S4CON
      000000ACH   SFRSYM    DATA     BYTE      S3CON
      0000009AH   SFRSYM    DATA     BYTE      S2CON
      000000B7H   SFRSYM    DATA     BYTE      IPH
      000000CDH   SFRSYM    DATA     BYTE      SPSTAT
      000000DDH   SFRSYM    DATA     BYTE      T4T3M
      000000C1H   SFRSYM    DATA     BYTE      WDT_CONTR
      000000DFH   SFRSYM    DATA     BYTE      IP3
      000000F4H   SFRSYM    DATA     BYTE      USBCON
      000000B5H   SFRSYM    DATA     BYTE      IP2
      000000FFH   SFRSYM    DATA     BYTE      RSTCFG
      000000C7H   SFRSYM    DATA     BYTE      IAP_CONTR
      000000F9H   SFRSYM    DATA     BYTE      LINICR
      0000008EH   SFRSYM    DATA     BYTE      AUXR
      000000AFH   SFRSYM    DATA     BYTE      IE2
      00000088H   SFRSYM    DATA     BYTE      TCON
      00000089H   SFRSYM    DATA     BYTE      TMOD
      00000098H   SFRSYM    DATA     BYTE      SCON
      000000F1H   SFRSYM    DATA     BYTE      CANICR
      00000087H   SFRSYM    DATA     BYTE      PCON
      000000BCH   SFRSYM    DATA     BYTE      ADC_CONTR
      000000E7H   SFRSYM    DATA     BYTE      CMPCR2
      000000E6H   SFRSYM    DATA     BYTE      CMPCR1
      000000DEH   SFRSYM    DATA     BYTE      ADCCFG
      000000B8H   SFRSYM    DATA     BYTE      IP
      0000008FH   SFRSYM    DATA     BYTE      INTCLKO
      000000EEH   SFRSYM    DATA     BYTE      IP3H
      000000B6H   SFRSYM    DATA     BYTE      IP2H
      000000A8H   SFRSYM    DATA     BYTE      IE
      000000BBH   SFRSYM    DATA     BYTE      P_SW3
      000000BAH   SFRSYM    DATA     BYTE      P_SW2
      000000A2H   SFRSYM    DATA     BYTE      P_SW1
      000000CEH   SFRSYM    DATA     BYTE      SPCTL
      000000F8H   SFRSYM    DATA     BYTE      P7
      000000E8H   SFRSYM    DATA     BYTE      P6
      000000C8H   SFRSYM    DATA     BYTE      P5
      000000C0H   SFRSYM    DATA     BYTE      P4
      000000B0H   SFRSYM    DATA     BYTE      P3
      000000A0H   SFRSYM    DATA     BYTE      P2
      00000090H   SFRSYM    DATA     BYTE      P1
      00000080H   SFRSYM    DATA     BYTE      P0
      00FFB296H   SYMBOL    HCONST   ---       ?tpl?0001
      00FFB2A6H   SYMBOL    HCONST   ---       ?tpl?0002
      00011CA0H   SYMBOL    XDATA    DWORD     num1
      00011CA4H   SYMBOL    XDATA    DWORD     num2
      00011EF4H   SYMBOL    XDATA    LONG      t
      00011B84H   SYMBOL    XDATA    ---       str
      00011B88H   SYMBOL    XDATA    BYTE      sign
      00011B89H   SYMBOL    XDATA    LONG      temp
      00011343H   SYMBOL    XDATA    ---       str
      00011347H   SYMBOL    XDATA    LONG      number
      0001134BH   SYMBOL    XDATA    ---       data_temp
L251 LINKER/LOCATER V4.66.93.0                                                        04/19/2026  22:06:36  PAGE 52


      0001135BH   SYMBOL    XDATA    BYTE      temp_bit
      0001135CH   SYMBOL    XDATA    LONG      number_temp
      00011CA8H   SYMBOL    XDATA    ---       str
      00011CACH   SYMBOL    XDATA    DWORD     temp
      000113CBH   SYMBOL    XDATA    ---       str
      000113CFH   SYMBOL    XDATA    DWORD     number
      000113D3H   SYMBOL    XDATA    ---       data_temp
      000113E3H   SYMBOL    XDATA    BYTE      temp_bit
      0001162CH   SYMBOL    XDATA    ---       str
      00011630H   SYMBOL    XDATA    BYTE      sign
      00011631H   SYMBOL    XDATA    FLOAT     temp
      00011635H   SYMBOL    XDATA    FLOAT     temp_point
      00011639H   SYMBOL    XDATA    FLOAT     point_bit
      0001115FH   SYMBOL    XDATA    ---       str
      00011163H   SYMBOL    XDATA    FLOAT     number
      00011167H   SYMBOL    XDATA    BYTE      point_bit
      00011168H   SYMBOL    XDATA    INT       data_int
      0001116AH   SYMBOL    XDATA    INT       data_float
      0001116CH   SYMBOL    XDATA    ---       data_temp
      0001117CH   SYMBOL    XDATA    ---       data_temp_point
      00011188H   SYMBOL    XDATA    BYTE      temp_bit
      0001163DH   SYMBOL    XDATA    ---       str
      00011641H   SYMBOL    XDATA    BYTE      sign
      00011642H   SYMBOL    XDATA    FLOAT     temp
      00011646H   SYMBOL    XDATA    FLOAT     temp_point
      0001164AH   SYMBOL    XDATA    FLOAT     point_bit
      00010F89H   SYMBOL    XDATA    ---       str
      00010F8DH   SYMBOL    XDATA    FLOAT     number
      00010F91H   SYMBOL    XDATA    BYTE      point_bit
      00010F92H   SYMBOL    XDATA    INT       data_int
      00010F94H   SYMBOL    XDATA    INT       data_float
      00010F96H   SYMBOL    XDATA    ---       data_temp
      00010FAEH   SYMBOL    XDATA    ---       data_temp_point
      00010FC0H   SYMBOL    XDATA    BYTE      temp_bit
      0001179DH   SYMBOL    XDATA    ---       str
      000117A1H   SYMBOL    XDATA    DWORD     str_len
      000117A5H   SYMBOL    XDATA    DWORD     result_data
      000117A9H   SYMBOL    XDATA    BYTE      temp
      000117AAH   SYMBOL    XDATA    BYTE      flag
      00011203H   SYMBOL    XDATA    ---       str
      00011207H   SYMBOL    XDATA    DWORD     number
      0001120BH   SYMBOL    XDATA    ---       hex_index
      0001121BH   SYMBOL    XDATA    ---       data_temp
      00011227H   SYMBOL    XDATA    BYTE      temp_bit
      000114E5H   SYMBOL    XDATA    DWORD     dat
      000114E9H   SYMBOL    XDATA    ---       p
      000114EDH   SYMBOL    XDATA    BYTE      neg_type
      000114EEH   SYMBOL    XDATA    BYTE      radix
      000114EFH   SYMBOL    XDATA    LONG      neg_dat
      000114F3H   SYMBOL    XDATA    DWORD     pos_dat
      000114F7H   SYMBOL    XDATA    BYTE      temp_data
      000114F8H   SYMBOL    XDATA    BYTE      valid_num
      00011853H   SYMBOL    XDATA    ---       d_buff
      00011857H   SYMBOL    XDATA    DWORD     len
      0001185BH   SYMBOL    XDATA    DWORD     i
      0001185FH   SYMBOL    XDATA    CHAR      temp_data
      00010DDAH   SYMBOL    XDATA    ---       buffer
      00010DDEH   SYMBOL    XDATA    DWORD     siz
      00010DE2H   SYMBOL    XDATA    ---       format
      00010DE6H   SYMBOL    XDATA    ---       args
      00010DEAH   SYMBOL    XDATA    DWORD     i
      00010DEEH   SYMBOL    XDATA    ---       ptr
      00010DF2H   SYMBOL    XDATA    INT       j
      00010DF4H   SYMBOL    XDATA    INT       num
      00010DF6H   SYMBOL    XDATA    ---       temp
L251 LINKER/LOCATER V4.66.93.0                                                        04/19/2026  22:06:36  PAGE 53


      00010E06H   SYMBOL    XDATA    INT       len
      00010E08H   SYMBOL    XDATA    INT       is_negative
      00010E0AH   SYMBOL    XDATA    ---       str
      00010E0EH   SYMBOL    XDATA    DWORD     num_x
      00010E12H   SYMBOL    XDATA    ---       temp_x
      00010E1BH   SYMBOL    XDATA    ---       hex_digits
      00010E2CH   SYMBOL    XDATA    CHAR      t
      00010E2CH   SYMBOL    XDATA    CHAR      t
      00010C9CH   SYMBOL    XDATA    ---       buff
      00010CA0H   SYMBOL    XDATA    ---       format
      00010CA4H   SYMBOL    XDATA    DWORD     buff_len
      00010CA8H   SYMBOL    XDATA    ---       arg
      00010CACH   SYMBOL    XDATA    CHAR      ret
      00010CADH   SYMBOL    XDATA    CHAR      ch
      00010CADH   SYMBOL    XDATA    ---       vstr
      00010CCEH   SYMBOL    XDATA    LONG      ival
      00010CD2H   SYMBOL    XDATA    BYTE      vlen
      00010CADH   SYMBOL    XDATA    ---       vstr
      00010CCEH   SYMBOL    XDATA    FLOAT     ival
      00010CD2H   SYMBOL    XDATA    BYTE      vlen
      00010CADH   SYMBOL    XDATA    ---       vstr
      00010CCEH   SYMBOL    XDATA    DWORD     ival
      00010CD2H   SYMBOL    XDATA    BYTE      vlen
      00010CADH   SYMBOL    XDATA    ---       vstr
      00010CCEH   SYMBOL    XDATA    DWORD     ival
      00010CD2H   SYMBOL    XDATA    BYTE      vlen
      00010CADH   SYMBOL    XDATA    ---       vstr
      00010CCEH   SYMBOL    XDATA    DWORD     ival
      00010CD2H   SYMBOL    XDATA    BYTE      vlen
      00010CADH   SYMBOL    XDATA    ---       pc
      00010CADH   SYMBOL    XDATA    ---       vstr
      00010CCEH   SYMBOL    XDATA    DWORD     ival

      ---         MODULE    ---      ---       zf_common_typedef
      00011307H   PUBLIC    XDATA    ---       tim11_irq_handler
      00011309H   PUBLIC    XDATA    ---       uart1_irq_handler
      0001130BH   PUBLIC    XDATA    ---       uart2_irq_handler
      0001130DH   PUBLIC    XDATA    ---       uart3_irq_handler
      0001130FH   PUBLIC    XDATA    ---       uart4_irq_handler
      00011311H   PUBLIC    XDATA    ---       tim0_irq_handler
      00011313H   PUBLIC    XDATA    ---       int0_irq_handler
      00011315H   PUBLIC    XDATA    ---       tim1_irq_handler
      00011317H   PUBLIC    XDATA    ---       int1_irq_handler
      00011319H   PUBLIC    XDATA    ---       tim2_irq_handler
      0001131BH   PUBLIC    XDATA    ---       int2_irq_handler
      0001131DH   PUBLIC    XDATA    ---       tim3_irq_handler
      0001131FH   PUBLIC    XDATA    ---       int3_irq_handler
      00011321H   PUBLIC    XDATA    ---       tim4_irq_handler
      00011323H   PUBLIC    XDATA    ---       int4_irq_handler
      000000D0H   SFRSYM    DATA     BYTE      PSW
      0000009DH   SFRSYM    DATA     BYTE      IRCBAND
      00000097H   SFRSYM    DATA     BYTE      AUXR2
      000000EFH   SFRSYM    DATA     BYTE      AUXINTIF
      000000FDH   SFRSYM    DATA     BYTE      S4CON
      000000ACH   SFRSYM    DATA     BYTE      S3CON
      0000009AH   SFRSYM    DATA     BYTE      S2CON
      000000B7H   SFRSYM    DATA     BYTE      IPH
      000000CDH   SFRSYM    DATA     BYTE      SPSTAT
      000000DDH   SFRSYM    DATA     BYTE      T4T3M
      000000C1H   SFRSYM    DATA     BYTE      WDT_CONTR
      000000DFH   SFRSYM    DATA     BYTE      IP3
      000000F4H   SFRSYM    DATA     BYTE      USBCON
      000000B5H   SFRSYM    DATA     BYTE      IP2
      000000FFH   SFRSYM    DATA     BYTE      RSTCFG
      000000C7H   SFRSYM    DATA     BYTE      IAP_CONTR
L251 LINKER/LOCATER V4.66.93.0                                                        04/19/2026  22:06:36  PAGE 54


      000000F9H   SFRSYM    DATA     BYTE      LINICR
      0000008EH   SFRSYM    DATA     BYTE      AUXR
      000000AFH   SFRSYM    DATA     BYTE      IE2
      00000088H   SFRSYM    DATA     BYTE      TCON
      00000089H   SFRSYM    DATA     BYTE      TMOD
      00000098H   SFRSYM    DATA     BYTE      SCON
      000000F1H   SFRSYM    DATA     BYTE      CANICR
      00000087H   SFRSYM    DATA     BYTE      PCON
      000000BCH   SFRSYM    DATA     BYTE      ADC_CONTR
      000000E7H   SFRSYM    DATA     BYTE      CMPCR2
      000000E6H   SFRSYM    DATA     BYTE      CMPCR1
      000000DEH   SFRSYM    DATA     BYTE      ADCCFG
      000000B8H   SFRSYM    DATA     BYTE      IP
      0000008FH   SFRSYM    DATA     BYTE      INTCLKO
      000000EEH   SFRSYM    DATA     BYTE      IP3H
      000000B6H   SFRSYM    DATA     BYTE      IP2H
      000000A8H   SFRSYM    DATA     BYTE      IE
      000000BBH   SFRSYM    DATA     BYTE      P_SW3
      000000BAH   SFRSYM    DATA     BYTE      P_SW2
      000000A2H   SFRSYM    DATA     BYTE      P_SW1
      000000CEH   SFRSYM    DATA     BYTE      SPCTL
      000000F8H   SFRSYM    DATA     BYTE      P7
      000000E8H   SFRSYM    DATA     BYTE      P6
      000000C8H   SFRSYM    DATA     BYTE      P5
      000000C0H   SFRSYM    DATA     BYTE      P4
      000000B0H   SFRSYM    DATA     BYTE      P3
      000000A0H   SFRSYM    DATA     BYTE      P2
      00000090H   SFRSYM    DATA     BYTE      P1
      00000080H   SFRSYM    DATA     BYTE      P0

      ---         MODULE    ---      ---       zf_common_interrupt
      00FF0006H   PUBLIC    CODE     ---       interrupt_global_enable
      000000D0H   SFRSYM    DATA     BYTE      PSW
      0000009DH   SFRSYM    DATA     BYTE      IRCBAND
      00000097H   SFRSYM    DATA     BYTE      AUXR2
      000000EFH   SFRSYM    DATA     BYTE      AUXINTIF
      000000FDH   SFRSYM    DATA     BYTE      S4CON
      000000ACH   SFRSYM    DATA     BYTE      S3CON
      0000009AH   SFRSYM    DATA     BYTE      S2CON
      000000B7H   SFRSYM    DATA     BYTE      IPH
      000000CDH   SFRSYM    DATA     BYTE      SPSTAT
      000000DDH   SFRSYM    DATA     BYTE      T4T3M
      000000C1H   SFRSYM    DATA     BYTE      WDT_CONTR
      000000DFH   SFRSYM    DATA     BYTE      IP3
      000000F4H   SFRSYM    DATA     BYTE      USBCON
      000000B5H   SFRSYM    DATA     BYTE      IP2
      000000FFH   SFRSYM    DATA     BYTE      RSTCFG
      000000C7H   SFRSYM    DATA     BYTE      IAP_CONTR
      000000F9H   SFRSYM    DATA     BYTE      LINICR
      0000008EH   SFRSYM    DATA     BYTE      AUXR
      000000AFH   SFRSYM    DATA     BYTE      IE2
      00000088H   SFRSYM    DATA     BYTE      TCON
      00000089H   SFRSYM    DATA     BYTE      TMOD
      00000098H   SFRSYM    DATA     BYTE      SCON
      000000F1H   SFRSYM    DATA     BYTE      CANICR
      00000087H   SFRSYM    DATA     BYTE      PCON
      000000BCH   SFRSYM    DATA     BYTE      ADC_CONTR
      000000E7H   SFRSYM    DATA     BYTE      CMPCR2
      000000E6H   SFRSYM    DATA     BYTE      CMPCR1
      000000DEH   SFRSYM    DATA     BYTE      ADCCFG
      000000B8H   SFRSYM    DATA     BYTE      IP
      0000008FH   SFRSYM    DATA     BYTE      INTCLKO
      000000EEH   SFRSYM    DATA     BYTE      IP3H
      000000B6H   SFRSYM    DATA     BYTE      IP2H
      000000A8H   SFRSYM    DATA     BYTE      IE
L251 LINKER/LOCATER V4.66.93.0                                                        04/19/2026  22:06:36  PAGE 55


      000000BBH   SFRSYM    DATA     BYTE      P_SW3
      000000BAH   SFRSYM    DATA     BYTE      P_SW2
      000000A2H   SFRSYM    DATA     BYTE      P_SW1
      000000CEH   SFRSYM    DATA     BYTE      SPCTL
      000000F8H   SFRSYM    DATA     BYTE      P7
      000000A8H.7 SFRSYM    DATA     BIT       EA
      000000E8H   SFRSYM    DATA     BYTE      P6
      000000C8H   SFRSYM    DATA     BYTE      P5
      000000C0H   SFRSYM    DATA     BYTE      P4
      000000B0H   SFRSYM    DATA     BYTE      P3
      000000A0H   SFRSYM    DATA     BYTE      P2
      00000090H   SFRSYM    DATA     BYTE      P1
      00000080H   SFRSYM    DATA     BYTE      P0
      00011F80H   SYMBOL    XDATA    INT       irqn
      00011F82H   SYMBOL    XDATA    BYTE      priority

      00FF0006H   BLOCK     CODE     ---       LVL=0
      00FF0006H   LINE      CODE     ---       #88
      00FF0006H   LINE      CODE     ---       #90
      00FF0009H   LINE      CODE     ---       #91
      ---         BLOCKEND  ---      ---       LVL=0

      ---         MODULE    ---      ---       zf_driver_adc
      00FF9AB9H   PUBLIC    CODE     ---       adc_convert
      00FF8BBFH   PUBLIC    CODE     ---       adc_init
      00011AA1H   PUBLIC    XDATA    ---       adc_average
      00000094H   SFRSYM    DATA     BYTE      P0M0
      000000D0H   SFRSYM    DATA     BYTE      PSW
      0000009DH   SFRSYM    DATA     BYTE      IRCBAND
      00000097H   SFRSYM    DATA     BYTE      AUXR2
      000000EFH   SFRSYM    DATA     BYTE      AUXINTIF
      000000FDH   SFRSYM    DATA     BYTE      S4CON
      000000ACH   SFRSYM    DATA     BYTE      S3CON
      0000009AH   SFRSYM    DATA     BYTE      S2CON
      000000B7H   SFRSYM    DATA     BYTE      IPH
      000000CDH   SFRSYM    DATA     BYTE      SPSTAT
      000000BEH   SFRSYM    DATA     BYTE      ADC_RESL
      000000DDH   SFRSYM    DATA     BYTE      T4T3M
      000000C1H   SFRSYM    DATA     BYTE      WDT_CONTR
      000000DFH   SFRSYM    DATA     BYTE      IP3
      000000F4H   SFRSYM    DATA     BYTE      USBCON
      000000B5H   SFRSYM    DATA     BYTE      IP2
      000000FFH   SFRSYM    DATA     BYTE      RSTCFG
      000000C7H   SFRSYM    DATA     BYTE      IAP_CONTR
      000000F9H   SFRSYM    DATA     BYTE      LINICR
      0000008EH   SFRSYM    DATA     BYTE      AUXR
      000000AFH   SFRSYM    DATA     BYTE      IE2
      00000088H   SFRSYM    DATA     BYTE      TCON
      00000089H   SFRSYM    DATA     BYTE      TMOD
      00000098H   SFRSYM    DATA     BYTE      SCON
      000000F1H   SFRSYM    DATA     BYTE      CANICR
      00000087H   SFRSYM    DATA     BYTE      PCON
      000000BCH   SFRSYM    DATA     BYTE      ADC_CONTR
      000000E7H   SFRSYM    DATA     BYTE      CMPCR2
      000000E6H   SFRSYM    DATA     BYTE      CMPCR1
      000000DEH   SFRSYM    DATA     BYTE      ADCCFG
      000000B8H   SFRSYM    DATA     BYTE      IP
      0000008FH   SFRSYM    DATA     BYTE      INTCLKO
      000000EEH   SFRSYM    DATA     BYTE      IP3H
      000000B6H   SFRSYM    DATA     BYTE      IP2H
      000000BDH   SFRSYM    DATA     BYTE      ADC_RES
      000000A8H   SFRSYM    DATA     BYTE      IE
      000000BBH   SFRSYM    DATA     BYTE      P_SW3
      000000BAH   SFRSYM    DATA     BYTE      P_SW2
      000000A2H   SFRSYM    DATA     BYTE      P_SW1
L251 LINKER/LOCATER V4.66.93.0                                                        04/19/2026  22:06:36  PAGE 56


      000000CEH   SFRSYM    DATA     BYTE      SPCTL
      000000F8H   SFRSYM    DATA     BYTE      P7
      000000E8H   SFRSYM    DATA     BYTE      P6
      000000C8H   SFRSYM    DATA     BYTE      P5
      000000C0H   SFRSYM    DATA     BYTE      P4
      000000B0H   SFRSYM    DATA     BYTE      P3
      000000A0H   SFRSYM    DATA     BYTE      P2
      00000090H   SFRSYM    DATA     BYTE      P1
      00000080H   SFRSYM    DATA     BYTE      P0
      00000091H   SFRSYM    DATA     BYTE      P1M1
      00000092H   SFRSYM    DATA     BYTE      P1M0
      00000093H   SFRSYM    DATA     BYTE      P0M1
      00011AA0H   SYMBOL    XDATA    BYTE      adc_resolution
      00011AF8H   SYMBOL    XDATA    INT       ch
      00011AFAH   SYMBOL    XDATA    BYTE      count
      00011AFBH   SYMBOL    XDATA    BYTE      i
      00011AFCH   SYMBOL    XDATA    WORD      sum
      00011AFEH   SYMBOL    XDATA    WORD      min
      00011B00H   SYMBOL    XDATA    WORD      max

      00FF9AB9H   BLOCK     CODE     ---       LVL=0
      00011EF8H   SYMBOL    XDATA    INT       ch
      00FF9ABFH   BLOCK     CODE     NEAR LAB  LVL=1
      00011EFAH   SYMBOL    XDATA    WORD      adc_value
      ---         BLOCKEND  ---      ---       LVL=1
      00FF9AB9H   LINE      CODE     ---       #81
      00FF9ABFH   LINE      CODE     ---       #82
      00FF9ABFH   LINE      CODE     ---       #85
      00FF9AC2H   LINE      CODE     ---       #86
      00FF9ACCH   LINE      CODE     ---       #88
      00FF9ACFH   LINE      CODE     ---       #90
      00FF9AD4H   LINE      CODE     ---       #92
      00FF9AD7H   LINE      CODE     ---       #94
      00FF9AE1H   LINE      CODE     ---       #95
      00FF9AEEH   LINE      CODE     ---       #96
      00FF9AFDH   LINE      CODE     ---       #98
      00FF9B00H   LINE      CODE     ---       #99
      00FF9B03H   LINE      CODE     ---       #101
      00FF9B17H   LINE      CODE     ---       #104
      00FF9B1DH   LINE      CODE     ---       #105
      ---         BLOCKEND  ---      ---       LVL=0

      00FF8BBFH   BLOCK     CODE     ---       LVL=0
      00011EFCH   SYMBOL    XDATA    INT       ch
      00011EFEH   SYMBOL    XDATA    INT       resolution
      00FF8BBFH   LINE      CODE     ---       #114
      00FF8BCBH   LINE      CODE     ---       #116
      00FF8BCEH   LINE      CODE     ---       #118
      00FF8BD1H   LINE      CODE     ---       #119
      00FF8BDBH   LINE      CODE     ---       #121
      00FF8BEFH   LINE      CODE     ---       #124
      00FF8C0CH   LINE      CODE     ---       #125
      00FF8C27H   LINE      CODE     ---       #126
      00FF8C29H   LINE      CODE     ---       #127
      00FF8C3BH   LINE      CODE     ---       #130
      00FF8C58H   LINE      CODE     ---       #131
      00FF8C73H   LINE      CODE     ---       #132
      00FF8C73H   LINE      CODE     ---       #134
      00FF8C76H   LINE      CODE     ---       #136
      00FF8C79H   LINE      CODE     ---       #138
      00FF8C83H   LINE      CODE     ---       #139
      ---         BLOCKEND  ---      ---       LVL=0

      ---         MODULE    ---      ---       zf_driver_delay
      00FF9D48H   PUBLIC    CODE     ---       system_delay_init
L251 LINKER/LOCATER V4.66.93.0                                                        04/19/2026  22:06:36  PAGE 57


      00FFA39EH   PUBLIC    CODE     ---       system_delay_ms
      000000D0H   SFRSYM    DATA     BYTE      PSW
      0000009DH   SFRSYM    DATA     BYTE      IRCBAND
      00000097H   SFRSYM    DATA     BYTE      AUXR2
      000000EFH   SFRSYM    DATA     BYTE      AUXINTIF
      000000FDH   SFRSYM    DATA     BYTE      S4CON
      000000ACH   SFRSYM    DATA     BYTE      S3CON
      0000009AH   SFRSYM    DATA     BYTE      S2CON
      000000B7H   SFRSYM    DATA     BYTE      IPH
      000000CDH   SFRSYM    DATA     BYTE      SPSTAT
      000000DDH   SFRSYM    DATA     BYTE      T4T3M
      000000C1H   SFRSYM    DATA     BYTE      WDT_CONTR
      000000DFH   SFRSYM    DATA     BYTE      IP3
      000000F4H   SFRSYM    DATA     BYTE      USBCON
      000000B5H   SFRSYM    DATA     BYTE      IP2
      000000FFH   SFRSYM    DATA     BYTE      RSTCFG
      000000C7H   SFRSYM    DATA     BYTE      IAP_CONTR
      000000F9H   SFRSYM    DATA     BYTE      LINICR
      0000008EH   SFRSYM    DATA     BYTE      AUXR
      000000AFH   SFRSYM    DATA     BYTE      IE2
      00000088H   SFRSYM    DATA     BYTE      TCON
      00000089H   SFRSYM    DATA     BYTE      TMOD
      00000098H   SFRSYM    DATA     BYTE      SCON
      000000F1H   SFRSYM    DATA     BYTE      CANICR
      00000087H   SFRSYM    DATA     BYTE      PCON
      000000BCH   SFRSYM    DATA     BYTE      ADC_CONTR
      000000E7H   SFRSYM    DATA     BYTE      CMPCR2
      000000E6H   SFRSYM    DATA     BYTE      CMPCR1
      000000DEH   SFRSYM    DATA     BYTE      ADCCFG
      000000B8H   SFRSYM    DATA     BYTE      IP
      0000008FH   SFRSYM    DATA     BYTE      INTCLKO
      000000EEH   SFRSYM    DATA     BYTE      IP3H
      000000B6H   SFRSYM    DATA     BYTE      IP2H
      000000A8H   SFRSYM    DATA     BYTE      IE
      000000BBH   SFRSYM    DATA     BYTE      P_SW3
      000000BAH   SFRSYM    DATA     BYTE      P_SW2
      000000A2H   SFRSYM    DATA     BYTE      P_SW1
      000000CEH   SFRSYM    DATA     BYTE      SPCTL
      000000F8H   SFRSYM    DATA     BYTE      P7
      000000E8H   SFRSYM    DATA     BYTE      P6
      000000C8H   SFRSYM    DATA     BYTE      P5
      000000C0H   SFRSYM    DATA     BYTE      P4
      000000B0H   SFRSYM    DATA     BYTE      P3
      000000A0H   SFRSYM    DATA     BYTE      P2
      00000090H   SFRSYM    DATA     BYTE      P1
      00000080H   SFRSYM    DATA     BYTE      P0
      00FFA497H   SYMBOL    CODE     ---       delay_cycles
      00011F00H   SYMBOL    XDATA    WORD      zf_delay_1ms
      00011F02H   SYMBOL    XDATA    WORD      zf_delay_1us

      00FFA497H   BLOCK     CODE     ---       LVL=0
      00011FA4H   SYMBOL    XDATA    WORD      cycles
      00FFA497H   LINE      CODE     ---       #44
      00FFA49DH   LINE      CODE     ---       #47
      00FFA49DH   LINE      CODE     ---       #50
      00FFA4B4H   LINE      CODE     ---       #51
      ---         BLOCKEND  ---      ---       LVL=0

      00FF9D48H   BLOCK     CODE     ---       LVL=0
      00FF9D48H   LINE      CODE     ---       #59
      00FF9D48H   LINE      CODE     ---       #61
      00FF9D5FH   LINE      CODE     ---       #62
      00FF9D7AH   LINE      CODE     ---       #63
      00FF9D9FH   LINE      CODE     ---       #64
      ---         BLOCKEND  ---      ---       LVL=0
L251 LINKER/LOCATER V4.66.93.0                                                        04/19/2026  22:06:36  PAGE 58



      00FFA39EH   BLOCK     CODE     ---       LVL=0
      00011FA6H   SYMBOL    XDATA    WORD      ms
      00FFA39EH   LINE      CODE     ---       #72
      00FFA3A4H   LINE      CODE     ---       #74
      00FFA3A4H   LINE      CODE     ---       #76
      00FFA3ADH   LINE      CODE     ---       #77
      00FFA3C2H   LINE      CODE     ---       #78
      ---         BLOCKEND  ---      ---       LVL=0
      00011FA8H   SYMBOL    XDATA    WORD      us

      ---         MODULE    ---      ---       zf_driver_eeprom
      00011B02H   PUBLIC    XDATA    BYTE      ?iap_read_buff?BYTE
      00011B0CH   PUBLIC    XDATA    BYTE      ?iap_write_buff?BYTE
      000000D0H   SFRSYM    DATA     BYTE      PSW
      0000009DH   SFRSYM    DATA     BYTE      IRCBAND
      00000097H   SFRSYM    DATA     BYTE      AUXR2
      000000C6H   SFRSYM    DATA     BYTE      IAP_TRIG
      000000EFH   SFRSYM    DATA     BYTE      AUXINTIF
      000000FDH   SFRSYM    DATA     BYTE      S4CON
      000000ACH   SFRSYM    DATA     BYTE      S3CON
      0000009AH   SFRSYM    DATA     BYTE      S2CON
      000000B7H   SFRSYM    DATA     BYTE      IPH
      000000CDH   SFRSYM    DATA     BYTE      SPSTAT
      000000DDH   SFRSYM    DATA     BYTE      T4T3M
      000000C1H   SFRSYM    DATA     BYTE      WDT_CONTR
      000000C2H   SFRSYM    DATA     BYTE      IAP_DATA
      000000DFH   SFRSYM    DATA     BYTE      IP3
      000000F4H   SFRSYM    DATA     BYTE      USBCON
      000000B5H   SFRSYM    DATA     BYTE      IP2
      000000FFH   SFRSYM    DATA     BYTE      RSTCFG
      000000C7H   SFRSYM    DATA     BYTE      IAP_CONTR
      000000F9H   SFRSYM    DATA     BYTE      LINICR
      0000008EH   SFRSYM    DATA     BYTE      AUXR
      000000AFH   SFRSYM    DATA     BYTE      IE2
      00000088H   SFRSYM    DATA     BYTE      TCON
      00000089H   SFRSYM    DATA     BYTE      TMOD
      00000098H   SFRSYM    DATA     BYTE      SCON
      000000F5H   SFRSYM    DATA     BYTE      IAP_TPS
      000000F1H   SFRSYM    DATA     BYTE      CANICR
      00000087H   SFRSYM    DATA     BYTE      PCON
      000000BCH   SFRSYM    DATA     BYTE      ADC_CONTR
      000000E7H   SFRSYM    DATA     BYTE      CMPCR2
      000000E6H   SFRSYM    DATA     BYTE      CMPCR1
      000000C4H   SFRSYM    DATA     BYTE      IAP_ADDRL
      000000C3H   SFRSYM    DATA     BYTE      IAP_ADDRH
      000000F6H   SFRSYM    DATA     BYTE      IAP_ADDRE
      000000DEH   SFRSYM    DATA     BYTE      ADCCFG
      000000B8H   SFRSYM    DATA     BYTE      IP
      0000008FH   SFRSYM    DATA     BYTE      INTCLKO
      000000EEH   SFRSYM    DATA     BYTE      IP3H
      000000B6H   SFRSYM    DATA     BYTE      IP2H
      000000C5H   SFRSYM    DATA     BYTE      IAP_CMD
      000000A8H   SFRSYM    DATA     BYTE      IE
      000000BBH   SFRSYM    DATA     BYTE      P_SW3
      000000BAH   SFRSYM    DATA     BYTE      P_SW2
      000000A2H   SFRSYM    DATA     BYTE      P_SW1
      000000CEH   SFRSYM    DATA     BYTE      SPCTL
      000000F8H   SFRSYM    DATA     BYTE      P7
      000000A8H.7 SFRSYM    DATA     BIT       EA
      000000E8H   SFRSYM    DATA     BYTE      P6
      000000C8H   SFRSYM    DATA     BYTE      P5
      000000C0H   SFRSYM    DATA     BYTE      P4
      000000B0H   SFRSYM    DATA     BYTE      P3
      000000A0H   SFRSYM    DATA     BYTE      P2
L251 LINKER/LOCATER V4.66.93.0                                                        04/19/2026  22:06:36  PAGE 59


      00000090H   SFRSYM    DATA     BYTE      P1
      00000080H   SFRSYM    DATA     BYTE      P0
      00FFAA7CH   SYMBOL    HCONST   ---       ?tpl?0001
      00011FF1H   SYMBOL    XDATA    BYTE      write_time
      00011E80H   SYMBOL    XDATA    DWORD     addr
      00011E84H   SYMBOL    XDATA    BYTE      temp
      00000020H.0 SYMBOL    BIT      BIT       flag
      00011E85H   SYMBOL    XDATA    DWORD     addr
      00011E89H   SYMBOL    XDATA    BYTE      byte
      00000020H.1 SYMBOL    BIT      BIT       flag
      00011B02H   SYMBOL    XDATA    DWORD     addr
      00011B06H   SYMBOL    XDATA    ---       buf
      00011B0AH   SYMBOL    XDATA    WORD      len
      00011B0CH   SYMBOL    XDATA    DWORD     addr
      00011B10H   SYMBOL    XDATA    ---       buf
      00011B14H   SYMBOL    XDATA    WORD      len
      00011F04H   SYMBOL    XDATA    DWORD     addr
      00000020H.2 SYMBOL    BIT      BIT       flag
      00010000H   SYMBOL    XDATA    WORD      addr
      00010002H   SYMBOL    XDATA    ---       buf
      00010006H   SYMBOL    XDATA    WORD      len
      00010008H   SYMBOL    XDATA    ---       temp
      00010208H   SYMBOL    XDATA    WORD      i

      ---         MODULE    ---      ---       zf_driver_encoder
      00FF865AH   PUBLIC    CODE     ---       encoder_dir_init
      000000D0H   SFRSYM    DATA     BYTE      PSW
      0000009DH   SFRSYM    DATA     BYTE      IRCBAND
      00000097H   SFRSYM    DATA     BYTE      AUXR2
      000000EFH   SFRSYM    DATA     BYTE      AUXINTIF
      000000FDH   SFRSYM    DATA     BYTE      S4CON
      000000ACH   SFRSYM    DATA     BYTE      S3CON
      0000009AH   SFRSYM    DATA     BYTE      S2CON
      000000B7H   SFRSYM    DATA     BYTE      IPH
      000000CDH   SFRSYM    DATA     BYTE      SPSTAT
      000000DDH   SFRSYM    DATA     BYTE      T4T3M
      000000C1H   SFRSYM    DATA     BYTE      WDT_CONTR
      00000088H.6 SFRSYM    DATA     BIT       TR1
      00000088H.4 SFRSYM    DATA     BIT       TR0
      000000D3H   SFRSYM    DATA     BYTE      T4L
      000000D5H   SFRSYM    DATA     BYTE      T3L
      000000D7H   SFRSYM    DATA     BYTE      T2L
      0000008BH   SFRSYM    DATA     BYTE      TL1
      0000008AH   SFRSYM    DATA     BYTE      TL0
      000000D2H   SFRSYM    DATA     BYTE      T4H
      000000D4H   SFRSYM    DATA     BYTE      T3H
      000000D6H   SFRSYM    DATA     BYTE      T2H
      0000008DH   SFRSYM    DATA     BYTE      TH1
      0000008CH   SFRSYM    DATA     BYTE      TH0
      000000DFH   SFRSYM    DATA     BYTE      IP3
      000000F4H   SFRSYM    DATA     BYTE      USBCON
      000000B5H   SFRSYM    DATA     BYTE      IP2
      000000FFH   SFRSYM    DATA     BYTE      RSTCFG
      000000C7H   SFRSYM    DATA     BYTE      IAP_CONTR
      000000F9H   SFRSYM    DATA     BYTE      LINICR
      0000008EH   SFRSYM    DATA     BYTE      AUXR
      000000AFH   SFRSYM    DATA     BYTE      IE2
      00000088H   SFRSYM    DATA     BYTE      TCON
      00000089H   SFRSYM    DATA     BYTE      TMOD
      00000098H   SFRSYM    DATA     BYTE      SCON
      000000F1H   SFRSYM    DATA     BYTE      CANICR
      00000087H   SFRSYM    DATA     BYTE      PCON
      000000BCH   SFRSYM    DATA     BYTE      ADC_CONTR
      000000E7H   SFRSYM    DATA     BYTE      CMPCR2
      000000E6H   SFRSYM    DATA     BYTE      CMPCR1
L251 LINKER/LOCATER V4.66.93.0                                                        04/19/2026  22:06:36  PAGE 60


      000000DEH   SFRSYM    DATA     BYTE      ADCCFG
      000000B8H   SFRSYM    DATA     BYTE      IP
      0000008FH   SFRSYM    DATA     BYTE      INTCLKO
      000000EEH   SFRSYM    DATA     BYTE      IP3H
      000000B6H   SFRSYM    DATA     BYTE      IP2H
      000000A8H   SFRSYM    DATA     BYTE      IE
      000000BBH   SFRSYM    DATA     BYTE      P_SW3
      000000BAH   SFRSYM    DATA     BYTE      P_SW2
      000000A2H   SFRSYM    DATA     BYTE      P_SW1
      000000CEH   SFRSYM    DATA     BYTE      SPCTL
      000000F8H   SFRSYM    DATA     BYTE      P7
      000000E8H   SFRSYM    DATA     BYTE      P6
      000000C8H   SFRSYM    DATA     BYTE      P5
      000000C0H   SFRSYM    DATA     BYTE      P4
      000000B0H   SFRSYM    DATA     BYTE      P3
      000000A0H   SFRSYM    DATA     BYTE      P2
      00000090H   SFRSYM    DATA     BYTE      P1
      00000080H   SFRSYM    DATA     BYTE      P0
      00011DA8H   SYMBOL    XDATA    ---       encoder_dir_pin
      00011F08H   SYMBOL    XDATA    INT       encoder_n
      00011F0AH   SYMBOL    XDATA    INT       dat
      00011FAAH   SYMBOL    XDATA    INT       encoder_n

      00FF865AH   BLOCK     CODE     ---       LVL=0
      00011DAEH   SYMBOL    XDATA    INT       encoder_n
      00011DB0H   SYMBOL    XDATA    INT       dir_pin
      00011DB2H   SYMBOL    XDATA    INT       lsb_pin
      00FF865AH   LINE      CODE     ---       #154
      00FF866CH   LINE      CODE     ---       #160
      00FF8688H   LINE      CODE     ---       #161
      00FF86AAH   LINE      CODE     ---       #162
      00FF86D2H   LINE      CODE     ---       #164
      00FF86E2H   LINE      CODE     ---       #165
      00FF86F8H   LINE      CODE     ---       #166
      00FF8711H   LINE      CODE     ---       #167
      00FF872BH   LINE      CODE     ---       #169
      00FF872BH   LINE      CODE     ---       #171
      00FF872EH   LINE      CODE     ---       #172
      00FF8731H   LINE      CODE     ---       #173
      00FF8734H   LINE      CODE     ---       #174
      00FF8737H   LINE      CODE     ---       #175
      00FF8739H   LINE      CODE     ---       #177
      00FF8739H   LINE      CODE     ---       #179
      00FF873CH   LINE      CODE     ---       #180
      00FF873FH   LINE      CODE     ---       #181
      00FF8742H   LINE      CODE     ---       #182
      00FF8745H   LINE      CODE     ---       #183
      00FF8747H   LINE      CODE     ---       #185
      00FF8747H   LINE      CODE     ---       #187
      00FF874AH   LINE      CODE     ---       #188
      00FF874DH   LINE      CODE     ---       #189
      00FF8750H   LINE      CODE     ---       #190
      00FF8752H   LINE      CODE     ---       #192
      00FF8752H   LINE      CODE     ---       #194
      00FF8755H   LINE      CODE     ---       #195
      00FF8758H   LINE      CODE     ---       #196
      00FF875BH   LINE      CODE     ---       #197
      00FF875DH   LINE      CODE     ---       #199
      00FF875DH   LINE      CODE     ---       #201
      00FF8760H   LINE      CODE     ---       #202
      00FF8763H   LINE      CODE     ---       #203
      00FF8766H   LINE      CODE     ---       #204
      00FF8766H   LINE      CODE     ---       #206
      00FF8766H   LINE      CODE     ---       #207
      ---         BLOCKEND  ---      ---       LVL=0
L251 LINKER/LOCATER V4.66.93.0                                                        04/19/2026  22:06:36  PAGE 61



      ---         MODULE    ---      ---       zf_driver_exti
      000000D0H   SFRSYM    DATA     BYTE      PSW
      0000009DH   SFRSYM    DATA     BYTE      IRCBAND
      00000097H   SFRSYM    DATA     BYTE      AUXR2
      000000EFH   SFRSYM    DATA     BYTE      AUXINTIF
      000000FDH   SFRSYM    DATA     BYTE      S4CON
      000000ACH   SFRSYM    DATA     BYTE      S3CON
      0000009AH   SFRSYM    DATA     BYTE      S2CON
      000000B7H   SFRSYM    DATA     BYTE      IPH
      000000CDH   SFRSYM    DATA     BYTE      SPSTAT
      000000DDH   SFRSYM    DATA     BYTE      T4T3M
      000000C1H   SFRSYM    DATA     BYTE      WDT_CONTR
      0000008FH.6 SFRSYM    DATA     BIT       EX4
      0000008FH.5 SFRSYM    DATA     BIT       EX3
      0000008FH.4 SFRSYM    DATA     BIT       EX2
      00000088H.2 SFRSYM    DATA     BIT       IT1
      000000A8H.2 SFRSYM    DATA     BIT       EX1
      00000088H.0 SFRSYM    DATA     BIT       IT0
      000000A8H.0 SFRSYM    DATA     BIT       EX0
      000000DFH   SFRSYM    DATA     BYTE      IP3
      000000F4H   SFRSYM    DATA     BYTE      USBCON
      000000B5H   SFRSYM    DATA     BYTE      IP2
      000000FFH   SFRSYM    DATA     BYTE      RSTCFG
      000000C7H   SFRSYM    DATA     BYTE      IAP_CONTR
      000000F9H   SFRSYM    DATA     BYTE      LINICR
      0000008EH   SFRSYM    DATA     BYTE      AUXR
      000000AFH   SFRSYM    DATA     BYTE      IE2
      00000088H   SFRSYM    DATA     BYTE      TCON
      00000089H   SFRSYM    DATA     BYTE      TMOD
      00000098H   SFRSYM    DATA     BYTE      SCON
      000000F1H   SFRSYM    DATA     BYTE      CANICR
      00000087H   SFRSYM    DATA     BYTE      PCON
      000000BCH   SFRSYM    DATA     BYTE      ADC_CONTR
      000000E7H   SFRSYM    DATA     BYTE      CMPCR2
      000000E6H   SFRSYM    DATA     BYTE      CMPCR1
      000000DEH   SFRSYM    DATA     BYTE      ADCCFG
      000000B8H   SFRSYM    DATA     BYTE      IP
      0000008FH   SFRSYM    DATA     BYTE      INTCLKO
      000000EEH   SFRSYM    DATA     BYTE      IP3H
      000000B6H   SFRSYM    DATA     BYTE      IP2H
      000000A8H   SFRSYM    DATA     BYTE      IE
      000000BBH   SFRSYM    DATA     BYTE      P_SW3
      000000BAH   SFRSYM    DATA     BYTE      P_SW2
      000000A2H   SFRSYM    DATA     BYTE      P_SW1
      000000CEH   SFRSYM    DATA     BYTE      SPCTL
      000000F8H   SFRSYM    DATA     BYTE      P7
      000000E8H   SFRSYM    DATA     BYTE      P6
      000000C8H   SFRSYM    DATA     BYTE      P5
      000000C0H   SFRSYM    DATA     BYTE      P4
      000000B0H   SFRSYM    DATA     BYTE      P3
      000000A0H   SFRSYM    DATA     BYTE      P2
      00000090H   SFRSYM    DATA     BYTE      P1
      00000080H   SFRSYM    DATA     BYTE      P0
      00011FACH   SYMBOL    XDATA    INT       eru_pin
      00011FAEH   SYMBOL    XDATA    INT       eru_pin
      00011F0CH   SYMBOL    XDATA    INT       eru_pin
      00011F0EH   SYMBOL    XDATA    INT       trigger

      ---         MODULE    ---      ---       zf_driver_gpio
      00FF854BH   PUBLIC    CODE     ---       gpio_init
      00FF7C15H   PUBLIC    CODE     ---       gpio_get_level
      00FF5632H   PUBLIC    CODE     ---       gpio_set_level_speed
      00FF68D0H   PUBLIC    CODE     ---       gpio_set_level
      00FF70C0H   PUBLIC    CODE     ---       gpio_set_impedance
L251 LINKER/LOCATER V4.66.93.0                                                        04/19/2026  22:06:36  PAGE 62


      00000094H   SFRSYM    DATA     BYTE      P0M0
      000000D0H   SFRSYM    DATA     BYTE      PSW
      0000009DH   SFRSYM    DATA     BYTE      IRCBAND
      00000097H   SFRSYM    DATA     BYTE      AUXR2
      000000EFH   SFRSYM    DATA     BYTE      AUXINTIF
      000000FDH   SFRSYM    DATA     BYTE      S4CON
      000000ACH   SFRSYM    DATA     BYTE      S3CON
      0000009AH   SFRSYM    DATA     BYTE      S2CON
      000000B7H   SFRSYM    DATA     BYTE      IPH
      000000CDH   SFRSYM    DATA     BYTE      SPSTAT
      000000DDH   SFRSYM    DATA     BYTE      T4T3M
      000000C1H   SFRSYM    DATA     BYTE      WDT_CONTR
      000000DFH   SFRSYM    DATA     BYTE      IP3
      000000F4H   SFRSYM    DATA     BYTE      USBCON
      000000B5H   SFRSYM    DATA     BYTE      IP2
      000000FFH   SFRSYM    DATA     BYTE      RSTCFG
      000000C7H   SFRSYM    DATA     BYTE      IAP_CONTR
      000000F9H   SFRSYM    DATA     BYTE      LINICR
      0000008EH   SFRSYM    DATA     BYTE      AUXR
      000000AFH   SFRSYM    DATA     BYTE      IE2
      00000088H   SFRSYM    DATA     BYTE      TCON
      00000089H   SFRSYM    DATA     BYTE      TMOD
      00000098H   SFRSYM    DATA     BYTE      SCON
      000000F1H   SFRSYM    DATA     BYTE      CANICR
      00000087H   SFRSYM    DATA     BYTE      PCON
      000000BCH   SFRSYM    DATA     BYTE      ADC_CONTR
      000000E7H   SFRSYM    DATA     BYTE      CMPCR2
      000000E6H   SFRSYM    DATA     BYTE      CMPCR1
      000000DEH   SFRSYM    DATA     BYTE      ADCCFG
      000000B8H   SFRSYM    DATA     BYTE      IP
      0000008FH   SFRSYM    DATA     BYTE      INTCLKO
      000000EEH   SFRSYM    DATA     BYTE      IP3H
      000000B6H   SFRSYM    DATA     BYTE      IP2H
      000000A8H   SFRSYM    DATA     BYTE      IE
      000000BBH   SFRSYM    DATA     BYTE      P_SW3
      000000BAH   SFRSYM    DATA     BYTE      P_SW2
      000000A2H   SFRSYM    DATA     BYTE      P_SW1
      000000CEH   SFRSYM    DATA     BYTE      SPCTL
      000000F8H   SFRSYM    DATA     BYTE      P7
      000000E1H   SFRSYM    DATA     BYTE      P7M1
      000000E8H   SFRSYM    DATA     BYTE      P6
      000000C8H   SFRSYM    DATA     BYTE      P5
      000000CBH   SFRSYM    DATA     BYTE      P6M1
      000000E2H   SFRSYM    DATA     BYTE      P7M0
      000000C0H   SFRSYM    DATA     BYTE      P4
      000000C9H   SFRSYM    DATA     BYTE      P5M1
      000000CCH   SFRSYM    DATA     BYTE      P6M0
      000000B0H   SFRSYM    DATA     BYTE      P3
      000000B3H   SFRSYM    DATA     BYTE      P4M1
      000000CAH   SFRSYM    DATA     BYTE      P5M0
      000000A0H   SFRSYM    DATA     BYTE      P2
      000000B1H   SFRSYM    DATA     BYTE      P3M1
      000000B4H   SFRSYM    DATA     BYTE      P4M0
      00000090H   SFRSYM    DATA     BYTE      P1
      00000095H   SFRSYM    DATA     BYTE      P2M1
      000000B2H   SFRSYM    DATA     BYTE      P3M0
      00000080H   SFRSYM    DATA     BYTE      P0
      00000091H   SFRSYM    DATA     BYTE      P1M1
      00000096H   SFRSYM    DATA     BYTE      P2M0
      00000092H   SFRSYM    DATA     BYTE      P1M0
      00000093H   SFRSYM    DATA     BYTE      P0M1
      00FF47FDH   SYMBOL    CODE     ---       gpio_set_dir
      00FF5C36H   SYMBOL    CODE     ---       gpio_set_mode

      00FF5C36H   BLOCK     CODE     ---       LVL=0
L251 LINKER/LOCATER V4.66.93.0                                                        04/19/2026  22:06:36  PAGE 63


      00011F10H   SYMBOL    XDATA    INT       pin
      00011F12H   SYMBOL    XDATA    INT       mode
      00FF5C36H   LINE      CODE     ---       #41
      00FF5C42H   LINE      CODE     ---       #46
      00FF5C5EH   LINE      CODE     ---       #48
      00FF5C9BH   LINE      CODE     ---       #50
      00FF5C9EH   LINE      CODE     ---       #55
      00FF5CBAH   LINE      CODE     ---       #57
      00FF5CF5H   LINE      CODE     ---       #58
      00FF5CF8H   LINE      CODE     ---       #59
      00FF5D09H   LINE      CODE     ---       #62
      00FF5D5AH   LINE      CODE     ---       #64
      00FF5D5AH   LINE      CODE     ---       #65
      00FF5D75H   LINE      CODE     ---       #66
      00FF5D90H   LINE      CODE     ---       #67
      00FF5D93H   LINE      CODE     ---       #68
      00FF5D93H   LINE      CODE     ---       #69
      00FF5DAEH   LINE      CODE     ---       #70
      00FF5DC9H   LINE      CODE     ---       #71
      00FF5DCCH   LINE      CODE     ---       #72
      00FF5DCCH   LINE      CODE     ---       #73
      00FF5DE7H   LINE      CODE     ---       #74
      00FF5E02H   LINE      CODE     ---       #75
      00FF5E05H   LINE      CODE     ---       #76
      00FF5E05H   LINE      CODE     ---       #77
      00FF5E20H   LINE      CODE     ---       #78
      00FF5E3BH   LINE      CODE     ---       #79
      00FF5E3EH   LINE      CODE     ---       #80
      00FF5E3EH   LINE      CODE     ---       #81
      00FF5E59H   LINE      CODE     ---       #82
      00FF5E74H   LINE      CODE     ---       #83
      00FF5E77H   LINE      CODE     ---       #84
      00FF5E77H   LINE      CODE     ---       #85
      00FF5E92H   LINE      CODE     ---       #86
      00FF5EADH   LINE      CODE     ---       #87
      00FF5EAFH   LINE      CODE     ---       #88
      00FF5EAFH   LINE      CODE     ---       #89
      00FF5ECAH   LINE      CODE     ---       #90
      00FF5EE5H   LINE      CODE     ---       #91
      00FF5EE7H   LINE      CODE     ---       #92
      00FF5EE7H   LINE      CODE     ---       #93
      00FF5F02H   LINE      CODE     ---       #94
      00FF5F1DH   LINE      CODE     ---       #95
      00FF5F1DH   LINE      CODE     ---       #96
      00FF5F1DH   LINE      CODE     ---       #97
      00FF5F1DH   LINE      CODE     ---       #98
      00FF5F1DH   LINE      CODE     ---       #99
      00FF5F1DH   LINE      CODE     ---       #103
      00FF5F1DH   LINE      CODE     ---       #104
      ---         BLOCKEND  ---      ---       LVL=0

      00FF5632H   BLOCK     CODE     ---       LVL=0
      00011DB4H   SYMBOL    XDATA    INT       pin
      00011DB6H   SYMBOL    XDATA    INT       speed
      00FF563EH   BLOCK     CODE     NEAR LAB  LVL=1
      00011DB8H   SYMBOL    XDATA    BYTE      pin_bit
      00011DB9H   SYMBOL    XDATA    BYTE      port_flag
      ---         BLOCKEND  ---      ---       LVL=1
      00FF5632H   LINE      CODE     ---       #107
      00FF563EH   LINE      CODE     ---       #108
      00FF563EH   LINE      CODE     ---       #110
      00FF564EH   LINE      CODE     ---       #111
      00FF565EH   LINE      CODE     ---       #114
      00FF569AH   LINE      CODE     ---       #116
      00FF569AH   LINE      CODE     ---       #118
L251 LINKER/LOCATER V4.66.93.0                                                        04/19/2026  22:06:36  PAGE 64


      00FF56EDH   LINE      CODE     ---       #119
      00FF56F0H   LINE      CODE     ---       #120
      00FF56F0H   LINE      CODE     ---       #121
      00FF5743H   LINE      CODE     ---       #122
      00FF5746H   LINE      CODE     ---       #123
      00FF5746H   LINE      CODE     ---       #124
      00FF5799H   LINE      CODE     ---       #125
      00FF579CH   LINE      CODE     ---       #126
      00FF579CH   LINE      CODE     ---       #127
      00FF57EFH   LINE      CODE     ---       #128
      00FF57F2H   LINE      CODE     ---       #129
      00FF57F2H   LINE      CODE     ---       #130
      00FF5845H   LINE      CODE     ---       #131
      00FF5848H   LINE      CODE     ---       #132
      00FF5848H   LINE      CODE     ---       #133
      00FF589BH   LINE      CODE     ---       #134
      00FF589EH   LINE      CODE     ---       #135
      00FF589EH   LINE      CODE     ---       #136
      00FF58F0H   LINE      CODE     ---       #137
      00FF58F2H   LINE      CODE     ---       #138
      00FF58F2H   LINE      CODE     ---       #139
      00FF5944H   LINE      CODE     ---       #140
      00FF5944H   LINE      CODE     ---       #141
      00FF5944H   LINE      CODE     ---       #143
      00FF5944H   LINE      CODE     ---       #144
      00FF5944H   LINE      CODE     ---       #145
      ---         BLOCKEND  ---      ---       LVL=0

      00FF47FDH   BLOCK     CODE     ---       LVL=0
      00011F14H   SYMBOL    XDATA    INT       pin
      00011F16H   SYMBOL    XDATA    INT       dir
      00FF47FDH   LINE      CODE     ---       #148
      00FF4809H   LINE      CODE     ---       #150
      00FF485DH   LINE      CODE     ---       #152
      00FF485DH   LINE      CODE     ---       #154
      00FF4877H   LINE      CODE     ---       #156
      00FF4894H   LINE      CODE     ---       #157
      00FF48B1H   LINE      CODE     ---       #158
      00FF48B4H   LINE      CODE     ---       #164
      00FF48C5H   LINE      CODE     ---       #166
      00FF48E2H   LINE      CODE     ---       #167
      00FF48FDH   LINE      CODE     ---       #168
      00FF48FDH   LINE      CODE     ---       #170
      00FF4900H   LINE      CODE     ---       #172
      00FF4900H   LINE      CODE     ---       #174
      00FF491AH   LINE      CODE     ---       #176
      00FF4937H   LINE      CODE     ---       #177
      00FF4954H   LINE      CODE     ---       #178
      00FF4957H   LINE      CODE     ---       #184
      00FF4968H   LINE      CODE     ---       #186
      00FF4985H   LINE      CODE     ---       #187
      00FF49A0H   LINE      CODE     ---       #188
      00FF49A0H   LINE      CODE     ---       #190
      00FF49A3H   LINE      CODE     ---       #192
      00FF49A3H   LINE      CODE     ---       #194
      00FF49BDH   LINE      CODE     ---       #196
      00FF49DAH   LINE      CODE     ---       #197
      00FF49F7H   LINE      CODE     ---       #198
      00FF49FAH   LINE      CODE     ---       #204
      00FF4A0BH   LINE      CODE     ---       #206
      00FF4A28H   LINE      CODE     ---       #207
      00FF4A43H   LINE      CODE     ---       #208
      00FF4A43H   LINE      CODE     ---       #210
      00FF4A46H   LINE      CODE     ---       #212
      00FF4A46H   LINE      CODE     ---       #214
L251 LINKER/LOCATER V4.66.93.0                                                        04/19/2026  22:06:36  PAGE 65


      00FF4A60H   LINE      CODE     ---       #216
      00FF4A7DH   LINE      CODE     ---       #217
      00FF4A9AH   LINE      CODE     ---       #218
      00FF4A9DH   LINE      CODE     ---       #224
      00FF4AAEH   LINE      CODE     ---       #226
      00FF4ACBH   LINE      CODE     ---       #227
      00FF4AE6H   LINE      CODE     ---       #228
      00FF4AE6H   LINE      CODE     ---       #230
      00FF4AE9H   LINE      CODE     ---       #232
      00FF4AE9H   LINE      CODE     ---       #234
      00FF4B03H   LINE      CODE     ---       #236
      00FF4B20H   LINE      CODE     ---       #237
      00FF4B3DH   LINE      CODE     ---       #238
      00FF4B40H   LINE      CODE     ---       #244
      00FF4B51H   LINE      CODE     ---       #246
      00FF4B6EH   LINE      CODE     ---       #247
      00FF4B89H   LINE      CODE     ---       #248
      00FF4B89H   LINE      CODE     ---       #250
      00FF4B8CH   LINE      CODE     ---       #252
      00FF4B8CH   LINE      CODE     ---       #254
      00FF4BA6H   LINE      CODE     ---       #256
      00FF4BC3H   LINE      CODE     ---       #257
      00FF4BE0H   LINE      CODE     ---       #258
      00FF4BE3H   LINE      CODE     ---       #264
      00FF4BF4H   LINE      CODE     ---       #266
      00FF4C11H   LINE      CODE     ---       #267
      00FF4C2CH   LINE      CODE     ---       #268
      00FF4C2CH   LINE      CODE     ---       #270
      00FF4C2FH   LINE      CODE     ---       #272
      00FF4C2FH   LINE      CODE     ---       #274
      00FF4C49H   LINE      CODE     ---       #276
      00FF4C66H   LINE      CODE     ---       #277
      00FF4C83H   LINE      CODE     ---       #278
      00FF4C86H   LINE      CODE     ---       #284
      00FF4C97H   LINE      CODE     ---       #286
      00FF4CB4H   LINE      CODE     ---       #287
      00FF4CCFH   LINE      CODE     ---       #288
      00FF4CCFH   LINE      CODE     ---       #290
      00FF4CD2H   LINE      CODE     ---       #292
      00FF4CD2H   LINE      CODE     ---       #294
      00FF4CECH   LINE      CODE     ---       #296
      00FF4D09H   LINE      CODE     ---       #297
      00FF4D26H   LINE      CODE     ---       #298
      00FF4D28H   LINE      CODE     ---       #304
      00FF4D36H   LINE      CODE     ---       #306
      00FF4D53H   LINE      CODE     ---       #307
      00FF4D6EH   LINE      CODE     ---       #308
      00FF4D6EH   LINE      CODE     ---       #310
      00FF4D70H   LINE      CODE     ---       #312
      00FF4D70H   LINE      CODE     ---       #314
      00FF4D80H   LINE      CODE     ---       #317
      00FF4D80H   LINE      CODE     ---       #318
      00FF4D80H   LINE      CODE     ---       #319
      ---         BLOCKEND  ---      ---       LVL=0

      00FF7C15H   BLOCK     CODE     ---       LVL=0
      00011E8AH   SYMBOL    XDATA    INT       pin
      00FF7C1BH   BLOCK     CODE     NEAR LAB  LVL=1
      00011E8CH   SYMBOL    XDATA    BYTE      pin_bit
      00011E8DH   SYMBOL    XDATA    BYTE      port_flag
      00011E8EH   SYMBOL    XDATA    BYTE      status
      ---         BLOCKEND  ---      ---       LVL=1
      00FF7C15H   LINE      CODE     ---       #327
      00FF7C1BH   LINE      CODE     ---       #328
      00FF7C1BH   LINE      CODE     ---       #329
L251 LINKER/LOCATER V4.66.93.0                                                        04/19/2026  22:06:36  PAGE 66


      00FF7C2BH   LINE      CODE     ---       #330
      00FF7C3BH   LINE      CODE     ---       #331
      00FF7C40H   LINE      CODE     ---       #334
      00FF7C73H   LINE      CODE     ---       #336
      00FF7C73H   LINE      CODE     ---       #337
      00FF7C8CH   LINE      CODE     ---       #338
      00FF7C8FH   LINE      CODE     ---       #339
      00FF7C8FH   LINE      CODE     ---       #340
      00FF7CA8H   LINE      CODE     ---       #341
      00FF7CABH   LINE      CODE     ---       #342
      00FF7CABH   LINE      CODE     ---       #343
      00FF7CC4H   LINE      CODE     ---       #344
      00FF7CC7H   LINE      CODE     ---       #345
      00FF7CC7H   LINE      CODE     ---       #346
      00FF7CE0H   LINE      CODE     ---       #347
      00FF7CE2H   LINE      CODE     ---       #348
      00FF7CE2H   LINE      CODE     ---       #349
      00FF7CFBH   LINE      CODE     ---       #350
      00FF7CFDH   LINE      CODE     ---       #351
      00FF7CFDH   LINE      CODE     ---       #352
      00FF7D16H   LINE      CODE     ---       #353
      00FF7D18H   LINE      CODE     ---       #354
      00FF7D18H   LINE      CODE     ---       #355
      00FF7D31H   LINE      CODE     ---       #356
      00FF7D33H   LINE      CODE     ---       #357
      00FF7D33H   LINE      CODE     ---       #358
      00FF7D4CH   LINE      CODE     ---       #359
      00FF7D4CH   LINE      CODE     ---       #360
      00FF7D4CH   LINE      CODE     ---       #361
      00FF7D4CH   LINE      CODE     ---       #362
      00FF7D4CH   LINE      CODE     ---       #364
      00FF7D5AH   LINE      CODE     ---       #365
      ---         BLOCKEND  ---      ---       LVL=0

      00FF68D0H   BLOCK     CODE     ---       LVL=0
      00011E8FH   SYMBOL    XDATA    INT       pin
      00011E91H   SYMBOL    XDATA    BYTE      dat
      00FF68DAH   BLOCK     CODE     NEAR LAB  LVL=1
      00011E92H   SYMBOL    XDATA    BYTE      pin_bit
      00011E93H   SYMBOL    XDATA    BYTE      port_flag
      ---         BLOCKEND  ---      ---       LVL=1
      00FF68D0H   LINE      CODE     ---       #374
      00FF68DAH   LINE      CODE     ---       #375
      00FF68DAH   LINE      CODE     ---       #376
      00FF68EAH   LINE      CODE     ---       #377
      00FF68FAH   LINE      CODE     ---       #380
      00FF6933H   LINE      CODE     ---       #382
      00FF6933H   LINE      CODE     ---       #383
      00FF6967H   LINE      CODE     ---       #384
      00FF696AH   LINE      CODE     ---       #385
      00FF696AH   LINE      CODE     ---       #386
      00FF699EH   LINE      CODE     ---       #387
      00FF69A1H   LINE      CODE     ---       #388
      00FF69A1H   LINE      CODE     ---       #389
      00FF69D5H   LINE      CODE     ---       #390
      00FF69D8H   LINE      CODE     ---       #391
      00FF69D8H   LINE      CODE     ---       #392
      00FF6A0CH   LINE      CODE     ---       #393
      00FF6A0FH   LINE      CODE     ---       #394
      00FF6A0FH   LINE      CODE     ---       #395
      00FF6A43H   LINE      CODE     ---       #396
      00FF6A46H   LINE      CODE     ---       #397
      00FF6A46H   LINE      CODE     ---       #398
      00FF6A7AH   LINE      CODE     ---       #399
      00FF6A7CH   LINE      CODE     ---       #400
L251 LINKER/LOCATER V4.66.93.0                                                        04/19/2026  22:06:36  PAGE 67


      00FF6A7CH   LINE      CODE     ---       #401
      00FF6AAFH   LINE      CODE     ---       #402
      00FF6AB1H   LINE      CODE     ---       #403
      00FF6AB1H   LINE      CODE     ---       #404
      00FF6AE4H   LINE      CODE     ---       #405
      00FF6AE4H   LINE      CODE     ---       #406
      00FF6AE4H   LINE      CODE     ---       #407
      00FF6AE4H   LINE      CODE     ---       #408
      00FF6AE4H   LINE      CODE     ---       #409
      ---         BLOCKEND  ---      ---       LVL=0
      00011FB0H   SYMBOL    XDATA    INT       pin

      00FF70C0H   BLOCK     CODE     ---       LVL=0
      00011F18H   SYMBOL    XDATA    INT       pin
      00FF70C6H   BLOCK     CODE     NEAR LAB  LVL=1
      00011F1AH   SYMBOL    XDATA    BYTE      pin_bit
      00011F1BH   SYMBOL    XDATA    BYTE      port_flag
      ---         BLOCKEND  ---      ---       LVL=1
      00FF70C0H   LINE      CODE     ---       #429
      00FF70C6H   LINE      CODE     ---       #430
      00FF70C6H   LINE      CODE     ---       #431
      00FF70D6H   LINE      CODE     ---       #432
      00FF70E6H   LINE      CODE     ---       #435
      00FF711FH   LINE      CODE     ---       #437
      00FF711FH   LINE      CODE     ---       #438
      00FF7132H   LINE      CODE     ---       #439
      00FF7147H   LINE      CODE     ---       #440
      00FF714AH   LINE      CODE     ---       #441
      00FF714AH   LINE      CODE     ---       #442
      00FF715DH   LINE      CODE     ---       #443
      00FF7172H   LINE      CODE     ---       #444
      00FF7175H   LINE      CODE     ---       #445
      00FF7175H   LINE      CODE     ---       #446
      00FF7188H   LINE      CODE     ---       #447
      00FF719DH   LINE      CODE     ---       #448
      00FF71A0H   LINE      CODE     ---       #449
      00FF71A0H   LINE      CODE     ---       #450
      00FF71B3H   LINE      CODE     ---       #451
      00FF71C8H   LINE      CODE     ---       #452
      00FF71CBH   LINE      CODE     ---       #453
      00FF71CBH   LINE      CODE     ---       #454
      00FF71DEH   LINE      CODE     ---       #455
      00FF71F3H   LINE      CODE     ---       #456
      00FF71F5H   LINE      CODE     ---       #457
      00FF71F5H   LINE      CODE     ---       #458
      00FF7208H   LINE      CODE     ---       #459
      00FF721DH   LINE      CODE     ---       #460
      00FF721FH   LINE      CODE     ---       #461
      00FF721FH   LINE      CODE     ---       #462
      00FF7232H   LINE      CODE     ---       #463
      00FF7247H   LINE      CODE     ---       #464
      00FF7249H   LINE      CODE     ---       #465
      00FF7249H   LINE      CODE     ---       #466
      00FF725CH   LINE      CODE     ---       #467
      00FF7271H   LINE      CODE     ---       #468
      00FF7271H   LINE      CODE     ---       #469
      00FF7271H   LINE      CODE     ---       #470
      00FF7271H   LINE      CODE     ---       #471
      00FF7271H   LINE      CODE     ---       #472
      ---         BLOCKEND  ---      ---       LVL=0

      00FF854BH   BLOCK     CODE     ---       LVL=0
      00011D78H   SYMBOL    XDATA    INT       pin
      00011D7AH   SYMBOL    XDATA    INT       dir
      00011D7CH   SYMBOL    XDATA    BYTE      dat
L251 LINKER/LOCATER V4.66.93.0                                                        04/19/2026  22:06:36  PAGE 68


      00011D7DH   SYMBOL    XDATA    INT       mode
      00FF854BH   LINE      CODE     ---       #483
      00FF8561H   LINE      CODE     ---       #485
      00FF858DH   LINE      CODE     ---       #487
      00FF859BH   LINE      CODE     ---       #489
      00FF85A8H   LINE      CODE     ---       #490
      00FF85B7H   LINE      CODE     ---       #491
      00FF85BAH   LINE      CODE     ---       #492
      00FF85C6H   LINE      CODE     ---       #494
      00FF85D2H   LINE      CODE     ---       #496
      00FF85DBH   LINE      CODE     ---       #497
      00FF85DDH   LINE      CODE     ---       #500
      00FF85E8H   LINE      CODE     ---       #501
      00FF85F7H   LINE      CODE     ---       #502
      00FF85F7H   LINE      CODE     ---       #503
      00FF85F9H   LINE      CODE     ---       #504
      00FF8607H   LINE      CODE     ---       #506
      00FF8615H   LINE      CODE     ---       #508
      00FF8622H   LINE      CODE     ---       #509
      00FF862FH   LINE      CODE     ---       #510
      00FF8631H   LINE      CODE     ---       #511
      00FF863FH   LINE      CODE     ---       #513
      00FF864CH   LINE      CODE     ---       #514
      00FF864CH   LINE      CODE     ---       #516
      00FF8659H   LINE      CODE     ---       #517
      ---         BLOCKEND  ---      ---       LVL=0

      ---         MODULE    ---      ---       zf_driver_pit
      00FF61E0H   PUBLIC    CODE     ---       pit_init
      000000D0H   SFRSYM    DATA     BYTE      PSW
      0000009DH   SFRSYM    DATA     BYTE      IRCBAND
      00000097H   SFRSYM    DATA     BYTE      AUXR2
      000000EFH   SFRSYM    DATA     BYTE      AUXINTIF
      000000FDH   SFRSYM    DATA     BYTE      S4CON
      000000ACH   SFRSYM    DATA     BYTE      S3CON
      0000009AH   SFRSYM    DATA     BYTE      S2CON
      000000B7H   SFRSYM    DATA     BYTE      IPH
      000000CDH   SFRSYM    DATA     BYTE      SPSTAT
      000000DDH   SFRSYM    DATA     BYTE      T4T3M
      000000C1H   SFRSYM    DATA     BYTE      WDT_CONTR
      00000088H.6 SFRSYM    DATA     BIT       TR1
      00000088H.4 SFRSYM    DATA     BIT       TR0
      000000D3H   SFRSYM    DATA     BYTE      T4L
      000000D5H   SFRSYM    DATA     BYTE      T3L
      000000D7H   SFRSYM    DATA     BYTE      T2L
      0000008BH   SFRSYM    DATA     BYTE      TL1
      0000008AH   SFRSYM    DATA     BYTE      TL0
      000000D2H   SFRSYM    DATA     BYTE      T4H
      000000D4H   SFRSYM    DATA     BYTE      T3H
      000000D6H   SFRSYM    DATA     BYTE      T2H
      0000008DH   SFRSYM    DATA     BYTE      TH1
      0000008CH   SFRSYM    DATA     BYTE      TH0
      000000DFH   SFRSYM    DATA     BYTE      IP3
      000000F4H   SFRSYM    DATA     BYTE      USBCON
      000000B5H   SFRSYM    DATA     BYTE      IP2
      000000FFH   SFRSYM    DATA     BYTE      RSTCFG
      000000A8H.3 SFRSYM    DATA     BIT       ET1
      000000A8H.1 SFRSYM    DATA     BIT       ET0
      000000C7H   SFRSYM    DATA     BYTE      IAP_CONTR
      000000F9H   SFRSYM    DATA     BYTE      LINICR
      0000008EH   SFRSYM    DATA     BYTE      AUXR
      000000AFH   SFRSYM    DATA     BYTE      IE2
      00000088H   SFRSYM    DATA     BYTE      TCON
      00000089H   SFRSYM    DATA     BYTE      TMOD
      00000098H   SFRSYM    DATA     BYTE      SCON
L251 LINKER/LOCATER V4.66.93.0                                                        04/19/2026  22:06:36  PAGE 69


      000000F1H   SFRSYM    DATA     BYTE      CANICR
      00000087H   SFRSYM    DATA     BYTE      PCON
      000000BCH   SFRSYM    DATA     BYTE      ADC_CONTR
      000000E7H   SFRSYM    DATA     BYTE      CMPCR2
      000000E6H   SFRSYM    DATA     BYTE      CMPCR1
      000000DEH   SFRSYM    DATA     BYTE      ADCCFG
      000000B8H   SFRSYM    DATA     BYTE      IP
      0000008FH   SFRSYM    DATA     BYTE      INTCLKO
      000000EEH   SFRSYM    DATA     BYTE      IP3H
      000000B6H   SFRSYM    DATA     BYTE      IP2H
      000000A8H   SFRSYM    DATA     BYTE      IE
      000000BBH   SFRSYM    DATA     BYTE      P_SW3
      000000BAH   SFRSYM    DATA     BYTE      P_SW2
      000000A2H   SFRSYM    DATA     BYTE      P_SW1
      000000CEH   SFRSYM    DATA     BYTE      SPCTL
      000000F8H   SFRSYM    DATA     BYTE      P7
      000000E8H   SFRSYM    DATA     BYTE      P6
      000000C8H   SFRSYM    DATA     BYTE      P5
      000000C0H   SFRSYM    DATA     BYTE      P4
      000000B0H   SFRSYM    DATA     BYTE      P3
      000000A0H   SFRSYM    DATA     BYTE      P2
      00000090H   SFRSYM    DATA     BYTE      P1
      00000080H   SFRSYM    DATA     BYTE      P0

      00FF61E0H   BLOCK     CODE     ---       LVL=0
      00011AABH   SYMBOL    XDATA    INT       pit_n
      00011AADH   SYMBOL    XDATA    DWORD     period
      00FF61F0H   BLOCK     CODE     NEAR LAB  LVL=1
      00011AB1H   SYMBOL    XDATA    BYTE      freq_div
      00011AB2H   SYMBOL    XDATA    WORD      period_temp
      00011AB4H   SYMBOL    XDATA    WORD      temp
      ---         BLOCKEND  ---      ---       LVL=1
      00FF61E0H   LINE      CODE     ---       #50
      00FF61F0H   LINE      CODE     ---       #51
      00FF61F0H   LINE      CODE     ---       #52
      00FF61F5H   LINE      CODE     ---       #53
      00FF61FDH   LINE      CODE     ---       #54
      00FF6205H   LINE      CODE     ---       #57
      00FF621BH   LINE      CODE     ---       #60
      00FF6233H   LINE      CODE     ---       #62
      00FF623FH   LINE      CODE     ---       #64
      00FF6242H   LINE      CODE     ---       #65
      00FF6245H   LINE      CODE     ---       #66
      00FF6253H   LINE      CODE     ---       #68
      00FF6256H   LINE      CODE     ---       #69
      00FF6259H   LINE      CODE     ---       #70
      00FF6267H   LINE      CODE     ---       #72
      00FF626AH   LINE      CODE     ---       #73
      00FF626DH   LINE      CODE     ---       #74
      00FF627BH   LINE      CODE     ---       #76
      00FF627EH   LINE      CODE     ---       #77
      00FF6280H   LINE      CODE     ---       #78
      00FF628EH   LINE      CODE     ---       #80
      00FF6291H   LINE      CODE     ---       #81
      00FF6293H   LINE      CODE     ---       #88
      00FF629FH   LINE      CODE     ---       #90
      00FF62A2H   LINE      CODE     ---       #91
      00FF62A4H   LINE      CODE     ---       #92
      00FF62B2H   LINE      CODE     ---       #94
      00FF62B5H   LINE      CODE     ---       #95
      00FF62B7H   LINE      CODE     ---       #96
      00FF62C5H   LINE      CODE     ---       #98
      00FF62C8H   LINE      CODE     ---       #99
      00FF62CAH   LINE      CODE     ---       #100
      00FF62D8H   LINE      CODE     ---       #102
L251 LINKER/LOCATER V4.66.93.0                                                        04/19/2026  22:06:36  PAGE 70


      00FF62DBH   LINE      CODE     ---       #103
      00FF62DDH   LINE      CODE     ---       #104
      00FF62EBH   LINE      CODE     ---       #106
      00FF62EEH   LINE      CODE     ---       #107
      00FF62EEH   LINE      CODE     ---       #112
      00FF630CH   LINE      CODE     ---       #113
      00FF632DH   LINE      CODE     ---       #115
      00FF633FH   LINE      CODE     ---       #117
      00FF634BH   LINE      CODE     ---       #119
      00FF635AH   LINE      CODE     ---       #120
      00FF635EH   LINE      CODE     ---       #121
      00FF6366H   LINE      CODE     ---       #122
      00FF6372H   LINE      CODE     ---       #123
      00FF6375H   LINE      CODE     ---       #124
      00FF6378H   LINE      CODE     ---       #125
      00FF637BH   LINE      CODE     ---       #126
      00FF6389H   LINE      CODE     ---       #128
      00FF6398H   LINE      CODE     ---       #129
      00FF639CH   LINE      CODE     ---       #130
      00FF63A4H   LINE      CODE     ---       #131
      00FF63B0H   LINE      CODE     ---       #132
      00FF63B3H   LINE      CODE     ---       #133
      00FF63B6H   LINE      CODE     ---       #134
      00FF63B9H   LINE      CODE     ---       #135
      00FF63C7H   LINE      CODE     ---       #137
      00FF63D6H   LINE      CODE     ---       #138
      00FF63DEH   LINE      CODE     ---       #139
      00FF63EAH   LINE      CODE     ---       #140
      00FF63EDH   LINE      CODE     ---       #141
      00FF63F0H   LINE      CODE     ---       #142
      00FF63F2H   LINE      CODE     ---       #143
      00FF6400H   LINE      CODE     ---       #145
      00FF640FH   LINE      CODE     ---       #146
      00FF6417H   LINE      CODE     ---       #147
      00FF6423H   LINE      CODE     ---       #148
      00FF6426H   LINE      CODE     ---       #149
      00FF6429H   LINE      CODE     ---       #150
      00FF642BH   LINE      CODE     ---       #151
      00FF6439H   LINE      CODE     ---       #153
      00FF6448H   LINE      CODE     ---       #154
      00FF6450H   LINE      CODE     ---       #155
      00FF645CH   LINE      CODE     ---       #156
      00FF645FH   LINE      CODE     ---       #157
      00FF6462H   LINE      CODE     ---       #158
      ---         BLOCKEND  ---      ---       LVL=0

      ---         MODULE    ---      ---       zf_driver_pwm
      00FFB092H   PUBLIC    HCONST   ---       PWM_PSCR_ADDR
      00FFB09AH   PUBLIC    HCONST   ---       PWM_CCR_ADDR
      00FFB0BAH   PUBLIC    HCONST   ---       PWM_ARR_ADDR
      00FFB0C2H   PUBLIC    HCONST   ---       PWM_CCER_ADDR
      00FFB0D2H   PUBLIC    HCONST   ---       PWM_CCMR_ADDR
      00FF3071H   PUBLIC    CODE     ---       pwm_init
      000114F9H   PUBLIC    XDATA    BYTE      ?pwm_set_freq?BYTE
      000115F6H   PUBLIC    XDATA    BYTE      ?pwm_init?BYTE
      000000D0H   SFRSYM    DATA     BYTE      PSW
      0000009DH   SFRSYM    DATA     BYTE      IRCBAND
      00000097H   SFRSYM    DATA     BYTE      AUXR2
      000000EFH   SFRSYM    DATA     BYTE      AUXINTIF
      000000FDH   SFRSYM    DATA     BYTE      S4CON
      000000ACH   SFRSYM    DATA     BYTE      S3CON
      0000009AH   SFRSYM    DATA     BYTE      S2CON
      000000B7H   SFRSYM    DATA     BYTE      IPH
      000000CDH   SFRSYM    DATA     BYTE      SPSTAT
      000000DDH   SFRSYM    DATA     BYTE      T4T3M
L251 LINKER/LOCATER V4.66.93.0                                                        04/19/2026  22:06:36  PAGE 71


      000000C1H   SFRSYM    DATA     BYTE      WDT_CONTR
      000000DFH   SFRSYM    DATA     BYTE      IP3
      000000F4H   SFRSYM    DATA     BYTE      USBCON
      000000B5H   SFRSYM    DATA     BYTE      IP2
      000000FFH   SFRSYM    DATA     BYTE      RSTCFG
      000000C7H   SFRSYM    DATA     BYTE      IAP_CONTR
      000000F9H   SFRSYM    DATA     BYTE      LINICR
      0000008EH   SFRSYM    DATA     BYTE      AUXR
      000000AFH   SFRSYM    DATA     BYTE      IE2
      00000088H   SFRSYM    DATA     BYTE      TCON
      00000089H   SFRSYM    DATA     BYTE      TMOD
      00000098H   SFRSYM    DATA     BYTE      SCON
      000000F1H   SFRSYM    DATA     BYTE      CANICR
      00000087H   SFRSYM    DATA     BYTE      PCON
      000000BCH   SFRSYM    DATA     BYTE      ADC_CONTR
      000000E7H   SFRSYM    DATA     BYTE      CMPCR2
      000000E6H   SFRSYM    DATA     BYTE      CMPCR1
      000000DEH   SFRSYM    DATA     BYTE      ADCCFG
      000000B8H   SFRSYM    DATA     BYTE      IP
      0000008FH   SFRSYM    DATA     BYTE      INTCLKO
      000000EEH   SFRSYM    DATA     BYTE      IP3H
      000000B6H   SFRSYM    DATA     BYTE      IP2H
      000000A8H   SFRSYM    DATA     BYTE      IE
      000000BBH   SFRSYM    DATA     BYTE      P_SW3
      000000BAH   SFRSYM    DATA     BYTE      P_SW2
      000000A2H   SFRSYM    DATA     BYTE      P_SW1
      000000CEH   SFRSYM    DATA     BYTE      SPCTL
      000000F8H   SFRSYM    DATA     BYTE      P7
      000000E8H   SFRSYM    DATA     BYTE      P6
      000000C8H   SFRSYM    DATA     BYTE      P5
      000000C0H   SFRSYM    DATA     BYTE      P4
      000000B0H   SFRSYM    DATA     BYTE      P3
      000000A0H   SFRSYM    DATA     BYTE      P2
      00000090H   SFRSYM    DATA     BYTE      P1
      00000080H   SFRSYM    DATA     BYTE      P0
      000114F9H   SYMBOL    XDATA    INT       pin
      000114FBH   SYMBOL    XDATA    DWORD     freq
      000114FFH   SYMBOL    XDATA    DWORD     duty
      00011503H   SYMBOL    XDATA    DWORD     match_temp
      00011507H   SYMBOL    XDATA    DWORD     period_temp
      0001150BH   SYMBOL    XDATA    WORD      freq_div
      000117ABH   SYMBOL    XDATA    INT       pin
      000117ADH   SYMBOL    XDATA    DWORD     duty
      000117B1H   SYMBOL    XDATA    DWORD     match_temp
      000117B5H   SYMBOL    XDATA    DWORD     arr

      00FF3071H   BLOCK     CODE     ---       LVL=0
      000115F6H   SYMBOL    XDATA    INT       pin
      000115F8H   SYMBOL    XDATA    DWORD     freq
      000115FCH   SYMBOL    XDATA    DWORD     duty
      00FF3081H   BLOCK     CODE     NEAR LAB  LVL=1
      00011600H   SYMBOL    XDATA    WORD      match_temp
      00011602H   SYMBOL    XDATA    DWORD     period_temp
      00011606H   SYMBOL    XDATA    WORD      freq_div
      ---         BLOCKEND  ---      ---       LVL=1
      00FF3071H   LINE      CODE     ---       #165
      00FF3081H   LINE      CODE     ---       #166
      00FF3081H   LINE      CODE     ---       #168
      00FF3089H   LINE      CODE     ---       #169
      00FF3095H   LINE      CODE     ---       #170
      00FF309DH   LINE      CODE     ---       #173
      00FF30C1H   LINE      CODE     ---       #175
      00FF30DAH   LINE      CODE     ---       #179
      00FF30FBH   LINE      CODE     ---       #180
      00FF311CH   LINE      CODE     ---       #181
L251 LINKER/LOCATER V4.66.93.0                                                        04/19/2026  22:06:36  PAGE 72


      00FF3145H   LINE      CODE     ---       #183
      00FF3155H   LINE      CODE     ---       #185
      00FF318AH   LINE      CODE     ---       #186
      00FF318CH   LINE      CODE     ---       #189
      00FF31A4H   LINE      CODE     ---       #190
      00FF31A4H   LINE      CODE     ---       #192
      00FF31DCH   LINE      CODE     ---       #193
      00FF3218H   LINE      CODE     ---       #195
      00FF3252H   LINE      CODE     ---       #196
      00FF3292H   LINE      CODE     ---       #198
      00FF32EEH   LINE      CODE     ---       #199
      00FF334EH   LINE      CODE     ---       #201
      00FF3369H   LINE      CODE     ---       #203
      00FF33B8H   LINE      CODE     ---       #204
      00FF33FDH   LINE      CODE     ---       #205
      00FF3497H   LINE      CODE     ---       #207
      00FF34A4H   LINE      CODE     ---       #208
      00FF34B1H   LINE      CODE     ---       #209
      00FF34B4H   LINE      CODE     ---       #210
      00FF34CFH   LINE      CODE     ---       #212
      00FF351EH   LINE      CODE     ---       #213
      00FF3563H   LINE      CODE     ---       #214
      00FF35E3H   LINE      CODE     ---       #216
      00FF35F0H   LINE      CODE     ---       #217
      00FF35FDH   LINE      CODE     ---       #218
      00FF35FDH   LINE      CODE     ---       #220
      00FF3658H   LINE      CODE     ---       #221
      00FF36B3H   LINE      CODE     ---       #222
      ---         BLOCKEND  ---      ---       LVL=0

      ---         MODULE    ---      ---       zf_driver_soft_iic
      00FF8938H   PUBLIC    CODE     ---       soft_iic_wait_ack
      00FF8D46H   PUBLIC    CODE     ---       soft_iic_stop
      00FFA19EH   PUBLIC    CODE     ---       soft_iic_delay
      00FF7D5BH   PUBLIC    CODE     ---       soft_iic_read_data
      00FF00A6H   PUBLIC    CODE     ---       soft_iic_send_data
      00FF900DH   PUBLIC    CODE     ---       soft_iic_start
      00FF8A1BH   PUBLIC    CODE     ---       soft_iic_send_ack
      000118FCH   PUBLIC    XDATA    BYTE      ?soft_iic_write_8bit_array?BYTE
      00011908H   PUBLIC    XDATA    BYTE      ?soft_iic_write_16bit_array?BYTE
      00011860H   PUBLIC    XDATA    BYTE      ?soft_iic_write_8bit_registers?BYTE
      000117B9H   PUBLIC    XDATA    BYTE      ?soft_iic_write_16bit_registers?BYTE
      00011914H   PUBLIC    XDATA    BYTE      ?soft_iic_read_8bit_array?BYTE
      00011920H   PUBLIC    XDATA    BYTE      ?soft_iic_read_16bit_array?BYTE
      0001186DH   PUBLIC    XDATA    BYTE      ?soft_iic_read_8bit_registers?BYTE
      000117C7H   PUBLIC    XDATA    BYTE      ?soft_iic_read_16bit_registers?BYTE
      0001150DH   PUBLIC    XDATA    BYTE      ?soft_iic_transfer_8bit_array?BYTE
      00011521H   PUBLIC    XDATA    BYTE      ?soft_iic_transfer_16bit_array?BYTE
      0001187AH   PUBLIC    XDATA    BYTE      ?soft_iic_init?BYTE
      000000D0H   SFRSYM    DATA     BYTE      PSW
      0000009DH   SFRSYM    DATA     BYTE      IRCBAND
      00000097H   SFRSYM    DATA     BYTE      AUXR2
      000000EFH   SFRSYM    DATA     BYTE      AUXINTIF
      000000FDH   SFRSYM    DATA     BYTE      S4CON
      000000ACH   SFRSYM    DATA     BYTE      S3CON
      0000009AH   SFRSYM    DATA     BYTE      S2CON
      000000B7H   SFRSYM    DATA     BYTE      IPH
      000000CDH   SFRSYM    DATA     BYTE      SPSTAT
      000000DDH   SFRSYM    DATA     BYTE      T4T3M
      000000C1H   SFRSYM    DATA     BYTE      WDT_CONTR
      000000DFH   SFRSYM    DATA     BYTE      IP3
      000000F4H   SFRSYM    DATA     BYTE      USBCON
      000000B5H   SFRSYM    DATA     BYTE      IP2
      000000FFH   SFRSYM    DATA     BYTE      RSTCFG
      000000C7H   SFRSYM    DATA     BYTE      IAP_CONTR
L251 LINKER/LOCATER V4.66.93.0                                                        04/19/2026  22:06:36  PAGE 73


      000000F9H   SFRSYM    DATA     BYTE      LINICR
      0000008EH   SFRSYM    DATA     BYTE      AUXR
      000000AFH   SFRSYM    DATA     BYTE      IE2
      00000088H   SFRSYM    DATA     BYTE      TCON
      00000089H   SFRSYM    DATA     BYTE      TMOD
      00000098H   SFRSYM    DATA     BYTE      SCON
      000000F1H   SFRSYM    DATA     BYTE      CANICR
      00000087H   SFRSYM    DATA     BYTE      PCON
      000000BCH   SFRSYM    DATA     BYTE      ADC_CONTR
      000000E7H   SFRSYM    DATA     BYTE      CMPCR2
      000000E6H   SFRSYM    DATA     BYTE      CMPCR1
      000000DEH   SFRSYM    DATA     BYTE      ADCCFG
      000000B8H   SFRSYM    DATA     BYTE      IP
      0000008FH   SFRSYM    DATA     BYTE      INTCLKO
      000000EEH   SFRSYM    DATA     BYTE      IP3H
      000000B6H   SFRSYM    DATA     BYTE      IP2H
      000000A8H   SFRSYM    DATA     BYTE      IE
      000000BBH   SFRSYM    DATA     BYTE      P_SW3
      000000BAH   SFRSYM    DATA     BYTE      P_SW2
      000000A2H   SFRSYM    DATA     BYTE      P_SW1
      000000CEH   SFRSYM    DATA     BYTE      SPCTL
      000000F8H   SFRSYM    DATA     BYTE      P7
      000000E8H   SFRSYM    DATA     BYTE      P6
      000000C8H   SFRSYM    DATA     BYTE      P5
      000000C0H   SFRSYM    DATA     BYTE      P4
      000000B0H   SFRSYM    DATA     BYTE      P3
      000000A0H   SFRSYM    DATA     BYTE      P2
      00000090H   SFRSYM    DATA     BYTE      P1
      00000080H   SFRSYM    DATA     BYTE      P0

      00FFA19EH   BLOCK     CODE     ---       LVL=0
      00011CB0H   SYMBOL    XDATA    DWORD     delay
      00FFA1A8H   BLOCK     CODE     NEAR LAB  LVL=1
      00011CB4H   SYMBOL    XDATA    DWORD     count
      ---         BLOCKEND  ---      ---       LVL=1
      00FFA19EH   LINE      CODE     ---       #53
      00FFA1A8H   LINE      CODE     ---       #54
      00FFA1A8H   LINE      CODE     ---       #55
      00FFA1BCH   LINE      CODE     ---       #56
      00FFA1D9H   LINE      CODE     ---       #57
      ---         BLOCKEND  ---      ---       LVL=0

      00FF900DH   BLOCK     CODE     ---       LVL=0
      00011F1CH   SYMBOL    XDATA    ---       soft_iic_obj
      00FF900DH   LINE      CODE     ---       #67
      00FF9017H   LINE      CODE     ---       #69
      00FF9039H   LINE      CODE     ---       #70
      00FF904BH   LINE      CODE     ---       #71
      00FF905FH   LINE      CODE     ---       #73
      00FF9077H   LINE      CODE     ---       #74
      00FF908AH   LINE      CODE     ---       #75
      00FF90A2H   LINE      CODE     ---       #76
      00FF90B3H   LINE      CODE     ---       #77
      ---         BLOCKEND  ---      ---       LVL=0

      00FF8D46H   BLOCK     CODE     ---       LVL=0
      00011F20H   SYMBOL    XDATA    ---       soft_iic_obj
      00FF8D46H   LINE      CODE     ---       #86
      00FF8D50H   LINE      CODE     ---       #88
      00FF8D72H   LINE      CODE     ---       #89
      00FF8D85H   LINE      CODE     ---       #90
      00FF8D96H   LINE      CODE     ---       #92
      00FF8DAEH   LINE      CODE     ---       #93
      00FF8DC0H   LINE      CODE     ---       #94
      00FF8DD8H   LINE      CODE     ---       #95
L251 LINKER/LOCATER V4.66.93.0                                                        04/19/2026  22:06:36  PAGE 74


      00FF8DECH   LINE      CODE     ---       #96
      00FF8E04H   LINE      CODE     ---       #97
      ---         BLOCKEND  ---      ---       LVL=0

      00FF8A1BH   BLOCK     CODE     ---       LVL=0
      00011E94H   SYMBOL    XDATA    ---       soft_iic_obj
      00011E98H   SYMBOL    XDATA    BYTE      ack
      00FF8A1BH   LINE      CODE     ---       #107
      00FF8A29H   LINE      CODE     ---       #109
      00FF8A4BH   LINE      CODE     ---       #110
      00FF8A5CH   LINE      CODE     ---       #112
      00FF8A65H   LINE      CODE     ---       #114
      00FF8A79H   LINE      CODE     ---       #115
      00FF8A7BH   LINE      CODE     ---       #118
      00FF8A8EH   LINE      CODE     ---       #119
      00FF8A8EH   LINE      CODE     ---       #121
      00FF8AA6H   LINE      CODE     ---       #122
      00FF8AB8H   LINE      CODE     ---       #123
      00FF8AD0H   LINE      CODE     ---       #124
      00FF8AE1H   LINE      CODE     ---       #125
      00FF8AF5H   LINE      CODE     ---       #126
      ---         BLOCKEND  ---      ---       LVL=0

      00FF8938H   BLOCK     CODE     ---       LVL=0
      00011E99H   SYMBOL    XDATA    ---       soft_iic_obj
      00FF8942H   BLOCK     CODE     NEAR LAB  LVL=1
      00011E9DH   SYMBOL    XDATA    BYTE      temp
      ---         BLOCKEND  ---      ---       LVL=1
      00FF8938H   LINE      CODE     ---       #135
      00FF8942H   LINE      CODE     ---       #136
      00FF8942H   LINE      CODE     ---       #137
      00FF8947H   LINE      CODE     ---       #138
      00FF8969H   LINE      CODE     ---       #140
      00FF897AH   LINE      CODE     ---       #141
      00FF898EH   LINE      CODE     ---       #145
      00FF89A6H   LINE      CODE     ---       #147
      00FF89B8H   LINE      CODE     ---       #148
      00FF89D0H   LINE      CODE     ---       #150
      00FF89E7H   LINE      CODE     ---       #152
      00FF89EDH   LINE      CODE     ---       #153
      00FF89EDH   LINE      CODE     ---       #154
      00FF89FEH   LINE      CODE     ---       #158
      00FF8A16H   LINE      CODE     ---       #160
      00FF8A1AH   LINE      CODE     ---       #161
      ---         BLOCKEND  ---      ---       LVL=0

      00FF00A6H   BLOCK     CODE     ---       LVL=0
      00011DBAH   SYMBOL    XDATA    ---       soft_iic_obj
      00011DBEH   SYMBOL    XDATA    BYTE      dat
      00FF00B4H   BLOCK     CODE     NEAR LAB  LVL=1
      00011DBFH   SYMBOL    XDATA    BYTE      temp
      ---         BLOCKEND  ---      ---       LVL=1
      00FF00A6H   LINE      CODE     ---       #170
      00FF00B4H   LINE      CODE     ---       #171
      00FF00B4H   LINE      CODE     ---       #172
      00FF00BAH   LINE      CODE     ---       #174
      00FF00DCH   LINE      CODE     ---       #176
      00FF00DFH   LINE      CODE     ---       #179
      00FF011CH   LINE      CODE     ---       #180
      00FF0123H   LINE      CODE     ---       #182
      00FF013BH   LINE      CODE     ---       #183
      00FF014DH   LINE      CODE     ---       #184
      00FF0165H   LINE      CODE     ---       #185
      00FF0176H   LINE      CODE     ---       #186
      00FF0182H   LINE      CODE     ---       #187
L251 LINKER/LOCATER V4.66.93.0                                                        04/19/2026  22:06:36  PAGE 75


      00FF0199H   LINE      CODE     ---       #188
      ---         BLOCKEND  ---      ---       LVL=0

      00FF7D5BH   BLOCK     CODE     ---       LVL=0
      00011D7FH   SYMBOL    XDATA    ---       soft_iic_obj
      00011D83H   SYMBOL    XDATA    BYTE      ack
      00FF7D69H   BLOCK     CODE     NEAR LAB  LVL=1
      00011D84H   SYMBOL    XDATA    BYTE      dat
      00011D85H   SYMBOL    XDATA    BYTE      temp
      ---         BLOCKEND  ---      ---       LVL=1
      00FF7D5BH   LINE      CODE     ---       #197
      00FF7D69H   LINE      CODE     ---       #198
      00FF7D69H   LINE      CODE     ---       #199
      00FF7D6EH   LINE      CODE     ---       #200
      00FF7D74H   LINE      CODE     ---       #201
      00FF7D96H   LINE      CODE     ---       #202
      00FF7DA7H   LINE      CODE     ---       #203
      00FF7DBFH   LINE      CODE     ---       #204
      00FF7DD3H   LINE      CODE     ---       #209
      00FF7DD5H   LINE      CODE     ---       #211
      00FF7DE6H   LINE      CODE     ---       #212
      00FF7DFEH   LINE      CODE     ---       #213
      00FF7E10H   LINE      CODE     ---       #214
      00FF7E28H   LINE      CODE     ---       #215
      00FF7E48H   LINE      CODE     ---       #216
      00FF7E5EH   LINE      CODE     ---       #217
      00FF7E6FH   LINE      CODE     ---       #221
      00FF7E87H   LINE      CODE     ---       #222
      00FF7E98H   LINE      CODE     ---       #223
      00FF7E9CH   LINE      CODE     ---       #224
      ---         BLOCKEND  ---      ---       LVL=0
      00011E9EH   SYMBOL    XDATA    ---       soft_iic_obj
      00011EA2H   SYMBOL    XDATA    BYTE      dat
      000118FCH   SYMBOL    XDATA    ---       soft_iic_obj
      00011900H   SYMBOL    XDATA    ---       dat
      00011904H   SYMBOL    XDATA    DWORD     len
      00011DC0H   SYMBOL    XDATA    ---       soft_iic_obj
      00011DC4H   SYMBOL    XDATA    WORD      dat
      00011908H   SYMBOL    XDATA    ---       soft_iic_obj
      0001190CH   SYMBOL    XDATA    ---       dat
      00011910H   SYMBOL    XDATA    DWORD     len
      00011DC6H   SYMBOL    XDATA    ---       soft_iic_obj
      00011DCAH   SYMBOL    XDATA    BYTE      register_name
      00011DCBH   SYMBOL    XDATA    BYTE      dat
      00011860H   SYMBOL    XDATA    ---       soft_iic_obj
      00011864H   SYMBOL    XDATA    BYTE      register_name
      00011865H   SYMBOL    XDATA    ---       dat
      00011869H   SYMBOL    XDATA    DWORD     len
      00011CB8H   SYMBOL    XDATA    ---       soft_iic_obj
      00011CBCH   SYMBOL    XDATA    WORD      register_name
      00011CBEH   SYMBOL    XDATA    WORD      dat
      000117B9H   SYMBOL    XDATA    ---       soft_iic_obj
      000117BDH   SYMBOL    XDATA    WORD      register_name
      000117BFH   SYMBOL    XDATA    ---       dat
      000117C3H   SYMBOL    XDATA    DWORD     len
      00011EA3H   SYMBOL    XDATA    ---       soft_iic_obj
      00011EA7H   SYMBOL    XDATA    BYTE      temp
      00011914H   SYMBOL    XDATA    ---       soft_iic_obj
      00011918H   SYMBOL    XDATA    ---       dat
      0001191CH   SYMBOL    XDATA    DWORD     len
      00011DCCH   SYMBOL    XDATA    ---       soft_iic_obj
      00011DD0H   SYMBOL    XDATA    WORD      temp
      00011920H   SYMBOL    XDATA    ---       soft_iic_obj
      00011924H   SYMBOL    XDATA    ---       dat
      00011928H   SYMBOL    XDATA    DWORD     len
L251 LINKER/LOCATER V4.66.93.0                                                        04/19/2026  22:06:36  PAGE 76


      00011DD2H   SYMBOL    XDATA    ---       soft_iic_obj
      00011DD6H   SYMBOL    XDATA    BYTE      register_name
      00011DD7H   SYMBOL    XDATA    BYTE      temp
      0001186DH   SYMBOL    XDATA    ---       soft_iic_obj
      00011871H   SYMBOL    XDATA    BYTE      register_name
      00011872H   SYMBOL    XDATA    ---       dat
      00011876H   SYMBOL    XDATA    DWORD     len
      00011CC0H   SYMBOL    XDATA    ---       soft_iic_obj
      00011CC4H   SYMBOL    XDATA    WORD      register_name
      00011CC6H   SYMBOL    XDATA    WORD      temp
      000117C7H   SYMBOL    XDATA    ---       soft_iic_obj
      000117CBH   SYMBOL    XDATA    WORD      register_name
      000117CDH   SYMBOL    XDATA    ---       dat
      000117D1H   SYMBOL    XDATA    DWORD     len
      0001150DH   SYMBOL    XDATA    ---       soft_iic_obj
      00011511H   SYMBOL    XDATA    ---       write_data
      00011515H   SYMBOL    XDATA    DWORD     write_len
      00011519H   SYMBOL    XDATA    ---       read_data
      0001151DH   SYMBOL    XDATA    DWORD     read_len
      00011521H   SYMBOL    XDATA    ---       soft_iic_obj
      00011525H   SYMBOL    XDATA    ---       write_data
      00011529H   SYMBOL    XDATA    DWORD     write_len
      0001152DH   SYMBOL    XDATA    ---       read_data
      00011531H   SYMBOL    XDATA    DWORD     read_len
      00011DD8H   SYMBOL    XDATA    ---       soft_iic_obj
      00011DDCH   SYMBOL    XDATA    BYTE      register_name
      00011DDDH   SYMBOL    XDATA    BYTE      dat
      00011DDEH   SYMBOL    XDATA    ---       soft_iic_obj
      00011DE2H   SYMBOL    XDATA    BYTE      register_name
      00011DE3H   SYMBOL    XDATA    BYTE      temp
      0001187AH   SYMBOL    XDATA    ---       soft_iic_obj
      0001187EH   SYMBOL    XDATA    BYTE      addr
      0001187FH   SYMBOL    XDATA    DWORD     delay
      00011883H   SYMBOL    XDATA    INT       scl_pin
      00011885H   SYMBOL    XDATA    INT       sda_pin

      ---         MODULE    ---      ---       zf_driver_soft_spi
      0001192CH   PUBLIC    XDATA    BYTE      ?soft_spi_write_8bit_array?BYTE
      00011938H   PUBLIC    XDATA    BYTE      ?soft_spi_write_16bit_array?BYTE
      00011887H   PUBLIC    XDATA    BYTE      ?soft_spi_write_8bit_registers?BYTE
      000117D5H   PUBLIC    XDATA    BYTE      ?soft_spi_write_16bit_registers?BYTE
      00011944H   PUBLIC    XDATA    BYTE      ?soft_spi_read_8bit_array?BYTE
      00011950H   PUBLIC    XDATA    BYTE      ?soft_spi_read_16bit_array?BYTE
      00011894H   PUBLIC    XDATA    BYTE      ?soft_spi_read_8bit_registers?BYTE
      000117E3H   PUBLIC    XDATA    BYTE      ?soft_spi_read_16bit_registers?BYTE
      000116D6H   PUBLIC    XDATA    BYTE      ?soft_spi_transfer_8bit?BYTE
      000116E6H   PUBLIC    XDATA    BYTE      ?soft_spi_transfer_16bit?BYTE
      000114A7H   PUBLIC    XDATA    BYTE      ?soft_spi_init?BYTE
      000000D0H   SFRSYM    DATA     BYTE      PSW
      0000009DH   SFRSYM    DATA     BYTE      IRCBAND
      00000097H   SFRSYM    DATA     BYTE      AUXR2
      000000EFH   SFRSYM    DATA     BYTE      AUXINTIF
      000000FDH   SFRSYM    DATA     BYTE      S4CON
      000000ACH   SFRSYM    DATA     BYTE      S3CON
      0000009AH   SFRSYM    DATA     BYTE      S2CON
      000000B7H   SFRSYM    DATA     BYTE      IPH
      000000CDH   SFRSYM    DATA     BYTE      SPSTAT
      000000DDH   SFRSYM    DATA     BYTE      T4T3M
      000000C1H   SFRSYM    DATA     BYTE      WDT_CONTR
      000000DFH   SFRSYM    DATA     BYTE      IP3
      000000F4H   SFRSYM    DATA     BYTE      USBCON
      000000B5H   SFRSYM    DATA     BYTE      IP2
      000000FFH   SFRSYM    DATA     BYTE      RSTCFG
      000000C7H   SFRSYM    DATA     BYTE      IAP_CONTR
      000000F9H   SFRSYM    DATA     BYTE      LINICR
L251 LINKER/LOCATER V4.66.93.0                                                        04/19/2026  22:06:36  PAGE 77


      0000008EH   SFRSYM    DATA     BYTE      AUXR
      000000AFH   SFRSYM    DATA     BYTE      IE2
      00000088H   SFRSYM    DATA     BYTE      TCON
      00000089H   SFRSYM    DATA     BYTE      TMOD
      00000098H   SFRSYM    DATA     BYTE      SCON
      000000F1H   SFRSYM    DATA     BYTE      CANICR
      00000087H   SFRSYM    DATA     BYTE      PCON
      000000BCH   SFRSYM    DATA     BYTE      ADC_CONTR
      000000E7H   SFRSYM    DATA     BYTE      CMPCR2
      000000E6H   SFRSYM    DATA     BYTE      CMPCR1
      000000DEH   SFRSYM    DATA     BYTE      ADCCFG
      000000B8H   SFRSYM    DATA     BYTE      IP
      0000008FH   SFRSYM    DATA     BYTE      INTCLKO
      000000EEH   SFRSYM    DATA     BYTE      IP3H
      000000B6H   SFRSYM    DATA     BYTE      IP2H
      000000A8H   SFRSYM    DATA     BYTE      IE
      000000BBH   SFRSYM    DATA     BYTE      P_SW3
      000000BAH   SFRSYM    DATA     BYTE      P_SW2
      000000A2H   SFRSYM    DATA     BYTE      P_SW1
      000000CEH   SFRSYM    DATA     BYTE      SPCTL
      000000F8H   SFRSYM    DATA     BYTE      P7
      000000E8H   SFRSYM    DATA     BYTE      P6
      000000C8H   SFRSYM    DATA     BYTE      P5
      000000C0H   SFRSYM    DATA     BYTE      P4
      000000B0H   SFRSYM    DATA     BYTE      P3
      000000A0H   SFRSYM    DATA     BYTE      P2
      00000090H   SFRSYM    DATA     BYTE      P1
      00000080H   SFRSYM    DATA     BYTE      P0
      00011CC8H   SYMBOL    XDATA    DWORD     x
      00011CCCH   SYMBOL    XDATA    DWORD     i
      00011CD0H   SYMBOL    XDATA    ---       soft_spi_obj
      00011CD4H   SYMBOL    XDATA    BYTE      dat
      00011CD5H   SYMBOL    XDATA    BYTE      temp
      00011CD6H   SYMBOL    XDATA    BYTE      write_data
      00011CD7H   SYMBOL    XDATA    BYTE      read_data
      00011AB6H   SYMBOL    XDATA    ---       soft_spi_obj
      00011ABAH   SYMBOL    XDATA    WORD      dat
      00011ABCH   SYMBOL    XDATA    BYTE      temp
      00011ABDH   SYMBOL    XDATA    WORD      write_data
      00011ABFH   SYMBOL    XDATA    WORD      read_data
      00011EA8H   SYMBOL    XDATA    ---       soft_spi_obj
      00011EACH   SYMBOL    XDATA    BYTE      dat
      0001192CH   SYMBOL    XDATA    ---       soft_spi_obj
      00011930H   SYMBOL    XDATA    ---       dat
      00011934H   SYMBOL    XDATA    DWORD     len
      00011DE4H   SYMBOL    XDATA    ---       soft_spi_obj
      00011DE8H   SYMBOL    XDATA    WORD      dat
      00011938H   SYMBOL    XDATA    ---       soft_spi_obj
      0001193CH   SYMBOL    XDATA    ---       dat
      00011940H   SYMBOL    XDATA    DWORD     len
      00011DEAH   SYMBOL    XDATA    ---       soft_spi_obj
      00011DEEH   SYMBOL    XDATA    BYTE      register_name
      00011DEFH   SYMBOL    XDATA    BYTE      dat
      00011887H   SYMBOL    XDATA    ---       soft_spi_obj
      0001188BH   SYMBOL    XDATA    BYTE      register_name
      0001188CH   SYMBOL    XDATA    ---       dat
      00011890H   SYMBOL    XDATA    DWORD     len
      00011CD8H   SYMBOL    XDATA    ---       soft_spi_obj
      00011CDCH   SYMBOL    XDATA    WORD      register_name
      00011CDEH   SYMBOL    XDATA    WORD      dat
      000117D5H   SYMBOL    XDATA    ---       soft_spi_obj
      000117D9H   SYMBOL    XDATA    WORD      register_name
      000117DBH   SYMBOL    XDATA    ---       dat
      000117DFH   SYMBOL    XDATA    DWORD     len
      00011EADH   SYMBOL    XDATA    ---       soft_spi_obj
L251 LINKER/LOCATER V4.66.93.0                                                        04/19/2026  22:06:36  PAGE 78


      00011EB1H   SYMBOL    XDATA    BYTE      dat
      00011944H   SYMBOL    XDATA    ---       soft_spi_obj
      00011948H   SYMBOL    XDATA    ---       dat
      0001194CH   SYMBOL    XDATA    DWORD     len
      00011EB2H   SYMBOL    XDATA    ---       soft_spi_obj
      00011EB6H   SYMBOL    XDATA    BYTE      dat
      00011950H   SYMBOL    XDATA    ---       soft_spi_obj
      00011954H   SYMBOL    XDATA    ---       dat
      00011958H   SYMBOL    XDATA    DWORD     len
      00011DF0H   SYMBOL    XDATA    ---       soft_spi_obj
      00011DF4H   SYMBOL    XDATA    BYTE      register_name
      00011DF5H   SYMBOL    XDATA    BYTE      dat
      00011894H   SYMBOL    XDATA    ---       soft_spi_obj
      00011898H   SYMBOL    XDATA    BYTE      register_name
      00011899H   SYMBOL    XDATA    ---       dat
      0001189DH   SYMBOL    XDATA    DWORD     len
      00011CE0H   SYMBOL    XDATA    ---       soft_spi_obj
      00011CE4H   SYMBOL    XDATA    WORD      register_name
      00011CE6H   SYMBOL    XDATA    WORD      dat
      000117E3H   SYMBOL    XDATA    ---       soft_spi_obj
      000117E7H   SYMBOL    XDATA    WORD      register_name
      000117E9H   SYMBOL    XDATA    ---       dat
      000117EDH   SYMBOL    XDATA    DWORD     len
      000116D6H   SYMBOL    XDATA    ---       soft_spi_obj
      000116DAH   SYMBOL    XDATA    ---       write_buffer
      000116DEH   SYMBOL    XDATA    ---       read_buffer
      000116E2H   SYMBOL    XDATA    DWORD     len
      000116E6H   SYMBOL    XDATA    ---       soft_spi_obj
      000116EAH   SYMBOL    XDATA    ---       write_buffer
      000116EEH   SYMBOL    XDATA    ---       read_buffer
      000116F2H   SYMBOL    XDATA    DWORD     len
      000114A7H   SYMBOL    XDATA    ---       soft_spi_obj
      000114ABH   SYMBOL    XDATA    BYTE      mode
      000114ACH   SYMBOL    XDATA    DWORD     delay
      000114B0H   SYMBOL    XDATA    INT       sck_pin
      000114B2H   SYMBOL    XDATA    INT       mosi_pin
      000114B4H   SYMBOL    XDATA    DWORD     miso_pin
      000114B8H   SYMBOL    XDATA    DWORD     cs_pin

      ---         MODULE    ---      ---       zf_driver_spi
      00FF0066H   PUBLIC    CODE     ---       spi_write_8bit
      00FF4D81H   PUBLIC    CODE     ---       spi_init
      00FFA1DAH   PUBLIC    CODE     ---       spi_write_16bit
      00FF996BH   PUBLIC    CODE     ---       spi_read_dat
      00FF9B83H   PUBLIC    CODE     ---       spi_write_dat
      00011B16H   PUBLIC    XDATA    BYTE      ?spi_write_8bit_array?BYTE
      00011B20H   PUBLIC    XDATA    BYTE      ?spi_write_16bit_array?BYTE
      00011AC1H   PUBLIC    XDATA    BYTE      ?spi_write_8bit_registers?BYTE
      0001195CH   PUBLIC    XDATA    BYTE      ?spi_write_16bit_registers?BYTE
      00011B2AH   PUBLIC    XDATA    BYTE      ?spi_read_8bit_array?BYTE
      00011B34H   PUBLIC    XDATA    BYTE      ?spi_read_16bit_array?BYTE
      00011ACCH   PUBLIC    XDATA    BYTE      ?spi_read_8bit_registers?BYTE
      00011968H   PUBLIC    XDATA    BYTE      ?spi_read_16bit_registers?BYTE
      000117F1H   PUBLIC    XDATA    BYTE      ?spi_transfer_8bit?BYTE
      000117FFH   PUBLIC    XDATA    BYTE      ?spi_transfer_16bit?BYTE
      00011535H   PUBLIC    XDATA    BYTE      ?spi_init?BYTE
      000000CFH   SFRSYM    DATA     BYTE      SPDAT
      000000D0H   SFRSYM    DATA     BYTE      PSW
      0000009DH   SFRSYM    DATA     BYTE      IRCBAND
      00000097H   SFRSYM    DATA     BYTE      AUXR2
      000000EFH   SFRSYM    DATA     BYTE      AUXINTIF
      000000FDH   SFRSYM    DATA     BYTE      S4CON
      000000ACH   SFRSYM    DATA     BYTE      S3CON
      0000009AH   SFRSYM    DATA     BYTE      S2CON
      0000009BH   SFRSYM    DATA     BYTE      S2BUF
L251 LINKER/LOCATER V4.66.93.0                                                        04/19/2026  22:06:36  PAGE 79


      000000B7H   SFRSYM    DATA     BYTE      IPH
      000000CDH   SFRSYM    DATA     BYTE      SPSTAT
      000000DDH   SFRSYM    DATA     BYTE      T4T3M
      000000C1H   SFRSYM    DATA     BYTE      WDT_CONTR
      000000DFH   SFRSYM    DATA     BYTE      IP3
      000000F4H   SFRSYM    DATA     BYTE      USBCON
      000000B5H   SFRSYM    DATA     BYTE      IP2
      000000FFH   SFRSYM    DATA     BYTE      RSTCFG
      000000C7H   SFRSYM    DATA     BYTE      IAP_CONTR
      000000F9H   SFRSYM    DATA     BYTE      LINICR
      0000008EH   SFRSYM    DATA     BYTE      AUXR
      000000AFH   SFRSYM    DATA     BYTE      IE2
      00000088H   SFRSYM    DATA     BYTE      TCON
      00000089H   SFRSYM    DATA     BYTE      TMOD
      00000098H   SFRSYM    DATA     BYTE      SCON
      000000F1H   SFRSYM    DATA     BYTE      CANICR
      00000087H   SFRSYM    DATA     BYTE      PCON
      00000099H   SFRSYM    DATA     BYTE      SBUF
      000000BCH   SFRSYM    DATA     BYTE      ADC_CONTR
      000000E7H   SFRSYM    DATA     BYTE      CMPCR2
      000000E6H   SFRSYM    DATA     BYTE      CMPCR1
      0000009AH.1 SFRSYM    DATA     BIT       S2TI
      00000098H.1 SFRSYM    DATA     BIT       TI
      000000DEH   SFRSYM    DATA     BYTE      ADCCFG
      000000B8H   SFRSYM    DATA     BYTE      IP
      0000008FH   SFRSYM    DATA     BYTE      INTCLKO
      000000EEH   SFRSYM    DATA     BYTE      IP3H
      000000B6H   SFRSYM    DATA     BYTE      IP2H
      000000A8H   SFRSYM    DATA     BYTE      IE
      000000BBH   SFRSYM    DATA     BYTE      P_SW3
      000000BAH   SFRSYM    DATA     BYTE      P_SW2
      000000A2H   SFRSYM    DATA     BYTE      P_SW1
      000000CEH   SFRSYM    DATA     BYTE      SPCTL
      000000F8H   SFRSYM    DATA     BYTE      P7
      000000E8H   SFRSYM    DATA     BYTE      P6
      000000C8H   SFRSYM    DATA     BYTE      P5
      000000C0H   SFRSYM    DATA     BYTE      P4
      000000B0H   SFRSYM    DATA     BYTE      P3
      000000A0H   SFRSYM    DATA     BYTE      P2
      00000090H   SFRSYM    DATA     BYTE      P1
      00000080H   SFRSYM    DATA     BYTE      P0

      00FF9B83H   BLOCK     CODE     ---       LVL=0
      00011F83H   SYMBOL    XDATA    INT       spi_n
      00011F85H   SYMBOL    XDATA    BYTE      dat
      00FF9B83H   LINE      CODE     ---       #81
      00FF9B8DH   LINE      CODE     ---       #83
      00FF9B9FH   LINE      CODE     ---       #85
      00FF9B9FH   LINE      CODE     ---       #86
      00FF9BA3H   LINE      CODE     ---       #87
      00FF9BA9H   LINE      CODE     ---       #88
      00FF9BAEH   LINE      CODE     ---       #89
      00FF9BB0H   LINE      CODE     ---       #90
      00FF9BB0H   LINE      CODE     ---       #91
      00FF9BB3H   LINE      CODE     ---       #92
      00FF9BB9H   LINE      CODE     ---       #93
      00FF9BBCH   LINE      CODE     ---       #94
      00FF9BBEH   LINE      CODE     ---       #95
      00FF9BBEH   LINE      CODE     ---       #96
      00FF9BC2H   LINE      CODE     ---       #97
      00FF9BC8H   LINE      CODE     ---       #98
      00FF9BCCH   LINE      CODE     ---       #99
      00FF9BCEH   LINE      CODE     ---       #100
      00FF9BCEH   LINE      CODE     ---       #101
      00FF9BDEH   LINE      CODE     ---       #102
L251 LINKER/LOCATER V4.66.93.0                                                        04/19/2026  22:06:36  PAGE 80


      00FF9BDEH   LINE      CODE     ---       #103
      00FF9BDEH   LINE      CODE     ---       #104
      ---         BLOCKEND  ---      ---       LVL=0

      00FF996BH   BLOCK     CODE     ---       LVL=0
      00011F24H   SYMBOL    XDATA    INT       spi_n
      00011F26H   SYMBOL    XDATA    BYTE      dat
      00FF9975H   BLOCK     CODE     NEAR LAB  LVL=1
      00011F27H   SYMBOL    XDATA    BYTE      ret
      ---         BLOCKEND  ---      ---       LVL=1
      00FF996BH   LINE      CODE     ---       #107
      00FF9975H   LINE      CODE     ---       #108
      00FF9975H   LINE      CODE     ---       #109
      00FF997BH   LINE      CODE     ---       #110
      00FF998DH   LINE      CODE     ---       #112
      00FF998DH   LINE      CODE     ---       #113
      00FF9991H   LINE      CODE     ---       #114
      00FF9997H   LINE      CODE     ---       #115
      00FF999CH   LINE      CODE     ---       #116
      00FF99A2H   LINE      CODE     ---       #117
      00FF99A4H   LINE      CODE     ---       #118
      00FF99A4H   LINE      CODE     ---       #119
      00FF99A7H   LINE      CODE     ---       #120
      00FF99ADH   LINE      CODE     ---       #121
      00FF99B0H   LINE      CODE     ---       #122
      00FF99B6H   LINE      CODE     ---       #123
      00FF99B8H   LINE      CODE     ---       #124
      00FF99B8H   LINE      CODE     ---       #125
      00FF99BCH   LINE      CODE     ---       #126
      00FF99C2H   LINE      CODE     ---       #127
      00FF99C6H   LINE      CODE     ---       #128
      00FF99CCH   LINE      CODE     ---       #129
      00FF99CEH   LINE      CODE     ---       #130
      00FF99CEH   LINE      CODE     ---       #131
      00FF99DEH   LINE      CODE     ---       #132
      00FF99DEH   LINE      CODE     ---       #133
      00FF99DEH   LINE      CODE     ---       #135
      00FF99E2H   LINE      CODE     ---       #136
      ---         BLOCKEND  ---      ---       LVL=0

      00FF0066H   BLOCK     CODE     ---       LVL=0
      00011F86H   SYMBOL    XDATA    INT       spi_n
      00011F88H   SYMBOL    XDATA    BYTE      dat
      00FF0066H   LINE      CODE     ---       #147
      00FF0070H   LINE      CODE     ---       #149
      00FF007DH   LINE      CODE     ---       #150
      ---         BLOCKEND  ---      ---       LVL=0
      00011B16H   SYMBOL    XDATA    INT       spi_n
      00011B18H   SYMBOL    XDATA    ---       dat
      00011B1CH   SYMBOL    XDATA    DWORD     len

      00FFA1DAH   BLOCK     CODE     ---       LVL=0
      00011F28H   SYMBOL    XDATA    INT       spi_n
      00011F2AH   SYMBOL    XDATA    WORD      dat
      00FFA1DAH   LINE      CODE     ---       #175
      00FFA1E6H   LINE      CODE     ---       #177
      00FFA1FFH   LINE      CODE     ---       #178
      00FFA214H   LINE      CODE     ---       #179
      ---         BLOCKEND  ---      ---       LVL=0
      00011B20H   SYMBOL    XDATA    INT       spi_n
      00011B22H   SYMBOL    XDATA    ---       dat
      00011B26H   SYMBOL    XDATA    DWORD     len
      00011F2CH   SYMBOL    XDATA    INT       spi_n
      00011F2EH   SYMBOL    XDATA    BYTE      register_name
      00011F2FH   SYMBOL    XDATA    BYTE      dat
L251 LINKER/LOCATER V4.66.93.0                                                        04/19/2026  22:06:36  PAGE 81


      00011AC1H   SYMBOL    XDATA    INT       spi_n
      00011AC3H   SYMBOL    XDATA    BYTE      register_name
      00011AC4H   SYMBOL    XDATA    ---       dat
      00011AC8H   SYMBOL    XDATA    DWORD     len
      00011DF6H   SYMBOL    XDATA    INT       spi_n
      00011DF8H   SYMBOL    XDATA    WORD      register_name
      00011DFAH   SYMBOL    XDATA    WORD      dat
      0001195CH   SYMBOL    XDATA    INT       spi_n
      0001195EH   SYMBOL    XDATA    WORD      register_name
      00011960H   SYMBOL    XDATA    ---       dat
      00011FB2H   SYMBOL    XDATA    INT       spi_n
      00011B2AH   SYMBOL    XDATA    INT       spi_n
      00011B2CH   SYMBOL    XDATA    ---       dat
      00011B30H   SYMBOL    XDATA    DWORD     len
      00011F30H   SYMBOL    XDATA    INT       spi_n
      00011F32H   SYMBOL    XDATA    WORD      dat
      00011B34H   SYMBOL    XDATA    INT       spi_n
      00011B36H   SYMBOL    XDATA    ---       dat
      00011B3AH   SYMBOL    XDATA    DWORD     len
      00011F89H   SYMBOL    XDATA    INT       spi_n
      00011F8BH   SYMBOL    XDATA    BYTE      register_name
      00011ACCH   SYMBOL    XDATA    INT       spi_n
      00011ACEH   SYMBOL    XDATA    BYTE      register_name
      00011ACFH   SYMBOL    XDATA    ---       dat
      00011AD3H   SYMBOL    XDATA    DWORD     len
      00011DFCH   SYMBOL    XDATA    INT       spi_n
      00011DFEH   SYMBOL    XDATA    WORD      register_name
      00011E00H   SYMBOL    XDATA    WORD      dat
      00011968H   SYMBOL    XDATA    INT       spi_n
      0001196AH   SYMBOL    XDATA    WORD      register_name
      0001196CH   SYMBOL    XDATA    ---       dat
      00011970H   SYMBOL    XDATA    DWORD     len
      000117F1H   SYMBOL    XDATA    INT       spi_n
      000117F3H   SYMBOL    XDATA    ---       write_buffer
      000117F7H   SYMBOL    XDATA    ---       read_buffer
      000117FBH   SYMBOL    XDATA    DWORD     len
      000117FFH   SYMBOL    XDATA    INT       spi_n
      00011801H   SYMBOL    XDATA    ---       write_buffer
      00011805H   SYMBOL    XDATA    ---       read_buffer
      00011809H   SYMBOL    XDATA    DWORD     len

      00FF4D81H   BLOCK     CODE     ---       LVL=0
      00011535H   SYMBOL    XDATA    INT       spi_n
      00011537H   SYMBOL    XDATA    INT       mode
      00011539H   SYMBOL    XDATA    DWORD     baud
      0001153DH   SYMBOL    XDATA    INT       sck_pin
      0001153FH   SYMBOL    XDATA    INT       mosi_pin
      00011541H   SYMBOL    XDATA    INT       miso_pin
      00011543H   SYMBOL    XDATA    INT       cs_pin
      00FF4D97H   BLOCK     CODE     NEAR LAB  LVL=1
      00011545H   SYMBOL    XDATA    DWORD     spi_psc
      ---         BLOCKEND  ---      ---       LVL=1
      00FF4D81H   LINE      CODE     ---       #465
      00FF4D97H   LINE      CODE     ---       #466
      00FF4D97H   LINE      CODE     ---       #468
      00FF4DA3H   LINE      CODE     ---       #470
      00FF4DBFH   LINE      CODE     ---       #472
      00FF4DCFH   LINE      CODE     ---       #474
      00FF4DCFH   LINE      CODE     ---       #476
      00FF4DE8H   LINE      CODE     ---       #477
      00FF4E01H   LINE      CODE     ---       #479
      00FF4E0FH   LINE      CODE     ---       #481
      00FF4E24H   LINE      CODE     ---       #482
      00FF4E24H   LINE      CODE     ---       #484
      00FF4E32H   LINE      CODE     ---       #486
L251 LINKER/LOCATER V4.66.93.0                                                        04/19/2026  22:06:36  PAGE 82


      00FF4E4AH   LINE      CODE     ---       #487
      00FF4E4AH   LINE      CODE     ---       #490
      00FF4E5AH   LINE      CODE     ---       #492
      00FF4E6BH   LINE      CODE     ---       #493
      00FF4E7CH   LINE      CODE     ---       #494
      00FF4E8AH   LINE      CODE     ---       #496
      00FF4E9BH   LINE      CODE     ---       #497
      00FF4E9BH   LINE      CODE     ---       #498
      00FF4EA9H   LINE      CODE     ---       #500
      00FF4EBAH   LINE      CODE     ---       #501
      00FF4EBAH   LINE      CODE     ---       #504
      00FF4EC9H   LINE      CODE     ---       #506
      00FF4ECCH   LINE      CODE     ---       #508
      00FF4EEEH   LINE      CODE     ---       #510
      00FF4EEEH   LINE      CODE     ---       #511
      00FF4EF2H   LINE      CODE     ---       #512
      00FF4EF4H   LINE      CODE     ---       #514
      00FF4EF4H   LINE      CODE     ---       #515
      00FF4EF7H   LINE      CODE     ---       #516
      00FF4EF9H   LINE      CODE     ---       #518
      00FF4EF9H   LINE      CODE     ---       #519
      00FF4EFCH   LINE      CODE     ---       #520
      00FF4EFEH   LINE      CODE     ---       #522
      00FF4EFEH   LINE      CODE     ---       #523
      00FF4F01H   LINE      CODE     ---       #524
      00FF4F01H   LINE      CODE     ---       #525
      00FF4F01H   LINE      CODE     ---       #527
      00FF4F04H   LINE      CODE     ---       #528
      00FF4F07H   LINE      CODE     ---       #529
      00FF4F0AH   LINE      CODE     ---       #532
      00FF4F2BH   LINE      CODE     ---       #534
      00FF4F2EH   LINE      CODE     ---       #536
      00FF4F3EH   LINE      CODE     ---       #538
      00FF4F41H   LINE      CODE     ---       #539
      00FF4F43H   LINE      CODE     ---       #540
      00FF4F53H   LINE      CODE     ---       #542
      00FF4F56H   LINE      CODE     ---       #543
      00FF4F58H   LINE      CODE     ---       #544
      00FF4F68H   LINE      CODE     ---       #546
      00FF4F6CH   LINE      CODE     ---       #547
      00FF4F6EH   LINE      CODE     ---       #550
      00FF4F71H   LINE      CODE     ---       #551
      00FF4F71H   LINE      CODE     ---       #554
      00FF4F85H   LINE      CODE     ---       #556
      00FF4F85H   LINE      CODE     ---       #557
      00FF4F87H   LINE      CODE     ---       #559
      00FF4F87H   LINE      CODE     ---       #560
      00FF4F8AH   LINE      CODE     ---       #561
      00FF4F8CH   LINE      CODE     ---       #563
      00FF4F8CH   LINE      CODE     ---       #564
      00FF4F8FH   LINE      CODE     ---       #565
      00FF4F91H   LINE      CODE     ---       #567
      00FF4F91H   LINE      CODE     ---       #568
      00FF4F94H   LINE      CODE     ---       #569
      00FF4F94H   LINE      CODE     ---       #570
      00FF4F94H   LINE      CODE     ---       #572
      00FF4F97H   LINE      CODE     ---       #573
      00FF4F9AH   LINE      CODE     ---       #574
      00FF4FABH   LINE      CODE     ---       #583
      00FF4FC3H   LINE      CODE     ---       #586
      00FF4FC6H   LINE      CODE     ---       #588
      00FF4FE8H   LINE      CODE     ---       #590
      00FF4FE8H   LINE      CODE     ---       #591
      00FF4FECH   LINE      CODE     ---       #592
      00FF4FEEH   LINE      CODE     ---       #594
L251 LINKER/LOCATER V4.66.93.0                                                        04/19/2026  22:06:36  PAGE 83


      00FF4FEEH   LINE      CODE     ---       #595
      00FF4FF1H   LINE      CODE     ---       #596
      00FF4FF3H   LINE      CODE     ---       #598
      00FF4FF3H   LINE      CODE     ---       #599
      00FF4FF6H   LINE      CODE     ---       #600
      00FF4FF8H   LINE      CODE     ---       #602
      00FF4FF8H   LINE      CODE     ---       #603
      00FF4FFBH   LINE      CODE     ---       #604
      00FF4FFBH   LINE      CODE     ---       #605
      00FF4FFBH   LINE      CODE     ---       #607
      00FF4FFFH   LINE      CODE     ---       #608
      00FF500CH   LINE      CODE     ---       #612
      00FF502DH   LINE      CODE     ---       #616
      00FF503DH   LINE      CODE     ---       #618
      00FF504FH   LINE      CODE     ---       #619
      00FF5051H   LINE      CODE     ---       #620
      00FF5061H   LINE      CODE     ---       #622
      00FF5073H   LINE      CODE     ---       #623
      00FF5075H   LINE      CODE     ---       #626
      00FF5083H   LINE      CODE     ---       #627
      00FF5083H   LINE      CODE     ---       #635
      00FF509BH   LINE      CODE     ---       #637
      00FF509BH   LINE      CODE     ---       #638
      00FF50A9H   LINE      CODE     ---       #639
      00FF50ABH   LINE      CODE     ---       #641
      00FF50ABH   LINE      CODE     ---       #642
      00FF50BDH   LINE      CODE     ---       #643
      00FF50BFH   LINE      CODE     ---       #645
      00FF50BFH   LINE      CODE     ---       #646
      00FF50D1H   LINE      CODE     ---       #647
      00FF50D3H   LINE      CODE     ---       #649
      00FF50D3H   LINE      CODE     ---       #650
      00FF50E5H   LINE      CODE     ---       #651
      00FF50E5H   LINE      CODE     ---       #652
      00FF50E5H   LINE      CODE     ---       #654
      00FF50F7H   LINE      CODE     ---       #655
      00FF50FAH   LINE      CODE     ---       #656
      00FF510BH   LINE      CODE     ---       #665
      00FF5125H   LINE      CODE     ---       #667
      00FF5128H   LINE      CODE     ---       #669
      00FF514AH   LINE      CODE     ---       #671
      00FF514AH   LINE      CODE     ---       #672
      00FF514EH   LINE      CODE     ---       #673
      00FF5150H   LINE      CODE     ---       #675
      00FF5150H   LINE      CODE     ---       #676
      00FF5153H   LINE      CODE     ---       #677
      00FF5155H   LINE      CODE     ---       #679
      00FF5155H   LINE      CODE     ---       #680
      00FF5158H   LINE      CODE     ---       #681
      00FF515AH   LINE      CODE     ---       #683
      00FF515AH   LINE      CODE     ---       #684
      00FF515DH   LINE      CODE     ---       #685
      00FF515DH   LINE      CODE     ---       #686
      00FF515DH   LINE      CODE     ---       #688
      00FF5161H   LINE      CODE     ---       #689
      00FF516EH   LINE      CODE     ---       #693
      00FF518FH   LINE      CODE     ---       #695
      00FF519FH   LINE      CODE     ---       #697
      00FF51B1H   LINE      CODE     ---       #698
      00FF51B3H   LINE      CODE     ---       #699
      00FF51C3H   LINE      CODE     ---       #701
      00FF51D5H   LINE      CODE     ---       #702
      00FF51D7H   LINE      CODE     ---       #705
      00FF51E5H   LINE      CODE     ---       #706
      00FF51E5H   LINE      CODE     ---       #714
L251 LINKER/LOCATER V4.66.93.0                                                        04/19/2026  22:06:36  PAGE 84


      00FF51FDH   LINE      CODE     ---       #716
      00FF51FDH   LINE      CODE     ---       #717
      00FF520BH   LINE      CODE     ---       #718
      00FF520DH   LINE      CODE     ---       #720
      00FF520DH   LINE      CODE     ---       #721
      00FF521FH   LINE      CODE     ---       #722
      00FF5221H   LINE      CODE     ---       #724
      00FF5221H   LINE      CODE     ---       #725
      00FF5233H   LINE      CODE     ---       #726
      00FF5235H   LINE      CODE     ---       #728
      00FF5235H   LINE      CODE     ---       #729
      00FF5247H   LINE      CODE     ---       #730
      00FF5247H   LINE      CODE     ---       #731
      00FF5247H   LINE      CODE     ---       #733
      00FF5259H   LINE      CODE     ---       #734
      ---         BLOCKEND  ---      ---       LVL=0

      ---         MODULE    ---      ---       zf_driver_timer
      00FF96F2H   PUBLIC    CODE     ---       timer_funciton_check
      000000D0H   SFRSYM    DATA     BYTE      PSW
      0000009DH   SFRSYM    DATA     BYTE      IRCBAND
      00000097H   SFRSYM    DATA     BYTE      AUXR2
      000000EFH   SFRSYM    DATA     BYTE      AUXINTIF
      000000FDH   SFRSYM    DATA     BYTE      S4CON
      000000ACH   SFRSYM    DATA     BYTE      S3CON
      0000009AH   SFRSYM    DATA     BYTE      S2CON
      000000B7H   SFRSYM    DATA     BYTE      IPH
      000000CDH   SFRSYM    DATA     BYTE      SPSTAT
      000000DDH   SFRSYM    DATA     BYTE      T4T3M
      000000C1H   SFRSYM    DATA     BYTE      WDT_CONTR
      000000DFH   SFRSYM    DATA     BYTE      IP3
      000000F4H   SFRSYM    DATA     BYTE      USBCON
      000000B5H   SFRSYM    DATA     BYTE      IP2
      000000FFH   SFRSYM    DATA     BYTE      RSTCFG
      000000C7H   SFRSYM    DATA     BYTE      IAP_CONTR
      000000F9H   SFRSYM    DATA     BYTE      LINICR
      0000008EH   SFRSYM    DATA     BYTE      AUXR
      000000AFH   SFRSYM    DATA     BYTE      IE2
      00000088H   SFRSYM    DATA     BYTE      TCON
      00000089H   SFRSYM    DATA     BYTE      TMOD
      00000098H   SFRSYM    DATA     BYTE      SCON
      000000F1H   SFRSYM    DATA     BYTE      CANICR
      00000087H   SFRSYM    DATA     BYTE      PCON
      000000BCH   SFRSYM    DATA     BYTE      ADC_CONTR
      000000E7H   SFRSYM    DATA     BYTE      CMPCR2
      000000E6H   SFRSYM    DATA     BYTE      CMPCR1
      000000DEH   SFRSYM    DATA     BYTE      ADCCFG
      000000B8H   SFRSYM    DATA     BYTE      IP
      0000008FH   SFRSYM    DATA     BYTE      INTCLKO
      000000EEH   SFRSYM    DATA     BYTE      IP3H
      000000B6H   SFRSYM    DATA     BYTE      IP2H
      000000A8H   SFRSYM    DATA     BYTE      IE
      000000BBH   SFRSYM    DATA     BYTE      P_SW3
      000000BAH   SFRSYM    DATA     BYTE      P_SW2
      000000A2H   SFRSYM    DATA     BYTE      P_SW1
      000000CEH   SFRSYM    DATA     BYTE      SPCTL
      000000F8H   SFRSYM    DATA     BYTE      P7
      000000E8H   SFRSYM    DATA     BYTE      P6
      000000C8H   SFRSYM    DATA     BYTE      P5
      000000C0H   SFRSYM    DATA     BYTE      P4
      000000B0H   SFRSYM    DATA     BYTE      P3
      000000A0H   SFRSYM    DATA     BYTE      P2
      00000090H   SFRSYM    DATA     BYTE      P1
      00000080H   SFRSYM    DATA     BYTE      P0
      00011974H   SYMBOL    XDATA    ---       timer_function_state
L251 LINKER/LOCATER V4.66.93.0                                                        04/19/2026  22:06:36  PAGE 85



      00FF96F2H   BLOCK     CODE     ---       LVL=0
      00011EB7H   SYMBOL    XDATA    INT       index
      00011EB9H   SYMBOL    XDATA    INT       mode
      00FF96FEH   BLOCK     CODE     NEAR LAB  LVL=1
      00011EBBH   SYMBOL    XDATA    BYTE      return_state
      ---         BLOCKEND  ---      ---       LVL=1
      00FF96F2H   LINE      CODE     ---       #58
      00FF96FEH   LINE      CODE     ---       #59
      00FF96FEH   LINE      CODE     ---       #60
      00FF9704H   LINE      CODE     ---       #61
      00FF9721H   LINE      CODE     ---       #63
      00FF973EH   LINE      CODE     ---       #64
      00FF9740H   LINE      CODE     ---       #65
      00FF9761H   LINE      CODE     ---       #67
      00FF9767H   LINE      CODE     ---       #68
      00FF9769H   LINE      CODE     ---       #71
      00FF976EH   LINE      CODE     ---       #72
      00FF976EH   LINE      CODE     ---       #73
      00FF9772H   LINE      CODE     ---       #74
      ---         BLOCKEND  ---      ---       LVL=0

      ---         MODULE    ---      ---       zf_driver_uart
      00FF8C84H   PUBLIC    CODE     ---       uart_rx_start_buff
      00FF6EEAH   PUBLIC    CODE     ---       uart_write_buffer
      00FF5945H   PUBLIC    CODE     ---       uart_init
      00FF9A53H   PUBLIC    CODE     ---       uart_rx_interrupt
      00FFA477H   PUBLIC    CODE     ---       uart_write_byte
      00FF741DH   PUBLIC    CODE     ---       uart_dma_init
      00FF9773H   PUBLIC    CODE     ---       uart_funciton_check
      00FF91F4H   PUBLIC    CODE     ---       uart_query_byte
      00011988H   PUBLIC    XDATA    ---       uart_rx_buff
      0001198CH   PUBLIC    XDATA    BYTE      ?uart_init?BYTE
      000000D0H   SFRSYM    DATA     BYTE      PSW
      0000009DH   SFRSYM    DATA     BYTE      IRCBAND
      00000097H   SFRSYM    DATA     BYTE      AUXR2
      000000EFH   SFRSYM    DATA     BYTE      AUXINTIF
      000000FDH   SFRSYM    DATA     BYTE      S4CON
      000000ACH   SFRSYM    DATA     BYTE      S3CON
      0000009AH   SFRSYM    DATA     BYTE      S2CON
      000000B7H   SFRSYM    DATA     BYTE      IPH
      000000CDH   SFRSYM    DATA     BYTE      SPSTAT
      000000DDH   SFRSYM    DATA     BYTE      T4T3M
      000000C1H   SFRSYM    DATA     BYTE      WDT_CONTR
      00000088H.6 SFRSYM    DATA     BIT       TR1
      000000D7H   SFRSYM    DATA     BYTE      T2L
      000000D6H   SFRSYM    DATA     BYTE      T2H
      000000DFH   SFRSYM    DATA     BYTE      IP3
      000000F4H   SFRSYM    DATA     BYTE      USBCON
      000000B5H   SFRSYM    DATA     BYTE      IP2
      000000FFH   SFRSYM    DATA     BYTE      RSTCFG
      000000C7H   SFRSYM    DATA     BYTE      IAP_CONTR
      000000F9H   SFRSYM    DATA     BYTE      LINICR
      0000008EH   SFRSYM    DATA     BYTE      AUXR
      000000AFH   SFRSYM    DATA     BYTE      IE2
      00000088H   SFRSYM    DATA     BYTE      TCON
      00000089H   SFRSYM    DATA     BYTE      TMOD
      00000098H   SFRSYM    DATA     BYTE      SCON
      000000F1H   SFRSYM    DATA     BYTE      CANICR
      00000087H   SFRSYM    DATA     BYTE      PCON
      000000BCH   SFRSYM    DATA     BYTE      ADC_CONTR
      000000E7H   SFRSYM    DATA     BYTE      CMPCR2
      000000E6H   SFRSYM    DATA     BYTE      CMPCR1
      000000DEH   SFRSYM    DATA     BYTE      ADCCFG
      000000B8H   SFRSYM    DATA     BYTE      IP
L251 LINKER/LOCATER V4.66.93.0                                                        04/19/2026  22:06:36  PAGE 86


      0000008FH   SFRSYM    DATA     BYTE      INTCLKO
      000000EEH   SFRSYM    DATA     BYTE      IP3H
      000000B6H   SFRSYM    DATA     BYTE      IP2H
      000000A8H   SFRSYM    DATA     BYTE      IE
      000000BBH   SFRSYM    DATA     BYTE      P_SW3
      000000BAH   SFRSYM    DATA     BYTE      P_SW2
      000000A2H   SFRSYM    DATA     BYTE      P_SW1
      000000CEH   SFRSYM    DATA     BYTE      SPCTL
      000000F8H   SFRSYM    DATA     BYTE      P7
      000000E8H   SFRSYM    DATA     BYTE      P6
      000000C8H   SFRSYM    DATA     BYTE      P5
      000000C0H   SFRSYM    DATA     BYTE      P4
      000000B0H   SFRSYM    DATA     BYTE      P3
      000000A0H   SFRSYM    DATA     BYTE      P2
      00000090H   SFRSYM    DATA     BYTE      P1
      00000080H   SFRSYM    DATA     BYTE      P0
      00FFB220H   SYMBOL    HCONST   ---       ?tpl?0001
      00011980H   SYMBOL    XDATA    ---       uart_function_state

      00FF9773H   BLOCK     CODE     ---       LVL=0
      00011EBCH   SYMBOL    XDATA    INT       index
      00011EBEH   SYMBOL    XDATA    INT       mode
      00FF977FH   BLOCK     CODE     NEAR LAB  LVL=1
      00011EC0H   SYMBOL    XDATA    BYTE      return_state
      ---         BLOCKEND  ---      ---       LVL=1
      00FF9773H   LINE      CODE     ---       #86
      00FF977FH   LINE      CODE     ---       #87
      00FF977FH   LINE      CODE     ---       #88
      00FF9785H   LINE      CODE     ---       #89
      00FF97A2H   LINE      CODE     ---       #91
      00FF97BFH   LINE      CODE     ---       #92
      00FF97C1H   LINE      CODE     ---       #93
      00FF97E2H   LINE      CODE     ---       #95
      00FF97E8H   LINE      CODE     ---       #96
      00FF97EAH   LINE      CODE     ---       #99
      00FF97EFH   LINE      CODE     ---       #100
      00FF97EFH   LINE      CODE     ---       #101
      00FF97F3H   LINE      CODE     ---       #102
      ---         BLOCKEND  ---      ---       LVL=0

      00FF6EEAH   BLOCK     CODE     ---       LVL=0
      00010E7AH   SYMBOL    XDATA    INT       uart_n
      00010E7CH   SYMBOL    XDATA    ---       buff
      00010E80H   SYMBOL    XDATA    WORD      len
      00FF6F00H   BLOCK     CODE     NEAR LAB  LVL=1
      00010E82H   SYMBOL    XDATA    ---       tmp_buff
      00010EC2H   SYMBOL    XDATA    WORD      tmp_len
      ---         BLOCKEND  ---      ---       LVL=1
      00FF6EEAH   LINE      CODE     ---       #111
      00FF6F00H   LINE      CODE     ---       #112
      00FF6F00H   LINE      CODE     ---       #116
      00FF6F15H   LINE      CODE     ---       #117
      00FF6F1DH   LINE      CODE     ---       #118
      00FF6F20H   LINE      CODE     ---       #120
      00FF6F40H   LINE      CODE     ---       #121
      00FF6F5FH   LINE      CODE     ---       #122
      00FF6F70H   LINE      CODE     ---       #123
      00FF6F89H   LINE      CODE     ---       #126
      00FF6FA9H   LINE      CODE     ---       #128
      00FF6FD5H   LINE      CODE     ---       #129
      00FF7002H   LINE      CODE     ---       #130
      00FF702AH   LINE      CODE     ---       #131
      00FF704EH   LINE      CODE     ---       #132
      00FF706FH   LINE      CODE     ---       #134
      00FF7090H   LINE      CODE     ---       #136
L251 LINKER/LOCATER V4.66.93.0                                                        04/19/2026  22:06:36  PAGE 87


      00FF70B0H   LINE      CODE     ---       #137
      00FF70BFH   LINE      CODE     ---       #138
      ---         BLOCKEND  ---      ---       LVL=0
      00011CE8H   SYMBOL    XDATA    INT       uart_n
      00011CEAH   SYMBOL    XDATA    ---       str
      00011CEEH   SYMBOL    XDATA    WORD      len

      00FFA477H   BLOCK     CODE     ---       LVL=0
      00011F8CH   SYMBOL    XDATA    INT       uart_n
      00011F8EH   SYMBOL    XDATA    BYTE      dat
      00FFA477H   LINE      CODE     ---       #159
      00FFA481H   LINE      CODE     ---       #161
      00FFA496H   LINE      CODE     ---       #162
      ---         BLOCKEND  ---      ---       LVL=0

      00FF8C84H   BLOCK     CODE     ---       LVL=0
      00011FB4H   SYMBOL    XDATA    INT       uart_n
      00FF8C84H   LINE      CODE     ---       #170
      00FF8C8AH   LINE      CODE     ---       #172
      00FF8CAAH   LINE      CODE     ---       #173
      00FF8CC8H   LINE      CODE     ---       #174
      00FF8CF4H   LINE      CODE     ---       #175
      00FF8D24H   LINE      CODE     ---       #176
      00FF8D45H   LINE      CODE     ---       #177
      ---         BLOCKEND  ---      ---       LVL=0

      00FF9A53H   BLOCK     CODE     ---       LVL=0
      00011F8FH   SYMBOL    XDATA    INT       uart_n
      00011F91H   SYMBOL    XDATA    BYTE      status
      00FF9A53H   LINE      CODE     ---       #186
      00FF9A5DH   LINE      CODE     ---       #188
      00FF9A66H   LINE      CODE     ---       #190
      00FF9A8EH   LINE      CODE     ---       #191
      00FF9A90H   LINE      CODE     ---       #194
      00FF9AB8H   LINE      CODE     ---       #195
      00FF9AB8H   LINE      CODE     ---       #196
      ---         BLOCKEND  ---      ---       LVL=0
      00011F92H   SYMBOL    XDATA    INT       uart_n
      00011F94H   SYMBOL    XDATA    BYTE      dat

      00FF91F4H   BLOCK     CODE     ---       LVL=0
      00011D86H   SYMBOL    XDATA    INT       uart_n
      00011D88H   SYMBOL    XDATA    ---       dat
      00FF9204H   BLOCK     CODE     NEAR LAB  LVL=1
      00011D8CH   SYMBOL    XDATA    BYTE      ret
      ---         BLOCKEND  ---      ---       LVL=1
      00FF91F4H   LINE      CODE     ---       #230
      00FF9204H   LINE      CODE     ---       #231
      00FF9204H   LINE      CODE     ---       #232
      00FF9209H   LINE      CODE     ---       #235
      00FF9229H   LINE      CODE     ---       #237
      00FF9250H   LINE      CODE     ---       #239
      00FF9256H   LINE      CODE     ---       #241
      00FF927EH   LINE      CODE     ---       #242
      00FF9280H   LINE      CODE     ---       #245
      00FF9285H   LINE      CODE     ---       #246
      00FF9285H   LINE      CODE     ---       #249
      00FF928EH   LINE      CODE     ---       #251
      00FF9292H   LINE      CODE     ---       #252
      ---         BLOCKEND  ---      ---       LVL=0

      00FF741DH   BLOCK     CODE     ---       LVL=0
      00011FB6H   SYMBOL    XDATA    INT       uart_n
      00FF741DH   LINE      CODE     ---       #260
      00FF7423H   LINE      CODE     ---       #262
L251 LINKER/LOCATER V4.66.93.0                                                        04/19/2026  22:06:36  PAGE 88


      00FF7443H   LINE      CODE     ---       #263
      00FF7463H   LINE      CODE     ---       #264
      00FF7483H   LINE      CODE     ---       #266
      00FF74A3H   LINE      CODE     ---       #267
      00FF74C3H   LINE      CODE     ---       #268
      00FF74E3H   LINE      CODE     ---       #270
      00FF7503H   LINE      CODE     ---       #271
      00FF7521H   LINE      CODE     ---       #272
      00FF754DH   LINE      CODE     ---       #273
      00FF757DH   LINE      CODE     ---       #274
      00FF759EH   LINE      CODE     ---       #275
      00FF75BFH   LINE      CODE     ---       #277
      ---         BLOCKEND  ---      ---       LVL=0

      00FF5945H   BLOCK     CODE     ---       LVL=0
      0001198CH   SYMBOL    XDATA    INT       uart_n
      0001198EH   SYMBOL    XDATA    DWORD     baud
      00011992H   SYMBOL    XDATA    INT       tx_pin
      00011994H   SYMBOL    XDATA    INT       rx_pin
      00FF595BH   BLOCK     CODE     NEAR LAB  LVL=1
      00011996H   SYMBOL    XDATA    WORD      brt
      ---         BLOCKEND  ---      ---       LVL=1
      00FF5945H   LINE      CODE     ---       #289
      00FF595BH   LINE      CODE     ---       #290
      00FF595BH   LINE      CODE     ---       #299
      00FF5977H   LINE      CODE     ---       #306
      00FF5991H   LINE      CODE     ---       #311
      00FF59C7H   LINE      CODE     ---       #314
      00FF59E0H   LINE      CODE     ---       #315
      00FF59F7H   LINE      CODE     ---       #317
      00FF5A32H   LINE      CODE     ---       #319
      00FF5A56H   LINE      CODE     ---       #321
      00FF5A56H   LINE      CODE     ---       #335
      00FF5A59H   LINE      CODE     ---       #336
      00FF5A61H   LINE      CODE     ---       #337
      00FF5A6DH   LINE      CODE     ---       #338
      00FF5A70H   LINE      CODE     ---       #339
      00FF5A73H   LINE      CODE     ---       #342
      00FF5A76H   LINE      CODE     ---       #344
      00FF5A92H   LINE      CODE     ---       #346
      00FF5A96H   LINE      CODE     ---       #347
      00FF5A99H   LINE      CODE     ---       #348
      00FF5AB5H   LINE      CODE     ---       #350
      00FF5AB8H   LINE      CODE     ---       #351
      00FF5ABBH   LINE      CODE     ---       #352
      00FF5AD7H   LINE      CODE     ---       #354
      00FF5ADAH   LINE      CODE     ---       #355
      00FF5ADDH   LINE      CODE     ---       #356
      00FF5AFFH   LINE      CODE     ---       #358
      00FF5B02H   LINE      CODE     ---       #359
      00FF5B02H   LINE      CODE     ---       #362
      00FF5B05H   LINE      CODE     ---       #365
      00FF5B05H   LINE      CODE     ---       #369
      00FF5B08H   LINE      CODE     ---       #370
      00FF5B10H   LINE      CODE     ---       #371
      00FF5B1CH   LINE      CODE     ---       #372
      00FF5B1FH   LINE      CODE     ---       #375
      00FF5B22H   LINE      CODE     ---       #377
      00FF5B3EH   LINE      CODE     ---       #379
      00FF5B42H   LINE      CODE     ---       #380
      00FF5B45H   LINE      CODE     ---       #381
      00FF5B67H   LINE      CODE     ---       #383
      00FF5B6AH   LINE      CODE     ---       #384
      00FF5B6AH   LINE      CODE     ---       #388
      00FF5B6DH   LINE      CODE     ---       #391
L251 LINKER/LOCATER V4.66.93.0                                                        04/19/2026  22:06:36  PAGE 89


      00FF5B6DH   LINE      CODE     ---       #395
      00FF5B70H   LINE      CODE     ---       #396
      00FF5B78H   LINE      CODE     ---       #397
      00FF5B84H   LINE      CODE     ---       #398
      00FF5B87H   LINE      CODE     ---       #408
      00FF5B8AH   LINE      CODE     ---       #410
      00FF5BA6H   LINE      CODE     ---       #412
      00FF5BAAH   LINE      CODE     ---       #413
      00FF5BADH   LINE      CODE     ---       #414
      00FF5BC9H   LINE      CODE     ---       #416
      00FF5BCCH   LINE      CODE     ---       #417
      00FF5BCCH   LINE      CODE     ---       #421
      00FF5BCEH   LINE      CODE     ---       #424
      00FF5BCEH   LINE      CODE     ---       #428
      00FF5BD1H   LINE      CODE     ---       #429
      00FF5BD9H   LINE      CODE     ---       #430
      00FF5BE5H   LINE      CODE     ---       #431
      00FF5BE8H   LINE      CODE     ---       #441
      00FF5BEBH   LINE      CODE     ---       #443
      00FF5C07H   LINE      CODE     ---       #445
      00FF5C0BH   LINE      CODE     ---       #446
      00FF5C0DH   LINE      CODE     ---       #447
      00FF5C29H   LINE      CODE     ---       #451
      00FF5C2CH   LINE      CODE     ---       #452
      00FF5C2CH   LINE      CODE     ---       #456
      00FF5C2CH   LINE      CODE     ---       #459
      00FF5C2CH   LINE      CODE     ---       #462
      00FF5C35H   LINE      CODE     ---       #464
      ---         BLOCKEND  ---      ---       LVL=0

      ---         MODULE    ---      ---       eeprom
      00011FB8H   PUBLIC    XDATA    ---       init_buff
      00011B3EH   PUBLIC    XDATA    BYTE      ?eeprom_read?BYTE
      000000D0H   SFRSYM    DATA     BYTE      PSW
      0000009DH   SFRSYM    DATA     BYTE      IRCBAND
      00000097H   SFRSYM    DATA     BYTE      AUXR2
      000000EFH   SFRSYM    DATA     BYTE      AUXINTIF
      000000FDH   SFRSYM    DATA     BYTE      S4CON
      000000ACH   SFRSYM    DATA     BYTE      S3CON
      0000009AH   SFRSYM    DATA     BYTE      S2CON
      000000B7H   SFRSYM    DATA     BYTE      IPH
      000000CDH   SFRSYM    DATA     BYTE      SPSTAT
      000000DDH   SFRSYM    DATA     BYTE      T4T3M
      000000C1H   SFRSYM    DATA     BYTE      WDT_CONTR
      000000DFH   SFRSYM    DATA     BYTE      IP3
      000000F4H   SFRSYM    DATA     BYTE      USBCON
      000000B5H   SFRSYM    DATA     BYTE      IP2
      000000FFH   SFRSYM    DATA     BYTE      RSTCFG
      000000C7H   SFRSYM    DATA     BYTE      IAP_CONTR
      000000F9H   SFRSYM    DATA     BYTE      LINICR
      0000008EH   SFRSYM    DATA     BYTE      AUXR
      000000AFH   SFRSYM    DATA     BYTE      IE2
      00000088H   SFRSYM    DATA     BYTE      TCON
      00000089H   SFRSYM    DATA     BYTE      TMOD
      00000098H   SFRSYM    DATA     BYTE      SCON
      000000F1H   SFRSYM    DATA     BYTE      CANICR
      00000087H   SFRSYM    DATA     BYTE      PCON
      000000BCH   SFRSYM    DATA     BYTE      ADC_CONTR
      000000E7H   SFRSYM    DATA     BYTE      CMPCR2
      000000E6H   SFRSYM    DATA     BYTE      CMPCR1
      000000DEH   SFRSYM    DATA     BYTE      ADCCFG
      000000B8H   SFRSYM    DATA     BYTE      IP
      0000008FH   SFRSYM    DATA     BYTE      INTCLKO
      000000EEH   SFRSYM    DATA     BYTE      IP3H
      000000B6H   SFRSYM    DATA     BYTE      IP2H
L251 LINKER/LOCATER V4.66.93.0                                                        04/19/2026  22:06:36  PAGE 90


      000000A8H   SFRSYM    DATA     BYTE      IE
      000000BBH   SFRSYM    DATA     BYTE      P_SW3
      000000BAH   SFRSYM    DATA     BYTE      P_SW2
      000000A2H   SFRSYM    DATA     BYTE      P_SW1
      000000CEH   SFRSYM    DATA     BYTE      SPCTL
      000000F8H   SFRSYM    DATA     BYTE      P7
      000000E8H   SFRSYM    DATA     BYTE      P6
      000000C8H   SFRSYM    DATA     BYTE      P5
      000000C0H   SFRSYM    DATA     BYTE      P4
      000000B0H   SFRSYM    DATA     BYTE      P3
      000000A0H   SFRSYM    DATA     BYTE      P2
      00000090H   SFRSYM    DATA     BYTE      P1
      00000080H   SFRSYM    DATA     BYTE      P0
      00011B3EH   SYMBOL    XDATA    DWORD     addr
      00011B42H   SYMBOL    XDATA    ---       buf
      00011B46H   SYMBOL    XDATA    WORD      len
      00011CF0H   SYMBOL    XDATA    DWORD     addr
      00011CF4H   SYMBOL    XDATA    WORD      max
      00011CF6H   SYMBOL    XDATA    WORD      min
      00011998H   SYMBOL    XDATA    DWORD     addr
      0001199CH   SYMBOL    XDATA    ---       buff
      000119A0H   SYMBOL    XDATA    ---       buf

      ---         MODULE    ---      ---       voltage_warning
      000000D0H   SFRSYM    DATA     BYTE      PSW
      0000009DH   SFRSYM    DATA     BYTE      IRCBAND
      00000097H   SFRSYM    DATA     BYTE      AUXR2
      000000EFH   SFRSYM    DATA     BYTE      AUXINTIF
      000000FDH   SFRSYM    DATA     BYTE      S4CON
      000000ACH   SFRSYM    DATA     BYTE      S3CON
      0000009AH   SFRSYM    DATA     BYTE      S2CON
      000000B7H   SFRSYM    DATA     BYTE      IPH
      000000CDH   SFRSYM    DATA     BYTE      SPSTAT
      000000DDH   SFRSYM    DATA     BYTE      T4T3M
      000000C1H   SFRSYM    DATA     BYTE      WDT_CONTR
      000000DFH   SFRSYM    DATA     BYTE      IP3
      000000F4H   SFRSYM    DATA     BYTE      USBCON
      000000B5H   SFRSYM    DATA     BYTE      IP2
      000000FFH   SFRSYM    DATA     BYTE      RSTCFG
      000000C7H   SFRSYM    DATA     BYTE      IAP_CONTR
      000000F9H   SFRSYM    DATA     BYTE      LINICR
      0000008EH   SFRSYM    DATA     BYTE      AUXR
      000000AFH   SFRSYM    DATA     BYTE      IE2
      00000088H   SFRSYM    DATA     BYTE      TCON
      00000089H   SFRSYM    DATA     BYTE      TMOD
      00000098H   SFRSYM    DATA     BYTE      SCON
      000000F1H   SFRSYM    DATA     BYTE      CANICR
      00000087H   SFRSYM    DATA     BYTE      PCON
      000000BCH   SFRSYM    DATA     BYTE      ADC_CONTR
      000000E7H   SFRSYM    DATA     BYTE      CMPCR2
      000000E6H   SFRSYM    DATA     BYTE      CMPCR1
      000000DEH   SFRSYM    DATA     BYTE      ADCCFG
      000000B8H   SFRSYM    DATA     BYTE      IP
      0000008FH   SFRSYM    DATA     BYTE      INTCLKO
      000000EEH   SFRSYM    DATA     BYTE      IP3H
      000000B6H   SFRSYM    DATA     BYTE      IP2H
      000000A8H   SFRSYM    DATA     BYTE      IE
      000000BBH   SFRSYM    DATA     BYTE      P_SW3
      000000BAH   SFRSYM    DATA     BYTE      P_SW2
      000000A2H   SFRSYM    DATA     BYTE      P_SW1
      000000CEH   SFRSYM    DATA     BYTE      SPCTL
      000000F8H   SFRSYM    DATA     BYTE      P7
      000000E8H   SFRSYM    DATA     BYTE      P6
      000000C8H   SFRSYM    DATA     BYTE      P5
      000000C0H   SFRSYM    DATA     BYTE      P4
L251 LINKER/LOCATER V4.66.93.0                                                        04/19/2026  22:06:36  PAGE 91


      000000B0H   SFRSYM    DATA     BYTE      P3
      000000A0H   SFRSYM    DATA     BYTE      P2
      00000090H   SFRSYM    DATA     BYTE      P1
      00000080H   SFRSYM    DATA     BYTE      P0
      00011F34H   SYMBOL    XDATA    INT       channel
      00011F36H   SYMBOL    XDATA    WORD      value

      ---         MODULE    ---      ---       zf_device_ble6a20
      000000D0H   SFRSYM    DATA     BYTE      PSW
      0000009DH   SFRSYM    DATA     BYTE      IRCBAND
      00000097H   SFRSYM    DATA     BYTE      AUXR2
      000000EFH   SFRSYM    DATA     BYTE      AUXINTIF
      000000FDH   SFRSYM    DATA     BYTE      S4CON
      000000ACH   SFRSYM    DATA     BYTE      S3CON
      0000009AH   SFRSYM    DATA     BYTE      S2CON
      000000B7H   SFRSYM    DATA     BYTE      IPH
      000000CDH   SFRSYM    DATA     BYTE      SPSTAT
      000000DDH   SFRSYM    DATA     BYTE      T4T3M
      000000C1H   SFRSYM    DATA     BYTE      WDT_CONTR
      000000DFH   SFRSYM    DATA     BYTE      IP3
      000000F4H   SFRSYM    DATA     BYTE      USBCON
      000000B5H   SFRSYM    DATA     BYTE      IP2
      000000FFH   SFRSYM    DATA     BYTE      RSTCFG
      000000C7H   SFRSYM    DATA     BYTE      IAP_CONTR
      000000F9H   SFRSYM    DATA     BYTE      LINICR
      0000008EH   SFRSYM    DATA     BYTE      AUXR
      000000AFH   SFRSYM    DATA     BYTE      IE2
      00000088H   SFRSYM    DATA     BYTE      TCON
      00000089H   SFRSYM    DATA     BYTE      TMOD
      00000098H   SFRSYM    DATA     BYTE      SCON
      000000F1H   SFRSYM    DATA     BYTE      CANICR
      00000087H   SFRSYM    DATA     BYTE      PCON
      000000BCH   SFRSYM    DATA     BYTE      ADC_CONTR
      000000E7H   SFRSYM    DATA     BYTE      CMPCR2
      000000E6H   SFRSYM    DATA     BYTE      CMPCR1
      000000DEH   SFRSYM    DATA     BYTE      ADCCFG
      000000B8H   SFRSYM    DATA     BYTE      IP
      0000008FH   SFRSYM    DATA     BYTE      INTCLKO
      000000EEH   SFRSYM    DATA     BYTE      IP3H
      000000B6H   SFRSYM    DATA     BYTE      IP2H
      000000A8H   SFRSYM    DATA     BYTE      IE
      000000BBH   SFRSYM    DATA     BYTE      P_SW3
      000000BAH   SFRSYM    DATA     BYTE      P_SW2
      000000A2H   SFRSYM    DATA     BYTE      P_SW1
      000000CEH   SFRSYM    DATA     BYTE      SPCTL
      000000F8H   SFRSYM    DATA     BYTE      P7
      000000E8H   SFRSYM    DATA     BYTE      P6
      000000C8H   SFRSYM    DATA     BYTE      P5
      000000C0H   SFRSYM    DATA     BYTE      P4
      000000B0H   SFRSYM    DATA     BYTE      P3
      000000A0H   SFRSYM    DATA     BYTE      P2
      00000090H   SFRSYM    DATA     BYTE      P1
      00000080H   SFRSYM    DATA     BYTE      P0
      00010D2CH   SYMBOL    XDATA    ---       ble6a20_buffer
      00010D6CH   SYMBOL    XDATA    ---       ble6a20_fifo
      00011F95H   SYMBOL    XDATA    BYTE      dat
      00011F96H   SYMBOL    XDATA    WORD      time_cnt
      000119A4H   SYMBOL    XDATA    ---       buff
      000119A8H   SYMBOL    XDATA    DWORD     len
      000119ACH   SYMBOL    XDATA    WORD      time_cnt
      000119AEH   SYMBOL    XDATA    WORD      send_len
      00011CF8H   SYMBOL    XDATA    ---       str
      00011CFCH   SYMBOL    XDATA    DWORD     len
      000119B0H   SYMBOL    XDATA    ---       buff
      000119B4H   SYMBOL    XDATA    DWORD     len
L251 LINKER/LOCATER V4.66.93.0                                                        04/19/2026  22:06:36  PAGE 92


      000119B8H   SYMBOL    XDATA    DWORD     data_len
      00011FF2H   SYMBOL    XDATA    BYTE      uart_dat
      00011FF3H   SYMBOL    XDATA    BYTE      return_state

      ---         MODULE    ---      ---       zf_device_config
      00FF01CEH   PUBLIC    CODE     ---       imu660ra_config_file

      ---         MODULE    ---      ---       zf_device_dl1a
      000118AAH   PUBLIC    XDATA    WORD      dl1a_distance_mm
      000118ACH   PUBLIC    XDATA    BYTE      dl1a_finsh_flag
      000000D0H   SFRSYM    DATA     BYTE      PSW
      0000009DH   SFRSYM    DATA     BYTE      IRCBAND
      00000097H   SFRSYM    DATA     BYTE      AUXR2
      000000EFH   SFRSYM    DATA     BYTE      AUXINTIF
      000000FDH   SFRSYM    DATA     BYTE      S4CON
      000000ACH   SFRSYM    DATA     BYTE      S3CON
      0000009AH   SFRSYM    DATA     BYTE      S2CON
      000000B7H   SFRSYM    DATA     BYTE      IPH
      000000CDH   SFRSYM    DATA     BYTE      SPSTAT
      000000DDH   SFRSYM    DATA     BYTE      T4T3M
      000000C1H   SFRSYM    DATA     BYTE      WDT_CONTR
      000000DFH   SFRSYM    DATA     BYTE      IP3
      000000F4H   SFRSYM    DATA     BYTE      USBCON
      000000B5H   SFRSYM    DATA     BYTE      IP2
      000000FFH   SFRSYM    DATA     BYTE      RSTCFG
      000000C7H   SFRSYM    DATA     BYTE      IAP_CONTR
      000000F9H   SFRSYM    DATA     BYTE      LINICR
      0000008EH   SFRSYM    DATA     BYTE      AUXR
      000000AFH   SFRSYM    DATA     BYTE      IE2
      00000088H   SFRSYM    DATA     BYTE      TCON
      00000089H   SFRSYM    DATA     BYTE      TMOD
      00000098H   SFRSYM    DATA     BYTE      SCON
      000000F1H   SFRSYM    DATA     BYTE      CANICR
      00000087H   SFRSYM    DATA     BYTE      PCON
      000000BCH   SFRSYM    DATA     BYTE      ADC_CONTR
      000000E7H   SFRSYM    DATA     BYTE      CMPCR2
      000000E6H   SFRSYM    DATA     BYTE      CMPCR1
      000000DEH   SFRSYM    DATA     BYTE      ADCCFG
      000000B8H   SFRSYM    DATA     BYTE      IP
      0000008FH   SFRSYM    DATA     BYTE      INTCLKO
      000000EEH   SFRSYM    DATA     BYTE      IP3H
      000000B6H   SFRSYM    DATA     BYTE      IP2H
      000000A8H   SFRSYM    DATA     BYTE      IE
      000000BBH   SFRSYM    DATA     BYTE      P_SW3
      000000BAH   SFRSYM    DATA     BYTE      P_SW2
      000000A2H   SFRSYM    DATA     BYTE      P_SW1
      000000CEH   SFRSYM    DATA     BYTE      SPCTL
      000000F8H   SFRSYM    DATA     BYTE      P7
      000000E8H   SFRSYM    DATA     BYTE      P6
      000000C8H   SFRSYM    DATA     BYTE      P5
      000000C0H   SFRSYM    DATA     BYTE      P4
      000000B0H   SFRSYM    DATA     BYTE      P3
      000000A0H   SFRSYM    DATA     BYTE      P2
      00000090H   SFRSYM    DATA     BYTE      P1
      00000080H   SFRSYM    DATA     BYTE      P0
      00FFACF3H   SYMBOL    HCONST   ---       ?tpl?0001
      00FFACFBH   SYMBOL    HCONST   ---       ?tpl?0002
      00FFAD01H   SYMBOL    HCONST   ---       ?tpl?0003
      00FFAD0BH   SYMBOL    HCONST   ---       ?tpl?0004
      000118A1H   SYMBOL    XDATA    ---       dl1a_iic_struct
      000118ADH   SYMBOL    XDATA    BYTE      dl1a_init_flag
      000119BCH   SYMBOL    XDATA    ---       index
      000119C0H   SYMBOL    XDATA    ---       type_is_aperture
      000119C4H   SYMBOL    XDATA    BYTE      tmp
      000119C5H   SYMBOL    XDATA    BYTE      return_state
L251 LINKER/LOCATER V4.66.93.0                                                        04/19/2026  22:06:36  PAGE 93


      000119C6H   SYMBOL    XDATA    WORD      loop_count
      00011D8DH   SYMBOL    XDATA    WORD      timeout_period_mclks
      00011D8FH   SYMBOL    XDATA    BYTE      vcsel_period_pclks
      00011D90H   SYMBOL    XDATA    DWORD     macro_period_ns
      00011B8DH   SYMBOL    XDATA    DWORD     timeout_period_us
      00011B91H   SYMBOL    XDATA    BYTE      vcsel_period_pclks
      00011B92H   SYMBOL    XDATA    DWORD     macro_period_ns
      00011FBAH   SYMBOL    XDATA    WORD      reg_val
      00011FBCH   SYMBOL    XDATA    WORD      timeout_mclks
      00000008H   SYMBOL    EDATA    DWORD     ls_byte
      0000000CH   SYMBOL    EDATA    WORD      ms_byte
      0000000EH   SYMBOL    EDATA    WORD      return_data
      00011EC1H   SYMBOL    XDATA    ---       enables
      00011EC5H   SYMBOL    XDATA    BYTE      sequence_config
      00011F98H   SYMBOL    XDATA    INT       type
      00011F9AH   SYMBOL    XDATA    BYTE      data_buffer
      000119C8H   SYMBOL    XDATA    ---       enables
      000119CCH   SYMBOL    XDATA    ---       timeouts
      000119D0H   SYMBOL    XDATA    ---       reg_buffer
      000119D2H   SYMBOL    XDATA    WORD      reg16_buffer
      00011EC6H   SYMBOL    XDATA    BYTE      vhv_init_byte
      00011EC7H   SYMBOL    XDATA    BYTE      return_state
      00011EC8H   SYMBOL    XDATA    BYTE      data_buffer
      00011EC9H   SYMBOL    XDATA    WORD      loop_count
      00011081H   SYMBOL    XDATA    DWORD     budget_us
      00011085H   SYMBOL    XDATA    BYTE      return_state
      00011086H   SYMBOL    XDATA    ---       data_buffer
      00011089H   SYMBOL    XDATA    WORD      dat
      0001108BH   SYMBOL    XDATA    DWORD     final_range_timeout_us
      0001108FH   SYMBOL    XDATA    WORD      final_range_timeout_mclks
      00011091H   SYMBOL    XDATA    ---       enables
      00011096H   SYMBOL    XDATA    ---       timeouts
      000110ACH   SYMBOL    XDATA    DWORD     used_budget_us
      000112AAH   SYMBOL    XDATA    ---       enables
      000112AFH   SYMBOL    XDATA    ---       timeouts
      000112C5H   SYMBOL    XDATA    DWORD     budget_us
      00011B96H   SYMBOL    XDATA    FLOAT     limit_mcps
      00011B9AH   SYMBOL    XDATA    ---       data_buffer
      00011B9DH   SYMBOL    XDATA    WORD      limit_mcps_16bit
      00011F9BH   SYMBOL    XDATA    ---       reg_databuffer
      0001095EH   SYMBOL    XDATA    DWORD     measurement_timing_budget_us
      00010962H   SYMBOL    XDATA    BYTE      stop_variable
      00010963H   SYMBOL    XDATA    BYTE      return_state
      00010964H   SYMBOL    XDATA    BYTE      reg_data_buffer
      00010965H   SYMBOL    XDATA    ---       ref_spad_map
      0001096BH   SYMBOL    XDATA    ---       data_buffer
      00010972H   SYMBOL    XDATA    WORD      i
      00010974H   SYMBOL    XDATA    ---       temp_buff1
      0001097CH   SYMBOL    XDATA    ---       temp_buff2
      00010982H   SYMBOL    XDATA    ---       temp_buff3
      0001098CH   SYMBOL    XDATA    ---       temp_buff4

      ---         MODULE    ---      ---       zf_device_dl1b
      000118B7H   PUBLIC    XDATA    WORD      dl1b_distance_mm
      000118B9H   PUBLIC    XDATA    BYTE      dl1b_finsh_flag
      000000D0H   SFRSYM    DATA     BYTE      PSW
      0000009DH   SFRSYM    DATA     BYTE      IRCBAND
      00000097H   SFRSYM    DATA     BYTE      AUXR2
      000000EFH   SFRSYM    DATA     BYTE      AUXINTIF
      000000FDH   SFRSYM    DATA     BYTE      S4CON
      000000ACH   SFRSYM    DATA     BYTE      S3CON
      0000009AH   SFRSYM    DATA     BYTE      S2CON
      000000B7H   SFRSYM    DATA     BYTE      IPH
      000000CDH   SFRSYM    DATA     BYTE      SPSTAT
      000000DDH   SFRSYM    DATA     BYTE      T4T3M
L251 LINKER/LOCATER V4.66.93.0                                                        04/19/2026  22:06:36  PAGE 94


      000000C1H   SFRSYM    DATA     BYTE      WDT_CONTR
      000000DFH   SFRSYM    DATA     BYTE      IP3
      000000F4H   SFRSYM    DATA     BYTE      USBCON
      000000B5H   SFRSYM    DATA     BYTE      IP2
      000000FFH   SFRSYM    DATA     BYTE      RSTCFG
      000000C7H   SFRSYM    DATA     BYTE      IAP_CONTR
      000000F9H   SFRSYM    DATA     BYTE      LINICR
      0000008EH   SFRSYM    DATA     BYTE      AUXR
      000000AFH   SFRSYM    DATA     BYTE      IE2
      00000088H   SFRSYM    DATA     BYTE      TCON
      00000089H   SFRSYM    DATA     BYTE      TMOD
      00000098H   SFRSYM    DATA     BYTE      SCON
      000000F1H   SFRSYM    DATA     BYTE      CANICR
      00000087H   SFRSYM    DATA     BYTE      PCON
      000000BCH   SFRSYM    DATA     BYTE      ADC_CONTR
      000000E7H   SFRSYM    DATA     BYTE      CMPCR2
      000000E6H   SFRSYM    DATA     BYTE      CMPCR1
      000000DEH   SFRSYM    DATA     BYTE      ADCCFG
      000000B8H   SFRSYM    DATA     BYTE      IP
      0000008FH   SFRSYM    DATA     BYTE      INTCLKO
      000000EEH   SFRSYM    DATA     BYTE      IP3H
      000000B6H   SFRSYM    DATA     BYTE      IP2H
      000000A8H   SFRSYM    DATA     BYTE      IE
      000000BBH   SFRSYM    DATA     BYTE      P_SW3
      000000BAH   SFRSYM    DATA     BYTE      P_SW2
      000000A2H   SFRSYM    DATA     BYTE      P_SW1
      000000CEH   SFRSYM    DATA     BYTE      SPCTL
      000000F8H   SFRSYM    DATA     BYTE      P7
      000000E8H   SFRSYM    DATA     BYTE      P6
      000000C8H   SFRSYM    DATA     BYTE      P5
      000000C0H   SFRSYM    DATA     BYTE      P4
      000000B0H   SFRSYM    DATA     BYTE      P3
      000000A0H   SFRSYM    DATA     BYTE      P2
      00000090H   SFRSYM    DATA     BYTE      P1
      00000080H   SFRSYM    DATA     BYTE      P0
      000118AEH   SYMBOL    XDATA    ---       dl1b_iic_struct
      000118BAH   SYMBOL    XDATA    BYTE      dl1b_init_flag
      00011ECBH   SYMBOL    XDATA    ---       data_buffer
      00011ECEH   SYMBOL    XDATA    INT       dl1b_distance_temp
      00011FF4H   SYMBOL    XDATA    BYTE      return_state

      ---         MODULE    ---      ---       zf_device_gps_tau1201
      00010423H   PUBLIC    XDATA    BYTE      gps_tau1201_flag
      000104A4H   PUBLIC    XDATA    ---       gps_tau1201
      000105D0H   PUBLIC    XDATA    INT       gps_gga_state
      000105D2H   PUBLIC    XDATA    INT       gps_rmc_state
      00010FC1H   PUBLIC    XDATA    BYTE      ?get_two_points_distance?BYTE
      00011360H   PUBLIC    XDATA    BYTE      ?get_two_points_azimuth?BYTE
      000000D0H   SFRSYM    DATA     BYTE      PSW
      0000009DH   SFRSYM    DATA     BYTE      IRCBAND
      00000097H   SFRSYM    DATA     BYTE      AUXR2
      000000EFH   SFRSYM    DATA     BYTE      AUXINTIF
      000000FDH   SFRSYM    DATA     BYTE      S4CON
      000000ACH   SFRSYM    DATA     BYTE      S3CON
      0000009AH   SFRSYM    DATA     BYTE      S2CON
      000000B7H   SFRSYM    DATA     BYTE      IPH
      000000CDH   SFRSYM    DATA     BYTE      SPSTAT
      000000DDH   SFRSYM    DATA     BYTE      T4T3M
      000000C1H   SFRSYM    DATA     BYTE      WDT_CONTR
      000000DFH   SFRSYM    DATA     BYTE      IP3
      000000F4H   SFRSYM    DATA     BYTE      USBCON
      000000B5H   SFRSYM    DATA     BYTE      IP2
      000000FFH   SFRSYM    DATA     BYTE      RSTCFG
      000000C7H   SFRSYM    DATA     BYTE      IAP_CONTR
      000000F9H   SFRSYM    DATA     BYTE      LINICR
L251 LINKER/LOCATER V4.66.93.0                                                        04/19/2026  22:06:36  PAGE 95


      0000008EH   SFRSYM    DATA     BYTE      AUXR
      000000AFH   SFRSYM    DATA     BYTE      IE2
      00000088H   SFRSYM    DATA     BYTE      TCON
      00000089H   SFRSYM    DATA     BYTE      TMOD
      00000098H   SFRSYM    DATA     BYTE      SCON
      000000F1H   SFRSYM    DATA     BYTE      CANICR
      00000087H   SFRSYM    DATA     BYTE      PCON
      000000BCH   SFRSYM    DATA     BYTE      ADC_CONTR
      000000E7H   SFRSYM    DATA     BYTE      CMPCR2
      000000E6H   SFRSYM    DATA     BYTE      CMPCR1
      000000DEH   SFRSYM    DATA     BYTE      ADCCFG
      000000B8H   SFRSYM    DATA     BYTE      IP
      0000008FH   SFRSYM    DATA     BYTE      INTCLKO
      000000EEH   SFRSYM    DATA     BYTE      IP3H
      000000B6H   SFRSYM    DATA     BYTE      IP2H
      000000A8H   SFRSYM    DATA     BYTE      IE
      000000BBH   SFRSYM    DATA     BYTE      P_SW3
      000000BAH   SFRSYM    DATA     BYTE      P_SW2
      000000A2H   SFRSYM    DATA     BYTE      P_SW1
      000000CEH   SFRSYM    DATA     BYTE      SPCTL
      000000F8H   SFRSYM    DATA     BYTE      P7
      000000E8H   SFRSYM    DATA     BYTE      P6
      000000C8H   SFRSYM    DATA     BYTE      P5
      000000C0H   SFRSYM    DATA     BYTE      P4
      000000B0H   SFRSYM    DATA     BYTE      P3
      000000A0H   SFRSYM    DATA     BYTE      P2
      00000090H   SFRSYM    DATA     BYTE      P1
      00000080H   SFRSYM    DATA     BYTE      P0
      00FFAFCEH   SYMBOL    HCONST   ---       ?tpl?0001
      00FFAFD3H   SYMBOL    HCONST   ---       ?tpl?0002
      00FFAFEFH   SYMBOL    HCONST   ---       ?tpl?0003
      00FFAFFAH   SYMBOL    HCONST   ---       ?tpl?0004
      00FFB005H   SYMBOL    HCONST   ---       ?tpl?0005
      00FFB010H   SYMBOL    HCONST   ---       ?tpl?0006
      00FFB01BH   SYMBOL    HCONST   ---       ?tpl?0007
      00FFB026H   SYMBOL    HCONST   ---       ?tpl?0008
      00FFB031H   SYMBOL    HCONST   ---       ?tpl?0009
      00FFB03CH   SYMBOL    HCONST   ---       ?tpl?000A
      00FFB047H   SYMBOL    HCONST   ---       ?tpl?000B
      00FFB052H   SYMBOL    HCONST   ---       ?tpl?000C
      00FFB05DH   SYMBOL    HCONST   ---       ?tpl?000D
      0001040CH   SYMBOL    XDATA    ---       gps_tau1201_receiver_fifo
      00010424H   SYMBOL    XDATA    ---       gps_gga_buffer
      000104CFH   SYMBOL    XDATA    BYTE      gps_tau1201_state
      000104D0H   SYMBOL    XDATA    ---       gps_rmc_buffer
      00010550H   SYMBOL    XDATA    ---       gps_tau1201_receiver_buffer
      000118BBH   SYMBOL    XDATA    BYTE      num
      000118BCH   SYMBOL    XDATA    ---       str
      000118C0H   SYMBOL    XDATA    BYTE      i
      000118C1H   SYMBOL    XDATA    BYTE      j
      000118C2H   SYMBOL    XDATA    ---       temp
      000118C6H   SYMBOL    XDATA    BYTE      len
      000118C7H   SYMBOL    XDATA    BYTE      len1
      0001164EH   SYMBOL    XDATA    ---       s
      00011652H   SYMBOL    XDATA    ---       buf
      0001165CH   SYMBOL    XDATA    BYTE      i
      0001165DH   SYMBOL    XDATA    INT       return_value
      00011447H   SYMBOL    XDATA    ---       s
      0001144BH   SYMBOL    XDATA    BYTE      i
      0001144CH   SYMBOL    XDATA    ---       buf
      0001145BH   SYMBOL    XDATA    FLOAT     return_value
      0001145FH   SYMBOL    XDATA    ---       s
      00011463H   SYMBOL    XDATA    BYTE      i
      00011464H   SYMBOL    XDATA    ---       buf
      00011473H   SYMBOL    XDATA    FLOAT     return_value
L251 LINKER/LOCATER V4.66.93.0                                                        04/19/2026  22:06:36  PAGE 96


      00011ED0H   SYMBOL    XDATA    ---       time
      00011ED4H   SYMBOL    XDATA    BYTE      day_num
      00011134H   SYMBOL    XDATA    ---       line
      00011138H   SYMBOL    XDATA    ---       gps
      0001113CH   SYMBOL    XDATA    BYTE      state
      0001113DH   SYMBOL    XDATA    BYTE      temp
      0001113EH   SYMBOL    XDATA    FLOAT     latitude
      00011142H   SYMBOL    XDATA    FLOAT     longitude
      00011146H   SYMBOL    XDATA    FLOAT     lati_cent_tmp
      0001114AH   SYMBOL    XDATA    FLOAT     lati_second_tmp
      0001114EH   SYMBOL    XDATA    FLOAT     long_cent_tmp
      00011152H   SYMBOL    XDATA    FLOAT     long_second_tmp
      00011156H   SYMBOL    XDATA    FLOAT     speed_tmp
      0001115AH   SYMBOL    XDATA    ---       buf
      0001115EH   SYMBOL    XDATA    BYTE      return_state
      0001180DH   SYMBOL    XDATA    ---       line
      00011811H   SYMBOL    XDATA    ---       gps
      00011815H   SYMBOL    XDATA    BYTE      state
      00011816H   SYMBOL    XDATA    ---       buf
      0001181AH   SYMBOL    XDATA    BYTE      return_state
      00010FC1H   SYMBOL    XDATA    FLOAT     latitude1
      00010FC5H   SYMBOL    XDATA    FLOAT     longitude1
      00010FC9H   SYMBOL    XDATA    FLOAT     latitude2
      00010FCDH   SYMBOL    XDATA    FLOAT     longitude2
      00010FD1H   SYMBOL    XDATA    FLOAT     EARTH_RADIUS
      00010FD5H   SYMBOL    XDATA    FLOAT     rad_latitude1
      00010FD9H   SYMBOL    XDATA    FLOAT     rad_latitude2
      00010FDDH   SYMBOL    XDATA    FLOAT     rad_longitude1
      00010FE1H   SYMBOL    XDATA    FLOAT     rad_longitude2
      00010FE5H   SYMBOL    XDATA    FLOAT     distance
      00010FE9H   SYMBOL    XDATA    FLOAT     a
      00010FEDH   SYMBOL    XDATA    FLOAT     b
      00011360H   SYMBOL    XDATA    FLOAT     latitude1
      00011364H   SYMBOL    XDATA    FLOAT     longitude1
      00011368H   SYMBOL    XDATA    FLOAT     latitude2
      0001136CH   SYMBOL    XDATA    FLOAT     longitude2
      00011370H   SYMBOL    XDATA    FLOAT     x
      00011374H   SYMBOL    XDATA    FLOAT     y
      00011378H   SYMBOL    XDATA    FLOAT     angle
      000119D4H   SYMBOL    XDATA    BYTE      return_state
      000119D5H   SYMBOL    XDATA    ---       check_buffer
      000119DAH   SYMBOL    XDATA    BYTE      bbc_xor_origin
      000119DBH   SYMBOL    XDATA    BYTE      bbc_xor_calculation
      000119DCH   SYMBOL    XDATA    DWORD     data_len
      00011AD7H   SYMBOL    XDATA    BYTE      uart_dat
      00011AD8H   SYMBOL    XDATA    ---       temp_gps
      00011ADEH   SYMBOL    XDATA    DWORD     temp_length
      00010ACCH   SYMBOL    XDATA    ---       set_rate
      00010AE8H   SYMBOL    XDATA    ---       open_gga
      00010AF3H   SYMBOL    XDATA    ---       open_rmc
      00010AFEH   SYMBOL    XDATA    ---       close_gll
      00010B09H   SYMBOL    XDATA    ---       close_gsa
      00010B14H   SYMBOL    XDATA    ---       close_grs
      00010B1FH   SYMBOL    XDATA    ---       close_gsv
      00010B2AH   SYMBOL    XDATA    ---       close_vtg
      00010B35H   SYMBOL    XDATA    ---       close_zda
      00010B40H   SYMBOL    XDATA    ---       close_gst
      00010B4BH   SYMBOL    XDATA    ---       close_txt
      00010B56H   SYMBOL    XDATA    ---       close_txt_ant

      ---         MODULE    ---      ---       zf_device_icm20602
      00011549H   PUBLIC    XDATA    INT       icm20602_acc_x
      0001154BH   PUBLIC    XDATA    INT       icm20602_acc_y
      0001154DH   PUBLIC    XDATA    INT       icm20602_acc_z
      0001154FH   PUBLIC    XDATA    INT       icm20602_gyro_x
L251 LINKER/LOCATER V4.66.93.0                                                        04/19/2026  22:06:36  PAGE 97


      00011551H   PUBLIC    XDATA    INT       icm20602_gyro_y
      00011553H   PUBLIC    XDATA    INT       icm20602_gyro_z
      00011555H   PUBLIC    XDATA    ---       icm20602_transition_factor
      000000D0H   SFRSYM    DATA     BYTE      PSW
      0000009DH   SFRSYM    DATA     BYTE      IRCBAND
      00000097H   SFRSYM    DATA     BYTE      AUXR2
      000000EFH   SFRSYM    DATA     BYTE      AUXINTIF
      000000FDH   SFRSYM    DATA     BYTE      S4CON
      000000ACH   SFRSYM    DATA     BYTE      S3CON
      0000009AH   SFRSYM    DATA     BYTE      S2CON
      000000B7H   SFRSYM    DATA     BYTE      IPH
      000000CDH   SFRSYM    DATA     BYTE      SPSTAT
      000000DDH   SFRSYM    DATA     BYTE      T4T3M
      000000C1H   SFRSYM    DATA     BYTE      WDT_CONTR
      000000DFH   SFRSYM    DATA     BYTE      IP3
      000000F4H   SFRSYM    DATA     BYTE      USBCON
      000000B5H   SFRSYM    DATA     BYTE      IP2
      000000FFH   SFRSYM    DATA     BYTE      RSTCFG
      000000C7H   SFRSYM    DATA     BYTE      IAP_CONTR
      000000F9H   SFRSYM    DATA     BYTE      LINICR
      0000008EH   SFRSYM    DATA     BYTE      AUXR
      000000AFH   SFRSYM    DATA     BYTE      IE2
      000000C0H.3 SFRSYM    DATA     BIT       P43
      000000C0H.2 SFRSYM    DATA     BIT       P42
      00000088H   SFRSYM    DATA     BYTE      TCON
      00000089H   SFRSYM    DATA     BYTE      TMOD
      000000C0H.1 SFRSYM    DATA     BIT       P41
      00000098H   SFRSYM    DATA     BYTE      SCON
      000000C0H.0 SFRSYM    DATA     BIT       P40
      000000F1H   SFRSYM    DATA     BYTE      CANICR
      00000087H   SFRSYM    DATA     BYTE      PCON
      000000BCH   SFRSYM    DATA     BYTE      ADC_CONTR
      000000E7H   SFRSYM    DATA     BYTE      CMPCR2
      000000E6H   SFRSYM    DATA     BYTE      CMPCR1
      000000DEH   SFRSYM    DATA     BYTE      ADCCFG
      000000B8H   SFRSYM    DATA     BYTE      IP
      0000008FH   SFRSYM    DATA     BYTE      INTCLKO
      000000EEH   SFRSYM    DATA     BYTE      IP3H
      000000B6H   SFRSYM    DATA     BYTE      IP2H
      000000A8H   SFRSYM    DATA     BYTE      IE
      000000BBH   SFRSYM    DATA     BYTE      P_SW3
      000000BAH   SFRSYM    DATA     BYTE      P_SW2
      000000A2H   SFRSYM    DATA     BYTE      P_SW1
      000000CEH   SFRSYM    DATA     BYTE      SPCTL
      000000F8H   SFRSYM    DATA     BYTE      P7
      000000E8H   SFRSYM    DATA     BYTE      P6
      000000C8H   SFRSYM    DATA     BYTE      P5
      000000C0H   SFRSYM    DATA     BYTE      P4
      000000B0H   SFRSYM    DATA     BYTE      P3
      000000A0H   SFRSYM    DATA     BYTE      P2
      00000090H   SFRSYM    DATA     BYTE      P1
      00000080H   SFRSYM    DATA     BYTE      P0
      00011FBEH   SYMBOL    XDATA    BYTE      byte
      00011FBFH   SYMBOL    XDATA    BYTE      i
      00011FC0H   SYMBOL    XDATA    BYTE      cmd
      00011FC1H   SYMBOL    XDATA    BYTE      val
      00011ED5H   SYMBOL    XDATA    BYTE      cmd
      00011ED6H   SYMBOL    XDATA    ---       val
      00011B9FH   SYMBOL    XDATA    BYTE      cmd
      00011BA0H   SYMBOL    XDATA    ---       val
      00011BA4H   SYMBOL    XDATA    DWORD     num
      00000010H   SYMBOL    EDATA    DWORD     i
      00011FC2H   SYMBOL    XDATA    BYTE      reg
      00011FC3H   SYMBOL    XDATA    BYTE      dat
      00011FC4H   SYMBOL    XDATA    BYTE      reg
L251 LINKER/LOCATER V4.66.93.0                                                        04/19/2026  22:06:36  PAGE 98


      00011FC5H   SYMBOL    XDATA    BYTE      dat
      00011BA8H   SYMBOL    XDATA    BYTE      reg
      00011BA9H   SYMBOL    XDATA    ---       dat
      00011BADH   SYMBOL    XDATA    DWORD     len
      00011F38H   SYMBOL    XDATA    BYTE      dat
      00011F39H   SYMBOL    XDATA    BYTE      return_state
      00011F3AH   SYMBOL    XDATA    WORD      timeout_count
      00011E02H   SYMBOL    XDATA    ---       dat
      00011E08H   SYMBOL    XDATA    ---       dat
      00011F3CH   SYMBOL    XDATA    BYTE      val
      00011F3DH   SYMBOL    XDATA    BYTE      return_state
      00011F3EH   SYMBOL    XDATA    WORD      timeout_count

      ---         MODULE    ---      ---       zf_device_imu660ra
      00FF9C3BH   PUBLIC    CODE     ---       imu660ra_get_gyro
      00FF6CF6H   PUBLIC    CODE     ---       imu660ra_init
      00FF9C95H   PUBLIC    CODE     ---       imu660ra_get_acc
      0001155DH   PUBLIC    XDATA    INT       imu660ra_acc_x
      0001155FH   PUBLIC    XDATA    INT       imu660ra_acc_y
      00011561H   PUBLIC    XDATA    INT       imu660ra_acc_z
      00011563H   PUBLIC    XDATA    INT       imu660ra_gyro_x
      00011565H   PUBLIC    XDATA    INT       imu660ra_gyro_y
      00011567H   PUBLIC    XDATA    INT       imu660ra_gyro_z
      00011569H   PUBLIC    XDATA    ---       imu660ra_transition_factor
      000000D0H   SFRSYM    DATA     BYTE      PSW
      0000009DH   SFRSYM    DATA     BYTE      IRCBAND
      00000097H   SFRSYM    DATA     BYTE      AUXR2
      000000EFH   SFRSYM    DATA     BYTE      AUXINTIF
      000000FDH   SFRSYM    DATA     BYTE      S4CON
      000000ACH   SFRSYM    DATA     BYTE      S3CON
      0000009AH   SFRSYM    DATA     BYTE      S2CON
      000000B7H   SFRSYM    DATA     BYTE      IPH
      000000CDH   SFRSYM    DATA     BYTE      SPSTAT
      000000DDH   SFRSYM    DATA     BYTE      T4T3M
      000000C1H   SFRSYM    DATA     BYTE      WDT_CONTR
      000000DFH   SFRSYM    DATA     BYTE      IP3
      000000F4H   SFRSYM    DATA     BYTE      USBCON
      000000B5H   SFRSYM    DATA     BYTE      IP2
      000000FFH   SFRSYM    DATA     BYTE      RSTCFG
      000000C7H   SFRSYM    DATA     BYTE      IAP_CONTR
      000000F9H   SFRSYM    DATA     BYTE      LINICR
      0000008EH   SFRSYM    DATA     BYTE      AUXR
      000000AFH   SFRSYM    DATA     BYTE      IE2
      000000C0H.3 SFRSYM    DATA     BIT       P43
      000000C0H.2 SFRSYM    DATA     BIT       P42
      00000088H   SFRSYM    DATA     BYTE      TCON
      00000089H   SFRSYM    DATA     BYTE      TMOD
      000000C0H.1 SFRSYM    DATA     BIT       P41
      00000098H   SFRSYM    DATA     BYTE      SCON
      000000C0H.0 SFRSYM    DATA     BIT       P40
      000000F1H   SFRSYM    DATA     BYTE      CANICR
      00000087H   SFRSYM    DATA     BYTE      PCON
      000000BCH   SFRSYM    DATA     BYTE      ADC_CONTR
      000000E7H   SFRSYM    DATA     BYTE      CMPCR2
      000000E6H   SFRSYM    DATA     BYTE      CMPCR1
      000000DEH   SFRSYM    DATA     BYTE      ADCCFG
      000000B8H   SFRSYM    DATA     BYTE      IP
      0000008FH   SFRSYM    DATA     BYTE      INTCLKO
      000000EEH   SFRSYM    DATA     BYTE      IP3H
      000000B6H   SFRSYM    DATA     BYTE      IP2H
      000000A8H   SFRSYM    DATA     BYTE      IE
      000000BBH   SFRSYM    DATA     BYTE      P_SW3
      000000BAH   SFRSYM    DATA     BYTE      P_SW2
      000000A2H   SFRSYM    DATA     BYTE      P_SW1
      000000CEH   SFRSYM    DATA     BYTE      SPCTL
L251 LINKER/LOCATER V4.66.93.0                                                        04/19/2026  22:06:36  PAGE 99


      000000F8H   SFRSYM    DATA     BYTE      P7
      000000E8H   SFRSYM    DATA     BYTE      P6
      000000C8H   SFRSYM    DATA     BYTE      P5
      000000C0H   SFRSYM    DATA     BYTE      P4
      000000B0H   SFRSYM    DATA     BYTE      P3
      000000A0H   SFRSYM    DATA     BYTE      P2
      00000090H   SFRSYM    DATA     BYTE      P1
      00000080H   SFRSYM    DATA     BYTE      P0
      00FFA350H   SYMBOL    CODE     ---       imu660ra_read_register
      00FFA250H   SYMBOL    CODE     ---       imu660ra_write_registers
      00FFA4B5H   SYMBOL    CODE     ---       imu660ra_write_register
      00FF9DF5H   SYMBOL    CODE     ---       imu660ra_simspi_wr_byte
      00FF9B1EH   SYMBOL    CODE     ---       imu660ra_self_check
      00FF99E3H   SYMBOL    CODE     ---       imu660ra_simspi_r_reg_bytes
      00FF9BDFH   SYMBOL    CODE     ---       imu660ra_simspi_w_reg_bytes
      00FF0026H   SYMBOL    CODE     ---       imu660ra_simspi_w_reg_byte
      00FF8E05H   SYMBOL    CODE     ---       imu660ra_read_registers

      00FF9DF5H   BLOCK     CODE     ---       LVL=0
      00011FC6H   SYMBOL    XDATA    BYTE      byte
      00FF9DF9H   BLOCK     CODE     NEAR LAB  LVL=1
      00011FC7H   SYMBOL    XDATA    BYTE      i
      ---         BLOCKEND  ---      ---       LVL=1
      00FF9DF5H   LINE      CODE     ---       #160
      00FF9DF9H   LINE      CODE     ---       #161
      00FF9DF9H   LINE      CODE     ---       #163
      00FF9E00H   LINE      CODE     ---       #165
      00FF9E03H   LINE      CODE     ---       #166
      00FF9E12H   LINE      CODE     ---       #167
      00FF9E19H   LINE      CODE     ---       #168
      00FF9E1CH   LINE      CODE     ---       #169
      00FF9E29H   LINE      CODE     ---       #170
      00FF9E40H   LINE      CODE     ---       #171
      00FF9E43H   LINE      CODE     ---       #172
      00FF9E47H   LINE      CODE     ---       #173
      ---         BLOCKEND  ---      ---       LVL=0

      00FF0026H   BLOCK     CODE     ---       LVL=0
      00011FC8H   SYMBOL    XDATA    BYTE      cmd
      00011FC9H   SYMBOL    XDATA    BYTE      val
      00FF0026H   LINE      CODE     ---       #182
      00FF0030H   LINE      CODE     ---       #184
      00FF0034H   LINE      CODE     ---       #185
      00FF003BH   LINE      CODE     ---       #186
      00FF0042H   LINE      CODE     ---       #187
      ---         BLOCKEND  ---      ---       LVL=0

      00FF9BDFH   BLOCK     CODE     ---       LVL=0
      00011BB1H   SYMBOL    XDATA    BYTE      cmd
      00011BB2H   SYMBOL    XDATA    ---       dat_addr
      00011BB6H   SYMBOL    XDATA    DWORD     len
      00FF9BDFH   LINE      CODE     ---       #197
      00FF9BF7H   LINE      CODE     ---       #199
      00FF9BFBH   LINE      CODE     ---       #200
      00FF9C02H   LINE      CODE     ---       #201
      00FF9C04H   LINE      CODE     ---       #203
      00FF9C1DH   LINE      CODE     ---       #204
      00FF9C3AH   LINE      CODE     ---       #205
      ---         BLOCKEND  ---      ---       LVL=0

      00FF99E3H   BLOCK     CODE     ---       LVL=0
      00011BBAH   SYMBOL    XDATA    BYTE      cmd
      00011BBBH   SYMBOL    XDATA    ---       val
      00011BBFH   SYMBOL    XDATA    DWORD     num
      00FF99E3H   LINE      CODE     ---       #215
L251 LINKER/LOCATER V4.66.93.0                                                        04/19/2026  22:06:36  PAGE 100


      00FF99FBH   LINE      CODE     ---       #217
      00FF9A05H   LINE      CODE     ---       #218
      00FF9A0CH   LINE      CODE     ---       #219
      00FF9A0EH   LINE      CODE     ---       #221
      00FF9A35H   LINE      CODE     ---       #222
      00FF9A52H   LINE      CODE     ---       #223
      ---         BLOCKEND  ---      ---       LVL=0

      00FFA4B5H   BLOCK     CODE     ---       LVL=0
      00011FCAH   SYMBOL    XDATA    BYTE      reg
      00011FCBH   SYMBOL    XDATA    BYTE      dat
      00FFA4B5H   LINE      CODE     ---       #234
      00FFA4BFH   LINE      CODE     ---       #236
      00FFA4C2H   LINE      CODE     ---       #237
      00FFA4CFH   LINE      CODE     ---       #238
      00FFA4D2H   LINE      CODE     ---       #239
      ---         BLOCKEND  ---      ---       LVL=0

      00FFA250H   BLOCK     CODE     ---       LVL=0
      00011BC3H   SYMBOL    XDATA    BYTE      reg
      00011BC4H   SYMBOL    XDATA    ---       dat
      00011BC8H   SYMBOL    XDATA    DWORD     len
      00FFA250H   LINE      CODE     ---       #249
      00FFA268H   LINE      CODE     ---       #251
      00FFA26BH   LINE      CODE     ---       #252
      00FFA286H   LINE      CODE     ---       #253
      00FFA289H   LINE      CODE     ---       #254
      ---         BLOCKEND  ---      ---       LVL=0

      00FFA350H   BLOCK     CODE     ---       LVL=0
      00011F9EH   SYMBOL    XDATA    BYTE      reg
      00FFA354H   BLOCK     CODE     NEAR LAB  LVL=1
      00011F9FH   SYMBOL    XDATA    ---       dat
      ---         BLOCKEND  ---      ---       LVL=1
      00FFA350H   LINE      CODE     ---       #263
      00FFA354H   LINE      CODE     ---       #264
      00FFA354H   LINE      CODE     ---       #266
      00FFA357H   LINE      CODE     ---       #267
      00FFA370H   LINE      CODE     ---       #268
      00FFA373H   LINE      CODE     ---       #269
      00FFA377H   LINE      CODE     ---       #270
      ---         BLOCKEND  ---      ---       LVL=0

      00FF8E05H   BLOCK     CODE     ---       LVL=0
      00011585H   SYMBOL    XDATA    BYTE      reg
      00011586H   SYMBOL    XDATA    ---       dat
      0001158AH   SYMBOL    XDATA    DWORD     len
      00FF8E1DH   BLOCK     CODE     NEAR LAB  LVL=1
      0001158EH   SYMBOL    XDATA    WORD      i
      00011590H   SYMBOL    XDATA    ---       temp_data
      ---         BLOCKEND  ---      ---       LVL=1
      00FF8E05H   LINE      CODE     ---       #281
      00FF8E1DH   LINE      CODE     ---       #282
      00FF8E1DH   LINE      CODE     ---       #283
      00FF8E25H   LINE      CODE     ---       #285
      00FF8E28H   LINE      CODE     ---       #286
      00FF8E4DH   LINE      CODE     ---       #287
      00FF8E50H   LINE      CODE     ---       #289
      00FF8E5AH   LINE      CODE     ---       #291
      00FF8E90H   LINE      CODE     ---       #292
      00FF8EB5H   LINE      CODE     ---       #293
      ---         BLOCKEND  ---      ---       LVL=0

      00FF9B1EH   BLOCK     CODE     ---       LVL=0
      00011F40H   SYMBOL    XDATA    BYTE      dat
L251 LINKER/LOCATER V4.66.93.0                                                        04/19/2026  22:06:36  PAGE 101


      00011F41H   SYMBOL    XDATA    BYTE      return_state
      00011F42H   SYMBOL    XDATA    WORD      timeout_count
      00FF9B1EH   LINE      CODE     ---       #312
      00FF9B1EH   LINE      CODE     ---       #313
      00FF9B1EH   LINE      CODE     ---       #314
      00FF9B28H   LINE      CODE     ---       #315
      00FF9B30H   LINE      CODE     ---       #317
      00FF9B30H   LINE      CODE     ---       #319
      00FF9B47H   LINE      CODE     ---       #321
      00FF9B4DH   LINE      CODE     ---       #322
      00FF9B4FH   LINE      CODE     ---       #323
      00FF9B4FH   LINE      CODE     ---       #325
      00FF9B57H   LINE      CODE     ---       #326
      00FF9B6EH   LINE      CODE     ---       #327
      00FF9B75H   LINE      CODE     ---       #328
      00FF9B7EH   LINE      CODE     ---       #331
      00FF9B82H   LINE      CODE     ---       #332
      ---         BLOCKEND  ---      ---       LVL=0

      00FF9C95H   BLOCK     CODE     ---       LVL=0
      00011E0EH   SYMBOL    XDATA    ---       dat
      00FF9C95H   LINE      CODE     ---       #342
      00FF9C95H   LINE      CODE     ---       #343
      00FF9C95H   LINE      CODE     ---       #346
      00FF9CA6H   LINE      CODE     ---       #347
      00FF9CBEH   LINE      CODE     ---       #348
      00FF9CD6H   LINE      CODE     ---       #349
      00FF9CEEH   LINE      CODE     ---       #350
      ---         BLOCKEND  ---      ---       LVL=0

      00FF9C3BH   BLOCK     CODE     ---       LVL=0
      00011E14H   SYMBOL    XDATA    ---       dat
      00FF9C3BH   LINE      CODE     ---       #359
      00FF9C3BH   LINE      CODE     ---       #360
      00FF9C3BH   LINE      CODE     ---       #363
      00FF9C4CH   LINE      CODE     ---       #364
      00FF9C64H   LINE      CODE     ---       #365
      00FF9C7CH   LINE      CODE     ---       #366
      00FF9C94H   LINE      CODE     ---       #367
      ---         BLOCKEND  ---      ---       LVL=0

      00FF6CF6H   BLOCK     CODE     ---       LVL=0
      00011FF5H   SYMBOL    XDATA    BYTE      return_state
      00FF6CF6H   LINE      CODE     ---       #376
      00FF6CF6H   LINE      CODE     ---       #377
      00FF6CF6H   LINE      CODE     ---       #378
      00FF6CFBH   LINE      CODE     ---       #379
      00FF6D02H   LINE      CODE     ---       #389
      00FF6D06H   LINE      CODE     ---       #395
      00FF6D06H   LINE      CODE     ---       #397
      00FF6D0EH   LINE      CODE     ---       #402
      00FF6D19H   LINE      CODE     ---       #403
      00FF6D1FH   LINE      CODE     ---       #404
      00FF6D22H   LINE      CODE     ---       #405
      00FF6D22H   LINE      CODE     ---       #407
      00FF6D29H   LINE      CODE     ---       #408
      00FF6D30H   LINE      CODE     ---       #409
      00FF6D37H   LINE      CODE     ---       #410
      00FF6D48H   LINE      CODE     ---       #411
      00FF6D50H   LINE      CODE     ---       #412
      00FF6D57H   LINE      CODE     ---       #414
      00FF6D61H   LINE      CODE     ---       #419
      00FF6D6CH   LINE      CODE     ---       #420
      00FF6D72H   LINE      CODE     ---       #421
      00FF6D75H   LINE      CODE     ---       #422
L251 LINKER/LOCATER V4.66.93.0                                                        04/19/2026  22:06:36  PAGE 102


      00FF6D75H   LINE      CODE     ---       #424
      00FF6D7DH   LINE      CODE     ---       #425
      00FF6D85H   LINE      CODE     ---       #426
      00FF6D8DH   LINE      CODE     ---       #433
      00FF6DA5H   LINE      CODE     ---       #435
      00FF6DA5H   LINE      CODE     ---       #437
      00FF6DB0H   LINE      CODE     ---       #438
      00FF6DB6H   LINE      CODE     ---       #440
      00FF6DB8H   LINE      CODE     ---       #442
      00FF6DB8H   LINE      CODE     ---       #444
      00FF6DBFH   LINE      CODE     ---       #445
      00FF6DCFH   LINE      CODE     ---       #447
      00FF6DD1H   LINE      CODE     ---       #449
      00FF6DD1H   LINE      CODE     ---       #451
      00FF6DD9H   LINE      CODE     ---       #452
      00FF6DE9H   LINE      CODE     ---       #454
      00FF6DEBH   LINE      CODE     ---       #456
      00FF6DEBH   LINE      CODE     ---       #458
      00FF6DF3H   LINE      CODE     ---       #459
      00FF6E03H   LINE      CODE     ---       #461
      00FF6E05H   LINE      CODE     ---       #463
      00FF6E05H   LINE      CODE     ---       #465
      00FF6E0DH   LINE      CODE     ---       #466
      00FF6E1DH   LINE      CODE     ---       #468
      00FF6E1DH   LINE      CODE     ---       #469
      00FF6E1DH   LINE      CODE     ---       #471
      00FF6E29H   LINE      CODE     ---       #473
      00FF6E29H   LINE      CODE     ---       #474
      00FF6E29H   LINE      CODE     ---       #482
      00FF6E48H   LINE      CODE     ---       #484
      00FF6E48H   LINE      CODE     ---       #486
      00FF6E53H   LINE      CODE     ---       #487
      00FF6E59H   LINE      CODE     ---       #489
      00FF6E5CH   LINE      CODE     ---       #491
      00FF6E5CH   LINE      CODE     ---       #493
      00FF6E64H   LINE      CODE     ---       #494
      00FF6E76H   LINE      CODE     ---       #496
      00FF6E78H   LINE      CODE     ---       #498
      00FF6E78H   LINE      CODE     ---       #500
      00FF6E80H   LINE      CODE     ---       #501
      00FF6E92H   LINE      CODE     ---       #503
      00FF6E94H   LINE      CODE     ---       #505
      00FF6E94H   LINE      CODE     ---       #507
      00FF6E9CH   LINE      CODE     ---       #508
      00FF6EAEH   LINE      CODE     ---       #510
      00FF6EB0H   LINE      CODE     ---       #512
      00FF6EB0H   LINE      CODE     ---       #514
      00FF6EB8H   LINE      CODE     ---       #515
      00FF6ECAH   LINE      CODE     ---       #517
      00FF6ECCH   LINE      CODE     ---       #519
      00FF6ECCH   LINE      CODE     ---       #521
      00FF6ED3H   LINE      CODE     ---       #522
      00FF6EE5H   LINE      CODE     ---       #524
      00FF6EE5H   LINE      CODE     ---       #525
      00FF6EE5H   LINE      CODE     ---       #527
      00FF6EE5H   LINE      CODE     ---       #529
      00FF6EE5H   LINE      CODE     ---       #530
      00FF6EE5H   LINE      CODE     ---       #534
      00FF6EE9H   LINE      CODE     ---       #535
      ---         BLOCKEND  ---      ---       LVL=0

      ---         MODULE    ---      ---       zf_device_imu660rb
      000119E0H   PUBLIC    XDATA    INT       imu660rb_acc_x
      000119E2H   PUBLIC    XDATA    INT       imu660rb_acc_y
      000119E4H   PUBLIC    XDATA    INT       imu660rb_acc_z
L251 LINKER/LOCATER V4.66.93.0                                                        04/19/2026  22:06:36  PAGE 103


      000119E6H   PUBLIC    XDATA    INT       imu660rb_gyro_x
      000119E8H   PUBLIC    XDATA    INT       imu660rb_gyro_y
      000119EAH   PUBLIC    XDATA    INT       imu660rb_gyro_z
      000000D0H   SFRSYM    DATA     BYTE      PSW
      0000009DH   SFRSYM    DATA     BYTE      IRCBAND
      00000097H   SFRSYM    DATA     BYTE      AUXR2
      000000EFH   SFRSYM    DATA     BYTE      AUXINTIF
      000000FDH   SFRSYM    DATA     BYTE      S4CON
      000000ACH   SFRSYM    DATA     BYTE      S3CON
      0000009AH   SFRSYM    DATA     BYTE      S2CON
      000000B7H   SFRSYM    DATA     BYTE      IPH
      000000CDH   SFRSYM    DATA     BYTE      SPSTAT
      000000DDH   SFRSYM    DATA     BYTE      T4T3M
      000000C1H   SFRSYM    DATA     BYTE      WDT_CONTR
      000000DFH   SFRSYM    DATA     BYTE      IP3
      000000F4H   SFRSYM    DATA     BYTE      USBCON
      000000B5H   SFRSYM    DATA     BYTE      IP2
      000000FFH   SFRSYM    DATA     BYTE      RSTCFG
      000000C7H   SFRSYM    DATA     BYTE      IAP_CONTR
      000000F9H   SFRSYM    DATA     BYTE      LINICR
      0000008EH   SFRSYM    DATA     BYTE      AUXR
      000000AFH   SFRSYM    DATA     BYTE      IE2
      000000C0H.3 SFRSYM    DATA     BIT       P43
      000000C0H.2 SFRSYM    DATA     BIT       P42
      00000088H   SFRSYM    DATA     BYTE      TCON
      00000089H   SFRSYM    DATA     BYTE      TMOD
      000000C0H.1 SFRSYM    DATA     BIT       P41
      00000098H   SFRSYM    DATA     BYTE      SCON
      000000C0H.0 SFRSYM    DATA     BIT       P40
      000000F1H   SFRSYM    DATA     BYTE      CANICR
      00000087H   SFRSYM    DATA     BYTE      PCON
      000000BCH   SFRSYM    DATA     BYTE      ADC_CONTR
      000000E7H   SFRSYM    DATA     BYTE      CMPCR2
      000000E6H   SFRSYM    DATA     BYTE      CMPCR1
      000000DEH   SFRSYM    DATA     BYTE      ADCCFG
      000000B8H   SFRSYM    DATA     BYTE      IP
      0000008FH   SFRSYM    DATA     BYTE      INTCLKO
      000000EEH   SFRSYM    DATA     BYTE      IP3H
      000000B6H   SFRSYM    DATA     BYTE      IP2H
      000000A8H   SFRSYM    DATA     BYTE      IE
      000000BBH   SFRSYM    DATA     BYTE      P_SW3
      000000BAH   SFRSYM    DATA     BYTE      P_SW2
      000000A2H   SFRSYM    DATA     BYTE      P_SW1
      000000CEH   SFRSYM    DATA     BYTE      SPCTL
      000000F8H   SFRSYM    DATA     BYTE      P7
      000000E8H   SFRSYM    DATA     BYTE      P6
      000000C8H   SFRSYM    DATA     BYTE      P5
      000000C0H   SFRSYM    DATA     BYTE      P4
      000000B0H   SFRSYM    DATA     BYTE      P3
      000000A0H   SFRSYM    DATA     BYTE      P2
      00000090H   SFRSYM    DATA     BYTE      P1
      00000080H   SFRSYM    DATA     BYTE      P0
      00011FCCH   SYMBOL    XDATA    BYTE      byte
      00011FCDH   SYMBOL    XDATA    BYTE      i
      00011FCEH   SYMBOL    XDATA    BYTE      cmd
      00011FCFH   SYMBOL    XDATA    BYTE      val
      00011EDAH   SYMBOL    XDATA    BYTE      cmd
      00011EDBH   SYMBOL    XDATA    ---       val
      00011BCCH   SYMBOL    XDATA    BYTE      cmd
      00011BCDH   SYMBOL    XDATA    ---       val
      00011BD1H   SYMBOL    XDATA    DWORD     num
      00011FD0H   SYMBOL    XDATA    BYTE      reg
      00011FD1H   SYMBOL    XDATA    BYTE      dat
      00011FD2H   SYMBOL    XDATA    BYTE      reg
      00011FD3H   SYMBOL    XDATA    BYTE      dat
L251 LINKER/LOCATER V4.66.93.0                                                        04/19/2026  22:06:36  PAGE 104


      00011BD5H   SYMBOL    XDATA    BYTE      reg
      00011BD6H   SYMBOL    XDATA    ---       dat
      00011BDAH   SYMBOL    XDATA    DWORD     len
      00011F44H   SYMBOL    XDATA    BYTE      dat
      00011F45H   SYMBOL    XDATA    BYTE      return_state
      00011F46H   SYMBOL    XDATA    WORD      timeout_count
      00011E1AH   SYMBOL    XDATA    ---       dat
      00011E20H   SYMBOL    XDATA    ---       dat
      00011E26H   SYMBOL    XDATA    INT       acc_value
      00011E28H   SYMBOL    XDATA    FLOAT     acc_data
      00011E2CH   SYMBOL    XDATA    INT       gyro_value
      00011E2EH   SYMBOL    XDATA    FLOAT     gyro_data
      00011FF6H   SYMBOL    XDATA    BYTE      return_state

      ---         MODULE    ---      ---       zf_device_imu963ra
      00011325H   PUBLIC    XDATA    INT       imu963ra_acc_x
      00011327H   PUBLIC    XDATA    INT       imu963ra_acc_y
      00011329H   PUBLIC    XDATA    INT       imu963ra_acc_z
      0001132BH   PUBLIC    XDATA    INT       imu963ra_mag_x
      0001132DH   PUBLIC    XDATA    INT       imu963ra_mag_y
      0001132FH   PUBLIC    XDATA    INT       imu963ra_mag_z
      00011331H   PUBLIC    XDATA    INT       imu963ra_gyro_x
      00011333H   PUBLIC    XDATA    INT       imu963ra_gyro_y
      00011335H   PUBLIC    XDATA    INT       imu963ra_gyro_z
      00011337H   PUBLIC    XDATA    ---       imu963ra_transition_factor
      000000D0H   SFRSYM    DATA     BYTE      PSW
      0000009DH   SFRSYM    DATA     BYTE      IRCBAND
      00000097H   SFRSYM    DATA     BYTE      AUXR2
      000000EFH   SFRSYM    DATA     BYTE      AUXINTIF
      000000FDH   SFRSYM    DATA     BYTE      S4CON
      000000ACH   SFRSYM    DATA     BYTE      S3CON
      0000009AH   SFRSYM    DATA     BYTE      S2CON
      000000B7H   SFRSYM    DATA     BYTE      IPH
      000000CDH   SFRSYM    DATA     BYTE      SPSTAT
      000000DDH   SFRSYM    DATA     BYTE      T4T3M
      000000C1H   SFRSYM    DATA     BYTE      WDT_CONTR
      000000DFH   SFRSYM    DATA     BYTE      IP3
      000000F4H   SFRSYM    DATA     BYTE      USBCON
      000000B5H   SFRSYM    DATA     BYTE      IP2
      000000FFH   SFRSYM    DATA     BYTE      RSTCFG
      000000C7H   SFRSYM    DATA     BYTE      IAP_CONTR
      000000F9H   SFRSYM    DATA     BYTE      LINICR
      0000008EH   SFRSYM    DATA     BYTE      AUXR
      000000AFH   SFRSYM    DATA     BYTE      IE2
      000000C0H.2 SFRSYM    DATA     BIT       P42
      00000088H   SFRSYM    DATA     BYTE      TCON
      00000089H   SFRSYM    DATA     BYTE      TMOD
      00000098H   SFRSYM    DATA     BYTE      SCON
      000000F1H   SFRSYM    DATA     BYTE      CANICR
      00000087H   SFRSYM    DATA     BYTE      PCON
      000000BCH   SFRSYM    DATA     BYTE      ADC_CONTR
      000000E7H   SFRSYM    DATA     BYTE      CMPCR2
      000000E6H   SFRSYM    DATA     BYTE      CMPCR1
      000000DEH   SFRSYM    DATA     BYTE      ADCCFG
      000000B8H   SFRSYM    DATA     BYTE      IP
      0000008FH   SFRSYM    DATA     BYTE      INTCLKO
      000000EEH   SFRSYM    DATA     BYTE      IP3H
      000000B6H   SFRSYM    DATA     BYTE      IP2H
      000000A8H   SFRSYM    DATA     BYTE      IE
      000000BBH   SFRSYM    DATA     BYTE      P_SW3
      000000BAH   SFRSYM    DATA     BYTE      P_SW2
      000000A2H   SFRSYM    DATA     BYTE      P_SW1
      000000CEH   SFRSYM    DATA     BYTE      SPCTL
      000000F8H   SFRSYM    DATA     BYTE      P7
      000000E8H   SFRSYM    DATA     BYTE      P6
L251 LINKER/LOCATER V4.66.93.0                                                        04/19/2026  22:06:36  PAGE 105


      000000C8H   SFRSYM    DATA     BYTE      P5
      000000C0H   SFRSYM    DATA     BYTE      P4
      000000B0H   SFRSYM    DATA     BYTE      P3
      000000A0H   SFRSYM    DATA     BYTE      P2
      00000090H   SFRSYM    DATA     BYTE      P1
      00000080H   SFRSYM    DATA     BYTE      P0
      00011FD4H   SYMBOL    XDATA    BYTE      reg
      00011FD5H   SYMBOL    XDATA    BYTE      dat
      00011FD6H   SYMBOL    XDATA    BYTE      reg
      00011FD7H   SYMBOL    XDATA    BYTE      dat
      00011BDEH   SYMBOL    XDATA    BYTE      reg
      00011BDFH   SYMBOL    XDATA    ---       dat
      00011BE3H   SYMBOL    XDATA    DWORD     len
      00011E32H   SYMBOL    XDATA    BYTE      addr
      00011E33H   SYMBOL    XDATA    BYTE      reg
      00011E34H   SYMBOL    XDATA    BYTE      dat
      00011E35H   SYMBOL    XDATA    BYTE      return_state
      00011E36H   SYMBOL    XDATA    WORD      timeout_count
      00011F48H   SYMBOL    XDATA    BYTE      addr
      00011F49H   SYMBOL    XDATA    BYTE      reg
      00011F4AH   SYMBOL    XDATA    WORD      timeout_count
      00011FD8H   SYMBOL    XDATA    BYTE      addr
      00011FD9H   SYMBOL    XDATA    BYTE      reg
      00011F4CH   SYMBOL    XDATA    BYTE      return_state
      00011F4DH   SYMBOL    XDATA    BYTE      dat
      00011F4EH   SYMBOL    XDATA    WORD      timeout_count
      00011F50H   SYMBOL    XDATA    BYTE      return_state
      00011F51H   SYMBOL    XDATA    BYTE      dat
      00011F52H   SYMBOL    XDATA    WORD      timeout_count
      00011E38H   SYMBOL    XDATA    ---       dat
      00011E3EH   SYMBOL    XDATA    ---       dat
      00011D94H   SYMBOL    XDATA    BYTE      temp_status
      00011D95H   SYMBOL    XDATA    ---       dat
      00011FF7H   SYMBOL    XDATA    BYTE      return_state

      ---         MODULE    ---      ---       zf_device_ips114
      00FF80F3H   PUBLIC    CODE     ---       ips114_show_char
      00FF820FH   PUBLIC    CODE     ---       ips114_show_uint16
      00FFA3C3H   PUBLIC    CODE     ---       ips114_set_color
      00FFA215H   PUBLIC    CODE     ---       ips114_set_dir
      00FF9568H   PUBLIC    CODE     ---       ips114_clear
      00FF5F1EH   PUBLIC    CODE     ---       ips114_init
      00011D00H   PUBLIC    XDATA    WORD      ips114_pencolor
      00011D02H   PUBLIC    XDATA    WORD      ips114_bgcolor
      00011D04H   PUBLIC    XDATA    INT       ips114_display_dir
      00011D06H   PUBLIC    XDATA    BYTE      ips114_x_max
      00011D07H   PUBLIC    XDATA    BYTE      ips114_y_max
      00010FF1H   PUBLIC    XDATA    BYTE      ?ips114_show_float?BYTE
      0001124AH   PUBLIC    XDATA    BYTE      ?ips114_show_wave?BYTE
      000113E4H   PUBLIC    XDATA    BYTE      ?ips114_show_chinese?BYTE
      000000D0H   SFRSYM    DATA     BYTE      PSW
      0000009DH   SFRSYM    DATA     BYTE      IRCBAND
      00000097H   SFRSYM    DATA     BYTE      AUXR2
      000000EFH   SFRSYM    DATA     BYTE      AUXINTIF
      000000FDH   SFRSYM    DATA     BYTE      S4CON
      000000ACH   SFRSYM    DATA     BYTE      S3CON
      0000009AH   SFRSYM    DATA     BYTE      S2CON
      000000B7H   SFRSYM    DATA     BYTE      IPH
      000000CDH   SFRSYM    DATA     BYTE      SPSTAT
      000000DDH   SFRSYM    DATA     BYTE      T4T3M
      000000C1H   SFRSYM    DATA     BYTE      WDT_CONTR
      000000DFH   SFRSYM    DATA     BYTE      IP3
      000000F4H   SFRSYM    DATA     BYTE      USBCON
      000000B5H   SFRSYM    DATA     BYTE      IP2
      000000FFH   SFRSYM    DATA     BYTE      RSTCFG
L251 LINKER/LOCATER V4.66.93.0                                                        04/19/2026  22:06:36  PAGE 106


      000000C7H   SFRSYM    DATA     BYTE      IAP_CONTR
      000000F9H   SFRSYM    DATA     BYTE      LINICR
      0000008EH   SFRSYM    DATA     BYTE      AUXR
      000000AFH   SFRSYM    DATA     BYTE      IE2
      00000088H   SFRSYM    DATA     BYTE      TCON
      00000089H   SFRSYM    DATA     BYTE      TMOD
      00000098H   SFRSYM    DATA     BYTE      SCON
      000000A0H.2 SFRSYM    DATA     BIT       P22
      000000A0H.1 SFRSYM    DATA     BIT       P21
      000000A0H.0 SFRSYM    DATA     BIT       P20
      000000F1H   SFRSYM    DATA     BYTE      CANICR
      00000087H   SFRSYM    DATA     BYTE      PCON
      000000BCH   SFRSYM    DATA     BYTE      ADC_CONTR
      000000E7H   SFRSYM    DATA     BYTE      CMPCR2
      000000E6H   SFRSYM    DATA     BYTE      CMPCR1
      000000DEH   SFRSYM    DATA     BYTE      ADCCFG
      000000B8H   SFRSYM    DATA     BYTE      IP
      0000008FH   SFRSYM    DATA     BYTE      INTCLKO
      000000EEH   SFRSYM    DATA     BYTE      IP3H
      000000B6H   SFRSYM    DATA     BYTE      IP2H
      000000A8H   SFRSYM    DATA     BYTE      IE
      000000BBH   SFRSYM    DATA     BYTE      P_SW3
      000000BAH   SFRSYM    DATA     BYTE      P_SW2
      000000A2H   SFRSYM    DATA     BYTE      P_SW1
      000000CEH   SFRSYM    DATA     BYTE      SPCTL
      000000F8H   SFRSYM    DATA     BYTE      P7
      000000E8H   SFRSYM    DATA     BYTE      P6
      000000C8H   SFRSYM    DATA     BYTE      P5
      000000C0H   SFRSYM    DATA     BYTE      P4
      000000B0H   SFRSYM    DATA     BYTE      P3
      000000A0H   SFRSYM    DATA     BYTE      P2
      00000090H   SFRSYM    DATA     BYTE      P1
      00000080H   SFRSYM    DATA     BYTE      P0
      00FFA455H   SYMBOL    CODE     ---       ips114_write_index
      00FF6463H   SYMBOL    CODE     ---       ips114_set_region

      00FFA455H   BLOCK     CODE     ---       LVL=0
      00011FF8H   SYMBOL    XDATA    BYTE      dat
      00FFA455H   LINE      CODE     ---       #83
      00FFA459H   LINE      CODE     ---       #85
      00FFA45CH   LINE      CODE     ---       #86
      00FFA45FH   LINE      CODE     ---       #87
      00FFA462H   LINE      CODE     ---       #88
      00FFA46DH   LINE      CODE     ---       #89
      00FFA470H   LINE      CODE     ---       #90
      00FFA473H   LINE      CODE     ---       #91
      00FFA476H   LINE      CODE     ---       #92
      ---         BLOCKEND  ---      ---       LVL=0

      00FF6463H   BLOCK     CODE     ---       LVL=0
      00011D08H   SYMBOL    XDATA    WORD      x1
      00011D0AH   SYMBOL    XDATA    WORD      y1
      00011D0CH   SYMBOL    XDATA    WORD      x2
      00011D0EH   SYMBOL    XDATA    WORD      y2
      00FF6463H   LINE      CODE     ---       #103
      00FF647BH   LINE      CODE     ---       #105
      00FF649FH   LINE      CODE     ---       #106
      00FF64C3H   LINE      CODE     ---       #107
      00FF64E7H   LINE      CODE     ---       #108
      00FF650BH   LINE      CODE     ---       #110
      00FF6517H   LINE      CODE     ---       #112
      00FF651CH   LINE      CODE     ---       #113
      00FF652FH   LINE      CODE     ---       #114
      00FF6542H   LINE      CODE     ---       #115
      00FF6547H   LINE      CODE     ---       #116
L251 LINKER/LOCATER V4.66.93.0                                                        04/19/2026  22:06:36  PAGE 107


      00FF655AH   LINE      CODE     ---       #117
      00FF656DH   LINE      CODE     ---       #118
      00FF6572H   LINE      CODE     ---       #119
      00FF6575H   LINE      CODE     ---       #120
      00FF6583H   LINE      CODE     ---       #122
      00FF6588H   LINE      CODE     ---       #123
      00FF659BH   LINE      CODE     ---       #124
      00FF65AEH   LINE      CODE     ---       #125
      00FF65B3H   LINE      CODE     ---       #126
      00FF65C6H   LINE      CODE     ---       #127
      00FF65D9H   LINE      CODE     ---       #128
      00FF65DEH   LINE      CODE     ---       #129
      00FF65E1H   LINE      CODE     ---       #130
      00FF65EFH   LINE      CODE     ---       #132
      00FF65F4H   LINE      CODE     ---       #133
      00FF6607H   LINE      CODE     ---       #134
      00FF661AH   LINE      CODE     ---       #135
      00FF661FH   LINE      CODE     ---       #136
      00FF6632H   LINE      CODE     ---       #137
      00FF6645H   LINE      CODE     ---       #138
      00FF664AH   LINE      CODE     ---       #139
      00FF664CH   LINE      CODE     ---       #142
      00FF6651H   LINE      CODE     ---       #143
      00FF6664H   LINE      CODE     ---       #144
      00FF6677H   LINE      CODE     ---       #145
      00FF667CH   LINE      CODE     ---       #146
      00FF668FH   LINE      CODE     ---       #147
      00FF66A2H   LINE      CODE     ---       #148
      00FF66A7H   LINE      CODE     ---       #149
      00FF66A7H   LINE      CODE     ---       #150
      ---         BLOCKEND  ---      ---       LVL=0

      00FF9568H   BLOCK     CODE     ---       LVL=0
      00011E44H   SYMBOL    XDATA    WORD      color
      00FF956EH   BLOCK     CODE     NEAR LAB  LVL=1
      00011E46H   SYMBOL    XDATA    WORD      i
      00011E48H   SYMBOL    XDATA    WORD      j
      ---         BLOCKEND  ---      ---       LVL=1
      00FF9568H   LINE      CODE     ---       #158
      00FF956EH   LINE      CODE     ---       #159
      00FF956EH   LINE      CODE     ---       #161
      00FF958DH   LINE      CODE     ---       #163
      00FF9597H   LINE      CODE     ---       #165
      00FF95A1H   LINE      CODE     ---       #167
      00FF95AEH   LINE      CODE     ---       #168
      00FF95CDH   LINE      CODE     ---       #169
      00FF95ECH   LINE      CODE     ---       #170
      ---         BLOCKEND  ---      ---       LVL=0

      00FFA215H   BLOCK     CODE     ---       LVL=0
      00011FDAH   SYMBOL    XDATA    INT       dir
      00FFA215H   LINE      CODE     ---       #178
      00FFA21BH   LINE      CODE     ---       #180
      00FFA227H   LINE      CODE     ---       #181
      00FFA235H   LINE      CODE     ---       #183
      00FFA23BH   LINE      CODE     ---       #184
      00FFA241H   LINE      CODE     ---       #185
      00FFA243H   LINE      CODE     ---       #188
      00FFA249H   LINE      CODE     ---       #189
      00FFA24FH   LINE      CODE     ---       #190
      00FFA24FH   LINE      CODE     ---       #191
      ---         BLOCKEND  ---      ---       LVL=0

      00FFA3C3H   BLOCK     CODE     ---       LVL=0
      00011F54H   SYMBOL    XDATA    WORD      pen
L251 LINKER/LOCATER V4.66.93.0                                                        04/19/2026  22:06:36  PAGE 108


      00011F56H   SYMBOL    XDATA    WORD      bgcolor
      00FFA3C3H   LINE      CODE     ---       #200
      00FFA3CFH   LINE      CODE     ---       #202
      00FFA3DBH   LINE      CODE     ---       #203
      00FFA3E7H   LINE      CODE     ---       #204
      ---         BLOCKEND  ---      ---       LVL=0
      00011E4AH   SYMBOL    XDATA    WORD      x
      00011E4CH   SYMBOL    XDATA    WORD      y
      00011E4EH   SYMBOL    XDATA    WORD      color

      00FF80F3H   BLOCK     CODE     ---       LVL=0
      00011D10H   SYMBOL    XDATA    WORD      x
      00011D12H   SYMBOL    XDATA    WORD      y
      00011D14H   SYMBOL    XDATA    CHAR      dat
      00FF8103H   BLOCK     CODE     NEAR LAB  LVL=1
      00011D15H   SYMBOL    XDATA    BYTE      i
      00011D16H   SYMBOL    XDATA    BYTE      j
      00011D17H   SYMBOL    XDATA    BYTE      temp
      ---         BLOCKEND  ---      ---       LVL=1
      00FF80F3H   LINE      CODE     ---       #231
      00FF8103H   LINE      CODE     ---       #232
      00FF8103H   LINE      CODE     ---       #236
      00FF8127H   LINE      CODE     ---       #237
      00FF814BH   LINE      CODE     ---       #239
      00FF8153H   LINE      CODE     ---       #241
      00FF8184H   LINE      CODE     ---       #242
      00FF81ACH   LINE      CODE     ---       #243
      00FF81B3H   LINE      CODE     ---       #245
      00FF81BAH   LINE      CODE     ---       #246
      00FF81C9H   LINE      CODE     ---       #248
      00FF81D6H   LINE      CODE     ---       #249
      00FF81DDH   LINE      CODE     ---       #250
      00FF81F4H   LINE      CODE     ---       #251
      00FF820EH   LINE      CODE     ---       #252
      ---         BLOCKEND  ---      ---       LVL=0
      00011B48H   SYMBOL    XDATA    WORD      x
      00011B4AH   SYMBOL    XDATA    WORD      y
      00011B4CH   SYMBOL    XDATA    ---       dat
      00011B50H   SYMBOL    XDATA    WORD      j
      00011BE7H   SYMBOL    XDATA    WORD      x
      00011BE9H   SYMBOL    XDATA    WORD      y
      00011BEBH   SYMBOL    XDATA    CHAR      dat
      00011BECH   SYMBOL    XDATA    ---       a
      00011BEFH   SYMBOL    XDATA    BYTE      i
      00011BF0H   SYMBOL    XDATA    WORD      x
      00011BF2H   SYMBOL    XDATA    WORD      y
      00011BF4H   SYMBOL    XDATA    BYTE      dat
      00011BF5H   SYMBOL    XDATA    ---       a
      00011BF8H   SYMBOL    XDATA    BYTE      i
      000119ECH   SYMBOL    XDATA    WORD      x
      000119EEH   SYMBOL    XDATA    WORD      y
      000119F0H   SYMBOL    XDATA    INT       dat
      000119F2H   SYMBOL    XDATA    ---       a
      000119F7H   SYMBOL    XDATA    BYTE      i

      00FF820FH   BLOCK     CODE     ---       LVL=0
      000119F8H   SYMBOL    XDATA    WORD      x
      000119FAH   SYMBOL    XDATA    WORD      y
      000119FCH   SYMBOL    XDATA    WORD      dat
      00FF8221H   BLOCK     CODE     NEAR LAB  LVL=1
      000119FEH   SYMBOL    XDATA    ---       a
      00011A03H   SYMBOL    XDATA    BYTE      i
      ---         BLOCKEND  ---      ---       LVL=1
      00FF820FH   LINE      CODE     ---       #384
      00FF8221H   LINE      CODE     ---       #385
L251 LINKER/LOCATER V4.66.93.0                                                        04/19/2026  22:06:36  PAGE 109


      00FF8221H   LINE      CODE     ---       #389
      00FF8245H   LINE      CODE     ---       #390
      00FF8269H   LINE      CODE     ---       #392
      00FF8279H   LINE      CODE     ---       #393
      00FF8291H   LINE      CODE     ---       #394
      00FF82A9H   LINE      CODE     ---       #395
      00FF82C1H   LINE      CODE     ---       #396
      00FF82D3H   LINE      CODE     ---       #398
      00FF82D8H   LINE      CODE     ---       #399
      00FF82DAH   LINE      CODE     ---       #401
      00FF8310H   LINE      CODE     ---       #402
      00FF831BH   LINE      CODE     ---       #403
      00FF8327H   LINE      CODE     ---       #404
      ---         BLOCKEND  ---      ---       LVL=0
      000110B0H   SYMBOL    XDATA    WORD      x
      000110B2H   SYMBOL    XDATA    WORD      y
      000110B4H   SYMBOL    XDATA    LONG      dat
      000110B8H   SYMBOL    XDATA    BYTE      num
      000110B9H   SYMBOL    XDATA    ---       buff
      000110DBH   SYMBOL    XDATA    BYTE      length
      00010FF1H   SYMBOL    XDATA    WORD      x
      00010FF3H   SYMBOL    XDATA    WORD      y
      00010FF5H   SYMBOL    XDATA    FLOAT     dat
      00010FF9H   SYMBOL    XDATA    BYTE      num
      00010FFAH   SYMBOL    XDATA    BYTE      pointnum
      00010FFBH   SYMBOL    XDATA    BYTE      length
      00010FFCH   SYMBOL    XDATA    ---       buff
      0001101EH   SYMBOL    XDATA    CHAR      start
      0001101FH   SYMBOL    XDATA    CHAR      end
      00011020H   SYMBOL    XDATA    CHAR      point
      0001124AH   SYMBOL    XDATA    WORD      x
      0001124CH   SYMBOL    XDATA    WORD      y
      0001124EH   SYMBOL    XDATA    ---       p
      00011252H   SYMBOL    XDATA    WORD      width
      00011254H   SYMBOL    XDATA    WORD      value_max
      00011256H   SYMBOL    XDATA    WORD      dis_width
      00011258H   SYMBOL    XDATA    WORD      dis_value_max
      0001125AH   SYMBOL    XDATA    DWORD     i
      0001125EH   SYMBOL    XDATA    DWORD     j
      00011262H   SYMBOL    XDATA    DWORD     width_index
      00011266H   SYMBOL    XDATA    DWORD     value_max_index
      000113E4H   SYMBOL    XDATA    WORD      x
      000113E6H   SYMBOL    XDATA    WORD      y
      000113E8H   SYMBOL    XDATA    BYTE      siz
      000113E9H   SYMBOL    XDATA    ---       p
      000113EDH   SYMBOL    XDATA    BYTE      number
      000113EEH   SYMBOL    XDATA    WORD      color
      000113F0H   SYMBOL    XDATA    INT       i
      000113F2H   SYMBOL    XDATA    INT       j
      000113F4H   SYMBOL    XDATA    INT       k
      000113F6H   SYMBOL    XDATA    BYTE      temp
      000113F7H   SYMBOL    XDATA    BYTE      temp1
      000113F8H   SYMBOL    XDATA    BYTE      temp2
      000113F9H   SYMBOL    XDATA    ---       p_data

      00FF5F1EH   BLOCK     CODE     ---       LVL=0
      00FF5F1EH   LINE      CODE     ---       #585
      00FF5F1EH   LINE      CODE     ---       #590
      00FF5F2FH   LINE      CODE     ---       #591
      00FF5F40H   LINE      CODE     ---       #592
      00FF5F79H   LINE      CODE     ---       #600
      00FF5F82H   LINE      CODE     ---       #601
      00FF5F91H   LINE      CODE     ---       #603
      00FF5F94H   LINE      CODE     ---       #604
      00FF5F9BH   LINE      CODE     ---       #606
L251 LINKER/LOCATER V4.66.93.0                                                        04/19/2026  22:06:36  PAGE 110


      00FF5F9EH   LINE      CODE     ---       #607
      00FF5FA5H   LINE      CODE     ---       #609
      00FF5FAAH   LINE      CODE     ---       #610
      00FF5FB1H   LINE      CODE     ---       #611
      00FF5FC7H   LINE      CODE     ---       #612
      00FF5FE0H   LINE      CODE     ---       #613
      00FF5FF9H   LINE      CODE     ---       #614
      00FF6002H   LINE      CODE     ---       #616
      00FF6007H   LINE      CODE     ---       #617
      00FF6010H   LINE      CODE     ---       #619
      00FF6015H   LINE      CODE     ---       #620
      00FF601EH   LINE      CODE     ---       #621
      00FF6027H   LINE      CODE     ---       #622
      00FF602FH   LINE      CODE     ---       #623
      00FF6038H   LINE      CODE     ---       #624
      00FF6041H   LINE      CODE     ---       #626
      00FF6046H   LINE      CODE     ---       #627
      00FF604FH   LINE      CODE     ---       #629
      00FF6054H   LINE      CODE     ---       #630
      00FF605DH   LINE      CODE     ---       #632
      00FF6062H   LINE      CODE     ---       #633
      00FF606BH   LINE      CODE     ---       #635
      00FF6070H   LINE      CODE     ---       #636
      00FF6079H   LINE      CODE     ---       #638
      00FF607EH   LINE      CODE     ---       #639
      00FF6087H   LINE      CODE     ---       #641
      00FF608CH   LINE      CODE     ---       #642
      00FF6095H   LINE      CODE     ---       #644
      00FF609AH   LINE      CODE     ---       #645
      00FF60A3H   LINE      CODE     ---       #647
      00FF60A8H   LINE      CODE     ---       #648
      00FF60B1H   LINE      CODE     ---       #649
      00FF60BAH   LINE      CODE     ---       #651
      00FF60BFH   LINE      CODE     ---       #652
      00FF60C8H   LINE      CODE     ---       #653
      00FF60D1H   LINE      CODE     ---       #654
      00FF60DAH   LINE      CODE     ---       #655
      00FF60E3H   LINE      CODE     ---       #656
      00FF60ECH   LINE      CODE     ---       #657
      00FF60F5H   LINE      CODE     ---       #658
      00FF60FEH   LINE      CODE     ---       #659
      00FF6107H   LINE      CODE     ---       #660
      00FF6110H   LINE      CODE     ---       #661
      00FF6119H   LINE      CODE     ---       #662
      00FF6122H   LINE      CODE     ---       #663
      00FF612BH   LINE      CODE     ---       #664
      00FF6134H   LINE      CODE     ---       #665
      00FF613DH   LINE      CODE     ---       #667
      00FF6142H   LINE      CODE     ---       #668
      00FF614BH   LINE      CODE     ---       #669
      00FF6154H   LINE      CODE     ---       #670
      00FF615DH   LINE      CODE     ---       #671
      00FF6166H   LINE      CODE     ---       #672
      00FF616FH   LINE      CODE     ---       #673
      00FF6178H   LINE      CODE     ---       #674
      00FF6181H   LINE      CODE     ---       #675
      00FF618AH   LINE      CODE     ---       #676
      00FF6193H   LINE      CODE     ---       #677
      00FF619CH   LINE      CODE     ---       #678
      00FF61A5H   LINE      CODE     ---       #679
      00FF61AEH   LINE      CODE     ---       #680
      00FF61B7H   LINE      CODE     ---       #681
      00FF61C0H   LINE      CODE     ---       #683
      00FF61C5H   LINE      CODE     ---       #685
      00FF61CAH   LINE      CODE     ---       #686
L251 LINKER/LOCATER V4.66.93.0                                                        04/19/2026  22:06:36  PAGE 111


      00FF61D1H   LINE      CODE     ---       #688
      00FF61D6H   LINE      CODE     ---       #690
      00FF61DFH   LINE      CODE     ---       #691
      ---         BLOCKEND  ---      ---       LVL=0

      ---         MODULE    ---      ---       zf_device_ips200
      00011B52H   PUBLIC    XDATA    WORD      ips200_pencolor
      00011B54H   PUBLIC    XDATA    WORD      ips200_bgcolor
      00011B56H   PUBLIC    XDATA    INT       ips200_display_dir
      00011B58H   PUBLIC    XDATA    WORD      ips200_x_max
      00011B5AH   PUBLIC    XDATA    WORD      ips200_y_max
      00011021H   PUBLIC    XDATA    BYTE      ?ips200_show_float?BYTE
      0001126AH   PUBLIC    XDATA    BYTE      ?ips200_show_wave?BYTE
      000113FDH   PUBLIC    XDATA    BYTE      ?ips200_show_chinese?BYTE
      000000D0H   SFRSYM    DATA     BYTE      PSW
      0000009DH   SFRSYM    DATA     BYTE      IRCBAND
      00000097H   SFRSYM    DATA     BYTE      AUXR2
      000000EFH   SFRSYM    DATA     BYTE      AUXINTIF
      000000FDH   SFRSYM    DATA     BYTE      S4CON
      000000ACH   SFRSYM    DATA     BYTE      S3CON
      0000009AH   SFRSYM    DATA     BYTE      S2CON
      000000B7H   SFRSYM    DATA     BYTE      IPH
      000000CDH   SFRSYM    DATA     BYTE      SPSTAT
      000000DDH   SFRSYM    DATA     BYTE      T4T3M
      000000C1H   SFRSYM    DATA     BYTE      WDT_CONTR
      000000DFH   SFRSYM    DATA     BYTE      IP3
      000000F4H   SFRSYM    DATA     BYTE      USBCON
      000000B5H   SFRSYM    DATA     BYTE      IP2
      000000FFH   SFRSYM    DATA     BYTE      RSTCFG
      000000C7H   SFRSYM    DATA     BYTE      IAP_CONTR
      000000F9H   SFRSYM    DATA     BYTE      LINICR
      0000008EH   SFRSYM    DATA     BYTE      AUXR
      000000AFH   SFRSYM    DATA     BYTE      IE2
      00000088H   SFRSYM    DATA     BYTE      TCON
      00000089H   SFRSYM    DATA     BYTE      TMOD
      00000098H   SFRSYM    DATA     BYTE      SCON
      000000A0H.2 SFRSYM    DATA     BIT       P22
      000000A0H.1 SFRSYM    DATA     BIT       P21
      000000A0H.0 SFRSYM    DATA     BIT       P20
      000000F1H   SFRSYM    DATA     BYTE      CANICR
      00000087H   SFRSYM    DATA     BYTE      PCON
      000000BCH   SFRSYM    DATA     BYTE      ADC_CONTR
      000000E7H   SFRSYM    DATA     BYTE      CMPCR2
      000000E6H   SFRSYM    DATA     BYTE      CMPCR1
      000000DEH   SFRSYM    DATA     BYTE      ADCCFG
      000000B8H   SFRSYM    DATA     BYTE      IP
      0000008FH   SFRSYM    DATA     BYTE      INTCLKO
      000000EEH   SFRSYM    DATA     BYTE      IP3H
      000000B6H   SFRSYM    DATA     BYTE      IP2H
      000000A8H   SFRSYM    DATA     BYTE      IE
      000000BBH   SFRSYM    DATA     BYTE      P_SW3
      000000BAH   SFRSYM    DATA     BYTE      P_SW2
      000000A2H   SFRSYM    DATA     BYTE      P_SW1
      000000CEH   SFRSYM    DATA     BYTE      SPCTL
      000000F8H   SFRSYM    DATA     BYTE      P7
      000000E8H   SFRSYM    DATA     BYTE      P6
      000000C8H   SFRSYM    DATA     BYTE      P5
      000000C0H   SFRSYM    DATA     BYTE      P4
      000000B0H   SFRSYM    DATA     BYTE      P3
      000000A0H   SFRSYM    DATA     BYTE      P2
      00000090H   SFRSYM    DATA     BYTE      P1
      00000080H   SFRSYM    DATA     BYTE      P0
      00011FF9H   SYMBOL    XDATA    BYTE      dat
      00011D18H   SYMBOL    XDATA    WORD      x1
      00011D1AH   SYMBOL    XDATA    WORD      y1
L251 LINKER/LOCATER V4.66.93.0                                                        04/19/2026  22:06:36  PAGE 112


      00011D1CH   SYMBOL    XDATA    WORD      x2
      00011D1EH   SYMBOL    XDATA    WORD      y2
      00011E50H   SYMBOL    XDATA    WORD      color
      00011E52H   SYMBOL    XDATA    WORD      i
      00011E54H   SYMBOL    XDATA    WORD      j
      00011FDCH   SYMBOL    XDATA    INT       dir
      00011F58H   SYMBOL    XDATA    WORD      pen
      00011F5AH   SYMBOL    XDATA    WORD      bgcolor
      00011E56H   SYMBOL    XDATA    WORD      x
      00011E58H   SYMBOL    XDATA    WORD      y
      00011E5AH   SYMBOL    XDATA    WORD      color
      00011D20H   SYMBOL    XDATA    WORD      x
      00011D22H   SYMBOL    XDATA    WORD      y
      00011D24H   SYMBOL    XDATA    CHAR      dat
      00011D25H   SYMBOL    XDATA    BYTE      i
      00011D26H   SYMBOL    XDATA    BYTE      j
      00011D27H   SYMBOL    XDATA    BYTE      temp
      00011B5CH   SYMBOL    XDATA    WORD      x
      00011B5EH   SYMBOL    XDATA    WORD      y
      00011B60H   SYMBOL    XDATA    ---       dat
      00011B64H   SYMBOL    XDATA    WORD      j
      00011BF9H   SYMBOL    XDATA    WORD      x
      00011BFBH   SYMBOL    XDATA    WORD      y
      00011BFDH   SYMBOL    XDATA    CHAR      dat
      00011BFEH   SYMBOL    XDATA    ---       a
      00011C01H   SYMBOL    XDATA    BYTE      i
      00011C02H   SYMBOL    XDATA    WORD      x
      00011C04H   SYMBOL    XDATA    WORD      y
      00011C06H   SYMBOL    XDATA    BYTE      dat
      00011C07H   SYMBOL    XDATA    ---       a
      00011C0AH   SYMBOL    XDATA    BYTE      i
      00011A04H   SYMBOL    XDATA    WORD      x
      00011A06H   SYMBOL    XDATA    WORD      y
      00011A08H   SYMBOL    XDATA    INT       dat
      00011A0AH   SYMBOL    XDATA    ---       a
      00011A0FH   SYMBOL    XDATA    BYTE      i
      00011A10H   SYMBOL    XDATA    WORD      x
      00011A12H   SYMBOL    XDATA    WORD      y
      00011A14H   SYMBOL    XDATA    WORD      dat
      00011A16H   SYMBOL    XDATA    ---       a
      00011A1BH   SYMBOL    XDATA    BYTE      i
      000110DCH   SYMBOL    XDATA    WORD      x
      000110DEH   SYMBOL    XDATA    WORD      y
      000110E0H   SYMBOL    XDATA    LONG      dat
      000110E4H   SYMBOL    XDATA    BYTE      num
      000110E5H   SYMBOL    XDATA    ---       buff
      00011107H   SYMBOL    XDATA    BYTE      length
      00011021H   SYMBOL    XDATA    WORD      x
      00011023H   SYMBOL    XDATA    WORD      y
      00011025H   SYMBOL    XDATA    FLOAT     dat
      00011029H   SYMBOL    XDATA    BYTE      num
      0001102AH   SYMBOL    XDATA    BYTE      pointnum
      0001102BH   SYMBOL    XDATA    BYTE      length
      0001102CH   SYMBOL    XDATA    ---       buff
      0001104EH   SYMBOL    XDATA    CHAR      start
      0001104FH   SYMBOL    XDATA    CHAR      end
      00011050H   SYMBOL    XDATA    CHAR      point
      0001126AH   SYMBOL    XDATA    WORD      x
      0001126CH   SYMBOL    XDATA    WORD      y
      0001126EH   SYMBOL    XDATA    ---       p
      00011272H   SYMBOL    XDATA    WORD      width
      00011274H   SYMBOL    XDATA    WORD      value_max
      00011276H   SYMBOL    XDATA    WORD      dis_width
      00011278H   SYMBOL    XDATA    WORD      dis_value_max
      0001127AH   SYMBOL    XDATA    DWORD     i
L251 LINKER/LOCATER V4.66.93.0                                                        04/19/2026  22:06:36  PAGE 113


      0001127EH   SYMBOL    XDATA    DWORD     j
      00011282H   SYMBOL    XDATA    DWORD     width_index
      00011286H   SYMBOL    XDATA    DWORD     value_max_index
      000113FDH   SYMBOL    XDATA    WORD      x
      000113FFH   SYMBOL    XDATA    WORD      y
      00011401H   SYMBOL    XDATA    BYTE      siz
      00011402H   SYMBOL    XDATA    ---       p
      00011406H   SYMBOL    XDATA    BYTE      number
      00011407H   SYMBOL    XDATA    WORD      color
      00011409H   SYMBOL    XDATA    INT       i
      0001140BH   SYMBOL    XDATA    INT       j
      0001140DH   SYMBOL    XDATA    INT       k
      0001140FH   SYMBOL    XDATA    BYTE      temp
      00011410H   SYMBOL    XDATA    BYTE      temp1
      00011411H   SYMBOL    XDATA    BYTE      temp2
      00011412H   SYMBOL    XDATA    ---       p_data

      ---         MODULE    ---      ---       zf_device_ips200pro
      00010E60H   PUBLIC    XDATA    ---       ips200pro_information
      00010E69H   PUBLIC    XDATA    ---       ips200pro_time
      0001181BH   PUBLIC    XDATA    BYTE      ?ips200pro_send_buffer?BYTE
      000118C8H   PUBLIC    XDATA    BYTE      ?ips200pro_receive_buffer?BYTE
      000112C9H   PUBLIC    XDATA    BYTE      ?ips200pro_write_packet?BYTE
      0001137CH   PUBLIC    XDATA    BYTE      ?ips200pro_create_widgets?BYTE
      00010F72H   PUBLIC    XDATA    BYTE      ?ips200pro_label_printf?BYTE
      00010EECH   PUBLIC    XDATA    BYTE      ?ips200pro_table_cell_printf?BYTE
      00011397H   PUBLIC    XDATA    BYTE      ?ips200pro_waveform_add_value?BYTE
      000111B3H   PUBLIC    XDATA    BYTE      ?ips200pro_image_display?BYTE
      000113B1H   PUBLIC    XDATA    BYTE      ?ips200pro_image_draw_line?BYTE
      00011228H   PUBLIC    XDATA    BYTE      ?ips200pro_image_draw_rectangle?BYTE
      000000D0H   SFRSYM    DATA     BYTE      PSW
      0000009DH   SFRSYM    DATA     BYTE      IRCBAND
      00000097H   SFRSYM    DATA     BYTE      AUXR2
      000000EFH   SFRSYM    DATA     BYTE      AUXINTIF
      000000FDH   SFRSYM    DATA     BYTE      S4CON
      000000ACH   SFRSYM    DATA     BYTE      S3CON
      0000009AH   SFRSYM    DATA     BYTE      S2CON
      000000B7H   SFRSYM    DATA     BYTE      IPH
      000000CDH   SFRSYM    DATA     BYTE      SPSTAT
      000000DDH   SFRSYM    DATA     BYTE      T4T3M
      000000C1H   SFRSYM    DATA     BYTE      WDT_CONTR
      000000DFH   SFRSYM    DATA     BYTE      IP3
      000000F4H   SFRSYM    DATA     BYTE      USBCON
      000000B5H   SFRSYM    DATA     BYTE      IP2
      000000FFH   SFRSYM    DATA     BYTE      RSTCFG
      000000C7H   SFRSYM    DATA     BYTE      IAP_CONTR
      000000F9H   SFRSYM    DATA     BYTE      LINICR
      0000008EH   SFRSYM    DATA     BYTE      AUXR
      000000AFH   SFRSYM    DATA     BYTE      IE2
      00000088H   SFRSYM    DATA     BYTE      TCON
      00000089H   SFRSYM    DATA     BYTE      TMOD
      00000098H   SFRSYM    DATA     BYTE      SCON
      000000A0H.2 SFRSYM    DATA     BIT       P22
      000000A0H.1 SFRSYM    DATA     BIT       P21
      000000F1H   SFRSYM    DATA     BYTE      CANICR
      00000087H   SFRSYM    DATA     BYTE      PCON
      000000BCH   SFRSYM    DATA     BYTE      ADC_CONTR
      000000E7H   SFRSYM    DATA     BYTE      CMPCR2
      000000E6H   SFRSYM    DATA     BYTE      CMPCR1
      000000DEH   SFRSYM    DATA     BYTE      ADCCFG
      000000B8H   SFRSYM    DATA     BYTE      IP
      0000008FH   SFRSYM    DATA     BYTE      INTCLKO
      000000EEH   SFRSYM    DATA     BYTE      IP3H
      000000B6H   SFRSYM    DATA     BYTE      IP2H
      000000A8H   SFRSYM    DATA     BYTE      IE
L251 LINKER/LOCATER V4.66.93.0                                                        04/19/2026  22:06:36  PAGE 114


      000000BBH   SFRSYM    DATA     BYTE      P_SW3
      000000BAH   SFRSYM    DATA     BYTE      P_SW2
      000000A2H   SFRSYM    DATA     BYTE      P_SW1
      000000CEH   SFRSYM    DATA     BYTE      SPCTL
      000000F8H   SFRSYM    DATA     BYTE      P7
      000000E8H   SFRSYM    DATA     BYTE      P6
      000000C8H   SFRSYM    DATA     BYTE      P5
      000000C0H   SFRSYM    DATA     BYTE      P4
      000000B0H   SFRSYM    DATA     BYTE      P3
      000000A0H   SFRSYM    DATA     BYTE      P2
      00000090H   SFRSYM    DATA     BYTE      P1
      00000080H   SFRSYM    DATA     BYTE      P0
      00010E2DH   SYMBOL    XDATA    ---       ips200pro_printf_buffer
      00010E71H   SYMBOL    XDATA    BYTE      ips200pro_page_num
      00011F5CH   SYMBOL    XDATA    DWORD     wait_time
      0001181BH   SYMBOL    XDATA    ---       buffer
      0001181FH   SYMBOL    XDATA    DWORD     length
      00011823H   SYMBOL    XDATA    DWORD     time_out
      00011827H   SYMBOL    XDATA    BYTE      end_flag
      00011828H   SYMBOL    XDATA    BYTE      return_state
      000118C8H   SYMBOL    XDATA    ---       buffer
      000118CCH   SYMBOL    XDATA    DWORD     length
      000118D0H   SYMBOL    XDATA    DWORD     time_out
      000118D4H   SYMBOL    XDATA    BYTE      return_state
      000112C9H   SYMBOL    XDATA    INT       command1
      000112CBH   SYMBOL    XDATA    INT       command2
      000112CDH   SYMBOL    XDATA    BYTE      widgets_id
      000112CEH   SYMBOL    XDATA    ---       temp
      000112D2H   SYMBOL    XDATA    DWORD     length
      000112D6H   SYMBOL    XDATA    ---       buffer
      000112DAH   SYMBOL    XDATA    DWORD     buffer_length
      000112DEH   SYMBOL    XDATA    BYTE      return_state
      000112DFH   SYMBOL    XDATA    ---       p
      000112E3H   SYMBOL    XDATA    BYTE      tmp
      000112E4H   SYMBOL    XDATA    WORD      i
      000112E6H   SYMBOL    XDATA    WORD      struct_len
      00011D28H   SYMBOL    XDATA    INT       command2
      00011D2AH   SYMBOL    XDATA    ---       temp
      00011D2EH   SYMBOL    XDATA    BYTE      length
      00011D2FH   SYMBOL    XDATA    BYTE      return_state
      0001165FH   SYMBOL    XDATA    WORD      year
      00011661H   SYMBOL    XDATA    BYTE      month
      00011662H   SYMBOL    XDATA    BYTE      day
      00011663H   SYMBOL    XDATA    BYTE      return_state
      00011664H   SYMBOL    XDATA    ---       temp
      000116F6H   SYMBOL    XDATA    BYTE      hour
      000116F7H   SYMBOL    XDATA    BYTE      minute
      000116F8H   SYMBOL    XDATA    BYTE      second
      000116F9H   SYMBOL    XDATA    BYTE      return_state
      000116FAH   SYMBOL    XDATA    ---       temp
      00011670H   SYMBOL    XDATA    WORD      child_id
      00011672H   SYMBOL    XDATA    WORD      parent_id
      00011674H   SYMBOL    XDATA    BYTE      return_state
      00011675H   SYMBOL    XDATA    ---       temp
      000118D5H   SYMBOL    XDATA    INT       format
      000118D7H   SYMBOL    XDATA    BYTE      return_state
      000118D8H   SYMBOL    XDATA    ---       temp
      00011A1CH   SYMBOL    XDATA    BYTE      backlight
      00011A1DH   SYMBOL    XDATA    BYTE      return_state
      00011A1EH   SYMBOL    XDATA    ---       temp
      000118E2H   SYMBOL    XDATA    INT       dir
      000118E4H   SYMBOL    XDATA    BYTE      return_state
      000118E5H   SYMBOL    XDATA    ---       temp
      00011A28H   SYMBOL    XDATA    BYTE      crc_state
      00011A29H   SYMBOL    XDATA    BYTE      return_state
L251 LINKER/LOCATER V4.66.93.0                                                        04/19/2026  22:06:36  PAGE 115


      00011A2AH   SYMBOL    XDATA    ---       temp
      000118EFH   SYMBOL    XDATA    INT       font
      000118F1H   SYMBOL    XDATA    BYTE      return_state
      000118F2H   SYMBOL    XDATA    ---       temp
      00011A34H   SYMBOL    XDATA    BYTE      state
      00011A35H   SYMBOL    XDATA    BYTE      return_state
      00011A36H   SYMBOL    XDATA    ---       temp
      00011681H   SYMBOL    XDATA    ---       time
      00011685H   SYMBOL    XDATA    BYTE      return_state
      00011686H   SYMBOL    XDATA    ---       temp
      00011692H   SYMBOL    XDATA    ---       time
      00011696H   SYMBOL    XDATA    BYTE      return_state
      00011697H   SYMBOL    XDATA    ---       temp
      000114BCH   SYMBOL    XDATA    ---       information
      000114C0H   SYMBOL    XDATA    BYTE      return_state
      000114C1H   SYMBOL    XDATA    ---       temp
      000116A3H   SYMBOL    XDATA    ---       stack_size
      000116A7H   SYMBOL    XDATA    BYTE      return_state
      000116A8H   SYMBOL    XDATA    ---       temp
      0001137CH   SYMBOL    XDATA    WORD      widgets_id
      0001137EH   SYMBOL    XDATA    INT       x
      00011380H   SYMBOL    XDATA    INT       y
      00011382H   SYMBOL    XDATA    WORD      width
      00011384H   SYMBOL    XDATA    WORD      height
      00011386H   SYMBOL    XDATA    BYTE      return_state
      00011387H   SYMBOL    XDATA    ---       temp
      00011AE2H   SYMBOL    XDATA    WORD      widgets_id
      00011AE4H   SYMBOL    XDATA    BYTE      return_state
      00011AE5H   SYMBOL    XDATA    ---       temp
      00011726H   SYMBOL    XDATA    WORD      widgets_id
      00011728H   SYMBOL    XDATA    INT       font_size
      0001172AH   SYMBOL    XDATA    BYTE      return_state
      0001172BH   SYMBOL    XDATA    ---       temp
      00011598H   SYMBOL    XDATA    WORD      widgets_id
      0001159AH   SYMBOL    XDATA    INT       color_type
      0001159CH   SYMBOL    XDATA    WORD      color
      0001159EH   SYMBOL    XDATA    BYTE      return_state
      0001159FH   SYMBOL    XDATA    ---       temp
      000115ABH   SYMBOL    XDATA    WORD      widgets_id
      000115ADH   SYMBOL    XDATA    INT       x
      000115AFH   SYMBOL    XDATA    INT       y
      000115B1H   SYMBOL    XDATA    BYTE      return_state
      000115B2H   SYMBOL    XDATA    ---       temp
      00011829H   SYMBOL    XDATA    WORD      widgets_id
      0001182BH   SYMBOL    XDATA    BYTE      state
      0001182CH   SYMBOL    XDATA    BYTE      return_state
      0001182DH   SYMBOL    XDATA    ---       temp
      00011EDFH   SYMBOL    XDATA    ---       str
      00011EE3H   SYMBOL    XDATA    BYTE      return_state
      00011735H   SYMBOL    XDATA    WORD      page_id
      00011737H   SYMBOL    XDATA    INT       anim_en
      00011739H   SYMBOL    XDATA    BYTE      return_state
      0001173AH   SYMBOL    XDATA    ---       temp
      00011F60H   SYMBOL    XDATA    WORD      page_id
      00011F62H   SYMBOL    XDATA    BYTE      state
      00011F63H   SYMBOL    XDATA    BYTE      return_state
      00011744H   SYMBOL    XDATA    WORD      page_id
      00011746H   SYMBOL    XDATA    ---       str
      0001174AH   SYMBOL    XDATA    BYTE      return_state
      0001174BH   SYMBOL    XDATA    ---       temp
      00011706H   SYMBOL    XDATA    INT       title_position
      00011708H   SYMBOL    XDATA    BYTE      title_width
      00011709H   SYMBOL    XDATA    BYTE      return_state
      0001170AH   SYMBOL    XDATA    ---       temp
      00011C0BH   SYMBOL    XDATA    INT       x
L251 LINKER/LOCATER V4.66.93.0                                                        04/19/2026  22:06:36  PAGE 116


      00011C0DH   SYMBOL    XDATA    INT       y
      00011C0FH   SYMBOL    XDATA    WORD      width
      00011C11H   SYMBOL    XDATA    WORD      height
      00011C13H   SYMBOL    XDATA    BYTE      return_state
      00010E72H   SYMBOL    XDATA    BYTE      lebel_num
      00010F72H   SYMBOL    XDATA    WORD      label_id
      00010F74H   SYMBOL    XDATA    ---       format
      00010F78H   SYMBOL    XDATA    LONG      str_length
      00010F7CH   SYMBOL    XDATA    BYTE      return_state
      00010F7DH   SYMBOL    XDATA    ---       temp
      00010F85H   SYMBOL    XDATA    ---       arg
      00011753H   SYMBOL    XDATA    WORD      label_id
      00011755H   SYMBOL    XDATA    ---       str
      00011759H   SYMBOL    XDATA    BYTE      return_state
      0001175AH   SYMBOL    XDATA    ---       temp
      00011762H   SYMBOL    XDATA    WORD      label_id
      00011764H   SYMBOL    XDATA    INT       mode
      00011766H   SYMBOL    XDATA    BYTE      return_state
      00011767H   SYMBOL    XDATA    ---       temp
      00011C14H   SYMBOL    XDATA    INT       x
      00011C16H   SYMBOL    XDATA    INT       y
      00011C18H   SYMBOL    XDATA    WORD      row_num
      00011C1AH   SYMBOL    XDATA    WORD      col_num
      00011C1CH   SYMBOL    XDATA    BYTE      return_state
      00010E73H   SYMBOL    XDATA    BYTE      table_num
      00010EECH   SYMBOL    XDATA    WORD      table_id
      00010EEEH   SYMBOL    XDATA    BYTE      row
      00010EEFH   SYMBOL    XDATA    BYTE      col
      00010EF0H   SYMBOL    XDATA    ---       format
      00010EF4H   SYMBOL    XDATA    LONG      str_length
      00010EF8H   SYMBOL    XDATA    BYTE      return_state
      00010EF9H   SYMBOL    XDATA    ---       arg
      00010EFDH   SYMBOL    XDATA    ---       temp
      00011608H   SYMBOL    XDATA    WORD      table_id
      0001160AH   SYMBOL    XDATA    BYTE      col
      0001160BH   SYMBOL    XDATA    WORD      width
      0001160DH   SYMBOL    XDATA    BYTE      return_state
      0001160EH   SYMBOL    XDATA    ---       temp
      000116B4H   SYMBOL    XDATA    WORD      table_id
      000116B6H   SYMBOL    XDATA    BYTE      row
      000116B7H   SYMBOL    XDATA    BYTE      col
      000116B8H   SYMBOL    XDATA    BYTE      return_state
      000116B9H   SYMBOL    XDATA    ---       temp
      00011C1DH   SYMBOL    XDATA    INT       x
      00011C1FH   SYMBOL    XDATA    INT       y
      00011C21H   SYMBOL    XDATA    WORD      siz
      00011C23H   SYMBOL    XDATA    INT       style
      00011C25H   SYMBOL    XDATA    BYTE      return_state
      00010E74H   SYMBOL    XDATA    BYTE      meter_num
      00011771H   SYMBOL    XDATA    WORD      meter_id
      00011773H   SYMBOL    XDATA    INT       value
      00011775H   SYMBOL    XDATA    BYTE      return_state
      00011776H   SYMBOL    XDATA    ---       temp
      00011C26H   SYMBOL    XDATA    INT       x
      00011C28H   SYMBOL    XDATA    INT       y
      00011C2AH   SYMBOL    XDATA    WORD      clock_size
      00011C2CH   SYMBOL    XDATA    INT       clock_type
      00011C2EH   SYMBOL    XDATA    BYTE      return_state
      00010E75H   SYMBOL    XDATA    BYTE      clock_num
      00011C2FH   SYMBOL    XDATA    INT       x
      00011C31H   SYMBOL    XDATA    INT       y
      00011C33H   SYMBOL    XDATA    WORD      width
      00011C35H   SYMBOL    XDATA    WORD      height
      00011C37H   SYMBOL    XDATA    BYTE      return_state
      00010E76H   SYMBOL    XDATA    BYTE      progress_bar_num
L251 LINKER/LOCATER V4.66.93.0                                                        04/19/2026  22:06:36  PAGE 117


      000116C5H   SYMBOL    XDATA    WORD      progress_bar_id
      000116C7H   SYMBOL    XDATA    BYTE      start_value
      000116C8H   SYMBOL    XDATA    BYTE      end_value
      000116C9H   SYMBOL    XDATA    BYTE      return_state
      000116CAH   SYMBOL    XDATA    ---       temp
      00011C38H   SYMBOL    XDATA    INT       x
      00011C3AH   SYMBOL    XDATA    INT       y
      00011C3CH   SYMBOL    XDATA    WORD      width
      00011C3EH   SYMBOL    XDATA    WORD      height
      00011C40H   SYMBOL    XDATA    BYTE      return_state
      0001161AH   SYMBOL    XDATA    WORD      year
      0001161CH   SYMBOL    XDATA    BYTE      month
      0001161DH   SYMBOL    XDATA    INT       mode
      0001161FH   SYMBOL    XDATA    BYTE      return_state
      00011620H   SYMBOL    XDATA    ---       temp
      00011C41H   SYMBOL    XDATA    INT       x
      00011C43H   SYMBOL    XDATA    INT       y
      00011C45H   SYMBOL    XDATA    WORD      width
      00011C47H   SYMBOL    XDATA    WORD      height
      00011C49H   SYMBOL    XDATA    BYTE      return_state
      00010E77H   SYMBOL    XDATA    BYTE      waveform_num
      00011397H   SYMBOL    XDATA    WORD      waveform_id
      00011399H   SYMBOL    XDATA    BYTE      line_id
      0001139AH   SYMBOL    XDATA    ---       dat
      0001139EH   SYMBOL    XDATA    WORD      length
      000113A0H   SYMBOL    XDATA    WORD      color
      000113A2H   SYMBOL    XDATA    BYTE      return_state
      000113A3H   SYMBOL    XDATA    WORD      i
      000113A5H   SYMBOL    XDATA    ---       temp
      000115BEH   SYMBOL    XDATA    WORD      waveform_id
      000115C0H   SYMBOL    XDATA    WORD      line_id
      000115C2H   SYMBOL    XDATA    WORD      line_state
      000115C4H   SYMBOL    XDATA    BYTE      return_state
      000115C5H   SYMBOL    XDATA    ---       temp
      00011837H   SYMBOL    XDATA    WORD      waveform_id
      00011839H   SYMBOL    XDATA    BYTE      line_type
      0001183AH   SYMBOL    XDATA    BYTE      return_state
      0001183BH   SYMBOL    XDATA    ---       temp
      00011AEDH   SYMBOL    XDATA    WORD      waveform_id
      00011AEFH   SYMBOL    XDATA    BYTE      return_state
      00011AF0H   SYMBOL    XDATA    ---       temp
      00011C4AH   SYMBOL    XDATA    INT       x
      00011C4CH   SYMBOL    XDATA    INT       y
      00011C4EH   SYMBOL    XDATA    WORD      width
      00011C50H   SYMBOL    XDATA    WORD      height
      00011C52H   SYMBOL    XDATA    BYTE      return_state
      00010E78H   SYMBOL    XDATA    BYTE      image_num
      000111B3H   SYMBOL    XDATA    WORD      image_id
      000111B5H   SYMBOL    XDATA    ---       image
      000111B9H   SYMBOL    XDATA    WORD      width
      000111BBH   SYMBOL    XDATA    WORD      height
      000111BDH   SYMBOL    XDATA    INT       image_type
      000111BFH   SYMBOL    XDATA    BYTE      threshold
      000111C0H   SYMBOL    XDATA    BYTE      return_state
      000111C1H   SYMBOL    XDATA    WORD      send_length
      000111C3H   SYMBOL    XDATA    DWORD     image_size
      000111C7H   SYMBOL    XDATA    ---       image_data
      000111CBH   SYMBOL    XDATA    ---       temp
      000113B1H   SYMBOL    XDATA    WORD      image_id
      000113B3H   SYMBOL    XDATA    BYTE      line_id
      000113B4H   SYMBOL    XDATA    ---       line_data
      000113B8H   SYMBOL    XDATA    WORD      line_length
      000113BAH   SYMBOL    XDATA    INT       data_type
      000113BCH   SYMBOL    XDATA    WORD      color
      000113BEH   SYMBOL    XDATA    BYTE      return_state
L251 LINKER/LOCATER V4.66.93.0                                                        04/19/2026  22:06:36  PAGE 118


      000113BFH   SYMBOL    XDATA    ---       temp
      00011228H   SYMBOL    XDATA    WORD      image_id
      0001122AH   SYMBOL    XDATA    BYTE      rectangle_id
      0001122BH   SYMBOL    XDATA    INT       x
      0001122DH   SYMBOL    XDATA    INT       y
      0001122FH   SYMBOL    XDATA    WORD      rectangle_width
      00011231H   SYMBOL    XDATA    WORD      rectangle_height
      00011233H   SYMBOL    XDATA    WORD      color
      00011235H   SYMBOL    XDATA    BYTE      return_state
      00011236H   SYMBOL    XDATA    ---       temp
      00011C53H   SYMBOL    XDATA    INT       x
      00011C55H   SYMBOL    XDATA    INT       y
      00011C57H   SYMBOL    XDATA    WORD      width
      00011C59H   SYMBOL    XDATA    WORD      height
      00011C5BH   SYMBOL    XDATA    BYTE      return_state
      00010E79H   SYMBOL    XDATA    BYTE      container_num
      000115D1H   SYMBOL    XDATA    WORD      container_id
      000115D3H   SYMBOL    XDATA    WORD      border_width
      000115D5H   SYMBOL    XDATA    WORD      radius
      000115D7H   SYMBOL    XDATA    BYTE      return_state
      000115D8H   SYMBOL    XDATA    ---       temp
      00011C5CH   SYMBOL    XDATA    ---       str
      00011C60H   SYMBOL    XDATA    INT       title_position
      00011C62H   SYMBOL    XDATA    BYTE      title_size
      00011C63H   SYMBOL    XDATA    WORD      page_id

      ---         MODULE    ---      ---       zf_device_tft180
      00011D30H   PUBLIC    XDATA    WORD      tft180_pencolor
      00011D32H   PUBLIC    XDATA    WORD      tft180_bgcolor
      00011D34H   PUBLIC    XDATA    INT       tft180_display_dir
      00011D36H   PUBLIC    XDATA    BYTE      tft180_x_max
      00011D37H   PUBLIC    XDATA    BYTE      tft180_y_max
      00011051H   PUBLIC    XDATA    BYTE      ?tft180_show_float?BYTE
      0001128AH   PUBLIC    XDATA    BYTE      ?tft180_show_wave?BYTE
      000000D0H   SFRSYM    DATA     BYTE      PSW
      0000009DH   SFRSYM    DATA     BYTE      IRCBAND
      00000097H   SFRSYM    DATA     BYTE      AUXR2
      000000EFH   SFRSYM    DATA     BYTE      AUXINTIF
      000000FDH   SFRSYM    DATA     BYTE      S4CON
      000000ACH   SFRSYM    DATA     BYTE      S3CON
      0000009AH   SFRSYM    DATA     BYTE      S2CON
      000000B7H   SFRSYM    DATA     BYTE      IPH
      000000CDH   SFRSYM    DATA     BYTE      SPSTAT
      000000DDH   SFRSYM    DATA     BYTE      T4T3M
      000000C1H   SFRSYM    DATA     BYTE      WDT_CONTR
      000000DFH   SFRSYM    DATA     BYTE      IP3
      000000F4H   SFRSYM    DATA     BYTE      USBCON
      000000B5H   SFRSYM    DATA     BYTE      IP2
      000000FFH   SFRSYM    DATA     BYTE      RSTCFG
      000000C7H   SFRSYM    DATA     BYTE      IAP_CONTR
      000000F9H   SFRSYM    DATA     BYTE      LINICR
      0000008EH   SFRSYM    DATA     BYTE      AUXR
      000000AFH   SFRSYM    DATA     BYTE      IE2
      00000088H   SFRSYM    DATA     BYTE      TCON
      00000089H   SFRSYM    DATA     BYTE      TMOD
      00000098H   SFRSYM    DATA     BYTE      SCON
      000000A0H.2 SFRSYM    DATA     BIT       P22
      000000A0H.1 SFRSYM    DATA     BIT       P21
      000000A0H.0 SFRSYM    DATA     BIT       P20
      000000F1H   SFRSYM    DATA     BYTE      CANICR
      00000087H   SFRSYM    DATA     BYTE      PCON
      000000BCH   SFRSYM    DATA     BYTE      ADC_CONTR
      000000E7H   SFRSYM    DATA     BYTE      CMPCR2
      000000E6H   SFRSYM    DATA     BYTE      CMPCR1
      000000DEH   SFRSYM    DATA     BYTE      ADCCFG
L251 LINKER/LOCATER V4.66.93.0                                                        04/19/2026  22:06:36  PAGE 119


      000000B8H   SFRSYM    DATA     BYTE      IP
      0000008FH   SFRSYM    DATA     BYTE      INTCLKO
      000000EEH   SFRSYM    DATA     BYTE      IP3H
      000000B6H   SFRSYM    DATA     BYTE      IP2H
      000000A8H   SFRSYM    DATA     BYTE      IE
      000000BBH   SFRSYM    DATA     BYTE      P_SW3
      000000BAH   SFRSYM    DATA     BYTE      P_SW2
      000000A2H   SFRSYM    DATA     BYTE      P_SW1
      000000CEH   SFRSYM    DATA     BYTE      SPCTL
      000000F8H   SFRSYM    DATA     BYTE      P7
      000000E8H   SFRSYM    DATA     BYTE      P6
      000000C8H   SFRSYM    DATA     BYTE      P5
      000000C0H   SFRSYM    DATA     BYTE      P4
      000000B0H   SFRSYM    DATA     BYTE      P3
      000000A0H   SFRSYM    DATA     BYTE      P2
      00000090H   SFRSYM    DATA     BYTE      P1
      00000080H   SFRSYM    DATA     BYTE      P0
      00011FFAH   SYMBOL    XDATA    BYTE      dat
      00011D38H   SYMBOL    XDATA    WORD      x1
      00011D3AH   SYMBOL    XDATA    WORD      y1
      00011D3CH   SYMBOL    XDATA    WORD      x2
      00011D3EH   SYMBOL    XDATA    WORD      y2
      00011E5CH   SYMBOL    XDATA    WORD      color
      00011E5EH   SYMBOL    XDATA    DWORD     i
      00011FDEH   SYMBOL    XDATA    INT       dir
      00011F64H   SYMBOL    XDATA    WORD      pen
      00011F66H   SYMBOL    XDATA    WORD      bgcolor
      00011E62H   SYMBOL    XDATA    WORD      x
      00011E64H   SYMBOL    XDATA    WORD      y
      00011E66H   SYMBOL    XDATA    WORD      color
      00011D40H   SYMBOL    XDATA    WORD      x
      00011D42H   SYMBOL    XDATA    WORD      y
      00011D44H   SYMBOL    XDATA    CHAR      dat
      00011D45H   SYMBOL    XDATA    BYTE      i
      00011D46H   SYMBOL    XDATA    BYTE      j
      00011D47H   SYMBOL    XDATA    BYTE      temp
      00011B66H   SYMBOL    XDATA    WORD      x
      00011B68H   SYMBOL    XDATA    WORD      y
      00011B6AH   SYMBOL    XDATA    ---       dat
      00011B6EH   SYMBOL    XDATA    WORD      j
      00011C65H   SYMBOL    XDATA    WORD      x
      00011C67H   SYMBOL    XDATA    WORD      y
      00011C69H   SYMBOL    XDATA    CHAR      dat
      00011C6AH   SYMBOL    XDATA    ---       a
      00011C6DH   SYMBOL    XDATA    BYTE      i
      00011C6EH   SYMBOL    XDATA    WORD      x
      00011C70H   SYMBOL    XDATA    WORD      y
      00011C72H   SYMBOL    XDATA    BYTE      dat
      00011C73H   SYMBOL    XDATA    ---       a
      00011C76H   SYMBOL    XDATA    BYTE      i
      00011A40H   SYMBOL    XDATA    WORD      x
      00011A42H   SYMBOL    XDATA    WORD      y
      00011A44H   SYMBOL    XDATA    INT       dat
      00011A46H   SYMBOL    XDATA    ---       a
      00011A4BH   SYMBOL    XDATA    BYTE      i
      00011A4CH   SYMBOL    XDATA    WORD      x
      00011A4EH   SYMBOL    XDATA    WORD      y
      00011A50H   SYMBOL    XDATA    WORD      dat
      00011A52H   SYMBOL    XDATA    ---       a
      00011A57H   SYMBOL    XDATA    BYTE      i
      00011108H   SYMBOL    XDATA    WORD      x
      0001110AH   SYMBOL    XDATA    WORD      y
      0001110CH   SYMBOL    XDATA    LONG      dat
      00011110H   SYMBOL    XDATA    BYTE      num
      00011111H   SYMBOL    XDATA    ---       buff
L251 LINKER/LOCATER V4.66.93.0                                                        04/19/2026  22:06:36  PAGE 120


      00011133H   SYMBOL    XDATA    BYTE      length
      00011051H   SYMBOL    XDATA    WORD      x
      00011053H   SYMBOL    XDATA    WORD      y
      00011055H   SYMBOL    XDATA    FLOAT     dat
      00011059H   SYMBOL    XDATA    BYTE      num
      0001105AH   SYMBOL    XDATA    BYTE      pointnum
      0001105BH   SYMBOL    XDATA    BYTE      length
      0001105CH   SYMBOL    XDATA    ---       buff
      0001107EH   SYMBOL    XDATA    CHAR      start
      0001107FH   SYMBOL    XDATA    CHAR      end
      00011080H   SYMBOL    XDATA    CHAR      point
      0001128AH   SYMBOL    XDATA    WORD      x
      0001128CH   SYMBOL    XDATA    WORD      y
      0001128EH   SYMBOL    XDATA    ---       p
      00011292H   SYMBOL    XDATA    WORD      width
      00011294H   SYMBOL    XDATA    WORD      value_max
      00011296H   SYMBOL    XDATA    WORD      dis_width
      00011298H   SYMBOL    XDATA    WORD      dis_value_max
      0001129AH   SYMBOL    XDATA    DWORD     i
      0001129EH   SYMBOL    XDATA    DWORD     j
      000112A2H   SYMBOL    XDATA    DWORD     width_index
      000112A6H   SYMBOL    XDATA    DWORD     value_max_index

      ---         MODULE    ---      ---       zf_device_tsl1401
      0001020AH   PUBLIC    XDATA    BYTE      tsl1401_finish_flag
      0001020BH   PUBLIC    XDATA    ---       tsl1401_data
      000000D0H   SFRSYM    DATA     BYTE      PSW
      0000009DH   SFRSYM    DATA     BYTE      IRCBAND
      00000097H   SFRSYM    DATA     BYTE      AUXR2
      000000EFH   SFRSYM    DATA     BYTE      AUXINTIF
      000000FDH   SFRSYM    DATA     BYTE      S4CON
      000000ACH   SFRSYM    DATA     BYTE      S3CON
      0000009AH   SFRSYM    DATA     BYTE      S2CON
      000000B7H   SFRSYM    DATA     BYTE      IPH
      000000CDH   SFRSYM    DATA     BYTE      SPSTAT
      000000DDH   SFRSYM    DATA     BYTE      T4T3M
      000000C1H   SFRSYM    DATA     BYTE      WDT_CONTR
      000000DFH   SFRSYM    DATA     BYTE      IP3
      000000F4H   SFRSYM    DATA     BYTE      USBCON
      000000B5H   SFRSYM    DATA     BYTE      IP2
      000000FFH   SFRSYM    DATA     BYTE      RSTCFG
      000000C7H   SFRSYM    DATA     BYTE      IAP_CONTR
      000000F9H   SFRSYM    DATA     BYTE      LINICR
      0000008EH   SFRSYM    DATA     BYTE      AUXR
      000000AFH   SFRSYM    DATA     BYTE      IE2
      00000088H   SFRSYM    DATA     BYTE      TCON
      00000089H   SFRSYM    DATA     BYTE      TMOD
      00000098H   SFRSYM    DATA     BYTE      SCON
      000000F1H   SFRSYM    DATA     BYTE      CANICR
      00000087H   SFRSYM    DATA     BYTE      PCON
      000000BCH   SFRSYM    DATA     BYTE      ADC_CONTR
      000000E7H   SFRSYM    DATA     BYTE      CMPCR2
      000000E6H   SFRSYM    DATA     BYTE      CMPCR1
      000000DEH   SFRSYM    DATA     BYTE      ADCCFG
      000000B8H   SFRSYM    DATA     BYTE      IP
      0000008FH   SFRSYM    DATA     BYTE      INTCLKO
      000000EEH   SFRSYM    DATA     BYTE      IP3H
      000000B6H   SFRSYM    DATA     BYTE      IP2H
      000000A8H   SFRSYM    DATA     BYTE      IE
      000000BBH   SFRSYM    DATA     BYTE      P_SW3
      000000BAH   SFRSYM    DATA     BYTE      P_SW2
      000000A2H   SFRSYM    DATA     BYTE      P_SW1
      000000CEH   SFRSYM    DATA     BYTE      SPCTL
      000000F8H   SFRSYM    DATA     BYTE      P7
      000000E8H   SFRSYM    DATA     BYTE      P6
L251 LINKER/LOCATER V4.66.93.0                                                        04/19/2026  22:06:36  PAGE 121


      000000C8H   SFRSYM    DATA     BYTE      P5
      000000C0H   SFRSYM    DATA     BYTE      P4
      000000B0H   SFRSYM    DATA     BYTE      P3
      000000A0H   SFRSYM    DATA     BYTE      P2
      00000090H   SFRSYM    DATA     BYTE      P1
      00000080H   SFRSYM    DATA     BYTE      P0
      0001040BH   SYMBOL    XDATA    BYTE      tsl1401_init_state
      00011FFBH   SYMBOL    XDATA    BYTE      i
      00011F68H   SYMBOL    XDATA    INT       uart_n
      00011F6AH   SYMBOL    XDATA    BYTE      index
      00011F6BH   SYMBOL    XDATA    BYTE      i

      ---         MODULE    ---      ---       zf_device_type
      00FF9293H   PUBLIC    CODE     ---       set_wireless_type
      00011D48H   PUBLIC    XDATA    ---       tof_module_exti_handler
      00011D4AH   PUBLIC    XDATA    INT       wireless_type
      00011D4CH   PUBLIC    XDATA    INT       tof_type
      00011D4EH   PUBLIC    XDATA    INT       gps_type
      000000D0H   SFRSYM    DATA     BYTE      PSW
      0000009DH   SFRSYM    DATA     BYTE      IRCBAND
      00000097H   SFRSYM    DATA     BYTE      AUXR2
      000000EFH   SFRSYM    DATA     BYTE      AUXINTIF
      000000FDH   SFRSYM    DATA     BYTE      S4CON
      000000ACH   SFRSYM    DATA     BYTE      S3CON
      0000009AH   SFRSYM    DATA     BYTE      S2CON
      000000B7H   SFRSYM    DATA     BYTE      IPH
      000000CDH   SFRSYM    DATA     BYTE      SPSTAT
      000000DDH   SFRSYM    DATA     BYTE      T4T3M
      000000C1H   SFRSYM    DATA     BYTE      WDT_CONTR
      000000DFH   SFRSYM    DATA     BYTE      IP3
      000000F4H   SFRSYM    DATA     BYTE      USBCON
      000000B5H   SFRSYM    DATA     BYTE      IP2
      000000FFH   SFRSYM    DATA     BYTE      RSTCFG
      000000C7H   SFRSYM    DATA     BYTE      IAP_CONTR
      000000F9H   SFRSYM    DATA     BYTE      LINICR
      0000008EH   SFRSYM    DATA     BYTE      AUXR
      000000AFH   SFRSYM    DATA     BYTE      IE2
      00000088H   SFRSYM    DATA     BYTE      TCON
      00000089H   SFRSYM    DATA     BYTE      TMOD
      00000098H   SFRSYM    DATA     BYTE      SCON
      000000F1H   SFRSYM    DATA     BYTE      CANICR
      00000087H   SFRSYM    DATA     BYTE      PCON
      000000BCH   SFRSYM    DATA     BYTE      ADC_CONTR
      000000E7H   SFRSYM    DATA     BYTE      CMPCR2
      000000E6H   SFRSYM    DATA     BYTE      CMPCR1
      000000DEH   SFRSYM    DATA     BYTE      ADCCFG
      000000B8H   SFRSYM    DATA     BYTE      IP
      0000008FH   SFRSYM    DATA     BYTE      INTCLKO
      000000EEH   SFRSYM    DATA     BYTE      IP3H
      000000B6H   SFRSYM    DATA     BYTE      IP2H
      000000A8H   SFRSYM    DATA     BYTE      IE
      000000BBH   SFRSYM    DATA     BYTE      P_SW3
      000000BAH   SFRSYM    DATA     BYTE      P_SW2
      000000A2H   SFRSYM    DATA     BYTE      P_SW1
      000000CEH   SFRSYM    DATA     BYTE      SPCTL
      000000F8H   SFRSYM    DATA     BYTE      P7
      000000E8H   SFRSYM    DATA     BYTE      P6
      000000C8H   SFRSYM    DATA     BYTE      P5
      000000C0H   SFRSYM    DATA     BYTE      P4
      000000B0H   SFRSYM    DATA     BYTE      P3
      000000A0H   SFRSYM    DATA     BYTE      P2
      00000090H   SFRSYM    DATA     BYTE      P1
      00000080H   SFRSYM    DATA     BYTE      P0

      00FF9293H   BLOCK     CODE     ---       LVL=0
L251 LINKER/LOCATER V4.66.93.0                                                        04/19/2026  22:06:36  PAGE 122


      00011D50H   SYMBOL    XDATA    INT       type_set
      00011D52H   SYMBOL    XDATA    INT       uartx
      00011D54H   SYMBOL    XDATA    ---       uart_callback
      00FF9293H   LINE      CODE     ---       #52
      00FF92A9H   LINE      CODE     ---       #54
      00FF92B5H   LINE      CODE     ---       #56
      00FF92C1H   LINE      CODE     ---       #58
      00FF92D1H   LINE      CODE     ---       #59
      00FF92D3H   LINE      CODE     ---       #60
      00FF92E1H   LINE      CODE     ---       #62
      00FF92F1H   LINE      CODE     ---       #63
      00FF92F3H   LINE      CODE     ---       #64
      00FF9301H   LINE      CODE     ---       #66
      00FF9311H   LINE      CODE     ---       #67
      00FF9313H   LINE      CODE     ---       #68
      00FF9321H   LINE      CODE     ---       #70
      00FF9331H   LINE      CODE     ---       #71
      ---         BLOCKEND  ---      ---       LVL=0
      00011E68H   SYMBOL    XDATA    INT       type_set
      00011E6AH   SYMBOL    XDATA    ---       exti_callback
      00011D58H   SYMBOL    XDATA    INT       type_set
      00011D5AH   SYMBOL    XDATA    INT       uartx
      00011D5CH   SYMBOL    XDATA    ---       uart_callback

      ---         MODULE    ---      ---       zf_device_wireless_uart
      00FF843BH   PUBLIC    CODE     ---       wireless_uart_send_buffer
      00FFA378H   PUBLIC    CODE     ---       wireless_uart_callback
      00FF97F4H   PUBLIC    CODE     ---       wireless_uart_init
      00FF95EDH   PUBLIC    CODE     ---       wireless_uart_read_buffer
      000000D0H   SFRSYM    DATA     BYTE      PSW
      0000009DH   SFRSYM    DATA     BYTE      IRCBAND
      00000097H   SFRSYM    DATA     BYTE      AUXR2
      000000EFH   SFRSYM    DATA     BYTE      AUXINTIF
      000000FDH   SFRSYM    DATA     BYTE      S4CON
      000000ACH   SFRSYM    DATA     BYTE      S3CON
      0000009AH   SFRSYM    DATA     BYTE      S2CON
      000000B7H   SFRSYM    DATA     BYTE      IPH
      000000CDH   SFRSYM    DATA     BYTE      SPSTAT
      000000DDH   SFRSYM    DATA     BYTE      T4T3M
      000000C1H   SFRSYM    DATA     BYTE      WDT_CONTR
      000000DFH   SFRSYM    DATA     BYTE      IP3
      000000F4H   SFRSYM    DATA     BYTE      USBCON
      000000B5H   SFRSYM    DATA     BYTE      IP2
      000000FFH   SFRSYM    DATA     BYTE      RSTCFG
      000000C7H   SFRSYM    DATA     BYTE      IAP_CONTR
      000000F9H   SFRSYM    DATA     BYTE      LINICR
      0000008EH   SFRSYM    DATA     BYTE      AUXR
      000000AFH   SFRSYM    DATA     BYTE      IE2
      00000088H   SFRSYM    DATA     BYTE      TCON
      00000089H   SFRSYM    DATA     BYTE      TMOD
      00000098H   SFRSYM    DATA     BYTE      SCON
      000000F1H   SFRSYM    DATA     BYTE      CANICR
      00000087H   SFRSYM    DATA     BYTE      PCON
      000000BCH   SFRSYM    DATA     BYTE      ADC_CONTR
      000000E7H   SFRSYM    DATA     BYTE      CMPCR2
      000000E6H   SFRSYM    DATA     BYTE      CMPCR1
      000000DEH   SFRSYM    DATA     BYTE      ADCCFG
      000000B8H   SFRSYM    DATA     BYTE      IP
      0000008FH   SFRSYM    DATA     BYTE      INTCLKO
      000000EEH   SFRSYM    DATA     BYTE      IP3H
      000000B6H   SFRSYM    DATA     BYTE      IP2H
      000000A8H   SFRSYM    DATA     BYTE      IE
      000000BBH   SFRSYM    DATA     BYTE      P_SW3
      000000BAH   SFRSYM    DATA     BYTE      P_SW2
      000000A2H   SFRSYM    DATA     BYTE      P_SW1
L251 LINKER/LOCATER V4.66.93.0                                                        04/19/2026  22:06:36  PAGE 123


      000000CEH   SFRSYM    DATA     BYTE      SPCTL
      000000F8H   SFRSYM    DATA     BYTE      P7
      000000E8H   SFRSYM    DATA     BYTE      P6
      000000C8H   SFRSYM    DATA     BYTE      P5
      000000C0H   SFRSYM    DATA     BYTE      P4
      000000B0H   SFRSYM    DATA     BYTE      P3
      000000A0H   SFRSYM    DATA     BYTE      P2
      00000090H   SFRSYM    DATA     BYTE      P1
      00000080H   SFRSYM    DATA     BYTE      P0
      00010D83H   SYMBOL    XDATA    ---       wireless_uart_fifo
      00010D9AH   SYMBOL    XDATA    ---       wireless_uart_buffer
      00011FA1H   SYMBOL    XDATA    BYTE      dat
      00011FA2H   SYMBOL    XDATA    WORD      time_cnt

      00FF843BH   BLOCK     CODE     ---       LVL=0
      00011A58H   SYMBOL    XDATA    ---       buff
      00011A5CH   SYMBOL    XDATA    DWORD     len
      00FF844FH   BLOCK     CODE     NEAR LAB  LVL=1
      00011A60H   SYMBOL    XDATA    WORD      time_cnt
      00011A62H   SYMBOL    XDATA    WORD      send_len
      ---         BLOCKEND  ---      ---       LVL=1
      00FF843BH   LINE      CODE     ---       #103
      00FF844FH   LINE      CODE     ---       #104
      00FF844FH   LINE      CODE     ---       #108
      00FF8457H   LINE      CODE     ---       #109
      00FF845FH   LINE      CODE     ---       #110
      00FF8481H   LINE      CODE     ---       #112
      00FF8484H   LINE      CODE     ---       #114
      00FF8490H   LINE      CODE     ---       #116
      00FF84B6H   LINE      CODE     ---       #117
      00FF84CDH   LINE      CODE     ---       #118
      00FF84E6H   LINE      CODE     ---       #119
      00FF8501H   LINE      CODE     ---       #120
      00FF8509H   LINE      CODE     ---       #121
      00FF850BH   LINE      CODE     ---       #124
      00FF8512H   LINE      CODE     ---       #125
      00FF8521H   LINE      CODE     ---       #126
      00FF8521H   LINE      CODE     ---       #127
      00FF8540H   LINE      CODE     ---       #129
      00FF854AH   LINE      CODE     ---       #130
      ---         BLOCKEND  ---      ---       LVL=0
      00011D60H   SYMBOL    XDATA    ---       str
      00011D64H   SYMBOL    XDATA    DWORD     len

      00FF95EDH   BLOCK     CODE     ---       LVL=0
      00011A64H   SYMBOL    XDATA    ---       buff
      00011A68H   SYMBOL    XDATA    DWORD     len
      00FF9601H   BLOCK     CODE     NEAR LAB  LVL=1
      00011A6CH   SYMBOL    XDATA    DWORD     data_len
      ---         BLOCKEND  ---      ---       LVL=1
      00FF95EDH   LINE      CODE     ---       #156
      00FF9601H   LINE      CODE     ---       #157
      00FF9601H   LINE      CODE     ---       #158
      00FF9615H   LINE      CODE     ---       #159
      00FF9637H   LINE      CODE     ---       #160
      00FF9666H   LINE      CODE     ---       #161
      00FF9670H   LINE      CODE     ---       #162
      ---         BLOCKEND  ---      ---       LVL=0

      00FFA378H   BLOCK     CODE     ---       LVL=0
      00011FFCH   SYMBOL    XDATA    BYTE      uart_dat
      00FFA378H   LINE      CODE     ---       #173
      00FFA37CH   LINE      CODE     ---       #176
      00FFA39DH   LINE      CODE     ---       #187
      ---         BLOCKEND  ---      ---       LVL=0
L251 LINKER/LOCATER V4.66.93.0                                                        04/19/2026  22:06:36  PAGE 124



      00FF97F4H   BLOCK     CODE     ---       LVL=0
      00011FFDH   SYMBOL    XDATA    BYTE      return_state
      00FF97F4H   LINE      CODE     ---       #196
      00FF97F4H   LINE      CODE     ---       #197
      00FF97F4H   LINE      CODE     ---       #198
      00FF97F9H   LINE      CODE     ---       #199
      00FF980CH   LINE      CODE     ---       #201
      00FF9839H   LINE      CODE     ---       #202
      00FF984AH   LINE      CODE     ---       #205
      00FF9867H   LINE      CODE     ---       #206
      00FF9870H   LINE      CODE     ---       #259
      00FF9874H   LINE      CODE     ---       #260
      ---         BLOCKEND  ---      ---       LVL=0

      ---         MODULE    ---      ---       imu
      00FF7272H   PUBLIC    CODE     ---       IMU_Handle_360
      00FF8328H   PUBLIC    CODE     ---       IMU_Handle_180
      00FF525AH   PUBLIC    CODE     ---       First_complement_Init
      00FFA28AH   PUBLIC    CODE     ---       IMU_Handle_0
      00FF8767H   PUBLIC    CODE     ---       KalmanCreate
      00FF66A8H   PUBLIC    CODE     ---       KalmanFilter
      00FF7FD4H   PUBLIC    CODE     ---       IMU_gyro_Offset_Init
      00FF019EH   PUBLIC    CODE     ---       gyro_proc
      00FF9E48H   PUBLIC    CODE     ---       gyro_init
      00FFA2C1H   PUBLIC    CODE     ---       My_abs
      00FF7A91H   PUBLIC    CODE     ---       IMU_GetValues
      00FF8AF6H   PUBLIC    CODE     ---       IMU_YAW_integral
      0001083FH   PUBLIC    XDATA    FLOAT     Pitch_Min
      00010843H   PUBLIC    XDATA    FLOAT     Pitch_Max
      00010847H   PUBLIC    XDATA    ---       Kalman1
      00010877H   PUBLIC    XDATA    ---       Kalman2
      000108A7H   PUBLIC    XDATA    CHAR      Round
      000108A8H   PUBLIC    XDATA    FLOAT     gyro_Offset_flag
      000108ACH   PUBLIC    XDATA    FLOAT     pitch
      000108B0H   PUBLIC    XDATA    FLOAT     Roll_Min
      000108B4H   PUBLIC    XDATA    ---       Zero
      000108E4H   PUBLIC    XDATA    FLOAT     Roll_Max
      000108E8H   PUBLIC    XDATA    FLOAT     roll
      000108ECH   PUBLIC    XDATA    FLOAT     gyrox
      000108F0H   PUBLIC    XDATA    FLOAT     gyroy
      000108F4H   PUBLIC    XDATA    FLOAT     gyroz
      000108F8H   PUBLIC    XDATA    ---       first_complement
      0001090CH   PUBLIC    XDATA    ---       IMU_Data
      00010924H   PUBLIC    XDATA    FLOAT     Daty_X
      00010928H   PUBLIC    XDATA    FLOAT     Daty_Y
      0001092CH   PUBLIC    XDATA    FLOAT     Daty_Z
      00010930H   PUBLIC    XDATA    FLOAT     yaw_limit_360
      00010934H   PUBLIC    XDATA    FLOAT     Max_Delta_Pitch
      00010938H   PUBLIC    XDATA    FLOAT     yaw
      0001093CH   PUBLIC    XDATA    FLOAT     yaw_total
      00010940H   PUBLIC    XDATA    ---       Gyro_Offset
      0001094CH   PUBLIC    XDATA    FLOAT     Max_Delta_Roll
      00011A70H   PUBLIC    XDATA    BYTE      ?KalmanCreate?BYTE
      000000D0H   SFRSYM    DATA     BYTE      PSW
      0000009DH   SFRSYM    DATA     BYTE      IRCBAND
      00000097H   SFRSYM    DATA     BYTE      AUXR2
      000000EFH   SFRSYM    DATA     BYTE      AUXINTIF
      000000FDH   SFRSYM    DATA     BYTE      S4CON
      000000ACH   SFRSYM    DATA     BYTE      S3CON
      0000009AH   SFRSYM    DATA     BYTE      S2CON
      000000B7H   SFRSYM    DATA     BYTE      IPH
      000000CDH   SFRSYM    DATA     BYTE      SPSTAT
      000000DDH   SFRSYM    DATA     BYTE      T4T3M
      000000C1H   SFRSYM    DATA     BYTE      WDT_CONTR
L251 LINKER/LOCATER V4.66.93.0                                                        04/19/2026  22:06:36  PAGE 125


      000000DFH   SFRSYM    DATA     BYTE      IP3
      000000F4H   SFRSYM    DATA     BYTE      USBCON
      000000B5H   SFRSYM    DATA     BYTE      IP2
      000000FFH   SFRSYM    DATA     BYTE      RSTCFG
      000000C7H   SFRSYM    DATA     BYTE      IAP_CONTR
      000000F9H   SFRSYM    DATA     BYTE      LINICR
      0000008EH   SFRSYM    DATA     BYTE      AUXR
      000000AFH   SFRSYM    DATA     BYTE      IE2
      00000088H   SFRSYM    DATA     BYTE      TCON
      00000089H   SFRSYM    DATA     BYTE      TMOD
      00000098H   SFRSYM    DATA     BYTE      SCON
      000000F1H   SFRSYM    DATA     BYTE      CANICR
      00000087H   SFRSYM    DATA     BYTE      PCON
      000000BCH   SFRSYM    DATA     BYTE      ADC_CONTR
      000000E7H   SFRSYM    DATA     BYTE      CMPCR2
      000000E6H   SFRSYM    DATA     BYTE      CMPCR1
      000000DEH   SFRSYM    DATA     BYTE      ADCCFG
      000000B8H   SFRSYM    DATA     BYTE      IP
      0000008FH   SFRSYM    DATA     BYTE      INTCLKO
      000000EEH   SFRSYM    DATA     BYTE      IP3H
      000000B6H   SFRSYM    DATA     BYTE      IP2H
      000000A8H   SFRSYM    DATA     BYTE      IE
      000000BBH   SFRSYM    DATA     BYTE      P_SW3
      000000BAH   SFRSYM    DATA     BYTE      P_SW2
      000000A2H   SFRSYM    DATA     BYTE      P_SW1
      000000CEH   SFRSYM    DATA     BYTE      SPCTL
      000000F8H   SFRSYM    DATA     BYTE      P7
      000000E8H   SFRSYM    DATA     BYTE      P6
      000000C8H   SFRSYM    DATA     BYTE      P5
      000000C0H   SFRSYM    DATA     BYTE      P4
      000000B0H   SFRSYM    DATA     BYTE      P3
      000000A0H   SFRSYM    DATA     BYTE      P2
      00000090H   SFRSYM    DATA     BYTE      P1
      00000080H   SFRSYM    DATA     BYTE      P0

      00FF525AH   BLOCK     CODE     ---       LVL=0
      00FF525CH   BLOCK     CODE     NEAR LAB  LVL=1
      00011F6CH   SYMBOL    XDATA    FLOAT     k
      00010950H   SYMBOL    XDATA    FLOAT     Pitch_Temp
      00010954H   SYMBOL    XDATA    FLOAT     Roll_Temp
      00010958H   SYMBOL    XDATA    FLOAT     Delta_Roll
      0001095CH   SYMBOL    XDATA    CHAR      Pitch_Flag
      0001095DH   SYMBOL    XDATA    CHAR      Roll_Flag
      ---         BLOCKEND  ---      ---       LVL=1
      00FF525AH   LINE      CODE     ---       #30
      00FF525CH   LINE      CODE     ---       #31
      00FF525CH   LINE      CODE     ---       #32
      00FF526EH   LINE      CODE     ---       #39
      00FF52A6H   LINE      CODE     ---       #40
      00FF52DEH   LINE      CODE     ---       #42
      00FF530CH   LINE      CODE     ---       #43
      00FF533AH   LINE      CODE     ---       #45
      00FF53A0H   LINE      CODE     ---       #46
      00FF5406H   LINE      CODE     ---       #48
      00FF5434H   LINE      CODE     ---       #50
      00FF5455H   LINE      CODE     ---       #51
      00FF5455H   LINE      CODE     ---       #53
      00FF5474H   LINE      CODE     ---       #54
      00FF5493H   LINE      CODE     ---       #57
      00FF549CH   LINE      CODE     ---       #59
      00FF54B0H   LINE      CODE     ---       #60
      00FF54C4H   LINE      CODE     ---       #61
      00FF54CAH   LINE      CODE     ---       #62
      00FF54CAH   LINE      CODE     ---       #64
      00FF54D3H   LINE      CODE     ---       #66
L251 LINKER/LOCATER V4.66.93.0                                                        04/19/2026  22:06:36  PAGE 126


      00FF54E7H   LINE      CODE     ---       #67
      00FF54FBH   LINE      CODE     ---       #68
      00FF5501H   LINE      CODE     ---       #69
      00FF5501H   LINE      CODE     ---       #72
      00FF5524H   LINE      CODE     ---       #74
      00FF553BH   LINE      CODE     ---       #75
      00FF553DH   LINE      CODE     ---       #76
      00FF5560H   LINE      CODE     ---       #78
      00FF5577H   LINE      CODE     ---       #79
      00FF5577H   LINE      CODE     ---       #82
      00FF559AH   LINE      CODE     ---       #84
      00FF55B1H   LINE      CODE     ---       #85
      00FF55B3H   LINE      CODE     ---       #86
      00FF55D6H   LINE      CODE     ---       #88
      00FF55EDH   LINE      CODE     ---       #89
      00FF55EDH   LINE      CODE     ---       #90
      00FF560EH   LINE      CODE     ---       #91
      00FF562FH   LINE      CODE     ---       #92
      ---         BLOCKEND  ---      ---       LVL=0

      00FF7FD4H   BLOCK     CODE     ---       LVL=0
      00011FE0H   SYMBOL    XDATA    WORD      i
      00FF7FD4H   LINE      CODE     ---       #97
      00FF7FD4H   LINE      CODE     ---       #98
      00FF7FD4H   LINE      CODE     ---       #99
      00FF7FDCH   LINE      CODE     ---       #100
      00FF7FE8H   LINE      CODE     ---       #101
      00FF7FF4H   LINE      CODE     ---       #102
      00FF8000H   LINE      CODE     ---       #103
      00FF800AH   LINE      CODE     ---       #105
      00FF802BH   LINE      CODE     ---       #106
      00FF804CH   LINE      CODE     ---       #107
      00FF806DH   LINE      CODE     ---       #108
      00FF8074H   LINE      CODE     ---       #109
      00FF8094H   LINE      CODE     ---       #111
      00FF80AEH   LINE      CODE     ---       #112
      00FF80C8H   LINE      CODE     ---       #113
      00FF80E2H   LINE      CODE     ---       #115
      00FF80F2H   LINE      CODE     ---       #116
      ---         BLOCKEND  ---      ---       LVL=0

      00FF7A91H   BLOCK     CODE     ---       LVL=0
      00FF7A91H   LINE      CODE     ---       #118
      00FF7A91H   LINE      CODE     ---       #120
      00FF7A94H   LINE      CODE     ---       #121
      00FF7A97H   LINE      CODE     ---       #123
      00FF7AD8H   LINE      CODE     ---       #124
      00FF7B19H   LINE      CODE     ---       #125
      00FF7B5AH   LINE      CODE     ---       #127
      00FF7B98H   LINE      CODE     ---       #128
      00FF7BD6H   LINE      CODE     ---       #129
      00FF7C14H   LINE      CODE     ---       #130
      ---         BLOCKEND  ---      ---       LVL=0

      00FF8AF6H   BLOCK     CODE     ---       LVL=0
      00FF8AF6H   LINE      CODE     ---       #136
      00FF8AF6H   LINE      CODE     ---       #138
      00FF8B24H   LINE      CODE     ---       #140
      00FF8B35H   LINE      CODE     ---       #141
      00FF8B37H   LINE      CODE     ---       #144
      00FF8B3AH   LINE      CODE     ---       #145
      00FF8B3DH   LINE      CODE     ---       #146
      00FF8B40H   LINE      CODE     ---       #147
      00FF8B40H   LINE      CODE     ---       #149
      00FF8B6EH   LINE      CODE     ---       #151
L251 LINKER/LOCATER V4.66.93.0                                                        04/19/2026  22:06:36  PAGE 127


      00FF8B7FH   LINE      CODE     ---       #152
      00FF8B7FH   LINE      CODE     ---       #153
      00FF8BADH   LINE      CODE     ---       #155
      00FF8BBEH   LINE      CODE     ---       #156
      ---         BLOCKEND  ---      ---       LVL=0

      00FF8328H   BLOCK     CODE     ---       LVL=0
      00FF8328H   LINE      CODE     ---       #159
      00FF8328H   LINE      CODE     ---       #161
      00FF835EH   LINE      CODE     ---       #163
      00FF83B0H   LINE      CODE     ---       #165
      00FF83B0H   LINE      CODE     ---       #166
      00FF83B0H   LINE      CODE     ---       #167
      00FF83DAH   LINE      CODE     ---       #169
      00FF83F4H   LINE      CODE     ---       #170
      00FF83F6H   LINE      CODE     ---       #171
      00FF8420H   LINE      CODE     ---       #173
      00FF843AH   LINE      CODE     ---       #174
      ---         BLOCKEND  ---      ---       LVL=0

      00FF7272H   BLOCK     CODE     ---       LVL=0
      00FF7272H   LINE      CODE     ---       #180
      00FF7272H   LINE      CODE     ---       #182
      00FF727EH   LINE      CODE     ---       #184
      00FF72B4H   LINE      CODE     ---       #185
      00FF72C9H   LINE      CODE     ---       #187
      00FF72D9H   LINE      CODE     ---       #188
      00FF72DFH   LINE      CODE     ---       #189
      00FF72E1H   LINE      CODE     ---       #190
      00FF72F6H   LINE      CODE     ---       #192
      00FF7306H   LINE      CODE     ---       #193
      00FF730CH   LINE      CODE     ---       #194
      00FF730CH   LINE      CODE     ---       #196
      00FF7318H   LINE      CODE     ---       #198
      00FF7342H   LINE      CODE     ---       #200
      00FF7378H   LINE      CODE     ---       #201
      00FF7390H   LINE      CODE     ---       #203
      00FF73A0H   LINE      CODE     ---       #204
      00FF73A5H   LINE      CODE     ---       #205
      00FF73A7H   LINE      CODE     ---       #207
      00FF73BCH   LINE      CODE     ---       #209
      00FF73F2H   LINE      CODE     ---       #210
      00FF7407H   LINE      CODE     ---       #213
      00FF7417H   LINE      CODE     ---       #214
      00FF741CH   LINE      CODE     ---       #215
      00FF741CH   LINE      CODE     ---       #217
      00FF741CH   LINE      CODE     ---       #218
      ---         BLOCKEND  ---      ---       LVL=0

      00FFA28AH   BLOCK     CODE     ---       LVL=0
      00FFA28AH   LINE      CODE     ---       #222
      00FFA28AH   LINE      CODE     ---       #224
      00FFA2C0H   LINE      CODE     ---       #225
      ---         BLOCKEND  ---      ---       LVL=0
      00011716H   SYMBOL    XDATA    FLOAT     num
      0001171AH   SYMBOL    XDATA    FLOAT     halfx
      0001171EH   SYMBOL    XDATA    FLOAT     y
      00011722H   SYMBOL    XDATA    LONG      i

      00FFA2C1H   BLOCK     CODE     ---       LVL=0
      00011F70H   SYMBOL    XDATA    FLOAT     x
      00FFA2C1H   LINE      CODE     ---       #240
      00FFA2CBH   LINE      CODE     ---       #242
      00FFA2F5H   LINE      CODE     ---       #243
      ---         BLOCKEND  ---      ---       LVL=0
L251 LINKER/LOCATER V4.66.93.0                                                        04/19/2026  22:06:36  PAGE 128



      00FF8767H   BLOCK     CODE     ---       LVL=0
      00011A70H   SYMBOL    XDATA    ---       p
      00011A74H   SYMBOL    XDATA    FLOAT     T_Q
      00011A78H   SYMBOL    XDATA    FLOAT     T_R
      00FF8767H   LINE      CODE     ---       #245
      00FF877BH   LINE      CODE     ---       #247
      00FF878EH   LINE      CODE     ---       #248
      00FF87A5H   LINE      CODE     ---       #249
      00FF87C4H   LINE      CODE     ---       #250
      00FF87E3H   LINE      CODE     ---       #251
      00FF87FEH   LINE      CODE     ---       #252
      00FF8815H   LINE      CODE     ---       #253
      00FF8830H   LINE      CODE     ---       #254
      00FF8854H   LINE      CODE     ---       #255
      ---         BLOCKEND  ---      ---       LVL=0

      00FF66A8H   BLOCK     CODE     ---       LVL=0
      00011D68H   SYMBOL    XDATA    ---       p
      00011D6CH   SYMBOL    XDATA    FLOAT     dat
      00FF66A8H   LINE      CODE     ---       #257
      00FF66BCH   LINE      CODE     ---       #259
      00FF66FAH   LINE      CODE     ---       #260
      00FF6756H   LINE      CODE     ---       #261
      00FF67B4H   LINE      CODE     ---       #262
      00FF681DH   LINE      CODE     ---       #263
      00FF686AH   LINE      CODE     ---       #264
      00FF6894H   LINE      CODE     ---       #265
      00FF68BAH   LINE      CODE     ---       #266
      00FF68CFH   LINE      CODE     ---       #267
      ---         BLOCKEND  ---      ---       LVL=0

      00FF9E48H   BLOCK     CODE     ---       LVL=0
      00FF9E48H   LINE      CODE     ---       #269
      00FF9E48H   LINE      CODE     ---       #272
      00FF9E4BH   LINE      CODE     ---       #273
      00FF9E70H   LINE      CODE     ---       #274
      00FF9E95H   LINE      CODE     ---       #275
      ---         BLOCKEND  ---      ---       LVL=0

      00FF019EH   BLOCK     CODE     ---       LVL=0
      00FF019EH   LINE      CODE     ---       #277
      00FF019EH   LINE      CODE     ---       #279
      00FF01A1H   LINE      CODE     ---       #280
      00FF01A4H   LINE      CODE     ---       #281
      00FF01A7H   LINE      CODE     ---       #282
      ---         BLOCKEND  ---      ---       LVL=0

      ---         MODULE    ---      ---       seekfree_assistant
      00FFA2F6H   PUBLIC    CODE     ---       seekfree_assistant_init
      000105DCH   PUBLIC    XDATA    ---       seekfree_assistant_oscilloscope_data
      00010617H   PUBLIC    XDATA    ---       seekfree_assistant_parameter_update_flag
      0001061FH   PUBLIC    XDATA    ---       seekfree_assistant_parameter
      00011780H   PUBLIC    XDATA    BYTE      ?seekfree_assistant_camera_data_send?BYTE
      00011B70H   PUBLIC    XDATA    BYTE      ?seekfree_assistant_camera_information_config?BYTE
      000112E8H   PUBLIC    XDATA    BYTE      ?seekfree_assistant_camera_boundary_config?BYTE
      000000D0H   SFRSYM    DATA     BYTE      PSW
      0000009DH   SFRSYM    DATA     BYTE      IRCBAND
      00000097H   SFRSYM    DATA     BYTE      AUXR2
      000000EFH   SFRSYM    DATA     BYTE      AUXINTIF
      000000FDH   SFRSYM    DATA     BYTE      S4CON
      000000ACH   SFRSYM    DATA     BYTE      S3CON
      0000009AH   SFRSYM    DATA     BYTE      S2CON
      000000B7H   SFRSYM    DATA     BYTE      IPH
      000000CDH   SFRSYM    DATA     BYTE      SPSTAT
L251 LINKER/LOCATER V4.66.93.0                                                        04/19/2026  22:06:36  PAGE 129


      000000DDH   SFRSYM    DATA     BYTE      T4T3M
      000000C1H   SFRSYM    DATA     BYTE      WDT_CONTR
      000000DFH   SFRSYM    DATA     BYTE      IP3
      000000F4H   SFRSYM    DATA     BYTE      USBCON
      000000B5H   SFRSYM    DATA     BYTE      IP2
      000000FFH   SFRSYM    DATA     BYTE      RSTCFG
      000000C7H   SFRSYM    DATA     BYTE      IAP_CONTR
      000000F9H   SFRSYM    DATA     BYTE      LINICR
      0000008EH   SFRSYM    DATA     BYTE      AUXR
      000000AFH   SFRSYM    DATA     BYTE      IE2
      00000088H   SFRSYM    DATA     BYTE      TCON
      00000089H   SFRSYM    DATA     BYTE      TMOD
      00000098H   SFRSYM    DATA     BYTE      SCON
      000000F1H   SFRSYM    DATA     BYTE      CANICR
      00000087H   SFRSYM    DATA     BYTE      PCON
      000000BCH   SFRSYM    DATA     BYTE      ADC_CONTR
      000000E7H   SFRSYM    DATA     BYTE      CMPCR2
      000000E6H   SFRSYM    DATA     BYTE      CMPCR1
      000000DEH   SFRSYM    DATA     BYTE      ADCCFG
      000000B8H   SFRSYM    DATA     BYTE      IP
      0000008FH   SFRSYM    DATA     BYTE      INTCLKO
      000000EEH   SFRSYM    DATA     BYTE      IP3H
      000000B6H   SFRSYM    DATA     BYTE      IP2H
      000000A8H   SFRSYM    DATA     BYTE      IE
      000000BBH   SFRSYM    DATA     BYTE      P_SW3
      000000BAH   SFRSYM    DATA     BYTE      P_SW2
      000000A2H   SFRSYM    DATA     BYTE      P_SW1
      000000CEH   SFRSYM    DATA     BYTE      SPCTL
      000000F8H   SFRSYM    DATA     BYTE      P7
      000000A8H.7 SFRSYM    DATA     BIT       EA
      000000E8H   SFRSYM    DATA     BYTE      P6
      000000C8H   SFRSYM    DATA     BYTE      P5
      000000C0H   SFRSYM    DATA     BYTE      P4
      000000B0H   SFRSYM    DATA     BYTE      P3
      000000A0H   SFRSYM    DATA     BYTE      P2
      00000090H   SFRSYM    DATA     BYTE      P1
      00000080H   SFRSYM    DATA     BYTE      P0
      000105D4H   SYMBOL    XDATA    ---       seekfree_assistant_camera_dot_data
      00010600H   SYMBOL    XDATA    ---       seekfree_assistant_fifo
      0001063FH   SYMBOL    XDATA    ---       seekfree_assistant_camera_buffer
      00010689H   SYMBOL    XDATA    ---       seekfree_assistant_camera_data
      00010691H   SYMBOL    XDATA    ---       seekfree_assistant_buffer
      00FFAF22H   SYMBOL    HCONST   ---       ?tpl?0001
      00FFAF46H   SYMBOL    HCONST   ---       ?tpl?0002
      00011C77H   SYMBOL    XDATA    ---       buffer
      00011C7BH   SYMBOL    XDATA    DWORD     length
      00011C7FH   SYMBOL    XDATA    BYTE      temp_sum
      00011780H   SYMBOL    XDATA    INT       camera_type
      00011782H   SYMBOL    XDATA    ---       image_addr
      00011786H   SYMBOL    XDATA    BYTE      boundary_num
      00011787H   SYMBOL    XDATA    WORD      width
      00011789H   SYMBOL    XDATA    WORD      height
      0001178BH   SYMBOL    XDATA    DWORD     image_size
      00011B70H   SYMBOL    XDATA    INT       camera_type
      00011B72H   SYMBOL    XDATA    ---       image_addr
      00011B76H   SYMBOL    XDATA    WORD      width
      00011B78H   SYMBOL    XDATA    WORD      height
      00011189H   SYMBOL    XDATA    ---       seekfree_assistant_oscilloscope
      0001118DH   SYMBOL    XDATA    BYTE      packet_size
      0001118EH   SYMBOL    XDATA    BYTE      i
      0001118FH   SYMBOL    XDATA    ---       temp_oscilloscope
      00011D9BH   SYMBOL    XDATA    ---       buffer
      00011D9FH   SYMBOL    XDATA    BYTE      i
      00011DA0H   SYMBOL    XDATA    WORD      dot_bytes
      000112E8H   SYMBOL    XDATA    INT       boundary_type
L251 LINKER/LOCATER V4.66.93.0                                                        04/19/2026  22:06:36  PAGE 130


      000112EAH   SYMBOL    XDATA    WORD      dot_num
      000112ECH   SYMBOL    XDATA    ---       dot_x1
      000112F0H   SYMBOL    XDATA    ---       dot_x2
      000112F4H   SYMBOL    XDATA    ---       dot_x3
      000112F8H   SYMBOL    XDATA    ---       dot_y1
      000112FCH   SYMBOL    XDATA    ---       dot_y2
      00011300H   SYMBOL    XDATA    ---       dot_y3
      00011304H   SYMBOL    XDATA    BYTE      i
      00011305H   SYMBOL    XDATA    BYTE      boundary_num
      00011306H   SYMBOL    XDATA    BYTE      boundary_data_type
      00010B61H   SYMBOL    XDATA    BYTE      temp_sum
      00010B62H   SYMBOL    XDATA    DWORD     read_length
      00010B66H   SYMBOL    XDATA    WORD      struct_len
      00010B68H   SYMBOL    XDATA    ---       receive_packet
      00010B6CH   SYMBOL    XDATA    ---       temp_buffer
      00010BECH   SYMBOL    XDATA    DWORD     i
      00000020H.3 SYMBOL    BIT      BIT       flag

      00FFA2F6H   BLOCK     CODE     ---       LVL=0
      00FFA2F6H   LINE      CODE     ---       #436
      00FFA2F6H   LINE      CODE     ---       #438
      00FFA323H   LINE      CODE     ---       #439
      ---         BLOCKEND  ---      ---       LVL=0

      ---         MODULE    ---      ---       seekfree_assistant_interface
      00011F74H   PUBLIC    XDATA    ---       seekfree_assistant_receive_callback
      00011F76H   PUBLIC    XDATA    ---       seekfree_assistant_transfer_callback
      000000D0H   SFRSYM    DATA     BYTE      PSW
      0000009DH   SFRSYM    DATA     BYTE      IRCBAND
      00000097H   SFRSYM    DATA     BYTE      AUXR2
      000000EFH   SFRSYM    DATA     BYTE      AUXINTIF
      000000FDH   SFRSYM    DATA     BYTE      S4CON
      000000ACH   SFRSYM    DATA     BYTE      S3CON
      0000009AH   SFRSYM    DATA     BYTE      S2CON
      000000B7H   SFRSYM    DATA     BYTE      IPH
      000000CDH   SFRSYM    DATA     BYTE      SPSTAT
      000000DDH   SFRSYM    DATA     BYTE      T4T3M
      000000C1H   SFRSYM    DATA     BYTE      WDT_CONTR
      000000DFH   SFRSYM    DATA     BYTE      IP3
      000000F4H   SFRSYM    DATA     BYTE      USBCON
      000000B5H   SFRSYM    DATA     BYTE      IP2
      000000FFH   SFRSYM    DATA     BYTE      RSTCFG
      000000C7H   SFRSYM    DATA     BYTE      IAP_CONTR
      000000F9H   SFRSYM    DATA     BYTE      LINICR
      0000008EH   SFRSYM    DATA     BYTE      AUXR
      000000AFH   SFRSYM    DATA     BYTE      IE2
      00000088H   SFRSYM    DATA     BYTE      TCON
      00000089H   SFRSYM    DATA     BYTE      TMOD
      00000098H   SFRSYM    DATA     BYTE      SCON
      000000F1H   SFRSYM    DATA     BYTE      CANICR
      00000087H   SFRSYM    DATA     BYTE      PCON
      000000BCH   SFRSYM    DATA     BYTE      ADC_CONTR
      000000E7H   SFRSYM    DATA     BYTE      CMPCR2
      000000E6H   SFRSYM    DATA     BYTE      CMPCR1
      000000DEH   SFRSYM    DATA     BYTE      ADCCFG
      000000B8H   SFRSYM    DATA     BYTE      IP
      0000008FH   SFRSYM    DATA     BYTE      INTCLKO
      000000EEH   SFRSYM    DATA     BYTE      IP3H
      000000B6H   SFRSYM    DATA     BYTE      IP2H
      000000A8H   SFRSYM    DATA     BYTE      IE
      000000BBH   SFRSYM    DATA     BYTE      P_SW3
      000000BAH   SFRSYM    DATA     BYTE      P_SW2
      000000A2H   SFRSYM    DATA     BYTE      P_SW1
      000000CEH   SFRSYM    DATA     BYTE      SPCTL
      000000F8H   SFRSYM    DATA     BYTE      P7
L251 LINKER/LOCATER V4.66.93.0                                                        04/19/2026  22:06:36  PAGE 131


      000000E8H   SFRSYM    DATA     BYTE      P6
      000000C8H   SFRSYM    DATA     BYTE      P5
      000000C0H   SFRSYM    DATA     BYTE      P4
      000000B0H   SFRSYM    DATA     BYTE      P3
      000000A0H   SFRSYM    DATA     BYTE      P2
      00000090H   SFRSYM    DATA     BYTE      P1
      00000080H   SFRSYM    DATA     BYTE      P0
      00011FE2H   SYMBOL    XDATA    INT       transfer_device

      ---         MODULE    ---      ---       main
      00FFA324H   PUBLIC    CODE     ---       main
      00FF75C0H   PUBLIC    CODE     ---       _m
      00011B7AH   PUBLIC    XDATA    ---       adc
      000000D0H   SFRSYM    DATA     BYTE      PSW
      0000009DH   SFRSYM    DATA     BYTE      IRCBAND
      00000097H   SFRSYM    DATA     BYTE      AUXR2
      000000EFH   SFRSYM    DATA     BYTE      AUXINTIF
      000000FDH   SFRSYM    DATA     BYTE      S4CON
      000000ACH   SFRSYM    DATA     BYTE      S3CON
      0000009AH   SFRSYM    DATA     BYTE      S2CON
      000000B7H   SFRSYM    DATA     BYTE      IPH
      000000CDH   SFRSYM    DATA     BYTE      SPSTAT
      000000DDH   SFRSYM    DATA     BYTE      T4T3M
      000000C1H   SFRSYM    DATA     BYTE      WDT_CONTR
      000000DFH   SFRSYM    DATA     BYTE      IP3
      000000F4H   SFRSYM    DATA     BYTE      USBCON
      000000B5H   SFRSYM    DATA     BYTE      IP2
      000000FFH   SFRSYM    DATA     BYTE      RSTCFG
      000000C7H   SFRSYM    DATA     BYTE      IAP_CONTR
      000000F9H   SFRSYM    DATA     BYTE      LINICR
      0000008EH   SFRSYM    DATA     BYTE      AUXR
      000000AFH   SFRSYM    DATA     BYTE      IE2
      00000088H   SFRSYM    DATA     BYTE      TCON
      00000089H   SFRSYM    DATA     BYTE      TMOD
      00000098H   SFRSYM    DATA     BYTE      SCON
      000000F1H   SFRSYM    DATA     BYTE      CANICR
      00000087H   SFRSYM    DATA     BYTE      PCON
      000000BCH   SFRSYM    DATA     BYTE      ADC_CONTR
      000000E7H   SFRSYM    DATA     BYTE      CMPCR2
      000000E6H   SFRSYM    DATA     BYTE      CMPCR1
      000000DEH   SFRSYM    DATA     BYTE      ADCCFG
      000000B8H   SFRSYM    DATA     BYTE      IP
      0000008FH   SFRSYM    DATA     BYTE      INTCLKO
      000000EEH   SFRSYM    DATA     BYTE      IP3H
      000000B6H   SFRSYM    DATA     BYTE      IP2H
      000000A8H   SFRSYM    DATA     BYTE      IE
      000000BBH   SFRSYM    DATA     BYTE      P_SW3
      000000BAH   SFRSYM    DATA     BYTE      P_SW2
      000000A2H   SFRSYM    DATA     BYTE      P_SW1
      000000CEH   SFRSYM    DATA     BYTE      SPCTL
      000000F8H   SFRSYM    DATA     BYTE      P7
      000000E8H   SFRSYM    DATA     BYTE      P6
      000000C8H   SFRSYM    DATA     BYTE      P5
      000000C0H   SFRSYM    DATA     BYTE      P4
      000000B0H   SFRSYM    DATA     BYTE      P3
      000000A0H   SFRSYM    DATA     BYTE      P2
      00000090H   SFRSYM    DATA     BYTE      P1
      00000080H   SFRSYM    DATA     BYTE      P0

      00FFA324H   BLOCK     CODE     ---       LVL=0
      00FFA324H   LINE      CODE     ---       #5
      ---         BLOCKEND  ---      ---       LVL=0

      00FF75C0H   BLOCK     CODE     ---       LVL=0
      00FF75C0H   LINE      CODE     ---       #5
L251 LINKER/LOCATER V4.66.93.0                                                        04/19/2026  22:06:36  PAGE 132


      00FF75C0H   LINE      CODE     ---       #7
      00FF75CBH   LINE      CODE     ---       #8
      00FF75CEH   LINE      CODE     ---       #9
      00FF75D1H   LINE      CODE     ---       #10
      00FF7626H   LINE      CODE     ---       #11
      00FF7679H   LINE      CODE     ---       #12
      00FF76CCH   LINE      CODE     ---       #14
      00FF76CCH   LINE      CODE     ---       #16
      00FF76DCH   LINE      CODE     ---       #17
      00FF76EEH   LINE      CODE     ---       #18
      00FF7700H   LINE      CODE     ---       #19
      00FF7712H   LINE      CODE     ---       #20
      00FF771DH   LINE      CODE     ---       #21
      00FF772CH   LINE      CODE     ---       #22
      00FF773DH   LINE      CODE     ---       #23
      00FF774EH   LINE      CODE     ---       #24
      00FF775FH   LINE      CODE     ---       #27
      00FF7762H   LINE      CODE     ---       #28
      ---         BLOCKEND  ---      ---       LVL=0

      ---         MODULE    ---      ---       isr
      00FF9EE2H   PUBLIC    CODE     ---       INT0_IRQHandler
      00FF9F22H   PUBLIC    CODE     ---       INT1_IRQHandler
      00FF9F62H   PUBLIC    CODE     ---       INT2_IRQHandler
      00FF9FA2H   PUBLIC    CODE     ---       INT3_IRQHandler
      00FF9FE2H   PUBLIC    CODE     ---       INT4_IRQHandler
      00FF8EB6H   PUBLIC    CODE     ---       DMA_UART1_IRQHandler
      00FF9332H   PUBLIC    CODE     ---       DMA_UART2_IRQHandler
      00FF93C1H   PUBLIC    CODE     ---       DMA_UART3_IRQHandler
      00FF9450H   PUBLIC    CODE     ---       DMA_UART4_IRQHandler
      00FFA022H   PUBLIC    CODE     ---       TM0_IRQHandler
      00FFA062H   PUBLIC    CODE     ---       TM1_IRQHandler
      00FFA0A2H   PUBLIC    CODE     ---       TM2_IRQHandler
      00FFA0E2H   PUBLIC    CODE     ---       TM3_IRQHandler
      00FFA122H   PUBLIC    CODE     ---       TM4_IRQHandler
      000000D0H   SFRSYM    DATA     BYTE      PSW
      0000009DH   SFRSYM    DATA     BYTE      IRCBAND
      00000097H   SFRSYM    DATA     BYTE      AUXR2
      000000EFH   SFRSYM    DATA     BYTE      AUXINTIF
      000000FDH   SFRSYM    DATA     BYTE      S4CON
      000000ACH   SFRSYM    DATA     BYTE      S3CON
      0000009AH   SFRSYM    DATA     BYTE      S2CON
      000000B7H   SFRSYM    DATA     BYTE      IPH
      000000CDH   SFRSYM    DATA     BYTE      SPSTAT
      000000DDH   SFRSYM    DATA     BYTE      T4T3M
      000000C1H   SFRSYM    DATA     BYTE      WDT_CONTR
      000000DFH   SFRSYM    DATA     BYTE      IP3
      000000F4H   SFRSYM    DATA     BYTE      USBCON
      000000B5H   SFRSYM    DATA     BYTE      IP2
      000000FFH   SFRSYM    DATA     BYTE      RSTCFG
      000000C7H   SFRSYM    DATA     BYTE      IAP_CONTR
      000000F9H   SFRSYM    DATA     BYTE      LINICR
      0000008EH   SFRSYM    DATA     BYTE      AUXR
      000000AFH   SFRSYM    DATA     BYTE      IE2
      00000088H   SFRSYM    DATA     BYTE      TCON
      00000089H   SFRSYM    DATA     BYTE      TMOD
      00000098H   SFRSYM    DATA     BYTE      SCON
      000000F1H   SFRSYM    DATA     BYTE      CANICR
      00000087H   SFRSYM    DATA     BYTE      PCON
      000000BCH   SFRSYM    DATA     BYTE      ADC_CONTR
      000000E7H   SFRSYM    DATA     BYTE      CMPCR2
      000000E6H   SFRSYM    DATA     BYTE      CMPCR1
      000000DEH   SFRSYM    DATA     BYTE      ADCCFG
      000000B8H   SFRSYM    DATA     BYTE      IP
      0000008FH   SFRSYM    DATA     BYTE      INTCLKO
L251 LINKER/LOCATER V4.66.93.0                                                        04/19/2026  22:06:36  PAGE 133


      000000EEH   SFRSYM    DATA     BYTE      IP3H
      000000B6H   SFRSYM    DATA     BYTE      IP2H
      000000A8H   SFRSYM    DATA     BYTE      IE
      000000BBH   SFRSYM    DATA     BYTE      P_SW3
      000000BAH   SFRSYM    DATA     BYTE      P_SW2
      000000A2H   SFRSYM    DATA     BYTE      P_SW1
      000000CEH   SFRSYM    DATA     BYTE      SPCTL
      000000F8H   SFRSYM    DATA     BYTE      P7
      000000E8H   SFRSYM    DATA     BYTE      P6
      000000C8H   SFRSYM    DATA     BYTE      P5
      000000C0H   SFRSYM    DATA     BYTE      P4
      000000B0H   SFRSYM    DATA     BYTE      P3
      000000A0H   SFRSYM    DATA     BYTE      P2
      00000090H   SFRSYM    DATA     BYTE      P1
      00000080H   SFRSYM    DATA     BYTE      P0

      00FF9EE2H   BLOCK     CODE     ---       LVL=0
      00FF9EE2H   LINE      CODE     ---       #39
      00FF9EF6H   LINE      CODE     ---       #41
      00FF9EF9H   LINE      CODE     ---       #42
      00FF9F05H   LINE      CODE     ---       #44
      00FF9F0DH   LINE      CODE     ---       #45
      ---         BLOCKEND  ---      ---       LVL=0

      00FF9F22H   BLOCK     CODE     ---       LVL=0
      00FF9F22H   LINE      CODE     ---       #49
      00FF9F36H   LINE      CODE     ---       #51
      00FF9F39H   LINE      CODE     ---       #52
      00FF9F45H   LINE      CODE     ---       #54
      00FF9F4DH   LINE      CODE     ---       #55
      ---         BLOCKEND  ---      ---       LVL=0

      00FF9F62H   BLOCK     CODE     ---       LVL=0
      00FF9F62H   LINE      CODE     ---       #58
      00FF9F76H   LINE      CODE     ---       #60
      00FF9F79H   LINE      CODE     ---       #61
      00FF9F85H   LINE      CODE     ---       #63
      00FF9F8DH   LINE      CODE     ---       #64
      ---         BLOCKEND  ---      ---       LVL=0

      00FF9FA2H   BLOCK     CODE     ---       LVL=0
      00FF9FA2H   LINE      CODE     ---       #66
      00FF9FB6H   LINE      CODE     ---       #68
      00FF9FB9H   LINE      CODE     ---       #69
      00FF9FC5H   LINE      CODE     ---       #71
      00FF9FCDH   LINE      CODE     ---       #72
      ---         BLOCKEND  ---      ---       LVL=0

      00FF9FE2H   BLOCK     CODE     ---       LVL=0
      00FF9FE2H   LINE      CODE     ---       #75
      00FF9FF6H   LINE      CODE     ---       #77
      00FF9FF9H   LINE      CODE     ---       #78
      00FFA005H   LINE      CODE     ---       #80
      00FFA00DH   LINE      CODE     ---       #81
      ---         BLOCKEND  ---      ---       LVL=0

      00FF8EB6H   BLOCK     CODE     ---       LVL=0
      00FF8ECAH   BLOCK     CODE     NEAR LAB  LVL=1
      00011FFEH   SYMBOL    XDATA    BYTE      dwon_count
      ---         BLOCKEND  ---      ---       LVL=1
      00FF8EB6H   LINE      CODE     ---       #85
      00FF8ECAH   LINE      CODE     ---       #86
      00FF8ECAH   LINE      CODE     ---       #89
      00FF8ED8H   LINE      CODE     ---       #91
      00FF8EEAH   LINE      CODE     ---       #92
L251 LINKER/LOCATER V4.66.93.0                                                        04/19/2026  22:06:36  PAGE 134


      00FF8EEFH   LINE      CODE     ---       #95
      00FF8EF8H   LINE      CODE     ---       #97
      00FF8F09H   LINE      CODE     ---       #99
      00FF8F0DH   LINE      CODE     ---       #100
      00FF8F0FH   LINE      CODE     ---       #104
      00FF8F14H   LINE      CODE     ---       #105
      00FF8F14H   LINE      CODE     ---       #107
      00FF8F20H   LINE      CODE     ---       #109
      00FF8F2CH   LINE      CODE     ---       #110
      00FF8F2CH   LINE      CODE     ---       #113
      00FF8F3AH   LINE      CODE     ---       #115
      00FF8F4CH   LINE      CODE     ---       #116
      00FF8F51H   LINE      CODE     ---       #120
      ---         BLOCKEND  ---      ---       LVL=0

      00FF9332H   BLOCK     CODE     ---       LVL=0
      00FF9332H   LINE      CODE     ---       #123
      00FF9346H   LINE      CODE     ---       #125
      00FF9354H   LINE      CODE     ---       #127
      00FF9366H   LINE      CODE     ---       #128
      00FF936DH   LINE      CODE     ---       #130
      00FF9379H   LINE      CODE     ---       #132
      00FF9385H   LINE      CODE     ---       #133
      00FF9385H   LINE      CODE     ---       #136
      00FF9393H   LINE      CODE     ---       #138
      00FF93A5H   LINE      CODE     ---       #139
      00FF93ACH   LINE      CODE     ---       #143
      ---         BLOCKEND  ---      ---       LVL=0

      00FF93C1H   BLOCK     CODE     ---       LVL=0
      00FF93C1H   LINE      CODE     ---       #146
      00FF93D5H   LINE      CODE     ---       #148
      00FF93E3H   LINE      CODE     ---       #150
      00FF93F5H   LINE      CODE     ---       #151
      00FF93FCH   LINE      CODE     ---       #153
      00FF9408H   LINE      CODE     ---       #155
      00FF9414H   LINE      CODE     ---       #156
      00FF9414H   LINE      CODE     ---       #159
      00FF9422H   LINE      CODE     ---       #161
      00FF9434H   LINE      CODE     ---       #162
      00FF943BH   LINE      CODE     ---       #166
      ---         BLOCKEND  ---      ---       LVL=0

      00FF9450H   BLOCK     CODE     ---       LVL=0
      00FF9450H   LINE      CODE     ---       #169
      00FF9464H   LINE      CODE     ---       #171
      00FF9472H   LINE      CODE     ---       #173
      00FF9484H   LINE      CODE     ---       #174
      00FF948BH   LINE      CODE     ---       #176
      00FF9497H   LINE      CODE     ---       #178
      00FF94A3H   LINE      CODE     ---       #179
      00FF94A3H   LINE      CODE     ---       #182
      00FF94B1H   LINE      CODE     ---       #184
      00FF94C3H   LINE      CODE     ---       #185
      00FF94CAH   LINE      CODE     ---       #189
      ---         BLOCKEND  ---      ---       LVL=0

      00FFA022H   BLOCK     CODE     ---       LVL=0
      00FFA022H   LINE      CODE     ---       #192
      00FFA036H   LINE      CODE     ---       #194
      00FFA039H   LINE      CODE     ---       #196
      00FFA045H   LINE      CODE     ---       #198
      00FFA04DH   LINE      CODE     ---       #199
      ---         BLOCKEND  ---      ---       LVL=0

L251 LINKER/LOCATER V4.66.93.0                                                        04/19/2026  22:06:36  PAGE 135


      00FFA062H   BLOCK     CODE     ---       LVL=0
      00FFA062H   LINE      CODE     ---       #202
      00FFA076H   LINE      CODE     ---       #204
      00FFA079H   LINE      CODE     ---       #206
      00FFA085H   LINE      CODE     ---       #208
      00FFA08DH   LINE      CODE     ---       #209
      ---         BLOCKEND  ---      ---       LVL=0

      00FFA0A2H   BLOCK     CODE     ---       LVL=0
      00FFA0A2H   LINE      CODE     ---       #212
      00FFA0B6H   LINE      CODE     ---       #214
      00FFA0B9H   LINE      CODE     ---       #216
      00FFA0C5H   LINE      CODE     ---       #218
      00FFA0CDH   LINE      CODE     ---       #219
      ---         BLOCKEND  ---      ---       LVL=0

      00FFA0E2H   BLOCK     CODE     ---       LVL=0
      00FFA0E2H   LINE      CODE     ---       #222
      00FFA0F6H   LINE      CODE     ---       #224
      00FFA0F9H   LINE      CODE     ---       #226
      00FFA105H   LINE      CODE     ---       #228
      00FFA10DH   LINE      CODE     ---       #229
      ---         BLOCKEND  ---      ---       LVL=0

      00FFA122H   BLOCK     CODE     ---       LVL=0
      00FFA122H   LINE      CODE     ---       #232
      00FFA136H   LINE      CODE     ---       #234
      00FFA139H   LINE      CODE     ---       #236
      00FFA145H   LINE      CODE     ---       #238
      00FFA14DH   LINE      CODE     ---       #239
      ---         BLOCKEND  ---      ---       LVL=0

      ---         MODULE    ---      ---       all_init
      00FF9875H   PUBLIC    CODE     ---       ALL_init
      000000D0H   SFRSYM    DATA     BYTE      PSW
      0000009DH   SFRSYM    DATA     BYTE      IRCBAND
      00000097H   SFRSYM    DATA     BYTE      AUXR2
      000000EFH   SFRSYM    DATA     BYTE      AUXINTIF
      000000FDH   SFRSYM    DATA     BYTE      S4CON
      000000ACH   SFRSYM    DATA     BYTE      S3CON
      0000009AH   SFRSYM    DATA     BYTE      S2CON
      000000B7H   SFRSYM    DATA     BYTE      IPH
      000000CDH   SFRSYM    DATA     BYTE      SPSTAT
      000000DDH   SFRSYM    DATA     BYTE      T4T3M
      000000C1H   SFRSYM    DATA     BYTE      WDT_CONTR
      000000DFH   SFRSYM    DATA     BYTE      IP3
      000000F4H   SFRSYM    DATA     BYTE      USBCON
      000000B5H   SFRSYM    DATA     BYTE      IP2
      000000FFH   SFRSYM    DATA     BYTE      RSTCFG
      000000C7H   SFRSYM    DATA     BYTE      IAP_CONTR
      000000F9H   SFRSYM    DATA     BYTE      LINICR
      0000008EH   SFRSYM    DATA     BYTE      AUXR
      000000AFH   SFRSYM    DATA     BYTE      IE2
      00000088H   SFRSYM    DATA     BYTE      TCON
      00000089H   SFRSYM    DATA     BYTE      TMOD
      00000098H   SFRSYM    DATA     BYTE      SCON
      000000F1H   SFRSYM    DATA     BYTE      CANICR
      00000087H   SFRSYM    DATA     BYTE      PCON
      000000BCH   SFRSYM    DATA     BYTE      ADC_CONTR
      000000E7H   SFRSYM    DATA     BYTE      CMPCR2
      000000E6H   SFRSYM    DATA     BYTE      CMPCR1
      000000DEH   SFRSYM    DATA     BYTE      ADCCFG
      000000B8H   SFRSYM    DATA     BYTE      IP
      0000008FH   SFRSYM    DATA     BYTE      INTCLKO
      000000EEH   SFRSYM    DATA     BYTE      IP3H
L251 LINKER/LOCATER V4.66.93.0                                                        04/19/2026  22:06:36  PAGE 136


      000000B6H   SFRSYM    DATA     BYTE      IP2H
      000000A8H   SFRSYM    DATA     BYTE      IE
      000000BBH   SFRSYM    DATA     BYTE      P_SW3
      000000BAH   SFRSYM    DATA     BYTE      P_SW2
      000000A2H   SFRSYM    DATA     BYTE      P_SW1
      000000CEH   SFRSYM    DATA     BYTE      SPCTL
      000000F8H   SFRSYM    DATA     BYTE      P7
      000000E8H   SFRSYM    DATA     BYTE      P6
      000000C8H   SFRSYM    DATA     BYTE      P5
      000000C0H   SFRSYM    DATA     BYTE      P4
      000000B0H   SFRSYM    DATA     BYTE      P3
      000000A0H   SFRSYM    DATA     BYTE      P2
      00000090H   SFRSYM    DATA     BYTE      P1
      00000080H   SFRSYM    DATA     BYTE      P0

      00FF9875H   BLOCK     CODE     ---       LVL=0
      00FF9875H   LINE      CODE     ---       #2
      00FF9875H   LINE      CODE     ---       #4
      00FF9878H   LINE      CODE     ---       #5
      00FF987BH   LINE      CODE     ---       #6
      00FF9892H   LINE      CODE     ---       #7
      00FF98A9H   LINE      CODE     ---       #8
      00FF98BAH   LINE      CODE     ---       #9
      00FF98CBH   LINE      CODE     ---       #10
      00FF98DCH   LINE      CODE     ---       #11
      00FF98DFH   LINE      CODE     ---       #12
      00FF98E2H   LINE      CODE     ---       #13
      00FF98E5H   LINE      CODE     ---       #14
      00FF98E8H   LINE      CODE     ---       #15
      00FF98EBH   LINE      CODE     ---       #16
      00FF98EEH   LINE      CODE     ---       #17
      00FF98F1H   LINE      CODE     ---       #20
      ---         BLOCKEND  ---      ---       LVL=0

      ---         MODULE    ---      ---       encoder
      00FF01AEH   PUBLIC    CODE     ---       pit_handler
      00FF9E96H   PUBLIC    CODE     ---       encoder_init
      00011FE4H   PUBLIC    XDATA    WORD      cnt
      000000D0H   SFRSYM    DATA     BYTE      PSW
      0000009DH   SFRSYM    DATA     BYTE      IRCBAND
      00000097H   SFRSYM    DATA     BYTE      AUXR2
      000000EFH   SFRSYM    DATA     BYTE      AUXINTIF
      000000FDH   SFRSYM    DATA     BYTE      S4CON
      000000ACH   SFRSYM    DATA     BYTE      S3CON
      0000009AH   SFRSYM    DATA     BYTE      S2CON
      000000B7H   SFRSYM    DATA     BYTE      IPH
      000000CDH   SFRSYM    DATA     BYTE      SPSTAT
      000000DDH   SFRSYM    DATA     BYTE      T4T3M
      000000C1H   SFRSYM    DATA     BYTE      WDT_CONTR
      000000DFH   SFRSYM    DATA     BYTE      IP3
      000000F4H   SFRSYM    DATA     BYTE      USBCON
      000000B5H   SFRSYM    DATA     BYTE      IP2
      000000FFH   SFRSYM    DATA     BYTE      RSTCFG
      000000C7H   SFRSYM    DATA     BYTE      IAP_CONTR
      000000F9H   SFRSYM    DATA     BYTE      LINICR
      0000008EH   SFRSYM    DATA     BYTE      AUXR
      000000AFH   SFRSYM    DATA     BYTE      IE2
      00000088H   SFRSYM    DATA     BYTE      TCON
      00000089H   SFRSYM    DATA     BYTE      TMOD
      00000098H   SFRSYM    DATA     BYTE      SCON
      000000F1H   SFRSYM    DATA     BYTE      CANICR
      00000087H   SFRSYM    DATA     BYTE      PCON
      000000BCH   SFRSYM    DATA     BYTE      ADC_CONTR
      000000E7H   SFRSYM    DATA     BYTE      CMPCR2
      000000E6H   SFRSYM    DATA     BYTE      CMPCR1
L251 LINKER/LOCATER V4.66.93.0                                                        04/19/2026  22:06:36  PAGE 137


      000000DEH   SFRSYM    DATA     BYTE      ADCCFG
      000000B8H   SFRSYM    DATA     BYTE      IP
      0000008FH   SFRSYM    DATA     BYTE      INTCLKO
      000000EEH   SFRSYM    DATA     BYTE      IP3H
      000000B6H   SFRSYM    DATA     BYTE      IP2H
      000000A8H   SFRSYM    DATA     BYTE      IE
      000000BBH   SFRSYM    DATA     BYTE      P_SW3
      000000BAH   SFRSYM    DATA     BYTE      P_SW2
      000000A2H   SFRSYM    DATA     BYTE      P_SW1
      000000CEH   SFRSYM    DATA     BYTE      SPCTL
      000000F8H   SFRSYM    DATA     BYTE      P7
      000000E8H   SFRSYM    DATA     BYTE      P6
      000000C8H   SFRSYM    DATA     BYTE      P5
      000000C0H   SFRSYM    DATA     BYTE      P4
      000000B0H   SFRSYM    DATA     BYTE      P3
      000000A0H   SFRSYM    DATA     BYTE      P2
      00000090H   SFRSYM    DATA     BYTE      P1
      00000080H   SFRSYM    DATA     BYTE      P0

      00FF9E96H   BLOCK     CODE     ---       LVL=0
      00FF9E96H   LINE      CODE     ---       #18
      00FF9E96H   LINE      CODE     ---       #20
      00FF9EA0H   LINE      CODE     ---       #22
      00FF9EC5H   LINE      CODE     ---       #24
      00FF9ED2H   LINE      CODE     ---       #25
      00FF9EE1H   LINE      CODE     ---       #26
      ---         BLOCKEND  ---      ---       LVL=0

      00FF01AEH   BLOCK     CODE     ---       LVL=0
      00FF01AEH   LINE      CODE     ---       #28
      00FF01AEH   LINE      CODE     ---       #33
      00FF01B1H   LINE      CODE     ---       #34
      00FF01B4H   LINE      CODE     ---       #35
      00FF01B7H   LINE      CODE     ---       #36
      ---         BLOCKEND  ---      ---       LVL=0

      ---         MODULE    ---      ---       moto
      000000D0H   SFRSYM    DATA     BYTE      PSW
      0000009DH   SFRSYM    DATA     BYTE      IRCBAND
      00000097H   SFRSYM    DATA     BYTE      AUXR2
      000000EFH   SFRSYM    DATA     BYTE      AUXINTIF
      000000FDH   SFRSYM    DATA     BYTE      S4CON
      000000ACH   SFRSYM    DATA     BYTE      S3CON
      0000009AH   SFRSYM    DATA     BYTE      S2CON
      000000B7H   SFRSYM    DATA     BYTE      IPH
      000000CDH   SFRSYM    DATA     BYTE      SPSTAT
      000000DDH   SFRSYM    DATA     BYTE      T4T3M
      000000C1H   SFRSYM    DATA     BYTE      WDT_CONTR
      000000DFH   SFRSYM    DATA     BYTE      IP3
      000000F4H   SFRSYM    DATA     BYTE      USBCON
      000000B5H   SFRSYM    DATA     BYTE      IP2
      000000FFH   SFRSYM    DATA     BYTE      RSTCFG
      000000C7H   SFRSYM    DATA     BYTE      IAP_CONTR
      000000F9H   SFRSYM    DATA     BYTE      LINICR
      0000008EH   SFRSYM    DATA     BYTE      AUXR
      000000AFH   SFRSYM    DATA     BYTE      IE2
      00000088H   SFRSYM    DATA     BYTE      TCON
      00000089H   SFRSYM    DATA     BYTE      TMOD
      00000098H   SFRSYM    DATA     BYTE      SCON
      000000F1H   SFRSYM    DATA     BYTE      CANICR
      00000087H   SFRSYM    DATA     BYTE      PCON
      000000BCH   SFRSYM    DATA     BYTE      ADC_CONTR
      000000E7H   SFRSYM    DATA     BYTE      CMPCR2
      000000E6H   SFRSYM    DATA     BYTE      CMPCR1
      000000DEH   SFRSYM    DATA     BYTE      ADCCFG
L251 LINKER/LOCATER V4.66.93.0                                                        04/19/2026  22:06:36  PAGE 138


      000000B8H   SFRSYM    DATA     BYTE      IP
      0000008FH   SFRSYM    DATA     BYTE      INTCLKO
      000000EEH   SFRSYM    DATA     BYTE      IP3H
      000000B6H   SFRSYM    DATA     BYTE      IP2H
      000000A8H   SFRSYM    DATA     BYTE      IE
      000000BBH   SFRSYM    DATA     BYTE      P_SW3
      000000BAH   SFRSYM    DATA     BYTE      P_SW2
      000000A2H   SFRSYM    DATA     BYTE      P_SW1
      000000CEH   SFRSYM    DATA     BYTE      SPCTL
      000000F8H   SFRSYM    DATA     BYTE      P7
      000000E8H   SFRSYM    DATA     BYTE      P6
      000000C8H   SFRSYM    DATA     BYTE      P5
      000000C0H   SFRSYM    DATA     BYTE      P4
      000000B0H   SFRSYM    DATA     BYTE      P3
      000000A0H   SFRSYM    DATA     BYTE      P2
      00000090H   SFRSYM    DATA     BYTE      P1
      00000080H   SFRSYM    DATA     BYTE      P0
      00011FE6H   SYMBOL    XDATA    INT       P
      00011F78H   SYMBOL    XDATA    INT       speed_left
      00011F7AH   SYMBOL    XDATA    INT       speed_right
      00011E6EH   SYMBOL    XDATA    ---       inductance_norm_data
      00011E72H   SYMBOL    XDATA    WORD      sum

      ---         MODULE    ---      ---       led
      00FFA432H   PUBLIC    CODE     ---       LED_Init
      000000D0H   SFRSYM    DATA     BYTE      PSW
      0000009DH   SFRSYM    DATA     BYTE      IRCBAND
      00000097H   SFRSYM    DATA     BYTE      AUXR2
      000000EFH   SFRSYM    DATA     BYTE      AUXINTIF
      000000FDH   SFRSYM    DATA     BYTE      S4CON
      000000ACH   SFRSYM    DATA     BYTE      S3CON
      0000009AH   SFRSYM    DATA     BYTE      S2CON
      000000B7H   SFRSYM    DATA     BYTE      IPH
      000000CDH   SFRSYM    DATA     BYTE      SPSTAT
      000000DDH   SFRSYM    DATA     BYTE      T4T3M
      000000C1H   SFRSYM    DATA     BYTE      WDT_CONTR
      000000DFH   SFRSYM    DATA     BYTE      IP3
      000000F4H   SFRSYM    DATA     BYTE      USBCON
      000000B5H   SFRSYM    DATA     BYTE      IP2
      000000FFH   SFRSYM    DATA     BYTE      RSTCFG
      000000C7H   SFRSYM    DATA     BYTE      IAP_CONTR
      000000F9H   SFRSYM    DATA     BYTE      LINICR
      0000008EH   SFRSYM    DATA     BYTE      AUXR
      000000AFH   SFRSYM    DATA     BYTE      IE2
      00000088H   SFRSYM    DATA     BYTE      TCON
      00000089H   SFRSYM    DATA     BYTE      TMOD
      00000098H   SFRSYM    DATA     BYTE      SCON
      000000F1H   SFRSYM    DATA     BYTE      CANICR
      00000087H   SFRSYM    DATA     BYTE      PCON
      000000BCH   SFRSYM    DATA     BYTE      ADC_CONTR
      000000E7H   SFRSYM    DATA     BYTE      CMPCR2
      000000E6H   SFRSYM    DATA     BYTE      CMPCR1
      000000DEH   SFRSYM    DATA     BYTE      ADCCFG
      000000B8H   SFRSYM    DATA     BYTE      IP
      0000008FH   SFRSYM    DATA     BYTE      INTCLKO
      000000EEH   SFRSYM    DATA     BYTE      IP3H
      000000B6H   SFRSYM    DATA     BYTE      IP2H
      000000A8H   SFRSYM    DATA     BYTE      IE
      000000BBH   SFRSYM    DATA     BYTE      P_SW3
      000000BAH   SFRSYM    DATA     BYTE      P_SW2
      000000A2H   SFRSYM    DATA     BYTE      P_SW1
      000000CEH   SFRSYM    DATA     BYTE      SPCTL
      000000F8H   SFRSYM    DATA     BYTE      P7
      000000E8H   SFRSYM    DATA     BYTE      P6
      000000C8H   SFRSYM    DATA     BYTE      P5
L251 LINKER/LOCATER V4.66.93.0                                                        04/19/2026  22:06:36  PAGE 139


      000000C0H   SFRSYM    DATA     BYTE      P4
      000000B0H   SFRSYM    DATA     BYTE      P3
      000000A0H   SFRSYM    DATA     BYTE      P2
      00000090H   SFRSYM    DATA     BYTE      P1
      00000080H   SFRSYM    DATA     BYTE      P0

      00FFA432H   BLOCK     CODE     ---       LVL=0
      00FFA432H   LINE      CODE     ---       #19
      00FFA432H   LINE      CODE     ---       #21
      00FFA443H   LINE      CODE     ---       #22
      00FFA454H   LINE      CODE     ---       #23
      ---         BLOCKEND  ---      ---       LVL=0
      00011FE8H   SYMBOL    XDATA    INT       pin
      00011FEAH   SYMBOL    XDATA    INT       pin
      00011FECH   SYMBOL    XDATA    INT       pin

      ---         MODULE    ---      ---       trank
      00FF78FDH   PUBLIC    CODE     ---       PID_Init
      00010711H   PUBLIC    XDATA    FLOAT     eleOut_0
      00010715H   PUBLIC    XDATA    FLOAT     eleOut_1
      00010719H   PUBLIC    XDATA    LONG      speed_right
      0001071DH   PUBLIC    XDATA    LONG      speed_left
      00010721H   PUBLIC    XDATA    LONG      real_right
      00010725H   PUBLIC    XDATA    ---       adc_inductance
      0001072FH   PUBLIC    XDATA    LONG      real_left
      00010733H   PUBLIC    XDATA    ---       right_spid
      0001076FH   PUBLIC    XDATA    FLOAT     Right_High_Speed
      00010773H   PUBLIC    XDATA    FLOAT     eleValue
      00010777H   PUBLIC    XDATA    ---       left_spid
      000107B3H   PUBLIC    XDATA    FLOAT     Left_High_Speed
      000107B7H   PUBLIC    XDATA    FLOAT     High_Speed
      000107BBH   PUBLIC    XDATA    INT       Gyro_Z
      000107BDH   PUBLIC    XDATA    ---       Gyro_PID
      000107F9H   PUBLIC    XDATA    ---       Turn_PID
      00010835H   PUBLIC    XDATA    FLOAT     elemid
      00010839H   PUBLIC    XDATA    FLOAT     left_spid_out
      00011477H   PUBLIC    XDATA    BYTE      ?PID_Init?BYTE
      00011A7CH   PUBLIC    XDATA    BYTE      ?PID_Calc?BYTE
      000000D0H   SFRSYM    DATA     BYTE      PSW
      0000009DH   SFRSYM    DATA     BYTE      IRCBAND
      00000097H   SFRSYM    DATA     BYTE      AUXR2
      000000EFH   SFRSYM    DATA     BYTE      AUXINTIF
      000000FDH   SFRSYM    DATA     BYTE      S4CON
      000000ACH   SFRSYM    DATA     BYTE      S3CON
      0000009AH   SFRSYM    DATA     BYTE      S2CON
      000000B7H   SFRSYM    DATA     BYTE      IPH
      000000CDH   SFRSYM    DATA     BYTE      SPSTAT
      000000DDH   SFRSYM    DATA     BYTE      T4T3M
      000000C1H   SFRSYM    DATA     BYTE      WDT_CONTR
      000000DFH   SFRSYM    DATA     BYTE      IP3
      000000F4H   SFRSYM    DATA     BYTE      USBCON
      000000B5H   SFRSYM    DATA     BYTE      IP2
      000000FFH   SFRSYM    DATA     BYTE      RSTCFG
      000000C7H   SFRSYM    DATA     BYTE      IAP_CONTR
      000000F9H   SFRSYM    DATA     BYTE      LINICR
      0000008EH   SFRSYM    DATA     BYTE      AUXR
      000000AFH   SFRSYM    DATA     BYTE      IE2
      00000088H   SFRSYM    DATA     BYTE      TCON
      00000089H   SFRSYM    DATA     BYTE      TMOD
      00000098H   SFRSYM    DATA     BYTE      SCON
      000000F1H   SFRSYM    DATA     BYTE      CANICR
      00000087H   SFRSYM    DATA     BYTE      PCON
      000000BCH   SFRSYM    DATA     BYTE      ADC_CONTR
      000000E7H   SFRSYM    DATA     BYTE      CMPCR2
      000000E6H   SFRSYM    DATA     BYTE      CMPCR1
L251 LINKER/LOCATER V4.66.93.0                                                        04/19/2026  22:06:36  PAGE 140


      000000DEH   SFRSYM    DATA     BYTE      ADCCFG
      000000B8H   SFRSYM    DATA     BYTE      IP
      0000008FH   SFRSYM    DATA     BYTE      INTCLKO
      000000EEH   SFRSYM    DATA     BYTE      IP3H
      000000B6H   SFRSYM    DATA     BYTE      IP2H
      000000A8H   SFRSYM    DATA     BYTE      IE
      000000BBH   SFRSYM    DATA     BYTE      P_SW3
      000000BAH   SFRSYM    DATA     BYTE      P_SW2
      000000A2H   SFRSYM    DATA     BYTE      P_SW1
      000000CEH   SFRSYM    DATA     BYTE      SPCTL
      000000F8H   SFRSYM    DATA     BYTE      P7
      000000E8H   SFRSYM    DATA     BYTE      P6
      000000C8H   SFRSYM    DATA     BYTE      P5
      000000C0H   SFRSYM    DATA     BYTE      P4
      000000B0H   SFRSYM    DATA     BYTE      P3
      000000A0H   SFRSYM    DATA     BYTE      P2
      00000090H   SFRSYM    DATA     BYTE      P1
      00000080H   SFRSYM    DATA     BYTE      P0

      00FF78FDH   BLOCK     CODE     ---       LVL=0
      00011477H   SYMBOL    XDATA    ---       pid
      0001147BH   SYMBOL    XDATA    FLOAT     kp
      0001147FH   SYMBOL    XDATA    FLOAT     ki
      00011483H   SYMBOL    XDATA    FLOAT     kd
      00011487H   SYMBOL    XDATA    FLOAT     max_out
      0001148BH   SYMBOL    XDATA    FLOAT     max_i
      00FF78FDH   LINE      CODE     ---       #34
      00FF7911H   LINE      CODE     ---       #36
      00FF792CH   LINE      CODE     ---       #37
      00FF7949H   LINE      CODE     ---       #38
      00FF7968H   LINE      CODE     ---       #39
      00FF7988H   LINE      CODE     ---       #40
      00FF79A8H   LINE      CODE     ---       #42
      00FF79C1H   LINE      CODE     ---       #43
      00FF79D8H   LINE      CODE     ---       #44
      00FF79EFH   LINE      CODE     ---       #45
      00FF7A06H   LINE      CODE     ---       #46
      00FF7A1DH   LINE      CODE     ---       #47
      00FF7A34H   LINE      CODE     ---       #48
      00FF7A4BH   LINE      CODE     ---       #49
      00FF7A62H   LINE      CODE     ---       #50
      00FF7A79H   LINE      CODE     ---       #51
      00FF7A90H   LINE      CODE     ---       #52
      ---         BLOCKEND  ---      ---       LVL=0
      00011A7CH   SYMBOL    XDATA    ---       pid
      00011A80H   SYMBOL    XDATA    FLOAT     target
      00011A84H   SYMBOL    XDATA    FLOAT     measure
      0001083DH   SYMBOL    XDATA    INT       t
      00011A88H   SYMBOL    XDATA    ---       pid1
      00011A8CH   SYMBOL    XDATA    ---       pid2
      00011A90H   SYMBOL    XDATA    FLOAT     k
      00011E74H   SYMBOL    XDATA    ---       pid
      00011E78H   SYMBOL    XDATA    INT       current_speed

      ---         MODULE    ---      ---       inductance
      00FF7E9DH   PUBLIC    CODE     ---       Median_Average_Filter
      00FF94DFH   PUBLIC    CODE     ---       ADC_Normalize_0_100
      00FF7763H   PUBLIC    CODE     ---       Inductance_Read
      00FFA3E8H   PUBLIC    CODE     ---       Inductance_Init
      00011A94H   PUBLIC    XDATA    BYTE      ?range_protect_float?BYTE
      000000D0H   SFRSYM    DATA     BYTE      PSW
      0000009DH   SFRSYM    DATA     BYTE      IRCBAND
      00000097H   SFRSYM    DATA     BYTE      AUXR2
      000000EFH   SFRSYM    DATA     BYTE      AUXINTIF
      000000FDH   SFRSYM    DATA     BYTE      S4CON
L251 LINKER/LOCATER V4.66.93.0                                                        04/19/2026  22:06:36  PAGE 141


      000000ACH   SFRSYM    DATA     BYTE      S3CON
      0000009AH   SFRSYM    DATA     BYTE      S2CON
      000000B7H   SFRSYM    DATA     BYTE      IPH
      000000CDH   SFRSYM    DATA     BYTE      SPSTAT
      000000DDH   SFRSYM    DATA     BYTE      T4T3M
      000000C1H   SFRSYM    DATA     BYTE      WDT_CONTR
      000000DFH   SFRSYM    DATA     BYTE      IP3
      000000F4H   SFRSYM    DATA     BYTE      USBCON
      000000B5H   SFRSYM    DATA     BYTE      IP2
      000000FFH   SFRSYM    DATA     BYTE      RSTCFG
      000000C7H   SFRSYM    DATA     BYTE      IAP_CONTR
      000000F9H   SFRSYM    DATA     BYTE      LINICR
      0000008EH   SFRSYM    DATA     BYTE      AUXR
      000000AFH   SFRSYM    DATA     BYTE      IE2
      00000088H   SFRSYM    DATA     BYTE      TCON
      00000089H   SFRSYM    DATA     BYTE      TMOD
      00000098H   SFRSYM    DATA     BYTE      SCON
      000000F1H   SFRSYM    DATA     BYTE      CANICR
      00000087H   SFRSYM    DATA     BYTE      PCON
      000000BCH   SFRSYM    DATA     BYTE      ADC_CONTR
      000000E7H   SFRSYM    DATA     BYTE      CMPCR2
      000000E6H   SFRSYM    DATA     BYTE      CMPCR1
      000000DEH   SFRSYM    DATA     BYTE      ADCCFG
      000000B8H   SFRSYM    DATA     BYTE      IP
      0000008FH   SFRSYM    DATA     BYTE      INTCLKO
      000000EEH   SFRSYM    DATA     BYTE      IP3H
      000000B6H   SFRSYM    DATA     BYTE      IP2H
      000000A8H   SFRSYM    DATA     BYTE      IE
      000000BBH   SFRSYM    DATA     BYTE      P_SW3
      000000BAH   SFRSYM    DATA     BYTE      P_SW2
      000000A2H   SFRSYM    DATA     BYTE      P_SW1
      000000CEH   SFRSYM    DATA     BYTE      SPCTL
      000000F8H   SFRSYM    DATA     BYTE      P7
      000000E8H   SFRSYM    DATA     BYTE      P6
      000000C8H   SFRSYM    DATA     BYTE      P5
      000000C0H   SFRSYM    DATA     BYTE      P4
      000000B0H   SFRSYM    DATA     BYTE      P3
      000000A0H   SFRSYM    DATA     BYTE      P2
      00000090H   SFRSYM    DATA     BYTE      P1
      00000080H   SFRSYM    DATA     BYTE      P0
      00011E7AH   SYMBOL    XDATA    INT       value
      00011E7CH   SYMBOL    XDATA    INT       min_value
      00011E7EH   SYMBOL    XDATA    INT       max_value
      00011A94H   SYMBOL    XDATA    FLOAT     value
      00011A98H   SYMBOL    XDATA    FLOAT     min_value
      00011A9CH   SYMBOL    XDATA    FLOAT     max_value

      00FFA3E8H   BLOCK     CODE     ---       LVL=0
      00FFA3E8H   LINE      CODE     ---       #40
      00FFA3E8H   LINE      CODE     ---       #42
      00FFA3F1H   LINE      CODE     ---       #43
      00FFA3FAH   LINE      CODE     ---       #44
      00FFA403H   LINE      CODE     ---       #45
      00FFA40CH   LINE      CODE     ---       #46
      ---         BLOCKEND  ---      ---       LVL=0

      00FF7E9DH   BLOCK     CODE     ---       LVL=0
      00011845H   SYMBOL    XDATA    ---       arr
      00011849H   SYMBOL    XDATA    INT       times
      00FF7EADH   BLOCK     CODE     NEAR LAB  LVL=1
      0001184BH   SYMBOL    XDATA    INT       min
      0001184DH   SYMBOL    XDATA    INT       max
      0001184FH   SYMBOL    XDATA    INT       sum
      00011851H   SYMBOL    XDATA    INT       i
      ---         BLOCKEND  ---      ---       LVL=1
L251 LINKER/LOCATER V4.66.93.0                                                        04/19/2026  22:06:36  PAGE 142


      00FF7E9DH   LINE      CODE     ---       #56
      00FF7EADH   LINE      CODE     ---       #57
      00FF7EADH   LINE      CODE     ---       #59
      00FF7EE3H   LINE      CODE     ---       #62
      00FF7EEEH   LINE      CODE     ---       #64
      00FF7F0FH   LINE      CODE     ---       #65
      00FF7F2CH   LINE      CODE     ---       #66
      00FF7F4DH   LINE      CODE     ---       #67
      00FF7F6AH   LINE      CODE     ---       #68
      00FF7F8CH   LINE      CODE     ---       #69
      00FF7FAEH   LINE      CODE     ---       #73
      00FF7FD3H   LINE      CODE     ---       #74
      ---         BLOCKEND  ---      ---       LVL=0

      00FF94DFH   BLOCK     CODE     ---       LVL=0
      00011D70H   SYMBOL    XDATA    WORD      adc_val
      00011D72H   SYMBOL    XDATA    WORD      adc_max
      00FF94EBH   BLOCK     CODE     NEAR LAB  LVL=1
      00011D74H   SYMBOL    XDATA    FLOAT     temp
      ---         BLOCKEND  ---      ---       LVL=1
      00FF94DFH   LINE      CODE     ---       #85
      00FF94EBH   LINE      CODE     ---       #86
      00FF94EBH   LINE      CODE     ---       #89
      00FF951BH   LINE      CODE     ---       #91
      00FF9530H   LINE      CODE     ---       #92
      00FF9540H   LINE      CODE     ---       #93
      00FF9551H   LINE      CODE     ---       #94
      00FF955DH   LINE      CODE     ---       #95
      00FF9567H   LINE      CODE     ---       #96
      ---         BLOCKEND  ---      ---       LVL=0
      00011571H   SYMBOL    XDATA    INT       L
      00011573H   SYMBOL    XDATA    INT       LM
      00011575H   SYMBOL    XDATA    INT       RM
      00011577H   SYMBOL    XDATA    INT       R
      00011579H   SYMBOL    XDATA    FLOAT     scaled_err
      0001157DH   SYMBOL    XDATA    FLOAT     numerator
      00011581H   SYMBOL    XDATA    FLOAT     denominator

      00FF7763H   BLOCK     CODE     ---       LVL=0
      00010F09H   SYMBOL    XDATA    ---       inductance_norm_data
      00FF776DH   BLOCK     CODE     NEAR LAB  LVL=1
      00010F0DH   SYMBOL    XDATA    BYTE      i
      00010F0EH   SYMBOL    XDATA    ---       inductance_init_data
      00010F40H   SYMBOL    XDATA    ---       inductance_filter_data
      ---         BLOCKEND  ---      ---       LVL=1
      00FF7763H   LINE      CODE     ---       #126
      00FF776DH   LINE      CODE     ---       #127
      00FF776DH   LINE      CODE     ---       #133
      00FF7775H   LINE      CODE     ---       #135
      00FF7797H   LINE      CODE     ---       #136
      00FF77B9H   LINE      CODE     ---       #137
      00FF77DBH   LINE      CODE     ---       #138
      00FF77FDH   LINE      CODE     ---       #139
      00FF7817H   LINE      CODE     ---       #142
      00FF781FH   LINE      CODE     ---       #145
      00FF7855H   LINE      CODE     ---       #146
      00FF786CH   LINE      CODE     ---       #148
      00FF788FH   LINE      CODE     ---       #149
      00FF78B2H   LINE      CODE     ---       #150
      00FF78D7H   LINE      CODE     ---       #151
      00FF78FCH   LINE      CODE     ---       #152
      ---         BLOCKEND  ---      ---       LVL=0

      ---         MODULE    ---      ---       menu
      00FFA4E5H   PUBLIC    CODE     ---       Parameter_Debug_Init
L251 LINKER/LOCATER V4.66.93.0                                                        04/19/2026  22:06:36  PAGE 143


      00FF0046H   PUBLIC    CODE     ---       Oscilloscope_Init
      00010A2CH   PUBLIC    XDATA    ---       gyro_buffer
      00010A8CH   PUBLIC    XDATA    ---       send_str
      00010AACH   PUBLIC    XDATA    ---       data_buffer
      00011416H   PUBLIC    XDATA    BYTE      ?Parameter_Debug?BYTE
      0001148FH   PUBLIC    XDATA    BYTE      ?Oscilloscope_Display?BYTE
      000000D0H   SFRSYM    DATA     BYTE      PSW
      0000009DH   SFRSYM    DATA     BYTE      IRCBAND
      00000097H   SFRSYM    DATA     BYTE      AUXR2
      000000EFH   SFRSYM    DATA     BYTE      AUXINTIF
      000000FDH   SFRSYM    DATA     BYTE      S4CON
      000000ACH   SFRSYM    DATA     BYTE      S3CON
      0000009AH   SFRSYM    DATA     BYTE      S2CON
      000000B7H   SFRSYM    DATA     BYTE      IPH
      000000CDH   SFRSYM    DATA     BYTE      SPSTAT
      000000DDH   SFRSYM    DATA     BYTE      T4T3M
      000000C1H   SFRSYM    DATA     BYTE      WDT_CONTR
      000000DFH   SFRSYM    DATA     BYTE      IP3
      000000F4H   SFRSYM    DATA     BYTE      USBCON
      000000B5H   SFRSYM    DATA     BYTE      IP2
      000000FFH   SFRSYM    DATA     BYTE      RSTCFG
      000000C7H   SFRSYM    DATA     BYTE      IAP_CONTR
      000000F9H   SFRSYM    DATA     BYTE      LINICR
      0000008EH   SFRSYM    DATA     BYTE      AUXR
      000000AFH   SFRSYM    DATA     BYTE      IE2
      00000088H   SFRSYM    DATA     BYTE      TCON
      00000089H   SFRSYM    DATA     BYTE      TMOD
      00000098H   SFRSYM    DATA     BYTE      SCON
      000000F1H   SFRSYM    DATA     BYTE      CANICR
      00000087H   SFRSYM    DATA     BYTE      PCON
      000000BCH   SFRSYM    DATA     BYTE      ADC_CONTR
      000000E7H   SFRSYM    DATA     BYTE      CMPCR2
      000000E6H   SFRSYM    DATA     BYTE      CMPCR1
      000000DEH   SFRSYM    DATA     BYTE      ADCCFG
      000000B8H   SFRSYM    DATA     BYTE      IP
      0000008FH   SFRSYM    DATA     BYTE      INTCLKO
      000000EEH   SFRSYM    DATA     BYTE      IP3H
      000000B6H   SFRSYM    DATA     BYTE      IP2H
      000000A8H   SFRSYM    DATA     BYTE      IE
      000000BBH   SFRSYM    DATA     BYTE      P_SW3
      000000BAH   SFRSYM    DATA     BYTE      P_SW2
      000000A2H   SFRSYM    DATA     BYTE      P_SW1
      000000CEH   SFRSYM    DATA     BYTE      SPCTL
      000000F8H   SFRSYM    DATA     BYTE      P7
      000000E8H   SFRSYM    DATA     BYTE      P6
      000000C8H   SFRSYM    DATA     BYTE      P5
      000000C0H   SFRSYM    DATA     BYTE      P4
      000000B0H   SFRSYM    DATA     BYTE      P3
      000000A0H   SFRSYM    DATA     BYTE      P2
      00000090H   SFRSYM    DATA     BYTE      P1
      00000080H   SFRSYM    DATA     BYTE      P0
      00010A4CH   SYMBOL    XDATA    ---       temp_uart_buffer
      00011F7CH   SYMBOL    XDATA    ---       inductance_data
      00010BF0H   SYMBOL    XDATA    ---       inductance_data
      00010BF4H   SYMBOL    XDATA    ---       send_buf

      00FFA4E5H   BLOCK     CODE     ---       LVL=0
      00FFA4E5H   LINE      CODE     ---       #93
      00FFA4E5H   LINE      CODE     ---       #95
      00FFA4EFH   LINE      CODE     ---       #96
      00FFA4F2H   LINE      CODE     ---       #97
      ---         BLOCKEND  ---      ---       LVL=0
      00011416H   SYMBOL    XDATA    ---       param1
      0001141AH   SYMBOL    XDATA    ---       param2
      0001141EH   SYMBOL    XDATA    ---       param3
L251 LINKER/LOCATER V4.66.93.0                                                        04/19/2026  22:06:36  PAGE 144


      00011422H   SYMBOL    XDATA    ---       param4
      00011426H   SYMBOL    XDATA    ---       target1
      0001142AH   SYMBOL    XDATA    ---       target2
      0001142EH   SYMBOL    XDATA    BYTE      i

      00FF0046H   BLOCK     CODE     ---       LVL=0
      00FF0046H   LINE      CODE     ---       #117
      00FF0046H   LINE      CODE     ---       #119
      00FF0050H   LINE      CODE     ---       #120
      ---         BLOCKEND  ---      ---       LVL=0
      0001148FH   SYMBOL    XDATA    FLOAT     num1
      00011493H   SYMBOL    XDATA    FLOAT     num2
      00011497H   SYMBOL    XDATA    FLOAT     num3
      0001149BH   SYMBOL    XDATA    FLOAT     num4
      0001149FH   SYMBOL    XDATA    LONG      num5
      000114A3H   SYMBOL    XDATA    LONG      num6

      ---         MODULE    ---      ---       ?C?FPADD
      00FF21D4H   PUBLIC    CODE     ---       ?C?FPADD
      00FF21D1H   PUBLIC    CODE     ---       ?C?FPSUB

      ---         MODULE    ---      ---       ?C?FPMUL
      00FF228CH   PUBLIC    CODE     ---       ?C?FPMUL

      ---         MODULE    ---      ---       ?C?FPDIV
      00FF232CH   PUBLIC    CODE     ---       ?C?FPDIV

      ---         MODULE    ---      ---       ?C?FPCMP
      00FF23AFH   PUBLIC    CODE     ---       ?C?FPCMP
      00FF23ADH   PUBLIC    CODE     ---       ?C?FPCMP3

      ---         MODULE    ---      ---       ?C?FPNEG
      00FF23F3H   PUBLIC    CODE     ---       ?C?FPNEG

      ---         MODULE    ---      ---       ?C?FCAST
      00FF240BH   PUBLIC    CODE     NEAR LAB  ?C?FCASTC
      00FF2406H   PUBLIC    CODE     NEAR LAB  ?C?FCASTI
      00FF2401H   PUBLIC    CODE     NEAR LAB  ?C?FCASTL

      ---         MODULE    ---      ---       ?C?CASTF
      00FF243EH   PUBLIC    CODE     NEAR LAB  ?C?CASTF

      ---         MODULE    ---      ---       PRINTF
      00011203H   PUBLIC    XDATA    ---       ?PRINTF?BYTE
      00FF247BH   PUBLIC    CODE     NEAR LAB  PRINTF

      ---         MODULE    ---      ---       SPRINTF
      00011203H   PUBLIC    XDATA    ---       ?SPRINTF?BYTE
      00FF24A7H   PUBLIC    CODE     NEAR LAB  SPRINTF

      ---         MODULE    ---      ---       SQRT?_
      00FF24C7H   PUBLIC    CODE     ---       SQRT?_

      ---         MODULE    ---      ---       pow

      ---         MODULE    ---      ---       SIN?_
      00FF259FH   PUBLIC    CODE     ---       COS?_
      00FF25BCH   PUBLIC    CODE     ---       SIN?_
      00FF25E9H   PUBLIC    CODE     ---       TAN?_

      ---         MODULE    ---      ---       ATAN?_
      00FF26AFH   PUBLIC    CODE     ---       ATAN?_

      ---         MODULE    ---      ---       ASIN?_
      00FF2781H   PUBLIC    CODE     ---       ASIN?_
L251 LINKER/LOCATER V4.66.93.0                                                        04/19/2026  22:06:36  PAGE 145



      ---         MODULE    ---      ---       ?C?FPGETOPN
      00FF27A1H   PUBLIC    CODE     ---       ?C?FPGETOPN2
      00FF27DEH   PUBLIC    CODE     ---       ?C?FPNANRESULT
      00FF27E6H   PUBLIC    CODE     ---       ?C?FPOVERFLOW
      00FF27BAH   PUBLIC    CODE     ---       ?C?FPRESULT
      00FF27D0H   PUBLIC    CODE     ---       ?C?FPRESULT2
      00FF27E3H   PUBLIC    CODE     ---       ?C?FPUNDERFLOW

      ---         MODULE    ---      ---       _CHKFLOAT_?_
      00FF27F2H   PUBLIC    CODE     ---       _CHKFLOAT_?_

      ---         MODULE    ---      ---       ?C?PRNFMT
      00FF283CH   PUBLIC    CODE     ---       ?C?PRNFMT

      ---         MODULE    ---      ---       ?C?FPSERIES
      00FF2C4BH   PUBLIC    CODE     ---       ?C?FP2SERIES
      00FF2C54H   PUBLIC    CODE     ---       ?C?FPSERIES

      ---         MODULE    ---      ---       EXP?_
      00FF2CB1H   PUBLIC    CODE     ---       EXP?_

      ---         MODULE    ---      ---       LOG?_
      00FF2D40H   PUBLIC    CODE     NEAR LAB  LOG?_

      ---         MODULE    ---      ---       ?C?FPCONVERT
      00FF2E13H   PUBLIC    CODE     ---       ?C?FPCONVERT
      00FF2ECBH   PUBLIC    CODE     ---       ?C?FPROUND

      ---         MODULE    ---      ---       ?C?FTNPWR
      00FF2F3EH   PUBLIC    CODE     ---       ?C?FTNPWR

      ---         MODULE    ---      ---       ?C?INITHDATA
      00FF9DC1H   PUBLIC    CODE     ---       ?C?INITHDATA

      ---         MODULE    ---      ---       ?C?SIDIV
      00FF2F75H   PUBLIC    CODE     ---       ?C?SIDIV

      ---         MODULE    ---      ---       ?C?LMUL
      00FF2FA7H   PUBLIC    CODE     ---       ?C?LMUL

      ---         MODULE    ---      ---       ?C?LIMUL
      00FF2FB8H   PUBLIC    CODE     ---       ?C?LIMUL

      ---         MODULE    ---      ---       ?C?ULDIV
      00FF2FC3H   PUBLIC    CODE     NEAR LAB  ?C?ULDIV
      00FF2FC1H   PUBLIC    CODE     NEAR LAB  ?C?ULIDIV

      ---         MODULE    ---      ---       ?C?SLDIV
      00FF3014H   PUBLIC    CODE     NEAR LAB  ?C?SLDIV

      ---         MODULE    ---      ---       ?C?BMOVEPP
      00FF304AH   PUBLIC    CODE     ---       ?C?BMOVEPP
      00FF3048H   PUBLIC    CODE     ---       ?C?BMOVEPP8

      ---         MODULE    ---      ---       STRNCMP

      ---         MODULE    ---      ---       STRNCPY

      ---         MODULE    ---      ---       STRLEN

      ---         MODULE    ---      ---       STRCHR

      ---         MODULE    ---      ---       memcpy
      00FFA40DH   PUBLIC    CODE     ---       memcpy?_
L251 LINKER/LOCATER V4.66.93.0                                                        04/19/2026  22:06:36  PAGE 146



      ---         MODULE    ---      ---       memset

      ---         MODULE    ---      ---       ?C?INITHDATA_END
      00FFAA7AH   PUBLIC    HCONST   WORD      ?C?INITHDATA_END

Program Size: data=8.4 edata+hdata=2060 xdata=8191 const=4155 code=42154
L251 RUN COMPLETE.  0 WARNING(S),  0 ERROR(S)
