L251 LINKER/LOCATER V4.66.93.0                                                          05/01/2026  20:21:51  PAGE 1


L251 LINKER/LOCATER V4.66.93.0, INVOKED BY:
D:\KEIL_V5\C251\BIN\L251.EXE .\out_file\START251.obj, .\out_file\stc32g_isr.obj, .\out_file\zf_common_clock.obj, .\out_f
>> ile\zf_common_debug.obj, .\out_file\zf_common_fifo.obj, .\out_file\zf_common_font.obj, .\out_file\zf_common_function.
>> obj, .\out_file\zf_common_typedef.obj, .\out_file\zf_common_interrupt.obj, .\out_file\zf_driver_adc.obj, .\out_file\z
>> f_driver_delay.obj, .\out_file\zf_driver_eeprom.obj, .\out_file\zf_driver_encoder.obj, .\out_file\zf_driver_exti.obj,
>>  .\out_file\zf_driver_gpio.obj, .\out_file\zf_driver_pit.obj, .\out_file\zf_driver_pwm.obj, .\out_file\zf_driver_soft
>> _iic.obj, .\out_file\zf_driver_soft_spi.obj, .\out_file\zf_driver_spi.obj, .\out_file\zf_driver_timer.obj, .\out_file
>> \zf_driver_uart.obj, .\out_file\eeprom.obj, .\out_file\voltage_warning.obj, .\out_file\zf_device_ble6a20.obj, .\out_f
>> ile\zf_device_config.obj, .\out_file\zf_device_dl1a.obj, .\out_file\zf_device_dl1b.obj, .\out_file\zf_device_gps_tau1
>> 201.obj, .\out_file\zf_device_icm20602.obj, .\out_file\zf_device_imu660ra.obj, .\out_file\zf_device_imu660rb.obj, .\o
>> ut_file\zf_device_imu963ra.obj, .\out_file\zf_device_ips114.obj, .\out_file\zf_device_ips200.obj, .\out_file\zf_devic
>> e_ips200pro.obj, .\out_file\zf_device_tft180.obj, .\out_file\zf_device_tsl1401.obj, .\out_file\zf_device_type.obj, .\
>> out_file\zf_device_wireless_uart.obj, .\out_file\imu.obj, .\out_file\seekfree_assistant.obj, .\out_file\seekfree_assi
>> stant_interface.obj, .\out_file\isr.obj, .\out_file\main.obj, .\out_file\all_init.obj, .\out_file\encoder.obj, .\out_
>> file\moto.obj, .\out_file\led.obj, .\out_file\trank.obj, .\out_file\inductance.obj, .\out_file\menu.obj, .\out_file\e
>> lement.obj TO .\out_file\SEEKFREE PRINT (.\out_file\SEEKFREE.map) CASE DISABLEWARNING (57, 16) REMOVEUNUSED CLASSES (
>> EDATA (0X0-0XFFF), HDATA (0X0-0XFFF))


CPU MODE:     251 SOURCE MODE
INTR FRAME:   4 BYTES SAVED ON INTERRUPT
MEMORY MODEL: LARGE WITH FLOATING POINT ARITHMETIC


INPUT MODULES INCLUDED:
  .\out_file\START251.obj (?C_START)
         COMMENT TYPE 0: A251 V4.69.13.0
  .\out_file\stc32g_isr.obj (stc32g_isr)
         COMMENT TYPE 0: A251 V4.69.13.0
  .\out_file\zf_common_clock.obj (zf_common_clock)
         COMMENT TYPE 0: C251 V5.60.0
  .\out_file\zf_common_debug.obj (zf_common_debug)
         COMMENT TYPE 0: C251 V5.60.0
  .\out_file\zf_common_fifo.obj (zf_common_fifo)
         COMMENT TYPE 0: C251 V5.60.0
  .\out_file\zf_common_font.obj (zf_common_font)
         COMMENT TYPE 0: C251 V5.60.0
  .\out_file\zf_common_function.obj (zf_common_function)
         COMMENT TYPE 0: C251 V5.60.0
  .\out_file\zf_common_typedef.obj (zf_common_typedef)
         COMMENT TYPE 0: C251 V5.60.0
  .\out_file\zf_common_interrupt.obj (zf_common_interrupt)
         COMMENT TYPE 0: C251 V5.60.0
  .\out_file\zf_driver_adc.obj (zf_driver_adc)
         COMMENT TYPE 0: C251 V5.60.0
  .\out_file\zf_driver_delay.obj (zf_driver_delay)
         COMMENT TYPE 0: C251 V5.60.0
  .\out_file\zf_driver_eeprom.obj (zf_driver_eeprom)
         COMMENT TYPE 0: C251 V5.60.0
  .\out_file\zf_driver_encoder.obj (zf_driver_encoder)
         COMMENT TYPE 0: C251 V5.60.0
  .\out_file\zf_driver_exti.obj (zf_driver_exti)
         COMMENT TYPE 0: C251 V5.60.0
  .\out_file\zf_driver_gpio.obj (zf_driver_gpio)
         COMMENT TYPE 0: C251 V5.60.0
  .\out_file\zf_driver_pit.obj (zf_driver_pit)
         COMMENT TYPE 0: C251 V5.60.0
  .\out_file\zf_driver_pwm.obj (zf_driver_pwm)
         COMMENT TYPE 0: C251 V5.60.0
  .\out_file\zf_driver_soft_iic.obj (zf_driver_soft_iic)
         COMMENT TYPE 0: C251 V5.60.0
  .\out_file\zf_driver_soft_spi.obj (zf_driver_soft_spi)
         COMMENT TYPE 0: C251 V5.60.0
  .\out_file\zf_driver_spi.obj (zf_driver_spi)
         COMMENT TYPE 0: C251 V5.60.0
  .\out_file\zf_driver_timer.obj (zf_driver_timer)
L251 LINKER/LOCATER V4.66.93.0                                                        05/01/2026  20:21:51  PAGE 2


         COMMENT TYPE 0: C251 V5.60.0
  .\out_file\zf_driver_uart.obj (zf_driver_uart)
         COMMENT TYPE 0: C251 V5.60.0
  .\out_file\eeprom.obj (eeprom)
         COMMENT TYPE 0: C251 V5.60.0
  .\out_file\voltage_warning.obj (voltage_warning)
         COMMENT TYPE 0: C251 V5.60.0
  .\out_file\zf_device_ble6a20.obj (zf_device_ble6a20)
         COMMENT TYPE 0: C251 V5.60.0
  .\out_file\zf_device_config.obj (zf_device_config)
         COMMENT TYPE 0: C251 V5.60.0
  .\out_file\zf_device_dl1a.obj (zf_device_dl1a)
         COMMENT TYPE 0: C251 V5.60.0
  .\out_file\zf_device_dl1b.obj (zf_device_dl1b)
         COMMENT TYPE 0: C251 V5.60.0
  .\out_file\zf_device_gps_tau1201.obj (zf_device_gps_tau1201)
         COMMENT TYPE 0: C251 V5.60.0
  .\out_file\zf_device_icm20602.obj (zf_device_icm20602)
         COMMENT TYPE 0: C251 V5.60.0
  .\out_file\zf_device_imu660ra.obj (zf_device_imu660ra)
         COMMENT TYPE 0: C251 V5.60.0
  .\out_file\zf_device_imu660rb.obj (zf_device_imu660rb)
         COMMENT TYPE 0: C251 V5.60.0
  .\out_file\zf_device_imu963ra.obj (zf_device_imu963ra)
         COMMENT TYPE 0: C251 V5.60.0
  .\out_file\zf_device_ips114.obj (zf_device_ips114)
         COMMENT TYPE 0: C251 V5.60.0
  .\out_file\zf_device_ips200.obj (zf_device_ips200)
         COMMENT TYPE 0: C251 V5.60.0
  .\out_file\zf_device_ips200pro.obj (zf_device_ips200pro)
         COMMENT TYPE 0: C251 V5.60.0
  .\out_file\zf_device_tft180.obj (zf_device_tft180)
         COMMENT TYPE 0: C251 V5.60.0
  .\out_file\zf_device_tsl1401.obj (zf_device_tsl1401)
         COMMENT TYPE 0: C251 V5.60.0
  .\out_file\zf_device_type.obj (zf_device_type)
         COMMENT TYPE 0: C251 V5.60.0
  .\out_file\zf_device_wireless_uart.obj (zf_device_wireless_uart)
         COMMENT TYPE 0: C251 V5.60.0
  .\out_file\imu.obj (imu)
         COMMENT TYPE 0: C251 V5.60.0
  .\out_file\seekfree_assistant.obj (seekfree_assistant)
         COMMENT TYPE 0: C251 V5.60.0
  .\out_file\seekfree_assistant_interface.obj (seekfree_assistant_interface)
         COMMENT TYPE 0: C251 V5.60.0
  .\out_file\isr.obj (isr)
         COMMENT TYPE 0: C251 V5.60.0
  .\out_file\main.obj (main)
         COMMENT TYPE 0: C251 V5.60.0
  .\out_file\all_init.obj (all_init)
         COMMENT TYPE 0: C251 V5.60.0
  .\out_file\encoder.obj (encoder)
         COMMENT TYPE 0: C251 V5.60.0
  .\out_file\moto.obj (moto)
         COMMENT TYPE 0: C251 V5.60.0
  .\out_file\led.obj (led)
         COMMENT TYPE 0: C251 V5.60.0
  .\out_file\trank.obj (trank)
         COMMENT TYPE 0: C251 V5.60.0
  .\out_file\inductance.obj (inductance)
         COMMENT TYPE 0: C251 V5.60.0
  .\out_file\menu.obj (menu)
         COMMENT TYPE 0: C251 V5.60.0
  .\out_file\element.obj (element)
         COMMENT TYPE 0: C251 V5.60.0
L251 LINKER/LOCATER V4.66.93.0                                                        05/01/2026  20:21:51  PAGE 3


  D:\KEIL_V5\C251\LIB\C2SFPL.LIB (?C?FPADD)
         COMMENT TYPE 0: A251 V4.69.6.0
  D:\KEIL_V5\C251\LIB\C2SFPL.LIB (?C?FPMUL)
         COMMENT TYPE 0: A251 V4.69.6.0
  D:\KEIL_V5\C251\LIB\C2SFPL.LIB (?C?FPDIV)
         COMMENT TYPE 0: A251 V4.69.6.0
  D:\KEIL_V5\C251\LIB\C2SFPL.LIB (?C?FPCMP)
         COMMENT TYPE 0: A251 V4.69.6.0
  D:\KEIL_V5\C251\LIB\C2SFPL.LIB (?C?FPNEG)
         COMMENT TYPE 0: A251 V4.69.6.0
  D:\KEIL_V5\C251\LIB\C2SFPL.LIB (?C?FCAST)
         COMMENT TYPE 0: A251 V4.69.6.0
  D:\KEIL_V5\C251\LIB\C2SFPL.LIB (?C?CASTF)
         COMMENT TYPE 0: A251 V4.69.6.0
  D:\KEIL_V5\C251\LIB\C2SFPL.LIB (PRINTF)
         COMMENT TYPE 0: A251 V4.69.6.0
  D:\KEIL_V5\C251\LIB\C2SFPL.LIB (SPRINTF)
         COMMENT TYPE 0: A251 V4.69.6.0
  D:\KEIL_V5\C251\LIB\C2SFPL.LIB (SQRT?_)
         COMMENT TYPE 0: A251 V4.69.6.0
  D:\KEIL_V5\C251\LIB\C2SFPL.LIB (pow)
         COMMENT TYPE 0: C251 V5.58.7
  D:\KEIL_V5\C251\LIB\C2SFPL.LIB (SIN?_)
         COMMENT TYPE 0: A251 V4.69.6.0
  D:\KEIL_V5\C251\LIB\C2SFPL.LIB (ATAN?_)
         COMMENT TYPE 0: A251 V4.69.6.0
  D:\KEIL_V5\C251\LIB\C2SFPL.LIB (ASIN?_)
         COMMENT TYPE 0: A251 V4.69.6.0
  D:\KEIL_V5\C251\LIB\C2SFPL.LIB (?C?FPGETOPN)
         COMMENT TYPE 0: A251 V4.69.6.0
  D:\KEIL_V5\C251\LIB\C2SFPL.LIB (_CHKFLOAT_?_)
         COMMENT TYPE 0: A251 V4.69.6.0
  D:\KEIL_V5\C251\LIB\C2SFPL.LIB (?C?PRNFMT)
         COMMENT TYPE 0: A251 V4.69.6.0
  D:\KEIL_V5\C251\LIB\C2SFPL.LIB (?C?FPSERIES)
         COMMENT TYPE 0: A251 V4.69.6.0
  D:\KEIL_V5\C251\LIB\C2SFPL.LIB (EXP?_)
         COMMENT TYPE 0: A251 V4.69.6.0
  D:\KEIL_V5\C251\LIB\C2SFPL.LIB (LOG?_)
         COMMENT TYPE 0: A251 V4.69.6.0
  D:\KEIL_V5\C251\LIB\C2SFPL.LIB (?C?FPCONVERT)
         COMMENT TYPE 0: A251 V4.69.6.0
  D:\KEIL_V5\C251\LIB\C2SFPL.LIB (?C?FTNPWR)
         COMMENT TYPE 0: A251 V4.69.6.0
  D:\KEIL_V5\C251\LIB\C2SL.LIB (?C?INITHDATA)
         COMMENT TYPE 0: A251 V4.69.6.0
  D:\KEIL_V5\C251\LIB\C2SL.LIB (?C?SIDIV)
         COMMENT TYPE 0: A251 V4.69.6.0
  D:\KEIL_V5\C251\LIB\C2SL.LIB (?C?LMUL)
         COMMENT TYPE 0: A251 V4.69.6.0
  D:\KEIL_V5\C251\LIB\C2SL.LIB (?C?LIMUL)
         COMMENT TYPE 0: A251 V4.69.6.0
  D:\KEIL_V5\C251\LIB\C2SL.LIB (?C?ULDIV)
         COMMENT TYPE 0: A251 V4.69.6.0
  D:\KEIL_V5\C251\LIB\C2SL.LIB (?C?SLDIV)
         COMMENT TYPE 0: A251 V4.69.6.0
  D:\KEIL_V5\C251\LIB\C2SL.LIB (?C?BMOVEPP)
         COMMENT TYPE 0: A251 V4.69.6.0
  D:\KEIL_V5\C251\LIB\C2SL.LIB (STRNCMP)
         COMMENT TYPE 0: C251 V5.58.7
  D:\KEIL_V5\C251\LIB\C2SL.LIB (STRNCPY)
         COMMENT TYPE 0: C251 V5.58.7
  D:\KEIL_V5\C251\LIB\C2SL.LIB (STRLEN)
         COMMENT TYPE 0: C251 V5.58.7
  D:\KEIL_V5\C251\LIB\C2SL.LIB (STRCHR)
L251 LINKER/LOCATER V4.66.93.0                                                        05/01/2026  20:21:51  PAGE 4


         COMMENT TYPE 0: C251 V5.58.7
  D:\KEIL_V5\C251\LIB\C2SL.LIB (memcpy)
         COMMENT TYPE 0: C251 V5.58.7
  D:\KEIL_V5\C251\LIB\C2SL.LIB (memset)
         COMMENT TYPE 0: C251 V5.58.7
  D:\KEIL_V5\C251\LIB\C2SL.LIB (?C?INITHDATA_END)
         COMMENT TYPE 0: A251 V4.69.6.0


ACTIVE MEMORY CLASSES OF MODULE:  .\out_file\SEEKFREE (?C_START)

BASE        START       END         USED      MEMORY CLASS
==========================================================
000000H     000000H     000FFFH     00080CH   EDATA
000000H     000000H     000FFFH               HDATA
FF0000H     FF0000H     FFFFFFH     00A4DEH   CODE
010000H     010000H     01FFFFH     001FEFH   XDATA
000000H     FF0000H     FFFFFFH     000FE3H   HCONST
000020H.0   000020H.0   00002FH.7   000000H.4 BIT
FF0000H     FF0000H     FFFFFFH     000004H   CONST
000000H     000000H     00007FH     000008H   DATA


MEMORY MAP OF MODULE:  .\out_file\SEEKFREE (?C_START)


START     STOP      LENGTH    ALIGN  RELOC    MEMORY CLASS   SEGMENT NAME
=========================================================================
000000H   000007H   000008H   ---    AT..     DATA           "REG BANK 0"
000008H   00000FH   000008H   BYTE   UNIT     EDATA          ?ED?DL1A_ENCODE_TIMEOUT?ZF_DEVICE_DL1A
000010H   000013H   000004H   BYTE   UNIT     EDATA          ?ED?ICM20602_SIMSPI_R_REG_BYTES?ZF_DEVICE_ICM20602
000014H.0 00001FH.7 00000CH.0 ---    ---      **GAP**
000020H.0 000020H.0 000000H.1 BIT    UNIT     BIT            ?BI?IAP_READ_BYTE?ZF_DRIVER_EEPROM
000020H.1 000020H.1 000000H.1 BIT    UNIT     BIT            ?BI?IAP_WRITE_BYTE?ZF_DRIVER_EEPROM
000020H.2 000020H.2 000000H.1 BIT    UNIT     BIT            ?BI?IAP_ERASE_PAGE?ZF_DRIVER_EEPROM
000020H.3 000020H.3 000000H.1 BIT    UNIT     BIT            ?BI?SEEKFREE_ASSISTANT_DATA_ANALYSIS?SEEKFREE_ASSISTANT
000020H.4 000020H   000000H.4 ---    ---      **GAP**
000021H   000820H   000800H   BYTE   UNIT     EDATA          ?STACK
000821H   00FFFFH   00F7DFH   ---    ---      **GAP**
010000H   010209H   00020AH   BYTE   UNIT     XDATA          ?XD?EXTERN_IAP_WRITE_BUFF?ZF_DRIVER_EEPROM
01020AH   01040BH   000202H   BYTE   INSEG    XDATA          ?XD?ZF_DEVICE_TSL1401
01040CH   0105D3H   0001C8H   BYTE   INSEG    XDATA          ?XD?ZF_DEVICE_GPS_TAU1201
0105D4H   010710H   00013DH   BYTE   INSEG    XDATA          ?XD?SEEKFREE_ASSISTANT
010711H   010840H   000130H   BYTE   INSEG    XDATA          ?XD?TRANK
010841H   01095FH   00011FH   BYTE   INSEG    XDATA          ?XD?IMU
010960H   010A5FH   000100H   BYTE   INSEG    XDATA          ?XD?MENU
010A60H   010B2DH   0000CEH   BYTE   UNIT     XDATA          ?XD?DL1A_INIT?ZF_DEVICE_DL1A
010B2EH   010BC2H   000095H   BYTE   UNIT     XDATA          ?XD?GPS_INIT?ZF_DEVICE_GPS_TAU1201
010BC3H   010C51H   00008FH   BYTE   UNIT     XDATA          ?XD?SEEKFREE_ASSISTANT_DATA_ANALYSIS?SEEKFREE_ASSISTANT
010C52H   010CB0H   00005FH   BYTE   UNIT     XDATA          ?XD?ZF_SPRINTF?ZF_COMMON_FUNCTION
010CB1H   010D09H   000059H   BYTE   INSEG    XDATA          ?XD?ZF_COMMON_DEBUG
010D0AH   010D60H   000057H   BYTE   INSEG    XDATA          ?XD?ZF_DEVICE_BLE6A20
010D61H   010DB7H   000057H   BYTE   INSEG    XDATA          ?XD?ZF_DEVICE_WIRELESS_UART
010DB8H   010E0AH   000053H   BYTE   UNIT     XDATA          ?XD?VSNPRINTF?ZF_COMMON_FUNCTION
010E0BH   010E57H   00004DH   BYTE   INSEG    XDATA          ?XD?ZF_DEVICE_IPS200PRO
010E58H   010EA1H   00004AH   BYTE   UNIT     XDATA          ?XD?UART_WRITE_BUFFER?ZF_DRIVER_UART
010EA2H   010EE6H   000045H   BYTE   UNIT     XDATA          ?XD?IPS200PRO_TABLE_CELL_PRINTF?ZF_DEVICE_IPS200PRO
010EE7H   010F25H   00003FH   BYTE   UNIT     XDATA          ?XD?IPS200PRO_LABEL_PRINTF?ZF_DEVICE_IPS200PRO
010F26H   010F61H   00003CH   BYTE   INSEG    XDATA          ?XD?INDUCTANCE
010F62H   010F99H   000038H   BYTE   UNIT     XDATA          ?XD?FUNC_DOUBLE_TO_STR?ZF_COMMON_FUNCTION
010F9AH   010FC9H   000030H   BYTE   UNIT     XDATA          ?XD?GET_TWO_POINTS_DISTANCE?ZF_DEVICE_GPS_TAU1201
010FCAH   010FF9H   000030H   BYTE   UNIT     XDATA          ?XD?IPS114_SHOW_FLOAT?ZF_DEVICE_IPS114
010FFAH   011029H   000030H   BYTE   UNIT     XDATA          ?XD?IPS200_SHOW_FLOAT?ZF_DEVICE_IPS200
01102AH   011059H   000030H   BYTE   UNIT     XDATA          ?XD?TFT180_SHOW_FLOAT?ZF_DEVICE_TFT180
01105AH   011088H   00002FH   BYTE   UNIT     XDATA          ?XD?DL1A_SET_MEASUREMENT_TIMING_BUDGET?ZF_DEVICE_DL1A
L251 LINKER/LOCATER V4.66.93.0                                                        05/01/2026  20:21:51  PAGE 5


011089H   0110B4H   00002CH   BYTE   UNIT     XDATA          ?XD?IPS114_SHOW_INT32?ZF_DEVICE_IPS114
0110B5H   0110E0H   00002CH   BYTE   UNIT     XDATA          ?XD?IPS200_SHOW_INT32?ZF_DEVICE_IPS200
0110E1H   01110CH   00002CH   BYTE   UNIT     XDATA          ?XD?TFT180_SHOW_INT32?ZF_DEVICE_TFT180
01110DH   011137H   00002BH   BYTE   UNIT     XDATA          ?XD?GPS_GNRMC_PARSE?ZF_DEVICE_GPS_TAU1201
011138H   011161H   00002AH   BYTE   UNIT     XDATA          ?XD?FUNC_FLOAT_TO_STR?ZF_COMMON_FUNCTION
011162H   01118BH   00002AH   BYTE   UNIT     XDATA          ?XD?SEEKFREE_ASSISTANT_OSCILLOSCOPE_SEND?SEEKFREE_ASSISTAN
                                                             -T
01118CH   0111B3H   000028H   BYTE   UNIT     XDATA          ?XD?IPS200PRO_IMAGE_DISPLAY?ZF_DEVICE_IPS200PRO
0111B4H   0111DBH   000028H   BYTE   UNIT     XDATA          _XDATA_GROUP_
0111DCH   011200H   000025H   BYTE   UNIT     XDATA          ?XD?FUNC_HEX_TO_STR?ZF_COMMON_FUNCTION
011201H   011222H   000022H   BYTE   UNIT     XDATA          ?XD?IPS200PRO_IMAGE_DRAW_RECTANGLE?ZF_DEVICE_IPS200PRO
011223H   011242H   000020H   BYTE   UNIT     XDATA          ?XD?IPS114_SHOW_WAVE?ZF_DEVICE_IPS114
011243H   011262H   000020H   BYTE   UNIT     XDATA          ?XD?IPS200_SHOW_WAVE?ZF_DEVICE_IPS200
011263H   011282H   000020H   BYTE   UNIT     XDATA          ?XD?TFT180_SHOW_WAVE?ZF_DEVICE_TFT180
011283H   0112A1H   00001FH   BYTE   UNIT     XDATA          ?XD?DL1A_GET_MEASUREMENT_TIMING_BUDGET?ZF_DEVICE_DL1A
0112A2H   0112C0H   00001FH   BYTE   UNIT     XDATA          ?XD?IPS200PRO_WRITE_PACKET?ZF_DEVICE_IPS200PRO
0112C1H   0112DFH   00001FH   BYTE   UNIT     XDATA          ?XD?SEEKFREE_ASSISTANT_CAMERA_BOUNDARY_CONFIG?SEEKFREE_ASS
                                                             -ISTANT
0112E0H   0112FDH   00001EH   BYTE   INSEG    XDATA          ?XD?ZF_COMMON_TYPEDEF
0112FEH   01131BH   00001EH   BYTE   INSEG    XDATA          ?XD?ZF_DEVICE_IMU963RA
01131CH   011338H   00001DH   BYTE   UNIT     XDATA          ?XD?FUNC_INT_TO_STR?ZF_COMMON_FUNCTION
011339H   011354H   00001CH   BYTE   UNIT     XDATA          ?XD?GET_TWO_POINTS_AZIMUTH?ZF_DEVICE_GPS_TAU1201
011355H   011370H   00001CH   BYTE   UNIT     XDATA          ?XD?PID_INIT?TRANK
011371H   01138BH   00001BH   BYTE   UNIT     XDATA          ?XD?IPS200PRO_CREATE_WIDGETS?ZF_DEVICE_IPS200PRO
01138CH   0113A5H   00001AH   BYTE   UNIT     XDATA          ?XD?IPS200PRO_WAVEFORM_ADD_VALUE?ZF_DEVICE_IPS200PRO
0113A6H   0113BFH   00001AH   BYTE   UNIT     XDATA          ?XD?IPS200PRO_IMAGE_DRAW_LINE?ZF_DEVICE_IPS200PRO
0113C0H   0113D8H   000019H   BYTE   UNIT     XDATA          ?XD?FUNC_UINT_TO_STR?ZF_COMMON_FUNCTION
0113D9H   0113F1H   000019H   BYTE   UNIT     XDATA          ?XD?IPS114_SHOW_CHINESE?ZF_DEVICE_IPS114
0113F2H   01140AH   000019H   BYTE   UNIT     XDATA          ?XD?IPS200_SHOW_CHINESE?ZF_DEVICE_IPS200
01140BH   011423H   000019H   BYTE   UNIT     XDATA          ?XD?PARAMETER_DEBUG?MENU
011424H   01143BH   000018H   BYTE   UNIT     XDATA          ?XD?FIFO_READ_BUFFER?ZF_COMMON_FIFO
01143CH   011453H   000018H   BYTE   UNIT     XDATA          ?XD?GET_FLOAT_NUMBER?ZF_DEVICE_GPS_TAU1201
011454H   01146BH   000018H   BYTE   UNIT     XDATA          ?XD?GET_DOUBLE_NUMBER?ZF_DEVICE_GPS_TAU1201
01146CH   011483H   000018H   BYTE   UNIT     XDATA          ?XD?OSCILLOSCOPE_DISPLAY?MENU
011484H   011498H   000015H   BYTE   UNIT     XDATA          ?XD?SOFT_SPI_INIT?ZF_DRIVER_SOFT_SPI
011499H   0114ADH   000015H   BYTE   UNIT     XDATA          ?XD?IPS200PRO_GET_INFORMATION?ZF_DEVICE_IPS200PRO
0114AEH   0114C1H   000014H   BYTE   UNIT     XDATA          ?XD?DEBUG_ASSERT_HANDLER?ZF_COMMON_DEBUG
0114C2H   0114D5H   000014H   BYTE   UNIT     XDATA          ?XD?NUMBER_CONVERSION_ASCII?ZF_COMMON_FUNCTION
0114D6H   0114E9H   000014H   BYTE   UNIT     XDATA          ?XD?PWM_SET_FREQ?ZF_DRIVER_PWM
0114EAH   0114FDH   000014H   BYTE   UNIT     XDATA          ?XD?SOFT_IIC_TRANSFER_8BIT_ARRAY?ZF_DRIVER_SOFT_IIC
0114FEH   011511H   000014H   BYTE   UNIT     XDATA          ?XD?SOFT_IIC_TRANSFER_16BIT_ARRAY?ZF_DRIVER_SOFT_IIC
011512H   011525H   000014H   BYTE   UNIT     XDATA          ?XD?SPI_INIT?ZF_DRIVER_SPI
011526H   011539H   000014H   BYTE   INSEG    XDATA          ?XD?ZF_DEVICE_ICM20602
01153AH   01154DH   000014H   BYTE   INSEG    XDATA          ?XD?ZF_DEVICE_IMU660RA
01154EH   011561H   000014H   BYTE   UNIT     XDATA          ?XD?INDUCTANCE_COUNT_ERR?INDUCTANCE
011562H   011574H   000013H   BYTE   UNIT     XDATA          ?XD?IMU660RA_READ_REGISTERS?ZF_DEVICE_IMU660RA
011575H   011587H   000013H   BYTE   UNIT     XDATA          ?XD?IPS200PRO_SET_COLOR?ZF_DEVICE_IPS200PRO
011588H   01159AH   000013H   BYTE   UNIT     XDATA          ?XD?IPS200PRO_SET_POSITION?ZF_DEVICE_IPS200PRO
01159BH   0115ADH   000013H   BYTE   UNIT     XDATA          ?XD?IPS200PRO_WAVEFORM_LINE_STATE?ZF_DEVICE_IPS200PRO
0115AEH   0115C0H   000013H   BYTE   UNIT     XDATA          ?XD?IPS200PRO_CONTAINER_RADIUS?ZF_DEVICE_IPS200PRO
0115C1H   0115D2H   000012H   BYTE   UNIT     XDATA          ?XD?FIFO_WRITE_BUFFER?ZF_COMMON_FIFO
0115D3H   0115E4H   000012H   BYTE   UNIT     XDATA          ?XD?PWM_INIT?ZF_DRIVER_PWM
0115E5H   0115F6H   000012H   BYTE   UNIT     XDATA          ?XD?IPS200PRO_TABLE_SET_COL_WIDTH?ZF_DEVICE_IPS200PRO
0115F7H   011608H   000012H   BYTE   UNIT     XDATA          ?XD?IPS200PRO_CALENDAR_DISPLAY?ZF_DEVICE_IPS200PRO
011609H   011619H   000011H   BYTE   UNIT     XDATA          ?XD?FUNC_STR_TO_FLOAT?ZF_COMMON_FUNCTION
01161AH   01162AH   000011H   BYTE   UNIT     XDATA          ?XD?FUNC_STR_TO_DOUBLE?ZF_COMMON_FUNCTION
01162BH   01163BH   000011H   BYTE   UNIT     XDATA          ?XD?GET_INT_NUMBER?ZF_DEVICE_GPS_TAU1201
01163CH   01164CH   000011H   BYTE   UNIT     XDATA          ?XD?IPS200PRO_SET_DATE?ZF_DEVICE_IPS200PRO
01164DH   01165DH   000011H   BYTE   UNIT     XDATA          ?XD?IPS200PRO_SET_PARENT?ZF_DEVICE_IPS200PRO
01165EH   01166EH   000011H   BYTE   UNIT     XDATA          ?XD?IPS200PRO_GET_DATE?ZF_DEVICE_IPS200PRO
01166FH   01167FH   000011H   BYTE   UNIT     XDATA          ?XD?IPS200PRO_GET_TIME?ZF_DEVICE_IPS200PRO
011680H   011690H   000011H   BYTE   UNIT     XDATA          ?XD?IPS200PRO_GET_FREE_STACK_SIZE?ZF_DEVICE_IPS200PRO
011691H   0116A1H   000011H   BYTE   UNIT     XDATA          ?XD?IPS200PRO_TABLE_SELECT?ZF_DEVICE_IPS200PRO
0116A2H   0116B2H   000011H   BYTE   UNIT     XDATA          ?XD?IPS200PRO_PROGRESS_BAR_SET_VALUE?ZF_DEVICE_IPS200PRO
0116B3H   0116C2H   000010H   BYTE   UNIT     XDATA          ?XD?SOFT_SPI_TRANSFER_8BIT?ZF_DRIVER_SOFT_SPI
L251 LINKER/LOCATER V4.66.93.0                                                        05/01/2026  20:21:51  PAGE 6


0116C3H   0116D2H   000010H   BYTE   UNIT     XDATA          ?XD?SOFT_SPI_TRANSFER_16BIT?ZF_DRIVER_SOFT_SPI
0116D3H   0116E2H   000010H   BYTE   UNIT     XDATA          ?XD?IPS200PRO_SET_TIME?ZF_DEVICE_IPS200PRO
0116E3H   0116F2H   000010H   BYTE   UNIT     XDATA          ?XD?IPS200PRO_PAGE_SET_TITLE_POSITION_WIDTH?ZF_DEVICE_IPS2
                                                             -00PRO
0116F3H   011702H   000010H   BYTE   UNIT     XDATA          ?XD?FAST_SQRT?IMU
011703H   011711H   00000FH   BYTE   UNIT     XDATA          ?XD?IPS200PRO_SET_FONT?ZF_DEVICE_IPS200PRO
011712H   011720H   00000FH   BYTE   UNIT     XDATA          ?XD?IPS200PRO_PAGE_SWITCH?ZF_DEVICE_IPS200PRO
011721H   01172FH   00000FH   BYTE   UNIT     XDATA          ?XD?IPS200PRO_PAGE_SET_TITLE_NAME?ZF_DEVICE_IPS200PRO
011730H   01173EH   00000FH   BYTE   UNIT     XDATA          ?XD?IPS200PRO_LABEL_SHOW_STRING?ZF_DEVICE_IPS200PRO
01173FH   01174DH   00000FH   BYTE   UNIT     XDATA          ?XD?IPS200PRO_LABEL_MODE?ZF_DEVICE_IPS200PRO
01174EH   01175CH   00000FH   BYTE   UNIT     XDATA          ?XD?IPS200PRO_METER_SET_VALUE?ZF_DEVICE_IPS200PRO
01175DH   01176BH   00000FH   BYTE   UNIT     XDATA          ?XD?SEEKFREE_ASSISTANT_CAMERA_DATA_SEND?SEEKFREE_ASSISTANT
01176CH   011779H   00000EH   BYTE   UNIT     XDATA          ?XD?FIFO_INIT?ZF_COMMON_FIFO
01177AH   011787H   00000EH   BYTE   UNIT     XDATA          ?XD?FUNC_STR_TO_HEX?ZF_COMMON_FUNCTION
011788H   011795H   00000EH   BYTE   UNIT     XDATA          ?XD?PWM_SET_DUTY?ZF_DRIVER_PWM
011796H   0117A3H   00000EH   BYTE   UNIT     XDATA          ?XD?SOFT_IIC_WRITE_16BIT_REGISTERS?ZF_DRIVER_SOFT_IIC
0117A4H   0117B1H   00000EH   BYTE   UNIT     XDATA          ?XD?SOFT_IIC_READ_16BIT_REGISTERS?ZF_DRIVER_SOFT_IIC
0117B2H   0117BFH   00000EH   BYTE   UNIT     XDATA          ?XD?SOFT_SPI_WRITE_16BIT_REGISTERS?ZF_DRIVER_SOFT_SPI
0117C0H   0117CDH   00000EH   BYTE   UNIT     XDATA          ?XD?SOFT_SPI_READ_16BIT_REGISTERS?ZF_DRIVER_SOFT_SPI
0117CEH   0117DBH   00000EH   BYTE   UNIT     XDATA          ?XD?SPI_TRANSFER_8BIT?ZF_DRIVER_SPI
0117DCH   0117E9H   00000EH   BYTE   UNIT     XDATA          ?XD?SPI_TRANSFER_16BIT?ZF_DRIVER_SPI
0117EAH   0117F7H   00000EH   BYTE   UNIT     XDATA          ?XD?GPS_GNGGA_PARSE?ZF_DEVICE_GPS_TAU1201
0117F8H   011805H   00000EH   BYTE   UNIT     XDATA          ?XD?IPS200PRO_SEND_BUFFER?ZF_DEVICE_IPS200PRO
011806H   011813H   00000EH   BYTE   UNIT     XDATA          ?XD?IPS200PRO_SET_HIDDEN?ZF_DEVICE_IPS200PRO
011814H   011821H   00000EH   BYTE   UNIT     XDATA          ?XD?IPS200PRO_WAVEFORM_LINE_TYPE?ZF_DEVICE_IPS200PRO
011822H   01182FH   00000EH   BYTE   UNIT     XDATA          ?XD?MEDIAN_AVERAGE_FILTER?INDUCTANCE
011830H   01183CH   00000DH   BYTE   UNIT     XDATA          ?XD?PRINTF_REVERSE_ORDER?ZF_COMMON_FUNCTION
01183DH   011849H   00000DH   BYTE   UNIT     XDATA          ?XD?SOFT_IIC_WRITE_8BIT_REGISTERS?ZF_DRIVER_SOFT_IIC
01184AH   011856H   00000DH   BYTE   UNIT     XDATA          ?XD?SOFT_IIC_READ_8BIT_REGISTERS?ZF_DRIVER_SOFT_IIC
011857H   011863H   00000DH   BYTE   UNIT     XDATA          ?XD?SOFT_IIC_INIT?ZF_DRIVER_SOFT_IIC
011864H   011870H   00000DH   BYTE   UNIT     XDATA          ?XD?SOFT_SPI_WRITE_8BIT_REGISTERS?ZF_DRIVER_SOFT_SPI
011871H   01187DH   00000DH   BYTE   UNIT     XDATA          ?XD?SOFT_SPI_READ_8BIT_REGISTERS?ZF_DRIVER_SOFT_SPI
01187EH   01188AH   00000DH   BYTE   INSEG    XDATA          ?XD?ZF_DEVICE_DL1A
01188BH   011897H   00000DH   BYTE   INSEG    XDATA          ?XD?ZF_DEVICE_DL1B
011898H   0118A4H   00000DH   BYTE   UNIT     XDATA          ?XD?GET_PARAMETER_INDEX?ZF_DEVICE_GPS_TAU1201
0118A5H   0118B1H   00000DH   BYTE   UNIT     XDATA          ?XD?IPS200PRO_RECEIVE_BUFFER?ZF_DEVICE_IPS200PRO
0118B2H   0118BEH   00000DH   BYTE   UNIT     XDATA          ?XD?IPS200PRO_SET_FORMAT?ZF_DEVICE_IPS200PRO
0118BFH   0118CBH   00000DH   BYTE   UNIT     XDATA          ?XD?IPS200PRO_SET_DIRECTION?ZF_DEVICE_IPS200PRO
0118CCH   0118D8H   00000DH   BYTE   UNIT     XDATA          ?XD?IPS200PRO_SET_DEFAULT_FONT?ZF_DEVICE_IPS200PRO
0118D9H   0118E4H   00000CH   BYTE   UNIT     XDATA          ?XD?SOFT_IIC_WRITE_8BIT_ARRAY?ZF_DRIVER_SOFT_IIC
0118E5H   0118F0H   00000CH   BYTE   UNIT     XDATA          ?XD?SOFT_IIC_WRITE_16BIT_ARRAY?ZF_DRIVER_SOFT_IIC
0118F1H   0118FCH   00000CH   BYTE   UNIT     XDATA          ?XD?SOFT_IIC_READ_8BIT_ARRAY?ZF_DRIVER_SOFT_IIC
0118FDH   011908H   00000CH   BYTE   UNIT     XDATA          ?XD?SOFT_IIC_READ_16BIT_ARRAY?ZF_DRIVER_SOFT_IIC
011909H   011914H   00000CH   BYTE   UNIT     XDATA          ?XD?SOFT_SPI_WRITE_8BIT_ARRAY?ZF_DRIVER_SOFT_SPI
011915H   011920H   00000CH   BYTE   UNIT     XDATA          ?XD?SOFT_SPI_WRITE_16BIT_ARRAY?ZF_DRIVER_SOFT_SPI
011921H   01192CH   00000CH   BYTE   UNIT     XDATA          ?XD?SOFT_SPI_READ_8BIT_ARRAY?ZF_DRIVER_SOFT_SPI
01192DH   011938H   00000CH   BYTE   UNIT     XDATA          ?XD?SOFT_SPI_READ_16BIT_ARRAY?ZF_DRIVER_SOFT_SPI
011939H   011944H   00000CH   BYTE   UNIT     XDATA          ?XD?SPI_WRITE_16BIT_REGISTERS?ZF_DRIVER_SPI
011945H   011950H   00000CH   BYTE   UNIT     XDATA          ?XD?SPI_READ_16BIT_REGISTERS?ZF_DRIVER_SPI
011951H   01195CH   00000CH   BYTE   INSEG    XDATA          ?XD?ZF_DRIVER_TIMER
01195DH   011968H   00000CH   BYTE   INSEG    XDATA          ?XD?ZF_DRIVER_UART
011969H   011974H   00000CH   BYTE   UNIT     XDATA          ?XD?UART_INIT?ZF_DRIVER_UART
011975H   011980H   00000CH   BYTE   UNIT     XDATA          ?XD?EEPROM_READ_VALUE?EEPROM
011981H   01198CH   00000CH   BYTE   UNIT     XDATA          ?XD?BLE6A20_SEND_BUFFER?ZF_DEVICE_BLE6A20
01198DH   011998H   00000CH   BYTE   UNIT     XDATA          ?XD?BLE6A20_READ_BUFFER?ZF_DEVICE_BLE6A20
011999H   0119A4H   00000CH   BYTE   UNIT     XDATA          ?XD?DL1A_GET_SPAD_INFO?ZF_DEVICE_DL1A
0119A5H   0119B0H   00000CH   BYTE   UNIT     XDATA          ?XD?DL1A_GET_SEQUENCE_STEP_TIMEOUTS?ZF_DEVICE_DL1A
0119B1H   0119BCH   00000CH   BYTE   UNIT     XDATA          ?XD?GPS_DATA_PARSE?ZF_DEVICE_GPS_TAU1201
0119BDH   0119C8H   00000CH   BYTE   INSEG    XDATA          ?XD?ZF_DEVICE_IMU660RB
0119C9H   0119D4H   00000CH   BYTE   UNIT     XDATA          ?XD?IPS114_SHOW_INT16?ZF_DEVICE_IPS114
0119D5H   0119E0H   00000CH   BYTE   UNIT     XDATA          ?XD?IPS114_SHOW_UINT16?ZF_DEVICE_IPS114
0119E1H   0119ECH   00000CH   BYTE   UNIT     XDATA          ?XD?IPS200_SHOW_INT16?ZF_DEVICE_IPS200
0119EDH   0119F8H   00000CH   BYTE   UNIT     XDATA          ?XD?IPS200_SHOW_UINT16?ZF_DEVICE_IPS200
0119F9H   011A04H   00000CH   BYTE   UNIT     XDATA          ?XD?IPS200PRO_SET_BACKLIGHT?ZF_DEVICE_IPS200PRO
011A05H   011A10H   00000CH   BYTE   UNIT     XDATA          ?XD?IPS200PRO_SET_CRC_STATE?ZF_DEVICE_IPS200PRO
L251 LINKER/LOCATER V4.66.93.0                                                        05/01/2026  20:21:51  PAGE 7


011A11H   011A1CH   00000CH   BYTE   UNIT     XDATA          ?XD?IPS200PRO_SET_OPTIMIZE?ZF_DEVICE_IPS200PRO
011A1DH   011A28H   00000CH   BYTE   UNIT     XDATA          ?XD?TFT180_SHOW_INT16?ZF_DEVICE_TFT180
011A29H   011A34H   00000CH   BYTE   UNIT     XDATA          ?XD?TFT180_SHOW_UINT16?ZF_DEVICE_TFT180
011A35H   011A40H   00000CH   BYTE   UNIT     XDATA          ?XD?WIRELESS_UART_SEND_BUFFER?ZF_DEVICE_WIRELESS_UART
011A41H   011A4CH   00000CH   BYTE   UNIT     XDATA          ?XD?WIRELESS_UART_READ_BUFFER?ZF_DEVICE_WIRELESS_UART
011A4DH   011A58H   00000CH   BYTE   UNIT     XDATA          ?XD?KALMANCREATE?IMU
011A59H   011A64H   00000CH   BYTE   INSEG    XDATA          ?XD?MAIN
011A65H   011A70H   00000CH   BYTE   INSEG    XDATA          ?XD?ENCODER
011A71H   011A7CH   00000CH   BYTE   UNIT     XDATA          ?XD?PID_CALC?TRANK
011A7DH   011A88H   00000CH   BYTE   UNIT     XDATA          ?XD?RANGE_PROTECT_FLOAT?INDUCTANCE
011A89H   011A93H   00000BH   BYTE   INSEG    XDATA          ?XD?ZF_DRIVER_ADC
011A94H   011A9EH   00000BH   BYTE   UNIT     XDATA          ?XD?PIT_INIT?ZF_DRIVER_PIT
011A9FH   011AA9H   00000BH   BYTE   UNIT     XDATA          ?XD?SOFT_SPI_16BIT_DATA_HANDLER?ZF_DRIVER_SOFT_SPI
011AAAH   011AB4H   00000BH   BYTE   UNIT     XDATA          ?XD?SPI_WRITE_8BIT_REGISTERS?ZF_DRIVER_SPI
011AB5H   011ABFH   00000BH   BYTE   UNIT     XDATA          ?XD?SPI_READ_8BIT_REGISTERS?ZF_DRIVER_SPI
011AC0H   011ACAH   00000BH   BYTE   UNIT     XDATA          ?XD?GPS_UART_CALLBACK?ZF_DEVICE_GPS_TAU1201
011ACBH   011AD5H   00000BH   BYTE   UNIT     XDATA          ?XD?IPS200PRO_DELETE_WIDGETS?ZF_DEVICE_IPS200PRO
011AD6H   011AE0H   00000BH   BYTE   UNIT     XDATA          ?XD?IPS200PRO_WAVEFORM_CLEAR?ZF_DEVICE_IPS200PRO
011AE1H   011AEAH   00000AH   BYTE   UNIT     XDATA          ?XD?ADC_MEAN_FILTER_CONVERT?ZF_DRIVER_ADC
011AEBH   011AF4H   00000AH   BYTE   UNIT     XDATA          ?XD?IAP_READ_BUFF?ZF_DRIVER_EEPROM
011AF5H   011AFEH   00000AH   BYTE   UNIT     XDATA          ?XD?IAP_WRITE_BUFF?ZF_DRIVER_EEPROM
011AFFH   011B08H   00000AH   BYTE   UNIT     XDATA          ?XD?SPI_WRITE_8BIT_ARRAY?ZF_DRIVER_SPI
011B09H   011B12H   00000AH   BYTE   UNIT     XDATA          ?XD?SPI_WRITE_16BIT_ARRAY?ZF_DRIVER_SPI
011B13H   011B1CH   00000AH   BYTE   UNIT     XDATA          ?XD?SPI_READ_8BIT_ARRAY?ZF_DRIVER_SPI
011B1DH   011B26H   00000AH   BYTE   UNIT     XDATA          ?XD?SPI_READ_16BIT_ARRAY?ZF_DRIVER_SPI
011B27H   011B30H   00000AH   BYTE   UNIT     XDATA          ?XD?EEPROM_READ?EEPROM
011B31H   011B3AH   00000AH   BYTE   UNIT     XDATA          ?XD?IPS114_SHOW_STRING?ZF_DEVICE_IPS114
011B3BH   011B44H   00000AH   BYTE   INSEG    XDATA          ?XD?ZF_DEVICE_IPS200
011B45H   011B4EH   00000AH   BYTE   UNIT     XDATA          ?XD?IPS200_SHOW_STRING?ZF_DEVICE_IPS200
011B4FH   011B58H   00000AH   BYTE   UNIT     XDATA          ?XD?TFT180_SHOW_STRING?ZF_DEVICE_TFT180
011B59H   011B62H   00000AH   BYTE   UNIT     XDATA          ?XD?SEEKFREE_ASSISTANT_CAMERA_INFORMATION_CONFIG?SEEKFREE_
                                                             -ASSISTANT
011B63H   011B6BH   000009H   BYTE   UNIT     XDATA          ?XD?FUNC_STR_TO_INT?ZF_COMMON_FUNCTION
011B6CH   011B74H   000009H   BYTE   UNIT     XDATA          ?XD?DL1A_TIMEOUT_MICROSECONDS_TO_MCLKS?ZF_DEVICE_DL1A
011B75H   011B7DH   000009H   BYTE   UNIT     XDATA          ?XD?DL1A_SET_SIGNAL_RATE_LIMIT?ZF_DEVICE_DL1A
011B7EH   011B86H   000009H   BYTE   UNIT     XDATA          ?XD?ICM20602_SIMSPI_R_REG_BYTES?ZF_DEVICE_ICM20602
011B87H   011B8FH   000009H   BYTE   UNIT     XDATA          ?XD?ICM20602_READ_REGISTERS?ZF_DEVICE_ICM20602
011B90H   011B98H   000009H   BYTE   UNIT     XDATA          ?XD?IMU660RA_SIMSPI_W_REG_BYTES?ZF_DEVICE_IMU660RA
011B99H   011BA1H   000009H   BYTE   UNIT     XDATA          ?XD?IMU660RA_SIMSPI_R_REG_BYTES?ZF_DEVICE_IMU660RA
011BA2H   011BAAH   000009H   BYTE   UNIT     XDATA          ?XD?IMU660RA_WRITE_REGISTERS?ZF_DEVICE_IMU660RA
011BABH   011BB3H   000009H   BYTE   UNIT     XDATA          ?XD?IMU660RB_SIMSPI_R_REG_BYTES?ZF_DEVICE_IMU660RB
011BB4H   011BBCH   000009H   BYTE   UNIT     XDATA          ?XD?IMU660RB_READ_REGISTERS?ZF_DEVICE_IMU660RB
011BBDH   011BC5H   000009H   BYTE   UNIT     XDATA          ?XD?IMU963RA_READ_ACC_GYRO_REGISTERS?ZF_DEVICE_IMU963RA
011BC6H   011BCEH   000009H   BYTE   UNIT     XDATA          ?XD?IPS114_SHOW_INT8?ZF_DEVICE_IPS114
011BCFH   011BD7H   000009H   BYTE   UNIT     XDATA          ?XD?IPS114_SHOW_UINT8?ZF_DEVICE_IPS114
011BD8H   011BE0H   000009H   BYTE   UNIT     XDATA          ?XD?IPS200_SHOW_INT8?ZF_DEVICE_IPS200
011BE1H   011BE9H   000009H   BYTE   UNIT     XDATA          ?XD?IPS200_SHOW_UINT8?ZF_DEVICE_IPS200
011BEAH   011BF2H   000009H   BYTE   UNIT     XDATA          ?XD?IPS200PRO_LABEL_CREATE?ZF_DEVICE_IPS200PRO
011BF3H   011BFBH   000009H   BYTE   UNIT     XDATA          ?XD?IPS200PRO_TABLE_CREATE?ZF_DEVICE_IPS200PRO
011BFCH   011C04H   000009H   BYTE   UNIT     XDATA          ?XD?IPS200PRO_METER_CREATE?ZF_DEVICE_IPS200PRO
011C05H   011C0DH   000009H   BYTE   UNIT     XDATA          ?XD?IPS200PRO_CLOCK_CREATE?ZF_DEVICE_IPS200PRO
011C0EH   011C16H   000009H   BYTE   UNIT     XDATA          ?XD?IPS200PRO_PROGRESS_BAR_CREATE?ZF_DEVICE_IPS200PRO
011C17H   011C1FH   000009H   BYTE   UNIT     XDATA          ?XD?IPS200PRO_CALENDAR_CREATE?ZF_DEVICE_IPS200PRO
011C20H   011C28H   000009H   BYTE   UNIT     XDATA          ?XD?IPS200PRO_WAVEFORM_CREATE?ZF_DEVICE_IPS200PRO
011C29H   011C31H   000009H   BYTE   UNIT     XDATA          ?XD?IPS200PRO_IMAGE_CREATE?ZF_DEVICE_IPS200PRO
011C32H   011C3AH   000009H   BYTE   UNIT     XDATA          ?XD?IPS200PRO_CONTAINER_CREATE?ZF_DEVICE_IPS200PRO
011C3BH   011C43H   000009H   BYTE   UNIT     XDATA          ?XD?IPS200PRO_INIT?ZF_DEVICE_IPS200PRO
011C44H   011C4CH   000009H   BYTE   UNIT     XDATA          ?XD?TFT180_SHOW_INT8?ZF_DEVICE_TFT180
011C4DH   011C55H   000009H   BYTE   UNIT     XDATA          ?XD?TFT180_SHOW_UINT8?ZF_DEVICE_TFT180
011C56H   011C5EH   000009H   BYTE   UNIT     XDATA          ?XD?SEEKFREE_ASSISTANT_SUM?SEEKFREE_ASSISTANT
011C5FH   011C66H   000008H   BYTE   UNIT     XDATA          ?XD?DEBUG_SEND_BUFFER?ZF_COMMON_DEBUG
011C67H   011C6EH   000008H   BYTE   UNIT     XDATA          ?XD?DEBUG_READ_BUFFER?ZF_COMMON_DEBUG
011C6FH   011C76H   000008H   BYTE   UNIT     XDATA          ?XD?FIFO_HEAD_OFFSET?ZF_COMMON_FIFO
011C77H   011C7EH   000008H   BYTE   UNIT     XDATA          ?XD?FIFO_END_OFFSET?ZF_COMMON_FIFO
011C7FH   011C86H   000008H   BYTE   UNIT     XDATA          ?XD?FUNC_GET_GREATEST_COMMON_DIVISOR?ZF_COMMON_FUNCTION
L251 LINKER/LOCATER V4.66.93.0                                                        05/01/2026  20:21:51  PAGE 8


011C87H   011C8EH   000008H   BYTE   UNIT     XDATA          ?XD?FUNC_STR_TO_UINT?ZF_COMMON_FUNCTION
011C8FH   011C96H   000008H   BYTE   UNIT     XDATA          ?XD?SOFT_IIC_DELAY?ZF_DRIVER_SOFT_IIC
011C97H   011C9EH   000008H   BYTE   UNIT     XDATA          ?XD?SOFT_IIC_WRITE_16BIT_REGISTER?ZF_DRIVER_SOFT_IIC
011C9FH   011CA6H   000008H   BYTE   UNIT     XDATA          ?XD?SOFT_IIC_READ_16BIT_REGISTER?ZF_DRIVER_SOFT_IIC
011CA7H   011CAEH   000008H   BYTE   UNIT     XDATA          ?XD?SOFT_SPI_DELAY?ZF_DRIVER_SOFT_SPI
011CAFH   011CB6H   000008H   BYTE   UNIT     XDATA          ?XD?SOFT_SPI_8BIT_DATA_HANDLER?ZF_DRIVER_SOFT_SPI
011CB7H   011CBEH   000008H   BYTE   UNIT     XDATA          ?XD?SOFT_SPI_WRITE_16BIT_REGISTER?ZF_DRIVER_SOFT_SPI
011CBFH   011CC6H   000008H   BYTE   UNIT     XDATA          ?XD?SOFT_SPI_READ_16BIT_REGISTER?ZF_DRIVER_SOFT_SPI
011CC7H   011CCEH   000008H   BYTE   UNIT     XDATA          ?XD?UART_WRITE_STRING?ZF_DRIVER_UART
011CCFH   011CD6H   000008H   BYTE   UNIT     XDATA          ?XD?EEPROM_WRITE_VALUE?EEPROM
011CD7H   011CDEH   000008H   BYTE   UNIT     XDATA          ?XD?BLE6A20_SEND_STRING?ZF_DEVICE_BLE6A20
011CDFH   011CE6H   000008H   BYTE   INSEG    XDATA          ?XD?ZF_DEVICE_IPS114
011CE7H   011CEEH   000008H   BYTE   UNIT     XDATA          ?XD?IPS114_SET_REGION?ZF_DEVICE_IPS114
011CEFH   011CF6H   000008H   BYTE   UNIT     XDATA          ?XD?IPS114_SHOW_CHAR?ZF_DEVICE_IPS114
011CF7H   011CFEH   000008H   BYTE   UNIT     XDATA          ?XD?IPS200_SET_REGION?ZF_DEVICE_IPS200
011CFFH   011D06H   000008H   BYTE   UNIT     XDATA          ?XD?IPS200_SHOW_CHAR?ZF_DEVICE_IPS200
011D07H   011D0EH   000008H   BYTE   UNIT     XDATA          ?XD?IPS200PRO_READ_PARAMETER?ZF_DEVICE_IPS200PRO
011D0FH   011D16H   000008H   BYTE   INSEG    XDATA          ?XD?ZF_DEVICE_TFT180
011D17H   011D1EH   000008H   BYTE   UNIT     XDATA          ?XD?TFT180_SET_REGION?ZF_DEVICE_TFT180
011D1FH   011D26H   000008H   BYTE   UNIT     XDATA          ?XD?TFT180_SHOW_CHAR?ZF_DEVICE_TFT180
011D27H   011D2EH   000008H   BYTE   INSEG    XDATA          ?XD?ZF_DEVICE_TYPE
011D2FH   011D36H   000008H   BYTE   UNIT     XDATA          ?XD?SET_WIRELESS_TYPE?ZF_DEVICE_TYPE
011D37H   011D3EH   000008H   BYTE   UNIT     XDATA          ?XD?SET_GPS_TYPE?ZF_DEVICE_TYPE
011D3FH   011D46H   000008H   BYTE   UNIT     XDATA          ?XD?WIRELESS_UART_SEND_STRING?ZF_DEVICE_WIRELESS_UART
011D47H   011D4EH   000008H   BYTE   UNIT     XDATA          ?XD?KALMANFILTER?IMU
011D4FH   011D56H   000008H   BYTE   UNIT     XDATA          ?XD?ADC_NORMALIZE_0_100?INDUCTANCE
011D57H   011D5DH   000007H   BYTE   UNIT     XDATA          ?XD?GPIO_INIT?ZF_DRIVER_GPIO
011D5EH   011D64H   000007H   BYTE   UNIT     XDATA          ?XD?SOFT_IIC_READ_DATA?ZF_DRIVER_SOFT_IIC
011D65H   011D6BH   000007H   BYTE   UNIT     XDATA          ?XD?UART_QUERY_BYTE?ZF_DRIVER_UART
011D6CH   011D72H   000007H   BYTE   UNIT     XDATA          ?XD?DL1A_TIMEOUT_MCLKS_TO_MICROSECONDS?ZF_DEVICE_DL1A
011D73H   011D79H   000007H   BYTE   UNIT     XDATA          ?XD?IMU963RA_GET_MAG?ZF_DEVICE_IMU963RA
011D7AH   011D80H   000007H   BYTE   UNIT     XDATA          ?XD?SEEKFREE_ASSISTANT_CAMERA_DOT_SEND?SEEKFREE_ASSISTANT
011D81H   011D86H   000006H   BYTE   UNIT     XDATA          ?XD?FIFO_CLEAR?ZF_COMMON_FIFO
011D87H   011D8CH   000006H   BYTE   INSEG    XDATA          ?XD?ZF_DRIVER_ENCODER
011D8DH   011D92H   000006H   BYTE   UNIT     XDATA          ?XD?ENCODER_DIR_INIT?ZF_DRIVER_ENCODER
011D93H   011D98H   000006H   BYTE   UNIT     XDATA          ?XD?GPIO_SET_LEVEL_SPEED?ZF_DRIVER_GPIO
011D99H   011D9EH   000006H   BYTE   UNIT     XDATA          ?XD?SOFT_IIC_SEND_DATA?ZF_DRIVER_SOFT_IIC
011D9FH   011DA4H   000006H   BYTE   UNIT     XDATA          ?XD?SOFT_IIC_WRITE_16BIT?ZF_DRIVER_SOFT_IIC
011DA5H   011DAAH   000006H   BYTE   UNIT     XDATA          ?XD?SOFT_IIC_WRITE_8BIT_REGISTER?ZF_DRIVER_SOFT_IIC
011DABH   011DB0H   000006H   BYTE   UNIT     XDATA          ?XD?SOFT_IIC_READ_16BIT?ZF_DRIVER_SOFT_IIC
011DB1H   011DB6H   000006H   BYTE   UNIT     XDATA          ?XD?SOFT_IIC_READ_8BIT_REGISTER?ZF_DRIVER_SOFT_IIC
011DB7H   011DBCH   000006H   BYTE   UNIT     XDATA          ?XD?SOFT_IIC_SCCB_WRITE_REGISTER?ZF_DRIVER_SOFT_IIC
011DBDH   011DC2H   000006H   BYTE   UNIT     XDATA          ?XD?SOFT_IIC_SCCB_READ_REGISTER?ZF_DRIVER_SOFT_IIC
011DC3H   011DC8H   000006H   BYTE   UNIT     XDATA          ?XD?SOFT_SPI_WRITE_16BIT?ZF_DRIVER_SOFT_SPI
011DC9H   011DCEH   000006H   BYTE   UNIT     XDATA          ?XD?SOFT_SPI_WRITE_8BIT_REGISTER?ZF_DRIVER_SOFT_SPI
011DCFH   011DD4H   000006H   BYTE   UNIT     XDATA          ?XD?SOFT_SPI_READ_8BIT_REGISTER?ZF_DRIVER_SOFT_SPI
011DD5H   011DDAH   000006H   BYTE   UNIT     XDATA          ?XD?SPI_WRITE_16BIT_REGISTER?ZF_DRIVER_SPI
011DDBH   011DE0H   000006H   BYTE   UNIT     XDATA          ?XD?SPI_READ_16BIT_REGISTER?ZF_DRIVER_SPI
011DE1H   011DE6H   000006H   BYTE   UNIT     XDATA          ?XD?ICM20602_GET_ACC?ZF_DEVICE_ICM20602
011DE7H   011DECH   000006H   BYTE   UNIT     XDATA          ?XD?ICM20602_GET_GYRO?ZF_DEVICE_ICM20602
011DEDH   011DF2H   000006H   BYTE   UNIT     XDATA          ?XD?IMU660RA_GET_ACC?ZF_DEVICE_IMU660RA
011DF3H   011DF8H   000006H   BYTE   UNIT     XDATA          ?XD?IMU660RA_GET_GYRO?ZF_DEVICE_IMU660RA
011DF9H   011DFEH   000006H   BYTE   UNIT     XDATA          ?XD?IMU660RB_GET_ACC?ZF_DEVICE_IMU660RB
011DFFH   011E04H   000006H   BYTE   UNIT     XDATA          ?XD?IMU660RB_GET_GYRO?ZF_DEVICE_IMU660RB
011E05H   011E0AH   000006H   BYTE   UNIT     XDATA          ?XD?IMU660RB_ACC_TRANSITION?ZF_DEVICE_IMU660RB
011E0BH   011E10H   000006H   BYTE   UNIT     XDATA          ?XD?IMU660RB_GYRO_TRANSITION?ZF_DEVICE_IMU660RB
011E11H   011E16H   000006H   BYTE   UNIT     XDATA          ?XD?IMU963RA_WRITE_MAG_REGISTER?ZF_DEVICE_IMU963RA
011E17H   011E1CH   000006H   BYTE   UNIT     XDATA          ?XD?IMU963RA_GET_ACC?ZF_DEVICE_IMU963RA
011E1DH   011E22H   000006H   BYTE   UNIT     XDATA          ?XD?IMU963RA_GET_GYRO?ZF_DEVICE_IMU963RA
011E23H   011E28H   000006H   BYTE   UNIT     XDATA          ?XD?IPS114_CLEAR?ZF_DEVICE_IPS114
011E29H   011E2EH   000006H   BYTE   UNIT     XDATA          ?XD?IPS114_DRAW_POINT?ZF_DEVICE_IPS114
011E2FH   011E34H   000006H   BYTE   UNIT     XDATA          ?XD?IPS200_CLEAR?ZF_DEVICE_IPS200
011E35H   011E3AH   000006H   BYTE   UNIT     XDATA          ?XD?IPS200_DRAW_POINT?ZF_DEVICE_IPS200
011E3BH   011E40H   000006H   BYTE   UNIT     XDATA          ?XD?TFT180_CLEAR?ZF_DEVICE_TFT180
011E41H   011E46H   000006H   BYTE   UNIT     XDATA          ?XD?TFT180_DRAW_POINT?ZF_DEVICE_TFT180
L251 LINKER/LOCATER V4.66.93.0                                                        05/01/2026  20:21:51  PAGE 9


011E47H   011E4CH   000006H   BYTE   UNIT     XDATA          ?XD?SET_TOF_TYPE?ZF_DEVICE_TYPE
011E4DH   011E52H   000006H   BYTE   UNIT     XDATA          ?XD?MOTOR_PROTECT?MOTO
011E53H   011E58H   000006H   BYTE   UNIT     XDATA          ?XD?INCPID_CALC?TRANK
011E59H   011E5EH   000006H   BYTE   UNIT     XDATA          ?XD?RANGE_PROTECT_INT?INDUCTANCE
011E5FH   011E64H   000006H   BYTE   INSEG    XDATA          ?XD?ELEMENT
011E65H   011E69H   000005H   BYTE   UNIT     XDATA          ?XD?IAP_READ_BYTE?ZF_DRIVER_EEPROM
011E6AH   011E6EH   000005H   BYTE   UNIT     XDATA          ?XD?IAP_WRITE_BYTE?ZF_DRIVER_EEPROM
011E6FH   011E73H   000005H   BYTE   UNIT     XDATA          ?XD?GPIO_GET_LEVEL?ZF_DRIVER_GPIO
011E74H   011E78H   000005H   BYTE   UNIT     XDATA          ?XD?GPIO_SET_LEVEL?ZF_DRIVER_GPIO
011E79H   011E7DH   000005H   BYTE   UNIT     XDATA          ?XD?SOFT_IIC_SEND_ACK?ZF_DRIVER_SOFT_IIC
011E7EH   011E82H   000005H   BYTE   UNIT     XDATA          ?XD?SOFT_IIC_WAIT_ACK?ZF_DRIVER_SOFT_IIC
011E83H   011E87H   000005H   BYTE   UNIT     XDATA          ?XD?SOFT_IIC_WRITE_8BIT?ZF_DRIVER_SOFT_IIC
011E88H   011E8CH   000005H   BYTE   UNIT     XDATA          ?XD?SOFT_IIC_READ_8BIT?ZF_DRIVER_SOFT_IIC
011E8DH   011E91H   000005H   BYTE   UNIT     XDATA          ?XD?SOFT_SPI_WRITE_8BIT?ZF_DRIVER_SOFT_SPI
011E92H   011E96H   000005H   BYTE   UNIT     XDATA          ?XD?SOFT_SPI_READ_8BIT?ZF_DRIVER_SOFT_SPI
011E97H   011E9BH   000005H   BYTE   UNIT     XDATA          ?XD?SOFT_SPI_READ_16BIT?ZF_DRIVER_SOFT_SPI
011E9CH   011EA0H   000005H   BYTE   UNIT     XDATA          ?XD?TIMER_FUNCITON_CHECK?ZF_DRIVER_TIMER
011EA1H   011EA5H   000005H   BYTE   UNIT     XDATA          ?XD?UART_FUNCITON_CHECK?ZF_DRIVER_UART
011EA6H   011EAAH   000005H   BYTE   UNIT     XDATA          ?XD?DL1A_GET_SEQUENCE_STEP_ENABLES?ZF_DEVICE_DL1A
011EABH   011EAFH   000005H   BYTE   UNIT     XDATA          ?XD?DL1A_PERFORM_SINGLE_REF_CALIBRATION?ZF_DEVICE_DL1A
011EB0H   011EB4H   000005H   BYTE   UNIT     XDATA          ?XD?DL1B_GET_DISTANCE?ZF_DEVICE_DL1B
011EB5H   011EB9H   000005H   BYTE   UNIT     XDATA          ?XD?UTC_TO_BTC?ZF_DEVICE_GPS_TAU1201
011EBAH   011EBEH   000005H   BYTE   UNIT     XDATA          ?XD?ICM20602_SIMSPI_R_REG_BYTE?ZF_DEVICE_ICM20602
011EBFH   011EC3H   000005H   BYTE   UNIT     XDATA          ?XD?IMU660RB_SIMSPI_R_REG_BYTE?ZF_DEVICE_IMU660RB
011EC4H   011EC8H   000005H   BYTE   UNIT     XDATA          ?XD?IPS200PRO_PAGE_CREATE?ZF_DEVICE_IPS200PRO
011EC9H   011ECDH   000005H   BYTE   UNIT     XDATA          ?XD?INDUCTANCE_READ?INDUCTANCE
011ECEH   011ED1H   000004H   BYTE   INSEG    XDATA          ?XD?ZF_COMMON_CLOCK
011ED2H   011ED5H   000004H   BYTE   UNIT     XDATA          ?XD?SET_SYS_CLK?ZF_COMMON_CLOCK
011ED6H   011ED9H   000004H   BYTE   UNIT     XDATA          ?XD?CLOCK_INIT?ZF_COMMON_CLOCK
011EDAH   011EDDH   000004H   BYTE   UNIT     XDATA          ?XD?FIFO_USED?ZF_COMMON_FIFO
011EDEH   011EE1H   000004H   BYTE   UNIT     XDATA          ?XD?FUNC_SOFT_DELAY?ZF_COMMON_FUNCTION
011EE2H   011EE5H   000004H   BYTE   UNIT     XDATA          ?XD?ADC_CONVERT?ZF_DRIVER_ADC
011EE6H   011EE9H   000004H   BYTE   UNIT     XDATA          ?XD?ADC_INIT?ZF_DRIVER_ADC
011EEAH   011EEDH   000004H   BYTE   INSEG    XDATA          ?XD?ZF_DRIVER_DELAY
011EEEH   011EF1H   000004H   BYTE   UNIT     XDATA          ?XD?IAP_ERASE_PAGE?ZF_DRIVER_EEPROM
011EF2H   011EF5H   000004H   BYTE   UNIT     XDATA          ?XD?ENCODER_GET_COUNT?ZF_DRIVER_ENCODER
011EF6H   011EF9H   000004H   BYTE   UNIT     XDATA          ?XD?EXTI_INIT?ZF_DRIVER_EXTI
011EFAH   011EFDH   000004H   BYTE   UNIT     XDATA          ?XD?GPIO_SET_MODE?ZF_DRIVER_GPIO
011EFEH   011F01H   000004H   BYTE   UNIT     XDATA          ?XD?GPIO_SET_DIR?ZF_DRIVER_GPIO
011F02H   011F05H   000004H   BYTE   UNIT     XDATA          ?XD?GPIO_SET_IMPEDANCE?ZF_DRIVER_GPIO
011F06H   011F09H   000004H   BYTE   UNIT     XDATA          ?XD?SOFT_IIC_START?ZF_DRIVER_SOFT_IIC
011F0AH   011F0DH   000004H   BYTE   UNIT     XDATA          ?XD?SOFT_IIC_STOP?ZF_DRIVER_SOFT_IIC
011F0EH   011F11H   000004H   BYTE   UNIT     XDATA          ?XD?SPI_READ_DAT?ZF_DRIVER_SPI
011F12H   011F15H   000004H   BYTE   UNIT     XDATA          ?XD?SPI_WRITE_16BIT?ZF_DRIVER_SPI
011F16H   011F19H   000004H   BYTE   UNIT     XDATA          ?XD?SPI_WRITE_8BIT_REGISTER?ZF_DRIVER_SPI
011F1AH   011F1DH   000004H   BYTE   UNIT     XDATA          ?XD?SPI_READ_16BIT?ZF_DRIVER_SPI
011F1EH   011F21H   000004H   BYTE   UNIT     XDATA          ?XD?VOLTAGE_WARNING_INIT?VOLTAGE_WARNING
011F22H   011F25H   000004H   BYTE   UNIT     XDATA          ?XD?ICM20602_SELF_CHECK?ZF_DEVICE_ICM20602
011F26H   011F29H   000004H   BYTE   UNIT     XDATA          ?XD?ICM20602_INIT?ZF_DEVICE_ICM20602
011F2AH   011F2DH   000004H   BYTE   UNIT     XDATA          ?XD?IMU660RA_SELF_CHECK?ZF_DEVICE_IMU660RA
011F2EH   011F31H   000004H   BYTE   UNIT     XDATA          ?XD?IMU660RB_SELF_CHECK?ZF_DEVICE_IMU660RB
011F32H   011F35H   000004H   BYTE   UNIT     XDATA          ?XD?IMU963RA_READ_MAG_REGISTER?ZF_DEVICE_IMU963RA
011F36H   011F39H   000004H   BYTE   UNIT     XDATA          ?XD?IMU963RA_ACC_GYRO_SELF_CHECK?ZF_DEVICE_IMU963RA
011F3AH   011F3DH   000004H   BYTE   UNIT     XDATA          ?XD?IMU963RA_MAG_SELF_CHECK?ZF_DEVICE_IMU963RA
011F3EH   011F41H   000004H   BYTE   UNIT     XDATA          ?XD?IPS114_SET_COLOR?ZF_DEVICE_IPS114
011F42H   011F45H   000004H   BYTE   UNIT     XDATA          ?XD?IPS200_SET_COLOR?ZF_DEVICE_IPS200
011F46H   011F49H   000004H   BYTE   UNIT     XDATA          ?XD?IPS200PRO_WAIT_IDLE?ZF_DEVICE_IPS200PRO
011F4AH   011F4DH   000004H   BYTE   UNIT     XDATA          ?XD?IPS200PRO_PAGE_HIDDEN?ZF_DEVICE_IPS200PRO
011F4EH   011F51H   000004H   BYTE   UNIT     XDATA          ?XD?TFT180_SET_COLOR?ZF_DEVICE_TFT180
011F52H   011F55H   000004H   BYTE   UNIT     XDATA          ?XD?TSL1401_SEND_DATA?ZF_DEVICE_TSL1401
011F56H   011F59H   000004H   BYTE   UNIT     XDATA          ?XD?FIRST_COMPLEMENT_INIT?IMU
011F5AH   011F5DH   000004H   BYTE   UNIT     XDATA          ?XD?MY_ABS?IMU
011F5EH   011F61H   000004H   BYTE   INSEG    XDATA          ?XD?SEEKFREE_ASSISTANT_INTERFACE
011F62H   011F65H   000004H   BYTE   UNIT     XDATA          ?XD?MOTOR_SETSPEED?MOTO
011F66H   011F69H   000004H   BYTE   UNIT     XDATA          ?XD?CALCULATE_DIFFERENTIAL_DRIVE?TRANK
L251 LINKER/LOCATER V4.66.93.0                                                        05/01/2026  20:21:51  PAGE 10


011F6AH   011F6DH   000004H   BYTE   UNIT     XDATA          ?XD?MENU_DISPLAY?MENU
011F6EH   011F71H   000004H   BYTE   UNIT     XDATA          ?XD?ELEMENT_CONTROL?ELEMENT
011F72H   011F74H   000003H   BYTE   UNIT     XDATA          ?XD?INTERRUPT_SET_PRIORITY?ZF_COMMON_INTERRUPT
011F75H   011F77H   000003H   BYTE   UNIT     XDATA          ?XD?SPI_WRITE_DAT?ZF_DRIVER_SPI
011F78H   011F7AH   000003H   BYTE   UNIT     XDATA          ?XD?SPI_WRITE_8BIT?ZF_DRIVER_SPI
011F7BH   011F7DH   000003H   BYTE   UNIT     XDATA          ?XD?SPI_READ_8BIT_REGISTER?ZF_DRIVER_SPI
011F7EH   011F80H   000003H   BYTE   UNIT     XDATA          ?XD?UART_WRITE_BYTE?ZF_DRIVER_UART
011F81H   011F83H   000003H   BYTE   UNIT     XDATA          ?XD?UART_RX_INTERRUPT?ZF_DRIVER_UART
011F84H   011F86H   000003H   BYTE   UNIT     XDATA          ?XD?UART_READ_BYTE?ZF_DRIVER_UART
011F87H   011F89H   000003H   BYTE   UNIT     XDATA          ?XD?BLE6A20_SEND_BYTE?ZF_DEVICE_BLE6A20
011F8AH   011F8CH   000003H   BYTE   UNIT     XDATA          ?XD?DL1A_GET_VCSEL_PULSE_PERIOD?ZF_DEVICE_DL1A
011F8DH   011F8FH   000003H   BYTE   UNIT     XDATA          ?XD?DL1A_GET_DISTANCE?ZF_DEVICE_DL1A
011F90H   011F92H   000003H   BYTE   UNIT     XDATA          ?XD?IMU660RA_READ_REGISTER?ZF_DEVICE_IMU660RA
011F93H   011F95H   000003H   BYTE   UNIT     XDATA          ?XD?WIRELESS_UART_SEND_BYTE?ZF_DEVICE_WIRELESS_UART
011F96H   011F97H   000002H   BYTE   UNIT     XDATA          ?XD?DELAY_CYCLES?ZF_DRIVER_DELAY
011F98H   011F99H   000002H   BYTE   UNIT     XDATA          ?XD?SYSTEM_DELAY_MS?ZF_DRIVER_DELAY
011F9AH   011F9BH   000002H   BYTE   UNIT     XDATA          ?XD?SYSTEM_DELAY_US?ZF_DRIVER_DELAY
011F9CH   011F9DH   000002H   BYTE   UNIT     XDATA          ?XD?ENCODER_CLEAR_COUNT?ZF_DRIVER_ENCODER
011F9EH   011F9FH   000002H   BYTE   UNIT     XDATA          ?XD?EXTI_ENABLE?ZF_DRIVER_EXTI
011FA0H   011FA1H   000002H   BYTE   UNIT     XDATA          ?XD?EXTI_DISABLE?ZF_DRIVER_EXTI
011FA2H   011FA3H   000002H   BYTE   UNIT     XDATA          ?XD?GPIO_TOGGLE_LEVEL?ZF_DRIVER_GPIO
011FA4H   011FA5H   000002H   BYTE   UNIT     XDATA          ?XD?SPI_READ_8BIT?ZF_DRIVER_SPI
011FA6H   011FA7H   000002H   BYTE   UNIT     XDATA          ?XD?UART_RX_START_BUFF?ZF_DRIVER_UART
011FA8H   011FA9H   000002H   BYTE   UNIT     XDATA          ?XD?UART_DMA_INIT?ZF_DRIVER_UART
011FAAH   011FABH   000002H   BYTE   INSEG    XDATA          ?XD?EEPROM
011FACH   011FADH   000002H   BYTE   UNIT     XDATA          ?XD?DL1A_DECODE_TIMEOUT?ZF_DEVICE_DL1A
011FAEH   011FAFH   000002H   BYTE   UNIT     XDATA          ?XD?DL1A_ENCODE_TIMEOUT?ZF_DEVICE_DL1A
011FB0H   011FB1H   000002H   BYTE   UNIT     XDATA          ?XD?ICM20602_SIMSPI_WR_BYTE?ZF_DEVICE_ICM20602
011FB2H   011FB3H   000002H   BYTE   UNIT     XDATA          ?XD?ICM20602_SIMSPI_W_REG_BYTE?ZF_DEVICE_ICM20602
011FB4H   011FB5H   000002H   BYTE   UNIT     XDATA          ?XD?ICM20602_WRITE_REGISTER?ZF_DEVICE_ICM20602
011FB6H   011FB7H   000002H   BYTE   UNIT     XDATA          ?XD?ICM20602_READ_REGISTER?ZF_DEVICE_ICM20602
011FB8H   011FB9H   000002H   BYTE   UNIT     XDATA          ?XD?IMU660RA_SIMSPI_WR_BYTE?ZF_DEVICE_IMU660RA
011FBAH   011FBBH   000002H   BYTE   UNIT     XDATA          ?XD?IMU660RA_SIMSPI_W_REG_BYTE?ZF_DEVICE_IMU660RA
011FBCH   011FBDH   000002H   BYTE   UNIT     XDATA          ?XD?IMU660RA_WRITE_REGISTER?ZF_DEVICE_IMU660RA
011FBEH   011FBFH   000002H   BYTE   UNIT     XDATA          ?XD?IMU660RB_SIMSPI_WR_BYTE?ZF_DEVICE_IMU660RB
011FC0H   011FC1H   000002H   BYTE   UNIT     XDATA          ?XD?IMU660RB_SIMSPI_W_REG_BYTE?ZF_DEVICE_IMU660RB
011FC2H   011FC3H   000002H   BYTE   UNIT     XDATA          ?XD?IMU660RB_WRITE_REGISTER?ZF_DEVICE_IMU660RB
011FC4H   011FC5H   000002H   BYTE   UNIT     XDATA          ?XD?IMU660RB_READ_REGISTER?ZF_DEVICE_IMU660RB
011FC6H   011FC7H   000002H   BYTE   UNIT     XDATA          ?XD?IMU963RA_WRITE_ACC_GYRO_REGISTER?ZF_DEVICE_IMU963RA
011FC8H   011FC9H   000002H   BYTE   UNIT     XDATA          ?XD?IMU963RA_READ_ACC_GYRO_REGISTER?ZF_DEVICE_IMU963RA
011FCAH   011FCBH   000002H   BYTE   UNIT     XDATA          ?XD?IMU963RA_CONNECT_MAG?ZF_DEVICE_IMU963RA
011FCCH   011FCDH   000002H   BYTE   UNIT     XDATA          ?XD?IPS114_SET_DIR?ZF_DEVICE_IPS114
011FCEH   011FCFH   000002H   BYTE   UNIT     XDATA          ?XD?IPS200_SET_DIR?ZF_DEVICE_IPS200
011FD0H   011FD1H   000002H   BYTE   UNIT     XDATA          ?XD?TFT180_SET_DIR?ZF_DEVICE_TFT180
011FD2H   011FD3H   000002H   BYTE   UNIT     XDATA          ?XD?IMU_GYRO_OFFSET_INIT?IMU
011FD4H   011FD5H   000002H   BYTE   UNIT     XDATA          ?XD?SEEKFREE_ASSISTANT_INTERFACE_INIT?SEEKFREE_ASSISTANT_I
                                                             -NTERFACE
011FD6H   011FD7H   000002H   BYTE   UNIT     XDATA          ?XD?ABS?MOTO
011FD8H   011FD9H   000002H   BYTE   UNIT     XDATA          ?XD?LED_ON?LED
011FDAH   011FDBH   000002H   BYTE   UNIT     XDATA          ?XD?LED_OFF?LED
011FDCH   011FDDH   000002H   BYTE   UNIT     XDATA          ?XD?LED_SWITCH?LED
011FDEH   011FDEH   000001H   BYTE   UNIT     XDATA          ?XD?DEBUG_INTERRUPR_HANDLER?ZF_COMMON_DEBUG
011FDFH   011FDFH   000001H   BYTE   UNIT     XDATA          ?XD?PUTCHAR?ZF_COMMON_DEBUG
011FE0H   011FE0H   000001H   BYTE   UNIT     XDATA          ?XD?DEBUG_INIT?ZF_COMMON_DEBUG
011FE1H   011FE1H   000001H   BYTE   UNIT     XDATA          ?XD?IAP_SET_TPS?ZF_DRIVER_EEPROM
011FE2H   011FE2H   000001H   BYTE   UNIT     XDATA          ?XD?BLE6A20_CALLBACK?ZF_DEVICE_BLE6A20
011FE3H   011FE3H   000001H   BYTE   UNIT     XDATA          ?XD?BLE6A20_INIT?ZF_DEVICE_BLE6A20
011FE4H   011FE4H   000001H   BYTE   UNIT     XDATA          ?XD?DL1B_INIT?ZF_DEVICE_DL1B
011FE5H   011FE5H   000001H   BYTE   UNIT     XDATA          ?XD?IMU660RA_INIT?ZF_DEVICE_IMU660RA
011FE6H   011FE6H   000001H   BYTE   UNIT     XDATA          ?XD?IMU660RB_INIT?ZF_DEVICE_IMU660RB
011FE7H   011FE7H   000001H   BYTE   UNIT     XDATA          ?XD?IMU963RA_INIT?ZF_DEVICE_IMU963RA
011FE8H   011FE8H   000001H   BYTE   UNIT     XDATA          ?XD?IPS114_WRITE_INDEX?ZF_DEVICE_IPS114
011FE9H   011FE9H   000001H   BYTE   UNIT     XDATA          ?XD?IPS200_WRITE_INDEX?ZF_DEVICE_IPS200
011FEAH   011FEAH   000001H   BYTE   UNIT     XDATA          ?XD?TFT180_WRITE_INDEX?ZF_DEVICE_TFT180
011FEBH   011FEBH   000001H   BYTE   UNIT     XDATA          ?XD?TSL1401_COLLECT_PIT_HANDLER?ZF_DEVICE_TSL1401
L251 LINKER/LOCATER V4.66.93.0                                                        05/01/2026  20:21:51  PAGE 11


011FECH   011FECH   000001H   BYTE   UNIT     XDATA          ?XD?WIRELESS_UART_CALLBACK?ZF_DEVICE_WIRELESS_UART
011FEDH   011FEDH   000001H   BYTE   UNIT     XDATA          ?XD?WIRELESS_UART_INIT?ZF_DEVICE_WIRELESS_UART
011FEEH   011FEEH   000001H   BYTE   INSEG    XDATA          ?XD?ISR
011FEFH   FEFFFFH   FDE011H   ---    ---      **GAP**
FF0000H   FF0002H   000003H   ---    OFFS..   CODE           ?CO?START251?4
FF0003H   FF0005H   000003H   ---    OFFS..   CODE           ?PR?IV?0
FF0006H   FF0009H   000004H   BYTE   INSEG    CODE           ?PR?INTERRUPT_GLOBAL_DISABLE?ZF_COMMON_INTERRUPT
FF000AH   FF000AH   000001H   ---    ---      **GAP**
FF000BH   FF000DH   000003H   ---    OFFS..   CODE           ?PR?IV?1
FF000EH   FF0011H   000004H   BYTE   INSEG    CODE           ?PR?INTERRUPT_GLOBAL_ENABLE?ZF_COMMON_INTERRUPT
FF0012H   FF0012H   000001H   ---    ---      **GAP**
FF0013H   FF0015H   000003H   ---    OFFS..   CODE           ?PR?IV?2
FF0016H   FF0019H   000004H   BYTE   UNIT     CONST          ?CO?PRINTF
FF001AH   FF001AH   000001H   ---    ---      **GAP**
FF001BH   FF001DH   000003H   ---    OFFS..   CODE           ?PR?IV?3
FF001EH   FF001FH   000002H   BYTE   UNIT     HCONST         ?HC?MAIN
FF0020H   FF0022H   000003H   ---    ---      **GAP**
FF0023H   FF0025H   000003H   ---    OFFS..   CODE           ?PR?IV?4
FF0026H   FF0042H   00001DH   BYTE   INSEG    CODE           ?PR?IMU660RA_SIMSPI_W_REG_BYTE?ZF_DEVICE_IMU660RA
FF0043H   FF0045H   000003H   ---    OFFS..   CODE           ?PR?IV?8
FF0046H   FF0050H   00000BH   BYTE   INSEG    CODE           ?PR?OSCILLOSCOPE_INIT?MENU
FF0051H   FF0052H   000002H   ---    ---      **GAP**
FF0053H   FF0055H   000003H   ---    OFFS..   CODE           ?PR?IV?10
FF0056H   FF005AH   000005H   ---    ---      **GAP**
FF005BH   FF005DH   000003H   ---    OFFS..   CODE           ?PR?IV?11
FF005EH   FF0062H   000005H   ---    ---      **GAP**
FF0063H   FF0065H   000003H   ---    OFFS..   CODE           ?PR?IV?12
FF0066H   FF007DH   000018H   BYTE   INSEG    CODE           ?PR?SPI_WRITE_8BIT?ZF_DRIVER_SPI
FF007EH   FF0082H   000005H   ---    ---      **GAP**
FF0083H   FF0085H   000003H   ---    OFFS..   CODE           ?PR?IV?16
FF0086H   FF008AH   000005H   ---    ---      **GAP**
FF008BH   FF008DH   000003H   ---    OFFS..   CODE           ?PR?IV?17
FF008EH   FF0092H   000005H   ---    ---      **GAP**
FF0093H   FF0095H   000003H   ---    OFFS..   CODE           ?PR?IV?18
FF0096H   FF009AH   000005H   ---    ---      **GAP**
FF009BH   FF009DH   000003H   ---    OFFS..   CODE           ?PR?IV?19
FF009EH   FF00A2H   000005H   ---    ---      **GAP**
FF00A3H   FF00A5H   000003H   ---    OFFS..   CODE           ?PR?IV?20
FF00A6H   FF0199H   0000F4H   BYTE   INSEG    CODE           ?PR?SOFT_IIC_SEND_DATA?ZF_DRIVER_SOFT_IIC
FF019AH   FF019AH   000001H   ---    ---      **GAP**
FF019BH   FF019DH   000003H   ---    OFFS..   CODE           ?CO?stc32g_isr?1
FF019EH   FF01AAH   00000DH   ---    ---      **GAP**
FF01ABH   FF01ADH   000003H   ---    OFFS..   CODE           ?CO?stc32g_isr?2
FF01AEH   FF01BAH   00000DH   ---    ---      **GAP**
FF01BBH   FF01BDH   000003H   ---    OFFS..   CODE           ?CO?stc32g_isr?3
FF01BEH   FF01CAH   00000DH   ---    ---      **GAP**
FF01CBH   FF01CDH   000003H   ---    OFFS..   CODE           ?CO?stc32g_isr?4
FF01CEH   FF21CDH   002000H   BYTE   UNIT     CODE           ?CO?ZF_DEVICE_CONFIG
FF21CEH   FF3070H   000EA3H   BYTE   UNIT     CODE           ?C?LIB_CODE
FF3071H   FF36B3H   000643H   BYTE   INSEG    CODE           ?PR?PWM_INIT?ZF_DRIVER_PWM
FF36B4H   FF3CA3H   0005F0H   BYTE   UNIT     CODE           ?CO?ZF_COMMON_FONT
FF3CA4H   FF4254H   0005B1H   BYTE   INSEG    CODE           ?PR?FIFO_READ_BUFFER?ZF_COMMON_FIFO
FF4255H   FF47FCH   0005A8H   BYTE   INSEG    CODE           ?PR?FIFO_WRITE_BUFFER?ZF_COMMON_FIFO
FF47FDH   FF4D80H   000584H   BYTE   INSEG    CODE           ?PR?GPIO_SET_DIR?ZF_DRIVER_GPIO
FF4D81H   FF5259H   0004D9H   BYTE   INSEG    CODE           ?PR?SPI_INIT?ZF_DRIVER_SPI
FF525AH   FF556CH   000313H   BYTE   INSEG    CODE           ?PR?GPIO_SET_LEVEL_SPEED?ZF_DRIVER_GPIO
FF556DH   FF585DH   0002F1H   BYTE   INSEG    CODE           ?PR?UART_INIT?ZF_DRIVER_UART
FF585EH   FF5B45H   0002E8H   BYTE   INSEG    CODE           ?PR?GPIO_SET_MODE?ZF_DRIVER_GPIO
FF5B46H   FF5E07H   0002C2H   BYTE   INSEG    CODE           ?PR?IPS114_INIT?ZF_DEVICE_IPS114
FF5E08H   FF608AH   000283H   BYTE   INSEG    CODE           ?PR?PIT_INIT?ZF_DRIVER_PIT
FF608BH   FF62CFH   000245H   BYTE   INSEG    CODE           ?PR?IPS114_SET_REGION?ZF_DEVICE_IPS114
FF62D0H   FF650CH   00023DH   BYTE   INSEG    CODE           ?PR?PID_CALC?TRANK
FF650DH   FF6732H   000226H   BYTE   INSEG    CODE           ?PR?INCPID_CALC?TRANK
FF6733H   FF6947H   000215H   BYTE   INSEG    CODE           ?PR?GPIO_SET_LEVEL?ZF_DRIVER_GPIO
FF6948H   FF6B58H   000211H   BYTE   INSEG    CODE           ?PR?SET_SYS_CLK?ZF_COMMON_CLOCK
L251 LINKER/LOCATER V4.66.93.0                                                        05/01/2026  20:21:51  PAGE 12


FF6B59H   FF6D4CH   0001F4H   BYTE   INSEG    CODE           ?PR?IMU660RA_INIT?ZF_DEVICE_IMU660RA
FF6D4DH   FF6F22H   0001D6H   BYTE   INSEG    CODE           ?PR?UART_WRITE_BUFFER?ZF_DRIVER_UART
FF6F23H   FF70F6H   0001D4H   BYTE   INSEG    CODE           ?PR?PWM_SET_DUTY?ZF_DRIVER_PWM
FF70F7H   FF72BEH   0001C8H   BYTE   INSEG    CODE           ?PR?PID_INIT?TRANK
FF72BFH   FF7470H   0001B2H   BYTE   INSEG    CODE           ?PR?GPIO_SET_IMPEDANCE?ZF_DRIVER_GPIO
FF7471H   FF7613H   0001A3H   BYTE   INSEG    CODE           ?PR?UART_DMA_INIT?ZF_DRIVER_UART
FF7614H   FF77B1H   00019EH   BYTE   INSEG    CODE           ?PR?INDUCTANCE_READ?INDUCTANCE
FF77B2H   FF791EH   00016DH   BYTE   INSEG    CODE           ?PR?_M?MAIN
FF791FH   FF7A79H   00015BH   BYTE   INSEG    CODE           ?PR?CALCULATE_DIFFERENTIAL_DRIVE?TRANK
FF7A7AH   FF7BBFH   000146H   BYTE   INSEG    CODE           ?PR?GPIO_GET_LEVEL?ZF_DRIVER_GPIO
FF7BC0H   FF7D01H   000142H   BYTE   INSEG    CODE           ?PR?SOFT_IIC_READ_DATA?ZF_DRIVER_SOFT_IIC
FF7D02H   FF7E38H   000137H   BYTE   INSEG    CODE           ?PR?MEDIAN_AVERAGE_FILTER?INDUCTANCE
FF7E39H   FF7F61H   000129H   BYTE   INSEG    CODE           ?PR?ELEMENT_CONTROL?ELEMENT
FF7F62H   FF8080H   00011FH   BYTE   INSEG    CODE           ?PR?IMU_GYRO_OFFSET_INIT?IMU
FF8081H   FF8190H   000110H   BYTE   INSEG    CODE           ?PR?WIRELESS_UART_SEND_BUFFER?ZF_DEVICE_WIRELESS_UART
FF8191H   FF829FH   00010FH   BYTE   INSEG    CODE           ?PR?GPIO_INIT?ZF_DRIVER_GPIO
FF82A0H   FF83ACH   00010DH   BYTE   INSEG    CODE           ?PR?ENCODER_DIR_INIT?ZF_DRIVER_ENCODER
FF83ADH   FF84B5H   000109H   BYTE   INSEG    CODE           ?PR?ENCODER_GET_COUNT?ZF_DRIVER_ENCODER
FF84B6H   FF85A3H   0000EEH   BYTE   INSEG    CODE           ?PR?KALMANCREATE?IMU
FF85A4H   FF8691H   0000EEH   BYTE   INSEG    CODE           ?PR?INDUCTANCE_COUNT_ERR?INDUCTANCE
FF8692H   FF8774H   0000E3H   BYTE   INSEG    CODE           ?PR?FIFO_INIT?ZF_COMMON_FIFO
FF8775H   FF8857H   0000E3H   BYTE   INSEG    CODE           ?PR?SOFT_IIC_WAIT_ACK?ZF_DRIVER_SOFT_IIC
FF8858H   FF8932H   0000DBH   BYTE   INSEG    CODE           ?PR?SOFT_IIC_SEND_ACK?ZF_DRIVER_SOFT_IIC
FF8933H   FF89F7H   0000C5H   BYTE   INSEG    CODE           ?PR?ADC_INIT?ZF_DRIVER_ADC
FF89F8H   FF8AB9H   0000C2H   BYTE   INSEG    CODE           ?PR?UART_RX_START_BUFF?ZF_DRIVER_UART
FF8ABAH   FF8B78H   0000BFH   BYTE   INSEG    CODE           ?PR?SOFT_IIC_STOP?ZF_DRIVER_SOFT_IIC
FF8B79H   FF8C28H   0000B0H   BYTE   INSEG    CODE           ?PR?DMA_UART1_IRQHANDLER?ISR
FF8C29H   FF8CCFH   0000A7H   BYTE   INSEG    CODE           ?PR?DEBUG_INIT?ZF_COMMON_DEBUG
FF8CD0H   FF8D76H   0000A7H   BYTE   INSEG    CODE           ?PR?SOFT_IIC_START?ZF_DRIVER_SOFT_IIC
FF8D77H   FF8E16H   0000A0H   BYTE   INSEG    CODE           ?PR?FIFO_HEAD_OFFSET?ZF_COMMON_FIFO
FF8E17H   FF8EB6H   0000A0H   BYTE   INSEG    CODE           ?PR?FIFO_END_OFFSET?ZF_COMMON_FIFO
FF8EB7H   FF8F55H   00009FH   BYTE   INSEG    CODE           ?PR?UART_QUERY_BYTE?ZF_DRIVER_UART
FF8F56H   FF8FF4H   00009FH   BYTE   INSEG    CODE           ?PR?SET_WIRELESS_TYPE?ZF_DEVICE_TYPE
FF8FF5H   FF9083H   00008FH   BYTE   INSEG    CODE           ?PR?DMA_UART2_IRQHANDLER?ISR
FF9084H   FF9112H   00008FH   BYTE   INSEG    CODE           ?PR?DMA_UART3_IRQHANDLER?ISR
FF9113H   FF91A1H   00008FH   BYTE   INSEG    CODE           ?PR?DMA_UART4_IRQHANDLER?ISR
FF91A2H   FF922CH   00008BH   BYTE   INSEG    CODE           ?PR?MOTOR_SETSPEED?MOTO
FF922DH   FF92B5H   000089H   BYTE   INSEG    CODE           ?PR?ADC_NORMALIZE_0_100?INDUCTANCE
FF92B6H   FF933DH   000088H   BYTE   INSEG    CODE           ?PR?DUAL_LOOP_CONTROL?TRANK
FF933EH   FF93C2H   000085H   BYTE   INSEG    CODE           ?PR?IPS114_CLEAR?ZF_DEVICE_IPS114
FF93C3H   FF9446H   000084H   BYTE   INSEG    CODE           ?PR?WIRELESS_UART_READ_BUFFER?ZF_DEVICE_WIRELESS_UART
FF9447H   FF94CAH   000084H   BYTE   INSEG    CODE           ?PR?DIR_CONTROL?TRANK
FF94CBH   FF954DH   000083H   BYTE   INSEG    CODE           ?PR?SEND_DATA_TO_PC?MENU
FF954EH   FF95CEH   000081H   BYTE   INSEG    CODE           ?PR?CLOCK_INIT?ZF_COMMON_CLOCK
FF95CFH   FF964FH   000081H   BYTE   INSEG    CODE           ?PR?TIMER_FUNCITON_CHECK?ZF_DRIVER_TIMER
FF9650H   FF96D0H   000081H   BYTE   INSEG    CODE           ?PR?UART_FUNCITON_CHECK?ZF_DRIVER_UART
FF96D1H   FF9751H   000081H   BYTE   INSEG    CODE           ?PR?WIRELESS_UART_INIT?ZF_DEVICE_WIRELESS_UART
FF9752H   FF97CAH   000079H   BYTE   INSEG    CODE           ?PR?DEBUG_ASSERT_HANDLER?ZF_COMMON_DEBUG
FF97CBH   FF9842H   000078H   BYTE   INSEG    CODE           ?PR?SPI_READ_DAT?ZF_DRIVER_SPI
FF9843H   FF98B3H   000071H   BYTE   INSEG    CODE           ?PR?ALL_INIT?ALL_INIT
FF98B4H   FF9923H   000070H   BYTE   INSEG    CODE           ?PR?IMU660RA_SIMSPI_R_REG_BYTES?ZF_DEVICE_IMU660RA
FF9924H   FF9992H   00006FH   BYTE   INSEG    CODE           ?PR?ENCODER_INIT?ENCODER
FF9993H   FF99FBH   000069H   BYTE   INSEG    CODE           ?PR?RANGE_PROTECT_FLOAT?INDUCTANCE
FF99FCH   FF9A61H   000066H   BYTE   INSEG    CODE           ?PR?UART_RX_INTERRUPT?ZF_DRIVER_UART
FF9A62H   FF9AC6H   000065H   BYTE   INSEG    CODE           ?PR?ADC_CONVERT?ZF_DRIVER_ADC
FF9AC7H   FF9B2BH   000065H   BYTE   INSEG    CODE           ?PR?ENCODER_CLEAR_COUNT?ZF_DRIVER_ENCODER
FF9B2CH   FF9B90H   000065H   BYTE   INSEG    CODE           ?PR?IMU660RA_SELF_CHECK?ZF_DEVICE_IMU660RA
FF9B91H   FF9BEDH   00005DH   BYTE   INSEG    CODE           ?PR?WIRELESS_UART_SEND_STRING?ZF_DEVICE_WIRELESS_UART
FF9BEEH   FF9C49H   00005CH   BYTE   INSEG    CODE           ?PR?SPI_WRITE_DAT?ZF_DRIVER_SPI
FF9C4AH   FF9CA5H   00005CH   BYTE   INSEG    CODE           ?PR?IMU660RA_SIMSPI_W_REG_BYTES?ZF_DEVICE_IMU660RA
FF9CA6H   FF9D01H   00005CH   BYTE   INSEG    CODE           ?PR?PIT_HANDLER?ENCODER
FF9D02H   FF9D5BH   00005AH   BYTE   INSEG    CODE           ?PR?PIT_HANDLER4?ENCODER
FF9D5CH   FF9DB4H   000059H   BYTE   INSEG    CODE           ?PR?FIFO_USED?ZF_COMMON_FIFO
FF9DB5H   FF9E0CH   000058H   BYTE   INSEG    CODE           ?PR?SYSTEM_DELAY_INIT?ZF_DRIVER_DELAY
FF9E0DH   FF9E2DH   000021H   BYTE   UNIT     CODE           ?C_C51STARTUP
L251 LINKER/LOCATER V4.66.93.0                                                        05/01/2026  20:21:51  PAGE 13


FF9E2EH   FF9E5EH   000031H   BYTE   UNIT     CODE           ?C_C51STARTUP?2
FF9E5FH   FF9E61H   000003H   BYTE   UNIT     CODE           ?C_C51STARTUP?3
FF9E62H   FF9EB4H   000053H   BYTE   INSEG    CODE           ?PR?IMU660RA_SIMSPI_WR_BYTE?ZF_DEVICE_IMU660RA
FF9EB5H   FF9F02H   00004EH   BYTE   INSEG    CODE           ?PR?GYRO_INIT?IMU
FF9F03H   FF9F42H   000040H   BYTE   INSEG    CODE           ?PR?INT0_IRQHANDLER?ISR
FF9F43H   FF9F82H   000040H   BYTE   INSEG    CODE           ?PR?INT1_IRQHANDLER?ISR
FF9F83H   FF9FC2H   000040H   BYTE   INSEG    CODE           ?PR?INT2_IRQHANDLER?ISR
FF9FC3H   FFA002H   000040H   BYTE   INSEG    CODE           ?PR?INT3_IRQHANDLER?ISR
FFA003H   FFA042H   000040H   BYTE   INSEG    CODE           ?PR?INT4_IRQHANDLER?ISR
FFA043H   FFA082H   000040H   BYTE   INSEG    CODE           ?PR?TM0_IRQHANDLER?ISR
FFA083H   FFA0C2H   000040H   BYTE   INSEG    CODE           ?PR?TM1_IRQHANDLER?ISR
FFA0C3H   FFA102H   000040H   BYTE   INSEG    CODE           ?PR?TM2_IRQHANDLER?ISR
FFA103H   FFA142H   000040H   BYTE   INSEG    CODE           ?PR?TM3_IRQHANDLER?ISR
FFA143H   FFA182H   000040H   BYTE   INSEG    CODE           ?PR?TM4_IRQHANDLER?ISR
FFA183H   FFA1BEH   00003CH   BYTE   INSEG    CODE           ?PR?DEBUG_INTERRUPR_HANDLER?ZF_COMMON_DEBUG
FFA1BFH   FFA1FAH   00003CH   BYTE   INSEG    CODE           ?PR?SOFT_IIC_DELAY?ZF_DRIVER_SOFT_IIC
FFA1FBH   FFA235H   00003BH   BYTE   INSEG    CODE           ?PR?SPI_WRITE_16BIT?ZF_DRIVER_SPI
FFA236H   FFA270H   00003BH   BYTE   INSEG    CODE           ?PR?IPS114_SET_DIR?ZF_DEVICE_IPS114
FFA271H   FFA2AAH   00003AH   BYTE   INSEG    CODE           ?PR?IMU660RA_WRITE_REGISTERS?ZF_DEVICE_IMU660RA
FFA2ABH   FFA2DFH   000035H   BYTE   INSEG    CODE           ?PR?MY_ABS?IMU
FFA2E0H   FFA30DH   00002EH   BYTE   INSEG    CODE           ?PR?SEEKFREE_ASSISTANT_INIT?SEEKFREE_ASSISTANT
FFA30EH   FFA339H   00002CH   BYTE   INSEG    CODE           ?PR?MAIN?MAIN
FFA33AH   FFA361H   000028H   BYTE   INSEG    CODE           ?PR?IMU660RA_READ_REGISTER?ZF_DEVICE_IMU660RA
FFA362H   FFA388H   000027H   BYTE   INSEG    CODE           ?PR?ABS?MOTO
FFA389H   FFA3AEH   000026H   BYTE   INSEG    CODE           ?PR?WIRELESS_UART_CALLBACK?ZF_DEVICE_WIRELESS_UART
FFA3AFH   FFA3D3H   000025H   BYTE   INSEG    CODE           ?PR?SYSTEM_DELAY_MS?ZF_DRIVER_DELAY
FFA3D4H   FFA3F8H   000025H   BYTE   INSEG    CODE           ?PR?SYSTEM_DELAY_US?ZF_DRIVER_DELAY
FFA3F9H   FFA41DH   000025H   BYTE   INSEG    CODE           ?PR?IPS114_SET_COLOR?ZF_DEVICE_IPS114
FFA41EH   FFA442H   000025H   BYTE   INSEG    CODE           ?PR?INDUCTANCE_INIT?INDUCTANCE
FFA443H   FFA467H   000025H   BYTE   INSEG    CODE           ?PR?MEMCPY?_?MEMCPY
FFA468H   FFA48AH   000023H   BYTE   INSEG    CODE           ?PR?LED_INIT?LED
FFA48BH   FFA4ACH   000022H   BYTE   INSEG    CODE           ?PR?IPS114_WRITE_INDEX?ZF_DEVICE_IPS114
FFA4ADH   FFA4CCH   000020H   BYTE   INSEG    CODE           ?PR?UART_WRITE_BYTE?ZF_DRIVER_UART
FFA4CDH   FFA4EAH   00001EH   BYTE   INSEG    CODE           ?PR?DELAY_CYCLES?ZF_DRIVER_DELAY
FFA4EBH   FFA508H   00001EH   BYTE   INSEG    CODE           ?PR?IMU660RA_WRITE_REGISTER?ZF_DEVICE_IMU660RA
FFA509H   FFA51AH   000012H   BYTE   INSEG    CODE           ?PR?PUTCHAR?ZF_COMMON_DEBUG
FFA51BH   FFA528H   00000EH   BYTE   INSEG    CODE           ?PR?PARAMETER_DEBUG_INIT?MENU
FFA529H   FFA536H   00000EH   BYTE   INSEG    CODE           ?PR?STRLEN?_?STRLEN
FFA537H   FFAA84H   00054EH   BYTE   UNIT     HCONST         ?C_INITHDATA
FFAA85H   FFAC84H   000200H   BYTE   UNIT     HCONST         ?HC?ZF_DRIVER_EEPROM
FFAC85H   FFADB3H   00012FH   BYTE   UNIT     HCONST         ?HC?ZF_DEVICE_DL1A
FFADB4H   FFAE83H   0000D0H   BYTE   UNIT     HCONST         ?HC?ZF_DEVICE_IMU963RA
FFAE84H   FFAF2AH   0000A7H   BYTE   UNIT     HCONST         ?HC?ZF_DEVICE_IMU660RA
FFAF2BH   FFAFCEH   0000A4H   BYTE   UNIT     HCONST         ?HC?SEEKFREE_ASSISTANT
FFAFCFH   FFB070H   0000A2H   BYTE   UNIT     HCONST         ?HC?ZF_DEVICE_GPS_TAU1201
FFB071H   FFB0FAH   00008AH   BYTE   UNIT     HCONST         ?HC?ZF_DRIVER_PWM
FFB0FBH   FFB182H   000088H   BYTE   UNIT     HCONST         ?HC?ZF_DEVICE_ICM20602
FFB183H   FFB1EDH   00006BH   BYTE   UNIT     HCONST         ?HC?ZF_DRIVER_UART
FFB1EEH   FFB24FH   000062H   BYTE   UNIT     HCONST         ?HC?MENU
FFB250H   FFB2A6H   000057H   BYTE   UNIT     HCONST         ?HC?ZF_COMMON_FUNCTION
FFB2A7H   FFB2DAH   000034H   BYTE   UNIT     HCONST         ?HC?ZF_DEVICE_WIRELESS_UART
FFB2DBH   FFB30DH   000033H   BYTE   UNIT     HCONST         ?HC?ZF_DEVICE_IPS114
FFB30EH   FFB340H   000033H   BYTE   UNIT     HCONST         ?HC?ZF_DEVICE_IPS200
FFB341H   FFB373H   000033H   BYTE   UNIT     HCONST         ?HC?ZF_DEVICE_TFT180
FFB374H   FFB3A2H   00002FH   BYTE   UNIT     HCONST         ?HC?ZF_DRIVER_SOFT_IIC
FFB3A3H   FFB3D1H   00002FH   BYTE   UNIT     HCONST         ?HC?ZF_DRIVER_SOFT_SPI
FFB3D2H   FFB3FFH   00002EH   BYTE   UNIT     HCONST         ?HC?ZF_DRIVER_ENCODER
FFB400H   FFB42DH   00002EH   BYTE   UNIT     HCONST         ?HC?ZF_DEVICE_BLE6A20
FFB42EH   FFB458H   00002BH   BYTE   UNIT     HCONST         ?HC?ZF_COMMON_FIFO
FFB459H   FFB483H   00002BH   BYTE   UNIT     HCONST         ?HC?ZF_DRIVER_GPIO
FFB484H   FFB4ADH   00002AH   BYTE   UNIT     HCONST         ?HC?ZF_DRIVER_ADC
FFB4AEH   FFB4D7H   00002AH   BYTE   UNIT     HCONST         ?HC?ZF_DRIVER_SPI
FFB4D8H   FFB4FCH   000025H   BYTE   UNIT     HCONST         ?HC?ZF_COMMON_DEBUG
FFB4FDH   FFB517H   00001BH   BYTE   UNIT     HCONST         ?HC?ZF_DEVICE_IMU660RB

L251 LINKER/LOCATER V4.66.93.0                                                        05/01/2026  20:21:51  PAGE 14


* * * * * * * * *   R E M O V E D     S E G M E N T S   * * * * * * * *
   *DEL*:           00004EH   BYTE   INSEG    CODE           ?PR?DEBUG_READ_BUFFER?ZF_COMMON_DEBUG
   *DEL*:           000067H   BYTE   INSEG    CODE           ?PR?DEBUG_SEND_BUFFER?ZF_COMMON_DEBUG
   *DEL*:           000186H   BYTE   INSEG    CODE           ?PR?FIFO_CLEAR?ZF_COMMON_FIFO
   *DEL*:           0003B0H   BYTE   INSEG    CODE           ?PR?FUNC_DOUBLE_TO_STR?ZF_COMMON_FUNCTION
   *DEL*:           000275H   BYTE   INSEG    CODE           ?PR?FUNC_STR_TO_DOUBLE?ZF_COMMON_FUNCTION
   *DEL*:           000197H   BYTE   INSEG    CODE           ?PR?NUMBER_CONVERSION_ASCII?ZF_COMMON_FUNCTION
   *DEL*:           0003B0H   BYTE   INSEG    CODE           ?PR?FUNC_FLOAT_TO_STR?ZF_COMMON_FUNCTION
   *DEL*:           000275H   BYTE   INSEG    CODE           ?PR?FUNC_STR_TO_FLOAT?ZF_COMMON_FUNCTION
   *DEL*:           000028H   BYTE   INSEG    CODE           ?PR?FUNC_SOFT_DELAY?ZF_COMMON_FUNCTION
   *DEL*:           00091FH   BYTE   INSEG    CODE           ?PR?ZF_SPRINTF?ZF_COMMON_FUNCTION
   *DEL*:           00011BH   BYTE   INSEG    CODE           ?PR?FUNC_UINT_TO_STR?ZF_COMMON_FUNCTION
   *DEL*:           0000C0H   BYTE   INSEG    CODE           ?PR?FUNC_STR_TO_UINT?ZF_COMMON_FUNCTION
   *DEL*:           000184H   BYTE   INSEG    CODE           ?PR?FUNC_HEX_TO_STR?ZF_COMMON_FUNCTION
   *DEL*:           0001ECH   BYTE   INSEG    CODE           ?PR?FUNC_STR_TO_HEX?ZF_COMMON_FUNCTION
   *DEL*:           0001B5H   BYTE   INSEG    CODE           ?PR?FUNC_INT_TO_STR?ZF_COMMON_FUNCTION
   *DEL*:           000141H   BYTE   INSEG    CODE           ?PR?FUNC_STR_TO_INT?ZF_COMMON_FUNCTION
   *DEL*:           0000A6H   BYTE   INSEG    CODE           ?PR?FUNC_GET_GREATEST_COMMON_DIVISOR?ZF_COMMON_FUNCTION
   *DEL*:           0006E4H   BYTE   INSEG    CODE           ?PR?VSNPRINTF?ZF_COMMON_FUNCTION
   *DEL*:           0000F9H   BYTE   INSEG    CODE           ?PR?PRINTF_REVERSE_ORDER?ZF_COMMON_FUNCTION
   *DEL*:           0000CDH   BYTE   INSEG    CODE           ?PR?INTERRUPT_SET_PRIORITY?ZF_COMMON_INTERRUPT
   *DEL*:           00015EH   BYTE   INSEG    CODE           ?PR?ADC_MEAN_FILTER_CONVERT?ZF_DRIVER_ADC
   *DEL*:           000001H   BYTE   INSEG    CODE           ?PR?ADC_COLLECT?ZF_DRIVER_ADC
   *DEL*:           00002AH   BYTE   INSEG    CODE           ?PR?IAP_SET_TPS?ZF_DRIVER_EEPROM
   *DEL*:           00000DH   BYTE   INSEG    CODE           ?PR?EEPROM_TRIG?ZF_DRIVER_EEPROM
   *DEL*:           00004FH   BYTE   INSEG    CODE           ?PR?IAP_ERASE_PAGE?ZF_DRIVER_EEPROM
   *DEL*:           000004H   BYTE   INSEG    CODE           ?PR?IAP_IDLE?ZF_DRIVER_EEPROM
   *DEL*:           000075H   BYTE   INSEG    CODE           ?PR?IAP_READ_BUFF?ZF_DRIVER_EEPROM
   *DEL*:           000119H   BYTE   INSEG    CODE           ?PR?EXTERN_IAP_WRITE_BUFF?ZF_DRIVER_EEPROM
   *DEL*:           000072H   BYTE   INSEG    CODE           ?PR?IAP_WRITE_BUFF?ZF_DRIVER_EEPROM
   *DEL*:           000052H   BYTE   INSEG    CODE           ?PR?IAP_READ_BYTE?ZF_DRIVER_EEPROM
   *DEL*:           000008H   BYTE   INSEG    CODE           ?PR?IAP_INIT?ZF_DRIVER_EEPROM
   *DEL*:           000052H   BYTE   INSEG    CODE           ?PR?IAP_WRITE_BYTE?ZF_DRIVER_EEPROM
   *DEL*:           000012H   BYTE   INSEG    CODE           ?PR?IAP_GET_CMD_STATE?ZF_DRIVER_EEPROM
   *DEL*:           000045H   BYTE   INSEG    CODE           ?PR?EXTI_ENABLE?ZF_DRIVER_EXTI
   *DEL*:           000013H   BYTE   INSEG    CODE           ?PR?EXTI_ALL_CLOSE?ZF_DRIVER_EXTI
   *DEL*:           00005BH   BYTE   INSEG    CODE           ?PR?EXTI_INIT?ZF_DRIVER_EXTI
   *DEL*:           000045H   BYTE   INSEG    CODE           ?PR?EXTI_DISABLE?ZF_DRIVER_EXTI
   *DEL*:           000023H   BYTE   INSEG    CODE           ?PR?GPIO_TOGGLE_LEVEL?ZF_DRIVER_GPIO
   *DEL*:           0002D5H   BYTE   INSEG    CODE           ?PR?PWM_SET_FREQ?ZF_DRIVER_PWM
   *DEL*:           000091H   BYTE   INSEG    CODE           ?PR?SOFT_IIC_WRITE_8BIT_REGISTER?ZF_DRIVER_SOFT_IIC
   *DEL*:           000186H   BYTE   INSEG    CODE           ?PR?SOFT_IIC_READ_16BIT_REGISTERS?ZF_DRIVER_SOFT_IIC
   *DEL*:           0000D2H   BYTE   INSEG    CODE           ?PR?SOFT_IIC_SCCB_READ_REGISTER?ZF_DRIVER_SOFT_IIC
   *DEL*:           000117H   BYTE   INSEG    CODE           ?PR?SOFT_IIC_READ_16BIT_REGISTER?ZF_DRIVER_SOFT_IIC
   *DEL*:           0001F3H   BYTE   INSEG    CODE           ?PR?SOFT_IIC_TRANSFER_16BIT_ARRAY?ZF_DRIVER_SOFT_IIC
   *DEL*:           00012FH   BYTE   INSEG    CODE           ?PR?SOFT_IIC_WRITE_16BIT_REGISTERS?ZF_DRIVER_SOFT_IIC
   *DEL*:           000091H   BYTE   INSEG    CODE           ?PR?SOFT_IIC_SCCB_WRITE_REGISTER?ZF_DRIVER_SOFT_IIC
   *DEL*:           000085H   BYTE   INSEG    CODE           ?PR?SOFT_IIC_READ_8BIT?ZF_DRIVER_SOFT_IIC
   *DEL*:           0000F7H   BYTE   INSEG    CODE           ?PR?SOFT_IIC_READ_8BIT_ARRAY?ZF_DRIVER_SOFT_IIC
   *DEL*:           0000DDH   BYTE   INSEG    CODE           ?PR?SOFT_IIC_WRITE_16BIT_REGISTER?ZF_DRIVER_SOFT_IIC
   *DEL*:           00007AH   BYTE   INSEG    CODE           ?PR?SOFT_IIC_WRITE_8BIT?ZF_DRIVER_SOFT_IIC
   *DEL*:           0000D3H   BYTE   INSEG    CODE           ?PR?SOFT_IIC_WRITE_8BIT_ARRAY?ZF_DRIVER_SOFT_IIC
   *DEL*:           0000B0H   BYTE   INSEG    CODE           ?PR?SOFT_IIC_READ_16BIT?ZF_DRIVER_SOFT_IIC
   *DEL*:           000129H   BYTE   INSEG    CODE           ?PR?SOFT_IIC_READ_16BIT_ARRAY?ZF_DRIVER_SOFT_IIC
   *DEL*:           0000DFH   BYTE   INSEG    CODE           ?PR?SOFT_IIC_INIT?ZF_DRIVER_SOFT_IIC
   *DEL*:           000137H   BYTE   INSEG    CODE           ?PR?SOFT_IIC_READ_8BIT_REGISTERS?ZF_DRIVER_SOFT_IIC
   *DEL*:           0000A1H   BYTE   INSEG    CODE           ?PR?SOFT_IIC_WRITE_16BIT?ZF_DRIVER_SOFT_IIC
   *DEL*:           0000FDH   BYTE   INSEG    CODE           ?PR?SOFT_IIC_WRITE_16BIT_ARRAY?ZF_DRIVER_SOFT_IIC
   *DEL*:           0000C5H   BYTE   INSEG    CODE           ?PR?SOFT_IIC_READ_8BIT_REGISTER?ZF_DRIVER_SOFT_IIC
   *DEL*:           000197H   BYTE   INSEG    CODE           ?PR?SOFT_IIC_TRANSFER_8BIT_ARRAY?ZF_DRIVER_SOFT_IIC
   *DEL*:           0000E8H   BYTE   INSEG    CODE           ?PR?SOFT_IIC_WRITE_8BIT_REGISTERS?ZF_DRIVER_SOFT_IIC
   *DEL*:           0002EFH   BYTE   INSEG    CODE           ?PR?SOFT_SPI_INIT?ZF_DRIVER_SOFT_SPI
   *DEL*:           000111H   BYTE   INSEG    CODE           ?PR?SOFT_SPI_READ_8BIT_REGISTERS?ZF_DRIVER_SOFT_SPI
   *DEL*:           000099H   BYTE   INSEG    CODE           ?PR?SOFT_SPI_WRITE_16BIT?ZF_DRIVER_SOFT_SPI
   *DEL*:           000216H   BYTE   INSEG    CODE           ?PR?SOFT_SPI_8BIT_DATA_HANDLER?ZF_DRIVER_SOFT_SPI
L251 LINKER/LOCATER V4.66.93.0                                                        05/01/2026  20:21:51  PAGE 15


   *DEL*:           0000EEH   BYTE   INSEG    CODE           ?PR?SOFT_SPI_WRITE_16BIT_ARRAY?ZF_DRIVER_SOFT_SPI
   *DEL*:           0000B0H   BYTE   INSEG    CODE           ?PR?SOFT_SPI_READ_8BIT_REGISTER?ZF_DRIVER_SOFT_SPI
   *DEL*:           000159H   BYTE   INSEG    CODE           ?PR?SOFT_SPI_TRANSFER_8BIT?ZF_DRIVER_SOFT_SPI
   *DEL*:           000103H   BYTE   INSEG    CODE           ?PR?SOFT_SPI_WRITE_8BIT_REGISTERS?ZF_DRIVER_SOFT_SPI
   *DEL*:           0000ACH   BYTE   INSEG    CODE           ?PR?SOFT_SPI_WRITE_8BIT_REGISTER?ZF_DRIVER_SOFT_SPI
   *DEL*:           00010EH   BYTE   INSEG    CODE           ?PR?SOFT_SPI_READ_16BIT_REGISTERS?ZF_DRIVER_SOFT_SPI
   *DEL*:           000250H   BYTE   INSEG    CODE           ?PR?SOFT_SPI_16BIT_DATA_HANDLER?ZF_DRIVER_SOFT_SPI
   *DEL*:           0000BCH   BYTE   INSEG    CODE           ?PR?SOFT_SPI_READ_16BIT_REGISTER?ZF_DRIVER_SOFT_SPI
   *DEL*:           00015BH   BYTE   INSEG    CODE           ?PR?SOFT_SPI_TRANSFER_16BIT?ZF_DRIVER_SOFT_SPI
   *DEL*:           0000FDH   BYTE   INSEG    CODE           ?PR?SOFT_SPI_WRITE_16BIT_REGISTERS?ZF_DRIVER_SOFT_SPI
   *DEL*:           00009BH   BYTE   INSEG    CODE           ?PR?SOFT_SPI_READ_8BIT?ZF_DRIVER_SOFT_SPI
   *DEL*:           0000FCH   BYTE   INSEG    CODE           ?PR?SOFT_SPI_READ_8BIT_ARRAY?ZF_DRIVER_SOFT_SPI
   *DEL*:           0000B2H   BYTE   INSEG    CODE           ?PR?SOFT_SPI_WRITE_16BIT_REGISTER?ZF_DRIVER_SOFT_SPI
   *DEL*:           000095H   BYTE   INSEG    CODE           ?PR?SOFT_SPI_WRITE_8BIT?ZF_DRIVER_SOFT_SPI
   *DEL*:           0000EEH   BYTE   INSEG    CODE           ?PR?SOFT_SPI_WRITE_8BIT_ARRAY?ZF_DRIVER_SOFT_SPI
   *DEL*:           00003CH   BYTE   INSEG    CODE           ?PR?SOFT_SPI_DELAY?ZF_DRIVER_SOFT_SPI
   *DEL*:           0000A0H   BYTE   INSEG    CODE           ?PR?SOFT_SPI_READ_16BIT?ZF_DRIVER_SOFT_SPI
   *DEL*:           0000FFH   BYTE   INSEG    CODE           ?PR?SOFT_SPI_READ_16BIT_ARRAY?ZF_DRIVER_SOFT_SPI
   *DEL*:           00002BH   BYTE   INSEG    CODE           ?PR?SPI_WRITE_8BIT_REGISTER?ZF_DRIVER_SPI
   *DEL*:           0000BCH   BYTE   INSEG    CODE           ?PR?SPI_READ_16BIT_REGISTERS?ZF_DRIVER_SPI
   *DEL*:           000079H   BYTE   INSEG    CODE           ?PR?SPI_READ_16BIT_REGISTER?ZF_DRIVER_SPI
   *DEL*:           00010DH   BYTE   INSEG    CODE           ?PR?SPI_TRANSFER_16BIT?ZF_DRIVER_SPI
   *DEL*:           00008AH   BYTE   INSEG    CODE           ?PR?SPI_WRITE_16BIT_REGISTERS?ZF_DRIVER_SPI
   *DEL*:           000011H   BYTE   INSEG    CODE           ?PR?SPI_READ_8BIT?ZF_DRIVER_SPI
   *DEL*:           00005DH   BYTE   INSEG    CODE           ?PR?SPI_READ_8BIT_ARRAY?ZF_DRIVER_SPI
   *DEL*:           00006FH   BYTE   INSEG    CODE           ?PR?SPI_WRITE_16BIT_REGISTER?ZF_DRIVER_SPI
   *DEL*:           00004FH   BYTE   INSEG    CODE           ?PR?SPI_WRITE_8BIT_ARRAY?ZF_DRIVER_SPI
   *DEL*:           000045H   BYTE   INSEG    CODE           ?PR?SPI_READ_16BIT?ZF_DRIVER_SPI
   *DEL*:           000088H   BYTE   INSEG    CODE           ?PR?SPI_READ_16BIT_ARRAY?ZF_DRIVER_SPI
   *DEL*:           00006EH   BYTE   INSEG    CODE           ?PR?SPI_READ_8BIT_REGISTERS?ZF_DRIVER_SPI
   *DEL*:           000075H   BYTE   INSEG    CODE           ?PR?SPI_WRITE_16BIT_ARRAY?ZF_DRIVER_SPI
   *DEL*:           000022H   BYTE   INSEG    CODE           ?PR?SPI_READ_8BIT_REGISTER?ZF_DRIVER_SPI
   *DEL*:           0000A4H   BYTE   INSEG    CODE           ?PR?SPI_TRANSFER_8BIT?ZF_DRIVER_SPI
   *DEL*:           000060H   BYTE   INSEG    CODE           ?PR?SPI_WRITE_8BIT_REGISTERS?ZF_DRIVER_SPI
   *DEL*:           00003DH   BYTE   INSEG    CODE           ?PR?UART_WRITE_STRING?ZF_DRIVER_UART
   *DEL*:           000072H   BYTE   INSEG    CODE           ?PR?UART_READ_BYTE?ZF_DRIVER_UART
   *DEL*:           000038H   BYTE   INSEG    CODE           ?PR?EEPROM_READ?EEPROM
   *DEL*:           000074H   BYTE   INSEG    CODE           ?PR?EEPROM_READ_VALUE?EEPROM
   *DEL*:           00007DH   BYTE   INSEG    CODE           ?PR?EEPROM_WRITE_VALUE?EEPROM
   *DEL*:           000032H   BYTE   INSEG    CODE           ?PR?EEPROM_INIT?EEPROM
   *DEL*:           000020H   BYTE   INSEG    CODE           ?PR?VOLTAGE_WARNING_INIT?VOLTAGE_WARNING
   *DEL*:           000084H   BYTE   INSEG    CODE           ?PR?BLE6A20_READ_BUFFER?ZF_DEVICE_BLE6A20
   *DEL*:           000110H   BYTE   INSEG    CODE           ?PR?BLE6A20_SEND_BUFFER?ZF_DEVICE_BLE6A20
   *DEL*:           00005DH   BYTE   INSEG    CODE           ?PR?BLE6A20_SEND_STRING?ZF_DEVICE_BLE6A20
   *DEL*:           000026H   BYTE   INSEG    CODE           ?PR?BLE6A20_CALLBACK?ZF_DEVICE_BLE6A20
   *DEL*:           000088H   BYTE   INSEG    CODE           ?PR?BLE6A20_INIT?ZF_DEVICE_BLE6A20
   *DEL*:           00006DH   BYTE   INSEG    CODE           ?PR?BLE6A20_SEND_BYTE?ZF_DEVICE_BLE6A20
   *DEL*:           00006FH   BYTE   INSEG    CODE           ?PR?DL1A_TIMEOUT_MICROSECONDS_TO_MCLKS?ZF_DEVICE_DL1A
   *DEL*:           000069H   BYTE   INSEG    CODE           ?PR?DL1A_TIMEOUT_MCLKS_TO_MICROSECONDS?ZF_DEVICE_DL1A
   *DEL*:           0000A2H   BYTE   INSEG    CODE           ?PR?DL1A_SET_SIGNAL_RATE_LIMIT?ZF_DEVICE_DL1A
   *DEL*:           000030H   BYTE   INSEG    CODE           ?PR?DL1A_DECODE_TIMEOUT?ZF_DEVICE_DL1A
   *DEL*:           000259H   BYTE   INSEG    CODE           ?PR?DL1A_GET_SPAD_INFO?ZF_DEVICE_DL1A
   *DEL*:           000085H   BYTE   INSEG    CODE           ?PR?DL1A_ENCODE_TIMEOUT?ZF_DEVICE_DL1A
   *DEL*:           0000CBH   BYTE   INSEG    CODE           ?PR?DL1A_GET_SEQUENCE_STEP_ENABLES?ZF_DEVICE_DL1A
   *DEL*:           0000D3H   BYTE   INSEG    CODE           ?PR?DL1A_GET_DISTANCE?ZF_DEVICE_DL1A
   *DEL*:           0000D6H   BYTE   INSEG    CODE           ?PR?DL1A_PERFORM_SINGLE_REF_CALIBRATION?ZF_DEVICE_DL1A
   *DEL*:           00021AH   BYTE   INSEG    CODE           ?PR?DL1A_GET_SEQUENCE_STEP_TIMEOUTS?ZF_DEVICE_DL1A
   *DEL*:           000001H   BYTE   INSEG    CODE           ?PR?DL1A_INT_HANDLER?ZF_DEVICE_DL1A
   *DEL*:           000119H   BYTE   INSEG    CODE           ?PR?DL1A_GET_MEASUREMENT_TIMING_BUDGET?ZF_DEVICE_DL1A
   *DEL*:           000210H   BYTE   INSEG    CODE           ?PR?DL1A_SET_MEASUREMENT_TIMING_BUDGET?ZF_DEVICE_DL1A
   *DEL*:           000602H   BYTE   INSEG    CODE           ?PR?DL1A_INIT?ZF_DEVICE_DL1A
   *DEL*:           00009EH   BYTE   INSEG    CODE           ?PR?DL1A_GET_VCSEL_PULSE_PERIOD?ZF_DEVICE_DL1A
   *DEL*:           0001E4H   BYTE   INSEG    CODE           ?PR?DL1B_GET_DISTANCE?ZF_DEVICE_DL1B
   *DEL*:           000001H   BYTE   INSEG    CODE           ?PR?DL1B_INT_HANDLER?ZF_DEVICE_DL1B
   *DEL*:           00000AH   BYTE   INSEG    CODE           ?PR?DL1B_INIT?ZF_DEVICE_DL1B
L251 LINKER/LOCATER V4.66.93.0                                                        05/01/2026  20:21:51  PAGE 16


   *DEL*:           000094H   BYTE   INSEG    CODE           ?PR?GET_DOUBLE_NUMBER?ZF_DEVICE_GPS_TAU1201
   *DEL*:           000094H   BYTE   INSEG    CODE           ?PR?GET_FLOAT_NUMBER?ZF_DEVICE_GPS_TAU1201
   *DEL*:           0001CEH   BYTE   INSEG    CODE           ?PR?UTC_TO_BTC?ZF_DEVICE_GPS_TAU1201
   *DEL*:           000214H   BYTE   INSEG    CODE           ?PR?GET_TWO_POINTS_DISTANCE?ZF_DEVICE_GPS_TAU1201
   *DEL*:           000102H   BYTE   INSEG    CODE           ?PR?GPS_GNGGA_PARSE?ZF_DEVICE_GPS_TAU1201
   *DEL*:           000668H   BYTE   INSEG    CODE           ?PR?GPS_GNRMC_PARSE?ZF_DEVICE_GPS_TAU1201
   *DEL*:           000212H   BYTE   INSEG    CODE           ?PR?GPS_DATA_PARSE?ZF_DEVICE_GPS_TAU1201
   *DEL*:           000088H   BYTE   INSEG    CODE           ?PR?GET_INT_NUMBER?ZF_DEVICE_GPS_TAU1201
   *DEL*:           0002B0H   BYTE   INSEG    CODE           ?PR?GPS_INIT?ZF_DEVICE_GPS_TAU1201
   *DEL*:           0000D3H   BYTE   INSEG    CODE           ?PR?GET_PARAMETER_INDEX?ZF_DEVICE_GPS_TAU1201
   *DEL*:           00033DH   BYTE   INSEG    CODE           ?PR?GET_TWO_POINTS_AZIMUTH?ZF_DEVICE_GPS_TAU1201
   *DEL*:           000191H   BYTE   INSEG    CODE           ?PR?GPS_UART_CALLBACK?ZF_DEVICE_GPS_TAU1201
   *DEL*:           000024H   BYTE   INSEG    CODE           ?PR?ICM20602_READ_REGISTER?ZF_DEVICE_ICM20602
   *DEL*:           00001EH   BYTE   INSEG    CODE           ?PR?ICM20602_WRITE_REGISTER?ZF_DEVICE_ICM20602
   *DEL*:           000050H   BYTE   INSEG    CODE           ?PR?ICM20602_SIMSPI_WR_BYTE?ZF_DEVICE_ICM20602
   *DEL*:           000051H   BYTE   INSEG    CODE           ?PR?ICM20602_SELF_CHECK?ZF_DEVICE_ICM20602
   *DEL*:           000076H   BYTE   INSEG    CODE           ?PR?ICM20602_SIMSPI_R_REG_BYTES?ZF_DEVICE_ICM20602
   *DEL*:           000031H   BYTE   INSEG    CODE           ?PR?ICM20602_SIMSPI_R_REG_BYTE?ZF_DEVICE_ICM20602
   *DEL*:           00001DH   BYTE   INSEG    CODE           ?PR?ICM20602_SIMSPI_W_REG_BYTE?ZF_DEVICE_ICM20602
   *DEL*:           0001F1H   BYTE   INSEG    CODE           ?PR?ICM20602_INIT?ZF_DEVICE_ICM20602
   *DEL*:           00005AH   BYTE   INSEG    CODE           ?PR?ICM20602_GET_ACC?ZF_DEVICE_ICM20602
   *DEL*:           000040H   BYTE   INSEG    CODE           ?PR?ICM20602_READ_REGISTERS?ZF_DEVICE_ICM20602
   *DEL*:           00005AH   BYTE   INSEG    CODE           ?PR?ICM20602_GET_GYRO?ZF_DEVICE_ICM20602
   *DEL*:           00005AH   BYTE   INSEG    CODE           ?PR?IMU660RA_GET_GYRO?ZF_DEVICE_IMU660RA
   *DEL*:           00005AH   BYTE   INSEG    CODE           ?PR?IMU660RA_GET_ACC?ZF_DEVICE_IMU660RA
   *DEL*:           0000B1H   BYTE   INSEG    CODE           ?PR?IMU660RA_READ_REGISTERS?ZF_DEVICE_IMU660RA
   *DEL*:           00005AH   BYTE   INSEG    CODE           ?PR?IMU660RB_GET_GYRO?ZF_DEVICE_IMU660RB
   *DEL*:           000024H   BYTE   INSEG    CODE           ?PR?IMU660RB_READ_REGISTER?ZF_DEVICE_IMU660RB
   *DEL*:           000114H   BYTE   INSEG    CODE           ?PR?IMU660RB_GYRO_TRANSITION?ZF_DEVICE_IMU660RB
   *DEL*:           00001EH   BYTE   INSEG    CODE           ?PR?IMU660RB_WRITE_REGISTER?ZF_DEVICE_IMU660RB
   *DEL*:           000053H   BYTE   INSEG    CODE           ?PR?IMU660RB_SIMSPI_WR_BYTE?ZF_DEVICE_IMU660RB
   *DEL*:           00004FH   BYTE   INSEG    CODE           ?PR?IMU660RB_SELF_CHECK?ZF_DEVICE_IMU660RB
   *DEL*:           000070H   BYTE   INSEG    CODE           ?PR?IMU660RB_SIMSPI_R_REG_BYTES?ZF_DEVICE_IMU660RB
   *DEL*:           000037H   BYTE   INSEG    CODE           ?PR?IMU660RB_SIMSPI_R_REG_BYTE?ZF_DEVICE_IMU660RB
   *DEL*:           00001DH   BYTE   INSEG    CODE           ?PR?IMU660RB_SIMSPI_W_REG_BYTE?ZF_DEVICE_IMU660RB
   *DEL*:           000071H   BYTE   INSEG    CODE           ?PR?IMU660RB_INIT?ZF_DEVICE_IMU660RB
   *DEL*:           00005AH   BYTE   INSEG    CODE           ?PR?IMU660RB_GET_ACC?ZF_DEVICE_IMU660RB
   *DEL*:           0000BEH   BYTE   INSEG    CODE           ?PR?IMU660RB_ACC_TRANSITION?ZF_DEVICE_IMU660RB
   *DEL*:           000040H   BYTE   INSEG    CODE           ?PR?IMU660RB_READ_REGISTERS?ZF_DEVICE_IMU660RB
   *DEL*:           00005AH   BYTE   INSEG    CODE           ?PR?IMU963RA_GET_GYRO?ZF_DEVICE_IMU963RA
   *DEL*:           000072H   BYTE   INSEG    CODE           ?PR?IMU963RA_READ_MAG_REGISTER?ZF_DEVICE_IMU963RA
   *DEL*:           00003DH   BYTE   INSEG    CODE           ?PR?IMU963RA_CONNECT_MAG?ZF_DEVICE_IMU963RA
   *DEL*:           00004CH   BYTE   INSEG    CODE           ?PR?IMU963RA_READ_ACC_GYRO_REGISTERS?ZF_DEVICE_IMU963RA
   *DEL*:           000089H   BYTE   INSEG    CODE           ?PR?IMU963RA_WRITE_MAG_REGISTER?ZF_DEVICE_IMU963RA
   *DEL*:           000027H   BYTE   INSEG    CODE           ?PR?IMU963RA_READ_ACC_GYRO_REGISTER?ZF_DEVICE_IMU963RA
   *DEL*:           000054H   BYTE   INSEG    CODE           ?PR?IMU963RA_MAG_SELF_CHECK?ZF_DEVICE_IMU963RA
   *DEL*:           000020H   BYTE   INSEG    CODE           ?PR?IMU963RA_WRITE_ACC_GYRO_REGISTER?ZF_DEVICE_IMU963RA
   *DEL*:           000345H   BYTE   INSEG    CODE           ?PR?IMU963RA_INIT?ZF_DEVICE_IMU963RA
   *DEL*:           000068H   BYTE   INSEG    CODE           ?PR?IMU963RA_ACC_GYRO_SELF_CHECK?ZF_DEVICE_IMU963RA
   *DEL*:           00005AH   BYTE   INSEG    CODE           ?PR?IMU963RA_GET_ACC?ZF_DEVICE_IMU963RA
   *DEL*:           000079H   BYTE   INSEG    CODE           ?PR?IMU963RA_GET_MAG?ZF_DEVICE_IMU963RA
   *DEL*:           0001EBH   BYTE   INSEG    CODE           ?PR?IPS114_SHOW_FLOAT?ZF_DEVICE_IPS114
   *DEL*:           000083H   BYTE   INSEG    CODE           ?PR?IPS114_DRAW_POINT?ZF_DEVICE_IPS114
   *DEL*:           0000C4H   BYTE   INSEG    CODE           ?PR?IPS114_SHOW_STRING?ZF_DEVICE_IPS114
   *DEL*:           00011CH   BYTE   INSEG    CODE           ?PR?IPS114_SHOW_CHAR?ZF_DEVICE_IPS114
   *DEL*:           000119H   BYTE   INSEG    CODE           ?PR?IPS114_SHOW_UINT16?ZF_DEVICE_IPS114
   *DEL*:           00015EH   BYTE   INSEG    CODE           ?PR?IPS114_SHOW_INT32?ZF_DEVICE_IPS114
   *DEL*:           00016DH   BYTE   INSEG    CODE           ?PR?IPS114_SHOW_INT16?ZF_DEVICE_IPS114
   *DEL*:           000214H   BYTE   INSEG    CODE           ?PR?IPS114_SHOW_WAVE?ZF_DEVICE_IPS114
   *DEL*:           000200H   BYTE   INSEG    CODE           ?PR?IPS114_SHOW_CHINESE?ZF_DEVICE_IPS114
   *DEL*:           0000E9H   BYTE   INSEG    CODE           ?PR?IPS114_SHOW_UINT8?ZF_DEVICE_IPS114
   *DEL*:           00012EH   BYTE   INSEG    CODE           ?PR?IPS114_SHOW_INT8?ZF_DEVICE_IPS114
   *DEL*:           0001EBH   BYTE   INSEG    CODE           ?PR?IPS200_SHOW_FLOAT?ZF_DEVICE_IPS200
   *DEL*:           000083H   BYTE   INSEG    CODE           ?PR?IPS200_DRAW_POINT?ZF_DEVICE_IPS200
   *DEL*:           0000C4H   BYTE   INSEG    CODE           ?PR?IPS200_SHOW_STRING?ZF_DEVICE_IPS200
L251 LINKER/LOCATER V4.66.93.0                                                        05/01/2026  20:21:51  PAGE 17


   *DEL*:           00011CH   BYTE   INSEG    CODE           ?PR?IPS200_SHOW_CHAR?ZF_DEVICE_IPS200
   *DEL*:           000119H   BYTE   INSEG    CODE           ?PR?IPS200_SHOW_UINT16?ZF_DEVICE_IPS200
   *DEL*:           000025H   BYTE   INSEG    CODE           ?PR?IPS200_SET_COLOR?ZF_DEVICE_IPS200
   *DEL*:           00015EH   BYTE   INSEG    CODE           ?PR?IPS200_SHOW_INT32?ZF_DEVICE_IPS200
   *DEL*:           00016DH   BYTE   INSEG    CODE           ?PR?IPS200_SHOW_INT16?ZF_DEVICE_IPS200
   *DEL*:           000214H   BYTE   INSEG    CODE           ?PR?IPS200_SHOW_WAVE?ZF_DEVICE_IPS200
   *DEL*:           000013H   BYTE   INSEG    CODE           ?PR?IPS200_SET_DIR?ZF_DEVICE_IPS200
   *DEL*:           000200H   BYTE   INSEG    CODE           ?PR?IPS200_SHOW_CHINESE?ZF_DEVICE_IPS200
   *DEL*:           000085H   BYTE   INSEG    CODE           ?PR?IPS200_CLEAR?ZF_DEVICE_IPS200
   *DEL*:           0000E9H   BYTE   INSEG    CODE           ?PR?IPS200_SHOW_UINT8?ZF_DEVICE_IPS200
   *DEL*:           00012EH   BYTE   INSEG    CODE           ?PR?IPS200_SHOW_INT8?ZF_DEVICE_IPS200
   *DEL*:           000022H   BYTE   INSEG    CODE           ?PR?IPS200_WRITE_INDEX?ZF_DEVICE_IPS200
   *DEL*:           0000ECH   BYTE   INSEG    CODE           ?PR?IPS200_SET_REGION?ZF_DEVICE_IPS200
   *DEL*:           0002C2H   BYTE   INSEG    CODE           ?PR?IPS200_INIT?ZF_DEVICE_IPS200
   *DEL*:           000095H   BYTE   INSEG    CODE           ?PR?IPS200PRO_PROGRESS_BAR_CREATE?ZF_DEVICE_IPS200PRO
   *DEL*:           000053H   BYTE   INSEG    CODE           ?PR?IPS200PRO_SET_CRC_STATE?ZF_DEVICE_IPS200PRO
   *DEL*:           000070H   BYTE   INSEG    CODE           ?PR?IPS200PRO_TABLE_SELECT?ZF_DEVICE_IPS200PRO
   *DEL*:           000036H   BYTE   INSEG    CODE           ?PR?IPS200PRO_PAGE_HIDDEN?ZF_DEVICE_IPS200PRO
   *DEL*:           000055H   BYTE   INSEG    CODE           ?PR?IPS200PRO_SET_DIRECTION?ZF_DEVICE_IPS200PRO
   *DEL*:           00009EH   BYTE   INSEG    CODE           ?PR?IPS200PRO_PAGE_CREATE?ZF_DEVICE_IPS200PRO
   *DEL*:           00010CH   BYTE   INSEG    CODE           ?PR?IPS200PRO_WAVEFORM_ADD_VALUE?ZF_DEVICE_IPS200PRO
   *DEL*:           000095H   BYTE   INSEG    CODE           ?PR?IPS200PRO_METER_CREATE?ZF_DEVICE_IPS200PRO
   *DEL*:           0000E3H   BYTE   INSEG    CODE           ?PR?IPS200PRO_LABEL_PRINTF?ZF_DEVICE_IPS200PRO
   *DEL*:           000072H   BYTE   INSEG    CODE           ?PR?IPS200PRO_WAVEFORM_LINE_STATE?ZF_DEVICE_IPS200PRO
   *DEL*:           000114H   BYTE   INSEG    CODE           ?PR?IPS200PRO_TABLE_CELL_PRINTF?ZF_DEVICE_IPS200PRO
   *DEL*:           000286H   BYTE   INSEG    CODE           ?PR?IPS200PRO_WRITE_PACKET?ZF_DEVICE_IPS200PRO
   *DEL*:           00009AH   BYTE   INSEG    CODE           ?PR?IPS200PRO_SEND_BUFFER?ZF_DEVICE_IPS200PRO
   *DEL*:           000060H   BYTE   INSEG    CODE           ?PR?IPS200PRO_LABEL_MODE?ZF_DEVICE_IPS200PRO
   *DEL*:           000060H   BYTE   INSEG    CODE           ?PR?IPS200PRO_PAGE_SWITCH?ZF_DEVICE_IPS200PRO
   *DEL*:           000053H   BYTE   INSEG    CODE           ?PR?IPS200PRO_CALENDAR_CREATE?ZF_DEVICE_IPS200PRO
   *DEL*:           000087H   BYTE   INSEG    CODE           ?PR?IPS200PRO_CALENDAR_DISPLAY?ZF_DEVICE_IPS200PRO
   *DEL*:           00005EH   BYTE   INSEG    CODE           ?PR?IPS200PRO_WAVEFORM_LINE_TYPE?ZF_DEVICE_IPS200PRO
   *DEL*:           000062H   BYTE   INSEG    CODE           ?PR?IPS200PRO_SET_HIDDEN?ZF_DEVICE_IPS200PRO
   *DEL*:           000095H   BYTE   INSEG    CODE           ?PR?IPS200PRO_CONTAINER_CREATE?ZF_DEVICE_IPS200PRO
   *DEL*:           0000E6H   BYTE   INSEG    CODE           ?PR?IPS200PRO_IMAGE_DRAW_LINE?ZF_DEVICE_IPS200PRO
   *DEL*:           000081H   BYTE   INSEG    CODE           ?PR?IPS200PRO_LABEL_SHOW_STRING?ZF_DEVICE_IPS200PRO
   *DEL*:           000053H   BYTE   INSEG    CODE           ?PR?IPS200PRO_SET_OPTIMIZE?ZF_DEVICE_IPS200PRO
   *DEL*:           000076H   BYTE   INSEG    CODE           ?PR?IPS200PRO_SET_POSITION?ZF_DEVICE_IPS200PRO
   *DEL*:           000055H   BYTE   INSEG    CODE           ?PR?IPS200PRO_SET_DEFAULT_FONT?ZF_DEVICE_IPS200PRO
   *DEL*:           000066H   BYTE   INSEG    CODE           ?PR?IPS200PRO_PAGE_SET_TITLE_POSITION_WIDTH?ZF_DEVICE_IPS2
                                                             -00PRO
   *DEL*:           0000C1H   BYTE   INSEG    CODE           ?PR?IPS200PRO_IMAGE_DRAW_RECTANGLE?ZF_DEVICE_IPS200PRO
   *DEL*:           0000EDH   BYTE   INSEG    CODE           ?PR?IPS200PRO_INIT?ZF_DEVICE_IPS200PRO
   *DEL*:           000072H   BYTE   INSEG    CODE           ?PR?IPS200PRO_CONTAINER_RADIUS?ZF_DEVICE_IPS200PRO
   *DEL*:           00006DH   BYTE   INSEG    CODE           ?PR?IPS200PRO_WAIT_IDLE?ZF_DEVICE_IPS200PRO
   *DEL*:           000055H   BYTE   INSEG    CODE           ?PR?IPS200PRO_SET_FORMAT?ZF_DEVICE_IPS200PRO
   *DEL*:           000067H   BYTE   INSEG    CODE           ?PR?IPS200PRO_SET_PARENT?ZF_DEVICE_IPS200PRO
   *DEL*:           000070H   BYTE   INSEG    CODE           ?PR?IPS200PRO_PROGRESS_BAR_SET_VALUE?ZF_DEVICE_IPS200PRO
   *DEL*:           00004AH   BYTE   INSEG    CODE           ?PR?IPS200PRO_GET_DATE?ZF_DEVICE_IPS200PRO
   *DEL*:           000095H   BYTE   INSEG    CODE           ?PR?IPS200PRO_WAVEFORM_CREATE?ZF_DEVICE_IPS200PRO
   *DEL*:           0000B6H   BYTE   INSEG    CODE           ?PR?IPS200PRO_READ_PARAMETER?ZF_DEVICE_IPS200PRO
   *DEL*:           0000A1H   BYTE   INSEG    CODE           ?PR?IPS200PRO_RECEIVE_BUFFER?ZF_DEVICE_IPS200PRO
   *DEL*:           000086H   BYTE   INSEG    CODE           ?PR?IPS200PRO_SET_DATE?ZF_DEVICE_IPS200PRO
   *DEL*:           000060H   BYTE   INSEG    CODE           ?PR?IPS200PRO_METER_SET_VALUE?ZF_DEVICE_IPS200PRO
   *DEL*:           000076H   BYTE   INSEG    CODE           ?PR?IPS200PRO_SET_COLOR?ZF_DEVICE_IPS200PRO
   *DEL*:           00005FH   BYTE   INSEG    CODE           ?PR?IPS200PRO_GET_INFORMATION?ZF_DEVICE_IPS200PRO
   *DEL*:           000052H   BYTE   INSEG    CODE           ?PR?IPS200PRO_DELETE_WIDGETS?ZF_DEVICE_IPS200PRO
   *DEL*:           00004CH   BYTE   INSEG    CODE           ?PR?IPS200PRO_GET_TIME?ZF_DEVICE_IPS200PRO
   *DEL*:           0000B5H   BYTE   INSEG    CODE           ?PR?IPS200PRO_CREATE_WIDGETS?ZF_DEVICE_IPS200PRO
   *DEL*:           00004EH   BYTE   INSEG    CODE           ?PR?IPS200PRO_WAVEFORM_CLEAR?ZF_DEVICE_IPS200PRO
   *DEL*:           00006FH   BYTE   INSEG    CODE           ?PR?IPS200PRO_PAGE_SET_TITLE_NAME?ZF_DEVICE_IPS200PRO
   *DEL*:           000095H   BYTE   INSEG    CODE           ?PR?IPS200PRO_LABEL_CREATE?ZF_DEVICE_IPS200PRO
   *DEL*:           000070H   BYTE   INSEG    CODE           ?PR?IPS200PRO_TABLE_SET_COL_WIDTH?ZF_DEVICE_IPS200PRO
   *DEL*:           000053H   BYTE   INSEG    CODE           ?PR?IPS200PRO_SET_BACKLIGHT?ZF_DEVICE_IPS200PRO
   *DEL*:           000095H   BYTE   INSEG    CODE           ?PR?IPS200PRO_IMAGE_CREATE?ZF_DEVICE_IPS200PRO
L251 LINKER/LOCATER V4.66.93.0                                                        05/01/2026  20:21:51  PAGE 18


   *DEL*:           00004DH   BYTE   INSEG    CODE           ?PR?IPS200PRO_GET_FREE_STACK_SIZE?ZF_DEVICE_IPS200PRO
   *DEL*:           000091H   BYTE   INSEG    CODE           ?PR?IPS200PRO_SET_TIME?ZF_DEVICE_IPS200PRO
   *DEL*:           0001BFH   BYTE   INSEG    CODE           ?PR?IPS200PRO_IMAGE_DISPLAY?ZF_DEVICE_IPS200PRO
   *DEL*:           000095H   BYTE   INSEG    CODE           ?PR?IPS200PRO_TABLE_CREATE?ZF_DEVICE_IPS200PRO
   *DEL*:           000095H   BYTE   INSEG    CODE           ?PR?IPS200PRO_CLOCK_CREATE?ZF_DEVICE_IPS200PRO
   *DEL*:           000064H   BYTE   INSEG    CODE           ?PR?IPS200PRO_SET_FONT?ZF_DEVICE_IPS200PRO
   *DEL*:           000176H   BYTE   INSEG    CODE           ?PR?TFT180_SET_REGION?ZF_DEVICE_TFT180
   *DEL*:           00036EH   BYTE   INSEG    CODE           ?PR?TFT180_INIT?ZF_DEVICE_TFT180
   *DEL*:           0001EBH   BYTE   INSEG    CODE           ?PR?TFT180_SHOW_FLOAT?ZF_DEVICE_TFT180
   *DEL*:           000083H   BYTE   INSEG    CODE           ?PR?TFT180_DRAW_POINT?ZF_DEVICE_TFT180
   *DEL*:           0000C4H   BYTE   INSEG    CODE           ?PR?TFT180_SHOW_STRING?ZF_DEVICE_TFT180
   *DEL*:           00011CH   BYTE   INSEG    CODE           ?PR?TFT180_SHOW_CHAR?ZF_DEVICE_TFT180
   *DEL*:           000119H   BYTE   INSEG    CODE           ?PR?TFT180_SHOW_UINT16?ZF_DEVICE_TFT180
   *DEL*:           000025H   BYTE   INSEG    CODE           ?PR?TFT180_SET_COLOR?ZF_DEVICE_TFT180
   *DEL*:           00015EH   BYTE   INSEG    CODE           ?PR?TFT180_SHOW_INT32?ZF_DEVICE_TFT180
   *DEL*:           00016DH   BYTE   INSEG    CODE           ?PR?TFT180_SHOW_INT16?ZF_DEVICE_TFT180
   *DEL*:           000214H   BYTE   INSEG    CODE           ?PR?TFT180_SHOW_WAVE?ZF_DEVICE_TFT180
   *DEL*:           00003BH   BYTE   INSEG    CODE           ?PR?TFT180_SET_DIR?ZF_DEVICE_TFT180
   *DEL*:           000079H   BYTE   INSEG    CODE           ?PR?TFT180_CLEAR?ZF_DEVICE_TFT180
   *DEL*:           0000E9H   BYTE   INSEG    CODE           ?PR?TFT180_SHOW_UINT8?ZF_DEVICE_TFT180
   *DEL*:           00012EH   BYTE   INSEG    CODE           ?PR?TFT180_SHOW_INT8?ZF_DEVICE_TFT180
   *DEL*:           000022H   BYTE   INSEG    CODE           ?PR?TFT180_WRITE_INDEX?ZF_DEVICE_TFT180
   *DEL*:           0000C0H   BYTE   INSEG    CODE           ?PR?TSL1401_SEND_DATA?ZF_DEVICE_TSL1401
   *DEL*:           00003DH   BYTE   INSEG    CODE           ?PR?TSL1401_INIT?ZF_DEVICE_TSL1401
   *DEL*:           0000BEH   BYTE   INSEG    CODE           ?PR?TSL1401_COLLECT_PIT_HANDLER?ZF_DEVICE_TSL1401
   *DEL*:           00002DH   BYTE   INSEG    CODE           ?PR?SET_TOF_TYPE?ZF_DEVICE_TYPE
   *DEL*:           00009FH   BYTE   INSEG    CODE           ?PR?SET_GPS_TYPE?ZF_DEVICE_TYPE
   *DEL*:           00006DH   BYTE   INSEG    CODE           ?PR?WIRELESS_UART_SEND_BYTE?ZF_DEVICE_WIRELESS_UART
   *DEL*:           0001ABH   BYTE   INSEG    CODE           ?PR?IMU_HANDLE_360?IMU
   *DEL*:           000113H   BYTE   INSEG    CODE           ?PR?IMU_HANDLE_180?IMU
   *DEL*:           0003D8H   BYTE   INSEG    CODE           ?PR?FIRST_COMPLEMENT_INIT?IMU
   *DEL*:           000037H   BYTE   INSEG    CODE           ?PR?IMU_HANDLE_0?IMU
   *DEL*:           000228H   BYTE   INSEG    CODE           ?PR?KALMANFILTER?IMU
   *DEL*:           000079H   BYTE   INSEG    CODE           ?PR?MAIN_LOOP?IMU
   *DEL*:           00000DH   BYTE   INSEG    CODE           ?PR?YAW_RESET?IMU
   *DEL*:           00000AH   BYTE   INSEG    CODE           ?PR?GYRO_PROC?IMU
   *DEL*:           000131H   BYTE   INSEG    CODE           ?PR?FAST_SQRT?IMU
   *DEL*:           000184H   BYTE   INSEG    CODE           ?PR?IMU_GETVALUES?IMU
   *DEL*:           000078H   BYTE   INSEG    CODE           ?PR?IMU_YAW_INTEGRAL?IMU
   *DEL*:           0004A1H   BYTE   INSEG    CODE           ?PR?SEEKFREE_ASSISTANT_CAMERA_BOUNDARY_CONFIG?SEEKFREE_ASS
                                                             -ISTANT
   *DEL*:           000142H   BYTE   INSEG    CODE           ?PR?SEEKFREE_ASSISTANT_CAMERA_DOT_SEND?SEEKFREE_ASSISTANT
   *DEL*:           0001A3H   BYTE   INSEG    CODE           ?PR?SEEKFREE_ASSISTANT_OSCILLOSCOPE_SEND?SEEKFREE_ASSISTAN
                                                             -T
   *DEL*:           00005AH   BYTE   INSEG    CODE           ?PR?SEEKFREE_ASSISTANT_SUM?SEEKFREE_ASSISTANT
   *DEL*:           000061H   BYTE   INSEG    CODE           ?PR?SEEKFREE_ASSISTANT_CAMERA_INFORMATION_CONFIG?SEEKFREE_
                                                             -ASSISTANT
   *DEL*:           0002B2H   BYTE   INSEG    CODE           ?PR?SEEKFREE_ASSISTANT_DATA_ANALYSIS?SEEKFREE_ASSISTANT
   *DEL*:           00015CH   BYTE   INSEG    CODE           ?PR?SEEKFREE_ASSISTANT_CAMERA_DATA_SEND?SEEKFREE_ASSISTANT
   *DEL*:           00004AH   BYTE   INSEG    CODE           ?PR?SEEKFREE_ASSISTANT_CAMERA_SEND?SEEKFREE_ASSISTANT
   *DEL*:           000059H   BYTE   INSEG    CODE           ?PR?SEEKFREE_ASSISTANT_INTERFACE_INIT?SEEKFREE_ASSISTANT_I
                                                             -NTERFACE
   *DEL*:           00006FH   BYTE   INSEG    CODE           ?PR?MOTOR_PROTECT?MOTO
   *DEL*:           000023H   BYTE   INSEG    CODE           ?PR?LED_SWITCH?LED
   *DEL*:           000012H   BYTE   INSEG    CODE           ?PR?LED_OFF?LED
   *DEL*:           000011H   BYTE   INSEG    CODE           ?PR?LED_ON?LED
   *DEL*:           000049H   BYTE   INSEG    CODE           ?PR?RANGE_PROTECT_INT?INDUCTANCE
   *DEL*:           000095H   BYTE   INSEG    CODE           ?PR?MENU_INIT?MENU
   *DEL*:           0000CAH   BYTE   INSEG    CODE           ?PR?OSCILLOSCOPE_DISPLAY?MENU
   *DEL*:           0000FBH   BYTE   INSEG    CODE           ?PR?MENU_DISPLAY?MENU
   *DEL*:           000111H   BYTE   INSEG    CODE           ?PR?PARAMETER_DEBUG?MENU
   *DEL*:           0000F2H   BYTE   INSEG    CODE           ?PR?POW?_?POW
   *DEL*:           000037H   BYTE   INSEG    CODE           ?PR?STRNCMP?_?STRNCMP
   *DEL*:           000030H   BYTE   INSEG    CODE           ?PR?STRNCPY?_?STRNCPY
   *DEL*:           00001FH   BYTE   INSEG    CODE           ?PR?STRCHR?_?STRCHR
L251 LINKER/LOCATER V4.66.93.0                                                        05/01/2026  20:21:51  PAGE 19


   *DEL*:           00001AH   BYTE   INSEG    CODE           ?PR?MEMSET?_?MEMSET



OVERLAY MAP OF MODULE:   .\out_file\SEEKFREE (?C_START)


FUNCTION/MODULE                               XDATA_GROUP
--> CALLED FUNCTION/MODULE                    START  STOP
=========================================================
?C_C51STARTUP                                 ----- -----

*** NEW ROOT ********************************

?C_C51STARTUP?3                               ----- -----
  +--> main/main

main/main                                     ----- -----
  +--> _m/main
  +--> SPRINTF/SPRINTF

_m/main                                       ----- -----
  +--> clock_init/zf_common_clock
  +--> debug_init/zf_common_debug
  +--> ALL_init/all_init
  +--> PID_Init/trank
  +--> gpio_init/zf_driver_gpio
  +--> system_delay_ms/zf_driver_delay
  +--> system_delay_us/zf_driver_delay
  +--> Element_Control/element

clock_init/zf_common_clock                    ----- -----
  +--> set_sys_clk/zf_common_clock
  +--> system_delay_init/zf_driver_delay
  +--> interrupt_global_enable/zf_common_interrupt

set_sys_clk/zf_common_clock                   ----- -----

system_delay_init/zf_driver_delay             ----- -----
  +--> ?C?SLDIV/?C?SLDIV

?C?SLDIV/?C?SLDIV                             ----- -----
  +--> ?C?ULIDIV/?C?ULDIV

?C?ULIDIV/?C?ULDIV                            ----- -----

interrupt_global_enable/zf_common_interr+     ----- -----
... upt

debug_init/zf_common_debug                    ----- -----
  +--> uart_init/zf_driver_uart
  +--> fifo_init/zf_common_fifo
  +--> uart_rx_interrupt/zf_driver_uart
  +--> debug_interrupr_handler/zf_common_debug

uart_init/zf_driver_uart                      ----- -----
  +--> uart_funciton_check/zf_driver_uart
  +--> debug_assert_handler/zf_common_debug
  +--> timer_funciton_check/zf_driver_timer
  +--> gpio_init/zf_driver_gpio
  +--> ?C?ULIDIV/?C?ULDIV
  +--> uart_dma_init/zf_driver_uart

uart_funciton_check/zf_driver_uart            ----- -----

L251 LINKER/LOCATER V4.66.93.0                                                        05/01/2026  20:21:51  PAGE 20


debug_assert_handler/zf_common_debug          ----- -----
  +--> PRINTF/PRINTF
  +--> system_delay_ms/zf_driver_delay

PRINTF/PRINTF                                 11B4H 11DBH
  +--> OUT/PRINTF

OUT/PRINTF                                    ----- -----
  +--> PUTCH/PRINTF

PUTCH/PRINTF                                  ----- -----
  +--> putchar/zf_common_debug
  +--> OUT/PRINTF

putchar/zf_common_debug                       ----- -----
  +--> uart_write_byte/zf_driver_uart

uart_write_byte/zf_driver_uart                ----- -----
  +--> uart_write_buffer/zf_driver_uart

uart_write_buffer/zf_driver_uart              ----- -----
  +--> memcpy?_/memcpy

memcpy?_/memcpy                               ----- -----

system_delay_ms/zf_driver_delay               ----- -----
  +--> delay_cycles/zf_driver_delay

delay_cycles/zf_driver_delay                  ----- -----

timer_funciton_check/zf_driver_timer          ----- -----

gpio_init/zf_driver_gpio                      ----- -----
  +--> debug_assert_handler/zf_common_debug
  +--> gpio_set_dir/zf_driver_gpio
  +--> gpio_set_mode/zf_driver_gpio
  +--> gpio_set_impedance/zf_driver_gpio
  +--> gpio_set_level/zf_driver_gpio

gpio_set_dir/zf_driver_gpio                   ----- -----
  +--> debug_assert_handler/zf_common_debug

gpio_set_mode/zf_driver_gpio                  ----- -----

gpio_set_impedance/zf_driver_gpio             ----- -----

gpio_set_level/zf_driver_gpio                 ----- -----

uart_dma_init/zf_driver_uart                  ----- -----

fifo_init/zf_common_fifo                      ----- -----
  +--> debug_assert_handler/zf_common_debug

uart_rx_interrupt/zf_driver_uart              ----- -----

debug_interrupr_handler/zf_common_debug       ----- -----
  +--> uart_query_byte/zf_driver_uart
  +--> fifo_write_buffer/zf_common_fifo

uart_query_byte/zf_driver_uart                ----- -----
  +--> uart_rx_start_buff/zf_driver_uart

uart_rx_start_buff/zf_driver_uart             ----- -----

fifo_write_buffer/zf_common_fifo              ----- -----
L251 LINKER/LOCATER V4.66.93.0                                                        05/01/2026  20:21:51  PAGE 21


  +--> debug_assert_handler/zf_common_debug
  +--> memcpy?_/memcpy
  +--> fifo_head_offset/zf_common_fifo

fifo_head_offset/zf_common_fifo               ----- -----

ALL_init/all_init                             ----- -----
  +--> interrupt_global_disable/zf_common_interrupt
  +--> imu660ra_init/zf_device_imu660ra
  +--> gyro_init/imu
  +--> pwm_init/zf_driver_pwm
  +--> gpio_init/zf_driver_gpio
  +--> ips114_init/zf_device_ips114
  +--> wireless_uart_init/zf_device_wireless_uart
  +--> encoder_init/encoder
  +--> LED_Init/led
  +--> Oscilloscope_Init/menu
  +--> Parameter_Debug_Init/menu
  +--> Inductance_Init/inductance
  +--> interrupt_global_enable/zf_common_interrupt

interrupt_global_disable/zf_common_inter+     ----- -----
... rupt

imu660ra_init/zf_device_imu660ra              ----- -----
  +--> system_delay_ms/zf_driver_delay
  +--> imu660ra_read_register/zf_device_imu660ra
  +--> imu660ra_self_check/zf_device_imu660ra
  +--> PRINTF/PRINTF
  +--> imu660ra_write_register/zf_device_imu660ra
  +--> imu660ra_write_registers/zf_device_imu660ra

imu660ra_read_register/zf_device_imu660r+     ----- -----
... a
  +--> imu660ra_simspi_r_reg_bytes/zf_device_imu660ra

imu660ra_simspi_r_reg_bytes/zf_device_im+     ----- -----
... u660ra
  +--> imu660ra_simspi_wr_byte/zf_device_imu660ra

imu660ra_simspi_wr_byte/zf_device_imu660+     ----- -----
... ra

imu660ra_self_check/zf_device_imu660ra        ----- -----
  +--> imu660ra_read_register/zf_device_imu660ra
  +--> PRINTF/PRINTF
  +--> system_delay_ms/zf_driver_delay

imu660ra_write_register/zf_device_imu660+     ----- -----
... ra
  +--> imu660ra_simspi_w_reg_byte/zf_device_imu660ra

imu660ra_simspi_w_reg_byte/zf_device_imu+     ----- -----
... 660ra
  +--> imu660ra_simspi_wr_byte/zf_device_imu660ra

imu660ra_write_registers/zf_device_imu66+     ----- -----
... 0ra
  +--> imu660ra_simspi_w_reg_bytes/zf_device_imu660ra

imu660ra_simspi_w_reg_bytes/zf_device_im+     ----- -----
... u660ra
  +--> imu660ra_simspi_wr_byte/zf_device_imu660ra

gyro_init/imu                                 ----- -----
L251 LINKER/LOCATER V4.66.93.0                                                        05/01/2026  20:21:51  PAGE 22


  +--> IMU_gyro_Offset_Init/imu
  +--> KalmanCreate/imu

IMU_gyro_Offset_Init/imu                      ----- -----
  +--> system_delay_ms/zf_driver_delay

KalmanCreate/imu                              ----- -----

pwm_init/zf_driver_pwm                        ----- -----
  +--> debug_assert_handler/zf_common_debug
  +--> gpio_init/zf_driver_gpio
  +--> ?C?ULIDIV/?C?ULDIV

ips114_init/zf_device_ips114                  ----- -----
  +--> debug_assert_handler/zf_common_debug
  +--> spi_init/zf_driver_spi
  +--> ips114_set_dir/zf_device_ips114
  +--> ips114_set_color/zf_device_ips114
  +--> system_delay_ms/zf_driver_delay
  +--> ips114_write_index/zf_device_ips114
  +--> spi_write_8bit/zf_driver_spi
  +--> ips114_clear/zf_device_ips114

spi_init/zf_driver_spi                        ----- -----
  +--> debug_assert_handler/zf_common_debug
  +--> gpio_init/zf_driver_gpio
  +--> gpio_set_level_speed/zf_driver_gpio
  +--> ?C?ULIDIV/?C?ULDIV
  +--> uart_funciton_check/zf_driver_uart

gpio_set_level_speed/zf_driver_gpio           ----- -----

ips114_set_dir/zf_device_ips114               ----- -----

ips114_set_color/zf_device_ips114             ----- -----

ips114_write_index/zf_device_ips114           ----- -----
  +--> spi_write_8bit/zf_driver_spi

spi_write_8bit/zf_driver_spi                  ----- -----
  +--> spi_write_dat/zf_driver_spi

spi_write_dat/zf_driver_spi                   ----- -----
  +--> debug_assert_handler/zf_common_debug

ips114_clear/zf_device_ips114                 ----- -----
  +--> ips114_set_region/zf_device_ips114
  +--> spi_write_16bit/zf_driver_spi

ips114_set_region/zf_device_ips114            ----- -----
  +--> debug_assert_handler/zf_common_debug
  +--> ips114_write_index/zf_device_ips114
  +--> spi_write_16bit/zf_driver_spi

spi_write_16bit/zf_driver_spi                 ----- -----
  +--> spi_write_dat/zf_driver_spi

wireless_uart_init/zf_device_wireless_ua+     ----- -----
... rt
  +--> wireless_uart_callback/zf_device_wireless_uart
  +--> set_wireless_type/zf_device_type
  +--> fifo_init/zf_common_fifo
  +--> gpio_init/zf_driver_gpio
  +--> uart_init/zf_driver_uart
  +--> uart_rx_interrupt/zf_driver_uart
L251 LINKER/LOCATER V4.66.93.0                                                        05/01/2026  20:21:51  PAGE 23



wireless_uart_callback/zf_device_wireles+     ----- -----
... s_uart
  +--> fifo_write_buffer/zf_common_fifo

set_wireless_type/zf_device_type              ----- -----

encoder_init/encoder                          ----- -----
  +--> pit_handler/encoder
  +--> pit_handler4/encoder
  +--> ?C?SLDIV/?C?SLDIV
  +--> pit_init/zf_driver_pit
  +--> encoder_dir_init/zf_driver_encoder

pit_handler/encoder                           ----- -----
  +--> Inductance_Read/inductance
  +--> Inductance_Count_Err/inductance
  +--> Dir_Control/trank
  +--> Calculate_Differential_Drive/trank

Inductance_Read/inductance                    ----- -----
  +--> adc_convert/zf_driver_adc
  +--> Median_Average_Filter/inductance
  +--> ADC_Normalize_0_100/inductance

adc_convert/zf_driver_adc                     ----- -----

Median_Average_Filter/inductance              ----- -----

ADC_Normalize_0_100/inductance                ----- -----

Inductance_Count_Err/inductance               ----- -----
  +--> My_abs/imu
  +--> range_protect_float/inductance

My_abs/imu                                    ----- -----

range_protect_float/inductance                ----- -----

Dir_Control/trank                             ----- -----
  +--> PID_Calc/trank
  +--> range_protect_float/inductance

PID_Calc/trank                                ----- -----
  +--> My_abs/imu

Calculate_Differential_Drive/trank            ----- -----
  +--> range_protect_float/inductance

pit_handler4/encoder                          ----- -----
  +--> Dual_Loop_Control/trank

Dual_Loop_Control/trank                       ----- -----
  +--> encoder_get_count/zf_driver_encoder
  +--> encoder_clear_count/zf_driver_encoder
  +--> IncPID_Calc/trank
  +--> Motor_SetSpeed/moto

encoder_get_count/zf_driver_encoder           ----- -----
  +--> gpio_get_level/zf_driver_gpio

gpio_get_level/zf_driver_gpio                 ----- -----

encoder_clear_count/zf_driver_encoder         ----- -----

L251 LINKER/LOCATER V4.66.93.0                                                        05/01/2026  20:21:51  PAGE 24


IncPID_Calc/trank                             ----- -----

Motor_SetSpeed/moto                           ----- -----
  +--> gpio_set_level/zf_driver_gpio
  +--> ABS/moto
  +--> pwm_set_duty/zf_driver_pwm

ABS/moto                                      ----- -----

pwm_set_duty/zf_driver_pwm                    ----- -----
  +--> debug_assert_handler/zf_common_debug

pit_init/zf_driver_pit                        ----- -----
  +--> ?C?ULIDIV/?C?ULDIV

encoder_dir_init/zf_driver_encoder            ----- -----
  +--> timer_funciton_check/zf_driver_timer
  +--> debug_assert_handler/zf_common_debug
  +--> gpio_init/zf_driver_gpio

LED_Init/led                                  ----- -----
  +--> gpio_init/zf_driver_gpio

Oscilloscope_Init/menu                        ----- -----
  +--> wireless_uart_send_buffer/zf_device_wireless_uart

wireless_uart_send_buffer/zf_device_wire+     ----- -----
... less_uart
  +--> debug_assert_handler/zf_common_debug
  +--> gpio_get_level/zf_driver_gpio
  +--> uart_write_buffer/zf_driver_uart
  +--> system_delay_ms/zf_driver_delay

Parameter_Debug_Init/menu                     ----- -----
  +--> wireless_uart_read_buffer/zf_device_wireless_uart
  +--> seekfree_assistant_init/seekfree_assistant

wireless_uart_read_buffer/zf_device_wire+     ----- -----
... less_uart
  +--> debug_assert_handler/zf_common_debug
  +--> fifo_read_buffer/zf_common_fifo

fifo_read_buffer/zf_common_fifo               ----- -----
  +--> debug_assert_handler/zf_common_debug
  +--> fifo_used/zf_common_fifo
  +--> memcpy?_/memcpy
  +--> fifo_end_offset/zf_common_fifo

fifo_used/zf_common_fifo                      ----- -----
  +--> debug_assert_handler/zf_common_debug

fifo_end_offset/zf_common_fifo                ----- -----

seekfree_assistant_init/seekfree_assista+     ----- -----
... nt
  +--> fifo_init/zf_common_fifo

Inductance_Init/inductance                    ----- -----
  +--> adc_init/zf_driver_adc

adc_init/zf_driver_adc                        ----- -----

PID_Init/trank                                ----- -----

system_delay_us/zf_driver_delay               ----- -----
L251 LINKER/LOCATER V4.66.93.0                                                        05/01/2026  20:21:51  PAGE 25


  +--> delay_cycles/zf_driver_delay

Element_Control/element                       ----- -----
  +--> Send_Data_To_PC/menu

Send_Data_To_PC/menu                          ----- -----
  +--> SPRINTF/SPRINTF
  +--> wireless_uart_send_string/zf_device_wireless_uart

SPRINTF/SPRINTF                               11B4H 11DBH
  +--> OUT/SPRINTF

OUT/SPRINTF                                   ----- -----
  +--> PUTCH/SPRINTF

PUTCH/SPRINTF                                 ----- -----

wireless_uart_send_string/zf_device_wire+     ----- -----
... less_uart
  +--> strlen?_/STRLEN
  +--> debug_assert_handler/zf_common_debug
  +--> wireless_uart_send_buffer/zf_device_wireless_uart

strlen?_/STRLEN                               ----- -----

*** NEW ROOT ********************************

INT0_IRQHandler/isr                           ----- -----

*** NEW ROOT ********************************

INT1_IRQHandler/isr                           ----- -----

*** NEW ROOT ********************************

INT2_IRQHandler/isr                           ----- -----

*** NEW ROOT ********************************

INT3_IRQHandler/isr                           ----- -----

*** NEW ROOT ********************************

INT4_IRQHandler/isr                           ----- -----

*** NEW ROOT ********************************

DMA_UART1_IRQHandler/isr                      ----- -----
  +--> uart_rx_start_buff/zf_driver_uart

*** NEW ROOT ********************************

DMA_UART2_IRQHandler/isr                      ----- -----
  +--> uart_rx_start_buff/zf_driver_uart

*** NEW ROOT ********************************

DMA_UART3_IRQHandler/isr                      ----- -----
  +--> uart_rx_start_buff/zf_driver_uart

*** NEW ROOT ********************************

DMA_UART4_IRQHandler/isr                      ----- -----
  +--> uart_rx_start_buff/zf_driver_uart

L251 LINKER/LOCATER V4.66.93.0                                                        05/01/2026  20:21:51  PAGE 26


*** NEW ROOT ********************************

TM0_IRQHandler/isr                            ----- -----

*** NEW ROOT ********************************

TM1_IRQHandler/isr                            ----- -----

*** NEW ROOT ********************************

TM2_IRQHandler/isr                            ----- -----

*** NEW ROOT ********************************

TM3_IRQHandler/isr                            ----- -----

*** NEW ROOT ********************************

TM4_IRQHandler/isr                            ----- -----

*** NEW ROOT ********************************

?C_C51STARTUP?2                               ----- -----



PUBLIC SYMBOLS OF MODULE:  .\out_file\SEEKFREE (?C_START)


      VALUE       CLASS    TYPE      PUBLIC SYMBOL NAME
      =================================================
      00FF304AH   CODE     ---       ?C?BMOVEPP
      00FF3048H   CODE     ---       ?C?BMOVEPP8
      00FF243EH   CODE     NEAR LAB  ?C?CASTF
      000000FFH   NUMBER   ---       ?C?CODESEG
      00FF240BH   CODE     NEAR LAB  ?C?FCASTC
      00FF2406H   CODE     NEAR LAB  ?C?FCASTI
      00FF2401H   CODE     NEAR LAB  ?C?FCASTL
      00FF2C4BH   CODE     ---       ?C?FP2SERIES
      00FF21D4H   CODE     ---       ?C?FPADD
      00FF23AFH   CODE     ---       ?C?FPCMP
      00FF23ADH   CODE     ---       ?C?FPCMP3
      00FF2E13H   CODE     ---       ?C?FPCONVERT
      00FF232CH   CODE     ---       ?C?FPDIV
      00FF27A1H   CODE     ---       ?C?FPGETOPN2
      00FF228CH   CODE     ---       ?C?FPMUL
      00FF27DEH   CODE     ---       ?C?FPNANRESULT
      00FF23F3H   CODE     ---       ?C?FPNEG
      00FF27E6H   CODE     ---       ?C?FPOVERFLOW
      00FF27BAH   CODE     ---       ?C?FPRESULT
      00FF27D0H   CODE     ---       ?C?FPRESULT2
      00FF2ECBH   CODE     ---       ?C?FPROUND
      00FF2C54H   CODE     ---       ?C?FPSERIES
      00FF21D1H   CODE     ---       ?C?FPSUB
      00FF27E3H   CODE     ---       ?C?FPUNDERFLOW
      00FF2F3EH   CODE     ---       ?C?FTNPWR
      00FF9E2EH   CODE     ---       ?C?INITHDATA
      00FFAA83H   HCONST   WORD      ?C?INITHDATA_END
      00FF2FB8H   CODE     ---       ?C?LIMUL
      00FF2FA7H   CODE     ---       ?C?LMUL
      00FF283CH   CODE     ---       ?C?PRNFMT
      00FF2F75H   CODE     ---       ?C?SIDIV
      00FF3014H   CODE     NEAR LAB  ?C?SLDIV
      00FF0000H   CODE     ---       ?C?STARTUP
      00FF2FC3H   CODE     NEAR LAB  ?C?ULDIV
L251 LINKER/LOCATER V4.66.93.0                                                        05/01/2026  20:21:51  PAGE 27


      00FF2FC1H   CODE     NEAR LAB  ?C?ULIDIV
      00000001H   NUMBER   ---       ?C?XDATASEG
      00FF0000H   CODE     ---       ?C_STARTUP
      00011B27H   XDATA    BYTE      ?eeprom_read?BYTE
      0001176CH   XDATA    BYTE      ?fifo_init?BYTE
      00011424H   XDATA    BYTE      ?fifo_read_buffer?BYTE
      000115C1H   XDATA    BYTE      ?fifo_write_buffer?BYTE
      00011339H   XDATA    BYTE      ?get_two_points_azimuth?BYTE
      00010F9AH   XDATA    BYTE      ?get_two_points_distance?BYTE
      00011AEBH   XDATA    BYTE      ?iap_read_buff?BYTE
      00011AF5H   XDATA    BYTE      ?iap_write_buff?BYTE
      000113D9H   XDATA    BYTE      ?ips114_show_chinese?BYTE
      00010FCAH   XDATA    BYTE      ?ips114_show_float?BYTE
      00011223H   XDATA    BYTE      ?ips114_show_wave?BYTE
      000113F2H   XDATA    BYTE      ?ips200_show_chinese?BYTE
      00010FFAH   XDATA    BYTE      ?ips200_show_float?BYTE
      00011243H   XDATA    BYTE      ?ips200_show_wave?BYTE
      00011371H   XDATA    BYTE      ?ips200pro_create_widgets?BYTE
      0001118CH   XDATA    BYTE      ?ips200pro_image_display?BYTE
      000113A6H   XDATA    BYTE      ?ips200pro_image_draw_line?BYTE
      00011201H   XDATA    BYTE      ?ips200pro_image_draw_rectangle?BYTE
      00010F0FH   XDATA    BYTE      ?ips200pro_label_printf?BYTE
      000118A5H   XDATA    BYTE      ?ips200pro_receive_buffer?BYTE
      000117F8H   XDATA    BYTE      ?ips200pro_send_buffer?BYTE
      00010ECAH   XDATA    BYTE      ?ips200pro_table_cell_printf?BYTE
      0001138CH   XDATA    BYTE      ?ips200pro_waveform_add_value?BYTE
      000112A2H   XDATA    BYTE      ?ips200pro_write_packet?BYTE
      00011A4DH   XDATA    BYTE      ?KalmanCreate?BYTE
      0001146CH   XDATA    BYTE      ?Oscilloscope_Display?BYTE
      0001140BH   XDATA    BYTE      ?Parameter_Debug?BYTE
      00011A71H   XDATA    BYTE      ?PID_Calc?BYTE
      00011355H   XDATA    BYTE      ?PID_Init?BYTE
      000111DCH   XDATA    ---       ?printf?BYTE
      000115D3H   XDATA    BYTE      ?pwm_init?BYTE
      000114D6H   XDATA    BYTE      ?pwm_set_freq?BYTE
      00011A7DH   XDATA    BYTE      ?range_protect_float?BYTE
      000112C1H   XDATA    BYTE      ?seekfree_assistant_camera_boundary_config?BYTE
      0001175DH   XDATA    BYTE      ?seekfree_assistant_camera_data_send?BYTE
      00011B59H   XDATA    BYTE      ?seekfree_assistant_camera_information_config?BYTE
      00011857H   XDATA    BYTE      ?soft_iic_init?BYTE
      000118FDH   XDATA    BYTE      ?soft_iic_read_16bit_array?BYTE
      000117A4H   XDATA    BYTE      ?soft_iic_read_16bit_registers?BYTE
      000118F1H   XDATA    BYTE      ?soft_iic_read_8bit_array?BYTE
      0001184AH   XDATA    BYTE      ?soft_iic_read_8bit_registers?BYTE
      000114FEH   XDATA    BYTE      ?soft_iic_transfer_16bit_array?BYTE
      000114EAH   XDATA    BYTE      ?soft_iic_transfer_8bit_array?BYTE
      000118E5H   XDATA    BYTE      ?soft_iic_write_16bit_array?BYTE
      00011796H   XDATA    BYTE      ?soft_iic_write_16bit_registers?BYTE
      000118D9H   XDATA    BYTE      ?soft_iic_write_8bit_array?BYTE
      0001183DH   XDATA    BYTE      ?soft_iic_write_8bit_registers?BYTE
      00011484H   XDATA    BYTE      ?soft_spi_init?BYTE
      0001192DH   XDATA    BYTE      ?soft_spi_read_16bit_array?BYTE
      000117C0H   XDATA    BYTE      ?soft_spi_read_16bit_registers?BYTE
      00011921H   XDATA    BYTE      ?soft_spi_read_8bit_array?BYTE
      00011871H   XDATA    BYTE      ?soft_spi_read_8bit_registers?BYTE
      000116C3H   XDATA    BYTE      ?soft_spi_transfer_16bit?BYTE
      000116B3H   XDATA    BYTE      ?soft_spi_transfer_8bit?BYTE
      00011915H   XDATA    BYTE      ?soft_spi_write_16bit_array?BYTE
      000117B2H   XDATA    BYTE      ?soft_spi_write_16bit_registers?BYTE
      00011909H   XDATA    BYTE      ?soft_spi_write_8bit_array?BYTE
      00011864H   XDATA    BYTE      ?soft_spi_write_8bit_registers?BYTE
      00011512H   XDATA    BYTE      ?spi_init?BYTE
      00011B1DH   XDATA    BYTE      ?spi_read_16bit_array?BYTE
      00011945H   XDATA    BYTE      ?spi_read_16bit_registers?BYTE
      00011B13H   XDATA    BYTE      ?spi_read_8bit_array?BYTE
L251 LINKER/LOCATER V4.66.93.0                                                        05/01/2026  20:21:51  PAGE 28


      00011AB5H   XDATA    BYTE      ?spi_read_8bit_registers?BYTE
      000117DCH   XDATA    BYTE      ?spi_transfer_16bit?BYTE
      000117CEH   XDATA    BYTE      ?spi_transfer_8bit?BYTE
      00011B09H   XDATA    BYTE      ?spi_write_16bit_array?BYTE
      00011939H   XDATA    BYTE      ?spi_write_16bit_registers?BYTE
      00011AFFH   XDATA    BYTE      ?spi_write_8bit_array?BYTE
      00011AAAH   XDATA    BYTE      ?spi_write_8bit_registers?BYTE
      000111DCH   XDATA    ---       ?sprintf?BYTE
      0001102AH   XDATA    BYTE      ?tft180_show_float?BYTE
      00011263H   XDATA    BYTE      ?tft180_show_wave?BYTE
      00011969H   XDATA    BYTE      ?uart_init?BYTE
      00010DB8H   XDATA    BYTE      ?vsnprintf?BYTE
      00010C7AH   XDATA    BYTE      ?zf_sprintf?BYTE
      00FF27F2H   CODE     ---       _chkfloat_?_
      00FF77B2H   CODE     ---       _m
      00FFA362H   CODE     ---       ABS
*SFR* 000000D0H.6 DATA     BIT       AC
*SFR* 000000E0H   DATA     BYTE      ACC
      00011A5BH   XDATA    ---       ADC
      00011A8AH   XDATA    ---       adc_average
*DEL*:00000000H   CODE     ---       ADC_Collect
*SFR* 000000BCH   DATA     BYTE      ADC_CONTR
      00FF9A62H   CODE     ---       adc_convert
      00011A65H   XDATA    ---       adc_inductance
      00FF8933H   CODE     ---       adc_init
*DEL*:00000000H   CODE     ---       adc_mean_filter_convert
      00FF922DH   CODE     ---       ADC_Normalize_0_100
*SFR* 000000BDH   DATA     BYTE      ADC_RES
*SFR* 000000BEH   DATA     BYTE      ADC_RESL
*SFR* 000000DEH   DATA     BYTE      ADCCFG
      00FF9843H   CODE     ---       ALL_init
      00FF36B4H   CODE     ---       ascii_font_8x16
      00FF2781H   CODE     ---       asin?_
      00FF26AFH   CODE     ---       atan?_
*SFR* 000000EFH   DATA     BYTE      AUXINTIF
*SFR* 0000008EH   DATA     BYTE      AUXR
*SFR* 00000097H   DATA     BYTE      AUXR2
*SFR* 000000F0H   DATA     BYTE      B
*DEL*:00000000H   CODE     ---       ble6a20_callback
*DEL*:00000000H   CODE     ---       ble6a20_init
*DEL*:00000000H   CODE     ---       ble6a20_read_buffer
*DEL*:00000000H   CODE     ---       ble6a20_send_buffer
*DEL*:00000000H   CODE     ---       ble6a20_send_byte
*DEL*:00000000H   CODE     ---       ble6a20_send_string
*SFR* 000000C8H.1 DATA     BIT       C_T2
      00FF791FH   CODE     ---       Calculate_Differential_Drive
*SFR* 000000F1H   DATA     BYTE      CANICR
*SFR* 000000FAH   DATA     BYTE      CCAP0H
*SFR* 000000EAH   DATA     BYTE      CCAP0L
*SFR* 000000FBH   DATA     BYTE      CCAP1H
*SFR* 000000EBH   DATA     BYTE      CCAP1L
*SFR* 000000FCH   DATA     BYTE      CCAP2H
*SFR* 000000ECH   DATA     BYTE      CCAP2L
*SFR* 000000FDH   DATA     BYTE      CCAP3H
*SFR* 000000EDH   DATA     BYTE      CCAP3L
*SFR* 000000FEH   DATA     BYTE      CCAP4H
*SFR* 000000EEH   DATA     BYTE      CCAP4L
*SFR* 000000DAH   DATA     BYTE      CCAPM0
*SFR* 000000DBH   DATA     BYTE      CCAPM1
*SFR* 000000DCH   DATA     BYTE      CCAPM2
*SFR* 000000DDH   DATA     BYTE      CCAPM3
*SFR* 000000DEH   DATA     BYTE      CCAPM4
*SFR* 000000D8H.0 DATA     BIT       CCF0
*SFR* 000000D8H.1 DATA     BIT       CCF1
*SFR* 000000D8H.2 DATA     BIT       CCF2
L251 LINKER/LOCATER V4.66.93.0                                                        05/01/2026  20:21:51  PAGE 29


*SFR* 000000D8H.3 DATA     BIT       CCF3
*SFR* 000000D8H.4 DATA     BIT       CCF4
*SFR* 000000D8H   DATA     BYTE      CCON
*SFR* 00000090H.3 DATA     BIT       CEX0
*SFR* 00000090H.4 DATA     BIT       CEX1
*SFR* 00000090H.5 DATA     BIT       CEX2
*SFR* 00000090H.6 DATA     BIT       CEX3
*SFR* 00000090H.7 DATA     BIT       CEX4
*SFR* 000000D8H.7 DATA     BIT       CF
*SFR* 000000F9H   DATA     BYTE      CH
*SFR* 000000EAH   DATA     BYTE      CKCON
*SFR* 000000E9H   DATA     BYTE      CL
      00FF954EH   CODE     ---       clock_init
*SFR* 000000D9H   DATA     BYTE      CMOD
*SFR* 000000E6H   DATA     BYTE      CMPCR1
*SFR* 000000E7H   DATA     BYTE      CMPCR2
      00FF259FH   CODE     ---       cos?_
*SFR* 000000C8H.0 DATA     BIT       CP_RL2
*SFR* 000000D8H.6 DATA     BIT       CR
*SFR* 000000D0H.7 DATA     BIT       CY
      00010A40H   XDATA    ---       data_buffer
      00010926H   XDATA    FLOAT     Daty_X
      0001092AH   XDATA    FLOAT     Daty_Y
      0001092EH   XDATA    FLOAT     Daty_Z
      00FF9752H   CODE     ---       debug_assert_handler
      00FF8C29H   CODE     ---       debug_init
      00FFA183H   CODE     ---       debug_interrupr_handler
*DEL*:00000000H   CODE     ---       debug_read_buffer
*DEL*:00000000H   CODE     ---       debug_send_buffer
      00010CB1H   XDATA    ---       debug_uart_buffer
      00010CF2H   XDATA    ---       debug_uart_fifo
      00FF9447H   CODE     ---       Dir_Control
      00011887H   XDATA    WORD      dl1a_distance_mm
      00011889H   XDATA    BYTE      dl1a_finsh_flag
*DEL*:00000000H   CODE     ---       dl1a_get_distance
*DEL*:00000000H   CODE     ---       dl1a_init
*DEL*:00000000H   CODE     ---       dl1a_int_handler
      00011894H   XDATA    WORD      dl1b_distance_mm
      00011896H   XDATA    BYTE      dl1b_finsh_flag
*DEL*:00000000H   CODE     ---       dl1b_get_distance
*DEL*:00000000H   CODE     ---       dl1b_init
*DEL*:00000000H   CODE     ---       dl1b_int_handler
      00FF8B79H   CODE     ---       DMA_UART1_IRQHandler
      00FF8FF5H   CODE     ---       DMA_UART2_IRQHandler
      00FF9084H   CODE     ---       DMA_UART3_IRQHandler
      00FF9113H   CODE     ---       DMA_UART4_IRQHandler
*SFR* 00000083H   DATA     BYTE      DPH
*SFR* 00000082H   DATA     BYTE      DPL
*SFR* 00000084H   DATA     BYTE      DPXL
      00FF92B6H   CODE     ---       Dual_Loop_Control
*SFR* 000000A8H.7 DATA     BIT       EA
*SFR* 000000BAH.7 DATA     BIT       EAXFR
*SFR* 000000A8H.6 DATA     BIT       EC
*SFR* 00000090H.2 DATA     BIT       ECI
*DEL*:00000000H   CODE     ---       eeprom_init
*DEL*:00000000H   CODE     ---       eeprom_read
*DEL*:00000000H   CODE     ---       eeprom_read_value
*DEL*:00000000H   CODE     ---       eeprom_trig
*DEL*:00000000H   CODE     ---       eeprom_write_value
      00FF7E39H   CODE     ---       Element_Control
      0001083BH   XDATA    FLOAT     elemid
      00010711H   XDATA    FLOAT     eleOut_0
      00010715H   XDATA    FLOAT     eleOut_1
      00010769H   XDATA    FLOAT     eleValue
      00FF9AC7H   CODE     ---       encoder_clear_count
L251 LINKER/LOCATER V4.66.93.0                                                        05/01/2026  20:21:51  PAGE 30


      00FF82A0H   CODE     ---       encoder_dir_init
      00FF83ADH   CODE     ---       encoder_get_count
      00FF9924H   CODE     ---       encoder_init
*SFR* 000000A8H.4 DATA     BIT       ES
*SFR* 000000A8H.1 DATA     BIT       ET0
*SFR* 000000A8H.3 DATA     BIT       ET1
*SFR* 000000A8H.5 DATA     BIT       ET2
*SFR* 000000A8H.0 DATA     BIT       EX0
*SFR* 000000A8H.2 DATA     BIT       EX1
*SFR* 0000008FH.4 DATA     BIT       EX2
*SFR* 0000008FH.5 DATA     BIT       EX3
*SFR* 0000008FH.6 DATA     BIT       EX4
*SFR* 000000C8H.3 DATA     BIT       EXEN2
*SFR* 000000C8H.6 DATA     BIT       EXF2
      00FF2CB1H   CODE     ---       exp?_
*DEL*:00000000H   CODE     ---       extern_iap_write_buff
*DEL*:00000000H   CODE     ---       exti_all_close
*DEL*:00000000H   CODE     ---       exti_disable
*DEL*:00000000H   CODE     ---       exti_enable
*DEL*:00000000H   CODE     ---       exti_init
*SFR* 000000D0H.5 DATA     BIT       F0
*DEL*:00000000H   CODE     ---       fast_sqrt
*SFR* 00000098H.7 DATA     BIT       FE
*DEL*:00000000H   CODE     ---       fifo_clear
      00FF8692H   CODE     ---       fifo_init
      00FF3CA4H   CODE     ---       fifo_read_buffer
      00FF9D5CH   CODE     ---       fifo_used
      00FF4255H   CODE     ---       fifo_write_buffer
      000108FAH   XDATA    ---       first_complement
*DEL*:00000000H   CODE     ---       First_complement_Init
*DEL*:00000000H   CODE     ---       func_double_to_str
*DEL*:00000000H   CODE     ---       func_float_to_str
*DEL*:00000000H   CODE     ---       func_get_greatest_common_divisor
*DEL*:00000000H   CODE     ---       func_hex_to_str
*DEL*:00000000H   CODE     ---       func_int_to_str
*DEL*:00000000H   CODE     ---       func_soft_delay
*DEL*:00000000H   CODE     ---       func_str_to_double
*DEL*:00000000H   CODE     ---       func_str_to_float
*DEL*:00000000H   CODE     ---       func_str_to_hex
*DEL*:00000000H   CODE     ---       func_str_to_int
*DEL*:00000000H   CODE     ---       func_str_to_uint
*DEL*:00000000H   CODE     ---       func_uint_to_str
*DEL*:00000000H   CODE     ---       get_two_points_azimuth
*DEL*:00000000H   CODE     ---       get_two_points_distance
      00FF7A7AH   CODE     ---       gpio_get_level
      00FF8191H   CODE     ---       gpio_init
      00FF72BFH   CODE     ---       gpio_set_impedance
      00FF6733H   CODE     ---       gpio_set_level
      00FF525AH   CODE     ---       gpio_set_level_speed
*DEL*:00000000H   CODE     ---       gpio_toggle_level
*DEL*:00000000H   CODE     ---       gps_data_parse
      000105D0H   XDATA    INT       gps_gga_state
*DEL*:00000000H   CODE     ---       gps_init
      000105D2H   XDATA    INT       gps_rmc_state
      000104A4H   XDATA    ---       gps_tau1201
      00010423H   XDATA    BYTE      gps_tau1201_flag
      00011D2DH   XDATA    INT       gps_type
*DEL*:00000000H   CODE     ---       gps_uart_callback
      00010960H   XDATA    ---       gyro_buffer
      00FF9EB5H   CODE     ---       gyro_init
      00010942H   XDATA    ---       Gyro_Offset
      000108AAH   XDATA    FLOAT     gyro_Offset_flag
      000107B3H   XDATA    ---       Gyro_PID
*DEL*:00000000H   CODE     ---       gyro_proc
      000107B1H   XDATA    INT       Gyro_Z
L251 LINKER/LOCATER V4.66.93.0                                                        05/01/2026  20:21:51  PAGE 31


      000108EEH   XDATA    FLOAT     gyrox
      000108F2H   XDATA    FLOAT     gyroy
      000108F6H   XDATA    FLOAT     gyroz
*SFR* 000000F6H   DATA     BYTE      IAP_ADDRE
*SFR* 000000C3H   DATA     BYTE      IAP_ADDRH
*SFR* 000000C4H   DATA     BYTE      IAP_ADDRL
*SFR* 000000C5H   DATA     BYTE      IAP_CMD
*SFR* 000000C7H   DATA     BYTE      IAP_CONTR
*SFR* 000000C2H   DATA     BYTE      IAP_DATA
*DEL*:00000000H   CODE     ---       iap_erase_page
*DEL*:00000000H   CODE     ---       iap_get_cmd_state
*DEL*:00000000H   CODE     ---       iap_idle
*DEL*:00000000H   CODE     ---       iap_init
*DEL*:00000000H   CODE     ---       iap_read_buff
*DEL*:00000000H   CODE     ---       iap_read_byte
*DEL*:00000000H   CODE     ---       iap_set_tps
*SFR* 000000F5H   DATA     BYTE      IAP_TPS
*SFR* 000000C6H   DATA     BYTE      IAP_TRIG
*DEL*:00000000H   CODE     ---       iap_write_buff
*DEL*:00000000H   CODE     ---       iap_write_byte
      00011526H   XDATA    INT       icm20602_acc_x
      00011528H   XDATA    INT       icm20602_acc_y
      0001152AH   XDATA    INT       icm20602_acc_z
*DEL*:00000000H   CODE     ---       icm20602_get_acc
*DEL*:00000000H   CODE     ---       icm20602_get_gyro
      0001152CH   XDATA    INT       icm20602_gyro_x
      0001152EH   XDATA    INT       icm20602_gyro_y
      00011530H   XDATA    INT       icm20602_gyro_z
*DEL*:00000000H   CODE     ---       icm20602_init
      00011532H   XDATA    ---       icm20602_transition_factor
*SFR* 000000A8H   DATA     BYTE      IE
*SFR* 000000A8H   DATA     BYTE      IE0
*SFR* 00000088H.1 DATA     BIT       IE0_
*SFR* 000000B1H   DATA     BYTE      IE1
*SFR* 00000088H.3 DATA     BIT       IE1_
*SFR* 000000AFH   DATA     BYTE      IE2
      0001153AH   XDATA    INT       imu660ra_acc_x
      0001153CH   XDATA    INT       imu660ra_acc_y
      0001153EH   XDATA    INT       imu660ra_acc_z
      00FF01CEH   CODE     ---       imu660ra_config_file
*DEL*:00000000H   CODE     ---       imu660ra_get_acc
*DEL*:00000000H   CODE     ---       imu660ra_get_gyro
      00011540H   XDATA    INT       imu660ra_gyro_x
      00011542H   XDATA    INT       imu660ra_gyro_y
      00011544H   XDATA    INT       imu660ra_gyro_z
      00FF6B59H   CODE     ---       imu660ra_init
      00011546H   XDATA    ---       imu660ra_transition_factor
*DEL*:00000000H   CODE     ---       imu660rb_acc_transition
      000119BDH   XDATA    INT       imu660rb_acc_x
      000119BFH   XDATA    INT       imu660rb_acc_y
      000119C1H   XDATA    INT       imu660rb_acc_z
*DEL*:00000000H   CODE     ---       imu660rb_get_acc
*DEL*:00000000H   CODE     ---       imu660rb_get_gyro
*DEL*:00000000H   CODE     ---       imu660rb_gyro_transition
      000119C3H   XDATA    INT       imu660rb_gyro_x
      000119C5H   XDATA    INT       imu660rb_gyro_y
      000119C7H   XDATA    INT       imu660rb_gyro_z
*DEL*:00000000H   CODE     ---       imu660rb_init
      000112FEH   XDATA    INT       imu963ra_acc_x
      00011300H   XDATA    INT       imu963ra_acc_y
      00011302H   XDATA    INT       imu963ra_acc_z
*DEL*:00000000H   CODE     ---       imu963ra_get_acc
*DEL*:00000000H   CODE     ---       imu963ra_get_gyro
*DEL*:00000000H   CODE     ---       imu963ra_get_mag
      0001130AH   XDATA    INT       imu963ra_gyro_x
L251 LINKER/LOCATER V4.66.93.0                                                        05/01/2026  20:21:51  PAGE 32


      0001130CH   XDATA    INT       imu963ra_gyro_y
      0001130EH   XDATA    INT       imu963ra_gyro_z
*DEL*:00000000H   CODE     ---       imu963ra_init
      00011304H   XDATA    INT       imu963ra_mag_x
      00011306H   XDATA    INT       imu963ra_mag_y
      00011308H   XDATA    INT       imu963ra_mag_z
      00011310H   XDATA    ---       imu963ra_transition_factor
      00011A6FH   XDATA    WORD      imu_cnt
      0001090EH   XDATA    ---       IMU_Data
*DEL*:00000000H   CODE     ---       IMU_GetValues
      00FF7F62H   CODE     ---       IMU_gyro_Offset_Init
*DEL*:00000000H   CODE     ---       IMU_Handle_0
*DEL*:00000000H   CODE     ---       IMU_Handle_180
*DEL*:00000000H   CODE     ---       IMU_Handle_360
*DEL*:00000000H   CODE     ---       IMU_YAW_integral
      00FF650DH   CODE     ---       IncPID_Calc
      00FF85A4H   CODE     ---       Inductance_Count_Err
      00010F26H   XDATA    ---       inductance_filter_data
      00FFA41EH   CODE     ---       Inductance_Init
      00010F30H   XDATA    ---       inductance_init_data
      00FF7614H   CODE     ---       Inductance_Read
      00011FAAH   XDATA    ---       init_buff
*SFR* 000000B0H.2 DATA     BIT       INT0
      000112ECH   XDATA    ---       int0_irq_handler
      00FF9F03H   CODE     ---       INT0_IRQHandler
*SFR* 000000B0H.3 DATA     BIT       INT1
      000112F0H   XDATA    ---       int1_irq_handler
      00FF9F43H   CODE     ---       INT1_IRQHandler
      000112F4H   XDATA    ---       int2_irq_handler
      00FF9F83H   CODE     ---       INT2_IRQHandler
      000112F8H   XDATA    ---       int3_irq_handler
      00FF9FC3H   CODE     ---       INT3_IRQHandler
      000112FCH   XDATA    ---       int4_irq_handler
      00FFA003H   CODE     ---       INT4_IRQHandler
*SFR* 0000008FH   DATA     BYTE      INTCLKO
      00FF0006H   CODE     ---       interrupt_global_disable
      00FF000EH   CODE     ---       interrupt_global_enable
*DEL*:00000000H   CODE     ---       interrupt_set_priority
*SFR* 000000B8H   DATA     BYTE      IP
*SFR* 000000B5H   DATA     BYTE      IP2
*SFR* 000000B6H   DATA     BYTE      IP2H
*SFR* 000000DFH   DATA     BYTE      IP3
*SFR* 000000EEH   DATA     BYTE      IP3H
*SFR* 000000B7H   DATA     BYTE      IPH
*SFR* 000000B7H   DATA     BYTE      IPH0
*SFR* 000000B8H   DATA     BYTE      IPL0
      00011CE1H   XDATA    WORD      ips114_bgcolor
      00FF933EH   CODE     ---       ips114_clear
      00011CE3H   XDATA    INT       ips114_display_dir
*DEL*:00000000H   CODE     ---       ips114_draw_point
      00FF5B46H   CODE     ---       ips114_init
      00011CDFH   XDATA    WORD      ips114_pencolor
      00FFA3F9H   CODE     ---       ips114_set_color
      00FFA236H   CODE     ---       ips114_set_dir
*DEL*:00000000H   CODE     ---       ips114_show_char
*DEL*:00000000H   CODE     ---       ips114_show_chinese
*DEL*:00000000H   CODE     ---       ips114_show_float
*DEL*:00000000H   CODE     ---       ips114_show_int16
*DEL*:00000000H   CODE     ---       ips114_show_int32
*DEL*:00000000H   CODE     ---       ips114_show_int8
*DEL*:00000000H   CODE     ---       ips114_show_string
*DEL*:00000000H   CODE     ---       ips114_show_uint16
*DEL*:00000000H   CODE     ---       ips114_show_uint8
*DEL*:00000000H   CODE     ---       ips114_show_wave
      00011CE5H   XDATA    BYTE      ips114_x_max
L251 LINKER/LOCATER V4.66.93.0                                                        05/01/2026  20:21:51  PAGE 33


      00011CE6H   XDATA    BYTE      ips114_y_max
      00011B3DH   XDATA    WORD      ips200_bgcolor
*DEL*:00000000H   CODE     ---       ips200_clear
      00011B3FH   XDATA    INT       ips200_display_dir
*DEL*:00000000H   CODE     ---       ips200_draw_point
*DEL*:00000000H   CODE     ---       ips200_init
      00011B3BH   XDATA    WORD      ips200_pencolor
*DEL*:00000000H   CODE     ---       ips200_set_color
*DEL*:00000000H   CODE     ---       ips200_set_dir
*DEL*:00000000H   CODE     ---       ips200_show_char
*DEL*:00000000H   CODE     ---       ips200_show_chinese
*DEL*:00000000H   CODE     ---       ips200_show_float
*DEL*:00000000H   CODE     ---       ips200_show_int16
*DEL*:00000000H   CODE     ---       ips200_show_int32
*DEL*:00000000H   CODE     ---       ips200_show_int8
*DEL*:00000000H   CODE     ---       ips200_show_string
*DEL*:00000000H   CODE     ---       ips200_show_uint16
*DEL*:00000000H   CODE     ---       ips200_show_uint8
*DEL*:00000000H   CODE     ---       ips200_show_wave
      00011B41H   XDATA    WORD      ips200_x_max
      00011B43H   XDATA    WORD      ips200_y_max
*DEL*:00000000H   CODE     ---       ips200pro_calendar_create
*DEL*:00000000H   CODE     ---       ips200pro_calendar_display
*DEL*:00000000H   CODE     ---       ips200pro_clock_create
*DEL*:00000000H   CODE     ---       ips200pro_container_create
*DEL*:00000000H   CODE     ---       ips200pro_container_radius
*DEL*:00000000H   CODE     ---       ips200pro_create_widgets
*DEL*:00000000H   CODE     ---       ips200pro_delete_widgets
*DEL*:00000000H   CODE     ---       ips200pro_get_date
*DEL*:00000000H   CODE     ---       ips200pro_get_free_stack_size
*DEL*:00000000H   CODE     ---       ips200pro_get_information
*DEL*:00000000H   CODE     ---       ips200pro_get_time
*DEL*:00000000H   CODE     ---       ips200pro_image_create
*DEL*:00000000H   CODE     ---       ips200pro_image_display
*DEL*:00000000H   CODE     ---       ips200pro_image_draw_line
*DEL*:00000000H   CODE     ---       ips200pro_image_draw_rectangle
      00010E3EH   XDATA    ---       ips200pro_information
*DEL*:00000000H   CODE     ---       ips200pro_init
*DEL*:00000000H   CODE     ---       ips200pro_label_create
*DEL*:00000000H   CODE     ---       ips200pro_label_mode
*DEL*:00000000H   CODE     ---       ips200pro_label_printf
*DEL*:00000000H   CODE     ---       ips200pro_label_show_string
*DEL*:00000000H   CODE     ---       ips200pro_meter_create
*DEL*:00000000H   CODE     ---       ips200pro_meter_set_value
*DEL*:00000000H   CODE     ---       ips200pro_page_create
*DEL*:00000000H   CODE     ---       ips200pro_page_hidden
*DEL*:00000000H   CODE     ---       ips200pro_page_set_title_name
*DEL*:00000000H   CODE     ---       ips200pro_page_set_title_position_width
*DEL*:00000000H   CODE     ---       ips200pro_page_switch
*DEL*:00000000H   CODE     ---       ips200pro_progress_bar_create
*DEL*:00000000H   CODE     ---       ips200pro_progress_bar_set_value
*DEL*:00000000H   CODE     ---       ips200pro_read_parameter
*DEL*:00000000H   CODE     ---       ips200pro_receive_buffer
*DEL*:00000000H   CODE     ---       ips200pro_send_buffer
*DEL*:00000000H   CODE     ---       ips200pro_set_backlight
*DEL*:00000000H   CODE     ---       ips200pro_set_color
*DEL*:00000000H   CODE     ---       ips200pro_set_crc_state
*DEL*:00000000H   CODE     ---       ips200pro_set_date
*DEL*:00000000H   CODE     ---       ips200pro_set_default_font
*DEL*:00000000H   CODE     ---       ips200pro_set_direction
*DEL*:00000000H   CODE     ---       ips200pro_set_font
*DEL*:00000000H   CODE     ---       ips200pro_set_format
*DEL*:00000000H   CODE     ---       ips200pro_set_hidden
*DEL*:00000000H   CODE     ---       ips200pro_set_optimize
*DEL*:00000000H   CODE     ---       ips200pro_set_parent
L251 LINKER/LOCATER V4.66.93.0                                                        05/01/2026  20:21:51  PAGE 34


*DEL*:00000000H   CODE     ---       ips200pro_set_position
*DEL*:00000000H   CODE     ---       ips200pro_set_time
*DEL*:00000000H   CODE     ---       ips200pro_table_cell_printf
*DEL*:00000000H   CODE     ---       ips200pro_table_create
*DEL*:00000000H   CODE     ---       ips200pro_table_select
*DEL*:00000000H   CODE     ---       ips200pro_table_set_col_width
      00010E47H   XDATA    ---       ips200pro_time
*DEL*:00000000H   CODE     ---       ips200pro_waveform_add_value
*DEL*:00000000H   CODE     ---       ips200pro_waveform_clear
*DEL*:00000000H   CODE     ---       ips200pro_waveform_create
*DEL*:00000000H   CODE     ---       ips200pro_waveform_line_state
*DEL*:00000000H   CODE     ---       ips200pro_waveform_line_type
*DEL*:00000000H   CODE     ---       ips200pro_write_packet
*SFR* 0000009DH   DATA     BYTE      IRCBAND
*SFR* 0000009FH   DATA     BYTE      IRTRIM
*SFR* 00000088H.0 DATA     BIT       IT0
*SFR* 00000088H.2 DATA     BIT       IT1
      00010849H   XDATA    ---       Kalman1
      00010879H   XDATA    ---       Kalman2
      00FF84B6H   CODE     ---       KalmanCreate
*DEL*:00000000H   CODE     ---       KalmanFilter
      00FFA468H   CODE     ---       LED_Init
*DEL*:00000000H   CODE     ---       LED_Off
*DEL*:00000000H   CODE     ---       LED_On
*DEL*:00000000H   CODE     ---       LED_Switch
      0001076DH   XDATA    ---       left_spid
*SFR* 000000F9H   DATA     BYTE      LINICR
      00FF2D40H   CODE     NEAR LAB  log?_
      00FFA30EH   CODE     ---       MAIN
*DEL*:00000000H   CODE     ---       main_loop
      00010936H   XDATA    FLOAT     Max_Delta_Pitch
      0001094EH   XDATA    FLOAT     Max_Delta_Roll
      00FF7D02H   CODE     ---       Median_Average_Filter
      00FFA443H   CODE     ---       memcpy?_
*DEL*:00000000H   CODE     ---       memset?_
*DEL*:00000000H   CODE     ---       Menu_Display
*DEL*:00000000H   CODE     ---       Menu_Init
*DEL*:00000000H   CODE     ---       Motor_Protect
      00FF91A2H   CODE     ---       Motor_SetSpeed
      00FFA2ABH   CODE     ---       My_abs
      00011E5FH   XDATA    FLOAT     Nowangel
*DEL*:00000000H   CODE     ---       Oscilloscope_Display
      00FF0046H   CODE     ---       Oscilloscope_Init
*SFR* 000000D0H.2 DATA     BIT       OV
*SFR* 000000D0H.0 DATA     BIT       P
*SFR* 00000080H   DATA     BYTE      P0
*SFR* 00000094H   DATA     BYTE      P0M0
*SFR* 00000093H   DATA     BYTE      P0M1
*SFR* 00000090H   DATA     BYTE      P1
*SFR* 00000092H   DATA     BYTE      P1M0
*SFR* 00000091H   DATA     BYTE      P1M1
*SFR* 000000A0H   DATA     BYTE      P2
*SFR* 000000A0H.0 DATA     BIT       P20
*SFR* 000000A0H.1 DATA     BIT       P21
*SFR* 000000A0H.2 DATA     BIT       P22
*SFR* 00000096H   DATA     BYTE      P2M0
*SFR* 00000095H   DATA     BYTE      P2M1
*SFR* 000000B0H   DATA     BYTE      P3
*SFR* 000000B2H   DATA     BYTE      P3M0
*SFR* 000000B1H   DATA     BYTE      P3M1
*SFR* 000000C0H   DATA     BYTE      P4
*SFR* 000000C0H.0 DATA     BIT       P40
*SFR* 000000C0H.1 DATA     BIT       P41
*SFR* 000000C0H.2 DATA     BIT       P42
*SFR* 000000C0H.3 DATA     BIT       P43
L251 LINKER/LOCATER V4.66.93.0                                                        05/01/2026  20:21:51  PAGE 35


*SFR* 000000B4H   DATA     BYTE      P4M0
*SFR* 000000B3H   DATA     BYTE      P4M1
*SFR* 000000C8H   DATA     BYTE      P5
*SFR* 000000CAH   DATA     BYTE      P5M0
*SFR* 000000C9H   DATA     BYTE      P5M1
*SFR* 000000E8H   DATA     BYTE      P6
*SFR* 000000CCH   DATA     BYTE      P6M0
*SFR* 000000CBH   DATA     BYTE      P6M1
*SFR* 000000F8H   DATA     BYTE      P7
*SFR* 000000F8H.7 DATA     BIT       P77
*SFR* 000000E2H   DATA     BYTE      P7M0
*SFR* 000000E1H   DATA     BYTE      P7M1
*SFR* 000000A2H   DATA     BYTE      P_SW1
*SFR* 000000BAH   DATA     BYTE      P_SW2
*SFR* 000000BBH   DATA     BYTE      P_SW3
*DEL*:00000000H   CODE     ---       Parameter_Debug
      00FFA51BH   CODE     ---       Parameter_Debug_Init
*SFR* 00000087H   DATA     BYTE      PCON
      00FF62D0H   CODE     ---       PID_Calc
      00FF70F7H   CODE     ---       PID_Init
      00FF9CA6H   CODE     ---       pit_handler
      00FF9D02H   CODE     ---       pit_handler4
      00FF5E08H   CODE     ---       pit_init
      000108AEH   XDATA    FLOAT     pitch
      00010845H   XDATA    FLOAT     Pitch_Max
      00010841H   XDATA    FLOAT     Pitch_Min
*DEL*:00000000H   CODE     ---       pow?_
*SFR* 000000B8H.6 DATA     BIT       PPC
      00FF247BH   CODE     NEAR LAB  printf
*SFR* 000000B8H.4 DATA     BIT       PS
*SFR* 000000D0H   DATA     BYTE      PSW
*SFR* 000000D1H   DATA     BYTE      PSW1
*SFR* 000000B8H.1 DATA     BIT       PT0
*SFR* 000000B8H.3 DATA     BIT       PT1
*SFR* 000000B8H.5 DATA     BIT       PT2
      00FFA509H   CODE     ---       putchar
      00FFB0C3H   HCONST   ---       PWM_ARR_ADDR
      00FFB0CBH   HCONST   ---       PWM_CCER_ADDR
      00FFB0DBH   HCONST   ---       PWM_CCMR_ADDR
      00FFB0A3H   HCONST   ---       PWM_CCR_ADDR
      00FF3071H   CODE     ---       pwm_init
      00FFB09BH   HCONST   ---       PWM_PSCR_ADDR
      00FF6F23H   CODE     ---       pwm_set_duty
*DEL*:00000000H   CODE     ---       pwm_set_freq
*SFR* 000000B8H.0 DATA     BIT       PX0
*SFR* 000000B8H.2 DATA     BIT       PX1
      00FF9993H   CODE     ---       range_protect_float
*DEL*:00000000H   CODE     ---       range_protect_int
*SFR* 00000098H.2 DATA     BIT       RB8
*SFR* 000000CBH   DATA     BYTE      RCAP2H
*SFR* 000000CAH   DATA     BYTE      RCAP2L
*SFR* 000000C8H.5 DATA     BIT       RCLK
*SFR* 000000B0H.7 DATA     BIT       RD
*SFR* 00000098H.4 DATA     BIT       REN
*SFR* 00000098H.0 DATA     BIT       RI
      00010725H   XDATA    ---       right_spid
      000108EAH   XDATA    FLOAT     roll
      000108E6H   XDATA    FLOAT     Roll_Max
      000108B2H   XDATA    FLOAT     Roll_Min
      000108A9H   XDATA    CHAR      Round
*SFR* 000000D0H.3 DATA     BIT       RS0
*SFR* 000000D0H.4 DATA     BIT       RS1
*SFR* 000000FFH   DATA     BYTE      RSTCFG
*SFR* 000000B0H.0 DATA     BIT       RXD
*SFR* 0000009BH   DATA     BYTE      S2BUF
L251 LINKER/LOCATER V4.66.93.0                                                        05/01/2026  20:21:51  PAGE 36


*SFR* 0000009AH   DATA     BYTE      S2CON
*SFR* 0000009AH.1 DATA     BIT       S2TI
*SFR* 000000ACH   DATA     BYTE      S3CON
*SFR* 000000FDH   DATA     BYTE      S4CON
*SFR* 000000A9H   DATA     BYTE      SADDR
*SFR* 000000B9H   DATA     BYTE      SADEN
*SFR* 00000099H   DATA     BYTE      SBUF
*SFR* 00000098H   DATA     BYTE      SCON
*DEL*:00000000H   CODE     ---       seekfree_assistant_camera_boundary_config
*DEL*:00000000H   CODE     ---       seekfree_assistant_camera_data_send
*DEL*:00000000H   CODE     ---       seekfree_assistant_camera_dot_send
*DEL*:00000000H   CODE     ---       seekfree_assistant_camera_information_config
*DEL*:00000000H   CODE     ---       seekfree_assistant_camera_send
*DEL*:00000000H   CODE     ---       seekfree_assistant_data_analysis
      00FFA2E0H   CODE     ---       seekfree_assistant_init
*DEL*:00000000H   CODE     ---       seekfree_assistant_interface_init
      000105DCH   XDATA    ---       seekfree_assistant_oscilloscope_data
*DEL*:00000000H   CODE     ---       seekfree_assistant_oscilloscope_send
      0001061FH   XDATA    ---       seekfree_assistant_parameter
      00010617H   XDATA    ---       seekfree_assistant_parameter_update_flag
      00011F5EH   XDATA    ---       seekfree_assistant_receive_callback
      00011F60H   XDATA    ---       seekfree_assistant_transfer_callback
      000109C0H   XDATA    ---       send_buf
      00FF94CBH   CODE     ---       Send_Data_To_PC
*DEL*:00000000H   CODE     ---       set_gps_type
      00FF6948H   CODE     ---       set_sys_clk
*DEL*:00000000H   CODE     ---       set_tof_type
      00FF8F56H   CODE     ---       set_wireless_type
      00FF25BCH   CODE     ---       sin?_
*SFR* 00000098H.7 DATA     BIT       SM0
*SFR* 00000098H.6 DATA     BIT       SM1
*SFR* 00000098H.5 DATA     BIT       SM2
      00FFA1BFH   CODE     ---       soft_iic_delay
*DEL*:00000000H   CODE     ---       soft_iic_init
*DEL*:00000000H   CODE     ---       soft_iic_read_16bit
*DEL*:00000000H   CODE     ---       soft_iic_read_16bit_array
*DEL*:00000000H   CODE     ---       soft_iic_read_16bit_register
*DEL*:00000000H   CODE     ---       soft_iic_read_16bit_registers
*DEL*:00000000H   CODE     ---       soft_iic_read_8bit
*DEL*:00000000H   CODE     ---       soft_iic_read_8bit_array
*DEL*:00000000H   CODE     ---       soft_iic_read_8bit_register
*DEL*:00000000H   CODE     ---       soft_iic_read_8bit_registers
      00FF7BC0H   CODE     ---       soft_iic_read_data
*DEL*:00000000H   CODE     ---       soft_iic_sccb_read_register
*DEL*:00000000H   CODE     ---       soft_iic_sccb_write_register
      00FF8858H   CODE     ---       soft_iic_send_ack
      00FF00A6H   CODE     ---       soft_iic_send_data
      00FF8CD0H   CODE     ---       soft_iic_start
      00FF8ABAH   CODE     ---       soft_iic_stop
*DEL*:00000000H   CODE     ---       soft_iic_transfer_16bit_array
*DEL*:00000000H   CODE     ---       soft_iic_transfer_8bit_array
      00FF8775H   CODE     ---       soft_iic_wait_ack
*DEL*:00000000H   CODE     ---       soft_iic_write_16bit
*DEL*:00000000H   CODE     ---       soft_iic_write_16bit_array
*DEL*:00000000H   CODE     ---       soft_iic_write_16bit_register
*DEL*:00000000H   CODE     ---       soft_iic_write_16bit_registers
*DEL*:00000000H   CODE     ---       soft_iic_write_8bit
*DEL*:00000000H   CODE     ---       soft_iic_write_8bit_array
*DEL*:00000000H   CODE     ---       soft_iic_write_8bit_register
*DEL*:00000000H   CODE     ---       soft_iic_write_8bit_registers
*DEL*:00000000H   CODE     ---       soft_spi_delay
*DEL*:00000000H   CODE     ---       soft_spi_init
*DEL*:00000000H   CODE     ---       soft_spi_read_16bit
*DEL*:00000000H   CODE     ---       soft_spi_read_16bit_array
*DEL*:00000000H   CODE     ---       soft_spi_read_16bit_register
L251 LINKER/LOCATER V4.66.93.0                                                        05/01/2026  20:21:51  PAGE 37


*DEL*:00000000H   CODE     ---       soft_spi_read_16bit_registers
*DEL*:00000000H   CODE     ---       soft_spi_read_8bit
*DEL*:00000000H   CODE     ---       soft_spi_read_8bit_array
*DEL*:00000000H   CODE     ---       soft_spi_read_8bit_register
*DEL*:00000000H   CODE     ---       soft_spi_read_8bit_registers
*DEL*:00000000H   CODE     ---       soft_spi_transfer_16bit
*DEL*:00000000H   CODE     ---       soft_spi_transfer_8bit
*DEL*:00000000H   CODE     ---       soft_spi_write_16bit
*DEL*:00000000H   CODE     ---       soft_spi_write_16bit_array
*DEL*:00000000H   CODE     ---       soft_spi_write_16bit_register
*DEL*:00000000H   CODE     ---       soft_spi_write_16bit_registers
*DEL*:00000000H   CODE     ---       soft_spi_write_8bit
*DEL*:00000000H   CODE     ---       soft_spi_write_8bit_array
*DEL*:00000000H   CODE     ---       soft_spi_write_8bit_register
*DEL*:00000000H   CODE     ---       soft_spi_write_8bit_registers
*SFR* 00000081H   DATA     BYTE      SP
*SFR* 000000CEH   DATA     BYTE      SPCTL
*SFR* 000000CFH   DATA     BYTE      SPDAT
      00010721H   XDATA    LONG      speed_left
      00010719H   XDATA    LONG      speed_right
*SFR* 000000BEH   DATA     BYTE      SPH
      00FF4D81H   CODE     ---       spi_init
*DEL*:00000000H   CODE     ---       spi_read_16bit
*DEL*:00000000H   CODE     ---       spi_read_16bit_array
*DEL*:00000000H   CODE     ---       spi_read_16bit_register
*DEL*:00000000H   CODE     ---       spi_read_16bit_registers
*DEL*:00000000H   CODE     ---       spi_read_8bit
*DEL*:00000000H   CODE     ---       spi_read_8bit_array
*DEL*:00000000H   CODE     ---       spi_read_8bit_register
*DEL*:00000000H   CODE     ---       spi_read_8bit_registers
      00FF97CBH   CODE     ---       spi_read_dat
*DEL*:00000000H   CODE     ---       spi_transfer_16bit
*DEL*:00000000H   CODE     ---       spi_transfer_8bit
      00FFA1FBH   CODE     ---       spi_write_16bit
*DEL*:00000000H   CODE     ---       spi_write_16bit_array
*DEL*:00000000H   CODE     ---       spi_write_16bit_register
*DEL*:00000000H   CODE     ---       spi_write_16bit_registers
      00FF0066H   CODE     ---       spi_write_8bit
*DEL*:00000000H   CODE     ---       spi_write_8bit_array
*DEL*:00000000H   CODE     ---       spi_write_8bit_register
*DEL*:00000000H   CODE     ---       spi_write_8bit_registers
      00FF9BEEH   CODE     ---       spi_write_dat
      00FF24A7H   CODE     NEAR LAB  sprintf
*SFR* 000000CDH   DATA     BYTE      SPSTAT
      00FF24C7H   CODE     ---       sqrt?_
      00011A59H   XDATA    WORD      state
*DEL*:00000000H   CODE     ---       strchr?_
      00FFA529H   CODE     ---       strlen?_
*DEL*:00000000H   CODE     ---       strncmp?_
*DEL*:00000000H   CODE     ---       strncpy?_
      00011ECEH   XDATA    LONG      system_clock
      00FF9DB5H   CODE     ---       system_delay_init
      00FFA3AFH   CODE     ---       system_delay_ms
      00FFA3D4H   CODE     ---       system_delay_us
*SFR* 000000B0H.4 DATA     BIT       T0
*SFR* 000000B0H.5 DATA     BIT       T1
*SFR* 00000090H.0 DATA     BIT       T2
*SFR* 000000C8H   DATA     BYTE      T2CON
*SFR* 00000090H.1 DATA     BIT       T2EX
*SFR* 000000D6H   DATA     BYTE      T2H
*SFR* 000000D7H   DATA     BYTE      T2L
*SFR* 000000C9H   DATA     BYTE      T2MOD
*SFR* 000000D4H   DATA     BYTE      T3H
*SFR* 000000D5H   DATA     BYTE      T3L
*SFR* 000000D2H   DATA     BYTE      T4H
L251 LINKER/LOCATER V4.66.93.0                                                        05/01/2026  20:21:51  PAGE 38


*SFR* 000000D3H   DATA     BYTE      T4L
*SFR* 000000DDH   DATA     BYTE      T4T3M
      00FF25E9H   CODE     ---       TAN?_
*SFR* 00000098H.3 DATA     BIT       TB8
*SFR* 000000C8H.4 DATA     BIT       TCLK
*SFR* 00000088H   DATA     BYTE      TCON
*SFR* 00000088H.5 DATA     BIT       TF0
*SFR* 00000088H.7 DATA     BIT       TF1
*SFR* 000000C8H.7 DATA     BIT       TF2
      00011D11H   XDATA    WORD      tft180_bgcolor
*DEL*:00000000H   CODE     ---       tft180_clear
      00011D13H   XDATA    INT       tft180_display_dir
*DEL*:00000000H   CODE     ---       tft180_draw_point
*DEL*:00000000H   CODE     ---       tft180_init
      00011D0FH   XDATA    WORD      tft180_pencolor
*DEL*:00000000H   CODE     ---       tft180_set_color
*DEL*:00000000H   CODE     ---       tft180_set_dir
*DEL*:00000000H   CODE     ---       tft180_show_char
*DEL*:00000000H   CODE     ---       tft180_show_float
*DEL*:00000000H   CODE     ---       tft180_show_int16
*DEL*:00000000H   CODE     ---       tft180_show_int32
*DEL*:00000000H   CODE     ---       tft180_show_int8
*DEL*:00000000H   CODE     ---       tft180_show_string
*DEL*:00000000H   CODE     ---       tft180_show_uint16
*DEL*:00000000H   CODE     ---       tft180_show_uint8
*DEL*:00000000H   CODE     ---       tft180_show_wave
      00011D15H   XDATA    BYTE      tft180_x_max
      00011D16H   XDATA    BYTE      tft180_y_max
*SFR* 0000008CH   DATA     BYTE      TH0
*SFR* 0000008DH   DATA     BYTE      TH1
*SFR* 000000CDH   DATA     BYTE      TH2
*SFR* 00000098H.1 DATA     BIT       TI
      000112EAH   XDATA    ---       tim0_irq_handler
      000112E0H   XDATA    ---       tim11_irq_handler
      000112EEH   XDATA    ---       tim1_irq_handler
      000112F2H   XDATA    ---       tim2_irq_handler
      000112F6H   XDATA    ---       tim3_irq_handler
      000112FAH   XDATA    ---       tim4_irq_handler
      00FF95CFH   CODE     ---       timer_funciton_check
*SFR* 0000008AH   DATA     BYTE      TL0
*SFR* 0000008BH   DATA     BYTE      TL1
*SFR* 000000CCH   DATA     BYTE      TL2
      00FFA043H   CODE     ---       TM0_IRQHandler
      00FFA083H   CODE     ---       TM1_IRQHandler
      00FFA0C3H   CODE     ---       TM2_IRQHandler
      00FFA103H   CODE     ---       TM3_IRQHandler
      00FFA143H   CODE     ---       TM4_IRQHandler
*SFR* 00000089H   DATA     BYTE      TMOD
      00011D27H   XDATA    ---       tof_module_exti_handler
      00011D2BH   XDATA    INT       tof_type
*SFR* 00000088H.4 DATA     BIT       TR0
*SFR* 00000088H.6 DATA     BIT       TR1
*SFR* 000000C8H.2 DATA     BIT       TR2
      00011E63H   XDATA    INT       TrackState
*DEL*:00000000H   CODE     ---       tsl1401_collect_pit_handler
      0001020BH   XDATA    ---       tsl1401_data
      0001020AH   XDATA    BYTE      tsl1401_finish_flag
*DEL*:00000000H   CODE     ---       tsl1401_init
*DEL*:00000000H   CODE     ---       tsl1401_send_data
      000107F7H   XDATA    ---       Turn_PID
      0001071DH   XDATA    FLOAT     Turn_target
*SFR* 000000B0H.1 DATA     BIT       TXD
      000112E2H   XDATA    ---       uart1_irq_handler
      000112E4H   XDATA    ---       uart2_irq_handler
      000112E6H   XDATA    ---       uart3_irq_handler
L251 LINKER/LOCATER V4.66.93.0                                                        05/01/2026  20:21:51  PAGE 39


      000112E8H   XDATA    ---       uart4_irq_handler
      00FF7471H   CODE     ---       uart_dma_init
      00FF9650H   CODE     ---       uart_funciton_check
      00FF556DH   CODE     ---       uart_init
      00FF8EB7H   CODE     ---       uart_query_byte
*DEL*:00000000H   CODE     ---       uart_read_byte
      00011965H   XDATA    ---       uart_rx_buff
      00FF99FCH   CODE     ---       uart_rx_interrupt
      00FF89F8H   CODE     ---       uart_rx_start_buff
      00FF6D4DH   CODE     ---       uart_write_buffer
      00FFA4ADH   CODE     ---       uart_write_byte
*DEL*:00000000H   CODE     ---       uart_write_string
*SFR* 000000F4H   DATA     BYTE      USBCON
*DEL*:00000000H   CODE     ---       voltage_warning_init
*SFR* 000000A6H   DATA     BYTE      VRTRIM
*DEL*:00000000H   CODE     ---       vsnprintf
*SFR* 000000C1H   DATA     BYTE      WDT_CONTR
*SFR* 000000A6H   DATA     BYTE      WDTRST
      00011D29H   XDATA    INT       wireless_type
      00FFA389H   CODE     ---       wireless_uart_callback
      00FF96D1H   CODE     ---       wireless_uart_init
      00FF93C3H   CODE     ---       wireless_uart_read_buffer
      00FF8081H   CODE     ---       wireless_uart_send_buffer
*DEL*:00000000H   CODE     ---       wireless_uart_send_byte
      00FF9B91H   CODE     ---       wireless_uart_send_string
*SFR* 000000B0H.6 DATA     BIT       WR
*SFR* 000000E9H   DATA     BYTE      WTST
      0001093AH   XDATA    FLOAT     yaw
      00010932H   XDATA    FLOAT     yaw_limit_360
*DEL*:00000000H   CODE     ---       yaw_reset
      0001093EH   XDATA    FLOAT     yaw_total
      000108B6H   XDATA    ---       Zero
*DEL*:00000000H   CODE     ---       zf_sprintf



SYMBOL TABLE OF MODULE:  .\out_file\SEEKFREE (?C_START)

      VALUE       REP       CLASS    TYPE      SYMBOL NAME
      ====================================================
      ---         MODULE    ---      ---       ?C_START
      00FF0000H   PUBLIC    CODE     ---       ?C?STARTUP
      00FF0000H   PUBLIC    CODE     ---       ?C_STARTUP
      000000D0H.6 SFRSYM    DATA     BIT       AC
      000000E0H   SFRSYM    DATA     BYTE      ACC
      000000F0H   SFRSYM    DATA     BYTE      B
      000000FAH   SFRSYM    DATA     BYTE      CCAP0H
      000000EAH   SFRSYM    DATA     BYTE      CCAP0L
      000000FBH   SFRSYM    DATA     BYTE      CCAP1H
      000000EBH   SFRSYM    DATA     BYTE      CCAP1L
      000000FCH   SFRSYM    DATA     BYTE      CCAP2H
      000000ECH   SFRSYM    DATA     BYTE      CCAP2L
      000000FDH   SFRSYM    DATA     BYTE      CCAP3H
      000000EDH   SFRSYM    DATA     BYTE      CCAP3L
      000000FEH   SFRSYM    DATA     BYTE      CCAP4H
      000000EEH   SFRSYM    DATA     BYTE      CCAP4L
      000000DAH   SFRSYM    DATA     BYTE      CCAPM0
      000000DBH   SFRSYM    DATA     BYTE      CCAPM1
      000000DCH   SFRSYM    DATA     BYTE      CCAPM2
      000000DDH   SFRSYM    DATA     BYTE      CCAPM3
      000000DEH   SFRSYM    DATA     BYTE      CCAPM4
      000000D8H.0 SFRSYM    DATA     BIT       CCF0
      000000D8H.1 SFRSYM    DATA     BIT       CCF1
      000000D8H.2 SFRSYM    DATA     BIT       CCF2
      000000D8H.3 SFRSYM    DATA     BIT       CCF3
L251 LINKER/LOCATER V4.66.93.0                                                        05/01/2026  20:21:51  PAGE 40


      000000D8H.4 SFRSYM    DATA     BIT       CCF4
      000000D8H   SFRSYM    DATA     BYTE      CCON
      00000090H.3 SFRSYM    DATA     BIT       CEX0
      00000090H.4 SFRSYM    DATA     BIT       CEX1
      00000090H.5 SFRSYM    DATA     BIT       CEX2
      00000090H.6 SFRSYM    DATA     BIT       CEX3
      00000090H.7 SFRSYM    DATA     BIT       CEX4
      000000D8H.7 SFRSYM    DATA     BIT       CF
      000000F9H   SFRSYM    DATA     BYTE      CH
      000000E9H   SFRSYM    DATA     BYTE      CL
      000000D9H   SFRSYM    DATA     BYTE      CMOD
      000000C8H.0 SFRSYM    DATA     BIT       CP_RL2
      000000D8H.6 SFRSYM    DATA     BIT       CR
      000000D0H.7 SFRSYM    DATA     BIT       CY
      000000C8H.1 SFRSYM    DATA     BIT       C_T2
      00000083H   SFRSYM    DATA     BYTE      DPH
      00000082H   SFRSYM    DATA     BYTE      DPL
      00000084H   SFRSYM    DATA     BYTE      DPXL
      000000A8H.7 SFRSYM    DATA     BIT       EA
      000000A8H.6 SFRSYM    DATA     BIT       EC
      00000090H.2 SFRSYM    DATA     BIT       ECI
      000000A8H.4 SFRSYM    DATA     BIT       ES
      000000A8H.1 SFRSYM    DATA     BIT       ET0
      000000A8H.3 SFRSYM    DATA     BIT       ET1
      000000A8H.5 SFRSYM    DATA     BIT       ET2
      000000A8H.0 SFRSYM    DATA     BIT       EX0
      000000A8H.2 SFRSYM    DATA     BIT       EX1
      000000C8H.3 SFRSYM    DATA     BIT       EXEN2
      000000C8H.6 SFRSYM    DATA     BIT       EXF2
      000000D0H.5 SFRSYM    DATA     BIT       F0
      00000098H.7 SFRSYM    DATA     BIT       FE
      000000A8H   SFRSYM    DATA     BYTE      IE0
      00000088H.1 SFRSYM    DATA     BIT       IE0_
      000000B1H   SFRSYM    DATA     BYTE      IE1
      00000088H.3 SFRSYM    DATA     BIT       IE1_
      000000B0H.2 SFRSYM    DATA     BIT       INT0
      000000B0H.3 SFRSYM    DATA     BIT       INT1
      000000B7H   SFRSYM    DATA     BYTE      IPH0
      000000B8H   SFRSYM    DATA     BYTE      IPL0
      00000088H.0 SFRSYM    DATA     BIT       IT0
      00000088H.2 SFRSYM    DATA     BIT       IT1
      000000D0H.2 SFRSYM    DATA     BIT       OV
      000000D0H.0 SFRSYM    DATA     BIT       P
      00000080H   SFRSYM    DATA     BYTE      P0
      00000090H   SFRSYM    DATA     BYTE      P1
      000000A0H   SFRSYM    DATA     BYTE      P2
      000000B0H   SFRSYM    DATA     BYTE      P3
      00000087H   SFRSYM    DATA     BYTE      PCON
      000000B8H.6 SFRSYM    DATA     BIT       PPC
      000000B8H.4 SFRSYM    DATA     BIT       PS
      000000D0H   SFRSYM    DATA     BYTE      PSW
      000000D1H   SFRSYM    DATA     BYTE      PSW1
      000000B8H.1 SFRSYM    DATA     BIT       PT0
      000000B8H.3 SFRSYM    DATA     BIT       PT1
      000000B8H.5 SFRSYM    DATA     BIT       PT2
      000000B8H.0 SFRSYM    DATA     BIT       PX0
      000000B8H.2 SFRSYM    DATA     BIT       PX1
      00000098H.2 SFRSYM    DATA     BIT       RB8
      000000CBH   SFRSYM    DATA     BYTE      RCAP2H
      000000CAH   SFRSYM    DATA     BYTE      RCAP2L
      000000C8H.5 SFRSYM    DATA     BIT       RCLK
      000000B0H.7 SFRSYM    DATA     BIT       RD
      00000098H.4 SFRSYM    DATA     BIT       REN
      00000098H.0 SFRSYM    DATA     BIT       RI
      000000D0H.3 SFRSYM    DATA     BIT       RS0
L251 LINKER/LOCATER V4.66.93.0                                                        05/01/2026  20:21:51  PAGE 41


      000000D0H.4 SFRSYM    DATA     BIT       RS1
      000000B0H.0 SFRSYM    DATA     BIT       RXD
      000000A9H   SFRSYM    DATA     BYTE      SADDR
      000000B9H   SFRSYM    DATA     BYTE      SADEN
      00000099H   SFRSYM    DATA     BYTE      SBUF
      00000098H   SFRSYM    DATA     BYTE      SCON
      00000098H.7 SFRSYM    DATA     BIT       SM0
      00000098H.6 SFRSYM    DATA     BIT       SM1
      00000098H.5 SFRSYM    DATA     BIT       SM2
      00000081H   SFRSYM    DATA     BYTE      SP
      000000BEH   SFRSYM    DATA     BYTE      SPH
      000000B0H.4 SFRSYM    DATA     BIT       T0
      000000B0H.5 SFRSYM    DATA     BIT       T1
      00000090H.0 SFRSYM    DATA     BIT       T2
      000000C8H   SFRSYM    DATA     BYTE      T2CON
      00000090H.1 SFRSYM    DATA     BIT       T2EX
      000000C9H   SFRSYM    DATA     BYTE      T2MOD
      00000098H.3 SFRSYM    DATA     BIT       TB8
      000000C8H.4 SFRSYM    DATA     BIT       TCLK
      00000088H   SFRSYM    DATA     BYTE      TCON
      00000088H.5 SFRSYM    DATA     BIT       TF0
      00000088H.7 SFRSYM    DATA     BIT       TF1
      000000C8H.7 SFRSYM    DATA     BIT       TF2
      0000008CH   SFRSYM    DATA     BYTE      TH0
      0000008DH   SFRSYM    DATA     BYTE      TH1
      000000CDH   SFRSYM    DATA     BYTE      TH2
      00000098H.1 SFRSYM    DATA     BIT       TI
      0000008AH   SFRSYM    DATA     BYTE      TL0
      0000008BH   SFRSYM    DATA     BYTE      TL1
      000000CCH   SFRSYM    DATA     BYTE      TL2
      00000089H   SFRSYM    DATA     BYTE      TMOD
      00000088H.4 SFRSYM    DATA     BIT       TR0
      00000088H.6 SFRSYM    DATA     BIT       TR1
      000000C8H.2 SFRSYM    DATA     BIT       TR2
      000000B0H.1 SFRSYM    DATA     BIT       TXD
      000000A6H   SFRSYM    DATA     BYTE      WDTRST
      000000B0H.6 SFRSYM    DATA     BIT       WR
      00000800H   SYMBOL    NUMBER   ---       EDATALEN
      00FF9E15H   SYMBOL    CODE     ---       EDATALOOP
      00000001H   SYMBOL    NUMBER   ---       EDF
      00000001H   SYMBOL    NUMBER   ---       EMAP
      00000000H   SYMBOL    NUMBER   ---       HDATALEN
      00010000H   SYMBOL    NUMBER   ---       HDATASTART
      00000000H   SYMBOL    NUMBER   ---       IBPSTACK
      00000100H   SYMBOL    NUMBER   ---       IBPSTACKTOP
      00000001H   SYMBOL    NUMBER   ---       INTR
      00000001H   SYMBOL    NUMBER   ---       PAGM
      00000003H   SYMBOL    NUMBER   ---       RDRG
      00000001H   SYMBOL    NUMBER   ---       SRCM
      00000800H   SYMBOL    NUMBER   ---       STACKSIZE
      00FF9E0DH   SYMBOL    CODE     ---       STARTUP1
      00000003H   SYMBOL    NUMBER   ---       WSA
      00000003H   SYMBOL    NUMBER   ---       WSB
      00000001H   SYMBOL    NUMBER   ---       XALE
      00000000H   SYMBOL    NUMBER   ---       XBPSTACK
      00010000H   SYMBOL    NUMBER   ---       XBPSTACKTOP
      00008000H   SYMBOL    NUMBER   ---       XDATALEN
      00FF9E24H   SYMBOL    CODE     ---       XDATALOOP
      00010000H   SYMBOL    NUMBER   ---       XDATASTART

      00FF0000H   BLOCK     CODE     NEAR LAB  LVL=0
      00FF0000H   LINE      CODE     ---       #183
      ---         BLOCKEND  ---      ---       LVL=0

      00FF9E0DH   BLOCK     CODE     NEAR LAB  LVL=0
L251 LINKER/LOCATER V4.66.93.0                                                        05/01/2026  20:21:51  PAGE 42


      00FF9E0DH   LINE      CODE     ---       #188
      00FF9E10H   LINE      CODE     ---       #191
      00FF9E14H   LINE      CODE     ---       #192
      00FF9E15H   LINE      CODE     ---       #193
      00FF9E18H   LINE      CODE     ---       #194
      00FF9E1AH   LINE      CODE     ---       #195
      00FF9E1CH   LINE      CODE     ---       #199
      00FF9E1FH   LINE      CODE     ---       #200
      00FF9E23H   LINE      CODE     ---       #201
      00FF9E24H   LINE      CODE     ---       #202
      00FF9E25H   LINE      CODE     ---       #203
      00FF9E26H   LINE      CODE     ---       #204
      00FF9E28H   LINE      CODE     ---       #205
      00FF9E2AH   LINE      CODE     ---       #235
      ---         BLOCKEND  ---      ---       LVL=0

      00FF9E5FH   BLOCK     CODE     NEAR LAB  LVL=0
      00FF9E5FH   LINE      CODE     ---       #238
      ---         BLOCKEND  ---      ---       LVL=0

      ---         MODULE    ---      ---       stc32g_isr

      00FF019BH   BLOCK     CODE     NEAR LAB  LVL=0
      00FF019BH   LINE      CODE     ---       #3
      ---         BLOCKEND  ---      ---       LVL=0

      00FF01ABH   BLOCK     CODE     NEAR LAB  LVL=0
      00FF01ABH   LINE      CODE     ---       #6
      ---         BLOCKEND  ---      ---       LVL=0

      00FF01BBH   BLOCK     CODE     NEAR LAB  LVL=0
      00FF01BBH   LINE      CODE     ---       #9
      ---         BLOCKEND  ---      ---       LVL=0

      00FF01CBH   BLOCK     CODE     NEAR LAB  LVL=0
      00FF01CBH   LINE      CODE     ---       #12
      ---         BLOCKEND  ---      ---       LVL=0

      ---         MODULE    ---      ---       zf_common_clock
      00FF954EH   PUBLIC    CODE     ---       clock_init
      00FF6948H   PUBLIC    CODE     ---       set_sys_clk
      00011ECEH   PUBLIC    XDATA    LONG      system_clock
      00000094H   SFRSYM    DATA     BYTE      P0M0
      000000D0H   SFRSYM    DATA     BYTE      PSW
      000000BAH.7 SFRSYM    DATA     BIT       EAXFR
      0000009DH   SFRSYM    DATA     BYTE      IRCBAND
      00000097H   SFRSYM    DATA     BYTE      AUXR2
      000000EAH   SFRSYM    DATA     BYTE      CKCON
      000000EFH   SFRSYM    DATA     BYTE      AUXINTIF
      000000FDH   SFRSYM    DATA     BYTE      S4CON
      000000ACH   SFRSYM    DATA     BYTE      S3CON
      0000009AH   SFRSYM    DATA     BYTE      S2CON
      000000A6H   SFRSYM    DATA     BYTE      VRTRIM
      000000B7H   SFRSYM    DATA     BYTE      IPH
      000000CDH   SFRSYM    DATA     BYTE      SPSTAT
      000000DDH   SFRSYM    DATA     BYTE      T4T3M
      0000009FH   SFRSYM    DATA     BYTE      IRTRIM
      000000C1H   SFRSYM    DATA     BYTE      WDT_CONTR
      000000E9H   SFRSYM    DATA     BYTE      WTST
      000000DFH   SFRSYM    DATA     BYTE      IP3
      000000F4H   SFRSYM    DATA     BYTE      USBCON
      000000B5H   SFRSYM    DATA     BYTE      IP2
      000000FFH   SFRSYM    DATA     BYTE      RSTCFG
      000000C7H   SFRSYM    DATA     BYTE      IAP_CONTR
      000000F9H   SFRSYM    DATA     BYTE      LINICR
L251 LINKER/LOCATER V4.66.93.0                                                        05/01/2026  20:21:51  PAGE 43


      0000008EH   SFRSYM    DATA     BYTE      AUXR
      000000AFH   SFRSYM    DATA     BYTE      IE2
      00000088H   SFRSYM    DATA     BYTE      TCON
      00000089H   SFRSYM    DATA     BYTE      TMOD
      00000098H   SFRSYM    DATA     BYTE      SCON
      000000F1H   SFRSYM    DATA     BYTE      CANICR
      00000087H   SFRSYM    DATA     BYTE      PCON
      000000BCH   SFRSYM    DATA     BYTE      ADC_CONTR
      000000E7H   SFRSYM    DATA     BYTE      CMPCR2
      000000E6H   SFRSYM    DATA     BYTE      CMPCR1
      000000DEH   SFRSYM    DATA     BYTE      ADCCFG
      000000B8H   SFRSYM    DATA     BYTE      IP
      0000008FH   SFRSYM    DATA     BYTE      INTCLKO
      000000EEH   SFRSYM    DATA     BYTE      IP3H
      000000B6H   SFRSYM    DATA     BYTE      IP2H
      000000A8H   SFRSYM    DATA     BYTE      IE
      000000BBH   SFRSYM    DATA     BYTE      P_SW3
      000000BAH   SFRSYM    DATA     BYTE      P_SW2
      000000A2H   SFRSYM    DATA     BYTE      P_SW1
      000000CEH   SFRSYM    DATA     BYTE      SPCTL
      000000F8H   SFRSYM    DATA     BYTE      P7
      000000E1H   SFRSYM    DATA     BYTE      P7M1
      000000E8H   SFRSYM    DATA     BYTE      P6
      000000C8H   SFRSYM    DATA     BYTE      P5
      000000CBH   SFRSYM    DATA     BYTE      P6M1
      000000E2H   SFRSYM    DATA     BYTE      P7M0
      000000C0H   SFRSYM    DATA     BYTE      P4
      000000C9H   SFRSYM    DATA     BYTE      P5M1
      000000CCH   SFRSYM    DATA     BYTE      P6M0
      000000B0H   SFRSYM    DATA     BYTE      P3
      000000B3H   SFRSYM    DATA     BYTE      P4M1
      000000CAH   SFRSYM    DATA     BYTE      P5M0
      000000A0H   SFRSYM    DATA     BYTE      P2
      000000B1H   SFRSYM    DATA     BYTE      P3M1
      000000B4H   SFRSYM    DATA     BYTE      P4M0
      00000090H   SFRSYM    DATA     BYTE      P1
      00000095H   SFRSYM    DATA     BYTE      P2M1
      000000B2H   SFRSYM    DATA     BYTE      P3M0
      00000080H   SFRSYM    DATA     BYTE      P0
      00000091H   SFRSYM    DATA     BYTE      P1M1
      00000096H   SFRSYM    DATA     BYTE      P2M0
      00000092H   SFRSYM    DATA     BYTE      P1M0
      00000093H   SFRSYM    DATA     BYTE      P0M1

      00FF6948H   BLOCK     CODE     ---       LVL=0
      00011ED2H   SYMBOL    XDATA    DWORD     sys_clk
      00FF6948H   LINE      CODE     ---       #54
      00FF6952H   LINE      CODE     ---       #57
      00FF6955H   LINE      CODE     ---       #59
      00FF69AAH   LINE      CODE     ---       #61
      00FF69AAH   LINE      CODE     ---       #63
      00FF69B7H   LINE      CODE     ---       #64
      00FF69C4H   LINE      CODE     ---       #65
      00FF69D1H   LINE      CODE     ---       #66
      00FF69D5H   LINE      CODE     ---       #67
      00FF69E1H   LINE      CODE     ---       #68
      00FF69E4H   LINE      CODE     ---       #70
      00FF69E4H   LINE      CODE     ---       #72
      00FF69F1H   LINE      CODE     ---       #73
      00FF69FEH   LINE      CODE     ---       #74
      00FF6A0BH   LINE      CODE     ---       #75
      00FF6A0FH   LINE      CODE     ---       #76
      00FF6A1BH   LINE      CODE     ---       #77
      00FF6A1EH   LINE      CODE     ---       #79
      00FF6A1EH   LINE      CODE     ---       #81
L251 LINKER/LOCATER V4.66.93.0                                                        05/01/2026  20:21:51  PAGE 44


      00FF6A2BH   LINE      CODE     ---       #82
      00FF6A38H   LINE      CODE     ---       #83
      00FF6A45H   LINE      CODE     ---       #84
      00FF6A49H   LINE      CODE     ---       #85
      00FF6A55H   LINE      CODE     ---       #86
      00FF6A58H   LINE      CODE     ---       #88
      00FF6A58H   LINE      CODE     ---       #90
      00FF6A65H   LINE      CODE     ---       #91
      00FF6A72H   LINE      CODE     ---       #92
      00FF6A7FH   LINE      CODE     ---       #93
      00FF6A83H   LINE      CODE     ---       #94
      00FF6A8FH   LINE      CODE     ---       #95
      00FF6A92H   LINE      CODE     ---       #97
      00FF6A92H   LINE      CODE     ---       #99
      00FF6A9FH   LINE      CODE     ---       #100
      00FF6AACH   LINE      CODE     ---       #101
      00FF6AB9H   LINE      CODE     ---       #102
      00FF6ABDH   LINE      CODE     ---       #103
      00FF6AC9H   LINE      CODE     ---       #104
      00FF6ACCH   LINE      CODE     ---       #106
      00FF6ACCH   LINE      CODE     ---       #108
      00FF6AD9H   LINE      CODE     ---       #109
      00FF6AE6H   LINE      CODE     ---       #110
      00FF6AF3H   LINE      CODE     ---       #111
      00FF6AF7H   LINE      CODE     ---       #112
      00FF6B03H   LINE      CODE     ---       #113
      00FF6B05H   LINE      CODE     ---       #115
      00FF6B05H   LINE      CODE     ---       #116
      00FF6B17H   LINE      CODE     ---       #118
      00FF6B24H   LINE      CODE     ---       #119
      00FF6B31H   LINE      CODE     ---       #120
      00FF6B3EH   LINE      CODE     ---       #121
      00FF6B42H   LINE      CODE     ---       #122
      00FF6B4EH   LINE      CODE     ---       #123
      00FF6B4EH   LINE      CODE     ---       #124
      00FF6B4EH   LINE      CODE     ---       #126
      00FF6B58H   LINE      CODE     ---       #127
      ---         BLOCKEND  ---      ---       LVL=0

      00FF954EH   BLOCK     CODE     ---       LVL=0
      00011ED6H   SYMBOL    XDATA    DWORD     clock
      00FF954EH   LINE      CODE     ---       #132
      00FF9558H   LINE      CODE     ---       #134
      00FF955CH   LINE      CODE     ---       #135
      00FF9560H   LINE      CODE     ---       #136
      00FF9563H   LINE      CODE     ---       #137
      00FF9566H   LINE      CODE     ---       #147
      00FF957DH   LINE      CODE     ---       #153
      00FF9580H   LINE      CODE     ---       #156
      00FF9583H   LINE      CODE     ---       #157
      00FF9586H   LINE      CODE     ---       #158
      00FF9589H   LINE      CODE     ---       #159
      00FF958CH   LINE      CODE     ---       #160
      00FF958FH   LINE      CODE     ---       #161
      00FF9592H   LINE      CODE     ---       #162
      00FF9595H   LINE      CODE     ---       #163
      00FF9598H   LINE      CODE     ---       #164
      00FF959BH   LINE      CODE     ---       #165
      00FF959EH   LINE      CODE     ---       #166
      00FF95A1H   LINE      CODE     ---       #167
      00FF95A4H   LINE      CODE     ---       #168
      00FF95A7H   LINE      CODE     ---       #169
      00FF95AAH   LINE      CODE     ---       #170
      00FF95ADH   LINE      CODE     ---       #171
      00FF95B0H   LINE      CODE     ---       #173
L251 LINKER/LOCATER V4.66.93.0                                                        05/01/2026  20:21:51  PAGE 45


      00FF95B3H   LINE      CODE     ---       #174
      00FF95B6H   LINE      CODE     ---       #175
      00FF95B9H   LINE      CODE     ---       #176
      00FF95BCH   LINE      CODE     ---       #177
      00FF95BFH   LINE      CODE     ---       #178
      00FF95C2H   LINE      CODE     ---       #179
      00FF95C5H   LINE      CODE     ---       #180
      00FF95C8H   LINE      CODE     ---       #181
      00FF95CBH   LINE      CODE     ---       #183
      00FF95CEH   LINE      CODE     ---       #184
      ---         BLOCKEND  ---      ---       LVL=0

      ---         MODULE    ---      ---       zf_common_debug
      00FFA183H   PUBLIC    CODE     ---       debug_interrupr_handler
      00FF8C29H   PUBLIC    CODE     ---       debug_init
      00FF9752H   PUBLIC    CODE     ---       debug_assert_handler
      00FFA509H   PUBLIC    CODE     ---       putchar
      00010CB1H   PUBLIC    XDATA    ---       debug_uart_buffer
      00010CF2H   PUBLIC    XDATA    ---       debug_uart_fifo
      000000D0H   SFRSYM    DATA     BYTE      PSW
      0000009DH   SFRSYM    DATA     BYTE      IRCBAND
      00000097H   SFRSYM    DATA     BYTE      AUXR2
      000000EFH   SFRSYM    DATA     BYTE      AUXINTIF
      000000FDH   SFRSYM    DATA     BYTE      S4CON
      000000ACH   SFRSYM    DATA     BYTE      S3CON
      0000009AH   SFRSYM    DATA     BYTE      S2CON
      000000B7H   SFRSYM    DATA     BYTE      IPH
      000000CDH   SFRSYM    DATA     BYTE      SPSTAT
      000000DDH   SFRSYM    DATA     BYTE      T4T3M
      000000C1H   SFRSYM    DATA     BYTE      WDT_CONTR
      000000DFH   SFRSYM    DATA     BYTE      IP3
      000000F4H   SFRSYM    DATA     BYTE      USBCON
      000000B5H   SFRSYM    DATA     BYTE      IP2
      000000FFH   SFRSYM    DATA     BYTE      RSTCFG
      000000C7H   SFRSYM    DATA     BYTE      IAP_CONTR
      000000F9H   SFRSYM    DATA     BYTE      LINICR
      0000008EH   SFRSYM    DATA     BYTE      AUXR
      000000AFH   SFRSYM    DATA     BYTE      IE2
      00000088H   SFRSYM    DATA     BYTE      TCON
      00000089H   SFRSYM    DATA     BYTE      TMOD
      00000098H   SFRSYM    DATA     BYTE      SCON
      000000F1H   SFRSYM    DATA     BYTE      CANICR
      00000087H   SFRSYM    DATA     BYTE      PCON
      000000BCH   SFRSYM    DATA     BYTE      ADC_CONTR
      000000E7H   SFRSYM    DATA     BYTE      CMPCR2
      000000E6H   SFRSYM    DATA     BYTE      CMPCR1
      000000DEH   SFRSYM    DATA     BYTE      ADCCFG
      000000B8H   SFRSYM    DATA     BYTE      IP
      0000008FH   SFRSYM    DATA     BYTE      INTCLKO
      000000EEH   SFRSYM    DATA     BYTE      IP3H
      000000B6H   SFRSYM    DATA     BYTE      IP2H
      000000A8H   SFRSYM    DATA     BYTE      IE
      000000BBH   SFRSYM    DATA     BYTE      P_SW3
      000000BAH   SFRSYM    DATA     BYTE      P_SW2
      000000A2H   SFRSYM    DATA     BYTE      P_SW1
      000000CEH   SFRSYM    DATA     BYTE      SPCTL
      000000F8H   SFRSYM    DATA     BYTE      P7
      000000E8H   SFRSYM    DATA     BYTE      P6
      000000C8H   SFRSYM    DATA     BYTE      P5
      000000C0H   SFRSYM    DATA     BYTE      P4
      000000B0H   SFRSYM    DATA     BYTE      P3
      000000A0H   SFRSYM    DATA     BYTE      P2
      00000090H   SFRSYM    DATA     BYTE      P1
      00000080H   SFRSYM    DATA     BYTE      P0
      00FFB4F0H   SYMBOL    HCONST   ---       ?tpl?0001
L251 LINKER/LOCATER V4.66.93.0                                                        05/01/2026  20:21:51  PAGE 46


      00010CF1H   SYMBOL    XDATA    BYTE      zf_debug_assert_enable
      00010D09H   SYMBOL    XDATA    BYTE      zf_debug_init_flag
      00011C5FH   SYMBOL    XDATA    ---       buff
      00011C63H   SYMBOL    XDATA    DWORD     len
      00011C67H   SYMBOL    XDATA    ---       buff
      00011C6BH   SYMBOL    XDATA    DWORD     len

      00FFA183H   BLOCK     CODE     ---       LVL=0
      00011FDEH   SYMBOL    XDATA    BYTE      dat
      00FFA183H   LINE      CODE     ---       #285
      00FFA187H   LINE      CODE     ---       #287
      00FFA190H   LINE      CODE     ---       #289
      00FFA19DH   LINE      CODE     ---       #290
      00FFA1BEH   LINE      CODE     ---       #291
      ---         BLOCKEND  ---      ---       LVL=0

      00FFA509H   BLOCK     CODE     ---       LVL=0
      00011FDFH   SYMBOL    XDATA    CHAR      c
      00FFA509H   LINE      CODE     ---       #307
      00FFA50DH   LINE      CODE     ---       #309
      00FFA516H   LINE      CODE     ---       #311
      00FFA51AH   LINE      CODE     ---       #312
      ---         BLOCKEND  ---      ---       LVL=0

      00FF9752H   BLOCK     CODE     ---       LVL=0
      000114AEH   SYMBOL    XDATA    BYTE      pass
      000114AFH   SYMBOL    XDATA    ---       file
      000114B3H   SYMBOL    XDATA    INT       line
      00FF9766H   BLOCK     CODE     NEAR LAB  LVL=1
      000114B5H   SYMBOL    XDATA    ---       log_str
      ---         BLOCKEND  ---      ---       LVL=1
      00FF9752H   LINE      CODE     ---       #350
      00FF9766H   LINE      CODE     ---       #351
      00FF9766H   LINE      CODE     ---       #352
      00FF977BH   LINE      CODE     ---       #354
      00FF977DH   LINE      CODE     ---       #370
      00FF97BAH   LINE      CODE     ---       #373
      00FF97C1H   LINE      CODE     ---       #374
      00FF97CAH   LINE      CODE     ---       #375
      ---         BLOCKEND  ---      ---       LVL=0

      00FF8C29H   BLOCK     CODE     ---       LVL=0
      00011FE0H   SYMBOL    XDATA    BYTE      uartx
      00FF8C29H   LINE      CODE     ---       #457
      00FF8C29H   LINE      CODE     ---       #458
      00FF8C29H   LINE      CODE     ---       #459
      00FF8C2EH   LINE      CODE     ---       #465
      00FF8C49H   LINE      CODE     ---       #472
      00FF8C76H   LINE      CODE     ---       #473
      00FF8C7DH   LINE      CODE     ---       #476
      00FF8C86H   LINE      CODE     ---       #478
      00FF8C90H   LINE      CODE     ---       #479
      00FF8C92H   LINE      CODE     ---       #480
      00FF8C9BH   LINE      CODE     ---       #482
      00FF8CA5H   LINE      CODE     ---       #483
      00FF8CA7H   LINE      CODE     ---       #484
      00FF8CB0H   LINE      CODE     ---       #486
      00FF8CBAH   LINE      CODE     ---       #487
      00FF8CBCH   LINE      CODE     ---       #488
      00FF8CC5H   LINE      CODE     ---       #490
      00FF8CCFH   LINE      CODE     ---       #491
      ---         BLOCKEND  ---      ---       LVL=0

      ---         MODULE    ---      ---       zf_common_fifo
      00FF3CA4H   PUBLIC    CODE     ---       fifo_read_buffer
L251 LINKER/LOCATER V4.66.93.0                                                        05/01/2026  20:21:51  PAGE 47


      00FF4255H   PUBLIC    CODE     ---       fifo_write_buffer
      00FF9D5CH   PUBLIC    CODE     ---       fifo_used
      00FF8692H   PUBLIC    CODE     ---       fifo_init
      000115C1H   PUBLIC    XDATA    BYTE      ?fifo_write_buffer?BYTE
      00011424H   PUBLIC    XDATA    BYTE      ?fifo_read_buffer?BYTE
      0001176CH   PUBLIC    XDATA    BYTE      ?fifo_init?BYTE
      000000D0H   SFRSYM    DATA     BYTE      PSW
      0000009DH   SFRSYM    DATA     BYTE      IRCBAND
      00000097H   SFRSYM    DATA     BYTE      AUXR2
      000000EFH   SFRSYM    DATA     BYTE      AUXINTIF
      000000FDH   SFRSYM    DATA     BYTE      S4CON
      000000ACH   SFRSYM    DATA     BYTE      S3CON
      0000009AH   SFRSYM    DATA     BYTE      S2CON
      000000B7H   SFRSYM    DATA     BYTE      IPH
      000000CDH   SFRSYM    DATA     BYTE      SPSTAT
      000000DDH   SFRSYM    DATA     BYTE      T4T3M
      000000C1H   SFRSYM    DATA     BYTE      WDT_CONTR
      000000DFH   SFRSYM    DATA     BYTE      IP3
      000000F4H   SFRSYM    DATA     BYTE      USBCON
      000000B5H   SFRSYM    DATA     BYTE      IP2
      000000FFH   SFRSYM    DATA     BYTE      RSTCFG
      000000C7H   SFRSYM    DATA     BYTE      IAP_CONTR
      000000F9H   SFRSYM    DATA     BYTE      LINICR
      0000008EH   SFRSYM    DATA     BYTE      AUXR
      000000AFH   SFRSYM    DATA     BYTE      IE2
      00000088H   SFRSYM    DATA     BYTE      TCON
      00000089H   SFRSYM    DATA     BYTE      TMOD
      00000098H   SFRSYM    DATA     BYTE      SCON
      000000F1H   SFRSYM    DATA     BYTE      CANICR
      00000087H   SFRSYM    DATA     BYTE      PCON
      000000BCH   SFRSYM    DATA     BYTE      ADC_CONTR
      000000E7H   SFRSYM    DATA     BYTE      CMPCR2
      000000E6H   SFRSYM    DATA     BYTE      CMPCR1
      000000DEH   SFRSYM    DATA     BYTE      ADCCFG
      000000B8H   SFRSYM    DATA     BYTE      IP
      0000008FH   SFRSYM    DATA     BYTE      INTCLKO
      000000EEH   SFRSYM    DATA     BYTE      IP3H
      000000B6H   SFRSYM    DATA     BYTE      IP2H
      000000A8H   SFRSYM    DATA     BYTE      IE
      000000BBH   SFRSYM    DATA     BYTE      P_SW3
      000000BAH   SFRSYM    DATA     BYTE      P_SW2
      000000A2H   SFRSYM    DATA     BYTE      P_SW1
      000000CEH   SFRSYM    DATA     BYTE      SPCTL
      000000F8H   SFRSYM    DATA     BYTE      P7
      000000E8H   SFRSYM    DATA     BYTE      P6
      000000C8H   SFRSYM    DATA     BYTE      P5
      000000C0H   SFRSYM    DATA     BYTE      P4
      000000B0H   SFRSYM    DATA     BYTE      P3
      000000A0H   SFRSYM    DATA     BYTE      P2
      00000090H   SFRSYM    DATA     BYTE      P1
      00000080H   SFRSYM    DATA     BYTE      P0
      00FF8D77H   SYMBOL    CODE     ---       fifo_head_offset
      00FF8E17H   SYMBOL    CODE     ---       fifo_end_offset

      00FF8D77H   BLOCK     CODE     ---       LVL=0
      00011C6FH   SYMBOL    XDATA    ---       fifo
      00011C73H   SYMBOL    XDATA    DWORD     offset
      00FF8D77H   LINE      CODE     ---       #51
      00FF8D8BH   LINE      CODE     ---       #53
      00FF8DB3H   LINE      CODE     ---       #55
      00FF8DB5H   LINE      CODE     ---       #57
      00FF8DE8H   LINE      CODE     ---       #58
      00FF8E16H   LINE      CODE     ---       #59
      ---         BLOCKEND  ---      ---       LVL=0

L251 LINKER/LOCATER V4.66.93.0                                                        05/01/2026  20:21:51  PAGE 48


      00FF8E17H   BLOCK     CODE     ---       LVL=0
      00011C77H   SYMBOL    XDATA    ---       fifo
      00011C7BH   SYMBOL    XDATA    DWORD     offset
      00FF8E17H   LINE      CODE     ---       #69
      00FF8E2BH   LINE      CODE     ---       #71
      00FF8E53H   LINE      CODE     ---       #73
      00FF8E55H   LINE      CODE     ---       #75
      00FF8E88H   LINE      CODE     ---       #76
      00FF8EB6H   LINE      CODE     ---       #77
      ---         BLOCKEND  ---      ---       LVL=0
      00011D81H   SYMBOL    XDATA    ---       fifo
      00011D85H   SYMBOL    XDATA    INT       return_state

      00FF9D5CH   BLOCK     CODE     ---       LVL=0
      00011EDAH   SYMBOL    XDATA    ---       fifo
      00FF9D5CH   LINE      CODE     ---       #120
      00FF9D66H   LINE      CODE     ---       #122
      00FF9D88H   LINE      CODE     ---       #123
      00FF9DB4H   LINE      CODE     ---       #124
      ---         BLOCKEND  ---      ---       LVL=0

      00FF4255H   BLOCK     CODE     ---       LVL=0
      000115C1H   SYMBOL    XDATA    ---       fifo
      000115C5H   SYMBOL    XDATA    ---       dat
      000115C9H   SYMBOL    XDATA    DWORD     length
      00FF4269H   BLOCK     CODE     NEAR LAB  LVL=1
      000115CDH   SYMBOL    XDATA    INT       return_state
      000115CFH   SYMBOL    XDATA    DWORD     temp_length
      ---         BLOCKEND  ---      ---       LVL=1
      00FF4255H   LINE      CODE     ---       #178
      00FF4269H   LINE      CODE     ---       #179
      00FF4269H   LINE      CODE     ---       #180
      00FF4271H   LINE      CODE     ---       #181
      00FF427DH   LINE      CODE     ---       #182
      00FF429FH   LINE      CODE     ---       #184
      00FF429FH   LINE      CODE     ---       #186
      00FF42ADH   LINE      CODE     ---       #188
      00FF42B7H   LINE      CODE     ---       #189
      00FF42BAH   LINE      CODE     ---       #190
      00FF42BAH   LINE      CODE     ---       #191
      00FF42D5H   LINE      CODE     ---       #193
      00FF42DFH   LINE      CODE     ---       #194
      00FF42E2H   LINE      CODE     ---       #195
      00FF42E2H   LINE      CODE     ---       #196
      00FF42F6H   LINE      CODE     ---       #198
      00FF431CH   LINE      CODE     ---       #200
      00FF4352H   LINE      CODE     ---       #202
      00FF436DH   LINE      CODE     ---       #204
      00FF4391H   LINE      CODE     ---       #206
      00FF4391H   LINE      CODE     ---       #208
      00FF43D8H   LINE      CODE     ---       #211
      00FF43EFH   LINE      CODE     ---       #212
      00FF4454H   LINE      CODE     ---       #216
      00FF4477H   LINE      CODE     ---       #217
      00FF447AH   LINE      CODE     ---       #218
      00FF447AH   LINE      CODE     ---       #220
      00FF44C5H   LINE      CODE     ---       #223
      00FF44DCH   LINE      CODE     ---       #224
      00FF4543H   LINE      CODE     ---       #228
      00FF4566H   LINE      CODE     ---       #229
      00FF4569H   LINE      CODE     ---       #230
      00FF4569H   LINE      CODE     ---       #232
      00FF45B8H   LINE      CODE     ---       #235
      00FF45CFH   LINE      CODE     ---       #236
      00FF463CH   LINE      CODE     ---       #240
L251 LINKER/LOCATER V4.66.93.0                                                        05/01/2026  20:21:51  PAGE 49


      00FF465FH   LINE      CODE     ---       #241
      00FF465FH   LINE      CODE     ---       #242
      00FF465FH   LINE      CODE     ---       #243
      00FF4662H   LINE      CODE     ---       #246
      00FF4683H   LINE      CODE     ---       #248
      00FF4683H   LINE      CODE     ---       #250
      00FF46CAH   LINE      CODE     ---       #253
      00FF46E1H   LINE      CODE     ---       #254
      00FF46E4H   LINE      CODE     ---       #255
      00FF46E4H   LINE      CODE     ---       #257
      00FF472FH   LINE      CODE     ---       #260
      00FF4746H   LINE      CODE     ---       #261
      00FF4748H   LINE      CODE     ---       #262
      00FF4748H   LINE      CODE     ---       #264
      00FF4797H   LINE      CODE     ---       #267
      00FF47AEH   LINE      CODE     ---       #268
      00FF47AEH   LINE      CODE     ---       #269
      00FF47AEH   LINE      CODE     ---       #270
      00FF47AEH   LINE      CODE     ---       #272
      00FF47D6H   LINE      CODE     ---       #273
      00FF47D8H   LINE      CODE     ---       #276
      00FF47E2H   LINE      CODE     ---       #277
      00FF47E2H   LINE      CODE     ---       #278
      00FF47F6H   LINE      CODE     ---       #279
      00FF47F6H   LINE      CODE     ---       #281
      00FF47FCH   LINE      CODE     ---       #282
      ---         BLOCKEND  ---      ---       LVL=0

      00FF3CA4H   BLOCK     CODE     ---       LVL=0
      00011424H   SYMBOL    XDATA    ---       fifo
      00011428H   SYMBOL    XDATA    ---       dat
      0001142CH   SYMBOL    XDATA    ---       length
      00011430H   SYMBOL    XDATA    INT       flag
      00FF3CB8H   BLOCK     CODE     NEAR LAB  LVL=1
      00011432H   SYMBOL    XDATA    INT       return_state
      00011434H   SYMBOL    XDATA    DWORD     temp_length
      00011438H   SYMBOL    XDATA    DWORD     fifo_data_length
      ---         BLOCKEND  ---      ---       LVL=1
      00FF3CA4H   LINE      CODE     ---       #355
      00FF3CB8H   LINE      CODE     ---       #356
      00FF3CB8H   LINE      CODE     ---       #357
      00FF3CC0H   LINE      CODE     ---       #358
      00FF3CCCH   LINE      CODE     ---       #359
      00FF3CD8H   LINE      CODE     ---       #361
      00FF3CFAH   LINE      CODE     ---       #362
      00FF3D1CH   LINE      CODE     ---       #364
      00FF3D1CH   LINE      CODE     ---       #366
      00FF3D2AH   LINE      CODE     ---       #368
      00FF3D34H   LINE      CODE     ---       #369
      00FF3D37H   LINE      CODE     ---       #372
      00FF3D52H   LINE      CODE     ---       #374
      00FF3D6DH   LINE      CODE     ---       #375
      00FF3D77H   LINE      CODE     ---       #376
      00FF3D7AH   LINE      CODE     ---       #377
      00FF3D7AH   LINE      CODE     ---       #379
      00FF3D91H   LINE      CODE     ---       #380
      00FF3DB0H   LINE      CODE     ---       #382
      00FF3DCBH   LINE      CODE     ---       #383
      00FF3DD5H   LINE      CODE     ---       #384
      00FF3DE3H   LINE      CODE     ---       #386
      00FF3DF7H   LINE      CODE     ---       #387
      00FF3DFAH   LINE      CODE     ---       #388
      00FF3DFAH   LINE      CODE     ---       #391
      00FF3E0EH   LINE      CODE     ---       #392
      00FF3E44H   LINE      CODE     ---       #393
L251 LINKER/LOCATER V4.66.93.0                                                        05/01/2026  20:21:51  PAGE 50


      00FF3E66H   LINE      CODE     ---       #395
      00FF3E87H   LINE      CODE     ---       #397
      00FF3EDAH   LINE      CODE     ---       #398
      00FF3F31H   LINE      CODE     ---       #399
      00FF3F89H   LINE      CODE     ---       #400
      00FF3F89H   LINE      CODE     ---       #401
      00FF3F8CH   LINE      CODE     ---       #404
      00FF3FB0H   LINE      CODE     ---       #406
      00FF3FB0H   LINE      CODE     ---       #408
      00FF3FF9H   LINE      CODE     ---       #409
      00FF404AH   LINE      CODE     ---       #410
      00FF404DH   LINE      CODE     ---       #411
      00FF404DH   LINE      CODE     ---       #413
      00FF409AH   LINE      CODE     ---       #414
      00FF40EDH   LINE      CODE     ---       #415
      00FF40F0H   LINE      CODE     ---       #416
      00FF40F0H   LINE      CODE     ---       #418
      00FF4141H   LINE      CODE     ---       #419
      00FF4198H   LINE      CODE     ---       #420
      00FF4198H   LINE      CODE     ---       #421
      00FF4198H   LINE      CODE     ---       #422
      00FF4198H   LINE      CODE     ---       #423
      00FF41ACH   LINE      CODE     ---       #424
      00FF41ACH   LINE      CODE     ---       #426
      00FF41BBH   LINE      CODE     ---       #428
      00FF41CDH   LINE      CODE     ---       #430
      00FF41D7H   LINE      CODE     ---       #431
      00FF41D9H   LINE      CODE     ---       #432
      00FF41D9H   LINE      CODE     ---       #433
      00FF41EDH   LINE      CODE     ---       #434
      00FF420BH   LINE      CODE     ---       #435
      00FF423AH   LINE      CODE     ---       #436
      00FF424EH   LINE      CODE     ---       #437
      00FF424EH   LINE      CODE     ---       #440
      00FF4254H   LINE      CODE     ---       #441
      ---         BLOCKEND  ---      ---       LVL=0

      00FF8692H   BLOCK     CODE     ---       LVL=0
      0001176CH   SYMBOL    XDATA    ---       fifo
      00011770H   SYMBOL    XDATA    INT       type
      00011772H   SYMBOL    XDATA    ---       buffer_addr
      00011776H   SYMBOL    XDATA    DWORD     siz
      00FF8692H   LINE      CODE     ---       #549
      00FF86A2H   LINE      CODE     ---       #551
      00FF86C4H   LINE      CODE     ---       #552
      00FF86C4H   LINE      CODE     ---       #554
      00FF86E3H   LINE      CODE     ---       #555
      00FF86F1H   LINE      CODE     ---       #556
      00FF8706H   LINE      CODE     ---       #557
      00FF871DH   LINE      CODE     ---       #558
      00FF8734H   LINE      CODE     ---       #559
      00FF8753H   LINE      CODE     ---       #560
      00FF8772H   LINE      CODE     ---       #561
      00FF8772H   LINE      CODE     ---       #562
      00FF8774H   LINE      CODE     ---       #563
      ---         BLOCKEND  ---      ---       LVL=0

      ---         MODULE    ---      ---       zf_common_font
      00FF36B4H   PUBLIC    CODE     ---       ascii_font_8x16
      000000D0H   SFRSYM    DATA     BYTE      PSW
      0000009DH   SFRSYM    DATA     BYTE      IRCBAND
      00000097H   SFRSYM    DATA     BYTE      AUXR2
      000000EFH   SFRSYM    DATA     BYTE      AUXINTIF
      000000FDH   SFRSYM    DATA     BYTE      S4CON
      000000ACH   SFRSYM    DATA     BYTE      S3CON
L251 LINKER/LOCATER V4.66.93.0                                                        05/01/2026  20:21:51  PAGE 51


      0000009AH   SFRSYM    DATA     BYTE      S2CON
      000000B7H   SFRSYM    DATA     BYTE      IPH
      000000CDH   SFRSYM    DATA     BYTE      SPSTAT
      000000DDH   SFRSYM    DATA     BYTE      T4T3M
      000000C1H   SFRSYM    DATA     BYTE      WDT_CONTR
      000000DFH   SFRSYM    DATA     BYTE      IP3
      000000F4H   SFRSYM    DATA     BYTE      USBCON
      000000B5H   SFRSYM    DATA     BYTE      IP2
      000000FFH   SFRSYM    DATA     BYTE      RSTCFG
      000000C7H   SFRSYM    DATA     BYTE      IAP_CONTR
      000000F9H   SFRSYM    DATA     BYTE      LINICR
      0000008EH   SFRSYM    DATA     BYTE      AUXR
      000000AFH   SFRSYM    DATA     BYTE      IE2
      00000088H   SFRSYM    DATA     BYTE      TCON
      00000089H   SFRSYM    DATA     BYTE      TMOD
      00000098H   SFRSYM    DATA     BYTE      SCON
      000000F1H   SFRSYM    DATA     BYTE      CANICR
      00000087H   SFRSYM    DATA     BYTE      PCON
      000000BCH   SFRSYM    DATA     BYTE      ADC_CONTR
      000000E7H   SFRSYM    DATA     BYTE      CMPCR2
      000000E6H   SFRSYM    DATA     BYTE      CMPCR1
      000000DEH   SFRSYM    DATA     BYTE      ADCCFG
      000000B8H   SFRSYM    DATA     BYTE      IP
      0000008FH   SFRSYM    DATA     BYTE      INTCLKO
      000000EEH   SFRSYM    DATA     BYTE      IP3H
      000000B6H   SFRSYM    DATA     BYTE      IP2H
      000000A8H   SFRSYM    DATA     BYTE      IE
      000000BBH   SFRSYM    DATA     BYTE      P_SW3
      000000BAH   SFRSYM    DATA     BYTE      P_SW2
      000000A2H   SFRSYM    DATA     BYTE      P_SW1
      000000CEH   SFRSYM    DATA     BYTE      SPCTL
      000000F8H   SFRSYM    DATA     BYTE      P7
      000000E8H   SFRSYM    DATA     BYTE      P6
      000000C8H   SFRSYM    DATA     BYTE      P5
      000000C0H   SFRSYM    DATA     BYTE      P4
      000000B0H   SFRSYM    DATA     BYTE      P3
      000000A0H   SFRSYM    DATA     BYTE      P2
      00000090H   SFRSYM    DATA     BYTE      P1
      00000080H   SFRSYM    DATA     BYTE      P0

      ---         MODULE    ---      ---       zf_common_function
      00010DB8H   PUBLIC    XDATA    BYTE      ?vsnprintf?BYTE
      00010C7AH   PUBLIC    XDATA    BYTE      ?zf_sprintf?BYTE
      000000D0H   SFRSYM    DATA     BYTE      PSW
      0000009DH   SFRSYM    DATA     BYTE      IRCBAND
      00000097H   SFRSYM    DATA     BYTE      AUXR2
      000000EFH   SFRSYM    DATA     BYTE      AUXINTIF
      000000FDH   SFRSYM    DATA     BYTE      S4CON
      000000ACH   SFRSYM    DATA     BYTE      S3CON
      0000009AH   SFRSYM    DATA     BYTE      S2CON
      000000B7H   SFRSYM    DATA     BYTE      IPH
      000000CDH   SFRSYM    DATA     BYTE      SPSTAT
      000000DDH   SFRSYM    DATA     BYTE      T4T3M
      000000C1H   SFRSYM    DATA     BYTE      WDT_CONTR
      000000DFH   SFRSYM    DATA     BYTE      IP3
      000000F4H   SFRSYM    DATA     BYTE      USBCON
      000000B5H   SFRSYM    DATA     BYTE      IP2
      000000FFH   SFRSYM    DATA     BYTE      RSTCFG
      000000C7H   SFRSYM    DATA     BYTE      IAP_CONTR
      000000F9H   SFRSYM    DATA     BYTE      LINICR
      0000008EH   SFRSYM    DATA     BYTE      AUXR
      000000AFH   SFRSYM    DATA     BYTE      IE2
      00000088H   SFRSYM    DATA     BYTE      TCON
      00000089H   SFRSYM    DATA     BYTE      TMOD
      00000098H   SFRSYM    DATA     BYTE      SCON
L251 LINKER/LOCATER V4.66.93.0                                                        05/01/2026  20:21:51  PAGE 52


      000000F1H   SFRSYM    DATA     BYTE      CANICR
      00000087H   SFRSYM    DATA     BYTE      PCON
      000000BCH   SFRSYM    DATA     BYTE      ADC_CONTR
      000000E7H   SFRSYM    DATA     BYTE      CMPCR2
      000000E6H   SFRSYM    DATA     BYTE      CMPCR1
      000000DEH   SFRSYM    DATA     BYTE      ADCCFG
      000000B8H   SFRSYM    DATA     BYTE      IP
      0000008FH   SFRSYM    DATA     BYTE      INTCLKO
      000000EEH   SFRSYM    DATA     BYTE      IP3H
      000000B6H   SFRSYM    DATA     BYTE      IP2H
      000000A8H   SFRSYM    DATA     BYTE      IE
      000000BBH   SFRSYM    DATA     BYTE      P_SW3
      000000BAH   SFRSYM    DATA     BYTE      P_SW2
      000000A2H   SFRSYM    DATA     BYTE      P_SW1
      000000CEH   SFRSYM    DATA     BYTE      SPCTL
      000000F8H   SFRSYM    DATA     BYTE      P7
      000000E8H   SFRSYM    DATA     BYTE      P6
      000000C8H   SFRSYM    DATA     BYTE      P5
      000000C0H   SFRSYM    DATA     BYTE      P4
      000000B0H   SFRSYM    DATA     BYTE      P3
      000000A0H   SFRSYM    DATA     BYTE      P2
      00000090H   SFRSYM    DATA     BYTE      P1
      00000080H   SFRSYM    DATA     BYTE      P0
      00FFB286H   SYMBOL    HCONST   ---       ?tpl?0001
      00FFB296H   SYMBOL    HCONST   ---       ?tpl?0002
      00011C7FH   SYMBOL    XDATA    DWORD     num1
      00011C83H   SYMBOL    XDATA    DWORD     num2
      00011EDEH   SYMBOL    XDATA    LONG      t
      00011B63H   SYMBOL    XDATA    ---       str
      00011B67H   SYMBOL    XDATA    BYTE      sign
      00011B68H   SYMBOL    XDATA    LONG      temp
      0001131CH   SYMBOL    XDATA    ---       str
      00011320H   SYMBOL    XDATA    LONG      number
      00011324H   SYMBOL    XDATA    ---       data_temp
      00011334H   SYMBOL    XDATA    BYTE      temp_bit
      00011335H   SYMBOL    XDATA    LONG      number_temp
      00011C87H   SYMBOL    XDATA    ---       str
      00011C8BH   SYMBOL    XDATA    DWORD     temp
      000113C0H   SYMBOL    XDATA    ---       str
      000113C4H   SYMBOL    XDATA    DWORD     number
      000113C8H   SYMBOL    XDATA    ---       data_temp
      000113D8H   SYMBOL    XDATA    BYTE      temp_bit
      00011609H   SYMBOL    XDATA    ---       str
      0001160DH   SYMBOL    XDATA    BYTE      sign
      0001160EH   SYMBOL    XDATA    FLOAT     temp
      00011612H   SYMBOL    XDATA    FLOAT     temp_point
      00011616H   SYMBOL    XDATA    FLOAT     point_bit
      00011138H   SYMBOL    XDATA    ---       str
      0001113CH   SYMBOL    XDATA    FLOAT     number
      00011140H   SYMBOL    XDATA    BYTE      point_bit
      00011141H   SYMBOL    XDATA    INT       data_int
      00011143H   SYMBOL    XDATA    INT       data_float
      00011145H   SYMBOL    XDATA    ---       data_temp
      00011155H   SYMBOL    XDATA    ---       data_temp_point
      00011161H   SYMBOL    XDATA    BYTE      temp_bit
      0001161AH   SYMBOL    XDATA    ---       str
      0001161EH   SYMBOL    XDATA    BYTE      sign
      0001161FH   SYMBOL    XDATA    FLOAT     temp
      00011623H   SYMBOL    XDATA    FLOAT     temp_point
      00011627H   SYMBOL    XDATA    FLOAT     point_bit
      00010F62H   SYMBOL    XDATA    ---       str
      00010F66H   SYMBOL    XDATA    FLOAT     number
      00010F6AH   SYMBOL    XDATA    BYTE      point_bit
      00010F6BH   SYMBOL    XDATA    INT       data_int
      00010F6DH   SYMBOL    XDATA    INT       data_float
L251 LINKER/LOCATER V4.66.93.0                                                        05/01/2026  20:21:51  PAGE 53


      00010F6FH   SYMBOL    XDATA    ---       data_temp
      00010F87H   SYMBOL    XDATA    ---       data_temp_point
      00010F99H   SYMBOL    XDATA    BYTE      temp_bit
      0001177AH   SYMBOL    XDATA    ---       str
      0001177EH   SYMBOL    XDATA    DWORD     str_len
      00011782H   SYMBOL    XDATA    DWORD     result_data
      00011786H   SYMBOL    XDATA    BYTE      temp
      00011787H   SYMBOL    XDATA    BYTE      flag
      000111DCH   SYMBOL    XDATA    ---       str
      000111E0H   SYMBOL    XDATA    DWORD     number
      000111E4H   SYMBOL    XDATA    ---       hex_index
      000111F4H   SYMBOL    XDATA    ---       data_temp
      00011200H   SYMBOL    XDATA    BYTE      temp_bit
      000114C2H   SYMBOL    XDATA    DWORD     dat
      000114C6H   SYMBOL    XDATA    ---       p
      000114CAH   SYMBOL    XDATA    BYTE      neg_type
      000114CBH   SYMBOL    XDATA    BYTE      radix
      000114CCH   SYMBOL    XDATA    LONG      neg_dat
      000114D0H   SYMBOL    XDATA    DWORD     pos_dat
      000114D4H   SYMBOL    XDATA    BYTE      temp_data
      000114D5H   SYMBOL    XDATA    BYTE      valid_num
      00011830H   SYMBOL    XDATA    ---       d_buff
      00011834H   SYMBOL    XDATA    DWORD     len
      00011838H   SYMBOL    XDATA    DWORD     i
      0001183CH   SYMBOL    XDATA    CHAR      temp_data
      00010DB8H   SYMBOL    XDATA    ---       buffer
      00010DBCH   SYMBOL    XDATA    DWORD     siz
      00010DC0H   SYMBOL    XDATA    ---       format
      00010DC4H   SYMBOL    XDATA    ---       args
      00010DC8H   SYMBOL    XDATA    DWORD     i
      00010DCCH   SYMBOL    XDATA    ---       ptr
      00010DD0H   SYMBOL    XDATA    INT       j
      00010DD2H   SYMBOL    XDATA    INT       num
      00010DD4H   SYMBOL    XDATA    ---       temp
      00010DE4H   SYMBOL    XDATA    INT       len
      00010DE6H   SYMBOL    XDATA    INT       is_negative
      00010DE8H   SYMBOL    XDATA    ---       str
      00010DECH   SYMBOL    XDATA    DWORD     num_x
      00010DF0H   SYMBOL    XDATA    ---       temp_x
      00010DF9H   SYMBOL    XDATA    ---       hex_digits
      00010E0AH   SYMBOL    XDATA    CHAR      t
      00010E0AH   SYMBOL    XDATA    CHAR      t
      00010C7AH   SYMBOL    XDATA    ---       buff
      00010C7EH   SYMBOL    XDATA    ---       format
      00010C82H   SYMBOL    XDATA    DWORD     buff_len
      00010C86H   SYMBOL    XDATA    ---       arg
      00010C8AH   SYMBOL    XDATA    CHAR      ret
      00010C8BH   SYMBOL    XDATA    CHAR      ch
      00010C8BH   SYMBOL    XDATA    ---       vstr
      00010CACH   SYMBOL    XDATA    LONG      ival
      00010CB0H   SYMBOL    XDATA    BYTE      vlen
      00010C8BH   SYMBOL    XDATA    ---       vstr
      00010CACH   SYMBOL    XDATA    FLOAT     ival
      00010CB0H   SYMBOL    XDATA    BYTE      vlen
      00010C8BH   SYMBOL    XDATA    ---       vstr
      00010CACH   SYMBOL    XDATA    DWORD     ival
      00010CB0H   SYMBOL    XDATA    BYTE      vlen
      00010C8BH   SYMBOL    XDATA    ---       vstr
      00010CACH   SYMBOL    XDATA    DWORD     ival
      00010CB0H   SYMBOL    XDATA    BYTE      vlen
      00010C8BH   SYMBOL    XDATA    ---       vstr
      00010CACH   SYMBOL    XDATA    DWORD     ival
      00010CB0H   SYMBOL    XDATA    BYTE      vlen
      00010C8BH   SYMBOL    XDATA    ---       pc
      00010C8BH   SYMBOL    XDATA    ---       vstr
L251 LINKER/LOCATER V4.66.93.0                                                        05/01/2026  20:21:51  PAGE 54


      00010CACH   SYMBOL    XDATA    DWORD     ival

      ---         MODULE    ---      ---       zf_common_typedef
      000112E0H   PUBLIC    XDATA    ---       tim11_irq_handler
      000112E2H   PUBLIC    XDATA    ---       uart1_irq_handler
      000112E4H   PUBLIC    XDATA    ---       uart2_irq_handler
      000112E6H   PUBLIC    XDATA    ---       uart3_irq_handler
      000112E8H   PUBLIC    XDATA    ---       uart4_irq_handler
      000112EAH   PUBLIC    XDATA    ---       tim0_irq_handler
      000112ECH   PUBLIC    XDATA    ---       int0_irq_handler
      000112EEH   PUBLIC    XDATA    ---       tim1_irq_handler
      000112F0H   PUBLIC    XDATA    ---       int1_irq_handler
      000112F2H   PUBLIC    XDATA    ---       tim2_irq_handler
      000112F4H   PUBLIC    XDATA    ---       int2_irq_handler
      000112F6H   PUBLIC    XDATA    ---       tim3_irq_handler
      000112F8H   PUBLIC    XDATA    ---       int3_irq_handler
      000112FAH   PUBLIC    XDATA    ---       tim4_irq_handler
      000112FCH   PUBLIC    XDATA    ---       int4_irq_handler
      000000D0H   SFRSYM    DATA     BYTE      PSW
      0000009DH   SFRSYM    DATA     BYTE      IRCBAND
      00000097H   SFRSYM    DATA     BYTE      AUXR2
      000000EFH   SFRSYM    DATA     BYTE      AUXINTIF
      000000FDH   SFRSYM    DATA     BYTE      S4CON
      000000ACH   SFRSYM    DATA     BYTE      S3CON
      0000009AH   SFRSYM    DATA     BYTE      S2CON
      000000B7H   SFRSYM    DATA     BYTE      IPH
      000000CDH   SFRSYM    DATA     BYTE      SPSTAT
      000000DDH   SFRSYM    DATA     BYTE      T4T3M
      000000C1H   SFRSYM    DATA     BYTE      WDT_CONTR
      000000DFH   SFRSYM    DATA     BYTE      IP3
      000000F4H   SFRSYM    DATA     BYTE      USBCON
      000000B5H   SFRSYM    DATA     BYTE      IP2
      000000FFH   SFRSYM    DATA     BYTE      RSTCFG
      000000C7H   SFRSYM    DATA     BYTE      IAP_CONTR
      000000F9H   SFRSYM    DATA     BYTE      LINICR
      0000008EH   SFRSYM    DATA     BYTE      AUXR
      000000AFH   SFRSYM    DATA     BYTE      IE2
      00000088H   SFRSYM    DATA     BYTE      TCON
      00000089H   SFRSYM    DATA     BYTE      TMOD
      00000098H   SFRSYM    DATA     BYTE      SCON
      000000F1H   SFRSYM    DATA     BYTE      CANICR
      00000087H   SFRSYM    DATA     BYTE      PCON
      000000BCH   SFRSYM    DATA     BYTE      ADC_CONTR
      000000E7H   SFRSYM    DATA     BYTE      CMPCR2
      000000E6H   SFRSYM    DATA     BYTE      CMPCR1
      000000DEH   SFRSYM    DATA     BYTE      ADCCFG
      000000B8H   SFRSYM    DATA     BYTE      IP
      0000008FH   SFRSYM    DATA     BYTE      INTCLKO
      000000EEH   SFRSYM    DATA     BYTE      IP3H
      000000B6H   SFRSYM    DATA     BYTE      IP2H
      000000A8H   SFRSYM    DATA     BYTE      IE
      000000BBH   SFRSYM    DATA     BYTE      P_SW3
      000000BAH   SFRSYM    DATA     BYTE      P_SW2
      000000A2H   SFRSYM    DATA     BYTE      P_SW1
      000000CEH   SFRSYM    DATA     BYTE      SPCTL
      000000F8H   SFRSYM    DATA     BYTE      P7
      000000E8H   SFRSYM    DATA     BYTE      P6
      000000C8H   SFRSYM    DATA     BYTE      P5
      000000C0H   SFRSYM    DATA     BYTE      P4
      000000B0H   SFRSYM    DATA     BYTE      P3
      000000A0H   SFRSYM    DATA     BYTE      P2
      00000090H   SFRSYM    DATA     BYTE      P1
      00000080H   SFRSYM    DATA     BYTE      P0

      ---         MODULE    ---      ---       zf_common_interrupt
L251 LINKER/LOCATER V4.66.93.0                                                        05/01/2026  20:21:51  PAGE 55


      00FF0006H   PUBLIC    CODE     ---       interrupt_global_disable
      00FF000EH   PUBLIC    CODE     ---       interrupt_global_enable
      000000D0H   SFRSYM    DATA     BYTE      PSW
      0000009DH   SFRSYM    DATA     BYTE      IRCBAND
      00000097H   SFRSYM    DATA     BYTE      AUXR2
      000000EFH   SFRSYM    DATA     BYTE      AUXINTIF
      000000FDH   SFRSYM    DATA     BYTE      S4CON
      000000ACH   SFRSYM    DATA     BYTE      S3CON
      0000009AH   SFRSYM    DATA     BYTE      S2CON
      000000B7H   SFRSYM    DATA     BYTE      IPH
      000000CDH   SFRSYM    DATA     BYTE      SPSTAT
      000000DDH   SFRSYM    DATA     BYTE      T4T3M
      000000C1H   SFRSYM    DATA     BYTE      WDT_CONTR
      000000DFH   SFRSYM    DATA     BYTE      IP3
      000000F4H   SFRSYM    DATA     BYTE      USBCON
      000000B5H   SFRSYM    DATA     BYTE      IP2
      000000FFH   SFRSYM    DATA     BYTE      RSTCFG
      000000C7H   SFRSYM    DATA     BYTE      IAP_CONTR
      000000F9H   SFRSYM    DATA     BYTE      LINICR
      0000008EH   SFRSYM    DATA     BYTE      AUXR
      000000AFH   SFRSYM    DATA     BYTE      IE2
      00000088H   SFRSYM    DATA     BYTE      TCON
      00000089H   SFRSYM    DATA     BYTE      TMOD
      00000098H   SFRSYM    DATA     BYTE      SCON
      000000F1H   SFRSYM    DATA     BYTE      CANICR
      00000087H   SFRSYM    DATA     BYTE      PCON
      000000BCH   SFRSYM    DATA     BYTE      ADC_CONTR
      000000E7H   SFRSYM    DATA     BYTE      CMPCR2
      000000E6H   SFRSYM    DATA     BYTE      CMPCR1
      000000DEH   SFRSYM    DATA     BYTE      ADCCFG
      000000B8H   SFRSYM    DATA     BYTE      IP
      0000008FH   SFRSYM    DATA     BYTE      INTCLKO
      000000EEH   SFRSYM    DATA     BYTE      IP3H
      000000B6H   SFRSYM    DATA     BYTE      IP2H
      000000A8H   SFRSYM    DATA     BYTE      IE
      000000BBH   SFRSYM    DATA     BYTE      P_SW3
      000000BAH   SFRSYM    DATA     BYTE      P_SW2
      000000A2H   SFRSYM    DATA     BYTE      P_SW1
      000000CEH   SFRSYM    DATA     BYTE      SPCTL
      000000F8H   SFRSYM    DATA     BYTE      P7
      000000A8H.7 SFRSYM    DATA     BIT       EA
      000000E8H   SFRSYM    DATA     BYTE      P6
      000000C8H   SFRSYM    DATA     BYTE      P5
      000000C0H   SFRSYM    DATA     BYTE      P4
      000000B0H   SFRSYM    DATA     BYTE      P3
      000000A0H   SFRSYM    DATA     BYTE      P2
      00000090H   SFRSYM    DATA     BYTE      P1
      00000080H   SFRSYM    DATA     BYTE      P0
      00011F72H   SYMBOL    XDATA    INT       irqn
      00011F74H   SYMBOL    XDATA    BYTE      priority

      00FF0006H   BLOCK     CODE     ---       LVL=0
      00FF0006H   LINE      CODE     ---       #75
      00FF0006H   LINE      CODE     ---       #77
      00FF0009H   LINE      CODE     ---       #78
      ---         BLOCKEND  ---      ---       LVL=0

      00FF000EH   BLOCK     CODE     ---       LVL=0
      00FF000EH   LINE      CODE     ---       #88
      00FF000EH   LINE      CODE     ---       #90
      00FF0011H   LINE      CODE     ---       #91
      ---         BLOCKEND  ---      ---       LVL=0

      ---         MODULE    ---      ---       zf_driver_adc
      00FF9A62H   PUBLIC    CODE     ---       adc_convert
L251 LINKER/LOCATER V4.66.93.0                                                        05/01/2026  20:21:51  PAGE 56


      00FF8933H   PUBLIC    CODE     ---       adc_init
      00011A8AH   PUBLIC    XDATA    ---       adc_average
      00000094H   SFRSYM    DATA     BYTE      P0M0
      000000D0H   SFRSYM    DATA     BYTE      PSW
      0000009DH   SFRSYM    DATA     BYTE      IRCBAND
      00000097H   SFRSYM    DATA     BYTE      AUXR2
      000000EFH   SFRSYM    DATA     BYTE      AUXINTIF
      000000FDH   SFRSYM    DATA     BYTE      S4CON
      000000ACH   SFRSYM    DATA     BYTE      S3CON
      0000009AH   SFRSYM    DATA     BYTE      S2CON
      000000B7H   SFRSYM    DATA     BYTE      IPH
      000000CDH   SFRSYM    DATA     BYTE      SPSTAT
      000000BEH   SFRSYM    DATA     BYTE      ADC_RESL
      000000DDH   SFRSYM    DATA     BYTE      T4T3M
      000000C1H   SFRSYM    DATA     BYTE      WDT_CONTR
      000000DFH   SFRSYM    DATA     BYTE      IP3
      000000F4H   SFRSYM    DATA     BYTE      USBCON
      000000B5H   SFRSYM    DATA     BYTE      IP2
      000000FFH   SFRSYM    DATA     BYTE      RSTCFG
      000000C7H   SFRSYM    DATA     BYTE      IAP_CONTR
      000000F9H   SFRSYM    DATA     BYTE      LINICR
      0000008EH   SFRSYM    DATA     BYTE      AUXR
      000000AFH   SFRSYM    DATA     BYTE      IE2
      00000088H   SFRSYM    DATA     BYTE      TCON
      00000089H   SFRSYM    DATA     BYTE      TMOD
      00000098H   SFRSYM    DATA     BYTE      SCON
      000000F1H   SFRSYM    DATA     BYTE      CANICR
      00000087H   SFRSYM    DATA     BYTE      PCON
      000000BCH   SFRSYM    DATA     BYTE      ADC_CONTR
      000000E7H   SFRSYM    DATA     BYTE      CMPCR2
      000000E6H   SFRSYM    DATA     BYTE      CMPCR1
      000000DEH   SFRSYM    DATA     BYTE      ADCCFG
      000000B8H   SFRSYM    DATA     BYTE      IP
      0000008FH   SFRSYM    DATA     BYTE      INTCLKO
      000000EEH   SFRSYM    DATA     BYTE      IP3H
      000000B6H   SFRSYM    DATA     BYTE      IP2H
      000000BDH   SFRSYM    DATA     BYTE      ADC_RES
      000000A8H   SFRSYM    DATA     BYTE      IE
      000000BBH   SFRSYM    DATA     BYTE      P_SW3
      000000BAH   SFRSYM    DATA     BYTE      P_SW2
      000000A2H   SFRSYM    DATA     BYTE      P_SW1
      000000CEH   SFRSYM    DATA     BYTE      SPCTL
      000000F8H   SFRSYM    DATA     BYTE      P7
      000000E8H   SFRSYM    DATA     BYTE      P6
      000000C8H   SFRSYM    DATA     BYTE      P5
      000000C0H   SFRSYM    DATA     BYTE      P4
      000000B0H   SFRSYM    DATA     BYTE      P3
      000000A0H   SFRSYM    DATA     BYTE      P2
      00000090H   SFRSYM    DATA     BYTE      P1
      00000080H   SFRSYM    DATA     BYTE      P0
      00000091H   SFRSYM    DATA     BYTE      P1M1
      00000092H   SFRSYM    DATA     BYTE      P1M0
      00000093H   SFRSYM    DATA     BYTE      P0M1
      00011A89H   SYMBOL    XDATA    BYTE      adc_resolution
      00011AE1H   SYMBOL    XDATA    INT       ch
      00011AE3H   SYMBOL    XDATA    BYTE      count
      00011AE4H   SYMBOL    XDATA    BYTE      i
      00011AE5H   SYMBOL    XDATA    WORD      sum
      00011AE7H   SYMBOL    XDATA    WORD      min
      00011AE9H   SYMBOL    XDATA    WORD      max

      00FF9A62H   BLOCK     CODE     ---       LVL=0
      00011EE2H   SYMBOL    XDATA    INT       ch
      00FF9A68H   BLOCK     CODE     NEAR LAB  LVL=1
      00011EE4H   SYMBOL    XDATA    WORD      adc_value
L251 LINKER/LOCATER V4.66.93.0                                                        05/01/2026  20:21:51  PAGE 57


      ---         BLOCKEND  ---      ---       LVL=1
      00FF9A62H   LINE      CODE     ---       #81
      00FF9A68H   LINE      CODE     ---       #82
      00FF9A68H   LINE      CODE     ---       #85
      00FF9A6BH   LINE      CODE     ---       #86
      00FF9A75H   LINE      CODE     ---       #88
      00FF9A78H   LINE      CODE     ---       #90
      00FF9A7DH   LINE      CODE     ---       #92
      00FF9A80H   LINE      CODE     ---       #94
      00FF9A8AH   LINE      CODE     ---       #95
      00FF9A97H   LINE      CODE     ---       #96
      00FF9AA6H   LINE      CODE     ---       #98
      00FF9AA9H   LINE      CODE     ---       #99
      00FF9AACH   LINE      CODE     ---       #101
      00FF9AC0H   LINE      CODE     ---       #104
      00FF9AC6H   LINE      CODE     ---       #105
      ---         BLOCKEND  ---      ---       LVL=0

      00FF8933H   BLOCK     CODE     ---       LVL=0
      00011EE6H   SYMBOL    XDATA    INT       ch
      00011EE8H   SYMBOL    XDATA    INT       resolution
      00FF8933H   LINE      CODE     ---       #114
      00FF893FH   LINE      CODE     ---       #116
      00FF8942H   LINE      CODE     ---       #118
      00FF8945H   LINE      CODE     ---       #119
      00FF894FH   LINE      CODE     ---       #121
      00FF8963H   LINE      CODE     ---       #124
      00FF8980H   LINE      CODE     ---       #125
      00FF899BH   LINE      CODE     ---       #126
      00FF899DH   LINE      CODE     ---       #127
      00FF89AFH   LINE      CODE     ---       #130
      00FF89CCH   LINE      CODE     ---       #131
      00FF89E7H   LINE      CODE     ---       #132
      00FF89E7H   LINE      CODE     ---       #134
      00FF89EAH   LINE      CODE     ---       #136
      00FF89EDH   LINE      CODE     ---       #138
      00FF89F7H   LINE      CODE     ---       #139
      ---         BLOCKEND  ---      ---       LVL=0

      ---         MODULE    ---      ---       zf_driver_delay
      00FF9DB5H   PUBLIC    CODE     ---       system_delay_init
      00FFA3AFH   PUBLIC    CODE     ---       system_delay_ms
      00FFA3D4H   PUBLIC    CODE     ---       system_delay_us
      000000D0H   SFRSYM    DATA     BYTE      PSW
      0000009DH   SFRSYM    DATA     BYTE      IRCBAND
      00000097H   SFRSYM    DATA     BYTE      AUXR2
      000000EFH   SFRSYM    DATA     BYTE      AUXINTIF
      000000FDH   SFRSYM    DATA     BYTE      S4CON
      000000ACH   SFRSYM    DATA     BYTE      S3CON
      0000009AH   SFRSYM    DATA     BYTE      S2CON
      000000B7H   SFRSYM    DATA     BYTE      IPH
      000000CDH   SFRSYM    DATA     BYTE      SPSTAT
      000000DDH   SFRSYM    DATA     BYTE      T4T3M
      000000C1H   SFRSYM    DATA     BYTE      WDT_CONTR
      000000DFH   SFRSYM    DATA     BYTE      IP3
      000000F4H   SFRSYM    DATA     BYTE      USBCON
      000000B5H   SFRSYM    DATA     BYTE      IP2
      000000FFH   SFRSYM    DATA     BYTE      RSTCFG
      000000C7H   SFRSYM    DATA     BYTE      IAP_CONTR
      000000F9H   SFRSYM    DATA     BYTE      LINICR
      0000008EH   SFRSYM    DATA     BYTE      AUXR
      000000AFH   SFRSYM    DATA     BYTE      IE2
      00000088H   SFRSYM    DATA     BYTE      TCON
      00000089H   SFRSYM    DATA     BYTE      TMOD
      00000098H   SFRSYM    DATA     BYTE      SCON
L251 LINKER/LOCATER V4.66.93.0                                                        05/01/2026  20:21:51  PAGE 58


      000000F1H   SFRSYM    DATA     BYTE      CANICR
      00000087H   SFRSYM    DATA     BYTE      PCON
      000000BCH   SFRSYM    DATA     BYTE      ADC_CONTR
      000000E7H   SFRSYM    DATA     BYTE      CMPCR2
      000000E6H   SFRSYM    DATA     BYTE      CMPCR1
      000000DEH   SFRSYM    DATA     BYTE      ADCCFG
      000000B8H   SFRSYM    DATA     BYTE      IP
      0000008FH   SFRSYM    DATA     BYTE      INTCLKO
      000000EEH   SFRSYM    DATA     BYTE      IP3H
      000000B6H   SFRSYM    DATA     BYTE      IP2H
      000000A8H   SFRSYM    DATA     BYTE      IE
      000000BBH   SFRSYM    DATA     BYTE      P_SW3
      000000BAH   SFRSYM    DATA     BYTE      P_SW2
      000000A2H   SFRSYM    DATA     BYTE      P_SW1
      000000CEH   SFRSYM    DATA     BYTE      SPCTL
      000000F8H   SFRSYM    DATA     BYTE      P7
      000000E8H   SFRSYM    DATA     BYTE      P6
      000000C8H   SFRSYM    DATA     BYTE      P5
      000000C0H   SFRSYM    DATA     BYTE      P4
      000000B0H   SFRSYM    DATA     BYTE      P3
      000000A0H   SFRSYM    DATA     BYTE      P2
      00000090H   SFRSYM    DATA     BYTE      P1
      00000080H   SFRSYM    DATA     BYTE      P0
      00FFA4CDH   SYMBOL    CODE     ---       delay_cycles
      00011EEAH   SYMBOL    XDATA    WORD      zf_delay_1ms
      00011EECH   SYMBOL    XDATA    WORD      zf_delay_1us

      00FFA4CDH   BLOCK     CODE     ---       LVL=0
      00011F96H   SYMBOL    XDATA    WORD      cycles
      00FFA4CDH   LINE      CODE     ---       #44
      00FFA4D3H   LINE      CODE     ---       #47
      00FFA4D3H   LINE      CODE     ---       #50
      00FFA4EAH   LINE      CODE     ---       #51
      ---         BLOCKEND  ---      ---       LVL=0

      00FF9DB5H   BLOCK     CODE     ---       LVL=0
      00FF9DB5H   LINE      CODE     ---       #59
      00FF9DB5H   LINE      CODE     ---       #61
      00FF9DCCH   LINE      CODE     ---       #62
      00FF9DE7H   LINE      CODE     ---       #63
      00FF9E0CH   LINE      CODE     ---       #64
      ---         BLOCKEND  ---      ---       LVL=0

      00FFA3AFH   BLOCK     CODE     ---       LVL=0
      00011F98H   SYMBOL    XDATA    WORD      ms
      00FFA3AFH   LINE      CODE     ---       #72
      00FFA3B5H   LINE      CODE     ---       #74
      00FFA3B5H   LINE      CODE     ---       #76
      00FFA3BEH   LINE      CODE     ---       #77
      00FFA3D3H   LINE      CODE     ---       #78
      ---         BLOCKEND  ---      ---       LVL=0

      00FFA3D4H   BLOCK     CODE     ---       LVL=0
      00011F9AH   SYMBOL    XDATA    WORD      us
      00FFA3D4H   LINE      CODE     ---       #86
      00FFA3DAH   LINE      CODE     ---       #88
      00FFA3DAH   LINE      CODE     ---       #90
      00FFA3E3H   LINE      CODE     ---       #91
      00FFA3F8H   LINE      CODE     ---       #92
      ---         BLOCKEND  ---      ---       LVL=0

      ---         MODULE    ---      ---       zf_driver_eeprom
      00011AEBH   PUBLIC    XDATA    BYTE      ?iap_read_buff?BYTE
      00011AF5H   PUBLIC    XDATA    BYTE      ?iap_write_buff?BYTE
      000000D0H   SFRSYM    DATA     BYTE      PSW
L251 LINKER/LOCATER V4.66.93.0                                                        05/01/2026  20:21:51  PAGE 59


      0000009DH   SFRSYM    DATA     BYTE      IRCBAND
      00000097H   SFRSYM    DATA     BYTE      AUXR2
      000000C6H   SFRSYM    DATA     BYTE      IAP_TRIG
      000000EFH   SFRSYM    DATA     BYTE      AUXINTIF
      000000FDH   SFRSYM    DATA     BYTE      S4CON
      000000ACH   SFRSYM    DATA     BYTE      S3CON
      0000009AH   SFRSYM    DATA     BYTE      S2CON
      000000B7H   SFRSYM    DATA     BYTE      IPH
      000000CDH   SFRSYM    DATA     BYTE      SPSTAT
      000000DDH   SFRSYM    DATA     BYTE      T4T3M
      000000C1H   SFRSYM    DATA     BYTE      WDT_CONTR
      000000C2H   SFRSYM    DATA     BYTE      IAP_DATA
      000000DFH   SFRSYM    DATA     BYTE      IP3
      000000F4H   SFRSYM    DATA     BYTE      USBCON
      000000B5H   SFRSYM    DATA     BYTE      IP2
      000000FFH   SFRSYM    DATA     BYTE      RSTCFG
      000000C7H   SFRSYM    DATA     BYTE      IAP_CONTR
      000000F9H   SFRSYM    DATA     BYTE      LINICR
      0000008EH   SFRSYM    DATA     BYTE      AUXR
      000000AFH   SFRSYM    DATA     BYTE      IE2
      00000088H   SFRSYM    DATA     BYTE      TCON
      00000089H   SFRSYM    DATA     BYTE      TMOD
      00000098H   SFRSYM    DATA     BYTE      SCON
      000000F5H   SFRSYM    DATA     BYTE      IAP_TPS
      000000F1H   SFRSYM    DATA     BYTE      CANICR
      00000087H   SFRSYM    DATA     BYTE      PCON
      000000BCH   SFRSYM    DATA     BYTE      ADC_CONTR
      000000E7H   SFRSYM    DATA     BYTE      CMPCR2
      000000E6H   SFRSYM    DATA     BYTE      CMPCR1
      000000C4H   SFRSYM    DATA     BYTE      IAP_ADDRL
      000000C3H   SFRSYM    DATA     BYTE      IAP_ADDRH
      000000F6H   SFRSYM    DATA     BYTE      IAP_ADDRE
      000000DEH   SFRSYM    DATA     BYTE      ADCCFG
      000000B8H   SFRSYM    DATA     BYTE      IP
      0000008FH   SFRSYM    DATA     BYTE      INTCLKO
      000000EEH   SFRSYM    DATA     BYTE      IP3H
      000000B6H   SFRSYM    DATA     BYTE      IP2H
      000000C5H   SFRSYM    DATA     BYTE      IAP_CMD
      000000A8H   SFRSYM    DATA     BYTE      IE
      000000BBH   SFRSYM    DATA     BYTE      P_SW3
      000000BAH   SFRSYM    DATA     BYTE      P_SW2
      000000A2H   SFRSYM    DATA     BYTE      P_SW1
      000000CEH   SFRSYM    DATA     BYTE      SPCTL
      000000F8H   SFRSYM    DATA     BYTE      P7
      000000A8H.7 SFRSYM    DATA     BIT       EA
      000000E8H   SFRSYM    DATA     BYTE      P6
      000000C8H   SFRSYM    DATA     BYTE      P5
      000000C0H   SFRSYM    DATA     BYTE      P4
      000000B0H   SFRSYM    DATA     BYTE      P3
      000000A0H   SFRSYM    DATA     BYTE      P2
      00000090H   SFRSYM    DATA     BYTE      P1
      00000080H   SFRSYM    DATA     BYTE      P0
      00FFAA85H   SYMBOL    HCONST   ---       ?tpl?0001
      00011FE1H   SYMBOL    XDATA    BYTE      write_time
      00011E65H   SYMBOL    XDATA    DWORD     addr
      00011E69H   SYMBOL    XDATA    BYTE      temp
      00000020H.0 SYMBOL    BIT      BIT       flag
      00011E6AH   SYMBOL    XDATA    DWORD     addr
      00011E6EH   SYMBOL    XDATA    BYTE      byte
      00000020H.1 SYMBOL    BIT      BIT       flag
      00011AEBH   SYMBOL    XDATA    DWORD     addr
      00011AEFH   SYMBOL    XDATA    ---       buf
      00011AF3H   SYMBOL    XDATA    WORD      len
      00011AF5H   SYMBOL    XDATA    DWORD     addr
      00011AF9H   SYMBOL    XDATA    ---       buf
L251 LINKER/LOCATER V4.66.93.0                                                        05/01/2026  20:21:51  PAGE 60


      00011AFDH   SYMBOL    XDATA    WORD      len
      00011EEEH   SYMBOL    XDATA    DWORD     addr
      00000020H.2 SYMBOL    BIT      BIT       flag
      00010000H   SYMBOL    XDATA    WORD      addr
      00010002H   SYMBOL    XDATA    ---       buf
      00010006H   SYMBOL    XDATA    WORD      len
      00010008H   SYMBOL    XDATA    ---       temp
      00010208H   SYMBOL    XDATA    WORD      i

      ---         MODULE    ---      ---       zf_driver_encoder
      00FF83ADH   PUBLIC    CODE     ---       encoder_get_count
      00FF82A0H   PUBLIC    CODE     ---       encoder_dir_init
      00FF9AC7H   PUBLIC    CODE     ---       encoder_clear_count
      000000D0H   SFRSYM    DATA     BYTE      PSW
      0000009DH   SFRSYM    DATA     BYTE      IRCBAND
      00000097H   SFRSYM    DATA     BYTE      AUXR2
      000000EFH   SFRSYM    DATA     BYTE      AUXINTIF
      000000FDH   SFRSYM    DATA     BYTE      S4CON
      000000ACH   SFRSYM    DATA     BYTE      S3CON
      0000009AH   SFRSYM    DATA     BYTE      S2CON
      000000B7H   SFRSYM    DATA     BYTE      IPH
      000000CDH   SFRSYM    DATA     BYTE      SPSTAT
      000000DDH   SFRSYM    DATA     BYTE      T4T3M
      000000C1H   SFRSYM    DATA     BYTE      WDT_CONTR
      00000088H.6 SFRSYM    DATA     BIT       TR1
      00000088H.4 SFRSYM    DATA     BIT       TR0
      000000D3H   SFRSYM    DATA     BYTE      T4L
      000000D5H   SFRSYM    DATA     BYTE      T3L
      000000D7H   SFRSYM    DATA     BYTE      T2L
      0000008BH   SFRSYM    DATA     BYTE      TL1
      0000008AH   SFRSYM    DATA     BYTE      TL0
      000000D2H   SFRSYM    DATA     BYTE      T4H
      000000D4H   SFRSYM    DATA     BYTE      T3H
      000000D6H   SFRSYM    DATA     BYTE      T2H
      0000008DH   SFRSYM    DATA     BYTE      TH1
      0000008CH   SFRSYM    DATA     BYTE      TH0
      000000DFH   SFRSYM    DATA     BYTE      IP3
      000000F4H   SFRSYM    DATA     BYTE      USBCON
      000000B5H   SFRSYM    DATA     BYTE      IP2
      000000FFH   SFRSYM    DATA     BYTE      RSTCFG
      000000C7H   SFRSYM    DATA     BYTE      IAP_CONTR
      000000F9H   SFRSYM    DATA     BYTE      LINICR
      0000008EH   SFRSYM    DATA     BYTE      AUXR
      000000AFH   SFRSYM    DATA     BYTE      IE2
      00000088H   SFRSYM    DATA     BYTE      TCON
      00000089H   SFRSYM    DATA     BYTE      TMOD
      00000098H   SFRSYM    DATA     BYTE      SCON
      000000F1H   SFRSYM    DATA     BYTE      CANICR
      00000087H   SFRSYM    DATA     BYTE      PCON
      000000BCH   SFRSYM    DATA     BYTE      ADC_CONTR
      000000E7H   SFRSYM    DATA     BYTE      CMPCR2
      000000E6H   SFRSYM    DATA     BYTE      CMPCR1
      000000DEH   SFRSYM    DATA     BYTE      ADCCFG
      000000B8H   SFRSYM    DATA     BYTE      IP
      0000008FH   SFRSYM    DATA     BYTE      INTCLKO
      000000EEH   SFRSYM    DATA     BYTE      IP3H
      000000B6H   SFRSYM    DATA     BYTE      IP2H
      000000A8H   SFRSYM    DATA     BYTE      IE
      000000BBH   SFRSYM    DATA     BYTE      P_SW3
      000000BAH   SFRSYM    DATA     BYTE      P_SW2
      000000A2H   SFRSYM    DATA     BYTE      P_SW1
      000000CEH   SFRSYM    DATA     BYTE      SPCTL
      000000F8H   SFRSYM    DATA     BYTE      P7
      000000E8H   SFRSYM    DATA     BYTE      P6
      000000C8H   SFRSYM    DATA     BYTE      P5
L251 LINKER/LOCATER V4.66.93.0                                                        05/01/2026  20:21:51  PAGE 61


      000000C0H   SFRSYM    DATA     BYTE      P4
      000000B0H   SFRSYM    DATA     BYTE      P3
      000000A0H   SFRSYM    DATA     BYTE      P2
      00000090H   SFRSYM    DATA     BYTE      P1
      00000080H   SFRSYM    DATA     BYTE      P0
      00011D87H   SYMBOL    XDATA    ---       encoder_dir_pin

      00FF83ADH   BLOCK     CODE     ---       LVL=0
      00011EF2H   SYMBOL    XDATA    INT       encoder_n
      00FF83B3H   BLOCK     CODE     NEAR LAB  LVL=1
      00011EF4H   SYMBOL    XDATA    INT       dat
      ---         BLOCKEND  ---      ---       LVL=1
      00FF83ADH   LINE      CODE     ---       #47
      00FF83B3H   LINE      CODE     ---       #48
      00FF83B3H   LINE      CODE     ---       #49
      00FF83BBH   LINE      CODE     ---       #50
      00FF83DBH   LINE      CODE     ---       #52
      00FF83DBH   LINE      CODE     ---       #54
      00FF83E9H   LINE      CODE     ---       #55
      00FF83FBH   LINE      CODE     ---       #56
      00FF83FEH   LINE      CODE     ---       #58
      00FF83FEH   LINE      CODE     ---       #60
      00FF840CH   LINE      CODE     ---       #61
      00FF841EH   LINE      CODE     ---       #62
      00FF8420H   LINE      CODE     ---       #64
      00FF8420H   LINE      CODE     ---       #66
      00FF842EH   LINE      CODE     ---       #67
      00FF8440H   LINE      CODE     ---       #68
      00FF8442H   LINE      CODE     ---       #70
      00FF8442H   LINE      CODE     ---       #72
      00FF8450H   LINE      CODE     ---       #73
      00FF8462H   LINE      CODE     ---       #74
      00FF8464H   LINE      CODE     ---       #76
      00FF8464H   LINE      CODE     ---       #78
      00FF8472H   LINE      CODE     ---       #79
      00FF8484H   LINE      CODE     ---       #80
      00FF8484H   LINE      CODE     ---       #82
      00FF8484H   LINE      CODE     ---       #83
      00FF84A1H   LINE      CODE     ---       #85
      00FF84AFH   LINE      CODE     ---       #86
      00FF84AFH   LINE      CODE     ---       #87
      00FF84B5H   LINE      CODE     ---       #88
      ---         BLOCKEND  ---      ---       LVL=0

      00FF9AC7H   BLOCK     CODE     ---       LVL=0
      00011F9CH   SYMBOL    XDATA    INT       encoder_n
      00FF9AC7H   LINE      CODE     ---       #97
      00FF9ACDH   LINE      CODE     ---       #99
      00FF9AE7H   LINE      CODE     ---       #101
      00FF9AE7H   LINE      CODE     ---       #103
      00FF9AEAH   LINE      CODE     ---       #104
      00FF9AEDH   LINE      CODE     ---       #105
      00FF9AF0H   LINE      CODE     ---       #106
      00FF9AF3H   LINE      CODE     ---       #107
      00FF9AF5H   LINE      CODE     ---       #109
      00FF9AF5H   LINE      CODE     ---       #111
      00FF9AF8H   LINE      CODE     ---       #112
      00FF9AFBH   LINE      CODE     ---       #113
      00FF9AFEH   LINE      CODE     ---       #114
      00FF9B01H   LINE      CODE     ---       #115
      00FF9B03H   LINE      CODE     ---       #117
      00FF9B03H   LINE      CODE     ---       #119
      00FF9B06H   LINE      CODE     ---       #120
      00FF9B09H   LINE      CODE     ---       #121
      00FF9B0CH   LINE      CODE     ---       #122
L251 LINKER/LOCATER V4.66.93.0                                                        05/01/2026  20:21:51  PAGE 62


      00FF9B0FH   LINE      CODE     ---       #123
      00FF9B11H   LINE      CODE     ---       #125
      00FF9B11H   LINE      CODE     ---       #127
      00FF9B14H   LINE      CODE     ---       #128
      00FF9B17H   LINE      CODE     ---       #129
      00FF9B1AH   LINE      CODE     ---       #130
      00FF9B1DH   LINE      CODE     ---       #131
      00FF9B1FH   LINE      CODE     ---       #133
      00FF9B1FH   LINE      CODE     ---       #135
      00FF9B22H   LINE      CODE     ---       #136
      00FF9B25H   LINE      CODE     ---       #137
      00FF9B28H   LINE      CODE     ---       #138
      00FF9B2BH   LINE      CODE     ---       #139
      00FF9B2BH   LINE      CODE     ---       #141
      00FF9B2BH   LINE      CODE     ---       #142
      ---         BLOCKEND  ---      ---       LVL=0

      00FF82A0H   BLOCK     CODE     ---       LVL=0
      00011D8DH   SYMBOL    XDATA    INT       encoder_n
      00011D8FH   SYMBOL    XDATA    INT       dir_pin
      00011D91H   SYMBOL    XDATA    INT       lsb_pin
      00FF82A0H   LINE      CODE     ---       #154
      00FF82B2H   LINE      CODE     ---       #160
      00FF82CEH   LINE      CODE     ---       #161
      00FF82F0H   LINE      CODE     ---       #162
      00FF8318H   LINE      CODE     ---       #164
      00FF8328H   LINE      CODE     ---       #165
      00FF833EH   LINE      CODE     ---       #166
      00FF8357H   LINE      CODE     ---       #167
      00FF8371H   LINE      CODE     ---       #169
      00FF8371H   LINE      CODE     ---       #171
      00FF8374H   LINE      CODE     ---       #172
      00FF8377H   LINE      CODE     ---       #173
      00FF837AH   LINE      CODE     ---       #174
      00FF837DH   LINE      CODE     ---       #175
      00FF837FH   LINE      CODE     ---       #177
      00FF837FH   LINE      CODE     ---       #179
      00FF8382H   LINE      CODE     ---       #180
      00FF8385H   LINE      CODE     ---       #181
      00FF8388H   LINE      CODE     ---       #182
      00FF838BH   LINE      CODE     ---       #183
      00FF838DH   LINE      CODE     ---       #185
      00FF838DH   LINE      CODE     ---       #187
      00FF8390H   LINE      CODE     ---       #188
      00FF8393H   LINE      CODE     ---       #189
      00FF8396H   LINE      CODE     ---       #190
      00FF8398H   LINE      CODE     ---       #192
      00FF8398H   LINE      CODE     ---       #194
      00FF839BH   LINE      CODE     ---       #195
      00FF839EH   LINE      CODE     ---       #196
      00FF83A1H   LINE      CODE     ---       #197
      00FF83A3H   LINE      CODE     ---       #199
      00FF83A3H   LINE      CODE     ---       #201
      00FF83A6H   LINE      CODE     ---       #202
      00FF83A9H   LINE      CODE     ---       #203
      00FF83ACH   LINE      CODE     ---       #204
      00FF83ACH   LINE      CODE     ---       #206
      00FF83ACH   LINE      CODE     ---       #207
      ---         BLOCKEND  ---      ---       LVL=0

      ---         MODULE    ---      ---       zf_driver_exti
      000000D0H   SFRSYM    DATA     BYTE      PSW
      0000009DH   SFRSYM    DATA     BYTE      IRCBAND
      00000097H   SFRSYM    DATA     BYTE      AUXR2
      000000EFH   SFRSYM    DATA     BYTE      AUXINTIF
L251 LINKER/LOCATER V4.66.93.0                                                        05/01/2026  20:21:51  PAGE 63


      000000FDH   SFRSYM    DATA     BYTE      S4CON
      000000ACH   SFRSYM    DATA     BYTE      S3CON
      0000009AH   SFRSYM    DATA     BYTE      S2CON
      000000B7H   SFRSYM    DATA     BYTE      IPH
      000000CDH   SFRSYM    DATA     BYTE      SPSTAT
      000000DDH   SFRSYM    DATA     BYTE      T4T3M
      000000C1H   SFRSYM    DATA     BYTE      WDT_CONTR
      0000008FH.6 SFRSYM    DATA     BIT       EX4
      0000008FH.5 SFRSYM    DATA     BIT       EX3
      0000008FH.4 SFRSYM    DATA     BIT       EX2
      00000088H.2 SFRSYM    DATA     BIT       IT1
      000000A8H.2 SFRSYM    DATA     BIT       EX1
      00000088H.0 SFRSYM    DATA     BIT       IT0
      000000A8H.0 SFRSYM    DATA     BIT       EX0
      000000DFH   SFRSYM    DATA     BYTE      IP3
      000000F4H   SFRSYM    DATA     BYTE      USBCON
      000000B5H   SFRSYM    DATA     BYTE      IP2
      000000FFH   SFRSYM    DATA     BYTE      RSTCFG
      000000C7H   SFRSYM    DATA     BYTE      IAP_CONTR
      000000F9H   SFRSYM    DATA     BYTE      LINICR
      0000008EH   SFRSYM    DATA     BYTE      AUXR
      000000AFH   SFRSYM    DATA     BYTE      IE2
      00000088H   SFRSYM    DATA     BYTE      TCON
      00000089H   SFRSYM    DATA     BYTE      TMOD
      00000098H   SFRSYM    DATA     BYTE      SCON
      000000F1H   SFRSYM    DATA     BYTE      CANICR
      00000087H   SFRSYM    DATA     BYTE      PCON
      000000BCH   SFRSYM    DATA     BYTE      ADC_CONTR
      000000E7H   SFRSYM    DATA     BYTE      CMPCR2
      000000E6H   SFRSYM    DATA     BYTE      CMPCR1
      000000DEH   SFRSYM    DATA     BYTE      ADCCFG
      000000B8H   SFRSYM    DATA     BYTE      IP
      0000008FH   SFRSYM    DATA     BYTE      INTCLKO
      000000EEH   SFRSYM    DATA     BYTE      IP3H
      000000B6H   SFRSYM    DATA     BYTE      IP2H
      000000A8H   SFRSYM    DATA     BYTE      IE
      000000BBH   SFRSYM    DATA     BYTE      P_SW3
      000000BAH   SFRSYM    DATA     BYTE      P_SW2
      000000A2H   SFRSYM    DATA     BYTE      P_SW1
      000000CEH   SFRSYM    DATA     BYTE      SPCTL
      000000F8H   SFRSYM    DATA     BYTE      P7
      000000E8H   SFRSYM    DATA     BYTE      P6
      000000C8H   SFRSYM    DATA     BYTE      P5
      000000C0H   SFRSYM    DATA     BYTE      P4
      000000B0H   SFRSYM    DATA     BYTE      P3
      000000A0H   SFRSYM    DATA     BYTE      P2
      00000090H   SFRSYM    DATA     BYTE      P1
      00000080H   SFRSYM    DATA     BYTE      P0
      00011F9EH   SYMBOL    XDATA    INT       eru_pin
      00011FA0H   SYMBOL    XDATA    INT       eru_pin
      00011EF6H   SYMBOL    XDATA    INT       eru_pin
      00011EF8H   SYMBOL    XDATA    INT       trigger

      ---         MODULE    ---      ---       zf_driver_gpio
      00FF8191H   PUBLIC    CODE     ---       gpio_init
      00FF7A7AH   PUBLIC    CODE     ---       gpio_get_level
      00FF525AH   PUBLIC    CODE     ---       gpio_set_level_speed
      00FF6733H   PUBLIC    CODE     ---       gpio_set_level
      00FF72BFH   PUBLIC    CODE     ---       gpio_set_impedance
      00000094H   SFRSYM    DATA     BYTE      P0M0
      000000D0H   SFRSYM    DATA     BYTE      PSW
      0000009DH   SFRSYM    DATA     BYTE      IRCBAND
      00000097H   SFRSYM    DATA     BYTE      AUXR2
      000000EFH   SFRSYM    DATA     BYTE      AUXINTIF
      000000FDH   SFRSYM    DATA     BYTE      S4CON
L251 LINKER/LOCATER V4.66.93.0                                                        05/01/2026  20:21:51  PAGE 64


      000000ACH   SFRSYM    DATA     BYTE      S3CON
      0000009AH   SFRSYM    DATA     BYTE      S2CON
      000000B7H   SFRSYM    DATA     BYTE      IPH
      000000CDH   SFRSYM    DATA     BYTE      SPSTAT
      000000DDH   SFRSYM    DATA     BYTE      T4T3M
      000000C1H   SFRSYM    DATA     BYTE      WDT_CONTR
      000000DFH   SFRSYM    DATA     BYTE      IP3
      000000F4H   SFRSYM    DATA     BYTE      USBCON
      000000B5H   SFRSYM    DATA     BYTE      IP2
      000000FFH   SFRSYM    DATA     BYTE      RSTCFG
      000000C7H   SFRSYM    DATA     BYTE      IAP_CONTR
      000000F9H   SFRSYM    DATA     BYTE      LINICR
      0000008EH   SFRSYM    DATA     BYTE      AUXR
      000000AFH   SFRSYM    DATA     BYTE      IE2
      00000088H   SFRSYM    DATA     BYTE      TCON
      00000089H   SFRSYM    DATA     BYTE      TMOD
      00000098H   SFRSYM    DATA     BYTE      SCON
      000000F1H   SFRSYM    DATA     BYTE      CANICR
      00000087H   SFRSYM    DATA     BYTE      PCON
      000000BCH   SFRSYM    DATA     BYTE      ADC_CONTR
      000000E7H   SFRSYM    DATA     BYTE      CMPCR2
      000000E6H   SFRSYM    DATA     BYTE      CMPCR1
      000000DEH   SFRSYM    DATA     BYTE      ADCCFG
      000000B8H   SFRSYM    DATA     BYTE      IP
      0000008FH   SFRSYM    DATA     BYTE      INTCLKO
      000000EEH   SFRSYM    DATA     BYTE      IP3H
      000000B6H   SFRSYM    DATA     BYTE      IP2H
      000000A8H   SFRSYM    DATA     BYTE      IE
      000000BBH   SFRSYM    DATA     BYTE      P_SW3
      000000BAH   SFRSYM    DATA     BYTE      P_SW2
      000000A2H   SFRSYM    DATA     BYTE      P_SW1
      000000CEH   SFRSYM    DATA     BYTE      SPCTL
      000000F8H   SFRSYM    DATA     BYTE      P7
      000000E1H   SFRSYM    DATA     BYTE      P7M1
      000000E8H   SFRSYM    DATA     BYTE      P6
      000000C8H   SFRSYM    DATA     BYTE      P5
      000000CBH   SFRSYM    DATA     BYTE      P6M1
      000000E2H   SFRSYM    DATA     BYTE      P7M0
      000000C0H   SFRSYM    DATA     BYTE      P4
      000000C9H   SFRSYM    DATA     BYTE      P5M1
      000000CCH   SFRSYM    DATA     BYTE      P6M0
      000000B0H   SFRSYM    DATA     BYTE      P3
      000000B3H   SFRSYM    DATA     BYTE      P4M1
      000000CAH   SFRSYM    DATA     BYTE      P5M0
      000000A0H   SFRSYM    DATA     BYTE      P2
      000000B1H   SFRSYM    DATA     BYTE      P3M1
      000000B4H   SFRSYM    DATA     BYTE      P4M0
      00000090H   SFRSYM    DATA     BYTE      P1
      00000095H   SFRSYM    DATA     BYTE      P2M1
      000000B2H   SFRSYM    DATA     BYTE      P3M0
      00000080H   SFRSYM    DATA     BYTE      P0
      00000091H   SFRSYM    DATA     BYTE      P1M1
      00000096H   SFRSYM    DATA     BYTE      P2M0
      00000092H   SFRSYM    DATA     BYTE      P1M0
      00000093H   SFRSYM    DATA     BYTE      P0M1
      00FF47FDH   SYMBOL    CODE     ---       gpio_set_dir
      00FF585EH   SYMBOL    CODE     ---       gpio_set_mode

      00FF585EH   BLOCK     CODE     ---       LVL=0
      00011EFAH   SYMBOL    XDATA    INT       pin
      00011EFCH   SYMBOL    XDATA    INT       mode
      00FF585EH   LINE      CODE     ---       #41
      00FF586AH   LINE      CODE     ---       #46
      00FF5886H   LINE      CODE     ---       #48
      00FF58C3H   LINE      CODE     ---       #50
L251 LINKER/LOCATER V4.66.93.0                                                        05/01/2026  20:21:51  PAGE 65


      00FF58C6H   LINE      CODE     ---       #55
      00FF58E2H   LINE      CODE     ---       #57
      00FF591DH   LINE      CODE     ---       #58
      00FF5920H   LINE      CODE     ---       #59
      00FF5931H   LINE      CODE     ---       #62
      00FF5982H   LINE      CODE     ---       #64
      00FF5982H   LINE      CODE     ---       #65
      00FF599DH   LINE      CODE     ---       #66
      00FF59B8H   LINE      CODE     ---       #67
      00FF59BBH   LINE      CODE     ---       #68
      00FF59BBH   LINE      CODE     ---       #69
      00FF59D6H   LINE      CODE     ---       #70
      00FF59F1H   LINE      CODE     ---       #71
      00FF59F4H   LINE      CODE     ---       #72
      00FF59F4H   LINE      CODE     ---       #73
      00FF5A0FH   LINE      CODE     ---       #74
      00FF5A2AH   LINE      CODE     ---       #75
      00FF5A2DH   LINE      CODE     ---       #76
      00FF5A2DH   LINE      CODE     ---       #77
      00FF5A48H   LINE      CODE     ---       #78
      00FF5A63H   LINE      CODE     ---       #79
      00FF5A66H   LINE      CODE     ---       #80
      00FF5A66H   LINE      CODE     ---       #81
      00FF5A81H   LINE      CODE     ---       #82
      00FF5A9CH   LINE      CODE     ---       #83
      00FF5A9FH   LINE      CODE     ---       #84
      00FF5A9FH   LINE      CODE     ---       #85
      00FF5ABAH   LINE      CODE     ---       #86
      00FF5AD5H   LINE      CODE     ---       #87
      00FF5AD7H   LINE      CODE     ---       #88
      00FF5AD7H   LINE      CODE     ---       #89
      00FF5AF2H   LINE      CODE     ---       #90
      00FF5B0DH   LINE      CODE     ---       #91
      00FF5B0FH   LINE      CODE     ---       #92
      00FF5B0FH   LINE      CODE     ---       #93
      00FF5B2AH   LINE      CODE     ---       #94
      00FF5B45H   LINE      CODE     ---       #95
      00FF5B45H   LINE      CODE     ---       #96
      00FF5B45H   LINE      CODE     ---       #97
      00FF5B45H   LINE      CODE     ---       #98
      00FF5B45H   LINE      CODE     ---       #99
      00FF5B45H   LINE      CODE     ---       #103
      00FF5B45H   LINE      CODE     ---       #104
      ---         BLOCKEND  ---      ---       LVL=0

      00FF525AH   BLOCK     CODE     ---       LVL=0
      00011D93H   SYMBOL    XDATA    INT       pin
      00011D95H   SYMBOL    XDATA    INT       speed
      00FF5266H   BLOCK     CODE     NEAR LAB  LVL=1
      00011D97H   SYMBOL    XDATA    BYTE      pin_bit
      00011D98H   SYMBOL    XDATA    BYTE      port_flag
      ---         BLOCKEND  ---      ---       LVL=1
      00FF525AH   LINE      CODE     ---       #107
      00FF5266H   LINE      CODE     ---       #108
      00FF5266H   LINE      CODE     ---       #110
      00FF5276H   LINE      CODE     ---       #111
      00FF5286H   LINE      CODE     ---       #114
      00FF52C2H   LINE      CODE     ---       #116
      00FF52C2H   LINE      CODE     ---       #118
      00FF5315H   LINE      CODE     ---       #119
      00FF5318H   LINE      CODE     ---       #120
      00FF5318H   LINE      CODE     ---       #121
      00FF536BH   LINE      CODE     ---       #122
      00FF536EH   LINE      CODE     ---       #123
      00FF536EH   LINE      CODE     ---       #124
L251 LINKER/LOCATER V4.66.93.0                                                        05/01/2026  20:21:51  PAGE 66


      00FF53C1H   LINE      CODE     ---       #125
      00FF53C4H   LINE      CODE     ---       #126
      00FF53C4H   LINE      CODE     ---       #127
      00FF5417H   LINE      CODE     ---       #128
      00FF541AH   LINE      CODE     ---       #129
      00FF541AH   LINE      CODE     ---       #130
      00FF546DH   LINE      CODE     ---       #131
      00FF5470H   LINE      CODE     ---       #132
      00FF5470H   LINE      CODE     ---       #133
      00FF54C3H   LINE      CODE     ---       #134
      00FF54C6H   LINE      CODE     ---       #135
      00FF54C6H   LINE      CODE     ---       #136
      00FF5518H   LINE      CODE     ---       #137
      00FF551AH   LINE      CODE     ---       #138
      00FF551AH   LINE      CODE     ---       #139
      00FF556CH   LINE      CODE     ---       #140
      00FF556CH   LINE      CODE     ---       #141
      00FF556CH   LINE      CODE     ---       #143
      00FF556CH   LINE      CODE     ---       #144
      00FF556CH   LINE      CODE     ---       #145
      ---         BLOCKEND  ---      ---       LVL=0

      00FF47FDH   BLOCK     CODE     ---       LVL=0
      00011EFEH   SYMBOL    XDATA    INT       pin
      00011F00H   SYMBOL    XDATA    INT       dir
      00FF47FDH   LINE      CODE     ---       #148
      00FF4809H   LINE      CODE     ---       #150
      00FF485DH   LINE      CODE     ---       #152
      00FF485DH   LINE      CODE     ---       #154
      00FF4877H   LINE      CODE     ---       #156
      00FF4894H   LINE      CODE     ---       #157
      00FF48B1H   LINE      CODE     ---       #158
      00FF48B4H   LINE      CODE     ---       #164
      00FF48C5H   LINE      CODE     ---       #166
      00FF48E2H   LINE      CODE     ---       #167
      00FF48FDH   LINE      CODE     ---       #168
      00FF48FDH   LINE      CODE     ---       #170
      00FF4900H   LINE      CODE     ---       #172
      00FF4900H   LINE      CODE     ---       #174
      00FF491AH   LINE      CODE     ---       #176
      00FF4937H   LINE      CODE     ---       #177
      00FF4954H   LINE      CODE     ---       #178
      00FF4957H   LINE      CODE     ---       #184
      00FF4968H   LINE      CODE     ---       #186
      00FF4985H   LINE      CODE     ---       #187
      00FF49A0H   LINE      CODE     ---       #188
      00FF49A0H   LINE      CODE     ---       #190
      00FF49A3H   LINE      CODE     ---       #192
      00FF49A3H   LINE      CODE     ---       #194
      00FF49BDH   LINE      CODE     ---       #196
      00FF49DAH   LINE      CODE     ---       #197
      00FF49F7H   LINE      CODE     ---       #198
      00FF49FAH   LINE      CODE     ---       #204
      00FF4A0BH   LINE      CODE     ---       #206
      00FF4A28H   LINE      CODE     ---       #207
      00FF4A43H   LINE      CODE     ---       #208
      00FF4A43H   LINE      CODE     ---       #210
      00FF4A46H   LINE      CODE     ---       #212
      00FF4A46H   LINE      CODE     ---       #214
      00FF4A60H   LINE      CODE     ---       #216
      00FF4A7DH   LINE      CODE     ---       #217
      00FF4A9AH   LINE      CODE     ---       #218
      00FF4A9DH   LINE      CODE     ---       #224
      00FF4AAEH   LINE      CODE     ---       #226
      00FF4ACBH   LINE      CODE     ---       #227
L251 LINKER/LOCATER V4.66.93.0                                                        05/01/2026  20:21:51  PAGE 67


      00FF4AE6H   LINE      CODE     ---       #228
      00FF4AE6H   LINE      CODE     ---       #230
      00FF4AE9H   LINE      CODE     ---       #232
      00FF4AE9H   LINE      CODE     ---       #234
      00FF4B03H   LINE      CODE     ---       #236
      00FF4B20H   LINE      CODE     ---       #237
      00FF4B3DH   LINE      CODE     ---       #238
      00FF4B40H   LINE      CODE     ---       #244
      00FF4B51H   LINE      CODE     ---       #246
      00FF4B6EH   LINE      CODE     ---       #247
      00FF4B89H   LINE      CODE     ---       #248
      00FF4B89H   LINE      CODE     ---       #250
      00FF4B8CH   LINE      CODE     ---       #252
      00FF4B8CH   LINE      CODE     ---       #254
      00FF4BA6H   LINE      CODE     ---       #256
      00FF4BC3H   LINE      CODE     ---       #257
      00FF4BE0H   LINE      CODE     ---       #258
      00FF4BE3H   LINE      CODE     ---       #264
      00FF4BF4H   LINE      CODE     ---       #266
      00FF4C11H   LINE      CODE     ---       #267
      00FF4C2CH   LINE      CODE     ---       #268
      00FF4C2CH   LINE      CODE     ---       #270
      00FF4C2FH   LINE      CODE     ---       #272
      00FF4C2FH   LINE      CODE     ---       #274
      00FF4C49H   LINE      CODE     ---       #276
      00FF4C66H   LINE      CODE     ---       #277
      00FF4C83H   LINE      CODE     ---       #278
      00FF4C86H   LINE      CODE     ---       #284
      00FF4C97H   LINE      CODE     ---       #286
      00FF4CB4H   LINE      CODE     ---       #287
      00FF4CCFH   LINE      CODE     ---       #288
      00FF4CCFH   LINE      CODE     ---       #290
      00FF4CD2H   LINE      CODE     ---       #292
      00FF4CD2H   LINE      CODE     ---       #294
      00FF4CECH   LINE      CODE     ---       #296
      00FF4D09H   LINE      CODE     ---       #297
      00FF4D26H   LINE      CODE     ---       #298
      00FF4D28H   LINE      CODE     ---       #304
      00FF4D36H   LINE      CODE     ---       #306
      00FF4D53H   LINE      CODE     ---       #307
      00FF4D6EH   LINE      CODE     ---       #308
      00FF4D6EH   LINE      CODE     ---       #310
      00FF4D70H   LINE      CODE     ---       #312
      00FF4D70H   LINE      CODE     ---       #314
      00FF4D80H   LINE      CODE     ---       #317
      00FF4D80H   LINE      CODE     ---       #318
      00FF4D80H   LINE      CODE     ---       #319
      ---         BLOCKEND  ---      ---       LVL=0

      00FF7A7AH   BLOCK     CODE     ---       LVL=0
      00011E6FH   SYMBOL    XDATA    INT       pin
      00FF7A80H   BLOCK     CODE     NEAR LAB  LVL=1
      00011E71H   SYMBOL    XDATA    BYTE      pin_bit
      00011E72H   SYMBOL    XDATA    BYTE      port_flag
      00011E73H   SYMBOL    XDATA    BYTE      status
      ---         BLOCKEND  ---      ---       LVL=1
      00FF7A7AH   LINE      CODE     ---       #327
      00FF7A80H   LINE      CODE     ---       #328
      00FF7A80H   LINE      CODE     ---       #329
      00FF7A90H   LINE      CODE     ---       #330
      00FF7AA0H   LINE      CODE     ---       #331
      00FF7AA5H   LINE      CODE     ---       #334
      00FF7AD8H   LINE      CODE     ---       #336
      00FF7AD8H   LINE      CODE     ---       #337
      00FF7AF1H   LINE      CODE     ---       #338
L251 LINKER/LOCATER V4.66.93.0                                                        05/01/2026  20:21:51  PAGE 68


      00FF7AF4H   LINE      CODE     ---       #339
      00FF7AF4H   LINE      CODE     ---       #340
      00FF7B0DH   LINE      CODE     ---       #341
      00FF7B10H   LINE      CODE     ---       #342
      00FF7B10H   LINE      CODE     ---       #343
      00FF7B29H   LINE      CODE     ---       #344
      00FF7B2CH   LINE      CODE     ---       #345
      00FF7B2CH   LINE      CODE     ---       #346
      00FF7B45H   LINE      CODE     ---       #347
      00FF7B47H   LINE      CODE     ---       #348
      00FF7B47H   LINE      CODE     ---       #349
      00FF7B60H   LINE      CODE     ---       #350
      00FF7B62H   LINE      CODE     ---       #351
      00FF7B62H   LINE      CODE     ---       #352
      00FF7B7BH   LINE      CODE     ---       #353
      00FF7B7DH   LINE      CODE     ---       #354
      00FF7B7DH   LINE      CODE     ---       #355
      00FF7B96H   LINE      CODE     ---       #356
      00FF7B98H   LINE      CODE     ---       #357
      00FF7B98H   LINE      CODE     ---       #358
      00FF7BB1H   LINE      CODE     ---       #359
      00FF7BB1H   LINE      CODE     ---       #360
      00FF7BB1H   LINE      CODE     ---       #361
      00FF7BB1H   LINE      CODE     ---       #362
      00FF7BB1H   LINE      CODE     ---       #364
      00FF7BBFH   LINE      CODE     ---       #365
      ---         BLOCKEND  ---      ---       LVL=0

      00FF6733H   BLOCK     CODE     ---       LVL=0
      00011E74H   SYMBOL    XDATA    INT       pin
      00011E76H   SYMBOL    XDATA    BYTE      dat
      00FF673DH   BLOCK     CODE     NEAR LAB  LVL=1
      00011E77H   SYMBOL    XDATA    BYTE      pin_bit
      00011E78H   SYMBOL    XDATA    BYTE      port_flag
      ---         BLOCKEND  ---      ---       LVL=1
      00FF6733H   LINE      CODE     ---       #374
      00FF673DH   LINE      CODE     ---       #375
      00FF673DH   LINE      CODE     ---       #376
      00FF674DH   LINE      CODE     ---       #377
      00FF675DH   LINE      CODE     ---       #380
      00FF6796H   LINE      CODE     ---       #382
      00FF6796H   LINE      CODE     ---       #383
      00FF67CAH   LINE      CODE     ---       #384
      00FF67CDH   LINE      CODE     ---       #385
      00FF67CDH   LINE      CODE     ---       #386
      00FF6801H   LINE      CODE     ---       #387
      00FF6804H   LINE      CODE     ---       #388
      00FF6804H   LINE      CODE     ---       #389
      00FF6838H   LINE      CODE     ---       #390
      00FF683BH   LINE      CODE     ---       #391
      00FF683BH   LINE      CODE     ---       #392
      00FF686FH   LINE      CODE     ---       #393
      00FF6872H   LINE      CODE     ---       #394
      00FF6872H   LINE      CODE     ---       #395
      00FF68A6H   LINE      CODE     ---       #396
      00FF68A9H   LINE      CODE     ---       #397
      00FF68A9H   LINE      CODE     ---       #398
      00FF68DDH   LINE      CODE     ---       #399
      00FF68DFH   LINE      CODE     ---       #400
      00FF68DFH   LINE      CODE     ---       #401
      00FF6912H   LINE      CODE     ---       #402
      00FF6914H   LINE      CODE     ---       #403
      00FF6914H   LINE      CODE     ---       #404
      00FF6947H   LINE      CODE     ---       #405
      00FF6947H   LINE      CODE     ---       #406
L251 LINKER/LOCATER V4.66.93.0                                                        05/01/2026  20:21:51  PAGE 69


      00FF6947H   LINE      CODE     ---       #407
      00FF6947H   LINE      CODE     ---       #408
      00FF6947H   LINE      CODE     ---       #409
      ---         BLOCKEND  ---      ---       LVL=0
      00011FA2H   SYMBOL    XDATA    INT       pin

      00FF72BFH   BLOCK     CODE     ---       LVL=0
      00011F02H   SYMBOL    XDATA    INT       pin
      00FF72C5H   BLOCK     CODE     NEAR LAB  LVL=1
      00011F04H   SYMBOL    XDATA    BYTE      pin_bit
      00011F05H   SYMBOL    XDATA    BYTE      port_flag
      ---         BLOCKEND  ---      ---       LVL=1
      00FF72BFH   LINE      CODE     ---       #429
      00FF72C5H   LINE      CODE     ---       #430
      00FF72C5H   LINE      CODE     ---       #431
      00FF72D5H   LINE      CODE     ---       #432
      00FF72E5H   LINE      CODE     ---       #435
      00FF731EH   LINE      CODE     ---       #437
      00FF731EH   LINE      CODE     ---       #438
      00FF7331H   LINE      CODE     ---       #439
      00FF7346H   LINE      CODE     ---       #440
      00FF7349H   LINE      CODE     ---       #441
      00FF7349H   LINE      CODE     ---       #442
      00FF735CH   LINE      CODE     ---       #443
      00FF7371H   LINE      CODE     ---       #444
      00FF7374H   LINE      CODE     ---       #445
      00FF7374H   LINE      CODE     ---       #446
      00FF7387H   LINE      CODE     ---       #447
      00FF739CH   LINE      CODE     ---       #448
      00FF739FH   LINE      CODE     ---       #449
      00FF739FH   LINE      CODE     ---       #450
      00FF73B2H   LINE      CODE     ---       #451
      00FF73C7H   LINE      CODE     ---       #452
      00FF73CAH   LINE      CODE     ---       #453
      00FF73CAH   LINE      CODE     ---       #454
      00FF73DDH   LINE      CODE     ---       #455
      00FF73F2H   LINE      CODE     ---       #456
      00FF73F4H   LINE      CODE     ---       #457
      00FF73F4H   LINE      CODE     ---       #458
      00FF7407H   LINE      CODE     ---       #459
      00FF741CH   LINE      CODE     ---       #460
      00FF741EH   LINE      CODE     ---       #461
      00FF741EH   LINE      CODE     ---       #462
      00FF7431H   LINE      CODE     ---       #463
      00FF7446H   LINE      CODE     ---       #464
      00FF7448H   LINE      CODE     ---       #465
      00FF7448H   LINE      CODE     ---       #466
      00FF745BH   LINE      CODE     ---       #467
      00FF7470H   LINE      CODE     ---       #468
      00FF7470H   LINE      CODE     ---       #469
      00FF7470H   LINE      CODE     ---       #470
      00FF7470H   LINE      CODE     ---       #471
      00FF7470H   LINE      CODE     ---       #472
      ---         BLOCKEND  ---      ---       LVL=0

      00FF8191H   BLOCK     CODE     ---       LVL=0
      00011D57H   SYMBOL    XDATA    INT       pin
      00011D59H   SYMBOL    XDATA    INT       dir
      00011D5BH   SYMBOL    XDATA    BYTE      dat
      00011D5CH   SYMBOL    XDATA    INT       mode
      00FF8191H   LINE      CODE     ---       #483
      00FF81A7H   LINE      CODE     ---       #485
      00FF81D3H   LINE      CODE     ---       #487
      00FF81E1H   LINE      CODE     ---       #489
      00FF81EEH   LINE      CODE     ---       #490
L251 LINKER/LOCATER V4.66.93.0                                                        05/01/2026  20:21:51  PAGE 70


      00FF81FDH   LINE      CODE     ---       #491
      00FF8200H   LINE      CODE     ---       #492
      00FF820CH   LINE      CODE     ---       #494
      00FF8218H   LINE      CODE     ---       #496
      00FF8221H   LINE      CODE     ---       #497
      00FF8223H   LINE      CODE     ---       #500
      00FF822EH   LINE      CODE     ---       #501
      00FF823DH   LINE      CODE     ---       #502
      00FF823DH   LINE      CODE     ---       #503
      00FF823FH   LINE      CODE     ---       #504
      00FF824DH   LINE      CODE     ---       #506
      00FF825BH   LINE      CODE     ---       #508
      00FF8268H   LINE      CODE     ---       #509
      00FF8275H   LINE      CODE     ---       #510
      00FF8277H   LINE      CODE     ---       #511
      00FF8285H   LINE      CODE     ---       #513
      00FF8292H   LINE      CODE     ---       #514
      00FF8292H   LINE      CODE     ---       #516
      00FF829FH   LINE      CODE     ---       #517
      ---         BLOCKEND  ---      ---       LVL=0

      ---         MODULE    ---      ---       zf_driver_pit
      00FF5E08H   PUBLIC    CODE     ---       pit_init
      000000D0H   SFRSYM    DATA     BYTE      PSW
      0000009DH   SFRSYM    DATA     BYTE      IRCBAND
      00000097H   SFRSYM    DATA     BYTE      AUXR2
      000000EFH   SFRSYM    DATA     BYTE      AUXINTIF
      000000FDH   SFRSYM    DATA     BYTE      S4CON
      000000ACH   SFRSYM    DATA     BYTE      S3CON
      0000009AH   SFRSYM    DATA     BYTE      S2CON
      000000B7H   SFRSYM    DATA     BYTE      IPH
      000000CDH   SFRSYM    DATA     BYTE      SPSTAT
      000000DDH   SFRSYM    DATA     BYTE      T4T3M
      000000C1H   SFRSYM    DATA     BYTE      WDT_CONTR
      00000088H.6 SFRSYM    DATA     BIT       TR1
      00000088H.4 SFRSYM    DATA     BIT       TR0
      000000D3H   SFRSYM    DATA     BYTE      T4L
      000000D5H   SFRSYM    DATA     BYTE      T3L
      000000D7H   SFRSYM    DATA     BYTE      T2L
      0000008BH   SFRSYM    DATA     BYTE      TL1
      0000008AH   SFRSYM    DATA     BYTE      TL0
      000000D2H   SFRSYM    DATA     BYTE      T4H
      000000D4H   SFRSYM    DATA     BYTE      T3H
      000000D6H   SFRSYM    DATA     BYTE      T2H
      0000008DH   SFRSYM    DATA     BYTE      TH1
      0000008CH   SFRSYM    DATA     BYTE      TH0
      000000DFH   SFRSYM    DATA     BYTE      IP3
      000000F4H   SFRSYM    DATA     BYTE      USBCON
      000000B5H   SFRSYM    DATA     BYTE      IP2
      000000FFH   SFRSYM    DATA     BYTE      RSTCFG
      000000A8H.3 SFRSYM    DATA     BIT       ET1
      000000A8H.1 SFRSYM    DATA     BIT       ET0
      000000C7H   SFRSYM    DATA     BYTE      IAP_CONTR
      000000F9H   SFRSYM    DATA     BYTE      LINICR
      0000008EH   SFRSYM    DATA     BYTE      AUXR
      000000AFH   SFRSYM    DATA     BYTE      IE2
      00000088H   SFRSYM    DATA     BYTE      TCON
      00000089H   SFRSYM    DATA     BYTE      TMOD
      00000098H   SFRSYM    DATA     BYTE      SCON
      000000F1H   SFRSYM    DATA     BYTE      CANICR
      00000087H   SFRSYM    DATA     BYTE      PCON
      000000BCH   SFRSYM    DATA     BYTE      ADC_CONTR
      000000E7H   SFRSYM    DATA     BYTE      CMPCR2
      000000E6H   SFRSYM    DATA     BYTE      CMPCR1
      000000DEH   SFRSYM    DATA     BYTE      ADCCFG
L251 LINKER/LOCATER V4.66.93.0                                                        05/01/2026  20:21:51  PAGE 71


      000000B8H   SFRSYM    DATA     BYTE      IP
      0000008FH   SFRSYM    DATA     BYTE      INTCLKO
      000000EEH   SFRSYM    DATA     BYTE      IP3H
      000000B6H   SFRSYM    DATA     BYTE      IP2H
      000000A8H   SFRSYM    DATA     BYTE      IE
      000000BBH   SFRSYM    DATA     BYTE      P_SW3
      000000BAH   SFRSYM    DATA     BYTE      P_SW2
      000000A2H   SFRSYM    DATA     BYTE      P_SW1
      000000CEH   SFRSYM    DATA     BYTE      SPCTL
      000000F8H   SFRSYM    DATA     BYTE      P7
      000000E8H   SFRSYM    DATA     BYTE      P6
      000000C8H   SFRSYM    DATA     BYTE      P5
      000000C0H   SFRSYM    DATA     BYTE      P4
      000000B0H   SFRSYM    DATA     BYTE      P3
      000000A0H   SFRSYM    DATA     BYTE      P2
      00000090H   SFRSYM    DATA     BYTE      P1
      00000080H   SFRSYM    DATA     BYTE      P0

      00FF5E08H   BLOCK     CODE     ---       LVL=0
      00011A94H   SYMBOL    XDATA    INT       pit_n
      00011A96H   SYMBOL    XDATA    DWORD     period
      00FF5E18H   BLOCK     CODE     NEAR LAB  LVL=1
      00011A9AH   SYMBOL    XDATA    BYTE      freq_div
      00011A9BH   SYMBOL    XDATA    WORD      period_temp
      00011A9DH   SYMBOL    XDATA    WORD      temp
      ---         BLOCKEND  ---      ---       LVL=1
      00FF5E08H   LINE      CODE     ---       #48
      00FF5E18H   LINE      CODE     ---       #49
      00FF5E18H   LINE      CODE     ---       #50
      00FF5E1DH   LINE      CODE     ---       #51
      00FF5E25H   LINE      CODE     ---       #52
      00FF5E2DH   LINE      CODE     ---       #55
      00FF5E43H   LINE      CODE     ---       #58
      00FF5E5BH   LINE      CODE     ---       #60
      00FF5E67H   LINE      CODE     ---       #62
      00FF5E6AH   LINE      CODE     ---       #63
      00FF5E6DH   LINE      CODE     ---       #64
      00FF5E7BH   LINE      CODE     ---       #66
      00FF5E7EH   LINE      CODE     ---       #67
      00FF5E81H   LINE      CODE     ---       #68
      00FF5E8FH   LINE      CODE     ---       #70
      00FF5E92H   LINE      CODE     ---       #71
      00FF5E95H   LINE      CODE     ---       #72
      00FF5EA3H   LINE      CODE     ---       #74
      00FF5EA6H   LINE      CODE     ---       #75
      00FF5EA8H   LINE      CODE     ---       #76
      00FF5EB6H   LINE      CODE     ---       #78
      00FF5EB9H   LINE      CODE     ---       #79
      00FF5EBBH   LINE      CODE     ---       #86
      00FF5EC7H   LINE      CODE     ---       #88
      00FF5ECAH   LINE      CODE     ---       #89
      00FF5ECCH   LINE      CODE     ---       #90
      00FF5EDAH   LINE      CODE     ---       #92
      00FF5EDDH   LINE      CODE     ---       #93
      00FF5EDFH   LINE      CODE     ---       #94
      00FF5EEDH   LINE      CODE     ---       #96
      00FF5EF0H   LINE      CODE     ---       #97
      00FF5EF2H   LINE      CODE     ---       #98
      00FF5F00H   LINE      CODE     ---       #100
      00FF5F03H   LINE      CODE     ---       #101
      00FF5F05H   LINE      CODE     ---       #102
      00FF5F13H   LINE      CODE     ---       #104
      00FF5F16H   LINE      CODE     ---       #105
      00FF5F16H   LINE      CODE     ---       #110
      00FF5F34H   LINE      CODE     ---       #111
L251 LINKER/LOCATER V4.66.93.0                                                        05/01/2026  20:21:51  PAGE 72


      00FF5F55H   LINE      CODE     ---       #113
      00FF5F67H   LINE      CODE     ---       #115
      00FF5F73H   LINE      CODE     ---       #117
      00FF5F82H   LINE      CODE     ---       #118
      00FF5F86H   LINE      CODE     ---       #119
      00FF5F8EH   LINE      CODE     ---       #120
      00FF5F9AH   LINE      CODE     ---       #121
      00FF5F9DH   LINE      CODE     ---       #122
      00FF5FA0H   LINE      CODE     ---       #123
      00FF5FA3H   LINE      CODE     ---       #124
      00FF5FB1H   LINE      CODE     ---       #126
      00FF5FC0H   LINE      CODE     ---       #127
      00FF5FC4H   LINE      CODE     ---       #128
      00FF5FCCH   LINE      CODE     ---       #129
      00FF5FD8H   LINE      CODE     ---       #130
      00FF5FDBH   LINE      CODE     ---       #131
      00FF5FDEH   LINE      CODE     ---       #132
      00FF5FE1H   LINE      CODE     ---       #133
      00FF5FEFH   LINE      CODE     ---       #135
      00FF5FFEH   LINE      CODE     ---       #136
      00FF6006H   LINE      CODE     ---       #137
      00FF6012H   LINE      CODE     ---       #138
      00FF6015H   LINE      CODE     ---       #139
      00FF6018H   LINE      CODE     ---       #140
      00FF601AH   LINE      CODE     ---       #141
      00FF6028H   LINE      CODE     ---       #143
      00FF6037H   LINE      CODE     ---       #144
      00FF603FH   LINE      CODE     ---       #145
      00FF604BH   LINE      CODE     ---       #146
      00FF604EH   LINE      CODE     ---       #147
      00FF6051H   LINE      CODE     ---       #148
      00FF6053H   LINE      CODE     ---       #149
      00FF6061H   LINE      CODE     ---       #151
      00FF6070H   LINE      CODE     ---       #152
      00FF6078H   LINE      CODE     ---       #153
      00FF6084H   LINE      CODE     ---       #154
      00FF6087H   LINE      CODE     ---       #155
      00FF608AH   LINE      CODE     ---       #156
      ---         BLOCKEND  ---      ---       LVL=0

      ---         MODULE    ---      ---       zf_driver_pwm
      00FFB09BH   PUBLIC    HCONST   ---       PWM_PSCR_ADDR
      00FFB0A3H   PUBLIC    HCONST   ---       PWM_CCR_ADDR
      00FFB0C3H   PUBLIC    HCONST   ---       PWM_ARR_ADDR
      00FFB0CBH   PUBLIC    HCONST   ---       PWM_CCER_ADDR
      00FFB0DBH   PUBLIC    HCONST   ---       PWM_CCMR_ADDR
      00FF6F23H   PUBLIC    CODE     ---       pwm_set_duty
      00FF3071H   PUBLIC    CODE     ---       pwm_init
      000114D6H   PUBLIC    XDATA    BYTE      ?pwm_set_freq?BYTE
      000115D3H   PUBLIC    XDATA    BYTE      ?pwm_init?BYTE
      000000D0H   SFRSYM    DATA     BYTE      PSW
      0000009DH   SFRSYM    DATA     BYTE      IRCBAND
      00000097H   SFRSYM    DATA     BYTE      AUXR2
      000000EFH   SFRSYM    DATA     BYTE      AUXINTIF
      000000FDH   SFRSYM    DATA     BYTE      S4CON
      000000ACH   SFRSYM    DATA     BYTE      S3CON
      0000009AH   SFRSYM    DATA     BYTE      S2CON
      000000B7H   SFRSYM    DATA     BYTE      IPH
      000000CDH   SFRSYM    DATA     BYTE      SPSTAT
      000000DDH   SFRSYM    DATA     BYTE      T4T3M
      000000C1H   SFRSYM    DATA     BYTE      WDT_CONTR
      000000DFH   SFRSYM    DATA     BYTE      IP3
      000000F4H   SFRSYM    DATA     BYTE      USBCON
      000000B5H   SFRSYM    DATA     BYTE      IP2
      000000FFH   SFRSYM    DATA     BYTE      RSTCFG
L251 LINKER/LOCATER V4.66.93.0                                                        05/01/2026  20:21:51  PAGE 73


      000000C7H   SFRSYM    DATA     BYTE      IAP_CONTR
      000000F9H   SFRSYM    DATA     BYTE      LINICR
      0000008EH   SFRSYM    DATA     BYTE      AUXR
      000000AFH   SFRSYM    DATA     BYTE      IE2
      00000088H   SFRSYM    DATA     BYTE      TCON
      00000089H   SFRSYM    DATA     BYTE      TMOD
      00000098H   SFRSYM    DATA     BYTE      SCON
      000000F1H   SFRSYM    DATA     BYTE      CANICR
      00000087H   SFRSYM    DATA     BYTE      PCON
      000000BCH   SFRSYM    DATA     BYTE      ADC_CONTR
      000000E7H   SFRSYM    DATA     BYTE      CMPCR2
      000000E6H   SFRSYM    DATA     BYTE      CMPCR1
      000000DEH   SFRSYM    DATA     BYTE      ADCCFG
      000000B8H   SFRSYM    DATA     BYTE      IP
      0000008FH   SFRSYM    DATA     BYTE      INTCLKO
      000000EEH   SFRSYM    DATA     BYTE      IP3H
      000000B6H   SFRSYM    DATA     BYTE      IP2H
      000000A8H   SFRSYM    DATA     BYTE      IE
      000000BBH   SFRSYM    DATA     BYTE      P_SW3
      000000BAH   SFRSYM    DATA     BYTE      P_SW2
      000000A2H   SFRSYM    DATA     BYTE      P_SW1
      000000CEH   SFRSYM    DATA     BYTE      SPCTL
      000000F8H   SFRSYM    DATA     BYTE      P7
      000000E8H   SFRSYM    DATA     BYTE      P6
      000000C8H   SFRSYM    DATA     BYTE      P5
      000000C0H   SFRSYM    DATA     BYTE      P4
      000000B0H   SFRSYM    DATA     BYTE      P3
      000000A0H   SFRSYM    DATA     BYTE      P2
      00000090H   SFRSYM    DATA     BYTE      P1
      00000080H   SFRSYM    DATA     BYTE      P0
      000114D6H   SYMBOL    XDATA    INT       pin
      000114D8H   SYMBOL    XDATA    DWORD     freq
      000114DCH   SYMBOL    XDATA    DWORD     duty
      000114E0H   SYMBOL    XDATA    DWORD     match_temp
      000114E4H   SYMBOL    XDATA    DWORD     period_temp
      000114E8H   SYMBOL    XDATA    WORD      freq_div

      00FF6F23H   BLOCK     CODE     ---       LVL=0
      00011788H   SYMBOL    XDATA    INT       pin
      0001178AH   SYMBOL    XDATA    DWORD     duty
      00FF6F33H   BLOCK     CODE     NEAR LAB  LVL=1
      0001178EH   SYMBOL    XDATA    DWORD     match_temp
      00011792H   SYMBOL    XDATA    DWORD     arr
      ---         BLOCKEND  ---      ---       LVL=1
      00FF6F23H   LINE      CODE     ---       #133
      00FF6F33H   LINE      CODE     ---       #134
      00FF6F33H   LINE      CODE     ---       #136
      00FF6FABH   LINE      CODE     ---       #139
      00FF6FCFH   LINE      CODE     ---       #141
      00FF6FDFH   LINE      CODE     ---       #143
      00FF7018H   LINE      CODE     ---       #144
      00FF701AH   LINE      CODE     ---       #147
      00FF7034H   LINE      CODE     ---       #148
      00FF7034H   LINE      CODE     ---       #151
      00FF7092H   LINE      CODE     ---       #152
      00FF70F6H   LINE      CODE     ---       #154
      ---         BLOCKEND  ---      ---       LVL=0

      00FF3071H   BLOCK     CODE     ---       LVL=0
      000115D3H   SYMBOL    XDATA    INT       pin
      000115D5H   SYMBOL    XDATA    DWORD     freq
      000115D9H   SYMBOL    XDATA    DWORD     duty
      00FF3081H   BLOCK     CODE     NEAR LAB  LVL=1
      000115DDH   SYMBOL    XDATA    WORD      match_temp
      000115DFH   SYMBOL    XDATA    DWORD     period_temp
L251 LINKER/LOCATER V4.66.93.0                                                        05/01/2026  20:21:51  PAGE 74


      000115E3H   SYMBOL    XDATA    WORD      freq_div
      ---         BLOCKEND  ---      ---       LVL=1
      00FF3071H   LINE      CODE     ---       #165
      00FF3081H   LINE      CODE     ---       #166
      00FF3081H   LINE      CODE     ---       #168
      00FF3089H   LINE      CODE     ---       #169
      00FF3095H   LINE      CODE     ---       #170
      00FF309DH   LINE      CODE     ---       #173
      00FF30C1H   LINE      CODE     ---       #175
      00FF30DAH   LINE      CODE     ---       #179
      00FF30FBH   LINE      CODE     ---       #180
      00FF311CH   LINE      CODE     ---       #181
      00FF3145H   LINE      CODE     ---       #183
      00FF3155H   LINE      CODE     ---       #185
      00FF318AH   LINE      CODE     ---       #186
      00FF318CH   LINE      CODE     ---       #189
      00FF31A4H   LINE      CODE     ---       #190
      00FF31A4H   LINE      CODE     ---       #192
      00FF31DCH   LINE      CODE     ---       #193
      00FF3218H   LINE      CODE     ---       #195
      00FF3252H   LINE      CODE     ---       #196
      00FF3292H   LINE      CODE     ---       #198
      00FF32EEH   LINE      CODE     ---       #199
      00FF334EH   LINE      CODE     ---       #201
      00FF3369H   LINE      CODE     ---       #203
      00FF33B8H   LINE      CODE     ---       #204
      00FF33FDH   LINE      CODE     ---       #205
      00FF3497H   LINE      CODE     ---       #207
      00FF34A4H   LINE      CODE     ---       #208
      00FF34B1H   LINE      CODE     ---       #209
      00FF34B4H   LINE      CODE     ---       #210
      00FF34CFH   LINE      CODE     ---       #212
      00FF351EH   LINE      CODE     ---       #213
      00FF3563H   LINE      CODE     ---       #214
      00FF35E3H   LINE      CODE     ---       #216
      00FF35F0H   LINE      CODE     ---       #217
      00FF35FDH   LINE      CODE     ---       #218
      00FF35FDH   LINE      CODE     ---       #220
      00FF3658H   LINE      CODE     ---       #221
      00FF36B3H   LINE      CODE     ---       #222
      ---         BLOCKEND  ---      ---       LVL=0

      ---         MODULE    ---      ---       zf_driver_soft_iic
      00FF8775H   PUBLIC    CODE     ---       soft_iic_wait_ack
      00FF8ABAH   PUBLIC    CODE     ---       soft_iic_stop
      00FFA1BFH   PUBLIC    CODE     ---       soft_iic_delay
      00FF7BC0H   PUBLIC    CODE     ---       soft_iic_read_data
      00FF00A6H   PUBLIC    CODE     ---       soft_iic_send_data
      00FF8CD0H   PUBLIC    CODE     ---       soft_iic_start
      00FF8858H   PUBLIC    CODE     ---       soft_iic_send_ack
      000118D9H   PUBLIC    XDATA    BYTE      ?soft_iic_write_8bit_array?BYTE
      000118E5H   PUBLIC    XDATA    BYTE      ?soft_iic_write_16bit_array?BYTE
      0001183DH   PUBLIC    XDATA    BYTE      ?soft_iic_write_8bit_registers?BYTE
      00011796H   PUBLIC    XDATA    BYTE      ?soft_iic_write_16bit_registers?BYTE
      000118F1H   PUBLIC    XDATA    BYTE      ?soft_iic_read_8bit_array?BYTE
      000118FDH   PUBLIC    XDATA    BYTE      ?soft_iic_read_16bit_array?BYTE
      0001184AH   PUBLIC    XDATA    BYTE      ?soft_iic_read_8bit_registers?BYTE
      000117A4H   PUBLIC    XDATA    BYTE      ?soft_iic_read_16bit_registers?BYTE
      000114EAH   PUBLIC    XDATA    BYTE      ?soft_iic_transfer_8bit_array?BYTE
      000114FEH   PUBLIC    XDATA    BYTE      ?soft_iic_transfer_16bit_array?BYTE
      00011857H   PUBLIC    XDATA    BYTE      ?soft_iic_init?BYTE
      000000D0H   SFRSYM    DATA     BYTE      PSW
      0000009DH   SFRSYM    DATA     BYTE      IRCBAND
      00000097H   SFRSYM    DATA     BYTE      AUXR2
      000000EFH   SFRSYM    DATA     BYTE      AUXINTIF
L251 LINKER/LOCATER V4.66.93.0                                                        05/01/2026  20:21:51  PAGE 75


      000000FDH   SFRSYM    DATA     BYTE      S4CON
      000000ACH   SFRSYM    DATA     BYTE      S3CON
      0000009AH   SFRSYM    DATA     BYTE      S2CON
      000000B7H   SFRSYM    DATA     BYTE      IPH
      000000CDH   SFRSYM    DATA     BYTE      SPSTAT
      000000DDH   SFRSYM    DATA     BYTE      T4T3M
      000000C1H   SFRSYM    DATA     BYTE      WDT_CONTR
      000000DFH   SFRSYM    DATA     BYTE      IP3
      000000F4H   SFRSYM    DATA     BYTE      USBCON
      000000B5H   SFRSYM    DATA     BYTE      IP2
      000000FFH   SFRSYM    DATA     BYTE      RSTCFG
      000000C7H   SFRSYM    DATA     BYTE      IAP_CONTR
      000000F9H   SFRSYM    DATA     BYTE      LINICR
      0000008EH   SFRSYM    DATA     BYTE      AUXR
      000000AFH   SFRSYM    DATA     BYTE      IE2
      00000088H   SFRSYM    DATA     BYTE      TCON
      00000089H   SFRSYM    DATA     BYTE      TMOD
      00000098H   SFRSYM    DATA     BYTE      SCON
      000000F1H   SFRSYM    DATA     BYTE      CANICR
      00000087H   SFRSYM    DATA     BYTE      PCON
      000000BCH   SFRSYM    DATA     BYTE      ADC_CONTR
      000000E7H   SFRSYM    DATA     BYTE      CMPCR2
      000000E6H   SFRSYM    DATA     BYTE      CMPCR1
      000000DEH   SFRSYM    DATA     BYTE      ADCCFG
      000000B8H   SFRSYM    DATA     BYTE      IP
      0000008FH   SFRSYM    DATA     BYTE      INTCLKO
      000000EEH   SFRSYM    DATA     BYTE      IP3H
      000000B6H   SFRSYM    DATA     BYTE      IP2H
      000000A8H   SFRSYM    DATA     BYTE      IE
      000000BBH   SFRSYM    DATA     BYTE      P_SW3
      000000BAH   SFRSYM    DATA     BYTE      P_SW2
      000000A2H   SFRSYM    DATA     BYTE      P_SW1
      000000CEH   SFRSYM    DATA     BYTE      SPCTL
      000000F8H   SFRSYM    DATA     BYTE      P7
      000000E8H   SFRSYM    DATA     BYTE      P6
      000000C8H   SFRSYM    DATA     BYTE      P5
      000000C0H   SFRSYM    DATA     BYTE      P4
      000000B0H   SFRSYM    DATA     BYTE      P3
      000000A0H   SFRSYM    DATA     BYTE      P2
      00000090H   SFRSYM    DATA     BYTE      P1
      00000080H   SFRSYM    DATA     BYTE      P0

      00FFA1BFH   BLOCK     CODE     ---       LVL=0
      00011C8FH   SYMBOL    XDATA    DWORD     delay
      00FFA1C9H   BLOCK     CODE     NEAR LAB  LVL=1
      00011C93H   SYMBOL    XDATA    DWORD     count
      ---         BLOCKEND  ---      ---       LVL=1
      00FFA1BFH   LINE      CODE     ---       #53
      00FFA1C9H   LINE      CODE     ---       #54
      00FFA1C9H   LINE      CODE     ---       #55
      00FFA1DDH   LINE      CODE     ---       #56
      00FFA1FAH   LINE      CODE     ---       #57
      ---         BLOCKEND  ---      ---       LVL=0

      00FF8CD0H   BLOCK     CODE     ---       LVL=0
      00011F06H   SYMBOL    XDATA    ---       soft_iic_obj
      00FF8CD0H   LINE      CODE     ---       #67
      00FF8CDAH   LINE      CODE     ---       #69
      00FF8CFCH   LINE      CODE     ---       #70
      00FF8D0EH   LINE      CODE     ---       #71
      00FF8D22H   LINE      CODE     ---       #73
      00FF8D3AH   LINE      CODE     ---       #74
      00FF8D4DH   LINE      CODE     ---       #75
      00FF8D65H   LINE      CODE     ---       #76
      00FF8D76H   LINE      CODE     ---       #77
L251 LINKER/LOCATER V4.66.93.0                                                        05/01/2026  20:21:51  PAGE 76


      ---         BLOCKEND  ---      ---       LVL=0

      00FF8ABAH   BLOCK     CODE     ---       LVL=0
      00011F0AH   SYMBOL    XDATA    ---       soft_iic_obj
      00FF8ABAH   LINE      CODE     ---       #86
      00FF8AC4H   LINE      CODE     ---       #88
      00FF8AE6H   LINE      CODE     ---       #89
      00FF8AF9H   LINE      CODE     ---       #90
      00FF8B0AH   LINE      CODE     ---       #92
      00FF8B22H   LINE      CODE     ---       #93
      00FF8B34H   LINE      CODE     ---       #94
      00FF8B4CH   LINE      CODE     ---       #95
      00FF8B60H   LINE      CODE     ---       #96
      00FF8B78H   LINE      CODE     ---       #97
      ---         BLOCKEND  ---      ---       LVL=0

      00FF8858H   BLOCK     CODE     ---       LVL=0
      00011E79H   SYMBOL    XDATA    ---       soft_iic_obj
      00011E7DH   SYMBOL    XDATA    BYTE      ack
      00FF8858H   LINE      CODE     ---       #107
      00FF8866H   LINE      CODE     ---       #109
      00FF8888H   LINE      CODE     ---       #110
      00FF8899H   LINE      CODE     ---       #112
      00FF88A2H   LINE      CODE     ---       #114
      00FF88B6H   LINE      CODE     ---       #115
      00FF88B8H   LINE      CODE     ---       #118
      00FF88CBH   LINE      CODE     ---       #119
      00FF88CBH   LINE      CODE     ---       #121
      00FF88E3H   LINE      CODE     ---       #122
      00FF88F5H   LINE      CODE     ---       #123
      00FF890DH   LINE      CODE     ---       #124
      00FF891EH   LINE      CODE     ---       #125
      00FF8932H   LINE      CODE     ---       #126
      ---         BLOCKEND  ---      ---       LVL=0

      00FF8775H   BLOCK     CODE     ---       LVL=0
      00011E7EH   SYMBOL    XDATA    ---       soft_iic_obj
      00FF877FH   BLOCK     CODE     NEAR LAB  LVL=1
      00011E82H   SYMBOL    XDATA    BYTE      temp
      ---         BLOCKEND  ---      ---       LVL=1
      00FF8775H   LINE      CODE     ---       #135
      00FF877FH   LINE      CODE     ---       #136
      00FF877FH   LINE      CODE     ---       #137
      00FF8784H   LINE      CODE     ---       #138
      00FF87A6H   LINE      CODE     ---       #140
      00FF87B7H   LINE      CODE     ---       #141
      00FF87CBH   LINE      CODE     ---       #145
      00FF87E3H   LINE      CODE     ---       #147
      00FF87F5H   LINE      CODE     ---       #148
      00FF880DH   LINE      CODE     ---       #150
      00FF8824H   LINE      CODE     ---       #152
      00FF882AH   LINE      CODE     ---       #153
      00FF882AH   LINE      CODE     ---       #154
      00FF883BH   LINE      CODE     ---       #158
      00FF8853H   LINE      CODE     ---       #160
      00FF8857H   LINE      CODE     ---       #161
      ---         BLOCKEND  ---      ---       LVL=0

      00FF00A6H   BLOCK     CODE     ---       LVL=0
      00011D99H   SYMBOL    XDATA    ---       soft_iic_obj
      00011D9DH   SYMBOL    XDATA    BYTE      dat
      00FF00B4H   BLOCK     CODE     NEAR LAB  LVL=1
      00011D9EH   SYMBOL    XDATA    BYTE      temp
      ---         BLOCKEND  ---      ---       LVL=1
      00FF00A6H   LINE      CODE     ---       #170
L251 LINKER/LOCATER V4.66.93.0                                                        05/01/2026  20:21:51  PAGE 77


      00FF00B4H   LINE      CODE     ---       #171
      00FF00B4H   LINE      CODE     ---       #172
      00FF00BAH   LINE      CODE     ---       #174
      00FF00DCH   LINE      CODE     ---       #176
      00FF00DFH   LINE      CODE     ---       #179
      00FF011CH   LINE      CODE     ---       #180
      00FF0123H   LINE      CODE     ---       #182
      00FF013BH   LINE      CODE     ---       #183
      00FF014DH   LINE      CODE     ---       #184
      00FF0165H   LINE      CODE     ---       #185
      00FF0176H   LINE      CODE     ---       #186
      00FF0182H   LINE      CODE     ---       #187
      00FF0199H   LINE      CODE     ---       #188
      ---         BLOCKEND  ---      ---       LVL=0

      00FF7BC0H   BLOCK     CODE     ---       LVL=0
      00011D5EH   SYMBOL    XDATA    ---       soft_iic_obj
      00011D62H   SYMBOL    XDATA    BYTE      ack
      00FF7BCEH   BLOCK     CODE     NEAR LAB  LVL=1
      00011D63H   SYMBOL    XDATA    BYTE      dat
      00011D64H   SYMBOL    XDATA    BYTE      temp
      ---         BLOCKEND  ---      ---       LVL=1
      00FF7BC0H   LINE      CODE     ---       #197
      00FF7BCEH   LINE      CODE     ---       #198
      00FF7BCEH   LINE      CODE     ---       #199
      00FF7BD3H   LINE      CODE     ---       #200
      00FF7BD9H   LINE      CODE     ---       #201
      00FF7BFBH   LINE      CODE     ---       #202
      00FF7C0CH   LINE      CODE     ---       #203
      00FF7C24H   LINE      CODE     ---       #204
      00FF7C38H   LINE      CODE     ---       #209
      00FF7C3AH   LINE      CODE     ---       #211
      00FF7C4BH   LINE      CODE     ---       #212
      00FF7C63H   LINE      CODE     ---       #213
      00FF7C75H   LINE      CODE     ---       #214
      00FF7C8DH   LINE      CODE     ---       #215
      00FF7CADH   LINE      CODE     ---       #216
      00FF7CC3H   LINE      CODE     ---       #217
      00FF7CD4H   LINE      CODE     ---       #221
      00FF7CECH   LINE      CODE     ---       #222
      00FF7CFDH   LINE      CODE     ---       #223
      00FF7D01H   LINE      CODE     ---       #224
      ---         BLOCKEND  ---      ---       LVL=0
      00011E83H   SYMBOL    XDATA    ---       soft_iic_obj
      00011E87H   SYMBOL    XDATA    BYTE      dat
      000118D9H   SYMBOL    XDATA    ---       soft_iic_obj
      000118DDH   SYMBOL    XDATA    ---       dat
      000118E1H   SYMBOL    XDATA    DWORD     len
      00011D9FH   SYMBOL    XDATA    ---       soft_iic_obj
      00011DA3H   SYMBOL    XDATA    WORD      dat
      000118E5H   SYMBOL    XDATA    ---       soft_iic_obj
      000118E9H   SYMBOL    XDATA    ---       dat
      000118EDH   SYMBOL    XDATA    DWORD     len
      00011DA5H   SYMBOL    XDATA    ---       soft_iic_obj
      00011DA9H   SYMBOL    XDATA    BYTE      register_name
      00011DAAH   SYMBOL    XDATA    BYTE      dat
      0001183DH   SYMBOL    XDATA    ---       soft_iic_obj
      00011841H   SYMBOL    XDATA    BYTE      register_name
      00011842H   SYMBOL    XDATA    ---       dat
      00011846H   SYMBOL    XDATA    DWORD     len
      00011C97H   SYMBOL    XDATA    ---       soft_iic_obj
      00011C9BH   SYMBOL    XDATA    WORD      register_name
      00011C9DH   SYMBOL    XDATA    WORD      dat
      00011796H   SYMBOL    XDATA    ---       soft_iic_obj
      0001179AH   SYMBOL    XDATA    WORD      register_name
L251 LINKER/LOCATER V4.66.93.0                                                        05/01/2026  20:21:51  PAGE 78


      0001179CH   SYMBOL    XDATA    ---       dat
      000117A0H   SYMBOL    XDATA    DWORD     len
      00011E88H   SYMBOL    XDATA    ---       soft_iic_obj
      00011E8CH   SYMBOL    XDATA    BYTE      temp
      000118F1H   SYMBOL    XDATA    ---       soft_iic_obj
      000118F5H   SYMBOL    XDATA    ---       dat
      000118F9H   SYMBOL    XDATA    DWORD     len
      00011DABH   SYMBOL    XDATA    ---       soft_iic_obj
      00011DAFH   SYMBOL    XDATA    WORD      temp
      000118FDH   SYMBOL    XDATA    ---       soft_iic_obj
      00011901H   SYMBOL    XDATA    ---       dat
      00011905H   SYMBOL    XDATA    DWORD     len
      00011DB1H   SYMBOL    XDATA    ---       soft_iic_obj
      00011DB5H   SYMBOL    XDATA    BYTE      register_name
      00011DB6H   SYMBOL    XDATA    BYTE      temp
      0001184AH   SYMBOL    XDATA    ---       soft_iic_obj
      0001184EH   SYMBOL    XDATA    BYTE      register_name
      0001184FH   SYMBOL    XDATA    ---       dat
      00011853H   SYMBOL    XDATA    DWORD     len
      00011C9FH   SYMBOL    XDATA    ---       soft_iic_obj
      00011CA3H   SYMBOL    XDATA    WORD      register_name
      00011CA5H   SYMBOL    XDATA    WORD      temp
      000117A4H   SYMBOL    XDATA    ---       soft_iic_obj
      000117A8H   SYMBOL    XDATA    WORD      register_name
      000117AAH   SYMBOL    XDATA    ---       dat
      000117AEH   SYMBOL    XDATA    DWORD     len
      000114EAH   SYMBOL    XDATA    ---       soft_iic_obj
      000114EEH   SYMBOL    XDATA    ---       write_data
      000114F2H   SYMBOL    XDATA    DWORD     write_len
      000114F6H   SYMBOL    XDATA    ---       read_data
      000114FAH   SYMBOL    XDATA    DWORD     read_len
      000114FEH   SYMBOL    XDATA    ---       soft_iic_obj
      00011502H   SYMBOL    XDATA    ---       write_data
      00011506H   SYMBOL    XDATA    DWORD     write_len
      0001150AH   SYMBOL    XDATA    ---       read_data
      0001150EH   SYMBOL    XDATA    DWORD     read_len
      00011DB7H   SYMBOL    XDATA    ---       soft_iic_obj
      00011DBBH   SYMBOL    XDATA    BYTE      register_name
      00011DBCH   SYMBOL    XDATA    BYTE      dat
      00011DBDH   SYMBOL    XDATA    ---       soft_iic_obj
      00011DC1H   SYMBOL    XDATA    BYTE      register_name
      00011DC2H   SYMBOL    XDATA    BYTE      temp
      00011857H   SYMBOL    XDATA    ---       soft_iic_obj
      0001185BH   SYMBOL    XDATA    BYTE      addr
      0001185CH   SYMBOL    XDATA    DWORD     delay
      00011860H   SYMBOL    XDATA    INT       scl_pin
      00011862H   SYMBOL    XDATA    INT       sda_pin

      ---         MODULE    ---      ---       zf_driver_soft_spi
      00011909H   PUBLIC    XDATA    BYTE      ?soft_spi_write_8bit_array?BYTE
      00011915H   PUBLIC    XDATA    BYTE      ?soft_spi_write_16bit_array?BYTE
      00011864H   PUBLIC    XDATA    BYTE      ?soft_spi_write_8bit_registers?BYTE
      000117B2H   PUBLIC    XDATA    BYTE      ?soft_spi_write_16bit_registers?BYTE
      00011921H   PUBLIC    XDATA    BYTE      ?soft_spi_read_8bit_array?BYTE
      0001192DH   PUBLIC    XDATA    BYTE      ?soft_spi_read_16bit_array?BYTE
      00011871H   PUBLIC    XDATA    BYTE      ?soft_spi_read_8bit_registers?BYTE
      000117C0H   PUBLIC    XDATA    BYTE      ?soft_spi_read_16bit_registers?BYTE
      000116B3H   PUBLIC    XDATA    BYTE      ?soft_spi_transfer_8bit?BYTE
      000116C3H   PUBLIC    XDATA    BYTE      ?soft_spi_transfer_16bit?BYTE
      00011484H   PUBLIC    XDATA    BYTE      ?soft_spi_init?BYTE
      000000D0H   SFRSYM    DATA     BYTE      PSW
      0000009DH   SFRSYM    DATA     BYTE      IRCBAND
      00000097H   SFRSYM    DATA     BYTE      AUXR2
      000000EFH   SFRSYM    DATA     BYTE      AUXINTIF
      000000FDH   SFRSYM    DATA     BYTE      S4CON
L251 LINKER/LOCATER V4.66.93.0                                                        05/01/2026  20:21:51  PAGE 79


      000000ACH   SFRSYM    DATA     BYTE      S3CON
      0000009AH   SFRSYM    DATA     BYTE      S2CON
      000000B7H   SFRSYM    DATA     BYTE      IPH
      000000CDH   SFRSYM    DATA     BYTE      SPSTAT
      000000DDH   SFRSYM    DATA     BYTE      T4T3M
      000000C1H   SFRSYM    DATA     BYTE      WDT_CONTR
      000000DFH   SFRSYM    DATA     BYTE      IP3
      000000F4H   SFRSYM    DATA     BYTE      USBCON
      000000B5H   SFRSYM    DATA     BYTE      IP2
      000000FFH   SFRSYM    DATA     BYTE      RSTCFG
      000000C7H   SFRSYM    DATA     BYTE      IAP_CONTR
      000000F9H   SFRSYM    DATA     BYTE      LINICR
      0000008EH   SFRSYM    DATA     BYTE      AUXR
      000000AFH   SFRSYM    DATA     BYTE      IE2
      00000088H   SFRSYM    DATA     BYTE      TCON
      00000089H   SFRSYM    DATA     BYTE      TMOD
      00000098H   SFRSYM    DATA     BYTE      SCON
      000000F1H   SFRSYM    DATA     BYTE      CANICR
      00000087H   SFRSYM    DATA     BYTE      PCON
      000000BCH   SFRSYM    DATA     BYTE      ADC_CONTR
      000000E7H   SFRSYM    DATA     BYTE      CMPCR2
      000000E6H   SFRSYM    DATA     BYTE      CMPCR1
      000000DEH   SFRSYM    DATA     BYTE      ADCCFG
      000000B8H   SFRSYM    DATA     BYTE      IP
      0000008FH   SFRSYM    DATA     BYTE      INTCLKO
      000000EEH   SFRSYM    DATA     BYTE      IP3H
      000000B6H   SFRSYM    DATA     BYTE      IP2H
      000000A8H   SFRSYM    DATA     BYTE      IE
      000000BBH   SFRSYM    DATA     BYTE      P_SW3
      000000BAH   SFRSYM    DATA     BYTE      P_SW2
      000000A2H   SFRSYM    DATA     BYTE      P_SW1
      000000CEH   SFRSYM    DATA     BYTE      SPCTL
      000000F8H   SFRSYM    DATA     BYTE      P7
      000000E8H   SFRSYM    DATA     BYTE      P6
      000000C8H   SFRSYM    DATA     BYTE      P5
      000000C0H   SFRSYM    DATA     BYTE      P4
      000000B0H   SFRSYM    DATA     BYTE      P3
      000000A0H   SFRSYM    DATA     BYTE      P2
      00000090H   SFRSYM    DATA     BYTE      P1
      00000080H   SFRSYM    DATA     BYTE      P0
      00011CA7H   SYMBOL    XDATA    DWORD     x
      00011CABH   SYMBOL    XDATA    DWORD     i
      00011CAFH   SYMBOL    XDATA    ---       soft_spi_obj
      00011CB3H   SYMBOL    XDATA    BYTE      dat
      00011CB4H   SYMBOL    XDATA    BYTE      temp
      00011CB5H   SYMBOL    XDATA    BYTE      write_data
      00011CB6H   SYMBOL    XDATA    BYTE      read_data
      00011A9FH   SYMBOL    XDATA    ---       soft_spi_obj
      00011AA3H   SYMBOL    XDATA    WORD      dat
      00011AA5H   SYMBOL    XDATA    BYTE      temp
      00011AA6H   SYMBOL    XDATA    WORD      write_data
      00011AA8H   SYMBOL    XDATA    WORD      read_data
      00011E8DH   SYMBOL    XDATA    ---       soft_spi_obj
      00011E91H   SYMBOL    XDATA    BYTE      dat
      00011909H   SYMBOL    XDATA    ---       soft_spi_obj
      0001190DH   SYMBOL    XDATA    ---       dat
      00011911H   SYMBOL    XDATA    DWORD     len
      00011DC3H   SYMBOL    XDATA    ---       soft_spi_obj
      00011DC7H   SYMBOL    XDATA    WORD      dat
      00011915H   SYMBOL    XDATA    ---       soft_spi_obj
      00011919H   SYMBOL    XDATA    ---       dat
      0001191DH   SYMBOL    XDATA    DWORD     len
      00011DC9H   SYMBOL    XDATA    ---       soft_spi_obj
      00011DCDH   SYMBOL    XDATA    BYTE      register_name
      00011DCEH   SYMBOL    XDATA    BYTE      dat
L251 LINKER/LOCATER V4.66.93.0                                                        05/01/2026  20:21:51  PAGE 80


      00011864H   SYMBOL    XDATA    ---       soft_spi_obj
      00011868H   SYMBOL    XDATA    BYTE      register_name
      00011869H   SYMBOL    XDATA    ---       dat
      0001186DH   SYMBOL    XDATA    DWORD     len
      00011CB7H   SYMBOL    XDATA    ---       soft_spi_obj
      00011CBBH   SYMBOL    XDATA    WORD      register_name
      00011CBDH   SYMBOL    XDATA    WORD      dat
      000117B2H   SYMBOL    XDATA    ---       soft_spi_obj
      000117B6H   SYMBOL    XDATA    WORD      register_name
      000117B8H   SYMBOL    XDATA    ---       dat
      000117BCH   SYMBOL    XDATA    DWORD     len
      00011E92H   SYMBOL    XDATA    ---       soft_spi_obj
      00011E96H   SYMBOL    XDATA    BYTE      dat
      00011921H   SYMBOL    XDATA    ---       soft_spi_obj
      00011925H   SYMBOL    XDATA    ---       dat
      00011929H   SYMBOL    XDATA    DWORD     len
      00011E97H   SYMBOL    XDATA    ---       soft_spi_obj
      00011E9BH   SYMBOL    XDATA    BYTE      dat
      0001192DH   SYMBOL    XDATA    ---       soft_spi_obj
      00011931H   SYMBOL    XDATA    ---       dat
      00011935H   SYMBOL    XDATA    DWORD     len
      00011DCFH   SYMBOL    XDATA    ---       soft_spi_obj
      00011DD3H   SYMBOL    XDATA    BYTE      register_name
      00011DD4H   SYMBOL    XDATA    BYTE      dat
      00011871H   SYMBOL    XDATA    ---       soft_spi_obj
      00011875H   SYMBOL    XDATA    BYTE      register_name
      00011876H   SYMBOL    XDATA    ---       dat
      0001187AH   SYMBOL    XDATA    DWORD     len
      00011CBFH   SYMBOL    XDATA    ---       soft_spi_obj
      00011CC3H   SYMBOL    XDATA    WORD      register_name
      00011CC5H   SYMBOL    XDATA    WORD      dat
      000117C0H   SYMBOL    XDATA    ---       soft_spi_obj
      000117C4H   SYMBOL    XDATA    WORD      register_name
      000117C6H   SYMBOL    XDATA    ---       dat
      000117CAH   SYMBOL    XDATA    DWORD     len
      000116B3H   SYMBOL    XDATA    ---       soft_spi_obj
      000116B7H   SYMBOL    XDATA    ---       write_buffer
      000116BBH   SYMBOL    XDATA    ---       read_buffer
      000116BFH   SYMBOL    XDATA    DWORD     len
      000116C3H   SYMBOL    XDATA    ---       soft_spi_obj
      000116C7H   SYMBOL    XDATA    ---       write_buffer
      000116CBH   SYMBOL    XDATA    ---       read_buffer
      000116CFH   SYMBOL    XDATA    DWORD     len
      00011484H   SYMBOL    XDATA    ---       soft_spi_obj
      00011488H   SYMBOL    XDATA    BYTE      mode
      00011489H   SYMBOL    XDATA    DWORD     delay
      0001148DH   SYMBOL    XDATA    INT       sck_pin
      0001148FH   SYMBOL    XDATA    INT       mosi_pin
      00011491H   SYMBOL    XDATA    DWORD     miso_pin
      00011495H   SYMBOL    XDATA    DWORD     cs_pin

      ---         MODULE    ---      ---       zf_driver_spi
      00FF0066H   PUBLIC    CODE     ---       spi_write_8bit
      00FF4D81H   PUBLIC    CODE     ---       spi_init
      00FFA1FBH   PUBLIC    CODE     ---       spi_write_16bit
      00FF97CBH   PUBLIC    CODE     ---       spi_read_dat
      00FF9BEEH   PUBLIC    CODE     ---       spi_write_dat
      00011AFFH   PUBLIC    XDATA    BYTE      ?spi_write_8bit_array?BYTE
      00011B09H   PUBLIC    XDATA    BYTE      ?spi_write_16bit_array?BYTE
      00011AAAH   PUBLIC    XDATA    BYTE      ?spi_write_8bit_registers?BYTE
      00011939H   PUBLIC    XDATA    BYTE      ?spi_write_16bit_registers?BYTE
      00011B13H   PUBLIC    XDATA    BYTE      ?spi_read_8bit_array?BYTE
      00011B1DH   PUBLIC    XDATA    BYTE      ?spi_read_16bit_array?BYTE
      00011AB5H   PUBLIC    XDATA    BYTE      ?spi_read_8bit_registers?BYTE
      00011945H   PUBLIC    XDATA    BYTE      ?spi_read_16bit_registers?BYTE
L251 LINKER/LOCATER V4.66.93.0                                                        05/01/2026  20:21:51  PAGE 81


      000117CEH   PUBLIC    XDATA    BYTE      ?spi_transfer_8bit?BYTE
      000117DCH   PUBLIC    XDATA    BYTE      ?spi_transfer_16bit?BYTE
      00011512H   PUBLIC    XDATA    BYTE      ?spi_init?BYTE
      000000CFH   SFRSYM    DATA     BYTE      SPDAT
      000000D0H   SFRSYM    DATA     BYTE      PSW
      0000009DH   SFRSYM    DATA     BYTE      IRCBAND
      00000097H   SFRSYM    DATA     BYTE      AUXR2
      000000EFH   SFRSYM    DATA     BYTE      AUXINTIF
      000000FDH   SFRSYM    DATA     BYTE      S4CON
      000000ACH   SFRSYM    DATA     BYTE      S3CON
      0000009AH   SFRSYM    DATA     BYTE      S2CON
      0000009BH   SFRSYM    DATA     BYTE      S2BUF
      000000B7H   SFRSYM    DATA     BYTE      IPH
      000000CDH   SFRSYM    DATA     BYTE      SPSTAT
      000000DDH   SFRSYM    DATA     BYTE      T4T3M
      000000C1H   SFRSYM    DATA     BYTE      WDT_CONTR
      000000DFH   SFRSYM    DATA     BYTE      IP3
      000000F4H   SFRSYM    DATA     BYTE      USBCON
      000000B5H   SFRSYM    DATA     BYTE      IP2
      000000FFH   SFRSYM    DATA     BYTE      RSTCFG
      000000C7H   SFRSYM    DATA     BYTE      IAP_CONTR
      000000F9H   SFRSYM    DATA     BYTE      LINICR
      0000008EH   SFRSYM    DATA     BYTE      AUXR
      000000AFH   SFRSYM    DATA     BYTE      IE2
      00000088H   SFRSYM    DATA     BYTE      TCON
      00000089H   SFRSYM    DATA     BYTE      TMOD
      00000098H   SFRSYM    DATA     BYTE      SCON
      000000F1H   SFRSYM    DATA     BYTE      CANICR
      00000087H   SFRSYM    DATA     BYTE      PCON
      00000099H   SFRSYM    DATA     BYTE      SBUF
      000000BCH   SFRSYM    DATA     BYTE      ADC_CONTR
      000000E7H   SFRSYM    DATA     BYTE      CMPCR2
      000000E6H   SFRSYM    DATA     BYTE      CMPCR1
      0000009AH.1 SFRSYM    DATA     BIT       S2TI
      00000098H.1 SFRSYM    DATA     BIT       TI
      000000DEH   SFRSYM    DATA     BYTE      ADCCFG
      000000B8H   SFRSYM    DATA     BYTE      IP
      0000008FH   SFRSYM    DATA     BYTE      INTCLKO
      000000EEH   SFRSYM    DATA     BYTE      IP3H
      000000B6H   SFRSYM    DATA     BYTE      IP2H
      000000A8H   SFRSYM    DATA     BYTE      IE
      000000BBH   SFRSYM    DATA     BYTE      P_SW3
      000000BAH   SFRSYM    DATA     BYTE      P_SW2
      000000A2H   SFRSYM    DATA     BYTE      P_SW1
      000000CEH   SFRSYM    DATA     BYTE      SPCTL
      000000F8H   SFRSYM    DATA     BYTE      P7
      000000E8H   SFRSYM    DATA     BYTE      P6
      000000C8H   SFRSYM    DATA     BYTE      P5
      000000C0H   SFRSYM    DATA     BYTE      P4
      000000B0H   SFRSYM    DATA     BYTE      P3
      000000A0H   SFRSYM    DATA     BYTE      P2
      00000090H   SFRSYM    DATA     BYTE      P1
      00000080H   SFRSYM    DATA     BYTE      P0

      00FF9BEEH   BLOCK     CODE     ---       LVL=0
      00011F75H   SYMBOL    XDATA    INT       spi_n
      00011F77H   SYMBOL    XDATA    BYTE      dat
      00FF9BEEH   LINE      CODE     ---       #81
      00FF9BF8H   LINE      CODE     ---       #83
      00FF9C0AH   LINE      CODE     ---       #85
      00FF9C0AH   LINE      CODE     ---       #86
      00FF9C0EH   LINE      CODE     ---       #87
      00FF9C14H   LINE      CODE     ---       #88
      00FF9C19H   LINE      CODE     ---       #89
      00FF9C1BH   LINE      CODE     ---       #90
L251 LINKER/LOCATER V4.66.93.0                                                        05/01/2026  20:21:51  PAGE 82


      00FF9C1BH   LINE      CODE     ---       #91
      00FF9C1EH   LINE      CODE     ---       #92
      00FF9C24H   LINE      CODE     ---       #93
      00FF9C27H   LINE      CODE     ---       #94
      00FF9C29H   LINE      CODE     ---       #95
      00FF9C29H   LINE      CODE     ---       #96
      00FF9C2DH   LINE      CODE     ---       #97
      00FF9C33H   LINE      CODE     ---       #98
      00FF9C37H   LINE      CODE     ---       #99
      00FF9C39H   LINE      CODE     ---       #100
      00FF9C39H   LINE      CODE     ---       #101
      00FF9C49H   LINE      CODE     ---       #102
      00FF9C49H   LINE      CODE     ---       #103
      00FF9C49H   LINE      CODE     ---       #104
      ---         BLOCKEND  ---      ---       LVL=0

      00FF97CBH   BLOCK     CODE     ---       LVL=0
      00011F0EH   SYMBOL    XDATA    INT       spi_n
      00011F10H   SYMBOL    XDATA    BYTE      dat
      00FF97D5H   BLOCK     CODE     NEAR LAB  LVL=1
      00011F11H   SYMBOL    XDATA    BYTE      ret
      ---         BLOCKEND  ---      ---       LVL=1
      00FF97CBH   LINE      CODE     ---       #107
      00FF97D5H   LINE      CODE     ---       #108
      00FF97D5H   LINE      CODE     ---       #109
      00FF97DBH   LINE      CODE     ---       #110
      00FF97EDH   LINE      CODE     ---       #112
      00FF97EDH   LINE      CODE     ---       #113
      00FF97F1H   LINE      CODE     ---       #114
      00FF97F7H   LINE      CODE     ---       #115
      00FF97FCH   LINE      CODE     ---       #116
      00FF9802H   LINE      CODE     ---       #117
      00FF9804H   LINE      CODE     ---       #118
      00FF9804H   LINE      CODE     ---       #119
      00FF9807H   LINE      CODE     ---       #120
      00FF980DH   LINE      CODE     ---       #121
      00FF9810H   LINE      CODE     ---       #122
      00FF9816H   LINE      CODE     ---       #123
      00FF9818H   LINE      CODE     ---       #124
      00FF9818H   LINE      CODE     ---       #125
      00FF981CH   LINE      CODE     ---       #126
      00FF9822H   LINE      CODE     ---       #127
      00FF9826H   LINE      CODE     ---       #128
      00FF982CH   LINE      CODE     ---       #129
      00FF982EH   LINE      CODE     ---       #130
      00FF982EH   LINE      CODE     ---       #131
      00FF983EH   LINE      CODE     ---       #132
      00FF983EH   LINE      CODE     ---       #133
      00FF983EH   LINE      CODE     ---       #135
      00FF9842H   LINE      CODE     ---       #136
      ---         BLOCKEND  ---      ---       LVL=0

      00FF0066H   BLOCK     CODE     ---       LVL=0
      00011F78H   SYMBOL    XDATA    INT       spi_n
      00011F7AH   SYMBOL    XDATA    BYTE      dat
      00FF0066H   LINE      CODE     ---       #147
      00FF0070H   LINE      CODE     ---       #149
      00FF007DH   LINE      CODE     ---       #150
      ---         BLOCKEND  ---      ---       LVL=0
      00011AFFH   SYMBOL    XDATA    INT       spi_n
      00011B01H   SYMBOL    XDATA    ---       dat
      00011B05H   SYMBOL    XDATA    DWORD     len

      00FFA1FBH   BLOCK     CODE     ---       LVL=0
      00011F12H   SYMBOL    XDATA    INT       spi_n
L251 LINKER/LOCATER V4.66.93.0                                                        05/01/2026  20:21:51  PAGE 83


      00011F14H   SYMBOL    XDATA    WORD      dat
      00FFA1FBH   LINE      CODE     ---       #175
      00FFA207H   LINE      CODE     ---       #177
      00FFA220H   LINE      CODE     ---       #178
      00FFA235H   LINE      CODE     ---       #179
      ---         BLOCKEND  ---      ---       LVL=0
      00011B09H   SYMBOL    XDATA    INT       spi_n
      00011B0BH   SYMBOL    XDATA    ---       dat
      00011B0FH   SYMBOL    XDATA    DWORD     len
      00011F16H   SYMBOL    XDATA    INT       spi_n
      00011F18H   SYMBOL    XDATA    BYTE      register_name
      00011F19H   SYMBOL    XDATA    BYTE      dat
      00011AAAH   SYMBOL    XDATA    INT       spi_n
      00011AACH   SYMBOL    XDATA    BYTE      register_name
      00011AADH   SYMBOL    XDATA    ---       dat
      00011AB1H   SYMBOL    XDATA    DWORD     len
      00011DD5H   SYMBOL    XDATA    INT       spi_n
      00011DD7H   SYMBOL    XDATA    WORD      register_name
      00011DD9H   SYMBOL    XDATA    WORD      dat
      00011939H   SYMBOL    XDATA    INT       spi_n
      0001193BH   SYMBOL    XDATA    WORD      register_name
      0001193DH   SYMBOL    XDATA    ---       dat
      00011FA4H   SYMBOL    XDATA    INT       spi_n
      00011B13H   SYMBOL    XDATA    INT       spi_n
      00011B15H   SYMBOL    XDATA    ---       dat
      00011B19H   SYMBOL    XDATA    DWORD     len
      00011F1AH   SYMBOL    XDATA    INT       spi_n
      00011F1CH   SYMBOL    XDATA    WORD      dat
      00011B1DH   SYMBOL    XDATA    INT       spi_n
      00011B1FH   SYMBOL    XDATA    ---       dat
      00011B23H   SYMBOL    XDATA    DWORD     len
      00011F7BH   SYMBOL    XDATA    INT       spi_n
      00011F7DH   SYMBOL    XDATA    BYTE      register_name
      00011AB5H   SYMBOL    XDATA    INT       spi_n
      00011AB7H   SYMBOL    XDATA    BYTE      register_name
      00011AB8H   SYMBOL    XDATA    ---       dat
      00011ABCH   SYMBOL    XDATA    DWORD     len
      00011DDBH   SYMBOL    XDATA    INT       spi_n
      00011DDDH   SYMBOL    XDATA    WORD      register_name
      00011DDFH   SYMBOL    XDATA    WORD      dat
      00011945H   SYMBOL    XDATA    INT       spi_n
      00011947H   SYMBOL    XDATA    WORD      register_name
      00011949H   SYMBOL    XDATA    ---       dat
      0001194DH   SYMBOL    XDATA    DWORD     len
      000117CEH   SYMBOL    XDATA    INT       spi_n
      000117D0H   SYMBOL    XDATA    ---       write_buffer
      000117D4H   SYMBOL    XDATA    ---       read_buffer
      000117D8H   SYMBOL    XDATA    DWORD     len
      000117DCH   SYMBOL    XDATA    INT       spi_n
      000117DEH   SYMBOL    XDATA    ---       write_buffer
      000117E2H   SYMBOL    XDATA    ---       read_buffer
      000117E6H   SYMBOL    XDATA    DWORD     len

      00FF4D81H   BLOCK     CODE     ---       LVL=0
      00011512H   SYMBOL    XDATA    INT       spi_n
      00011514H   SYMBOL    XDATA    INT       mode
      00011516H   SYMBOL    XDATA    DWORD     baud
      0001151AH   SYMBOL    XDATA    INT       sck_pin
      0001151CH   SYMBOL    XDATA    INT       mosi_pin
      0001151EH   SYMBOL    XDATA    INT       miso_pin
      00011520H   SYMBOL    XDATA    INT       cs_pin
      00FF4D97H   BLOCK     CODE     NEAR LAB  LVL=1
      00011522H   SYMBOL    XDATA    DWORD     spi_psc
      ---         BLOCKEND  ---      ---       LVL=1
      00FF4D81H   LINE      CODE     ---       #465
L251 LINKER/LOCATER V4.66.93.0                                                        05/01/2026  20:21:51  PAGE 84


      00FF4D97H   LINE      CODE     ---       #466
      00FF4D97H   LINE      CODE     ---       #468
      00FF4DA3H   LINE      CODE     ---       #470
      00FF4DBFH   LINE      CODE     ---       #472
      00FF4DCFH   LINE      CODE     ---       #474
      00FF4DCFH   LINE      CODE     ---       #476
      00FF4DE8H   LINE      CODE     ---       #477
      00FF4E01H   LINE      CODE     ---       #479
      00FF4E0FH   LINE      CODE     ---       #481
      00FF4E24H   LINE      CODE     ---       #482
      00FF4E24H   LINE      CODE     ---       #484
      00FF4E32H   LINE      CODE     ---       #486
      00FF4E4AH   LINE      CODE     ---       #487
      00FF4E4AH   LINE      CODE     ---       #490
      00FF4E5AH   LINE      CODE     ---       #492
      00FF4E6BH   LINE      CODE     ---       #493
      00FF4E7CH   LINE      CODE     ---       #494
      00FF4E8AH   LINE      CODE     ---       #496
      00FF4E9BH   LINE      CODE     ---       #497
      00FF4E9BH   LINE      CODE     ---       #498
      00FF4EA9H   LINE      CODE     ---       #500
      00FF4EBAH   LINE      CODE     ---       #501
      00FF4EBAH   LINE      CODE     ---       #504
      00FF4EC9H   LINE      CODE     ---       #506
      00FF4ECCH   LINE      CODE     ---       #508
      00FF4EEEH   LINE      CODE     ---       #510
      00FF4EEEH   LINE      CODE     ---       #511
      00FF4EF2H   LINE      CODE     ---       #512
      00FF4EF4H   LINE      CODE     ---       #514
      00FF4EF4H   LINE      CODE     ---       #515
      00FF4EF7H   LINE      CODE     ---       #516
      00FF4EF9H   LINE      CODE     ---       #518
      00FF4EF9H   LINE      CODE     ---       #519
      00FF4EFCH   LINE      CODE     ---       #520
      00FF4EFEH   LINE      CODE     ---       #522
      00FF4EFEH   LINE      CODE     ---       #523
      00FF4F01H   LINE      CODE     ---       #524
      00FF4F01H   LINE      CODE     ---       #525
      00FF4F01H   LINE      CODE     ---       #527
      00FF4F04H   LINE      CODE     ---       #528
      00FF4F07H   LINE      CODE     ---       #529
      00FF4F0AH   LINE      CODE     ---       #532
      00FF4F2BH   LINE      CODE     ---       #534
      00FF4F2EH   LINE      CODE     ---       #536
      00FF4F3EH   LINE      CODE     ---       #538
      00FF4F41H   LINE      CODE     ---       #539
      00FF4F43H   LINE      CODE     ---       #540
      00FF4F53H   LINE      CODE     ---       #542
      00FF4F56H   LINE      CODE     ---       #543
      00FF4F58H   LINE      CODE     ---       #544
      00FF4F68H   LINE      CODE     ---       #546
      00FF4F6CH   LINE      CODE     ---       #547
      00FF4F6EH   LINE      CODE     ---       #550
      00FF4F71H   LINE      CODE     ---       #551
      00FF4F71H   LINE      CODE     ---       #554
      00FF4F85H   LINE      CODE     ---       #556
      00FF4F85H   LINE      CODE     ---       #557
      00FF4F87H   LINE      CODE     ---       #559
      00FF4F87H   LINE      CODE     ---       #560
      00FF4F8AH   LINE      CODE     ---       #561
      00FF4F8CH   LINE      CODE     ---       #563
      00FF4F8CH   LINE      CODE     ---       #564
      00FF4F8FH   LINE      CODE     ---       #565
      00FF4F91H   LINE      CODE     ---       #567
      00FF4F91H   LINE      CODE     ---       #568
L251 LINKER/LOCATER V4.66.93.0                                                        05/01/2026  20:21:51  PAGE 85


      00FF4F94H   LINE      CODE     ---       #569
      00FF4F94H   LINE      CODE     ---       #570
      00FF4F94H   LINE      CODE     ---       #572
      00FF4F97H   LINE      CODE     ---       #573
      00FF4F9AH   LINE      CODE     ---       #574
      00FF4FABH   LINE      CODE     ---       #583
      00FF4FC3H   LINE      CODE     ---       #586
      00FF4FC6H   LINE      CODE     ---       #588
      00FF4FE8H   LINE      CODE     ---       #590
      00FF4FE8H   LINE      CODE     ---       #591
      00FF4FECH   LINE      CODE     ---       #592
      00FF4FEEH   LINE      CODE     ---       #594
      00FF4FEEH   LINE      CODE     ---       #595
      00FF4FF1H   LINE      CODE     ---       #596
      00FF4FF3H   LINE      CODE     ---       #598
      00FF4FF3H   LINE      CODE     ---       #599
      00FF4FF6H   LINE      CODE     ---       #600
      00FF4FF8H   LINE      CODE     ---       #602
      00FF4FF8H   LINE      CODE     ---       #603
      00FF4FFBH   LINE      CODE     ---       #604
      00FF4FFBH   LINE      CODE     ---       #605
      00FF4FFBH   LINE      CODE     ---       #607
      00FF4FFFH   LINE      CODE     ---       #608
      00FF500CH   LINE      CODE     ---       #612
      00FF502DH   LINE      CODE     ---       #616
      00FF503DH   LINE      CODE     ---       #618
      00FF504FH   LINE      CODE     ---       #619
      00FF5051H   LINE      CODE     ---       #620
      00FF5061H   LINE      CODE     ---       #622
      00FF5073H   LINE      CODE     ---       #623
      00FF5075H   LINE      CODE     ---       #626
      00FF5083H   LINE      CODE     ---       #627
      00FF5083H   LINE      CODE     ---       #635
      00FF509BH   LINE      CODE     ---       #637
      00FF509BH   LINE      CODE     ---       #638
      00FF50A9H   LINE      CODE     ---       #639
      00FF50ABH   LINE      CODE     ---       #641
      00FF50ABH   LINE      CODE     ---       #642
      00FF50BDH   LINE      CODE     ---       #643
      00FF50BFH   LINE      CODE     ---       #645
      00FF50BFH   LINE      CODE     ---       #646
      00FF50D1H   LINE      CODE     ---       #647
      00FF50D3H   LINE      CODE     ---       #649
      00FF50D3H   LINE      CODE     ---       #650
      00FF50E5H   LINE      CODE     ---       #651
      00FF50E5H   LINE      CODE     ---       #652
      00FF50E5H   LINE      CODE     ---       #654
      00FF50F7H   LINE      CODE     ---       #655
      00FF50FAH   LINE      CODE     ---       #656
      00FF510BH   LINE      CODE     ---       #665
      00FF5125H   LINE      CODE     ---       #667
      00FF5128H   LINE      CODE     ---       #669
      00FF514AH   LINE      CODE     ---       #671
      00FF514AH   LINE      CODE     ---       #672
      00FF514EH   LINE      CODE     ---       #673
      00FF5150H   LINE      CODE     ---       #675
      00FF5150H   LINE      CODE     ---       #676
      00FF5153H   LINE      CODE     ---       #677
      00FF5155H   LINE      CODE     ---       #679
      00FF5155H   LINE      CODE     ---       #680
      00FF5158H   LINE      CODE     ---       #681
      00FF515AH   LINE      CODE     ---       #683
      00FF515AH   LINE      CODE     ---       #684
      00FF515DH   LINE      CODE     ---       #685
      00FF515DH   LINE      CODE     ---       #686
L251 LINKER/LOCATER V4.66.93.0                                                        05/01/2026  20:21:51  PAGE 86


      00FF515DH   LINE      CODE     ---       #688
      00FF5161H   LINE      CODE     ---       #689
      00FF516EH   LINE      CODE     ---       #693
      00FF518FH   LINE      CODE     ---       #695
      00FF519FH   LINE      CODE     ---       #697
      00FF51B1H   LINE      CODE     ---       #698
      00FF51B3H   LINE      CODE     ---       #699
      00FF51C3H   LINE      CODE     ---       #701
      00FF51D5H   LINE      CODE     ---       #702
      00FF51D7H   LINE      CODE     ---       #705
      00FF51E5H   LINE      CODE     ---       #706
      00FF51E5H   LINE      CODE     ---       #714
      00FF51FDH   LINE      CODE     ---       #716
      00FF51FDH   LINE      CODE     ---       #717
      00FF520BH   LINE      CODE     ---       #718
      00FF520DH   LINE      CODE     ---       #720
      00FF520DH   LINE      CODE     ---       #721
      00FF521FH   LINE      CODE     ---       #722
      00FF5221H   LINE      CODE     ---       #724
      00FF5221H   LINE      CODE     ---       #725
      00FF5233H   LINE      CODE     ---       #726
      00FF5235H   LINE      CODE     ---       #728
      00FF5235H   LINE      CODE     ---       #729
      00FF5247H   LINE      CODE     ---       #730
      00FF5247H   LINE      CODE     ---       #731
      00FF5247H   LINE      CODE     ---       #733
      00FF5259H   LINE      CODE     ---       #734
      ---         BLOCKEND  ---      ---       LVL=0

      ---         MODULE    ---      ---       zf_driver_timer
      00FF95CFH   PUBLIC    CODE     ---       timer_funciton_check
      000000D0H   SFRSYM    DATA     BYTE      PSW
      0000009DH   SFRSYM    DATA     BYTE      IRCBAND
      00000097H   SFRSYM    DATA     BYTE      AUXR2
      000000EFH   SFRSYM    DATA     BYTE      AUXINTIF
      000000FDH   SFRSYM    DATA     BYTE      S4CON
      000000ACH   SFRSYM    DATA     BYTE      S3CON
      0000009AH   SFRSYM    DATA     BYTE      S2CON
      000000B7H   SFRSYM    DATA     BYTE      IPH
      000000CDH   SFRSYM    DATA     BYTE      SPSTAT
      000000DDH   SFRSYM    DATA     BYTE      T4T3M
      000000C1H   SFRSYM    DATA     BYTE      WDT_CONTR
      000000DFH   SFRSYM    DATA     BYTE      IP3
      000000F4H   SFRSYM    DATA     BYTE      USBCON
      000000B5H   SFRSYM    DATA     BYTE      IP2
      000000FFH   SFRSYM    DATA     BYTE      RSTCFG
      000000C7H   SFRSYM    DATA     BYTE      IAP_CONTR
      000000F9H   SFRSYM    DATA     BYTE      LINICR
      0000008EH   SFRSYM    DATA     BYTE      AUXR
      000000AFH   SFRSYM    DATA     BYTE      IE2
      00000088H   SFRSYM    DATA     BYTE      TCON
      00000089H   SFRSYM    DATA     BYTE      TMOD
      00000098H   SFRSYM    DATA     BYTE      SCON
      000000F1H   SFRSYM    DATA     BYTE      CANICR
      00000087H   SFRSYM    DATA     BYTE      PCON
      000000BCH   SFRSYM    DATA     BYTE      ADC_CONTR
      000000E7H   SFRSYM    DATA     BYTE      CMPCR2
      000000E6H   SFRSYM    DATA     BYTE      CMPCR1
      000000DEH   SFRSYM    DATA     BYTE      ADCCFG
      000000B8H   SFRSYM    DATA     BYTE      IP
      0000008FH   SFRSYM    DATA     BYTE      INTCLKO
      000000EEH   SFRSYM    DATA     BYTE      IP3H
      000000B6H   SFRSYM    DATA     BYTE      IP2H
      000000A8H   SFRSYM    DATA     BYTE      IE
      000000BBH   SFRSYM    DATA     BYTE      P_SW3
L251 LINKER/LOCATER V4.66.93.0                                                        05/01/2026  20:21:51  PAGE 87


      000000BAH   SFRSYM    DATA     BYTE      P_SW2
      000000A2H   SFRSYM    DATA     BYTE      P_SW1
      000000CEH   SFRSYM    DATA     BYTE      SPCTL
      000000F8H   SFRSYM    DATA     BYTE      P7
      000000E8H   SFRSYM    DATA     BYTE      P6
      000000C8H   SFRSYM    DATA     BYTE      P5
      000000C0H   SFRSYM    DATA     BYTE      P4
      000000B0H   SFRSYM    DATA     BYTE      P3
      000000A0H   SFRSYM    DATA     BYTE      P2
      00000090H   SFRSYM    DATA     BYTE      P1
      00000080H   SFRSYM    DATA     BYTE      P0
      00011951H   SYMBOL    XDATA    ---       timer_function_state

      00FF95CFH   BLOCK     CODE     ---       LVL=0
      00011E9CH   SYMBOL    XDATA    INT       index
      00011E9EH   SYMBOL    XDATA    INT       mode
      00FF95DBH   BLOCK     CODE     NEAR LAB  LVL=1
      00011EA0H   SYMBOL    XDATA    BYTE      return_state
      ---         BLOCKEND  ---      ---       LVL=1
      00FF95CFH   LINE      CODE     ---       #58
      00FF95DBH   LINE      CODE     ---       #59
      00FF95DBH   LINE      CODE     ---       #60
      00FF95E1H   LINE      CODE     ---       #61
      00FF95FEH   LINE      CODE     ---       #63
      00FF961BH   LINE      CODE     ---       #64
      00FF961DH   LINE      CODE     ---       #65
      00FF963EH   LINE      CODE     ---       #67
      00FF9644H   LINE      CODE     ---       #68
      00FF9646H   LINE      CODE     ---       #71
      00FF964BH   LINE      CODE     ---       #72
      00FF964BH   LINE      CODE     ---       #73
      00FF964FH   LINE      CODE     ---       #74
      ---         BLOCKEND  ---      ---       LVL=0

      ---         MODULE    ---      ---       zf_driver_uart
      00FF89F8H   PUBLIC    CODE     ---       uart_rx_start_buff
      00FF6D4DH   PUBLIC    CODE     ---       uart_write_buffer
      00FF556DH   PUBLIC    CODE     ---       uart_init
      00FF99FCH   PUBLIC    CODE     ---       uart_rx_interrupt
      00FFA4ADH   PUBLIC    CODE     ---       uart_write_byte
      00FF7471H   PUBLIC    CODE     ---       uart_dma_init
      00FF9650H   PUBLIC    CODE     ---       uart_funciton_check
      00FF8EB7H   PUBLIC    CODE     ---       uart_query_byte
      00011965H   PUBLIC    XDATA    ---       uart_rx_buff
      00011969H   PUBLIC    XDATA    BYTE      ?uart_init?BYTE
      000000D0H   SFRSYM    DATA     BYTE      PSW
      0000009DH   SFRSYM    DATA     BYTE      IRCBAND
      00000097H   SFRSYM    DATA     BYTE      AUXR2
      000000EFH   SFRSYM    DATA     BYTE      AUXINTIF
      000000FDH   SFRSYM    DATA     BYTE      S4CON
      000000ACH   SFRSYM    DATA     BYTE      S3CON
      0000009AH   SFRSYM    DATA     BYTE      S2CON
      000000B7H   SFRSYM    DATA     BYTE      IPH
      000000CDH   SFRSYM    DATA     BYTE      SPSTAT
      000000DDH   SFRSYM    DATA     BYTE      T4T3M
      000000C1H   SFRSYM    DATA     BYTE      WDT_CONTR
      00000088H.6 SFRSYM    DATA     BIT       TR1
      000000D7H   SFRSYM    DATA     BYTE      T2L
      000000D6H   SFRSYM    DATA     BYTE      T2H
      000000DFH   SFRSYM    DATA     BYTE      IP3
      000000F4H   SFRSYM    DATA     BYTE      USBCON
      000000B5H   SFRSYM    DATA     BYTE      IP2
      000000FFH   SFRSYM    DATA     BYTE      RSTCFG
      000000C7H   SFRSYM    DATA     BYTE      IAP_CONTR
      000000F9H   SFRSYM    DATA     BYTE      LINICR
L251 LINKER/LOCATER V4.66.93.0                                                        05/01/2026  20:21:51  PAGE 88


      0000008EH   SFRSYM    DATA     BYTE      AUXR
      000000AFH   SFRSYM    DATA     BYTE      IE2
      00000088H   SFRSYM    DATA     BYTE      TCON
      00000089H   SFRSYM    DATA     BYTE      TMOD
      00000098H   SFRSYM    DATA     BYTE      SCON
      000000F1H   SFRSYM    DATA     BYTE      CANICR
      00000087H   SFRSYM    DATA     BYTE      PCON
      000000BCH   SFRSYM    DATA     BYTE      ADC_CONTR
      000000E7H   SFRSYM    DATA     BYTE      CMPCR2
      000000E6H   SFRSYM    DATA     BYTE      CMPCR1
      000000DEH   SFRSYM    DATA     BYTE      ADCCFG
      000000B8H   SFRSYM    DATA     BYTE      IP
      0000008FH   SFRSYM    DATA     BYTE      INTCLKO
      000000EEH   SFRSYM    DATA     BYTE      IP3H
      000000B6H   SFRSYM    DATA     BYTE      IP2H
      000000A8H   SFRSYM    DATA     BYTE      IE
      000000BBH   SFRSYM    DATA     BYTE      P_SW3
      000000BAH   SFRSYM    DATA     BYTE      P_SW2
      000000A2H   SFRSYM    DATA     BYTE      P_SW1
      000000CEH   SFRSYM    DATA     BYTE      SPCTL
      000000F8H   SFRSYM    DATA     BYTE      P7
      000000E8H   SFRSYM    DATA     BYTE      P6
      000000C8H   SFRSYM    DATA     BYTE      P5
      000000C0H   SFRSYM    DATA     BYTE      P4
      000000B0H   SFRSYM    DATA     BYTE      P3
      000000A0H   SFRSYM    DATA     BYTE      P2
      00000090H   SFRSYM    DATA     BYTE      P1
      00000080H   SFRSYM    DATA     BYTE      P0
      00FFB1AEH   SYMBOL    HCONST   ---       ?tpl?0001
      0001195DH   SYMBOL    XDATA    ---       uart_function_state

      00FF9650H   BLOCK     CODE     ---       LVL=0
      00011EA1H   SYMBOL    XDATA    INT       index
      00011EA3H   SYMBOL    XDATA    INT       mode
      00FF965CH   BLOCK     CODE     NEAR LAB  LVL=1
      00011EA5H   SYMBOL    XDATA    BYTE      return_state
      ---         BLOCKEND  ---      ---       LVL=1
      00FF9650H   LINE      CODE     ---       #86
      00FF965CH   LINE      CODE     ---       #87
      00FF965CH   LINE      CODE     ---       #88
      00FF9662H   LINE      CODE     ---       #89
      00FF967FH   LINE      CODE     ---       #91
      00FF969CH   LINE      CODE     ---       #92
      00FF969EH   LINE      CODE     ---       #93
      00FF96BFH   LINE      CODE     ---       #95
      00FF96C5H   LINE      CODE     ---       #96
      00FF96C7H   LINE      CODE     ---       #99
      00FF96CCH   LINE      CODE     ---       #100
      00FF96CCH   LINE      CODE     ---       #101
      00FF96D0H   LINE      CODE     ---       #102
      ---         BLOCKEND  ---      ---       LVL=0

      00FF6D4DH   BLOCK     CODE     ---       LVL=0
      00010E58H   SYMBOL    XDATA    INT       uart_n
      00010E5AH   SYMBOL    XDATA    ---       buff
      00010E5EH   SYMBOL    XDATA    WORD      len
      00FF6D63H   BLOCK     CODE     NEAR LAB  LVL=1
      00010E60H   SYMBOL    XDATA    ---       tmp_buff
      00010EA0H   SYMBOL    XDATA    WORD      tmp_len
      ---         BLOCKEND  ---      ---       LVL=1
      00FF6D4DH   LINE      CODE     ---       #111
      00FF6D63H   LINE      CODE     ---       #112
      00FF6D63H   LINE      CODE     ---       #116
      00FF6D78H   LINE      CODE     ---       #117
      00FF6D80H   LINE      CODE     ---       #118
L251 LINKER/LOCATER V4.66.93.0                                                        05/01/2026  20:21:51  PAGE 89


      00FF6D83H   LINE      CODE     ---       #120
      00FF6DA3H   LINE      CODE     ---       #121
      00FF6DC2H   LINE      CODE     ---       #122
      00FF6DD3H   LINE      CODE     ---       #123
      00FF6DECH   LINE      CODE     ---       #126
      00FF6E0CH   LINE      CODE     ---       #128
      00FF6E38H   LINE      CODE     ---       #129
      00FF6E65H   LINE      CODE     ---       #130
      00FF6E8DH   LINE      CODE     ---       #131
      00FF6EB1H   LINE      CODE     ---       #132
      00FF6ED2H   LINE      CODE     ---       #134
      00FF6EF3H   LINE      CODE     ---       #136
      00FF6F13H   LINE      CODE     ---       #137
      00FF6F22H   LINE      CODE     ---       #138
      ---         BLOCKEND  ---      ---       LVL=0
      00011CC7H   SYMBOL    XDATA    INT       uart_n
      00011CC9H   SYMBOL    XDATA    ---       str
      00011CCDH   SYMBOL    XDATA    WORD      len

      00FFA4ADH   BLOCK     CODE     ---       LVL=0
      00011F7EH   SYMBOL    XDATA    INT       uart_n
      00011F80H   SYMBOL    XDATA    BYTE      dat
      00FFA4ADH   LINE      CODE     ---       #159
      00FFA4B7H   LINE      CODE     ---       #161
      00FFA4CCH   LINE      CODE     ---       #162
      ---         BLOCKEND  ---      ---       LVL=0

      00FF89F8H   BLOCK     CODE     ---       LVL=0
      00011FA6H   SYMBOL    XDATA    INT       uart_n
      00FF89F8H   LINE      CODE     ---       #170
      00FF89FEH   LINE      CODE     ---       #172
      00FF8A1EH   LINE      CODE     ---       #173
      00FF8A3CH   LINE      CODE     ---       #174
      00FF8A68H   LINE      CODE     ---       #175
      00FF8A98H   LINE      CODE     ---       #176
      00FF8AB9H   LINE      CODE     ---       #177
      ---         BLOCKEND  ---      ---       LVL=0

      00FF99FCH   BLOCK     CODE     ---       LVL=0
      00011F81H   SYMBOL    XDATA    INT       uart_n
      00011F83H   SYMBOL    XDATA    BYTE      status
      00FF99FCH   LINE      CODE     ---       #186
      00FF9A06H   LINE      CODE     ---       #188
      00FF9A0FH   LINE      CODE     ---       #190
      00FF9A37H   LINE      CODE     ---       #191
      00FF9A39H   LINE      CODE     ---       #194
      00FF9A61H   LINE      CODE     ---       #195
      00FF9A61H   LINE      CODE     ---       #196
      ---         BLOCKEND  ---      ---       LVL=0
      00011F84H   SYMBOL    XDATA    INT       uart_n
      00011F86H   SYMBOL    XDATA    BYTE      dat

      00FF8EB7H   BLOCK     CODE     ---       LVL=0
      00011D65H   SYMBOL    XDATA    INT       uart_n
      00011D67H   SYMBOL    XDATA    ---       dat
      00FF8EC7H   BLOCK     CODE     NEAR LAB  LVL=1
      00011D6BH   SYMBOL    XDATA    BYTE      ret
      ---         BLOCKEND  ---      ---       LVL=1
      00FF8EB7H   LINE      CODE     ---       #230
      00FF8EC7H   LINE      CODE     ---       #231
      00FF8EC7H   LINE      CODE     ---       #232
      00FF8ECCH   LINE      CODE     ---       #235
      00FF8EECH   LINE      CODE     ---       #237
      00FF8F13H   LINE      CODE     ---       #239
      00FF8F19H   LINE      CODE     ---       #241
L251 LINKER/LOCATER V4.66.93.0                                                        05/01/2026  20:21:51  PAGE 90


      00FF8F41H   LINE      CODE     ---       #242
      00FF8F43H   LINE      CODE     ---       #245
      00FF8F48H   LINE      CODE     ---       #246
      00FF8F48H   LINE      CODE     ---       #249
      00FF8F51H   LINE      CODE     ---       #251
      00FF8F55H   LINE      CODE     ---       #252
      ---         BLOCKEND  ---      ---       LVL=0

      00FF7471H   BLOCK     CODE     ---       LVL=0
      00011FA8H   SYMBOL    XDATA    INT       uart_n
      00FF7471H   LINE      CODE     ---       #260
      00FF7477H   LINE      CODE     ---       #262
      00FF7497H   LINE      CODE     ---       #263
      00FF74B7H   LINE      CODE     ---       #264
      00FF74D7H   LINE      CODE     ---       #266
      00FF74F7H   LINE      CODE     ---       #267
      00FF7517H   LINE      CODE     ---       #268
      00FF7537H   LINE      CODE     ---       #270
      00FF7557H   LINE      CODE     ---       #271
      00FF7575H   LINE      CODE     ---       #272
      00FF75A1H   LINE      CODE     ---       #273
      00FF75D1H   LINE      CODE     ---       #274
      00FF75F2H   LINE      CODE     ---       #275
      00FF7613H   LINE      CODE     ---       #277
      ---         BLOCKEND  ---      ---       LVL=0

      00FF556DH   BLOCK     CODE     ---       LVL=0
      00011969H   SYMBOL    XDATA    INT       uart_n
      0001196BH   SYMBOL    XDATA    DWORD     baud
      0001196FH   SYMBOL    XDATA    INT       tx_pin
      00011971H   SYMBOL    XDATA    INT       rx_pin
      00FF5583H   BLOCK     CODE     NEAR LAB  LVL=1
      00011973H   SYMBOL    XDATA    WORD      brt
      ---         BLOCKEND  ---      ---       LVL=1
      00FF556DH   LINE      CODE     ---       #289
      00FF5583H   LINE      CODE     ---       #290
      00FF5583H   LINE      CODE     ---       #299
      00FF559FH   LINE      CODE     ---       #306
      00FF55B9H   LINE      CODE     ---       #311
      00FF55EFH   LINE      CODE     ---       #314
      00FF5608H   LINE      CODE     ---       #315
      00FF561FH   LINE      CODE     ---       #317
      00FF565AH   LINE      CODE     ---       #319
      00FF567EH   LINE      CODE     ---       #321
      00FF567EH   LINE      CODE     ---       #335
      00FF5681H   LINE      CODE     ---       #336
      00FF5689H   LINE      CODE     ---       #337
      00FF5695H   LINE      CODE     ---       #338
      00FF5698H   LINE      CODE     ---       #339
      00FF569BH   LINE      CODE     ---       #342
      00FF569EH   LINE      CODE     ---       #344
      00FF56BAH   LINE      CODE     ---       #346
      00FF56BEH   LINE      CODE     ---       #347
      00FF56C1H   LINE      CODE     ---       #348
      00FF56DDH   LINE      CODE     ---       #350
      00FF56E0H   LINE      CODE     ---       #351
      00FF56E3H   LINE      CODE     ---       #352
      00FF56FFH   LINE      CODE     ---       #354
      00FF5702H   LINE      CODE     ---       #355
      00FF5705H   LINE      CODE     ---       #356
      00FF5727H   LINE      CODE     ---       #358
      00FF572AH   LINE      CODE     ---       #359
      00FF572AH   LINE      CODE     ---       #362
      00FF572DH   LINE      CODE     ---       #365
      00FF572DH   LINE      CODE     ---       #369
L251 LINKER/LOCATER V4.66.93.0                                                        05/01/2026  20:21:51  PAGE 91


      00FF5730H   LINE      CODE     ---       #370
      00FF5738H   LINE      CODE     ---       #371
      00FF5744H   LINE      CODE     ---       #372
      00FF5747H   LINE      CODE     ---       #375
      00FF574AH   LINE      CODE     ---       #377
      00FF5766H   LINE      CODE     ---       #379
      00FF576AH   LINE      CODE     ---       #380
      00FF576DH   LINE      CODE     ---       #381
      00FF578FH   LINE      CODE     ---       #383
      00FF5792H   LINE      CODE     ---       #384
      00FF5792H   LINE      CODE     ---       #388
      00FF5795H   LINE      CODE     ---       #391
      00FF5795H   LINE      CODE     ---       #395
      00FF5798H   LINE      CODE     ---       #396
      00FF57A0H   LINE      CODE     ---       #397
      00FF57ACH   LINE      CODE     ---       #398
      00FF57AFH   LINE      CODE     ---       #408
      00FF57B2H   LINE      CODE     ---       #410
      00FF57CEH   LINE      CODE     ---       #412
      00FF57D2H   LINE      CODE     ---       #413
      00FF57D5H   LINE      CODE     ---       #414
      00FF57F1H   LINE      CODE     ---       #416
      00FF57F4H   LINE      CODE     ---       #417
      00FF57F4H   LINE      CODE     ---       #421
      00FF57F6H   LINE      CODE     ---       #424
      00FF57F6H   LINE      CODE     ---       #428
      00FF57F9H   LINE      CODE     ---       #429
      00FF5801H   LINE      CODE     ---       #430
      00FF580DH   LINE      CODE     ---       #431
      00FF5810H   LINE      CODE     ---       #441
      00FF5813H   LINE      CODE     ---       #443
      00FF582FH   LINE      CODE     ---       #445
      00FF5833H   LINE      CODE     ---       #446
      00FF5835H   LINE      CODE     ---       #447
      00FF5851H   LINE      CODE     ---       #451
      00FF5854H   LINE      CODE     ---       #452
      00FF5854H   LINE      CODE     ---       #456
      00FF5854H   LINE      CODE     ---       #459
      00FF5854H   LINE      CODE     ---       #462
      00FF585DH   LINE      CODE     ---       #464
      ---         BLOCKEND  ---      ---       LVL=0

      ---         MODULE    ---      ---       eeprom
      00011FAAH   PUBLIC    XDATA    ---       init_buff
      00011B27H   PUBLIC    XDATA    BYTE      ?eeprom_read?BYTE
      000000D0H   SFRSYM    DATA     BYTE      PSW
      0000009DH   SFRSYM    DATA     BYTE      IRCBAND
      00000097H   SFRSYM    DATA     BYTE      AUXR2
      000000EFH   SFRSYM    DATA     BYTE      AUXINTIF
      000000FDH   SFRSYM    DATA     BYTE      S4CON
      000000ACH   SFRSYM    DATA     BYTE      S3CON
      0000009AH   SFRSYM    DATA     BYTE      S2CON
      000000B7H   SFRSYM    DATA     BYTE      IPH
      000000CDH   SFRSYM    DATA     BYTE      SPSTAT
      000000DDH   SFRSYM    DATA     BYTE      T4T3M
      000000C1H   SFRSYM    DATA     BYTE      WDT_CONTR
      000000DFH   SFRSYM    DATA     BYTE      IP3
      000000F4H   SFRSYM    DATA     BYTE      USBCON
      000000B5H   SFRSYM    DATA     BYTE      IP2
      000000FFH   SFRSYM    DATA     BYTE      RSTCFG
      000000C7H   SFRSYM    DATA     BYTE      IAP_CONTR
      000000F9H   SFRSYM    DATA     BYTE      LINICR
      0000008EH   SFRSYM    DATA     BYTE      AUXR
      000000AFH   SFRSYM    DATA     BYTE      IE2
      00000088H   SFRSYM    DATA     BYTE      TCON
L251 LINKER/LOCATER V4.66.93.0                                                        05/01/2026  20:21:51  PAGE 92


      00000089H   SFRSYM    DATA     BYTE      TMOD
      00000098H   SFRSYM    DATA     BYTE      SCON
      000000F1H   SFRSYM    DATA     BYTE      CANICR
      00000087H   SFRSYM    DATA     BYTE      PCON
      000000BCH   SFRSYM    DATA     BYTE      ADC_CONTR
      000000E7H   SFRSYM    DATA     BYTE      CMPCR2
      000000E6H   SFRSYM    DATA     BYTE      CMPCR1
      000000DEH   SFRSYM    DATA     BYTE      ADCCFG
      000000B8H   SFRSYM    DATA     BYTE      IP
      0000008FH   SFRSYM    DATA     BYTE      INTCLKO
      000000EEH   SFRSYM    DATA     BYTE      IP3H
      000000B6H   SFRSYM    DATA     BYTE      IP2H
      000000A8H   SFRSYM    DATA     BYTE      IE
      000000BBH   SFRSYM    DATA     BYTE      P_SW3
      000000BAH   SFRSYM    DATA     BYTE      P_SW2
      000000A2H   SFRSYM    DATA     BYTE      P_SW1
      000000CEH   SFRSYM    DATA     BYTE      SPCTL
      000000F8H   SFRSYM    DATA     BYTE      P7
      000000E8H   SFRSYM    DATA     BYTE      P6
      000000C8H   SFRSYM    DATA     BYTE      P5
      000000C0H   SFRSYM    DATA     BYTE      P4
      000000B0H   SFRSYM    DATA     BYTE      P3
      000000A0H   SFRSYM    DATA     BYTE      P2
      00000090H   SFRSYM    DATA     BYTE      P1
      00000080H   SFRSYM    DATA     BYTE      P0
      00011B27H   SYMBOL    XDATA    DWORD     addr
      00011B2BH   SYMBOL    XDATA    ---       buf
      00011B2FH   SYMBOL    XDATA    WORD      len
      00011CCFH   SYMBOL    XDATA    DWORD     addr
      00011CD3H   SYMBOL    XDATA    WORD      max
      00011CD5H   SYMBOL    XDATA    WORD      min
      00011975H   SYMBOL    XDATA    DWORD     addr
      00011979H   SYMBOL    XDATA    ---       buff
      0001197DH   SYMBOL    XDATA    ---       buf

      ---         MODULE    ---      ---       voltage_warning
      000000D0H   SFRSYM    DATA     BYTE      PSW
      0000009DH   SFRSYM    DATA     BYTE      IRCBAND
      00000097H   SFRSYM    DATA     BYTE      AUXR2
      000000EFH   SFRSYM    DATA     BYTE      AUXINTIF
      000000FDH   SFRSYM    DATA     BYTE      S4CON
      000000ACH   SFRSYM    DATA     BYTE      S3CON
      0000009AH   SFRSYM    DATA     BYTE      S2CON
      000000B7H   SFRSYM    DATA     BYTE      IPH
      000000CDH   SFRSYM    DATA     BYTE      SPSTAT
      000000DDH   SFRSYM    DATA     BYTE      T4T3M
      000000C1H   SFRSYM    DATA     BYTE      WDT_CONTR
      000000DFH   SFRSYM    DATA     BYTE      IP3
      000000F4H   SFRSYM    DATA     BYTE      USBCON
      000000B5H   SFRSYM    DATA     BYTE      IP2
      000000FFH   SFRSYM    DATA     BYTE      RSTCFG
      000000C7H   SFRSYM    DATA     BYTE      IAP_CONTR
      000000F9H   SFRSYM    DATA     BYTE      LINICR
      0000008EH   SFRSYM    DATA     BYTE      AUXR
      000000AFH   SFRSYM    DATA     BYTE      IE2
      00000088H   SFRSYM    DATA     BYTE      TCON
      00000089H   SFRSYM    DATA     BYTE      TMOD
      00000098H   SFRSYM    DATA     BYTE      SCON
      000000F1H   SFRSYM    DATA     BYTE      CANICR
      00000087H   SFRSYM    DATA     BYTE      PCON
      000000BCH   SFRSYM    DATA     BYTE      ADC_CONTR
      000000E7H   SFRSYM    DATA     BYTE      CMPCR2
      000000E6H   SFRSYM    DATA     BYTE      CMPCR1
      000000DEH   SFRSYM    DATA     BYTE      ADCCFG
      000000B8H   SFRSYM    DATA     BYTE      IP
L251 LINKER/LOCATER V4.66.93.0                                                        05/01/2026  20:21:51  PAGE 93


      0000008FH   SFRSYM    DATA     BYTE      INTCLKO
      000000EEH   SFRSYM    DATA     BYTE      IP3H
      000000B6H   SFRSYM    DATA     BYTE      IP2H
      000000A8H   SFRSYM    DATA     BYTE      IE
      000000BBH   SFRSYM    DATA     BYTE      P_SW3
      000000BAH   SFRSYM    DATA     BYTE      P_SW2
      000000A2H   SFRSYM    DATA     BYTE      P_SW1
      000000CEH   SFRSYM    DATA     BYTE      SPCTL
      000000F8H   SFRSYM    DATA     BYTE      P7
      000000E8H   SFRSYM    DATA     BYTE      P6
      000000C8H   SFRSYM    DATA     BYTE      P5
      000000C0H   SFRSYM    DATA     BYTE      P4
      000000B0H   SFRSYM    DATA     BYTE      P3
      000000A0H   SFRSYM    DATA     BYTE      P2
      00000090H   SFRSYM    DATA     BYTE      P1
      00000080H   SFRSYM    DATA     BYTE      P0
      00011F1EH   SYMBOL    XDATA    INT       channel
      00011F20H   SYMBOL    XDATA    WORD      value

      ---         MODULE    ---      ---       zf_device_ble6a20
      000000D0H   SFRSYM    DATA     BYTE      PSW
      0000009DH   SFRSYM    DATA     BYTE      IRCBAND
      00000097H   SFRSYM    DATA     BYTE      AUXR2
      000000EFH   SFRSYM    DATA     BYTE      AUXINTIF
      000000FDH   SFRSYM    DATA     BYTE      S4CON
      000000ACH   SFRSYM    DATA     BYTE      S3CON
      0000009AH   SFRSYM    DATA     BYTE      S2CON
      000000B7H   SFRSYM    DATA     BYTE      IPH
      000000CDH   SFRSYM    DATA     BYTE      SPSTAT
      000000DDH   SFRSYM    DATA     BYTE      T4T3M
      000000C1H   SFRSYM    DATA     BYTE      WDT_CONTR
      000000DFH   SFRSYM    DATA     BYTE      IP3
      000000F4H   SFRSYM    DATA     BYTE      USBCON
      000000B5H   SFRSYM    DATA     BYTE      IP2
      000000FFH   SFRSYM    DATA     BYTE      RSTCFG
      000000C7H   SFRSYM    DATA     BYTE      IAP_CONTR
      000000F9H   SFRSYM    DATA     BYTE      LINICR
      0000008EH   SFRSYM    DATA     BYTE      AUXR
      000000AFH   SFRSYM    DATA     BYTE      IE2
      00000088H   SFRSYM    DATA     BYTE      TCON
      00000089H   SFRSYM    DATA     BYTE      TMOD
      00000098H   SFRSYM    DATA     BYTE      SCON
      000000F1H   SFRSYM    DATA     BYTE      CANICR
      00000087H   SFRSYM    DATA     BYTE      PCON
      000000BCH   SFRSYM    DATA     BYTE      ADC_CONTR
      000000E7H   SFRSYM    DATA     BYTE      CMPCR2
      000000E6H   SFRSYM    DATA     BYTE      CMPCR1
      000000DEH   SFRSYM    DATA     BYTE      ADCCFG
      000000B8H   SFRSYM    DATA     BYTE      IP
      0000008FH   SFRSYM    DATA     BYTE      INTCLKO
      000000EEH   SFRSYM    DATA     BYTE      IP3H
      000000B6H   SFRSYM    DATA     BYTE      IP2H
      000000A8H   SFRSYM    DATA     BYTE      IE
      000000BBH   SFRSYM    DATA     BYTE      P_SW3
      000000BAH   SFRSYM    DATA     BYTE      P_SW2
      000000A2H   SFRSYM    DATA     BYTE      P_SW1
      000000CEH   SFRSYM    DATA     BYTE      SPCTL
      000000F8H   SFRSYM    DATA     BYTE      P7
      000000E8H   SFRSYM    DATA     BYTE      P6
      000000C8H   SFRSYM    DATA     BYTE      P5
      000000C0H   SFRSYM    DATA     BYTE      P4
      000000B0H   SFRSYM    DATA     BYTE      P3
      000000A0H   SFRSYM    DATA     BYTE      P2
      00000090H   SFRSYM    DATA     BYTE      P1
      00000080H   SFRSYM    DATA     BYTE      P0
L251 LINKER/LOCATER V4.66.93.0                                                        05/01/2026  20:21:51  PAGE 94


      00010D0AH   SYMBOL    XDATA    ---       ble6a20_buffer
      00010D4AH   SYMBOL    XDATA    ---       ble6a20_fifo
      00011F87H   SYMBOL    XDATA    BYTE      dat
      00011F88H   SYMBOL    XDATA    WORD      time_cnt
      00011981H   SYMBOL    XDATA    ---       buff
      00011985H   SYMBOL    XDATA    DWORD     len
      00011989H   SYMBOL    XDATA    WORD      time_cnt
      0001198BH   SYMBOL    XDATA    WORD      send_len
      00011CD7H   SYMBOL    XDATA    ---       str
      00011CDBH   SYMBOL    XDATA    DWORD     len
      0001198DH   SYMBOL    XDATA    ---       buff
      00011991H   SYMBOL    XDATA    DWORD     len
      00011995H   SYMBOL    XDATA    DWORD     data_len
      00011FE2H   SYMBOL    XDATA    BYTE      uart_dat
      00011FE3H   SYMBOL    XDATA    BYTE      return_state

      ---         MODULE    ---      ---       zf_device_config
      00FF01CEH   PUBLIC    CODE     ---       imu660ra_config_file

      ---         MODULE    ---      ---       zf_device_dl1a
      00011887H   PUBLIC    XDATA    WORD      dl1a_distance_mm
      00011889H   PUBLIC    XDATA    BYTE      dl1a_finsh_flag
      000000D0H   SFRSYM    DATA     BYTE      PSW
      0000009DH   SFRSYM    DATA     BYTE      IRCBAND
      00000097H   SFRSYM    DATA     BYTE      AUXR2
      000000EFH   SFRSYM    DATA     BYTE      AUXINTIF
      000000FDH   SFRSYM    DATA     BYTE      S4CON
      000000ACH   SFRSYM    DATA     BYTE      S3CON
      0000009AH   SFRSYM    DATA     BYTE      S2CON
      000000B7H   SFRSYM    DATA     BYTE      IPH
      000000CDH   SFRSYM    DATA     BYTE      SPSTAT
      000000DDH   SFRSYM    DATA     BYTE      T4T3M
      000000C1H   SFRSYM    DATA     BYTE      WDT_CONTR
      000000DFH   SFRSYM    DATA     BYTE      IP3
      000000F4H   SFRSYM    DATA     BYTE      USBCON
      000000B5H   SFRSYM    DATA     BYTE      IP2
      000000FFH   SFRSYM    DATA     BYTE      RSTCFG
      000000C7H   SFRSYM    DATA     BYTE      IAP_CONTR
      000000F9H   SFRSYM    DATA     BYTE      LINICR
      0000008EH   SFRSYM    DATA     BYTE      AUXR
      000000AFH   SFRSYM    DATA     BYTE      IE2
      00000088H   SFRSYM    DATA     BYTE      TCON
      00000089H   SFRSYM    DATA     BYTE      TMOD
      00000098H   SFRSYM    DATA     BYTE      SCON
      000000F1H   SFRSYM    DATA     BYTE      CANICR
      00000087H   SFRSYM    DATA     BYTE      PCON
      000000BCH   SFRSYM    DATA     BYTE      ADC_CONTR
      000000E7H   SFRSYM    DATA     BYTE      CMPCR2
      000000E6H   SFRSYM    DATA     BYTE      CMPCR1
      000000DEH   SFRSYM    DATA     BYTE      ADCCFG
      000000B8H   SFRSYM    DATA     BYTE      IP
      0000008FH   SFRSYM    DATA     BYTE      INTCLKO
      000000EEH   SFRSYM    DATA     BYTE      IP3H
      000000B6H   SFRSYM    DATA     BYTE      IP2H
      000000A8H   SFRSYM    DATA     BYTE      IE
      000000BBH   SFRSYM    DATA     BYTE      P_SW3
      000000BAH   SFRSYM    DATA     BYTE      P_SW2
      000000A2H   SFRSYM    DATA     BYTE      P_SW1
      000000CEH   SFRSYM    DATA     BYTE      SPCTL
      000000F8H   SFRSYM    DATA     BYTE      P7
      000000E8H   SFRSYM    DATA     BYTE      P6
      000000C8H   SFRSYM    DATA     BYTE      P5
      000000C0H   SFRSYM    DATA     BYTE      P4
      000000B0H   SFRSYM    DATA     BYTE      P3
      000000A0H   SFRSYM    DATA     BYTE      P2
L251 LINKER/LOCATER V4.66.93.0                                                        05/01/2026  20:21:51  PAGE 95


      00000090H   SFRSYM    DATA     BYTE      P1
      00000080H   SFRSYM    DATA     BYTE      P0
      00FFACFCH   SYMBOL    HCONST   ---       ?tpl?0001
      00FFAD04H   SYMBOL    HCONST   ---       ?tpl?0002
      00FFAD0AH   SYMBOL    HCONST   ---       ?tpl?0003
      00FFAD14H   SYMBOL    HCONST   ---       ?tpl?0004
      0001187EH   SYMBOL    XDATA    ---       dl1a_iic_struct
      0001188AH   SYMBOL    XDATA    BYTE      dl1a_init_flag
      00011999H   SYMBOL    XDATA    ---       index
      0001199DH   SYMBOL    XDATA    ---       type_is_aperture
      000119A1H   SYMBOL    XDATA    BYTE      tmp
      000119A2H   SYMBOL    XDATA    BYTE      return_state
      000119A3H   SYMBOL    XDATA    WORD      loop_count
      00011D6CH   SYMBOL    XDATA    WORD      timeout_period_mclks
      00011D6EH   SYMBOL    XDATA    BYTE      vcsel_period_pclks
      00011D6FH   SYMBOL    XDATA    DWORD     macro_period_ns
      00011B6CH   SYMBOL    XDATA    DWORD     timeout_period_us
      00011B70H   SYMBOL    XDATA    BYTE      vcsel_period_pclks
      00011B71H   SYMBOL    XDATA    DWORD     macro_period_ns
      00011FACH   SYMBOL    XDATA    WORD      reg_val
      00011FAEH   SYMBOL    XDATA    WORD      timeout_mclks
      00000008H   SYMBOL    EDATA    DWORD     ls_byte
      0000000CH   SYMBOL    EDATA    WORD      ms_byte
      0000000EH   SYMBOL    EDATA    WORD      return_data
      00011EA6H   SYMBOL    XDATA    ---       enables
      00011EAAH   SYMBOL    XDATA    BYTE      sequence_config
      00011F8AH   SYMBOL    XDATA    INT       type
      00011F8CH   SYMBOL    XDATA    BYTE      data_buffer
      000119A5H   SYMBOL    XDATA    ---       enables
      000119A9H   SYMBOL    XDATA    ---       timeouts
      000119ADH   SYMBOL    XDATA    ---       reg_buffer
      000119AFH   SYMBOL    XDATA    WORD      reg16_buffer
      00011EABH   SYMBOL    XDATA    BYTE      vhv_init_byte
      00011EACH   SYMBOL    XDATA    BYTE      return_state
      00011EADH   SYMBOL    XDATA    BYTE      data_buffer
      00011EAEH   SYMBOL    XDATA    WORD      loop_count
      0001105AH   SYMBOL    XDATA    DWORD     budget_us
      0001105EH   SYMBOL    XDATA    BYTE      return_state
      0001105FH   SYMBOL    XDATA    ---       data_buffer
      00011062H   SYMBOL    XDATA    WORD      dat
      00011064H   SYMBOL    XDATA    DWORD     final_range_timeout_us
      00011068H   SYMBOL    XDATA    WORD      final_range_timeout_mclks
      0001106AH   SYMBOL    XDATA    ---       enables
      0001106FH   SYMBOL    XDATA    ---       timeouts
      00011085H   SYMBOL    XDATA    DWORD     used_budget_us
      00011283H   SYMBOL    XDATA    ---       enables
      00011288H   SYMBOL    XDATA    ---       timeouts
      0001129EH   SYMBOL    XDATA    DWORD     budget_us
      00011B75H   SYMBOL    XDATA    FLOAT     limit_mcps
      00011B79H   SYMBOL    XDATA    ---       data_buffer
      00011B7CH   SYMBOL    XDATA    WORD      limit_mcps_16bit
      00011F8DH   SYMBOL    XDATA    ---       reg_databuffer
      00010A60H   SYMBOL    XDATA    DWORD     measurement_timing_budget_us
      00010A64H   SYMBOL    XDATA    BYTE      stop_variable
      00010A65H   SYMBOL    XDATA    BYTE      return_state
      00010A66H   SYMBOL    XDATA    BYTE      reg_data_buffer
      00010A67H   SYMBOL    XDATA    ---       ref_spad_map
      00010A6DH   SYMBOL    XDATA    ---       data_buffer
      00010A74H   SYMBOL    XDATA    WORD      i
      00010A76H   SYMBOL    XDATA    ---       temp_buff1
      00010A7EH   SYMBOL    XDATA    ---       temp_buff2
      00010A84H   SYMBOL    XDATA    ---       temp_buff3
      00010A8EH   SYMBOL    XDATA    ---       temp_buff4

      ---         MODULE    ---      ---       zf_device_dl1b
L251 LINKER/LOCATER V4.66.93.0                                                        05/01/2026  20:21:51  PAGE 96


      00011894H   PUBLIC    XDATA    WORD      dl1b_distance_mm
      00011896H   PUBLIC    XDATA    BYTE      dl1b_finsh_flag
      000000D0H   SFRSYM    DATA     BYTE      PSW
      0000009DH   SFRSYM    DATA     BYTE      IRCBAND
      00000097H   SFRSYM    DATA     BYTE      AUXR2
      000000EFH   SFRSYM    DATA     BYTE      AUXINTIF
      000000FDH   SFRSYM    DATA     BYTE      S4CON
      000000ACH   SFRSYM    DATA     BYTE      S3CON
      0000009AH   SFRSYM    DATA     BYTE      S2CON
      000000B7H   SFRSYM    DATA     BYTE      IPH
      000000CDH   SFRSYM    DATA     BYTE      SPSTAT
      000000DDH   SFRSYM    DATA     BYTE      T4T3M
      000000C1H   SFRSYM    DATA     BYTE      WDT_CONTR
      000000DFH   SFRSYM    DATA     BYTE      IP3
      000000F4H   SFRSYM    DATA     BYTE      USBCON
      000000B5H   SFRSYM    DATA     BYTE      IP2
      000000FFH   SFRSYM    DATA     BYTE      RSTCFG
      000000C7H   SFRSYM    DATA     BYTE      IAP_CONTR
      000000F9H   SFRSYM    DATA     BYTE      LINICR
      0000008EH   SFRSYM    DATA     BYTE      AUXR
      000000AFH   SFRSYM    DATA     BYTE      IE2
      00000088H   SFRSYM    DATA     BYTE      TCON
      00000089H   SFRSYM    DATA     BYTE      TMOD
      00000098H   SFRSYM    DATA     BYTE      SCON
      000000F1H   SFRSYM    DATA     BYTE      CANICR
      00000087H   SFRSYM    DATA     BYTE      PCON
      000000BCH   SFRSYM    DATA     BYTE      ADC_CONTR
      000000E7H   SFRSYM    DATA     BYTE      CMPCR2
      000000E6H   SFRSYM    DATA     BYTE      CMPCR1
      000000DEH   SFRSYM    DATA     BYTE      ADCCFG
      000000B8H   SFRSYM    DATA     BYTE      IP
      0000008FH   SFRSYM    DATA     BYTE      INTCLKO
      000000EEH   SFRSYM    DATA     BYTE      IP3H
      000000B6H   SFRSYM    DATA     BYTE      IP2H
      000000A8H   SFRSYM    DATA     BYTE      IE
      000000BBH   SFRSYM    DATA     BYTE      P_SW3
      000000BAH   SFRSYM    DATA     BYTE      P_SW2
      000000A2H   SFRSYM    DATA     BYTE      P_SW1
      000000CEH   SFRSYM    DATA     BYTE      SPCTL
      000000F8H   SFRSYM    DATA     BYTE      P7
      000000E8H   SFRSYM    DATA     BYTE      P6
      000000C8H   SFRSYM    DATA     BYTE      P5
      000000C0H   SFRSYM    DATA     BYTE      P4
      000000B0H   SFRSYM    DATA     BYTE      P3
      000000A0H   SFRSYM    DATA     BYTE      P2
      00000090H   SFRSYM    DATA     BYTE      P1
      00000080H   SFRSYM    DATA     BYTE      P0
      0001188BH   SYMBOL    XDATA    ---       dl1b_iic_struct
      00011897H   SYMBOL    XDATA    BYTE      dl1b_init_flag
      00011EB0H   SYMBOL    XDATA    ---       data_buffer
      00011EB3H   SYMBOL    XDATA    INT       dl1b_distance_temp
      00011FE4H   SYMBOL    XDATA    BYTE      return_state

      ---         MODULE    ---      ---       zf_device_gps_tau1201
      00010423H   PUBLIC    XDATA    BYTE      gps_tau1201_flag
      000104A4H   PUBLIC    XDATA    ---       gps_tau1201
      000105D0H   PUBLIC    XDATA    INT       gps_gga_state
      000105D2H   PUBLIC    XDATA    INT       gps_rmc_state
      00010F9AH   PUBLIC    XDATA    BYTE      ?get_two_points_distance?BYTE
      00011339H   PUBLIC    XDATA    BYTE      ?get_two_points_azimuth?BYTE
      000000D0H   SFRSYM    DATA     BYTE      PSW
      0000009DH   SFRSYM    DATA     BYTE      IRCBAND
      00000097H   SFRSYM    DATA     BYTE      AUXR2
      000000EFH   SFRSYM    DATA     BYTE      AUXINTIF
      000000FDH   SFRSYM    DATA     BYTE      S4CON
L251 LINKER/LOCATER V4.66.93.0                                                        05/01/2026  20:21:51  PAGE 97


      000000ACH   SFRSYM    DATA     BYTE      S3CON
      0000009AH   SFRSYM    DATA     BYTE      S2CON
      000000B7H   SFRSYM    DATA     BYTE      IPH
      000000CDH   SFRSYM    DATA     BYTE      SPSTAT
      000000DDH   SFRSYM    DATA     BYTE      T4T3M
      000000C1H   SFRSYM    DATA     BYTE      WDT_CONTR
      000000DFH   SFRSYM    DATA     BYTE      IP3
      000000F4H   SFRSYM    DATA     BYTE      USBCON
      000000B5H   SFRSYM    DATA     BYTE      IP2
      000000FFH   SFRSYM    DATA     BYTE      RSTCFG
      000000C7H   SFRSYM    DATA     BYTE      IAP_CONTR
      000000F9H   SFRSYM    DATA     BYTE      LINICR
      0000008EH   SFRSYM    DATA     BYTE      AUXR
      000000AFH   SFRSYM    DATA     BYTE      IE2
      00000088H   SFRSYM    DATA     BYTE      TCON
      00000089H   SFRSYM    DATA     BYTE      TMOD
      00000098H   SFRSYM    DATA     BYTE      SCON
      000000F1H   SFRSYM    DATA     BYTE      CANICR
      00000087H   SFRSYM    DATA     BYTE      PCON
      000000BCH   SFRSYM    DATA     BYTE      ADC_CONTR
      000000E7H   SFRSYM    DATA     BYTE      CMPCR2
      000000E6H   SFRSYM    DATA     BYTE      CMPCR1
      000000DEH   SFRSYM    DATA     BYTE      ADCCFG
      000000B8H   SFRSYM    DATA     BYTE      IP
      0000008FH   SFRSYM    DATA     BYTE      INTCLKO
      000000EEH   SFRSYM    DATA     BYTE      IP3H
      000000B6H   SFRSYM    DATA     BYTE      IP2H
      000000A8H   SFRSYM    DATA     BYTE      IE
      000000BBH   SFRSYM    DATA     BYTE      P_SW3
      000000BAH   SFRSYM    DATA     BYTE      P_SW2
      000000A2H   SFRSYM    DATA     BYTE      P_SW1
      000000CEH   SFRSYM    DATA     BYTE      SPCTL
      000000F8H   SFRSYM    DATA     BYTE      P7
      000000E8H   SFRSYM    DATA     BYTE      P6
      000000C8H   SFRSYM    DATA     BYTE      P5
      000000C0H   SFRSYM    DATA     BYTE      P4
      000000B0H   SFRSYM    DATA     BYTE      P3
      000000A0H   SFRSYM    DATA     BYTE      P2
      00000090H   SFRSYM    DATA     BYTE      P1
      00000080H   SFRSYM    DATA     BYTE      P0
      00FFAFD7H   SYMBOL    HCONST   ---       ?tpl?0001
      00FFAFDCH   SYMBOL    HCONST   ---       ?tpl?0002
      00FFAFF8H   SYMBOL    HCONST   ---       ?tpl?0003
      00FFB003H   SYMBOL    HCONST   ---       ?tpl?0004
      00FFB00EH   SYMBOL    HCONST   ---       ?tpl?0005
      00FFB019H   SYMBOL    HCONST   ---       ?tpl?0006
      00FFB024H   SYMBOL    HCONST   ---       ?tpl?0007
      00FFB02FH   SYMBOL    HCONST   ---       ?tpl?0008
      00FFB03AH   SYMBOL    HCONST   ---       ?tpl?0009
      00FFB045H   SYMBOL    HCONST   ---       ?tpl?000A
      00FFB050H   SYMBOL    HCONST   ---       ?tpl?000B
      00FFB05BH   SYMBOL    HCONST   ---       ?tpl?000C
      00FFB066H   SYMBOL    HCONST   ---       ?tpl?000D
      0001040CH   SYMBOL    XDATA    ---       gps_tau1201_receiver_fifo
      00010424H   SYMBOL    XDATA    ---       gps_gga_buffer
      000104CFH   SYMBOL    XDATA    BYTE      gps_tau1201_state
      000104D0H   SYMBOL    XDATA    ---       gps_rmc_buffer
      00010550H   SYMBOL    XDATA    ---       gps_tau1201_receiver_buffer
      00011898H   SYMBOL    XDATA    BYTE      num
      00011899H   SYMBOL    XDATA    ---       str
      0001189DH   SYMBOL    XDATA    BYTE      i
      0001189EH   SYMBOL    XDATA    BYTE      j
      0001189FH   SYMBOL    XDATA    ---       temp
      000118A3H   SYMBOL    XDATA    BYTE      len
      000118A4H   SYMBOL    XDATA    BYTE      len1
L251 LINKER/LOCATER V4.66.93.0                                                        05/01/2026  20:21:51  PAGE 98


      0001162BH   SYMBOL    XDATA    ---       s
      0001162FH   SYMBOL    XDATA    ---       buf
      00011639H   SYMBOL    XDATA    BYTE      i
      0001163AH   SYMBOL    XDATA    INT       return_value
      0001143CH   SYMBOL    XDATA    ---       s
      00011440H   SYMBOL    XDATA    BYTE      i
      00011441H   SYMBOL    XDATA    ---       buf
      00011450H   SYMBOL    XDATA    FLOAT     return_value
      00011454H   SYMBOL    XDATA    ---       s
      00011458H   SYMBOL    XDATA    BYTE      i
      00011459H   SYMBOL    XDATA    ---       buf
      00011468H   SYMBOL    XDATA    FLOAT     return_value
      00011EB5H   SYMBOL    XDATA    ---       time
      00011EB9H   SYMBOL    XDATA    BYTE      day_num
      0001110DH   SYMBOL    XDATA    ---       line
      00011111H   SYMBOL    XDATA    ---       gps
      00011115H   SYMBOL    XDATA    BYTE      state
      00011116H   SYMBOL    XDATA    BYTE      temp
      00011117H   SYMBOL    XDATA    FLOAT     latitude
      0001111BH   SYMBOL    XDATA    FLOAT     longitude
      0001111FH   SYMBOL    XDATA    FLOAT     lati_cent_tmp
      00011123H   SYMBOL    XDATA    FLOAT     lati_second_tmp
      00011127H   SYMBOL    XDATA    FLOAT     long_cent_tmp
      0001112BH   SYMBOL    XDATA    FLOAT     long_second_tmp
      0001112FH   SYMBOL    XDATA    FLOAT     speed_tmp
      00011133H   SYMBOL    XDATA    ---       buf
      00011137H   SYMBOL    XDATA    BYTE      return_state
      000117EAH   SYMBOL    XDATA    ---       line
      000117EEH   SYMBOL    XDATA    ---       gps
      000117F2H   SYMBOL    XDATA    BYTE      state
      000117F3H   SYMBOL    XDATA    ---       buf
      000117F7H   SYMBOL    XDATA    BYTE      return_state
      00010F9AH   SYMBOL    XDATA    FLOAT     latitude1
      00010F9EH   SYMBOL    XDATA    FLOAT     longitude1
      00010FA2H   SYMBOL    XDATA    FLOAT     latitude2
      00010FA6H   SYMBOL    XDATA    FLOAT     longitude2
      00010FAAH   SYMBOL    XDATA    FLOAT     EARTH_RADIUS
      00010FAEH   SYMBOL    XDATA    FLOAT     rad_latitude1
      00010FB2H   SYMBOL    XDATA    FLOAT     rad_latitude2
      00010FB6H   SYMBOL    XDATA    FLOAT     rad_longitude1
      00010FBAH   SYMBOL    XDATA    FLOAT     rad_longitude2
      00010FBEH   SYMBOL    XDATA    FLOAT     distance
      00010FC2H   SYMBOL    XDATA    FLOAT     a
      00010FC6H   SYMBOL    XDATA    FLOAT     b
      00011339H   SYMBOL    XDATA    FLOAT     latitude1
      0001133DH   SYMBOL    XDATA    FLOAT     longitude1
      00011341H   SYMBOL    XDATA    FLOAT     latitude2
      00011345H   SYMBOL    XDATA    FLOAT     longitude2
      00011349H   SYMBOL    XDATA    FLOAT     x
      0001134DH   SYMBOL    XDATA    FLOAT     y
      00011351H   SYMBOL    XDATA    FLOAT     angle
      000119B1H   SYMBOL    XDATA    BYTE      return_state
      000119B2H   SYMBOL    XDATA    ---       check_buffer
      000119B7H   SYMBOL    XDATA    BYTE      bbc_xor_origin
      000119B8H   SYMBOL    XDATA    BYTE      bbc_xor_calculation
      000119B9H   SYMBOL    XDATA    DWORD     data_len
      00011AC0H   SYMBOL    XDATA    BYTE      uart_dat
      00011AC1H   SYMBOL    XDATA    ---       temp_gps
      00011AC7H   SYMBOL    XDATA    DWORD     temp_length
      00010B2EH   SYMBOL    XDATA    ---       set_rate
      00010B4AH   SYMBOL    XDATA    ---       open_gga
      00010B55H   SYMBOL    XDATA    ---       open_rmc
      00010B60H   SYMBOL    XDATA    ---       close_gll
      00010B6BH   SYMBOL    XDATA    ---       close_gsa
      00010B76H   SYMBOL    XDATA    ---       close_grs
L251 LINKER/LOCATER V4.66.93.0                                                        05/01/2026  20:21:51  PAGE 99


      00010B81H   SYMBOL    XDATA    ---       close_gsv
      00010B8CH   SYMBOL    XDATA    ---       close_vtg
      00010B97H   SYMBOL    XDATA    ---       close_zda
      00010BA2H   SYMBOL    XDATA    ---       close_gst
      00010BADH   SYMBOL    XDATA    ---       close_txt
      00010BB8H   SYMBOL    XDATA    ---       close_txt_ant

      ---         MODULE    ---      ---       zf_device_icm20602
      00011526H   PUBLIC    XDATA    INT       icm20602_acc_x
      00011528H   PUBLIC    XDATA    INT       icm20602_acc_y
      0001152AH   PUBLIC    XDATA    INT       icm20602_acc_z
      0001152CH   PUBLIC    XDATA    INT       icm20602_gyro_x
      0001152EH   PUBLIC    XDATA    INT       icm20602_gyro_y
      00011530H   PUBLIC    XDATA    INT       icm20602_gyro_z
      00011532H   PUBLIC    XDATA    ---       icm20602_transition_factor
      000000D0H   SFRSYM    DATA     BYTE      PSW
      0000009DH   SFRSYM    DATA     BYTE      IRCBAND
      00000097H   SFRSYM    DATA     BYTE      AUXR2
      000000EFH   SFRSYM    DATA     BYTE      AUXINTIF
      000000FDH   SFRSYM    DATA     BYTE      S4CON
      000000ACH   SFRSYM    DATA     BYTE      S3CON
      0000009AH   SFRSYM    DATA     BYTE      S2CON
      000000B7H   SFRSYM    DATA     BYTE      IPH
      000000CDH   SFRSYM    DATA     BYTE      SPSTAT
      000000DDH   SFRSYM    DATA     BYTE      T4T3M
      000000C1H   SFRSYM    DATA     BYTE      WDT_CONTR
      000000DFH   SFRSYM    DATA     BYTE      IP3
      000000F4H   SFRSYM    DATA     BYTE      USBCON
      000000B5H   SFRSYM    DATA     BYTE      IP2
      000000FFH   SFRSYM    DATA     BYTE      RSTCFG
      000000C7H   SFRSYM    DATA     BYTE      IAP_CONTR
      000000F9H   SFRSYM    DATA     BYTE      LINICR
      0000008EH   SFRSYM    DATA     BYTE      AUXR
      000000AFH   SFRSYM    DATA     BYTE      IE2
      000000C0H.3 SFRSYM    DATA     BIT       P43
      000000C0H.2 SFRSYM    DATA     BIT       P42
      00000088H   SFRSYM    DATA     BYTE      TCON
      00000089H   SFRSYM    DATA     BYTE      TMOD
      000000C0H.1 SFRSYM    DATA     BIT       P41
      00000098H   SFRSYM    DATA     BYTE      SCON
      000000C0H.0 SFRSYM    DATA     BIT       P40
      000000F1H   SFRSYM    DATA     BYTE      CANICR
      00000087H   SFRSYM    DATA     BYTE      PCON
      000000BCH   SFRSYM    DATA     BYTE      ADC_CONTR
      000000E7H   SFRSYM    DATA     BYTE      CMPCR2
      000000E6H   SFRSYM    DATA     BYTE      CMPCR1
      000000DEH   SFRSYM    DATA     BYTE      ADCCFG
      000000B8H   SFRSYM    DATA     BYTE      IP
      0000008FH   SFRSYM    DATA     BYTE      INTCLKO
      000000EEH   SFRSYM    DATA     BYTE      IP3H
      000000B6H   SFRSYM    DATA     BYTE      IP2H
      000000A8H   SFRSYM    DATA     BYTE      IE
      000000BBH   SFRSYM    DATA     BYTE      P_SW3
      000000BAH   SFRSYM    DATA     BYTE      P_SW2
      000000A2H   SFRSYM    DATA     BYTE      P_SW1
      000000CEH   SFRSYM    DATA     BYTE      SPCTL
      000000F8H   SFRSYM    DATA     BYTE      P7
      000000E8H   SFRSYM    DATA     BYTE      P6
      000000C8H   SFRSYM    DATA     BYTE      P5
      000000C0H   SFRSYM    DATA     BYTE      P4
      000000B0H   SFRSYM    DATA     BYTE      P3
      000000A0H   SFRSYM    DATA     BYTE      P2
      00000090H   SFRSYM    DATA     BYTE      P1
      00000080H   SFRSYM    DATA     BYTE      P0
      00011FB0H   SYMBOL    XDATA    BYTE      byte
L251 LINKER/LOCATER V4.66.93.0                                                        05/01/2026  20:21:51  PAGE 100


      00011FB1H   SYMBOL    XDATA    BYTE      i
      00011FB2H   SYMBOL    XDATA    BYTE      cmd
      00011FB3H   SYMBOL    XDATA    BYTE      val
      00011EBAH   SYMBOL    XDATA    BYTE      cmd
      00011EBBH   SYMBOL    XDATA    ---       val
      00011B7EH   SYMBOL    XDATA    BYTE      cmd
      00011B7FH   SYMBOL    XDATA    ---       val
      00011B83H   SYMBOL    XDATA    DWORD     num
      00000010H   SYMBOL    EDATA    DWORD     i
      00011FB4H   SYMBOL    XDATA    BYTE      reg
      00011FB5H   SYMBOL    XDATA    BYTE      dat
      00011FB6H   SYMBOL    XDATA    BYTE      reg
      00011FB7H   SYMBOL    XDATA    BYTE      dat
      00011B87H   SYMBOL    XDATA    BYTE      reg
      00011B88H   SYMBOL    XDATA    ---       dat
      00011B8CH   SYMBOL    XDATA    DWORD     len
      00011F22H   SYMBOL    XDATA    BYTE      dat
      00011F23H   SYMBOL    XDATA    BYTE      return_state
      00011F24H   SYMBOL    XDATA    WORD      timeout_count
      00011DE1H   SYMBOL    XDATA    ---       dat
      00011DE7H   SYMBOL    XDATA    ---       dat
      00011F26H   SYMBOL    XDATA    BYTE      val
      00011F27H   SYMBOL    XDATA    BYTE      return_state
      00011F28H   SYMBOL    XDATA    WORD      timeout_count

      ---         MODULE    ---      ---       zf_device_imu660ra
      00FF6B59H   PUBLIC    CODE     ---       imu660ra_init
      0001153AH   PUBLIC    XDATA    INT       imu660ra_acc_x
      0001153CH   PUBLIC    XDATA    INT       imu660ra_acc_y
      0001153EH   PUBLIC    XDATA    INT       imu660ra_acc_z
      00011540H   PUBLIC    XDATA    INT       imu660ra_gyro_x
      00011542H   PUBLIC    XDATA    INT       imu660ra_gyro_y
      00011544H   PUBLIC    XDATA    INT       imu660ra_gyro_z
      00011546H   PUBLIC    XDATA    ---       imu660ra_transition_factor
      000000D0H   SFRSYM    DATA     BYTE      PSW
      0000009DH   SFRSYM    DATA     BYTE      IRCBAND
      00000097H   SFRSYM    DATA     BYTE      AUXR2
      000000EFH   SFRSYM    DATA     BYTE      AUXINTIF
      000000FDH   SFRSYM    DATA     BYTE      S4CON
      000000ACH   SFRSYM    DATA     BYTE      S3CON
      0000009AH   SFRSYM    DATA     BYTE      S2CON
      000000B7H   SFRSYM    DATA     BYTE      IPH
      000000CDH   SFRSYM    DATA     BYTE      SPSTAT
      000000DDH   SFRSYM    DATA     BYTE      T4T3M
      000000C1H   SFRSYM    DATA     BYTE      WDT_CONTR
      000000DFH   SFRSYM    DATA     BYTE      IP3
      000000F4H   SFRSYM    DATA     BYTE      USBCON
      000000B5H   SFRSYM    DATA     BYTE      IP2
      000000FFH   SFRSYM    DATA     BYTE      RSTCFG
      000000C7H   SFRSYM    DATA     BYTE      IAP_CONTR
      000000F9H   SFRSYM    DATA     BYTE      LINICR
      0000008EH   SFRSYM    DATA     BYTE      AUXR
      000000AFH   SFRSYM    DATA     BYTE      IE2
      000000C0H.3 SFRSYM    DATA     BIT       P43
      000000C0H.2 SFRSYM    DATA     BIT       P42
      00000088H   SFRSYM    DATA     BYTE      TCON
      00000089H   SFRSYM    DATA     BYTE      TMOD
      000000C0H.1 SFRSYM    DATA     BIT       P41
      00000098H   SFRSYM    DATA     BYTE      SCON
      000000C0H.0 SFRSYM    DATA     BIT       P40
      000000F1H   SFRSYM    DATA     BYTE      CANICR
      00000087H   SFRSYM    DATA     BYTE      PCON
      000000BCH   SFRSYM    DATA     BYTE      ADC_CONTR
      000000E7H   SFRSYM    DATA     BYTE      CMPCR2
      000000E6H   SFRSYM    DATA     BYTE      CMPCR1
L251 LINKER/LOCATER V4.66.93.0                                                        05/01/2026  20:21:51  PAGE 101


      000000DEH   SFRSYM    DATA     BYTE      ADCCFG
      000000B8H   SFRSYM    DATA     BYTE      IP
      0000008FH   SFRSYM    DATA     BYTE      INTCLKO
      000000EEH   SFRSYM    DATA     BYTE      IP3H
      000000B6H   SFRSYM    DATA     BYTE      IP2H
      000000A8H   SFRSYM    DATA     BYTE      IE
      000000BBH   SFRSYM    DATA     BYTE      P_SW3
      000000BAH   SFRSYM    DATA     BYTE      P_SW2
      000000A2H   SFRSYM    DATA     BYTE      P_SW1
      000000CEH   SFRSYM    DATA     BYTE      SPCTL
      000000F8H   SFRSYM    DATA     BYTE      P7
      000000E8H   SFRSYM    DATA     BYTE      P6
      000000C8H   SFRSYM    DATA     BYTE      P5
      000000C0H   SFRSYM    DATA     BYTE      P4
      000000B0H   SFRSYM    DATA     BYTE      P3
      000000A0H   SFRSYM    DATA     BYTE      P2
      00000090H   SFRSYM    DATA     BYTE      P1
      00000080H   SFRSYM    DATA     BYTE      P0
      00FFA33AH   SYMBOL    CODE     ---       imu660ra_read_register
      00FFA271H   SYMBOL    CODE     ---       imu660ra_write_registers
      00FFA4EBH   SYMBOL    CODE     ---       imu660ra_write_register
      00FF9E62H   SYMBOL    CODE     ---       imu660ra_simspi_wr_byte
      00FF9B2CH   SYMBOL    CODE     ---       imu660ra_self_check
      00FF98B4H   SYMBOL    CODE     ---       imu660ra_simspi_r_reg_bytes
      00FF9C4AH   SYMBOL    CODE     ---       imu660ra_simspi_w_reg_bytes
      00FF0026H   SYMBOL    CODE     ---       imu660ra_simspi_w_reg_byte

      00FF9E62H   BLOCK     CODE     ---       LVL=0
      00011FB8H   SYMBOL    XDATA    BYTE      byte
      00FF9E66H   BLOCK     CODE     NEAR LAB  LVL=1
      00011FB9H   SYMBOL    XDATA    BYTE      i
      ---         BLOCKEND  ---      ---       LVL=1
      00FF9E62H   LINE      CODE     ---       #160
      00FF9E66H   LINE      CODE     ---       #161
      00FF9E66H   LINE      CODE     ---       #163
      00FF9E6DH   LINE      CODE     ---       #165
      00FF9E70H   LINE      CODE     ---       #166
      00FF9E7FH   LINE      CODE     ---       #167
      00FF9E86H   LINE      CODE     ---       #168
      00FF9E89H   LINE      CODE     ---       #169
      00FF9E96H   LINE      CODE     ---       #170
      00FF9EADH   LINE      CODE     ---       #171
      00FF9EB0H   LINE      CODE     ---       #172
      00FF9EB4H   LINE      CODE     ---       #173
      ---         BLOCKEND  ---      ---       LVL=0

      00FF0026H   BLOCK     CODE     ---       LVL=0
      00011FBAH   SYMBOL    XDATA    BYTE      cmd
      00011FBBH   SYMBOL    XDATA    BYTE      val
      00FF0026H   LINE      CODE     ---       #182
      00FF0030H   LINE      CODE     ---       #184
      00FF0034H   LINE      CODE     ---       #185
      00FF003BH   LINE      CODE     ---       #186
      00FF0042H   LINE      CODE     ---       #187
      ---         BLOCKEND  ---      ---       LVL=0

      00FF9C4AH   BLOCK     CODE     ---       LVL=0
      00011B90H   SYMBOL    XDATA    BYTE      cmd
      00011B91H   SYMBOL    XDATA    ---       dat_addr
      00011B95H   SYMBOL    XDATA    DWORD     len
      00FF9C4AH   LINE      CODE     ---       #197
      00FF9C62H   LINE      CODE     ---       #199
      00FF9C66H   LINE      CODE     ---       #200
      00FF9C6DH   LINE      CODE     ---       #201
      00FF9C6FH   LINE      CODE     ---       #203
L251 LINKER/LOCATER V4.66.93.0                                                        05/01/2026  20:21:51  PAGE 102


      00FF9C88H   LINE      CODE     ---       #204
      00FF9CA5H   LINE      CODE     ---       #205
      ---         BLOCKEND  ---      ---       LVL=0

      00FF98B4H   BLOCK     CODE     ---       LVL=0
      00011B99H   SYMBOL    XDATA    BYTE      cmd
      00011B9AH   SYMBOL    XDATA    ---       val
      00011B9EH   SYMBOL    XDATA    DWORD     num
      00FF98B4H   LINE      CODE     ---       #215
      00FF98CCH   LINE      CODE     ---       #217
      00FF98D6H   LINE      CODE     ---       #218
      00FF98DDH   LINE      CODE     ---       #219
      00FF98DFH   LINE      CODE     ---       #221
      00FF9906H   LINE      CODE     ---       #222
      00FF9923H   LINE      CODE     ---       #223
      ---         BLOCKEND  ---      ---       LVL=0

      00FFA4EBH   BLOCK     CODE     ---       LVL=0
      00011FBCH   SYMBOL    XDATA    BYTE      reg
      00011FBDH   SYMBOL    XDATA    BYTE      dat
      00FFA4EBH   LINE      CODE     ---       #234
      00FFA4F5H   LINE      CODE     ---       #236
      00FFA4F8H   LINE      CODE     ---       #237
      00FFA505H   LINE      CODE     ---       #238
      00FFA508H   LINE      CODE     ---       #239
      ---         BLOCKEND  ---      ---       LVL=0

      00FFA271H   BLOCK     CODE     ---       LVL=0
      00011BA2H   SYMBOL    XDATA    BYTE      reg
      00011BA3H   SYMBOL    XDATA    ---       dat
      00011BA7H   SYMBOL    XDATA    DWORD     len
      00FFA271H   LINE      CODE     ---       #249
      00FFA289H   LINE      CODE     ---       #251
      00FFA28CH   LINE      CODE     ---       #252
      00FFA2A7H   LINE      CODE     ---       #253
      00FFA2AAH   LINE      CODE     ---       #254
      ---         BLOCKEND  ---      ---       LVL=0

      00FFA33AH   BLOCK     CODE     ---       LVL=0
      00011F90H   SYMBOL    XDATA    BYTE      reg
      00FFA33EH   BLOCK     CODE     NEAR LAB  LVL=1
      00011F91H   SYMBOL    XDATA    ---       dat
      ---         BLOCKEND  ---      ---       LVL=1
      00FFA33AH   LINE      CODE     ---       #263
      00FFA33EH   LINE      CODE     ---       #264
      00FFA33EH   LINE      CODE     ---       #266
      00FFA341H   LINE      CODE     ---       #267
      00FFA35AH   LINE      CODE     ---       #268
      00FFA35DH   LINE      CODE     ---       #269
      00FFA361H   LINE      CODE     ---       #270
      ---         BLOCKEND  ---      ---       LVL=0
      00011562H   SYMBOL    XDATA    BYTE      reg
      00011563H   SYMBOL    XDATA    ---       dat
      00011567H   SYMBOL    XDATA    DWORD     len
      0001156BH   SYMBOL    XDATA    WORD      i
      0001156DH   SYMBOL    XDATA    ---       temp_data

      00FF9B2CH   BLOCK     CODE     ---       LVL=0
      00011F2AH   SYMBOL    XDATA    BYTE      dat
      00011F2BH   SYMBOL    XDATA    BYTE      return_state
      00011F2CH   SYMBOL    XDATA    WORD      timeout_count
      00FF9B2CH   LINE      CODE     ---       #312
      00FF9B2CH   LINE      CODE     ---       #313
      00FF9B2CH   LINE      CODE     ---       #314
      00FF9B36H   LINE      CODE     ---       #315
L251 LINKER/LOCATER V4.66.93.0                                                        05/01/2026  20:21:51  PAGE 103


      00FF9B3EH   LINE      CODE     ---       #317
      00FF9B3EH   LINE      CODE     ---       #319
      00FF9B55H   LINE      CODE     ---       #321
      00FF9B5BH   LINE      CODE     ---       #322
      00FF9B5DH   LINE      CODE     ---       #323
      00FF9B5DH   LINE      CODE     ---       #325
      00FF9B65H   LINE      CODE     ---       #326
      00FF9B7CH   LINE      CODE     ---       #327
      00FF9B83H   LINE      CODE     ---       #328
      00FF9B8CH   LINE      CODE     ---       #331
      00FF9B90H   LINE      CODE     ---       #332
      ---         BLOCKEND  ---      ---       LVL=0
      00011DEDH   SYMBOL    XDATA    ---       dat
      00011DF3H   SYMBOL    XDATA    ---       dat

      00FF6B59H   BLOCK     CODE     ---       LVL=0
      00011FE5H   SYMBOL    XDATA    BYTE      return_state
      00FF6B59H   LINE      CODE     ---       #376
      00FF6B59H   LINE      CODE     ---       #377
      00FF6B59H   LINE      CODE     ---       #378
      00FF6B5EH   LINE      CODE     ---       #379
      00FF6B65H   LINE      CODE     ---       #389
      00FF6B69H   LINE      CODE     ---       #395
      00FF6B69H   LINE      CODE     ---       #397
      00FF6B71H   LINE      CODE     ---       #402
      00FF6B7CH   LINE      CODE     ---       #403
      00FF6B82H   LINE      CODE     ---       #404
      00FF6B85H   LINE      CODE     ---       #405
      00FF6B85H   LINE      CODE     ---       #407
      00FF6B8CH   LINE      CODE     ---       #408
      00FF6B93H   LINE      CODE     ---       #409
      00FF6B9AH   LINE      CODE     ---       #410
      00FF6BABH   LINE      CODE     ---       #411
      00FF6BB3H   LINE      CODE     ---       #412
      00FF6BBAH   LINE      CODE     ---       #414
      00FF6BC4H   LINE      CODE     ---       #419
      00FF6BCFH   LINE      CODE     ---       #420
      00FF6BD5H   LINE      CODE     ---       #421
      00FF6BD8H   LINE      CODE     ---       #422
      00FF6BD8H   LINE      CODE     ---       #424
      00FF6BE0H   LINE      CODE     ---       #425
      00FF6BE8H   LINE      CODE     ---       #426
      00FF6BF0H   LINE      CODE     ---       #433
      00FF6C08H   LINE      CODE     ---       #435
      00FF6C08H   LINE      CODE     ---       #437
      00FF6C13H   LINE      CODE     ---       #438
      00FF6C19H   LINE      CODE     ---       #440
      00FF6C1BH   LINE      CODE     ---       #442
      00FF6C1BH   LINE      CODE     ---       #444
      00FF6C22H   LINE      CODE     ---       #445
      00FF6C32H   LINE      CODE     ---       #447
      00FF6C34H   LINE      CODE     ---       #449
      00FF6C34H   LINE      CODE     ---       #451
      00FF6C3CH   LINE      CODE     ---       #452
      00FF6C4CH   LINE      CODE     ---       #454
      00FF6C4EH   LINE      CODE     ---       #456
      00FF6C4EH   LINE      CODE     ---       #458
      00FF6C56H   LINE      CODE     ---       #459
      00FF6C66H   LINE      CODE     ---       #461
      00FF6C68H   LINE      CODE     ---       #463
      00FF6C68H   LINE      CODE     ---       #465
      00FF6C70H   LINE      CODE     ---       #466
      00FF6C80H   LINE      CODE     ---       #468
      00FF6C80H   LINE      CODE     ---       #469
      00FF6C80H   LINE      CODE     ---       #471
L251 LINKER/LOCATER V4.66.93.0                                                        05/01/2026  20:21:51  PAGE 104


      00FF6C8CH   LINE      CODE     ---       #473
      00FF6C8CH   LINE      CODE     ---       #474
      00FF6C8CH   LINE      CODE     ---       #482
      00FF6CABH   LINE      CODE     ---       #484
      00FF6CABH   LINE      CODE     ---       #486
      00FF6CB6H   LINE      CODE     ---       #487
      00FF6CBCH   LINE      CODE     ---       #489
      00FF6CBFH   LINE      CODE     ---       #491
      00FF6CBFH   LINE      CODE     ---       #493
      00FF6CC7H   LINE      CODE     ---       #494
      00FF6CD9H   LINE      CODE     ---       #496
      00FF6CDBH   LINE      CODE     ---       #498
      00FF6CDBH   LINE      CODE     ---       #500
      00FF6CE3H   LINE      CODE     ---       #501
      00FF6CF5H   LINE      CODE     ---       #503
      00FF6CF7H   LINE      CODE     ---       #505
      00FF6CF7H   LINE      CODE     ---       #507
      00FF6CFFH   LINE      CODE     ---       #508
      00FF6D11H   LINE      CODE     ---       #510
      00FF6D13H   LINE      CODE     ---       #512
      00FF6D13H   LINE      CODE     ---       #514
      00FF6D1BH   LINE      CODE     ---       #515
      00FF6D2DH   LINE      CODE     ---       #517
      00FF6D2FH   LINE      CODE     ---       #519
      00FF6D2FH   LINE      CODE     ---       #521
      00FF6D36H   LINE      CODE     ---       #522
      00FF6D48H   LINE      CODE     ---       #524
      00FF6D48H   LINE      CODE     ---       #525
      00FF6D48H   LINE      CODE     ---       #527
      00FF6D48H   LINE      CODE     ---       #529
      00FF6D48H   LINE      CODE     ---       #530
      00FF6D48H   LINE      CODE     ---       #534
      00FF6D4CH   LINE      CODE     ---       #535
      ---         BLOCKEND  ---      ---       LVL=0

      ---         MODULE    ---      ---       zf_device_imu660rb
      000119BDH   PUBLIC    XDATA    INT       imu660rb_acc_x
      000119BFH   PUBLIC    XDATA    INT       imu660rb_acc_y
      000119C1H   PUBLIC    XDATA    INT       imu660rb_acc_z
      000119C3H   PUBLIC    XDATA    INT       imu660rb_gyro_x
      000119C5H   PUBLIC    XDATA    INT       imu660rb_gyro_y
      000119C7H   PUBLIC    XDATA    INT       imu660rb_gyro_z
      000000D0H   SFRSYM    DATA     BYTE      PSW
      0000009DH   SFRSYM    DATA     BYTE      IRCBAND
      00000097H   SFRSYM    DATA     BYTE      AUXR2
      000000EFH   SFRSYM    DATA     BYTE      AUXINTIF
      000000FDH   SFRSYM    DATA     BYTE      S4CON
      000000ACH   SFRSYM    DATA     BYTE      S3CON
      0000009AH   SFRSYM    DATA     BYTE      S2CON
      000000B7H   SFRSYM    DATA     BYTE      IPH
      000000CDH   SFRSYM    DATA     BYTE      SPSTAT
      000000DDH   SFRSYM    DATA     BYTE      T4T3M
      000000C1H   SFRSYM    DATA     BYTE      WDT_CONTR
      000000DFH   SFRSYM    DATA     BYTE      IP3
      000000F4H   SFRSYM    DATA     BYTE      USBCON
      000000B5H   SFRSYM    DATA     BYTE      IP2
      000000FFH   SFRSYM    DATA     BYTE      RSTCFG
      000000C7H   SFRSYM    DATA     BYTE      IAP_CONTR
      000000F9H   SFRSYM    DATA     BYTE      LINICR
      0000008EH   SFRSYM    DATA     BYTE      AUXR
      000000AFH   SFRSYM    DATA     BYTE      IE2
      000000C0H.3 SFRSYM    DATA     BIT       P43
      000000C0H.2 SFRSYM    DATA     BIT       P42
      00000088H   SFRSYM    DATA     BYTE      TCON
      00000089H   SFRSYM    DATA     BYTE      TMOD
L251 LINKER/LOCATER V4.66.93.0                                                        05/01/2026  20:21:51  PAGE 105


      000000C0H.1 SFRSYM    DATA     BIT       P41
      00000098H   SFRSYM    DATA     BYTE      SCON
      000000C0H.0 SFRSYM    DATA     BIT       P40
      000000F1H   SFRSYM    DATA     BYTE      CANICR
      00000087H   SFRSYM    DATA     BYTE      PCON
      000000BCH   SFRSYM    DATA     BYTE      ADC_CONTR
      000000E7H   SFRSYM    DATA     BYTE      CMPCR2
      000000E6H   SFRSYM    DATA     BYTE      CMPCR1
      000000DEH   SFRSYM    DATA     BYTE      ADCCFG
      000000B8H   SFRSYM    DATA     BYTE      IP
      0000008FH   SFRSYM    DATA     BYTE      INTCLKO
      000000EEH   SFRSYM    DATA     BYTE      IP3H
      000000B6H   SFRSYM    DATA     BYTE      IP2H
      000000A8H   SFRSYM    DATA     BYTE      IE
      000000BBH   SFRSYM    DATA     BYTE      P_SW3
      000000BAH   SFRSYM    DATA     BYTE      P_SW2
      000000A2H   SFRSYM    DATA     BYTE      P_SW1
      000000CEH   SFRSYM    DATA     BYTE      SPCTL
      000000F8H   SFRSYM    DATA     BYTE      P7
      000000E8H   SFRSYM    DATA     BYTE      P6
      000000C8H   SFRSYM    DATA     BYTE      P5
      000000C0H   SFRSYM    DATA     BYTE      P4
      000000B0H   SFRSYM    DATA     BYTE      P3
      000000A0H   SFRSYM    DATA     BYTE      P2
      00000090H   SFRSYM    DATA     BYTE      P1
      00000080H   SFRSYM    DATA     BYTE      P0
      00011FBEH   SYMBOL    XDATA    BYTE      byte
      00011FBFH   SYMBOL    XDATA    BYTE      i
      00011FC0H   SYMBOL    XDATA    BYTE      cmd
      00011FC1H   SYMBOL    XDATA    BYTE      val
      00011EBFH   SYMBOL    XDATA    BYTE      cmd
      00011EC0H   SYMBOL    XDATA    ---       val
      00011BABH   SYMBOL    XDATA    BYTE      cmd
      00011BACH   SYMBOL    XDATA    ---       val
      00011BB0H   SYMBOL    XDATA    DWORD     num
      00011FC2H   SYMBOL    XDATA    BYTE      reg
      00011FC3H   SYMBOL    XDATA    BYTE      dat
      00011FC4H   SYMBOL    XDATA    BYTE      reg
      00011FC5H   SYMBOL    XDATA    BYTE      dat
      00011BB4H   SYMBOL    XDATA    BYTE      reg
      00011BB5H   SYMBOL    XDATA    ---       dat
      00011BB9H   SYMBOL    XDATA    DWORD     len
      00011F2EH   SYMBOL    XDATA    BYTE      dat
      00011F2FH   SYMBOL    XDATA    BYTE      return_state
      00011F30H   SYMBOL    XDATA    WORD      timeout_count
      00011DF9H   SYMBOL    XDATA    ---       dat
      00011DFFH   SYMBOL    XDATA    ---       dat
      00011E05H   SYMBOL    XDATA    INT       acc_value
      00011E07H   SYMBOL    XDATA    FLOAT     acc_data
      00011E0BH   SYMBOL    XDATA    INT       gyro_value
      00011E0DH   SYMBOL    XDATA    FLOAT     gyro_data
      00011FE6H   SYMBOL    XDATA    BYTE      return_state

      ---         MODULE    ---      ---       zf_device_imu963ra
      000112FEH   PUBLIC    XDATA    INT       imu963ra_acc_x
      00011300H   PUBLIC    XDATA    INT       imu963ra_acc_y
      00011302H   PUBLIC    XDATA    INT       imu963ra_acc_z
      00011304H   PUBLIC    XDATA    INT       imu963ra_mag_x
      00011306H   PUBLIC    XDATA    INT       imu963ra_mag_y
      00011308H   PUBLIC    XDATA    INT       imu963ra_mag_z
      0001130AH   PUBLIC    XDATA    INT       imu963ra_gyro_x
      0001130CH   PUBLIC    XDATA    INT       imu963ra_gyro_y
      0001130EH   PUBLIC    XDATA    INT       imu963ra_gyro_z
      00011310H   PUBLIC    XDATA    ---       imu963ra_transition_factor
      000000D0H   SFRSYM    DATA     BYTE      PSW
L251 LINKER/LOCATER V4.66.93.0                                                        05/01/2026  20:21:51  PAGE 106


      0000009DH   SFRSYM    DATA     BYTE      IRCBAND
      00000097H   SFRSYM    DATA     BYTE      AUXR2
      000000EFH   SFRSYM    DATA     BYTE      AUXINTIF
      000000FDH   SFRSYM    DATA     BYTE      S4CON
      000000ACH   SFRSYM    DATA     BYTE      S3CON
      0000009AH   SFRSYM    DATA     BYTE      S2CON
      000000B7H   SFRSYM    DATA     BYTE      IPH
      000000CDH   SFRSYM    DATA     BYTE      SPSTAT
      000000DDH   SFRSYM    DATA     BYTE      T4T3M
      000000C1H   SFRSYM    DATA     BYTE      WDT_CONTR
      000000DFH   SFRSYM    DATA     BYTE      IP3
      000000F4H   SFRSYM    DATA     BYTE      USBCON
      000000B5H   SFRSYM    DATA     BYTE      IP2
      000000FFH   SFRSYM    DATA     BYTE      RSTCFG
      000000C7H   SFRSYM    DATA     BYTE      IAP_CONTR
      000000F9H   SFRSYM    DATA     BYTE      LINICR
      0000008EH   SFRSYM    DATA     BYTE      AUXR
      000000AFH   SFRSYM    DATA     BYTE      IE2
      000000C0H.2 SFRSYM    DATA     BIT       P42
      00000088H   SFRSYM    DATA     BYTE      TCON
      00000089H   SFRSYM    DATA     BYTE      TMOD
      00000098H   SFRSYM    DATA     BYTE      SCON
      000000F1H   SFRSYM    DATA     BYTE      CANICR
      00000087H   SFRSYM    DATA     BYTE      PCON
      000000BCH   SFRSYM    DATA     BYTE      ADC_CONTR
      000000E7H   SFRSYM    DATA     BYTE      CMPCR2
      000000E6H   SFRSYM    DATA     BYTE      CMPCR1
      000000DEH   SFRSYM    DATA     BYTE      ADCCFG
      000000B8H   SFRSYM    DATA     BYTE      IP
      0000008FH   SFRSYM    DATA     BYTE      INTCLKO
      000000EEH   SFRSYM    DATA     BYTE      IP3H
      000000B6H   SFRSYM    DATA     BYTE      IP2H
      000000A8H   SFRSYM    DATA     BYTE      IE
      000000BBH   SFRSYM    DATA     BYTE      P_SW3
      000000BAH   SFRSYM    DATA     BYTE      P_SW2
      000000A2H   SFRSYM    DATA     BYTE      P_SW1
      000000CEH   SFRSYM    DATA     BYTE      SPCTL
      000000F8H   SFRSYM    DATA     BYTE      P7
      000000E8H   SFRSYM    DATA     BYTE      P6
      000000C8H   SFRSYM    DATA     BYTE      P5
      000000C0H   SFRSYM    DATA     BYTE      P4
      000000B0H   SFRSYM    DATA     BYTE      P3
      000000A0H   SFRSYM    DATA     BYTE      P2
      00000090H   SFRSYM    DATA     BYTE      P1
      00000080H   SFRSYM    DATA     BYTE      P0
      00011FC6H   SYMBOL    XDATA    BYTE      reg
      00011FC7H   SYMBOL    XDATA    BYTE      dat
      00011FC8H   SYMBOL    XDATA    BYTE      reg
      00011FC9H   SYMBOL    XDATA    BYTE      dat
      00011BBDH   SYMBOL    XDATA    BYTE      reg
      00011BBEH   SYMBOL    XDATA    ---       dat
      00011BC2H   SYMBOL    XDATA    DWORD     len
      00011E11H   SYMBOL    XDATA    BYTE      addr
      00011E12H   SYMBOL    XDATA    BYTE      reg
      00011E13H   SYMBOL    XDATA    BYTE      dat
      00011E14H   SYMBOL    XDATA    BYTE      return_state
      00011E15H   SYMBOL    XDATA    WORD      timeout_count
      00011F32H   SYMBOL    XDATA    BYTE      addr
      00011F33H   SYMBOL    XDATA    BYTE      reg
      00011F34H   SYMBOL    XDATA    WORD      timeout_count
      00011FCAH   SYMBOL    XDATA    BYTE      addr
      00011FCBH   SYMBOL    XDATA    BYTE      reg
      00011F36H   SYMBOL    XDATA    BYTE      return_state
      00011F37H   SYMBOL    XDATA    BYTE      dat
      00011F38H   SYMBOL    XDATA    WORD      timeout_count
L251 LINKER/LOCATER V4.66.93.0                                                        05/01/2026  20:21:51  PAGE 107


      00011F3AH   SYMBOL    XDATA    BYTE      return_state
      00011F3BH   SYMBOL    XDATA    BYTE      dat
      00011F3CH   SYMBOL    XDATA    WORD      timeout_count
      00011E17H   SYMBOL    XDATA    ---       dat
      00011E1DH   SYMBOL    XDATA    ---       dat
      00011D73H   SYMBOL    XDATA    BYTE      temp_status
      00011D74H   SYMBOL    XDATA    ---       dat
      00011FE7H   SYMBOL    XDATA    BYTE      return_state

      ---         MODULE    ---      ---       zf_device_ips114
      00FFA3F9H   PUBLIC    CODE     ---       ips114_set_color
      00FFA236H   PUBLIC    CODE     ---       ips114_set_dir
      00FF933EH   PUBLIC    CODE     ---       ips114_clear
      00FF5B46H   PUBLIC    CODE     ---       ips114_init
      00011CDFH   PUBLIC    XDATA    WORD      ips114_pencolor
      00011CE1H   PUBLIC    XDATA    WORD      ips114_bgcolor
      00011CE3H   PUBLIC    XDATA    INT       ips114_display_dir
      00011CE5H   PUBLIC    XDATA    BYTE      ips114_x_max
      00011CE6H   PUBLIC    XDATA    BYTE      ips114_y_max
      00010FCAH   PUBLIC    XDATA    BYTE      ?ips114_show_float?BYTE
      00011223H   PUBLIC    XDATA    BYTE      ?ips114_show_wave?BYTE
      000113D9H   PUBLIC    XDATA    BYTE      ?ips114_show_chinese?BYTE
      000000D0H   SFRSYM    DATA     BYTE      PSW
      0000009DH   SFRSYM    DATA     BYTE      IRCBAND
      00000097H   SFRSYM    DATA     BYTE      AUXR2
      000000EFH   SFRSYM    DATA     BYTE      AUXINTIF
      000000FDH   SFRSYM    DATA     BYTE      S4CON
      000000ACH   SFRSYM    DATA     BYTE      S3CON
      0000009AH   SFRSYM    DATA     BYTE      S2CON
      000000B7H   SFRSYM    DATA     BYTE      IPH
      000000CDH   SFRSYM    DATA     BYTE      SPSTAT
      000000DDH   SFRSYM    DATA     BYTE      T4T3M
      000000C1H   SFRSYM    DATA     BYTE      WDT_CONTR
      000000DFH   SFRSYM    DATA     BYTE      IP3
      000000F4H   SFRSYM    DATA     BYTE      USBCON
      000000B5H   SFRSYM    DATA     BYTE      IP2
      000000FFH   SFRSYM    DATA     BYTE      RSTCFG
      000000C7H   SFRSYM    DATA     BYTE      IAP_CONTR
      000000F9H   SFRSYM    DATA     BYTE      LINICR
      0000008EH   SFRSYM    DATA     BYTE      AUXR
      000000AFH   SFRSYM    DATA     BYTE      IE2
      00000088H   SFRSYM    DATA     BYTE      TCON
      00000089H   SFRSYM    DATA     BYTE      TMOD
      00000098H   SFRSYM    DATA     BYTE      SCON
      000000A0H.2 SFRSYM    DATA     BIT       P22
      000000A0H.1 SFRSYM    DATA     BIT       P21
      000000A0H.0 SFRSYM    DATA     BIT       P20
      000000F1H   SFRSYM    DATA     BYTE      CANICR
      00000087H   SFRSYM    DATA     BYTE      PCON
      000000BCH   SFRSYM    DATA     BYTE      ADC_CONTR
      000000E7H   SFRSYM    DATA     BYTE      CMPCR2
      000000E6H   SFRSYM    DATA     BYTE      CMPCR1
      000000DEH   SFRSYM    DATA     BYTE      ADCCFG
      000000B8H   SFRSYM    DATA     BYTE      IP
      0000008FH   SFRSYM    DATA     BYTE      INTCLKO
      000000EEH   SFRSYM    DATA     BYTE      IP3H
      000000B6H   SFRSYM    DATA     BYTE      IP2H
      000000A8H   SFRSYM    DATA     BYTE      IE
      000000BBH   SFRSYM    DATA     BYTE      P_SW3
      000000BAH   SFRSYM    DATA     BYTE      P_SW2
      000000A2H   SFRSYM    DATA     BYTE      P_SW1
      000000CEH   SFRSYM    DATA     BYTE      SPCTL
      000000F8H   SFRSYM    DATA     BYTE      P7
      000000E8H   SFRSYM    DATA     BYTE      P6
      000000C8H   SFRSYM    DATA     BYTE      P5
L251 LINKER/LOCATER V4.66.93.0                                                        05/01/2026  20:21:51  PAGE 108


      000000C0H   SFRSYM    DATA     BYTE      P4
      000000B0H   SFRSYM    DATA     BYTE      P3
      000000A0H   SFRSYM    DATA     BYTE      P2
      00000090H   SFRSYM    DATA     BYTE      P1
      00000080H   SFRSYM    DATA     BYTE      P0
      00FFA48BH   SYMBOL    CODE     ---       ips114_write_index
      00FF608BH   SYMBOL    CODE     ---       ips114_set_region

      00FFA48BH   BLOCK     CODE     ---       LVL=0
      00011FE8H   SYMBOL    XDATA    BYTE      dat
      00FFA48BH   LINE      CODE     ---       #83
      00FFA48FH   LINE      CODE     ---       #85
      00FFA492H   LINE      CODE     ---       #86
      00FFA495H   LINE      CODE     ---       #87
      00FFA498H   LINE      CODE     ---       #88
      00FFA4A3H   LINE      CODE     ---       #89
      00FFA4A6H   LINE      CODE     ---       #90
      00FFA4A9H   LINE      CODE     ---       #91
      00FFA4ACH   LINE      CODE     ---       #92
      ---         BLOCKEND  ---      ---       LVL=0

      00FF608BH   BLOCK     CODE     ---       LVL=0
      00011CE7H   SYMBOL    XDATA    WORD      x1
      00011CE9H   SYMBOL    XDATA    WORD      y1
      00011CEBH   SYMBOL    XDATA    WORD      x2
      00011CEDH   SYMBOL    XDATA    WORD      y2
      00FF608BH   LINE      CODE     ---       #103
      00FF60A3H   LINE      CODE     ---       #105
      00FF60C7H   LINE      CODE     ---       #106
      00FF60EBH   LINE      CODE     ---       #107
      00FF610FH   LINE      CODE     ---       #108
      00FF6133H   LINE      CODE     ---       #110
      00FF613FH   LINE      CODE     ---       #112
      00FF6144H   LINE      CODE     ---       #113
      00FF6157H   LINE      CODE     ---       #114
      00FF616AH   LINE      CODE     ---       #115
      00FF616FH   LINE      CODE     ---       #116
      00FF6182H   LINE      CODE     ---       #117
      00FF6195H   LINE      CODE     ---       #118
      00FF619AH   LINE      CODE     ---       #119
      00FF619DH   LINE      CODE     ---       #120
      00FF61ABH   LINE      CODE     ---       #122
      00FF61B0H   LINE      CODE     ---       #123
      00FF61C3H   LINE      CODE     ---       #124
      00FF61D6H   LINE      CODE     ---       #125
      00FF61DBH   LINE      CODE     ---       #126
      00FF61EEH   LINE      CODE     ---       #127
      00FF6201H   LINE      CODE     ---       #128
      00FF6206H   LINE      CODE     ---       #129
      00FF6209H   LINE      CODE     ---       #130
      00FF6217H   LINE      CODE     ---       #132
      00FF621CH   LINE      CODE     ---       #133
      00FF622FH   LINE      CODE     ---       #134
      00FF6242H   LINE      CODE     ---       #135
      00FF6247H   LINE      CODE     ---       #136
      00FF625AH   LINE      CODE     ---       #137
      00FF626DH   LINE      CODE     ---       #138
      00FF6272H   LINE      CODE     ---       #139
      00FF6274H   LINE      CODE     ---       #142
      00FF6279H   LINE      CODE     ---       #143
      00FF628CH   LINE      CODE     ---       #144
      00FF629FH   LINE      CODE     ---       #145
      00FF62A4H   LINE      CODE     ---       #146
      00FF62B7H   LINE      CODE     ---       #147
      00FF62CAH   LINE      CODE     ---       #148
L251 LINKER/LOCATER V4.66.93.0                                                        05/01/2026  20:21:51  PAGE 109


      00FF62CFH   LINE      CODE     ---       #149
      00FF62CFH   LINE      CODE     ---       #150
      ---         BLOCKEND  ---      ---       LVL=0

      00FF933EH   BLOCK     CODE     ---       LVL=0
      00011E23H   SYMBOL    XDATA    WORD      color
      00FF9344H   BLOCK     CODE     NEAR LAB  LVL=1
      00011E25H   SYMBOL    XDATA    WORD      i
      00011E27H   SYMBOL    XDATA    WORD      j
      ---         BLOCKEND  ---      ---       LVL=1
      00FF933EH   LINE      CODE     ---       #158
      00FF9344H   LINE      CODE     ---       #159
      00FF9344H   LINE      CODE     ---       #161
      00FF9363H   LINE      CODE     ---       #163
      00FF936DH   LINE      CODE     ---       #165
      00FF9377H   LINE      CODE     ---       #167
      00FF9384H   LINE      CODE     ---       #168
      00FF93A3H   LINE      CODE     ---       #169
      00FF93C2H   LINE      CODE     ---       #170
      ---         BLOCKEND  ---      ---       LVL=0

      00FFA236H   BLOCK     CODE     ---       LVL=0
      00011FCCH   SYMBOL    XDATA    INT       dir
      00FFA236H   LINE      CODE     ---       #178
      00FFA23CH   LINE      CODE     ---       #180
      00FFA248H   LINE      CODE     ---       #181
      00FFA256H   LINE      CODE     ---       #183
      00FFA25CH   LINE      CODE     ---       #184
      00FFA262H   LINE      CODE     ---       #185
      00FFA264H   LINE      CODE     ---       #188
      00FFA26AH   LINE      CODE     ---       #189
      00FFA270H   LINE      CODE     ---       #190
      00FFA270H   LINE      CODE     ---       #191
      ---         BLOCKEND  ---      ---       LVL=0

      00FFA3F9H   BLOCK     CODE     ---       LVL=0
      00011F3EH   SYMBOL    XDATA    WORD      pen
      00011F40H   SYMBOL    XDATA    WORD      bgcolor
      00FFA3F9H   LINE      CODE     ---       #200
      00FFA405H   LINE      CODE     ---       #202
      00FFA411H   LINE      CODE     ---       #203
      00FFA41DH   LINE      CODE     ---       #204
      ---         BLOCKEND  ---      ---       LVL=0
      00011E29H   SYMBOL    XDATA    WORD      x
      00011E2BH   SYMBOL    XDATA    WORD      y
      00011E2DH   SYMBOL    XDATA    WORD      color
      00011CEFH   SYMBOL    XDATA    WORD      x
      00011CF1H   SYMBOL    XDATA    WORD      y
      00011CF3H   SYMBOL    XDATA    CHAR      dat
      00011CF4H   SYMBOL    XDATA    BYTE      i
      00011CF5H   SYMBOL    XDATA    BYTE      j
      00011CF6H   SYMBOL    XDATA    BYTE      temp
      00011B31H   SYMBOL    XDATA    WORD      x
      00011B33H   SYMBOL    XDATA    WORD      y
      00011B35H   SYMBOL    XDATA    ---       dat
      00011B39H   SYMBOL    XDATA    WORD      j
      00011BC6H   SYMBOL    XDATA    WORD      x
      00011BC8H   SYMBOL    XDATA    WORD      y
      00011BCAH   SYMBOL    XDATA    CHAR      dat
      00011BCBH   SYMBOL    XDATA    ---       a
      00011BCEH   SYMBOL    XDATA    BYTE      i
      00011BCFH   SYMBOL    XDATA    WORD      x
      00011BD1H   SYMBOL    XDATA    WORD      y
      00011BD3H   SYMBOL    XDATA    BYTE      dat
      00011BD4H   SYMBOL    XDATA    ---       a
L251 LINKER/LOCATER V4.66.93.0                                                        05/01/2026  20:21:51  PAGE 110


      00011BD7H   SYMBOL    XDATA    BYTE      i
      000119C9H   SYMBOL    XDATA    WORD      x
      000119CBH   SYMBOL    XDATA    WORD      y
      000119CDH   SYMBOL    XDATA    INT       dat
      000119CFH   SYMBOL    XDATA    ---       a
      000119D4H   SYMBOL    XDATA    BYTE      i
      000119D5H   SYMBOL    XDATA    WORD      x
      000119D7H   SYMBOL    XDATA    WORD      y
      000119D9H   SYMBOL    XDATA    WORD      dat
      000119DBH   SYMBOL    XDATA    ---       a
      000119E0H   SYMBOL    XDATA    BYTE      i
      00011089H   SYMBOL    XDATA    WORD      x
      0001108BH   SYMBOL    XDATA    WORD      y
      0001108DH   SYMBOL    XDATA    LONG      dat
      00011091H   SYMBOL    XDATA    BYTE      num
      00011092H   SYMBOL    XDATA    ---       buff
      000110B4H   SYMBOL    XDATA    BYTE      length
      00010FCAH   SYMBOL    XDATA    WORD      x
      00010FCCH   SYMBOL    XDATA    WORD      y
      00010FCEH   SYMBOL    XDATA    FLOAT     dat
      00010FD2H   SYMBOL    XDATA    BYTE      num
      00010FD3H   SYMBOL    XDATA    BYTE      pointnum
      00010FD4H   SYMBOL    XDATA    BYTE      length
      00010FD5H   SYMBOL    XDATA    ---       buff
      00010FF7H   SYMBOL    XDATA    CHAR      start
      00010FF8H   SYMBOL    XDATA    CHAR      end
      00010FF9H   SYMBOL    XDATA    CHAR      point
      00011223H   SYMBOL    XDATA    WORD      x
      00011225H   SYMBOL    XDATA    WORD      y
      00011227H   SYMBOL    XDATA    ---       p
      0001122BH   SYMBOL    XDATA    WORD      width
      0001122DH   SYMBOL    XDATA    WORD      value_max
      0001122FH   SYMBOL    XDATA    WORD      dis_width
      00011231H   SYMBOL    XDATA    WORD      dis_value_max
      00011233H   SYMBOL    XDATA    DWORD     i
      00011237H   SYMBOL    XDATA    DWORD     j
      0001123BH   SYMBOL    XDATA    DWORD     width_index
      0001123FH   SYMBOL    XDATA    DWORD     value_max_index
      000113D9H   SYMBOL    XDATA    WORD      x
      000113DBH   SYMBOL    XDATA    WORD      y
      000113DDH   SYMBOL    XDATA    BYTE      siz
      000113DEH   SYMBOL    XDATA    ---       p
      000113E2H   SYMBOL    XDATA    BYTE      number
      000113E3H   SYMBOL    XDATA    WORD      color
      000113E5H   SYMBOL    XDATA    INT       i
      000113E7H   SYMBOL    XDATA    INT       j
      000113E9H   SYMBOL    XDATA    INT       k
      000113EBH   SYMBOL    XDATA    BYTE      temp
      000113ECH   SYMBOL    XDATA    BYTE      temp1
      000113EDH   SYMBOL    XDATA    BYTE      temp2
      000113EEH   SYMBOL    XDATA    ---       p_data

      00FF5B46H   BLOCK     CODE     ---       LVL=0
      00FF5B46H   LINE      CODE     ---       #585
      00FF5B46H   LINE      CODE     ---       #590
      00FF5B57H   LINE      CODE     ---       #591
      00FF5B68H   LINE      CODE     ---       #592
      00FF5BA1H   LINE      CODE     ---       #600
      00FF5BAAH   LINE      CODE     ---       #601
      00FF5BB9H   LINE      CODE     ---       #603
      00FF5BBCH   LINE      CODE     ---       #604
      00FF5BC3H   LINE      CODE     ---       #606
      00FF5BC6H   LINE      CODE     ---       #607
      00FF5BCDH   LINE      CODE     ---       #609
      00FF5BD2H   LINE      CODE     ---       #610
L251 LINKER/LOCATER V4.66.93.0                                                        05/01/2026  20:21:51  PAGE 111


      00FF5BD9H   LINE      CODE     ---       #611
      00FF5BEFH   LINE      CODE     ---       #612
      00FF5C08H   LINE      CODE     ---       #613
      00FF5C21H   LINE      CODE     ---       #614
      00FF5C2AH   LINE      CODE     ---       #616
      00FF5C2FH   LINE      CODE     ---       #617
      00FF5C38H   LINE      CODE     ---       #619
      00FF5C3DH   LINE      CODE     ---       #620
      00FF5C46H   LINE      CODE     ---       #621
      00FF5C4FH   LINE      CODE     ---       #622
      00FF5C57H   LINE      CODE     ---       #623
      00FF5C60H   LINE      CODE     ---       #624
      00FF5C69H   LINE      CODE     ---       #626
      00FF5C6EH   LINE      CODE     ---       #627
      00FF5C77H   LINE      CODE     ---       #629
      00FF5C7CH   LINE      CODE     ---       #630
      00FF5C85H   LINE      CODE     ---       #632
      00FF5C8AH   LINE      CODE     ---       #633
      00FF5C93H   LINE      CODE     ---       #635
      00FF5C98H   LINE      CODE     ---       #636
      00FF5CA1H   LINE      CODE     ---       #638
      00FF5CA6H   LINE      CODE     ---       #639
      00FF5CAFH   LINE      CODE     ---       #641
      00FF5CB4H   LINE      CODE     ---       #642
      00FF5CBDH   LINE      CODE     ---       #644
      00FF5CC2H   LINE      CODE     ---       #645
      00FF5CCBH   LINE      CODE     ---       #647
      00FF5CD0H   LINE      CODE     ---       #648
      00FF5CD9H   LINE      CODE     ---       #649
      00FF5CE2H   LINE      CODE     ---       #651
      00FF5CE7H   LINE      CODE     ---       #652
      00FF5CF0H   LINE      CODE     ---       #653
      00FF5CF9H   LINE      CODE     ---       #654
      00FF5D02H   LINE      CODE     ---       #655
      00FF5D0BH   LINE      CODE     ---       #656
      00FF5D14H   LINE      CODE     ---       #657
      00FF5D1DH   LINE      CODE     ---       #658
      00FF5D26H   LINE      CODE     ---       #659
      00FF5D2FH   LINE      CODE     ---       #660
      00FF5D38H   LINE      CODE     ---       #661
      00FF5D41H   LINE      CODE     ---       #662
      00FF5D4AH   LINE      CODE     ---       #663
      00FF5D53H   LINE      CODE     ---       #664
      00FF5D5CH   LINE      CODE     ---       #665
      00FF5D65H   LINE      CODE     ---       #667
      00FF5D6AH   LINE      CODE     ---       #668
      00FF5D73H   LINE      CODE     ---       #669
      00FF5D7CH   LINE      CODE     ---       #670
      00FF5D85H   LINE      CODE     ---       #671
      00FF5D8EH   LINE      CODE     ---       #672
      00FF5D97H   LINE      CODE     ---       #673
      00FF5DA0H   LINE      CODE     ---       #674
      00FF5DA9H   LINE      CODE     ---       #675
      00FF5DB2H   LINE      CODE     ---       #676
      00FF5DBBH   LINE      CODE     ---       #677
      00FF5DC4H   LINE      CODE     ---       #678
      00FF5DCDH   LINE      CODE     ---       #679
      00FF5DD6H   LINE      CODE     ---       #680
      00FF5DDFH   LINE      CODE     ---       #681
      00FF5DE8H   LINE      CODE     ---       #683
      00FF5DEDH   LINE      CODE     ---       #685
      00FF5DF2H   LINE      CODE     ---       #686
      00FF5DF9H   LINE      CODE     ---       #688
      00FF5DFEH   LINE      CODE     ---       #690
      00FF5E07H   LINE      CODE     ---       #691
L251 LINKER/LOCATER V4.66.93.0                                                        05/01/2026  20:21:51  PAGE 112


      ---         BLOCKEND  ---      ---       LVL=0

      ---         MODULE    ---      ---       zf_device_ips200
      00011B3BH   PUBLIC    XDATA    WORD      ips200_pencolor
      00011B3DH   PUBLIC    XDATA    WORD      ips200_bgcolor
      00011B3FH   PUBLIC    XDATA    INT       ips200_display_dir
      00011B41H   PUBLIC    XDATA    WORD      ips200_x_max
      00011B43H   PUBLIC    XDATA    WORD      ips200_y_max
      00010FFAH   PUBLIC    XDATA    BYTE      ?ips200_show_float?BYTE
      00011243H   PUBLIC    XDATA    BYTE      ?ips200_show_wave?BYTE
      000113F2H   PUBLIC    XDATA    BYTE      ?ips200_show_chinese?BYTE
      000000D0H   SFRSYM    DATA     BYTE      PSW
      0000009DH   SFRSYM    DATA     BYTE      IRCBAND
      00000097H   SFRSYM    DATA     BYTE      AUXR2
      000000EFH   SFRSYM    DATA     BYTE      AUXINTIF
      000000FDH   SFRSYM    DATA     BYTE      S4CON
      000000ACH   SFRSYM    DATA     BYTE      S3CON
      0000009AH   SFRSYM    DATA     BYTE      S2CON
      000000B7H   SFRSYM    DATA     BYTE      IPH
      000000CDH   SFRSYM    DATA     BYTE      SPSTAT
      000000DDH   SFRSYM    DATA     BYTE      T4T3M
      000000C1H   SFRSYM    DATA     BYTE      WDT_CONTR
      000000DFH   SFRSYM    DATA     BYTE      IP3
      000000F4H   SFRSYM    DATA     BYTE      USBCON
      000000B5H   SFRSYM    DATA     BYTE      IP2
      000000FFH   SFRSYM    DATA     BYTE      RSTCFG
      000000C7H   SFRSYM    DATA     BYTE      IAP_CONTR
      000000F9H   SFRSYM    DATA     BYTE      LINICR
      0000008EH   SFRSYM    DATA     BYTE      AUXR
      000000AFH   SFRSYM    DATA     BYTE      IE2
      00000088H   SFRSYM    DATA     BYTE      TCON
      00000089H   SFRSYM    DATA     BYTE      TMOD
      00000098H   SFRSYM    DATA     BYTE      SCON
      000000A0H.2 SFRSYM    DATA     BIT       P22
      000000A0H.1 SFRSYM    DATA     BIT       P21
      000000A0H.0 SFRSYM    DATA     BIT       P20
      000000F1H   SFRSYM    DATA     BYTE      CANICR
      00000087H   SFRSYM    DATA     BYTE      PCON
      000000BCH   SFRSYM    DATA     BYTE      ADC_CONTR
      000000E7H   SFRSYM    DATA     BYTE      CMPCR2
      000000E6H   SFRSYM    DATA     BYTE      CMPCR1
      000000DEH   SFRSYM    DATA     BYTE      ADCCFG
      000000B8H   SFRSYM    DATA     BYTE      IP
      0000008FH   SFRSYM    DATA     BYTE      INTCLKO
      000000EEH   SFRSYM    DATA     BYTE      IP3H
      000000B6H   SFRSYM    DATA     BYTE      IP2H
      000000A8H   SFRSYM    DATA     BYTE      IE
      000000BBH   SFRSYM    DATA     BYTE      P_SW3
      000000BAH   SFRSYM    DATA     BYTE      P_SW2
      000000A2H   SFRSYM    DATA     BYTE      P_SW1
      000000CEH   SFRSYM    DATA     BYTE      SPCTL
      000000F8H   SFRSYM    DATA     BYTE      P7
      000000E8H   SFRSYM    DATA     BYTE      P6
      000000C8H   SFRSYM    DATA     BYTE      P5
      000000C0H   SFRSYM    DATA     BYTE      P4
      000000B0H   SFRSYM    DATA     BYTE      P3
      000000A0H   SFRSYM    DATA     BYTE      P2
      00000090H   SFRSYM    DATA     BYTE      P1
      00000080H   SFRSYM    DATA     BYTE      P0
      00011FE9H   SYMBOL    XDATA    BYTE      dat
      00011CF7H   SYMBOL    XDATA    WORD      x1
      00011CF9H   SYMBOL    XDATA    WORD      y1
      00011CFBH   SYMBOL    XDATA    WORD      x2
      00011CFDH   SYMBOL    XDATA    WORD      y2
      00011E2FH   SYMBOL    XDATA    WORD      color
L251 LINKER/LOCATER V4.66.93.0                                                        05/01/2026  20:21:51  PAGE 113


      00011E31H   SYMBOL    XDATA    WORD      i
      00011E33H   SYMBOL    XDATA    WORD      j
      00011FCEH   SYMBOL    XDATA    INT       dir
      00011F42H   SYMBOL    XDATA    WORD      pen
      00011F44H   SYMBOL    XDATA    WORD      bgcolor
      00011E35H   SYMBOL    XDATA    WORD      x
      00011E37H   SYMBOL    XDATA    WORD      y
      00011E39H   SYMBOL    XDATA    WORD      color
      00011CFFH   SYMBOL    XDATA    WORD      x
      00011D01H   SYMBOL    XDATA    WORD      y
      00011D03H   SYMBOL    XDATA    CHAR      dat
      00011D04H   SYMBOL    XDATA    BYTE      i
      00011D05H   SYMBOL    XDATA    BYTE      j
      00011D06H   SYMBOL    XDATA    BYTE      temp
      00011B45H   SYMBOL    XDATA    WORD      x
      00011B47H   SYMBOL    XDATA    WORD      y
      00011B49H   SYMBOL    XDATA    ---       dat
      00011B4DH   SYMBOL    XDATA    WORD      j
      00011BD8H   SYMBOL    XDATA    WORD      x
      00011BDAH   SYMBOL    XDATA    WORD      y
      00011BDCH   SYMBOL    XDATA    CHAR      dat
      00011BDDH   SYMBOL    XDATA    ---       a
      00011BE0H   SYMBOL    XDATA    BYTE      i
      00011BE1H   SYMBOL    XDATA    WORD      x
      00011BE3H   SYMBOL    XDATA    WORD      y
      00011BE5H   SYMBOL    XDATA    BYTE      dat
      00011BE6H   SYMBOL    XDATA    ---       a
      00011BE9H   SYMBOL    XDATA    BYTE      i
      000119E1H   SYMBOL    XDATA    WORD      x
      000119E3H   SYMBOL    XDATA    WORD      y
      000119E5H   SYMBOL    XDATA    INT       dat
      000119E7H   SYMBOL    XDATA    ---       a
      000119ECH   SYMBOL    XDATA    BYTE      i
      000119EDH   SYMBOL    XDATA    WORD      x
      000119EFH   SYMBOL    XDATA    WORD      y
      000119F1H   SYMBOL    XDATA    WORD      dat
      000119F3H   SYMBOL    XDATA    ---       a
      000119F8H   SYMBOL    XDATA    BYTE      i
      000110B5H   SYMBOL    XDATA    WORD      x
      000110B7H   SYMBOL    XDATA    WORD      y
      000110B9H   SYMBOL    XDATA    LONG      dat
      000110BDH   SYMBOL    XDATA    BYTE      num
      000110BEH   SYMBOL    XDATA    ---       buff
      000110E0H   SYMBOL    XDATA    BYTE      length
      00010FFAH   SYMBOL    XDATA    WORD      x
      00010FFCH   SYMBOL    XDATA    WORD      y
      00010FFEH   SYMBOL    XDATA    FLOAT     dat
      00011002H   SYMBOL    XDATA    BYTE      num
      00011003H   SYMBOL    XDATA    BYTE      pointnum
      00011004H   SYMBOL    XDATA    BYTE      length
      00011005H   SYMBOL    XDATA    ---       buff
      00011027H   SYMBOL    XDATA    CHAR      start
      00011028H   SYMBOL    XDATA    CHAR      end
      00011029H   SYMBOL    XDATA    CHAR      point
      00011243H   SYMBOL    XDATA    WORD      x
      00011245H   SYMBOL    XDATA    WORD      y
      00011247H   SYMBOL    XDATA    ---       p
      0001124BH   SYMBOL    XDATA    WORD      width
      0001124DH   SYMBOL    XDATA    WORD      value_max
      0001124FH   SYMBOL    XDATA    WORD      dis_width
      00011251H   SYMBOL    XDATA    WORD      dis_value_max
      00011253H   SYMBOL    XDATA    DWORD     i
      00011257H   SYMBOL    XDATA    DWORD     j
      0001125BH   SYMBOL    XDATA    DWORD     width_index
      0001125FH   SYMBOL    XDATA    DWORD     value_max_index
L251 LINKER/LOCATER V4.66.93.0                                                        05/01/2026  20:21:51  PAGE 114


      000113F2H   SYMBOL    XDATA    WORD      x
      000113F4H   SYMBOL    XDATA    WORD      y
      000113F6H   SYMBOL    XDATA    BYTE      siz
      000113F7H   SYMBOL    XDATA    ---       p
      000113FBH   SYMBOL    XDATA    BYTE      number
      000113FCH   SYMBOL    XDATA    WORD      color
      000113FEH   SYMBOL    XDATA    INT       i
      00011400H   SYMBOL    XDATA    INT       j
      00011402H   SYMBOL    XDATA    INT       k
      00011404H   SYMBOL    XDATA    BYTE      temp
      00011405H   SYMBOL    XDATA    BYTE      temp1
      00011406H   SYMBOL    XDATA    BYTE      temp2
      00011407H   SYMBOL    XDATA    ---       p_data

      ---         MODULE    ---      ---       zf_device_ips200pro
      00010E3EH   PUBLIC    XDATA    ---       ips200pro_information
      00010E47H   PUBLIC    XDATA    ---       ips200pro_time
      000117F8H   PUBLIC    XDATA    BYTE      ?ips200pro_send_buffer?BYTE
      000118A5H   PUBLIC    XDATA    BYTE      ?ips200pro_receive_buffer?BYTE
      000112A2H   PUBLIC    XDATA    BYTE      ?ips200pro_write_packet?BYTE
      00011371H   PUBLIC    XDATA    BYTE      ?ips200pro_create_widgets?BYTE
      00010F0FH   PUBLIC    XDATA    BYTE      ?ips200pro_label_printf?BYTE
      00010ECAH   PUBLIC    XDATA    BYTE      ?ips200pro_table_cell_printf?BYTE
      0001138CH   PUBLIC    XDATA    BYTE      ?ips200pro_waveform_add_value?BYTE
      0001118CH   PUBLIC    XDATA    BYTE      ?ips200pro_image_display?BYTE
      000113A6H   PUBLIC    XDATA    BYTE      ?ips200pro_image_draw_line?BYTE
      00011201H   PUBLIC    XDATA    BYTE      ?ips200pro_image_draw_rectangle?BYTE
      000000D0H   SFRSYM    DATA     BYTE      PSW
      0000009DH   SFRSYM    DATA     BYTE      IRCBAND
      00000097H   SFRSYM    DATA     BYTE      AUXR2
      000000EFH   SFRSYM    DATA     BYTE      AUXINTIF
      000000FDH   SFRSYM    DATA     BYTE      S4CON
      000000ACH   SFRSYM    DATA     BYTE      S3CON
      0000009AH   SFRSYM    DATA     BYTE      S2CON
      000000B7H   SFRSYM    DATA     BYTE      IPH
      000000CDH   SFRSYM    DATA     BYTE      SPSTAT
      000000DDH   SFRSYM    DATA     BYTE      T4T3M
      000000C1H   SFRSYM    DATA     BYTE      WDT_CONTR
      000000DFH   SFRSYM    DATA     BYTE      IP3
      000000F4H   SFRSYM    DATA     BYTE      USBCON
      000000B5H   SFRSYM    DATA     BYTE      IP2
      000000FFH   SFRSYM    DATA     BYTE      RSTCFG
      000000C7H   SFRSYM    DATA     BYTE      IAP_CONTR
      000000F9H   SFRSYM    DATA     BYTE      LINICR
      0000008EH   SFRSYM    DATA     BYTE      AUXR
      000000AFH   SFRSYM    DATA     BYTE      IE2
      00000088H   SFRSYM    DATA     BYTE      TCON
      00000089H   SFRSYM    DATA     BYTE      TMOD
      00000098H   SFRSYM    DATA     BYTE      SCON
      000000A0H.2 SFRSYM    DATA     BIT       P22
      000000A0H.1 SFRSYM    DATA     BIT       P21
      000000F1H   SFRSYM    DATA     BYTE      CANICR
      00000087H   SFRSYM    DATA     BYTE      PCON
      000000BCH   SFRSYM    DATA     BYTE      ADC_CONTR
      000000E7H   SFRSYM    DATA     BYTE      CMPCR2
      000000E6H   SFRSYM    DATA     BYTE      CMPCR1
      000000DEH   SFRSYM    DATA     BYTE      ADCCFG
      000000B8H   SFRSYM    DATA     BYTE      IP
      0000008FH   SFRSYM    DATA     BYTE      INTCLKO
      000000EEH   SFRSYM    DATA     BYTE      IP3H
      000000B6H   SFRSYM    DATA     BYTE      IP2H
      000000A8H   SFRSYM    DATA     BYTE      IE
      000000BBH   SFRSYM    DATA     BYTE      P_SW3
      000000BAH   SFRSYM    DATA     BYTE      P_SW2
      000000A2H   SFRSYM    DATA     BYTE      P_SW1
L251 LINKER/LOCATER V4.66.93.0                                                        05/01/2026  20:21:51  PAGE 115


      000000CEH   SFRSYM    DATA     BYTE      SPCTL
      000000F8H   SFRSYM    DATA     BYTE      P7
      000000E8H   SFRSYM    DATA     BYTE      P6
      000000C8H   SFRSYM    DATA     BYTE      P5
      000000C0H   SFRSYM    DATA     BYTE      P4
      000000B0H   SFRSYM    DATA     BYTE      P3
      000000A0H   SFRSYM    DATA     BYTE      P2
      00000090H   SFRSYM    DATA     BYTE      P1
      00000080H   SFRSYM    DATA     BYTE      P0
      00010E0BH   SYMBOL    XDATA    ---       ips200pro_printf_buffer
      00010E4FH   SYMBOL    XDATA    BYTE      ips200pro_page_num
      00011F46H   SYMBOL    XDATA    DWORD     wait_time
      000117F8H   SYMBOL    XDATA    ---       buffer
      000117FCH   SYMBOL    XDATA    DWORD     length
      00011800H   SYMBOL    XDATA    DWORD     time_out
      00011804H   SYMBOL    XDATA    BYTE      end_flag
      00011805H   SYMBOL    XDATA    BYTE      return_state
      000118A5H   SYMBOL    XDATA    ---       buffer
      000118A9H   SYMBOL    XDATA    DWORD     length
      000118ADH   SYMBOL    XDATA    DWORD     time_out
      000118B1H   SYMBOL    XDATA    BYTE      return_state
      000112A2H   SYMBOL    XDATA    INT       command1
      000112A4H   SYMBOL    XDATA    INT       command2
      000112A6H   SYMBOL    XDATA    BYTE      widgets_id
      000112A7H   SYMBOL    XDATA    ---       temp
      000112ABH   SYMBOL    XDATA    DWORD     length
      000112AFH   SYMBOL    XDATA    ---       buffer
      000112B3H   SYMBOL    XDATA    DWORD     buffer_length
      000112B7H   SYMBOL    XDATA    BYTE      return_state
      000112B8H   SYMBOL    XDATA    ---       p
      000112BCH   SYMBOL    XDATA    BYTE      tmp
      000112BDH   SYMBOL    XDATA    WORD      i
      000112BFH   SYMBOL    XDATA    WORD      struct_len
      00011D07H   SYMBOL    XDATA    INT       command2
      00011D09H   SYMBOL    XDATA    ---       temp
      00011D0DH   SYMBOL    XDATA    BYTE      length
      00011D0EH   SYMBOL    XDATA    BYTE      return_state
      0001163CH   SYMBOL    XDATA    WORD      year
      0001163EH   SYMBOL    XDATA    BYTE      month
      0001163FH   SYMBOL    XDATA    BYTE      day
      00011640H   SYMBOL    XDATA    BYTE      return_state
      00011641H   SYMBOL    XDATA    ---       temp
      000116D3H   SYMBOL    XDATA    BYTE      hour
      000116D4H   SYMBOL    XDATA    BYTE      minute
      000116D5H   SYMBOL    XDATA    BYTE      second
      000116D6H   SYMBOL    XDATA    BYTE      return_state
      000116D7H   SYMBOL    XDATA    ---       temp
      0001164DH   SYMBOL    XDATA    WORD      child_id
      0001164FH   SYMBOL    XDATA    WORD      parent_id
      00011651H   SYMBOL    XDATA    BYTE      return_state
      00011652H   SYMBOL    XDATA    ---       temp
      000118B2H   SYMBOL    XDATA    INT       format
      000118B4H   SYMBOL    XDATA    BYTE      return_state
      000118B5H   SYMBOL    XDATA    ---       temp
      000119F9H   SYMBOL    XDATA    BYTE      backlight
      000119FAH   SYMBOL    XDATA    BYTE      return_state
      000119FBH   SYMBOL    XDATA    ---       temp
      000118BFH   SYMBOL    XDATA    INT       dir
      000118C1H   SYMBOL    XDATA    BYTE      return_state
      000118C2H   SYMBOL    XDATA    ---       temp
      00011A05H   SYMBOL    XDATA    BYTE      crc_state
      00011A06H   SYMBOL    XDATA    BYTE      return_state
      00011A07H   SYMBOL    XDATA    ---       temp
      000118CCH   SYMBOL    XDATA    INT       font
      000118CEH   SYMBOL    XDATA    BYTE      return_state
L251 LINKER/LOCATER V4.66.93.0                                                        05/01/2026  20:21:51  PAGE 116


      000118CFH   SYMBOL    XDATA    ---       temp
      00011A11H   SYMBOL    XDATA    BYTE      state
      00011A12H   SYMBOL    XDATA    BYTE      return_state
      00011A13H   SYMBOL    XDATA    ---       temp
      0001165EH   SYMBOL    XDATA    ---       time
      00011662H   SYMBOL    XDATA    BYTE      return_state
      00011663H   SYMBOL    XDATA    ---       temp
      0001166FH   SYMBOL    XDATA    ---       time
      00011673H   SYMBOL    XDATA    BYTE      return_state
      00011674H   SYMBOL    XDATA    ---       temp
      00011499H   SYMBOL    XDATA    ---       information
      0001149DH   SYMBOL    XDATA    BYTE      return_state
      0001149EH   SYMBOL    XDATA    ---       temp
      00011680H   SYMBOL    XDATA    ---       stack_size
      00011684H   SYMBOL    XDATA    BYTE      return_state
      00011685H   SYMBOL    XDATA    ---       temp
      00011371H   SYMBOL    XDATA    WORD      widgets_id
      00011373H   SYMBOL    XDATA    INT       x
      00011375H   SYMBOL    XDATA    INT       y
      00011377H   SYMBOL    XDATA    WORD      width
      00011379H   SYMBOL    XDATA    WORD      height
      0001137BH   SYMBOL    XDATA    BYTE      return_state
      0001137CH   SYMBOL    XDATA    ---       temp
      00011ACBH   SYMBOL    XDATA    WORD      widgets_id
      00011ACDH   SYMBOL    XDATA    BYTE      return_state
      00011ACEH   SYMBOL    XDATA    ---       temp
      00011703H   SYMBOL    XDATA    WORD      widgets_id
      00011705H   SYMBOL    XDATA    INT       font_size
      00011707H   SYMBOL    XDATA    BYTE      return_state
      00011708H   SYMBOL    XDATA    ---       temp
      00011575H   SYMBOL    XDATA    WORD      widgets_id
      00011577H   SYMBOL    XDATA    INT       color_type
      00011579H   SYMBOL    XDATA    WORD      color
      0001157BH   SYMBOL    XDATA    BYTE      return_state
      0001157CH   SYMBOL    XDATA    ---       temp
      00011588H   SYMBOL    XDATA    WORD      widgets_id
      0001158AH   SYMBOL    XDATA    INT       x
      0001158CH   SYMBOL    XDATA    INT       y
      0001158EH   SYMBOL    XDATA    BYTE      return_state
      0001158FH   SYMBOL    XDATA    ---       temp
      00011806H   SYMBOL    XDATA    WORD      widgets_id
      00011808H   SYMBOL    XDATA    BYTE      state
      00011809H   SYMBOL    XDATA    BYTE      return_state
      0001180AH   SYMBOL    XDATA    ---       temp
      00011EC4H   SYMBOL    XDATA    ---       str
      00011EC8H   SYMBOL    XDATA    BYTE      return_state
      00011712H   SYMBOL    XDATA    WORD      page_id
      00011714H   SYMBOL    XDATA    INT       anim_en
      00011716H   SYMBOL    XDATA    BYTE      return_state
      00011717H   SYMBOL    XDATA    ---       temp
      00011F4AH   SYMBOL    XDATA    WORD      page_id
      00011F4CH   SYMBOL    XDATA    BYTE      state
      00011F4DH   SYMBOL    XDATA    BYTE      return_state
      00011721H   SYMBOL    XDATA    WORD      page_id
      00011723H   SYMBOL    XDATA    ---       str
      00011727H   SYMBOL    XDATA    BYTE      return_state
      00011728H   SYMBOL    XDATA    ---       temp
      000116E3H   SYMBOL    XDATA    INT       title_position
      000116E5H   SYMBOL    XDATA    BYTE      title_width
      000116E6H   SYMBOL    XDATA    BYTE      return_state
      000116E7H   SYMBOL    XDATA    ---       temp
      00011BEAH   SYMBOL    XDATA    INT       x
      00011BECH   SYMBOL    XDATA    INT       y
      00011BEEH   SYMBOL    XDATA    WORD      width
      00011BF0H   SYMBOL    XDATA    WORD      height
L251 LINKER/LOCATER V4.66.93.0                                                        05/01/2026  20:21:51  PAGE 117


      00011BF2H   SYMBOL    XDATA    BYTE      return_state
      00010E50H   SYMBOL    XDATA    BYTE      lebel_num
      00010F0FH   SYMBOL    XDATA    WORD      label_id
      00010F11H   SYMBOL    XDATA    ---       format
      00010F15H   SYMBOL    XDATA    LONG      str_length
      00010F19H   SYMBOL    XDATA    BYTE      return_state
      00010F1AH   SYMBOL    XDATA    ---       temp
      00010F22H   SYMBOL    XDATA    ---       arg
      00011730H   SYMBOL    XDATA    WORD      label_id
      00011732H   SYMBOL    XDATA    ---       str
      00011736H   SYMBOL    XDATA    BYTE      return_state
      00011737H   SYMBOL    XDATA    ---       temp
      0001173FH   SYMBOL    XDATA    WORD      label_id
      00011741H   SYMBOL    XDATA    INT       mode
      00011743H   SYMBOL    XDATA    BYTE      return_state
      00011744H   SYMBOL    XDATA    ---       temp
      00011BF3H   SYMBOL    XDATA    INT       x
      00011BF5H   SYMBOL    XDATA    INT       y
      00011BF7H   SYMBOL    XDATA    WORD      row_num
      00011BF9H   SYMBOL    XDATA    WORD      col_num
      00011BFBH   SYMBOL    XDATA    BYTE      return_state
      00010E51H   SYMBOL    XDATA    BYTE      table_num
      00010ECAH   SYMBOL    XDATA    WORD      table_id
      00010ECCH   SYMBOL    XDATA    BYTE      row
      00010ECDH   SYMBOL    XDATA    BYTE      col
      00010ECEH   SYMBOL    XDATA    ---       format
      00010ED2H   SYMBOL    XDATA    LONG      str_length
      00010ED6H   SYMBOL    XDATA    BYTE      return_state
      00010ED7H   SYMBOL    XDATA    ---       arg
      00010EDBH   SYMBOL    XDATA    ---       temp
      000115E5H   SYMBOL    XDATA    WORD      table_id
      000115E7H   SYMBOL    XDATA    BYTE      col
      000115E8H   SYMBOL    XDATA    WORD      width
      000115EAH   SYMBOL    XDATA    BYTE      return_state
      000115EBH   SYMBOL    XDATA    ---       temp
      00011691H   SYMBOL    XDATA    WORD      table_id
      00011693H   SYMBOL    XDATA    BYTE      row
      00011694H   SYMBOL    XDATA    BYTE      col
      00011695H   SYMBOL    XDATA    BYTE      return_state
      00011696H   SYMBOL    XDATA    ---       temp
      00011BFCH   SYMBOL    XDATA    INT       x
      00011BFEH   SYMBOL    XDATA    INT       y
      00011C00H   SYMBOL    XDATA    WORD      siz
      00011C02H   SYMBOL    XDATA    INT       style
      00011C04H   SYMBOL    XDATA    BYTE      return_state
      00010E52H   SYMBOL    XDATA    BYTE      meter_num
      0001174EH   SYMBOL    XDATA    WORD      meter_id
      00011750H   SYMBOL    XDATA    INT       value
      00011752H   SYMBOL    XDATA    BYTE      return_state
      00011753H   SYMBOL    XDATA    ---       temp
      00011C05H   SYMBOL    XDATA    INT       x
      00011C07H   SYMBOL    XDATA    INT       y
      00011C09H   SYMBOL    XDATA    WORD      clock_size
      00011C0BH   SYMBOL    XDATA    INT       clock_type
      00011C0DH   SYMBOL    XDATA    BYTE      return_state
      00010E53H   SYMBOL    XDATA    BYTE      clock_num
      00011C0EH   SYMBOL    XDATA    INT       x
      00011C10H   SYMBOL    XDATA    INT       y
      00011C12H   SYMBOL    XDATA    WORD      width
      00011C14H   SYMBOL    XDATA    WORD      height
      00011C16H   SYMBOL    XDATA    BYTE      return_state
      00010E54H   SYMBOL    XDATA    BYTE      progress_bar_num
      000116A2H   SYMBOL    XDATA    WORD      progress_bar_id
      000116A4H   SYMBOL    XDATA    BYTE      start_value
      000116A5H   SYMBOL    XDATA    BYTE      end_value
L251 LINKER/LOCATER V4.66.93.0                                                        05/01/2026  20:21:51  PAGE 118


      000116A6H   SYMBOL    XDATA    BYTE      return_state
      000116A7H   SYMBOL    XDATA    ---       temp
      00011C17H   SYMBOL    XDATA    INT       x
      00011C19H   SYMBOL    XDATA    INT       y
      00011C1BH   SYMBOL    XDATA    WORD      width
      00011C1DH   SYMBOL    XDATA    WORD      height
      00011C1FH   SYMBOL    XDATA    BYTE      return_state
      000115F7H   SYMBOL    XDATA    WORD      year
      000115F9H   SYMBOL    XDATA    BYTE      month
      000115FAH   SYMBOL    XDATA    INT       mode
      000115FCH   SYMBOL    XDATA    BYTE      return_state
      000115FDH   SYMBOL    XDATA    ---       temp
      00011C20H   SYMBOL    XDATA    INT       x
      00011C22H   SYMBOL    XDATA    INT       y
      00011C24H   SYMBOL    XDATA    WORD      width
      00011C26H   SYMBOL    XDATA    WORD      height
      00011C28H   SYMBOL    XDATA    BYTE      return_state
      00010E55H   SYMBOL    XDATA    BYTE      waveform_num
      0001138CH   SYMBOL    XDATA    WORD      waveform_id
      0001138EH   SYMBOL    XDATA    BYTE      line_id
      0001138FH   SYMBOL    XDATA    ---       dat
      00011393H   SYMBOL    XDATA    WORD      length
      00011395H   SYMBOL    XDATA    WORD      color
      00011397H   SYMBOL    XDATA    BYTE      return_state
      00011398H   SYMBOL    XDATA    WORD      i
      0001139AH   SYMBOL    XDATA    ---       temp
      0001159BH   SYMBOL    XDATA    WORD      waveform_id
      0001159DH   SYMBOL    XDATA    WORD      line_id
      0001159FH   SYMBOL    XDATA    WORD      line_state
      000115A1H   SYMBOL    XDATA    BYTE      return_state
      000115A2H   SYMBOL    XDATA    ---       temp
      00011814H   SYMBOL    XDATA    WORD      waveform_id
      00011816H   SYMBOL    XDATA    BYTE      line_type
      00011817H   SYMBOL    XDATA    BYTE      return_state
      00011818H   SYMBOL    XDATA    ---       temp
      00011AD6H   SYMBOL    XDATA    WORD      waveform_id
      00011AD8H   SYMBOL    XDATA    BYTE      return_state
      00011AD9H   SYMBOL    XDATA    ---       temp
      00011C29H   SYMBOL    XDATA    INT       x
      00011C2BH   SYMBOL    XDATA    INT       y
      00011C2DH   SYMBOL    XDATA    WORD      width
      00011C2FH   SYMBOL    XDATA    WORD      height
      00011C31H   SYMBOL    XDATA    BYTE      return_state
      00010E56H   SYMBOL    XDATA    BYTE      image_num
      0001118CH   SYMBOL    XDATA    WORD      image_id
      0001118EH   SYMBOL    XDATA    ---       image
      00011192H   SYMBOL    XDATA    WORD      width
      00011194H   SYMBOL    XDATA    WORD      height
      00011196H   SYMBOL    XDATA    INT       image_type
      00011198H   SYMBOL    XDATA    BYTE      threshold
      00011199H   SYMBOL    XDATA    BYTE      return_state
      0001119AH   SYMBOL    XDATA    WORD      send_length
      0001119CH   SYMBOL    XDATA    DWORD     image_size
      000111A0H   SYMBOL    XDATA    ---       image_data
      000111A4H   SYMBOL    XDATA    ---       temp
      000113A6H   SYMBOL    XDATA    WORD      image_id
      000113A8H   SYMBOL    XDATA    BYTE      line_id
      000113A9H   SYMBOL    XDATA    ---       line_data
      000113ADH   SYMBOL    XDATA    WORD      line_length
      000113AFH   SYMBOL    XDATA    INT       data_type
      000113B1H   SYMBOL    XDATA    WORD      color
      000113B3H   SYMBOL    XDATA    BYTE      return_state
      000113B4H   SYMBOL    XDATA    ---       temp
      00011201H   SYMBOL    XDATA    WORD      image_id
      00011203H   SYMBOL    XDATA    BYTE      rectangle_id
L251 LINKER/LOCATER V4.66.93.0                                                        05/01/2026  20:21:51  PAGE 119


      00011204H   SYMBOL    XDATA    INT       x
      00011206H   SYMBOL    XDATA    INT       y
      00011208H   SYMBOL    XDATA    WORD      rectangle_width
      0001120AH   SYMBOL    XDATA    WORD      rectangle_height
      0001120CH   SYMBOL    XDATA    WORD      color
      0001120EH   SYMBOL    XDATA    BYTE      return_state
      0001120FH   SYMBOL    XDATA    ---       temp
      00011C32H   SYMBOL    XDATA    INT       x
      00011C34H   SYMBOL    XDATA    INT       y
      00011C36H   SYMBOL    XDATA    WORD      width
      00011C38H   SYMBOL    XDATA    WORD      height
      00011C3AH   SYMBOL    XDATA    BYTE      return_state
      00010E57H   SYMBOL    XDATA    BYTE      container_num
      000115AEH   SYMBOL    XDATA    WORD      container_id
      000115B0H   SYMBOL    XDATA    WORD      border_width
      000115B2H   SYMBOL    XDATA    WORD      radius
      000115B4H   SYMBOL    XDATA    BYTE      return_state
      000115B5H   SYMBOL    XDATA    ---       temp
      00011C3BH   SYMBOL    XDATA    ---       str
      00011C3FH   SYMBOL    XDATA    INT       title_position
      00011C41H   SYMBOL    XDATA    BYTE      title_size
      00011C42H   SYMBOL    XDATA    WORD      page_id

      ---         MODULE    ---      ---       zf_device_tft180
      00011D0FH   PUBLIC    XDATA    WORD      tft180_pencolor
      00011D11H   PUBLIC    XDATA    WORD      tft180_bgcolor
      00011D13H   PUBLIC    XDATA    INT       tft180_display_dir
      00011D15H   PUBLIC    XDATA    BYTE      tft180_x_max
      00011D16H   PUBLIC    XDATA    BYTE      tft180_y_max
      0001102AH   PUBLIC    XDATA    BYTE      ?tft180_show_float?BYTE
      00011263H   PUBLIC    XDATA    BYTE      ?tft180_show_wave?BYTE
      000000D0H   SFRSYM    DATA     BYTE      PSW
      0000009DH   SFRSYM    DATA     BYTE      IRCBAND
      00000097H   SFRSYM    DATA     BYTE      AUXR2
      000000EFH   SFRSYM    DATA     BYTE      AUXINTIF
      000000FDH   SFRSYM    DATA     BYTE      S4CON
      000000ACH   SFRSYM    DATA     BYTE      S3CON
      0000009AH   SFRSYM    DATA     BYTE      S2CON
      000000B7H   SFRSYM    DATA     BYTE      IPH
      000000CDH   SFRSYM    DATA     BYTE      SPSTAT
      000000DDH   SFRSYM    DATA     BYTE      T4T3M
      000000C1H   SFRSYM    DATA     BYTE      WDT_CONTR
      000000DFH   SFRSYM    DATA     BYTE      IP3
      000000F4H   SFRSYM    DATA     BYTE      USBCON
      000000B5H   SFRSYM    DATA     BYTE      IP2
      000000FFH   SFRSYM    DATA     BYTE      RSTCFG
      000000C7H   SFRSYM    DATA     BYTE      IAP_CONTR
      000000F9H   SFRSYM    DATA     BYTE      LINICR
      0000008EH   SFRSYM    DATA     BYTE      AUXR
      000000AFH   SFRSYM    DATA     BYTE      IE2
      00000088H   SFRSYM    DATA     BYTE      TCON
      00000089H   SFRSYM    DATA     BYTE      TMOD
      00000098H   SFRSYM    DATA     BYTE      SCON
      000000A0H.2 SFRSYM    DATA     BIT       P22
      000000A0H.1 SFRSYM    DATA     BIT       P21
      000000A0H.0 SFRSYM    DATA     BIT       P20
      000000F1H   SFRSYM    DATA     BYTE      CANICR
      00000087H   SFRSYM    DATA     BYTE      PCON
      000000BCH   SFRSYM    DATA     BYTE      ADC_CONTR
      000000E7H   SFRSYM    DATA     BYTE      CMPCR2
      000000E6H   SFRSYM    DATA     BYTE      CMPCR1
      000000DEH   SFRSYM    DATA     BYTE      ADCCFG
      000000B8H   SFRSYM    DATA     BYTE      IP
      0000008FH   SFRSYM    DATA     BYTE      INTCLKO
      000000EEH   SFRSYM    DATA     BYTE      IP3H
L251 LINKER/LOCATER V4.66.93.0                                                        05/01/2026  20:21:51  PAGE 120


      000000B6H   SFRSYM    DATA     BYTE      IP2H
      000000A8H   SFRSYM    DATA     BYTE      IE
      000000BBH   SFRSYM    DATA     BYTE      P_SW3
      000000BAH   SFRSYM    DATA     BYTE      P_SW2
      000000A2H   SFRSYM    DATA     BYTE      P_SW1
      000000CEH   SFRSYM    DATA     BYTE      SPCTL
      000000F8H   SFRSYM    DATA     BYTE      P7
      000000E8H   SFRSYM    DATA     BYTE      P6
      000000C8H   SFRSYM    DATA     BYTE      P5
      000000C0H   SFRSYM    DATA     BYTE      P4
      000000B0H   SFRSYM    DATA     BYTE      P3
      000000A0H   SFRSYM    DATA     BYTE      P2
      00000090H   SFRSYM    DATA     BYTE      P1
      00000080H   SFRSYM    DATA     BYTE      P0
      00011FEAH   SYMBOL    XDATA    BYTE      dat
      00011D17H   SYMBOL    XDATA    WORD      x1
      00011D19H   SYMBOL    XDATA    WORD      y1
      00011D1BH   SYMBOL    XDATA    WORD      x2
      00011D1DH   SYMBOL    XDATA    WORD      y2
      00011E3BH   SYMBOL    XDATA    WORD      color
      00011E3DH   SYMBOL    XDATA    DWORD     i
      00011FD0H   SYMBOL    XDATA    INT       dir
      00011F4EH   SYMBOL    XDATA    WORD      pen
      00011F50H   SYMBOL    XDATA    WORD      bgcolor
      00011E41H   SYMBOL    XDATA    WORD      x
      00011E43H   SYMBOL    XDATA    WORD      y
      00011E45H   SYMBOL    XDATA    WORD      color
      00011D1FH   SYMBOL    XDATA    WORD      x
      00011D21H   SYMBOL    XDATA    WORD      y
      00011D23H   SYMBOL    XDATA    CHAR      dat
      00011D24H   SYMBOL    XDATA    BYTE      i
      00011D25H   SYMBOL    XDATA    BYTE      j
      00011D26H   SYMBOL    XDATA    BYTE      temp
      00011B4FH   SYMBOL    XDATA    WORD      x
      00011B51H   SYMBOL    XDATA    WORD      y
      00011B53H   SYMBOL    XDATA    ---       dat
      00011B57H   SYMBOL    XDATA    WORD      j
      00011C44H   SYMBOL    XDATA    WORD      x
      00011C46H   SYMBOL    XDATA    WORD      y
      00011C48H   SYMBOL    XDATA    CHAR      dat
      00011C49H   SYMBOL    XDATA    ---       a
      00011C4CH   SYMBOL    XDATA    BYTE      i
      00011C4DH   SYMBOL    XDATA    WORD      x
      00011C4FH   SYMBOL    XDATA    WORD      y
      00011C51H   SYMBOL    XDATA    BYTE      dat
      00011C52H   SYMBOL    XDATA    ---       a
      00011C55H   SYMBOL    XDATA    BYTE      i
      00011A1DH   SYMBOL    XDATA    WORD      x
      00011A1FH   SYMBOL    XDATA    WORD      y
      00011A21H   SYMBOL    XDATA    INT       dat
      00011A23H   SYMBOL    XDATA    ---       a
      00011A28H   SYMBOL    XDATA    BYTE      i
      00011A29H   SYMBOL    XDATA    WORD      x
      00011A2BH   SYMBOL    XDATA    WORD      y
      00011A2DH   SYMBOL    XDATA    WORD      dat
      00011A2FH   SYMBOL    XDATA    ---       a
      00011A34H   SYMBOL    XDATA    BYTE      i
      000110E1H   SYMBOL    XDATA    WORD      x
      000110E3H   SYMBOL    XDATA    WORD      y
      000110E5H   SYMBOL    XDATA    LONG      dat
      000110E9H   SYMBOL    XDATA    BYTE      num
      000110EAH   SYMBOL    XDATA    ---       buff
      0001110CH   SYMBOL    XDATA    BYTE      length
      0001102AH   SYMBOL    XDATA    WORD      x
      0001102CH   SYMBOL    XDATA    WORD      y
L251 LINKER/LOCATER V4.66.93.0                                                        05/01/2026  20:21:51  PAGE 121


      0001102EH   SYMBOL    XDATA    FLOAT     dat
      00011032H   SYMBOL    XDATA    BYTE      num
      00011033H   SYMBOL    XDATA    BYTE      pointnum
      00011034H   SYMBOL    XDATA    BYTE      length
      00011035H   SYMBOL    XDATA    ---       buff
      00011057H   SYMBOL    XDATA    CHAR      start
      00011058H   SYMBOL    XDATA    CHAR      end
      00011059H   SYMBOL    XDATA    CHAR      point
      00011263H   SYMBOL    XDATA    WORD      x
      00011265H   SYMBOL    XDATA    WORD      y
      00011267H   SYMBOL    XDATA    ---       p
      0001126BH   SYMBOL    XDATA    WORD      width
      0001126DH   SYMBOL    XDATA    WORD      value_max
      0001126FH   SYMBOL    XDATA    WORD      dis_width
      00011271H   SYMBOL    XDATA    WORD      dis_value_max
      00011273H   SYMBOL    XDATA    DWORD     i
      00011277H   SYMBOL    XDATA    DWORD     j
      0001127BH   SYMBOL    XDATA    DWORD     width_index
      0001127FH   SYMBOL    XDATA    DWORD     value_max_index

      ---         MODULE    ---      ---       zf_device_tsl1401
      0001020AH   PUBLIC    XDATA    BYTE      tsl1401_finish_flag
      0001020BH   PUBLIC    XDATA    ---       tsl1401_data
      000000D0H   SFRSYM    DATA     BYTE      PSW
      0000009DH   SFRSYM    DATA     BYTE      IRCBAND
      00000097H   SFRSYM    DATA     BYTE      AUXR2
      000000EFH   SFRSYM    DATA     BYTE      AUXINTIF
      000000FDH   SFRSYM    DATA     BYTE      S4CON
      000000ACH   SFRSYM    DATA     BYTE      S3CON
      0000009AH   SFRSYM    DATA     BYTE      S2CON
      000000B7H   SFRSYM    DATA     BYTE      IPH
      000000CDH   SFRSYM    DATA     BYTE      SPSTAT
      000000DDH   SFRSYM    DATA     BYTE      T4T3M
      000000C1H   SFRSYM    DATA     BYTE      WDT_CONTR
      000000DFH   SFRSYM    DATA     BYTE      IP3
      000000F4H   SFRSYM    DATA     BYTE      USBCON
      000000B5H   SFRSYM    DATA     BYTE      IP2
      000000FFH   SFRSYM    DATA     BYTE      RSTCFG
      000000C7H   SFRSYM    DATA     BYTE      IAP_CONTR
      000000F9H   SFRSYM    DATA     BYTE      LINICR
      0000008EH   SFRSYM    DATA     BYTE      AUXR
      000000AFH   SFRSYM    DATA     BYTE      IE2
      00000088H   SFRSYM    DATA     BYTE      TCON
      00000089H   SFRSYM    DATA     BYTE      TMOD
      00000098H   SFRSYM    DATA     BYTE      SCON
      000000F1H   SFRSYM    DATA     BYTE      CANICR
      00000087H   SFRSYM    DATA     BYTE      PCON
      000000BCH   SFRSYM    DATA     BYTE      ADC_CONTR
      000000E7H   SFRSYM    DATA     BYTE      CMPCR2
      000000E6H   SFRSYM    DATA     BYTE      CMPCR1
      000000DEH   SFRSYM    DATA     BYTE      ADCCFG
      000000B8H   SFRSYM    DATA     BYTE      IP
      0000008FH   SFRSYM    DATA     BYTE      INTCLKO
      000000EEH   SFRSYM    DATA     BYTE      IP3H
      000000B6H   SFRSYM    DATA     BYTE      IP2H
      000000A8H   SFRSYM    DATA     BYTE      IE
      000000BBH   SFRSYM    DATA     BYTE      P_SW3
      000000BAH   SFRSYM    DATA     BYTE      P_SW2
      000000A2H   SFRSYM    DATA     BYTE      P_SW1
      000000CEH   SFRSYM    DATA     BYTE      SPCTL
      000000F8H   SFRSYM    DATA     BYTE      P7
      000000E8H   SFRSYM    DATA     BYTE      P6
      000000C8H   SFRSYM    DATA     BYTE      P5
      000000C0H   SFRSYM    DATA     BYTE      P4
      000000B0H   SFRSYM    DATA     BYTE      P3
L251 LINKER/LOCATER V4.66.93.0                                                        05/01/2026  20:21:51  PAGE 122


      000000A0H   SFRSYM    DATA     BYTE      P2
      00000090H   SFRSYM    DATA     BYTE      P1
      00000080H   SFRSYM    DATA     BYTE      P0
      0001040BH   SYMBOL    XDATA    BYTE      tsl1401_init_state
      00011FEBH   SYMBOL    XDATA    BYTE      i
      00011F52H   SYMBOL    XDATA    INT       uart_n
      00011F54H   SYMBOL    XDATA    BYTE      index
      00011F55H   SYMBOL    XDATA    BYTE      i

      ---         MODULE    ---      ---       zf_device_type
      00FF8F56H   PUBLIC    CODE     ---       set_wireless_type
      00011D27H   PUBLIC    XDATA    ---       tof_module_exti_handler
      00011D29H   PUBLIC    XDATA    INT       wireless_type
      00011D2BH   PUBLIC    XDATA    INT       tof_type
      00011D2DH   PUBLIC    XDATA    INT       gps_type
      000000D0H   SFRSYM    DATA     BYTE      PSW
      0000009DH   SFRSYM    DATA     BYTE      IRCBAND
      00000097H   SFRSYM    DATA     BYTE      AUXR2
      000000EFH   SFRSYM    DATA     BYTE      AUXINTIF
      000000FDH   SFRSYM    DATA     BYTE      S4CON
      000000ACH   SFRSYM    DATA     BYTE      S3CON
      0000009AH   SFRSYM    DATA     BYTE      S2CON
      000000B7H   SFRSYM    DATA     BYTE      IPH
      000000CDH   SFRSYM    DATA     BYTE      SPSTAT
      000000DDH   SFRSYM    DATA     BYTE      T4T3M
      000000C1H   SFRSYM    DATA     BYTE      WDT_CONTR
      000000DFH   SFRSYM    DATA     BYTE      IP3
      000000F4H   SFRSYM    DATA     BYTE      USBCON
      000000B5H   SFRSYM    DATA     BYTE      IP2
      000000FFH   SFRSYM    DATA     BYTE      RSTCFG
      000000C7H   SFRSYM    DATA     BYTE      IAP_CONTR
      000000F9H   SFRSYM    DATA     BYTE      LINICR
      0000008EH   SFRSYM    DATA     BYTE      AUXR
      000000AFH   SFRSYM    DATA     BYTE      IE2
      00000088H   SFRSYM    DATA     BYTE      TCON
      00000089H   SFRSYM    DATA     BYTE      TMOD
      00000098H   SFRSYM    DATA     BYTE      SCON
      000000F1H   SFRSYM    DATA     BYTE      CANICR
      00000087H   SFRSYM    DATA     BYTE      PCON
      000000BCH   SFRSYM    DATA     BYTE      ADC_CONTR
      000000E7H   SFRSYM    DATA     BYTE      CMPCR2
      000000E6H   SFRSYM    DATA     BYTE      CMPCR1
      000000DEH   SFRSYM    DATA     BYTE      ADCCFG
      000000B8H   SFRSYM    DATA     BYTE      IP
      0000008FH   SFRSYM    DATA     BYTE      INTCLKO
      000000EEH   SFRSYM    DATA     BYTE      IP3H
      000000B6H   SFRSYM    DATA     BYTE      IP2H
      000000A8H   SFRSYM    DATA     BYTE      IE
      000000BBH   SFRSYM    DATA     BYTE      P_SW3
      000000BAH   SFRSYM    DATA     BYTE      P_SW2
      000000A2H   SFRSYM    DATA     BYTE      P_SW1
      000000CEH   SFRSYM    DATA     BYTE      SPCTL
      000000F8H   SFRSYM    DATA     BYTE      P7
      000000E8H   SFRSYM    DATA     BYTE      P6
      000000C8H   SFRSYM    DATA     BYTE      P5
      000000C0H   SFRSYM    DATA     BYTE      P4
      000000B0H   SFRSYM    DATA     BYTE      P3
      000000A0H   SFRSYM    DATA     BYTE      P2
      00000090H   SFRSYM    DATA     BYTE      P1
      00000080H   SFRSYM    DATA     BYTE      P0

      00FF8F56H   BLOCK     CODE     ---       LVL=0
      00011D2FH   SYMBOL    XDATA    INT       type_set
      00011D31H   SYMBOL    XDATA    INT       uartx
      00011D33H   SYMBOL    XDATA    ---       uart_callback
L251 LINKER/LOCATER V4.66.93.0                                                        05/01/2026  20:21:51  PAGE 123


      00FF8F56H   LINE      CODE     ---       #52
      00FF8F6CH   LINE      CODE     ---       #54
      00FF8F78H   LINE      CODE     ---       #56
      00FF8F84H   LINE      CODE     ---       #58
      00FF8F94H   LINE      CODE     ---       #59
      00FF8F96H   LINE      CODE     ---       #60
      00FF8FA4H   LINE      CODE     ---       #62
      00FF8FB4H   LINE      CODE     ---       #63
      00FF8FB6H   LINE      CODE     ---       #64
      00FF8FC4H   LINE      CODE     ---       #66
      00FF8FD4H   LINE      CODE     ---       #67
      00FF8FD6H   LINE      CODE     ---       #68
      00FF8FE4H   LINE      CODE     ---       #70
      00FF8FF4H   LINE      CODE     ---       #71
      ---         BLOCKEND  ---      ---       LVL=0
      00011E47H   SYMBOL    XDATA    INT       type_set
      00011E49H   SYMBOL    XDATA    ---       exti_callback
      00011D37H   SYMBOL    XDATA    INT       type_set
      00011D39H   SYMBOL    XDATA    INT       uartx
      00011D3BH   SYMBOL    XDATA    ---       uart_callback

      ---         MODULE    ---      ---       zf_device_wireless_uart
      00FF8081H   PUBLIC    CODE     ---       wireless_uart_send_buffer
      00FF9B91H   PUBLIC    CODE     ---       wireless_uart_send_string
      00FFA389H   PUBLIC    CODE     ---       wireless_uart_callback
      00FF96D1H   PUBLIC    CODE     ---       wireless_uart_init
      00FF93C3H   PUBLIC    CODE     ---       wireless_uart_read_buffer
      000000D0H   SFRSYM    DATA     BYTE      PSW
      0000009DH   SFRSYM    DATA     BYTE      IRCBAND
      00000097H   SFRSYM    DATA     BYTE      AUXR2
      000000EFH   SFRSYM    DATA     BYTE      AUXINTIF
      000000FDH   SFRSYM    DATA     BYTE      S4CON
      000000ACH   SFRSYM    DATA     BYTE      S3CON
      0000009AH   SFRSYM    DATA     BYTE      S2CON
      000000B7H   SFRSYM    DATA     BYTE      IPH
      000000CDH   SFRSYM    DATA     BYTE      SPSTAT
      000000DDH   SFRSYM    DATA     BYTE      T4T3M
      000000C1H   SFRSYM    DATA     BYTE      WDT_CONTR
      000000DFH   SFRSYM    DATA     BYTE      IP3
      000000F4H   SFRSYM    DATA     BYTE      USBCON
      000000B5H   SFRSYM    DATA     BYTE      IP2
      000000FFH   SFRSYM    DATA     BYTE      RSTCFG
      000000C7H   SFRSYM    DATA     BYTE      IAP_CONTR
      000000F9H   SFRSYM    DATA     BYTE      LINICR
      0000008EH   SFRSYM    DATA     BYTE      AUXR
      000000AFH   SFRSYM    DATA     BYTE      IE2
      00000088H   SFRSYM    DATA     BYTE      TCON
      00000089H   SFRSYM    DATA     BYTE      TMOD
      00000098H   SFRSYM    DATA     BYTE      SCON
      000000F1H   SFRSYM    DATA     BYTE      CANICR
      00000087H   SFRSYM    DATA     BYTE      PCON
      000000BCH   SFRSYM    DATA     BYTE      ADC_CONTR
      000000E7H   SFRSYM    DATA     BYTE      CMPCR2
      000000E6H   SFRSYM    DATA     BYTE      CMPCR1
      000000DEH   SFRSYM    DATA     BYTE      ADCCFG
      000000B8H   SFRSYM    DATA     BYTE      IP
      0000008FH   SFRSYM    DATA     BYTE      INTCLKO
      000000EEH   SFRSYM    DATA     BYTE      IP3H
      000000B6H   SFRSYM    DATA     BYTE      IP2H
      000000A8H   SFRSYM    DATA     BYTE      IE
      000000BBH   SFRSYM    DATA     BYTE      P_SW3
      000000BAH   SFRSYM    DATA     BYTE      P_SW2
      000000A2H   SFRSYM    DATA     BYTE      P_SW1
      000000CEH   SFRSYM    DATA     BYTE      SPCTL
      000000F8H   SFRSYM    DATA     BYTE      P7
L251 LINKER/LOCATER V4.66.93.0                                                        05/01/2026  20:21:51  PAGE 124


      000000E8H   SFRSYM    DATA     BYTE      P6
      000000C8H   SFRSYM    DATA     BYTE      P5
      000000C0H   SFRSYM    DATA     BYTE      P4
      000000B0H   SFRSYM    DATA     BYTE      P3
      000000A0H   SFRSYM    DATA     BYTE      P2
      00000090H   SFRSYM    DATA     BYTE      P1
      00000080H   SFRSYM    DATA     BYTE      P0
      00010D61H   SYMBOL    XDATA    ---       wireless_uart_fifo
      00010D78H   SYMBOL    XDATA    ---       wireless_uart_buffer
      00011F93H   SYMBOL    XDATA    BYTE      dat
      00011F94H   SYMBOL    XDATA    WORD      time_cnt

      00FF8081H   BLOCK     CODE     ---       LVL=0
      00011A35H   SYMBOL    XDATA    ---       buff
      00011A39H   SYMBOL    XDATA    DWORD     len
      00FF8095H   BLOCK     CODE     NEAR LAB  LVL=1
      00011A3DH   SYMBOL    XDATA    WORD      time_cnt
      00011A3FH   SYMBOL    XDATA    WORD      send_len
      ---         BLOCKEND  ---      ---       LVL=1
      00FF8081H   LINE      CODE     ---       #103
      00FF8095H   LINE      CODE     ---       #104
      00FF8095H   LINE      CODE     ---       #108
      00FF809DH   LINE      CODE     ---       #109
      00FF80A5H   LINE      CODE     ---       #110
      00FF80C7H   LINE      CODE     ---       #112
      00FF80CAH   LINE      CODE     ---       #114
      00FF80D6H   LINE      CODE     ---       #116
      00FF80FCH   LINE      CODE     ---       #117
      00FF8113H   LINE      CODE     ---       #118
      00FF812CH   LINE      CODE     ---       #119
      00FF8147H   LINE      CODE     ---       #120
      00FF814FH   LINE      CODE     ---       #121
      00FF8151H   LINE      CODE     ---       #124
      00FF8158H   LINE      CODE     ---       #125
      00FF8167H   LINE      CODE     ---       #126
      00FF8167H   LINE      CODE     ---       #127
      00FF8186H   LINE      CODE     ---       #129
      00FF8190H   LINE      CODE     ---       #130
      ---         BLOCKEND  ---      ---       LVL=0

      00FF9B91H   BLOCK     CODE     ---       LVL=0
      00011D3FH   SYMBOL    XDATA    ---       str
      00FF9B9BH   BLOCK     CODE     NEAR LAB  LVL=1
      00011D43H   SYMBOL    XDATA    DWORD     len
      ---         BLOCKEND  ---      ---       LVL=1
      00FF9B91H   LINE      CODE     ---       #139
      00FF9B9BH   LINE      CODE     ---       #140
      00FF9B9BH   LINE      CODE     ---       #141
      00FF9BB4H   LINE      CODE     ---       #142
      00FF9BD6H   LINE      CODE     ---       #144
      00FF9BEDH   LINE      CODE     ---       #145
      ---         BLOCKEND  ---      ---       LVL=0

      00FF93C3H   BLOCK     CODE     ---       LVL=0
      00011A41H   SYMBOL    XDATA    ---       buff
      00011A45H   SYMBOL    XDATA    DWORD     len
      00FF93D7H   BLOCK     CODE     NEAR LAB  LVL=1
      00011A49H   SYMBOL    XDATA    DWORD     data_len
      ---         BLOCKEND  ---      ---       LVL=1
      00FF93C3H   LINE      CODE     ---       #156
      00FF93D7H   LINE      CODE     ---       #157
      00FF93D7H   LINE      CODE     ---       #158
      00FF93EBH   LINE      CODE     ---       #159
      00FF940DH   LINE      CODE     ---       #160
      00FF943CH   LINE      CODE     ---       #161
L251 LINKER/LOCATER V4.66.93.0                                                        05/01/2026  20:21:51  PAGE 125


      00FF9446H   LINE      CODE     ---       #162
      ---         BLOCKEND  ---      ---       LVL=0

      00FFA389H   BLOCK     CODE     ---       LVL=0
      00011FECH   SYMBOL    XDATA    BYTE      uart_dat
      00FFA389H   LINE      CODE     ---       #173
      00FFA38DH   LINE      CODE     ---       #176
      00FFA3AEH   LINE      CODE     ---       #187
      ---         BLOCKEND  ---      ---       LVL=0

      00FF96D1H   BLOCK     CODE     ---       LVL=0
      00011FEDH   SYMBOL    XDATA    BYTE      return_state
      00FF96D1H   LINE      CODE     ---       #196
      00FF96D1H   LINE      CODE     ---       #197
      00FF96D1H   LINE      CODE     ---       #198
      00FF96D6H   LINE      CODE     ---       #199
      00FF96E9H   LINE      CODE     ---       #201
      00FF9716H   LINE      CODE     ---       #202
      00FF9727H   LINE      CODE     ---       #205
      00FF9744H   LINE      CODE     ---       #206
      00FF974DH   LINE      CODE     ---       #259
      00FF9751H   LINE      CODE     ---       #260
      ---         BLOCKEND  ---      ---       LVL=0

      ---         MODULE    ---      ---       imu
      00FF84B6H   PUBLIC    CODE     ---       KalmanCreate
      00FF7F62H   PUBLIC    CODE     ---       IMU_gyro_Offset_Init
      00FF9EB5H   PUBLIC    CODE     ---       gyro_init
      00FFA2ABH   PUBLIC    CODE     ---       My_abs
      00010841H   PUBLIC    XDATA    FLOAT     Pitch_Min
      00010845H   PUBLIC    XDATA    FLOAT     Pitch_Max
      00010849H   PUBLIC    XDATA    ---       Kalman1
      00010879H   PUBLIC    XDATA    ---       Kalman2
      000108A9H   PUBLIC    XDATA    CHAR      Round
      000108AAH   PUBLIC    XDATA    FLOAT     gyro_Offset_flag
      000108AEH   PUBLIC    XDATA    FLOAT     pitch
      000108B2H   PUBLIC    XDATA    FLOAT     Roll_Min
      000108B6H   PUBLIC    XDATA    ---       Zero
      000108E6H   PUBLIC    XDATA    FLOAT     Roll_Max
      000108EAH   PUBLIC    XDATA    FLOAT     roll
      000108EEH   PUBLIC    XDATA    FLOAT     gyrox
      000108F2H   PUBLIC    XDATA    FLOAT     gyroy
      000108F6H   PUBLIC    XDATA    FLOAT     gyroz
      000108FAH   PUBLIC    XDATA    ---       first_complement
      0001090EH   PUBLIC    XDATA    ---       IMU_Data
      00010926H   PUBLIC    XDATA    FLOAT     Daty_X
      0001092AH   PUBLIC    XDATA    FLOAT     Daty_Y
      0001092EH   PUBLIC    XDATA    FLOAT     Daty_Z
      00010932H   PUBLIC    XDATA    FLOAT     yaw_limit_360
      00010936H   PUBLIC    XDATA    FLOAT     Max_Delta_Pitch
      0001093AH   PUBLIC    XDATA    FLOAT     yaw
      0001093EH   PUBLIC    XDATA    FLOAT     yaw_total
      00010942H   PUBLIC    XDATA    ---       Gyro_Offset
      0001094EH   PUBLIC    XDATA    FLOAT     Max_Delta_Roll
      00011A4DH   PUBLIC    XDATA    BYTE      ?KalmanCreate?BYTE
      000000D0H   SFRSYM    DATA     BYTE      PSW
      0000009DH   SFRSYM    DATA     BYTE      IRCBAND
      00000097H   SFRSYM    DATA     BYTE      AUXR2
      000000EFH   SFRSYM    DATA     BYTE      AUXINTIF
      000000FDH   SFRSYM    DATA     BYTE      S4CON
      000000ACH   SFRSYM    DATA     BYTE      S3CON
      0000009AH   SFRSYM    DATA     BYTE      S2CON
      000000B7H   SFRSYM    DATA     BYTE      IPH
      000000CDH   SFRSYM    DATA     BYTE      SPSTAT
      000000DDH   SFRSYM    DATA     BYTE      T4T3M
L251 LINKER/LOCATER V4.66.93.0                                                        05/01/2026  20:21:51  PAGE 126


      000000C1H   SFRSYM    DATA     BYTE      WDT_CONTR
      000000DFH   SFRSYM    DATA     BYTE      IP3
      000000F4H   SFRSYM    DATA     BYTE      USBCON
      000000B5H   SFRSYM    DATA     BYTE      IP2
      000000FFH   SFRSYM    DATA     BYTE      RSTCFG
      000000C7H   SFRSYM    DATA     BYTE      IAP_CONTR
      000000F9H   SFRSYM    DATA     BYTE      LINICR
      0000008EH   SFRSYM    DATA     BYTE      AUXR
      000000AFH   SFRSYM    DATA     BYTE      IE2
      00000088H   SFRSYM    DATA     BYTE      TCON
      00000089H   SFRSYM    DATA     BYTE      TMOD
      00000098H   SFRSYM    DATA     BYTE      SCON
      000000F1H   SFRSYM    DATA     BYTE      CANICR
      00000087H   SFRSYM    DATA     BYTE      PCON
      000000BCH   SFRSYM    DATA     BYTE      ADC_CONTR
      000000E7H   SFRSYM    DATA     BYTE      CMPCR2
      000000E6H   SFRSYM    DATA     BYTE      CMPCR1
      000000DEH   SFRSYM    DATA     BYTE      ADCCFG
      000000B8H   SFRSYM    DATA     BYTE      IP
      0000008FH   SFRSYM    DATA     BYTE      INTCLKO
      000000EEH   SFRSYM    DATA     BYTE      IP3H
      000000B6H   SFRSYM    DATA     BYTE      IP2H
      000000A8H   SFRSYM    DATA     BYTE      IE
      000000BBH   SFRSYM    DATA     BYTE      P_SW3
      000000BAH   SFRSYM    DATA     BYTE      P_SW2
      000000A2H   SFRSYM    DATA     BYTE      P_SW1
      000000CEH   SFRSYM    DATA     BYTE      SPCTL
      000000F8H   SFRSYM    DATA     BYTE      P7
      000000E8H   SFRSYM    DATA     BYTE      P6
      000000C8H   SFRSYM    DATA     BYTE      P5
      000000C0H   SFRSYM    DATA     BYTE      P4
      000000B0H   SFRSYM    DATA     BYTE      P3
      000000A0H   SFRSYM    DATA     BYTE      P2
      00000090H   SFRSYM    DATA     BYTE      P1
      00000080H   SFRSYM    DATA     BYTE      P0
      00011F56H   SYMBOL    XDATA    FLOAT     k
      00010952H   SYMBOL    XDATA    FLOAT     Pitch_Temp
      00010956H   SYMBOL    XDATA    FLOAT     Roll_Temp
      0001095AH   SYMBOL    XDATA    FLOAT     Delta_Roll
      0001095EH   SYMBOL    XDATA    CHAR      Pitch_Flag
      0001095FH   SYMBOL    XDATA    CHAR      Roll_Flag

      00FF7F62H   BLOCK     CODE     ---       LVL=0
      00011FD2H   SYMBOL    XDATA    WORD      i
      00FF7F62H   LINE      CODE     ---       #97
      00FF7F62H   LINE      CODE     ---       #98
      00FF7F62H   LINE      CODE     ---       #99
      00FF7F6AH   LINE      CODE     ---       #100
      00FF7F76H   LINE      CODE     ---       #101
      00FF7F82H   LINE      CODE     ---       #102
      00FF7F8EH   LINE      CODE     ---       #103
      00FF7F98H   LINE      CODE     ---       #105
      00FF7FB9H   LINE      CODE     ---       #106
      00FF7FDAH   LINE      CODE     ---       #107
      00FF7FFBH   LINE      CODE     ---       #108
      00FF8002H   LINE      CODE     ---       #109
      00FF8022H   LINE      CODE     ---       #111
      00FF803CH   LINE      CODE     ---       #112
      00FF8056H   LINE      CODE     ---       #113
      00FF8070H   LINE      CODE     ---       #115
      00FF8080H   LINE      CODE     ---       #116
      ---         BLOCKEND  ---      ---       LVL=0
      000116F3H   SYMBOL    XDATA    FLOAT     num
      000116F7H   SYMBOL    XDATA    FLOAT     halfx
      000116FBH   SYMBOL    XDATA    FLOAT     y
L251 LINKER/LOCATER V4.66.93.0                                                        05/01/2026  20:21:51  PAGE 127


      000116FFH   SYMBOL    XDATA    LONG      i

      00FFA2ABH   BLOCK     CODE     ---       LVL=0
      00011F5AH   SYMBOL    XDATA    FLOAT     x
      00FFA2ABH   LINE      CODE     ---       #232
      00FFA2B5H   LINE      CODE     ---       #234
      00FFA2DFH   LINE      CODE     ---       #235
      ---         BLOCKEND  ---      ---       LVL=0

      00FF84B6H   BLOCK     CODE     ---       LVL=0
      00011A4DH   SYMBOL    XDATA    ---       p
      00011A51H   SYMBOL    XDATA    FLOAT     T_Q
      00011A55H   SYMBOL    XDATA    FLOAT     T_R
      00FF84B6H   LINE      CODE     ---       #237
      00FF84CAH   LINE      CODE     ---       #239
      00FF84DDH   LINE      CODE     ---       #240
      00FF84F4H   LINE      CODE     ---       #241
      00FF8513H   LINE      CODE     ---       #242
      00FF8532H   LINE      CODE     ---       #243
      00FF854DH   LINE      CODE     ---       #244
      00FF8564H   LINE      CODE     ---       #245
      00FF857FH   LINE      CODE     ---       #246
      00FF85A3H   LINE      CODE     ---       #247
      ---         BLOCKEND  ---      ---       LVL=0
      00011D47H   SYMBOL    XDATA    ---       p
      00011D4BH   SYMBOL    XDATA    FLOAT     dat

      00FF9EB5H   BLOCK     CODE     ---       LVL=0
      00FF9EB5H   LINE      CODE     ---       #261
      00FF9EB5H   LINE      CODE     ---       #263
      00FF9EB8H   LINE      CODE     ---       #264
      00FF9EDDH   LINE      CODE     ---       #265
      00FF9F02H   LINE      CODE     ---       #266
      ---         BLOCKEND  ---      ---       LVL=0

      ---         MODULE    ---      ---       seekfree_assistant
      00FFA2E0H   PUBLIC    CODE     ---       seekfree_assistant_init
      000105DCH   PUBLIC    XDATA    ---       seekfree_assistant_oscilloscope_data
      00010617H   PUBLIC    XDATA    ---       seekfree_assistant_parameter_update_flag
      0001061FH   PUBLIC    XDATA    ---       seekfree_assistant_parameter
      0001175DH   PUBLIC    XDATA    BYTE      ?seekfree_assistant_camera_data_send?BYTE
      00011B59H   PUBLIC    XDATA    BYTE      ?seekfree_assistant_camera_information_config?BYTE
      000112C1H   PUBLIC    XDATA    BYTE      ?seekfree_assistant_camera_boundary_config?BYTE
      000000D0H   SFRSYM    DATA     BYTE      PSW
      0000009DH   SFRSYM    DATA     BYTE      IRCBAND
      00000097H   SFRSYM    DATA     BYTE      AUXR2
      000000EFH   SFRSYM    DATA     BYTE      AUXINTIF
      000000FDH   SFRSYM    DATA     BYTE      S4CON
      000000ACH   SFRSYM    DATA     BYTE      S3CON
      0000009AH   SFRSYM    DATA     BYTE      S2CON
      000000B7H   SFRSYM    DATA     BYTE      IPH
      000000CDH   SFRSYM    DATA     BYTE      SPSTAT
      000000DDH   SFRSYM    DATA     BYTE      T4T3M
      000000C1H   SFRSYM    DATA     BYTE      WDT_CONTR
      000000DFH   SFRSYM    DATA     BYTE      IP3
      000000F4H   SFRSYM    DATA     BYTE      USBCON
      000000B5H   SFRSYM    DATA     BYTE      IP2
      000000FFH   SFRSYM    DATA     BYTE      RSTCFG
      000000C7H   SFRSYM    DATA     BYTE      IAP_CONTR
      000000F9H   SFRSYM    DATA     BYTE      LINICR
      0000008EH   SFRSYM    DATA     BYTE      AUXR
      000000AFH   SFRSYM    DATA     BYTE      IE2
      00000088H   SFRSYM    DATA     BYTE      TCON
      00000089H   SFRSYM    DATA     BYTE      TMOD
      00000098H   SFRSYM    DATA     BYTE      SCON
L251 LINKER/LOCATER V4.66.93.0                                                        05/01/2026  20:21:51  PAGE 128


      000000F1H   SFRSYM    DATA     BYTE      CANICR
      00000087H   SFRSYM    DATA     BYTE      PCON
      000000BCH   SFRSYM    DATA     BYTE      ADC_CONTR
      000000E7H   SFRSYM    DATA     BYTE      CMPCR2
      000000E6H   SFRSYM    DATA     BYTE      CMPCR1
      000000DEH   SFRSYM    DATA     BYTE      ADCCFG
      000000B8H   SFRSYM    DATA     BYTE      IP
      0000008FH   SFRSYM    DATA     BYTE      INTCLKO
      000000EEH   SFRSYM    DATA     BYTE      IP3H
      000000B6H   SFRSYM    DATA     BYTE      IP2H
      000000A8H   SFRSYM    DATA     BYTE      IE
      000000BBH   SFRSYM    DATA     BYTE      P_SW3
      000000BAH   SFRSYM    DATA     BYTE      P_SW2
      000000A2H   SFRSYM    DATA     BYTE      P_SW1
      000000CEH   SFRSYM    DATA     BYTE      SPCTL
      000000F8H   SFRSYM    DATA     BYTE      P7
      000000A8H.7 SFRSYM    DATA     BIT       EA
      000000E8H   SFRSYM    DATA     BYTE      P6
      000000C8H   SFRSYM    DATA     BYTE      P5
      000000C0H   SFRSYM    DATA     BYTE      P4
      000000B0H   SFRSYM    DATA     BYTE      P3
      000000A0H   SFRSYM    DATA     BYTE      P2
      00000090H   SFRSYM    DATA     BYTE      P1
      00000080H   SFRSYM    DATA     BYTE      P0
      000105D4H   SYMBOL    XDATA    ---       seekfree_assistant_camera_dot_data
      00010600H   SYMBOL    XDATA    ---       seekfree_assistant_fifo
      0001063FH   SYMBOL    XDATA    ---       seekfree_assistant_camera_buffer
      00010689H   SYMBOL    XDATA    ---       seekfree_assistant_camera_data
      00010691H   SYMBOL    XDATA    ---       seekfree_assistant_buffer
      00FFAF2BH   SYMBOL    HCONST   ---       ?tpl?0001
      00FFAF4FH   SYMBOL    HCONST   ---       ?tpl?0002
      00011C56H   SYMBOL    XDATA    ---       buffer
      00011C5AH   SYMBOL    XDATA    DWORD     length
      00011C5EH   SYMBOL    XDATA    BYTE      temp_sum
      0001175DH   SYMBOL    XDATA    INT       camera_type
      0001175FH   SYMBOL    XDATA    ---       image_addr
      00011763H   SYMBOL    XDATA    BYTE      boundary_num
      00011764H   SYMBOL    XDATA    WORD      width
      00011766H   SYMBOL    XDATA    WORD      height
      00011768H   SYMBOL    XDATA    DWORD     image_size
      00011B59H   SYMBOL    XDATA    INT       camera_type
      00011B5BH   SYMBOL    XDATA    ---       image_addr
      00011B5FH   SYMBOL    XDATA    WORD      width
      00011B61H   SYMBOL    XDATA    WORD      height
      00011162H   SYMBOL    XDATA    ---       seekfree_assistant_oscilloscope
      00011166H   SYMBOL    XDATA    BYTE      packet_size
      00011167H   SYMBOL    XDATA    BYTE      i
      00011168H   SYMBOL    XDATA    ---       temp_oscilloscope
      00011D7AH   SYMBOL    XDATA    ---       buffer
      00011D7EH   SYMBOL    XDATA    BYTE      i
      00011D7FH   SYMBOL    XDATA    WORD      dot_bytes
      000112C1H   SYMBOL    XDATA    INT       boundary_type
      000112C3H   SYMBOL    XDATA    WORD      dot_num
      000112C5H   SYMBOL    XDATA    ---       dot_x1
      000112C9H   SYMBOL    XDATA    ---       dot_x2
      000112CDH   SYMBOL    XDATA    ---       dot_x3
      000112D1H   SYMBOL    XDATA    ---       dot_y1
      000112D5H   SYMBOL    XDATA    ---       dot_y2
      000112D9H   SYMBOL    XDATA    ---       dot_y3
      000112DDH   SYMBOL    XDATA    BYTE      i
      000112DEH   SYMBOL    XDATA    BYTE      boundary_num
      000112DFH   SYMBOL    XDATA    BYTE      boundary_data_type
      00010BC3H   SYMBOL    XDATA    BYTE      temp_sum
      00010BC4H   SYMBOL    XDATA    DWORD     read_length
      00010BC8H   SYMBOL    XDATA    WORD      struct_len
L251 LINKER/LOCATER V4.66.93.0                                                        05/01/2026  20:21:51  PAGE 129


      00010BCAH   SYMBOL    XDATA    ---       receive_packet
      00010BCEH   SYMBOL    XDATA    ---       temp_buffer
      00010C4EH   SYMBOL    XDATA    DWORD     i
      00000020H.3 SYMBOL    BIT      BIT       flag

      00FFA2E0H   BLOCK     CODE     ---       LVL=0
      00FFA2E0H   LINE      CODE     ---       #436
      00FFA2E0H   LINE      CODE     ---       #438
      00FFA30DH   LINE      CODE     ---       #439
      ---         BLOCKEND  ---      ---       LVL=0

      ---         MODULE    ---      ---       seekfree_assistant_interface
      00011F5EH   PUBLIC    XDATA    ---       seekfree_assistant_receive_callback
      00011F60H   PUBLIC    XDATA    ---       seekfree_assistant_transfer_callback
      000000D0H   SFRSYM    DATA     BYTE      PSW
      0000009DH   SFRSYM    DATA     BYTE      IRCBAND
      00000097H   SFRSYM    DATA     BYTE      AUXR2
      000000EFH   SFRSYM    DATA     BYTE      AUXINTIF
      000000FDH   SFRSYM    DATA     BYTE      S4CON
      000000ACH   SFRSYM    DATA     BYTE      S3CON
      0000009AH   SFRSYM    DATA     BYTE      S2CON
      000000B7H   SFRSYM    DATA     BYTE      IPH
      000000CDH   SFRSYM    DATA     BYTE      SPSTAT
      000000DDH   SFRSYM    DATA     BYTE      T4T3M
      000000C1H   SFRSYM    DATA     BYTE      WDT_CONTR
      000000DFH   SFRSYM    DATA     BYTE      IP3
      000000F4H   SFRSYM    DATA     BYTE      USBCON
      000000B5H   SFRSYM    DATA     BYTE      IP2
      000000FFH   SFRSYM    DATA     BYTE      RSTCFG
      000000C7H   SFRSYM    DATA     BYTE      IAP_CONTR
      000000F9H   SFRSYM    DATA     BYTE      LINICR
      0000008EH   SFRSYM    DATA     BYTE      AUXR
      000000AFH   SFRSYM    DATA     BYTE      IE2
      00000088H   SFRSYM    DATA     BYTE      TCON
      00000089H   SFRSYM    DATA     BYTE      TMOD
      00000098H   SFRSYM    DATA     BYTE      SCON
      000000F1H   SFRSYM    DATA     BYTE      CANICR
      00000087H   SFRSYM    DATA     BYTE      PCON
      000000BCH   SFRSYM    DATA     BYTE      ADC_CONTR
      000000E7H   SFRSYM    DATA     BYTE      CMPCR2
      000000E6H   SFRSYM    DATA     BYTE      CMPCR1
      000000DEH   SFRSYM    DATA     BYTE      ADCCFG
      000000B8H   SFRSYM    DATA     BYTE      IP
      0000008FH   SFRSYM    DATA     BYTE      INTCLKO
      000000EEH   SFRSYM    DATA     BYTE      IP3H
      000000B6H   SFRSYM    DATA     BYTE      IP2H
      000000A8H   SFRSYM    DATA     BYTE      IE
      000000BBH   SFRSYM    DATA     BYTE      P_SW3
      000000BAH   SFRSYM    DATA     BYTE      P_SW2
      000000A2H   SFRSYM    DATA     BYTE      P_SW1
      000000CEH   SFRSYM    DATA     BYTE      SPCTL
      000000F8H   SFRSYM    DATA     BYTE      P7
      000000E8H   SFRSYM    DATA     BYTE      P6
      000000C8H   SFRSYM    DATA     BYTE      P5
      000000C0H   SFRSYM    DATA     BYTE      P4
      000000B0H   SFRSYM    DATA     BYTE      P3
      000000A0H   SFRSYM    DATA     BYTE      P2
      00000090H   SFRSYM    DATA     BYTE      P1
      00000080H   SFRSYM    DATA     BYTE      P0
      00011FD4H   SYMBOL    XDATA    INT       transfer_device

      ---         MODULE    ---      ---       isr
      00FF9F03H   PUBLIC    CODE     ---       INT0_IRQHandler
      00FF9F43H   PUBLIC    CODE     ---       INT1_IRQHandler
      00FF9F83H   PUBLIC    CODE     ---       INT2_IRQHandler
L251 LINKER/LOCATER V4.66.93.0                                                        05/01/2026  20:21:51  PAGE 130


      00FF9FC3H   PUBLIC    CODE     ---       INT3_IRQHandler
      00FFA003H   PUBLIC    CODE     ---       INT4_IRQHandler
      00FF8B79H   PUBLIC    CODE     ---       DMA_UART1_IRQHandler
      00FF8FF5H   PUBLIC    CODE     ---       DMA_UART2_IRQHandler
      00FF9084H   PUBLIC    CODE     ---       DMA_UART3_IRQHandler
      00FF9113H   PUBLIC    CODE     ---       DMA_UART4_IRQHandler
      00FFA043H   PUBLIC    CODE     ---       TM0_IRQHandler
      00FFA083H   PUBLIC    CODE     ---       TM1_IRQHandler
      00FFA0C3H   PUBLIC    CODE     ---       TM2_IRQHandler
      00FFA103H   PUBLIC    CODE     ---       TM3_IRQHandler
      00FFA143H   PUBLIC    CODE     ---       TM4_IRQHandler
      000000D0H   SFRSYM    DATA     BYTE      PSW
      0000009DH   SFRSYM    DATA     BYTE      IRCBAND
      00000097H   SFRSYM    DATA     BYTE      AUXR2
      000000EFH   SFRSYM    DATA     BYTE      AUXINTIF
      000000FDH   SFRSYM    DATA     BYTE      S4CON
      000000ACH   SFRSYM    DATA     BYTE      S3CON
      0000009AH   SFRSYM    DATA     BYTE      S2CON
      000000B7H   SFRSYM    DATA     BYTE      IPH
      000000CDH   SFRSYM    DATA     BYTE      SPSTAT
      000000DDH   SFRSYM    DATA     BYTE      T4T3M
      000000C1H   SFRSYM    DATA     BYTE      WDT_CONTR
      000000DFH   SFRSYM    DATA     BYTE      IP3
      000000F4H   SFRSYM    DATA     BYTE      USBCON
      000000B5H   SFRSYM    DATA     BYTE      IP2
      000000FFH   SFRSYM    DATA     BYTE      RSTCFG
      000000C7H   SFRSYM    DATA     BYTE      IAP_CONTR
      000000F9H   SFRSYM    DATA     BYTE      LINICR
      0000008EH   SFRSYM    DATA     BYTE      AUXR
      000000AFH   SFRSYM    DATA     BYTE      IE2
      00000088H   SFRSYM    DATA     BYTE      TCON
      00000089H   SFRSYM    DATA     BYTE      TMOD
      00000098H   SFRSYM    DATA     BYTE      SCON
      000000F1H   SFRSYM    DATA     BYTE      CANICR
      00000087H   SFRSYM    DATA     BYTE      PCON
      000000BCH   SFRSYM    DATA     BYTE      ADC_CONTR
      000000E7H   SFRSYM    DATA     BYTE      CMPCR2
      000000E6H   SFRSYM    DATA     BYTE      CMPCR1
      000000DEH   SFRSYM    DATA     BYTE      ADCCFG
      000000B8H   SFRSYM    DATA     BYTE      IP
      0000008FH   SFRSYM    DATA     BYTE      INTCLKO
      000000EEH   SFRSYM    DATA     BYTE      IP3H
      000000B6H   SFRSYM    DATA     BYTE      IP2H
      000000A8H   SFRSYM    DATA     BYTE      IE
      000000BBH   SFRSYM    DATA     BYTE      P_SW3
      000000BAH   SFRSYM    DATA     BYTE      P_SW2
      000000A2H   SFRSYM    DATA     BYTE      P_SW1
      000000CEH   SFRSYM    DATA     BYTE      SPCTL
      000000F8H   SFRSYM    DATA     BYTE      P7
      000000E8H   SFRSYM    DATA     BYTE      P6
      000000C8H   SFRSYM    DATA     BYTE      P5
      000000C0H   SFRSYM    DATA     BYTE      P4
      000000B0H   SFRSYM    DATA     BYTE      P3
      000000A0H   SFRSYM    DATA     BYTE      P2
      00000090H   SFRSYM    DATA     BYTE      P1
      00000080H   SFRSYM    DATA     BYTE      P0

      00FF9F03H   BLOCK     CODE     ---       LVL=0
      00FF9F03H   LINE      CODE     ---       #39
      00FF9F17H   LINE      CODE     ---       #41
      00FF9F1AH   LINE      CODE     ---       #42
      00FF9F26H   LINE      CODE     ---       #44
      00FF9F2EH   LINE      CODE     ---       #45
      ---         BLOCKEND  ---      ---       LVL=0

L251 LINKER/LOCATER V4.66.93.0                                                        05/01/2026  20:21:51  PAGE 131


      00FF9F43H   BLOCK     CODE     ---       LVL=0
      00FF9F43H   LINE      CODE     ---       #49
      00FF9F57H   LINE      CODE     ---       #51
      00FF9F5AH   LINE      CODE     ---       #52
      00FF9F66H   LINE      CODE     ---       #54
      00FF9F6EH   LINE      CODE     ---       #55
      ---         BLOCKEND  ---      ---       LVL=0

      00FF9F83H   BLOCK     CODE     ---       LVL=0
      00FF9F83H   LINE      CODE     ---       #58
      00FF9F97H   LINE      CODE     ---       #60
      00FF9F9AH   LINE      CODE     ---       #61
      00FF9FA6H   LINE      CODE     ---       #63
      00FF9FAEH   LINE      CODE     ---       #64
      ---         BLOCKEND  ---      ---       LVL=0

      00FF9FC3H   BLOCK     CODE     ---       LVL=0
      00FF9FC3H   LINE      CODE     ---       #66
      00FF9FD7H   LINE      CODE     ---       #68
      00FF9FDAH   LINE      CODE     ---       #69
      00FF9FE6H   LINE      CODE     ---       #71
      00FF9FEEH   LINE      CODE     ---       #72
      ---         BLOCKEND  ---      ---       LVL=0

      00FFA003H   BLOCK     CODE     ---       LVL=0
      00FFA003H   LINE      CODE     ---       #75
      00FFA017H   LINE      CODE     ---       #77
      00FFA01AH   LINE      CODE     ---       #78
      00FFA026H   LINE      CODE     ---       #80
      00FFA02EH   LINE      CODE     ---       #81
      ---         BLOCKEND  ---      ---       LVL=0

      00FF8B79H   BLOCK     CODE     ---       LVL=0
      00FF8B8DH   BLOCK     CODE     NEAR LAB  LVL=1
      00011FEEH   SYMBOL    XDATA    BYTE      dwon_count
      ---         BLOCKEND  ---      ---       LVL=1
      00FF8B79H   LINE      CODE     ---       #85
      00FF8B8DH   LINE      CODE     ---       #86
      00FF8B8DH   LINE      CODE     ---       #89
      00FF8B9BH   LINE      CODE     ---       #91
      00FF8BADH   LINE      CODE     ---       #92
      00FF8BB2H   LINE      CODE     ---       #95
      00FF8BBBH   LINE      CODE     ---       #97
      00FF8BCCH   LINE      CODE     ---       #99
      00FF8BD0H   LINE      CODE     ---       #100
      00FF8BD2H   LINE      CODE     ---       #104
      00FF8BD7H   LINE      CODE     ---       #105
      00FF8BD7H   LINE      CODE     ---       #107
      00FF8BE3H   LINE      CODE     ---       #109
      00FF8BEFH   LINE      CODE     ---       #110
      00FF8BEFH   LINE      CODE     ---       #113
      00FF8BFDH   LINE      CODE     ---       #115
      00FF8C0FH   LINE      CODE     ---       #116
      00FF8C14H   LINE      CODE     ---       #120
      ---         BLOCKEND  ---      ---       LVL=0

      00FF8FF5H   BLOCK     CODE     ---       LVL=0
      00FF8FF5H   LINE      CODE     ---       #123
      00FF9009H   LINE      CODE     ---       #125
      00FF9017H   LINE      CODE     ---       #127
      00FF9029H   LINE      CODE     ---       #128
      00FF9030H   LINE      CODE     ---       #130
      00FF903CH   LINE      CODE     ---       #132
      00FF9048H   LINE      CODE     ---       #133
      00FF9048H   LINE      CODE     ---       #136
L251 LINKER/LOCATER V4.66.93.0                                                        05/01/2026  20:21:51  PAGE 132


      00FF9056H   LINE      CODE     ---       #138
      00FF9068H   LINE      CODE     ---       #139
      00FF906FH   LINE      CODE     ---       #143
      ---         BLOCKEND  ---      ---       LVL=0

      00FF9084H   BLOCK     CODE     ---       LVL=0
      00FF9084H   LINE      CODE     ---       #146
      00FF9098H   LINE      CODE     ---       #148
      00FF90A6H   LINE      CODE     ---       #150
      00FF90B8H   LINE      CODE     ---       #151
      00FF90BFH   LINE      CODE     ---       #153
      00FF90CBH   LINE      CODE     ---       #155
      00FF90D7H   LINE      CODE     ---       #156
      00FF90D7H   LINE      CODE     ---       #159
      00FF90E5H   LINE      CODE     ---       #161
      00FF90F7H   LINE      CODE     ---       #162
      00FF90FEH   LINE      CODE     ---       #166
      ---         BLOCKEND  ---      ---       LVL=0

      00FF9113H   BLOCK     CODE     ---       LVL=0
      00FF9113H   LINE      CODE     ---       #169
      00FF9127H   LINE      CODE     ---       #171
      00FF9135H   LINE      CODE     ---       #173
      00FF9147H   LINE      CODE     ---       #174
      00FF914EH   LINE      CODE     ---       #176
      00FF915AH   LINE      CODE     ---       #178
      00FF9166H   LINE      CODE     ---       #179
      00FF9166H   LINE      CODE     ---       #182
      00FF9174H   LINE      CODE     ---       #184
      00FF9186H   LINE      CODE     ---       #185
      00FF918DH   LINE      CODE     ---       #189
      ---         BLOCKEND  ---      ---       LVL=0

      00FFA043H   BLOCK     CODE     ---       LVL=0
      00FFA043H   LINE      CODE     ---       #192
      00FFA057H   LINE      CODE     ---       #194
      00FFA05AH   LINE      CODE     ---       #196
      00FFA066H   LINE      CODE     ---       #198
      00FFA06EH   LINE      CODE     ---       #199
      ---         BLOCKEND  ---      ---       LVL=0

      00FFA083H   BLOCK     CODE     ---       LVL=0
      00FFA083H   LINE      CODE     ---       #202
      00FFA097H   LINE      CODE     ---       #204
      00FFA09AH   LINE      CODE     ---       #206
      00FFA0A6H   LINE      CODE     ---       #208
      00FFA0AEH   LINE      CODE     ---       #209
      ---         BLOCKEND  ---      ---       LVL=0

      00FFA0C3H   BLOCK     CODE     ---       LVL=0
      00FFA0C3H   LINE      CODE     ---       #212
      00FFA0D7H   LINE      CODE     ---       #214
      00FFA0DAH   LINE      CODE     ---       #216
      00FFA0E6H   LINE      CODE     ---       #218
      00FFA0EEH   LINE      CODE     ---       #219
      ---         BLOCKEND  ---      ---       LVL=0

      00FFA103H   BLOCK     CODE     ---       LVL=0
      00FFA103H   LINE      CODE     ---       #222
      00FFA117H   LINE      CODE     ---       #224
      00FFA11AH   LINE      CODE     ---       #226
      00FFA126H   LINE      CODE     ---       #228
      00FFA12EH   LINE      CODE     ---       #229
      ---         BLOCKEND  ---      ---       LVL=0

L251 LINKER/LOCATER V4.66.93.0                                                        05/01/2026  20:21:51  PAGE 133


      00FFA143H   BLOCK     CODE     ---       LVL=0
      00FFA143H   LINE      CODE     ---       #232
      00FFA157H   LINE      CODE     ---       #234
      00FFA15AH   LINE      CODE     ---       #236
      00FFA166H   LINE      CODE     ---       #238
      00FFA16EH   LINE      CODE     ---       #239
      ---         BLOCKEND  ---      ---       LVL=0

      ---         MODULE    ---      ---       main
      00FFA30EH   PUBLIC    CODE     ---       main
      00FF77B2H   PUBLIC    CODE     ---       _m
      00011A59H   PUBLIC    XDATA    WORD      state
      00011A5BH   PUBLIC    XDATA    ---       ADC
      000000D0H   SFRSYM    DATA     BYTE      PSW
      0000009DH   SFRSYM    DATA     BYTE      IRCBAND
      00000097H   SFRSYM    DATA     BYTE      AUXR2
      000000EFH   SFRSYM    DATA     BYTE      AUXINTIF
      000000FDH   SFRSYM    DATA     BYTE      S4CON
      000000ACH   SFRSYM    DATA     BYTE      S3CON
      0000009AH   SFRSYM    DATA     BYTE      S2CON
      000000B7H   SFRSYM    DATA     BYTE      IPH
      000000CDH   SFRSYM    DATA     BYTE      SPSTAT
      000000DDH   SFRSYM    DATA     BYTE      T4T3M
      000000C1H   SFRSYM    DATA     BYTE      WDT_CONTR
      000000DFH   SFRSYM    DATA     BYTE      IP3
      000000F4H   SFRSYM    DATA     BYTE      USBCON
      000000B5H   SFRSYM    DATA     BYTE      IP2
      000000FFH   SFRSYM    DATA     BYTE      RSTCFG
      000000C7H   SFRSYM    DATA     BYTE      IAP_CONTR
      000000F9H   SFRSYM    DATA     BYTE      LINICR
      0000008EH   SFRSYM    DATA     BYTE      AUXR
      000000AFH   SFRSYM    DATA     BYTE      IE2
      000000F8H.7 SFRSYM    DATA     BIT       P77
      00000088H   SFRSYM    DATA     BYTE      TCON
      00000089H   SFRSYM    DATA     BYTE      TMOD
      00000098H   SFRSYM    DATA     BYTE      SCON
      000000F1H   SFRSYM    DATA     BYTE      CANICR
      00000087H   SFRSYM    DATA     BYTE      PCON
      000000BCH   SFRSYM    DATA     BYTE      ADC_CONTR
      000000E7H   SFRSYM    DATA     BYTE      CMPCR2
      000000E6H   SFRSYM    DATA     BYTE      CMPCR1
      000000DEH   SFRSYM    DATA     BYTE      ADCCFG
      000000B8H   SFRSYM    DATA     BYTE      IP
      0000008FH   SFRSYM    DATA     BYTE      INTCLKO
      000000EEH   SFRSYM    DATA     BYTE      IP3H
      000000B6H   SFRSYM    DATA     BYTE      IP2H
      000000A8H   SFRSYM    DATA     BYTE      IE
      000000BBH   SFRSYM    DATA     BYTE      P_SW3
      000000BAH   SFRSYM    DATA     BYTE      P_SW2
      000000A2H   SFRSYM    DATA     BYTE      P_SW1
      000000CEH   SFRSYM    DATA     BYTE      SPCTL
      000000F8H   SFRSYM    DATA     BYTE      P7
      000000E8H   SFRSYM    DATA     BYTE      P6
      000000C8H   SFRSYM    DATA     BYTE      P5
      000000C0H   SFRSYM    DATA     BYTE      P4
      000000B0H   SFRSYM    DATA     BYTE      P3
      000000A0H   SFRSYM    DATA     BYTE      P2
      00000090H   SFRSYM    DATA     BYTE      P1
      00000080H   SFRSYM    DATA     BYTE      P0

      00FFA30EH   BLOCK     CODE     ---       LVL=0
      00FFA30EH   LINE      CODE     ---       #4
      ---         BLOCKEND  ---      ---       LVL=0

      00FF77B2H   BLOCK     CODE     ---       LVL=0
L251 LINKER/LOCATER V4.66.93.0                                                        05/01/2026  20:21:51  PAGE 134


      00FF77B2H   LINE      CODE     ---       #4
      00FF77B2H   LINE      CODE     ---       #6
      00FF77BDH   LINE      CODE     ---       #7
      00FF77C0H   LINE      CODE     ---       #8
      00FF77C3H   LINE      CODE     ---       #9
      00FF7824H   LINE      CODE     ---       #10
      00FF7883H   LINE      CODE     ---       #11
      00FF78EAH   LINE      CODE     ---       #12
      00FF78FAH   LINE      CODE     ---       #14
      00FF78FDH   LINE      CODE     ---       #15
      00FF7904H   LINE      CODE     ---       #16
      00FF7907H   LINE      CODE     ---       #17
      00FF790EH   LINE      CODE     ---       #18
      00FF7911H   LINE      CODE     ---       #19
      00FF7911H   LINE      CODE     ---       #23
      00FF791CH   LINE      CODE     ---       #33
      00FF791EH   LINE      CODE     ---       #36
      ---         BLOCKEND  ---      ---       LVL=0

      ---         MODULE    ---      ---       all_init
      00FF9843H   PUBLIC    CODE     ---       ALL_init
      000000D0H   SFRSYM    DATA     BYTE      PSW
      0000009DH   SFRSYM    DATA     BYTE      IRCBAND
      00000097H   SFRSYM    DATA     BYTE      AUXR2
      000000EFH   SFRSYM    DATA     BYTE      AUXINTIF
      000000FDH   SFRSYM    DATA     BYTE      S4CON
      000000ACH   SFRSYM    DATA     BYTE      S3CON
      0000009AH   SFRSYM    DATA     BYTE      S2CON
      000000B7H   SFRSYM    DATA     BYTE      IPH
      000000CDH   SFRSYM    DATA     BYTE      SPSTAT
      000000DDH   SFRSYM    DATA     BYTE      T4T3M
      000000C1H   SFRSYM    DATA     BYTE      WDT_CONTR
      000000DFH   SFRSYM    DATA     BYTE      IP3
      000000F4H   SFRSYM    DATA     BYTE      USBCON
      000000B5H   SFRSYM    DATA     BYTE      IP2
      000000FFH   SFRSYM    DATA     BYTE      RSTCFG
      000000C7H   SFRSYM    DATA     BYTE      IAP_CONTR
      000000F9H   SFRSYM    DATA     BYTE      LINICR
      0000008EH   SFRSYM    DATA     BYTE      AUXR
      000000AFH   SFRSYM    DATA     BYTE      IE2
      00000088H   SFRSYM    DATA     BYTE      TCON
      00000089H   SFRSYM    DATA     BYTE      TMOD
      00000098H   SFRSYM    DATA     BYTE      SCON
      000000F1H   SFRSYM    DATA     BYTE      CANICR
      00000087H   SFRSYM    DATA     BYTE      PCON
      000000BCH   SFRSYM    DATA     BYTE      ADC_CONTR
      000000E7H   SFRSYM    DATA     BYTE      CMPCR2
      000000E6H   SFRSYM    DATA     BYTE      CMPCR1
      000000DEH   SFRSYM    DATA     BYTE      ADCCFG
      000000B8H   SFRSYM    DATA     BYTE      IP
      0000008FH   SFRSYM    DATA     BYTE      INTCLKO
      000000EEH   SFRSYM    DATA     BYTE      IP3H
      000000B6H   SFRSYM    DATA     BYTE      IP2H
      000000A8H   SFRSYM    DATA     BYTE      IE
      000000BBH   SFRSYM    DATA     BYTE      P_SW3
      000000BAH   SFRSYM    DATA     BYTE      P_SW2
      000000A2H   SFRSYM    DATA     BYTE      P_SW1
      000000CEH   SFRSYM    DATA     BYTE      SPCTL
      000000F8H   SFRSYM    DATA     BYTE      P7
      000000E8H   SFRSYM    DATA     BYTE      P6
      000000C8H   SFRSYM    DATA     BYTE      P5
      000000C0H   SFRSYM    DATA     BYTE      P4
      000000B0H   SFRSYM    DATA     BYTE      P3
      000000A0H   SFRSYM    DATA     BYTE      P2
      00000090H   SFRSYM    DATA     BYTE      P1
L251 LINKER/LOCATER V4.66.93.0                                                        05/01/2026  20:21:51  PAGE 135


      00000080H   SFRSYM    DATA     BYTE      P0

      00FF9843H   BLOCK     CODE     ---       LVL=0
      00FF9843H   LINE      CODE     ---       #2
      00FF9843H   LINE      CODE     ---       #4
      00FF9846H   LINE      CODE     ---       #5
      00FF9849H   LINE      CODE     ---       #6
      00FF984CH   LINE      CODE     ---       #7
      00FF9863H   LINE      CODE     ---       #8
      00FF987AH   LINE      CODE     ---       #11
      00FF988AH   LINE      CODE     ---       #12
      00FF989BH   LINE      CODE     ---       #13
      00FF989EH   LINE      CODE     ---       #14
      00FF98A1H   LINE      CODE     ---       #15
      00FF98A4H   LINE      CODE     ---       #16
      00FF98A7H   LINE      CODE     ---       #17
      00FF98AAH   LINE      CODE     ---       #18
      00FF98ADH   LINE      CODE     ---       #19
      00FF98B0H   LINE      CODE     ---       #20
      00FF98B3H   LINE      CODE     ---       #21
      ---         BLOCKEND  ---      ---       LVL=0

      ---         MODULE    ---      ---       encoder
      00FF9CA6H   PUBLIC    CODE     ---       pit_handler
      00FF9D02H   PUBLIC    CODE     ---       pit_handler4
      00FF9924H   PUBLIC    CODE     ---       encoder_init
      00011A65H   PUBLIC    XDATA    ---       adc_inductance
      00011A6FH   PUBLIC    XDATA    WORD      imu_cnt
      000000D0H   SFRSYM    DATA     BYTE      PSW
      0000009DH   SFRSYM    DATA     BYTE      IRCBAND
      00000097H   SFRSYM    DATA     BYTE      AUXR2
      000000EFH   SFRSYM    DATA     BYTE      AUXINTIF
      000000FDH   SFRSYM    DATA     BYTE      S4CON
      000000ACH   SFRSYM    DATA     BYTE      S3CON
      0000009AH   SFRSYM    DATA     BYTE      S2CON
      000000B7H   SFRSYM    DATA     BYTE      IPH
      000000CDH   SFRSYM    DATA     BYTE      SPSTAT
      000000DDH   SFRSYM    DATA     BYTE      T4T3M
      000000C1H   SFRSYM    DATA     BYTE      WDT_CONTR
      000000DFH   SFRSYM    DATA     BYTE      IP3
      000000F4H   SFRSYM    DATA     BYTE      USBCON
      000000B5H   SFRSYM    DATA     BYTE      IP2
      000000FFH   SFRSYM    DATA     BYTE      RSTCFG
      000000C7H   SFRSYM    DATA     BYTE      IAP_CONTR
      000000F9H   SFRSYM    DATA     BYTE      LINICR
      0000008EH   SFRSYM    DATA     BYTE      AUXR
      000000AFH   SFRSYM    DATA     BYTE      IE2
      00000088H   SFRSYM    DATA     BYTE      TCON
      00000089H   SFRSYM    DATA     BYTE      TMOD
      00000098H   SFRSYM    DATA     BYTE      SCON
      000000F1H   SFRSYM    DATA     BYTE      CANICR
      00000087H   SFRSYM    DATA     BYTE      PCON
      000000BCH   SFRSYM    DATA     BYTE      ADC_CONTR
      000000E7H   SFRSYM    DATA     BYTE      CMPCR2
      000000E6H   SFRSYM    DATA     BYTE      CMPCR1
      000000DEH   SFRSYM    DATA     BYTE      ADCCFG
      000000B8H   SFRSYM    DATA     BYTE      IP
      0000008FH   SFRSYM    DATA     BYTE      INTCLKO
      000000EEH   SFRSYM    DATA     BYTE      IP3H
      000000B6H   SFRSYM    DATA     BYTE      IP2H
      000000A8H   SFRSYM    DATA     BYTE      IE
      000000BBH   SFRSYM    DATA     BYTE      P_SW3
      000000BAH   SFRSYM    DATA     BYTE      P_SW2
      000000A2H   SFRSYM    DATA     BYTE      P_SW1
      000000CEH   SFRSYM    DATA     BYTE      SPCTL
L251 LINKER/LOCATER V4.66.93.0                                                        05/01/2026  20:21:51  PAGE 136


      000000F8H   SFRSYM    DATA     BYTE      P7
      000000E8H   SFRSYM    DATA     BYTE      P6
      000000C8H   SFRSYM    DATA     BYTE      P5
      000000C0H   SFRSYM    DATA     BYTE      P4
      000000B0H   SFRSYM    DATA     BYTE      P3
      000000A0H   SFRSYM    DATA     BYTE      P2
      00000090H   SFRSYM    DATA     BYTE      P1
      00000080H   SFRSYM    DATA     BYTE      P0

      00FF9924H   BLOCK     CODE     ---       LVL=0
      00FF9924H   LINE      CODE     ---       #20
      00FF9924H   LINE      CODE     ---       #22
      00FF992EH   LINE      CODE     ---       #23
      00FF9938H   LINE      CODE     ---       #24
      00FF9956H   LINE      CODE     ---       #25
      00FF9976H   LINE      CODE     ---       #27
      00FF9983H   LINE      CODE     ---       #28
      00FF9992H   LINE      CODE     ---       #29
      ---         BLOCKEND  ---      ---       LVL=0

      00FF9CA6H   BLOCK     CODE     ---       LVL=0
      00FF9CA6H   LINE      CODE     ---       #31
      00FF9CA6H   LINE      CODE     ---       #35
      00FF9CB5H   LINE      CODE     ---       #36
      00FF9CC3H   LINE      CODE     ---       #38
      00FF9CCEH   LINE      CODE     ---       #39
      00FF9CF3H   LINE      CODE     ---       #40
      00FF9CF6H   LINE      CODE     ---       #41
      00FF9CF9H   LINE      CODE     ---       #42
      00FF9D01H   LINE      CODE     ---       #44
      ---         BLOCKEND  ---      ---       LVL=0

      00FF9D02H   BLOCK     CODE     ---       LVL=0
      00FF9D02H   LINE      CODE     ---       #48
      00FF9D02H   LINE      CODE     ---       #50
      00FF9D05H   LINE      CODE     ---       #51
      00FF9D1FH   LINE      CODE     ---       #53
      00FF9D1FH   LINE      CODE     ---       #54
      00FF9D31H   LINE      CODE     ---       #55
      00FF9D33H   LINE      CODE     ---       #56
      00FF9D33H   LINE      CODE     ---       #57
      00FF9D3FH   LINE      CODE     ---       #58
      00FF9D41H   LINE      CODE     ---       #59
      00FF9D41H   LINE      CODE     ---       #60
      00FF9D4DH   LINE      CODE     ---       #61
      00FF9D4FH   LINE      CODE     ---       #62
      00FF9D4FH   LINE      CODE     ---       #63
      00FF9D5BH   LINE      CODE     ---       #64
      00FF9D5BH   LINE      CODE     ---       #65
      00FF9D5BH   LINE      CODE     ---       #66
      ---         BLOCKEND  ---      ---       LVL=0

      ---         MODULE    ---      ---       moto
      00FF91A2H   PUBLIC    CODE     ---       Motor_SetSpeed
      00FFA362H   PUBLIC    CODE     ---       ABS
      000000D0H   SFRSYM    DATA     BYTE      PSW
      0000009DH   SFRSYM    DATA     BYTE      IRCBAND
      00000097H   SFRSYM    DATA     BYTE      AUXR2
      000000EFH   SFRSYM    DATA     BYTE      AUXINTIF
      000000FDH   SFRSYM    DATA     BYTE      S4CON
      000000ACH   SFRSYM    DATA     BYTE      S3CON
      0000009AH   SFRSYM    DATA     BYTE      S2CON
      000000B7H   SFRSYM    DATA     BYTE      IPH
      000000CDH   SFRSYM    DATA     BYTE      SPSTAT
      000000DDH   SFRSYM    DATA     BYTE      T4T3M
L251 LINKER/LOCATER V4.66.93.0                                                        05/01/2026  20:21:51  PAGE 137


      000000C1H   SFRSYM    DATA     BYTE      WDT_CONTR
      000000DFH   SFRSYM    DATA     BYTE      IP3
      000000F4H   SFRSYM    DATA     BYTE      USBCON
      000000B5H   SFRSYM    DATA     BYTE      IP2
      000000FFH   SFRSYM    DATA     BYTE      RSTCFG
      000000C7H   SFRSYM    DATA     BYTE      IAP_CONTR
      000000F9H   SFRSYM    DATA     BYTE      LINICR
      0000008EH   SFRSYM    DATA     BYTE      AUXR
      000000AFH   SFRSYM    DATA     BYTE      IE2
      00000088H   SFRSYM    DATA     BYTE      TCON
      00000089H   SFRSYM    DATA     BYTE      TMOD
      00000098H   SFRSYM    DATA     BYTE      SCON
      000000F1H   SFRSYM    DATA     BYTE      CANICR
      00000087H   SFRSYM    DATA     BYTE      PCON
      000000BCH   SFRSYM    DATA     BYTE      ADC_CONTR
      000000E7H   SFRSYM    DATA     BYTE      CMPCR2
      000000E6H   SFRSYM    DATA     BYTE      CMPCR1
      000000DEH   SFRSYM    DATA     BYTE      ADCCFG
      000000B8H   SFRSYM    DATA     BYTE      IP
      0000008FH   SFRSYM    DATA     BYTE      INTCLKO
      000000EEH   SFRSYM    DATA     BYTE      IP3H
      000000B6H   SFRSYM    DATA     BYTE      IP2H
      000000A8H   SFRSYM    DATA     BYTE      IE
      000000BBH   SFRSYM    DATA     BYTE      P_SW3
      000000BAH   SFRSYM    DATA     BYTE      P_SW2
      000000A2H   SFRSYM    DATA     BYTE      P_SW1
      000000CEH   SFRSYM    DATA     BYTE      SPCTL
      000000F8H   SFRSYM    DATA     BYTE      P7
      000000E8H   SFRSYM    DATA     BYTE      P6
      000000C8H   SFRSYM    DATA     BYTE      P5
      000000C0H   SFRSYM    DATA     BYTE      P4
      000000B0H   SFRSYM    DATA     BYTE      P3
      000000A0H   SFRSYM    DATA     BYTE      P2
      00000090H   SFRSYM    DATA     BYTE      P1
      00000080H   SFRSYM    DATA     BYTE      P0

      00FFA362H   BLOCK     CODE     ---       LVL=0
      00011FD6H   SYMBOL    XDATA    INT       P
      00FFA362H   LINE      CODE     ---       #2
      00FFA368H   LINE      CODE     ---       #4
      00FFA374H   LINE      CODE     ---       #5
      00FFA37CH   LINE      CODE     ---       #7
      00FFA388H   LINE      CODE     ---       #8
      ---         BLOCKEND  ---      ---       LVL=0

      00FF91A2H   BLOCK     CODE     ---       LVL=0
      00011F62H   SYMBOL    XDATA    INT       speed_left
      00011F64H   SYMBOL    XDATA    INT       speed_right
      00FF91A2H   LINE      CODE     ---       #10
      00FF91AEH   LINE      CODE     ---       #13
      00FF91BAH   LINE      CODE     ---       #15
      00FF91C2H   LINE      CODE     ---       #16
      00FF91C4H   LINE      CODE     ---       #17
      00FF91D0H   LINE      CODE     ---       #19
      00FF91D9H   LINE      CODE     ---       #20
      00FF91D9H   LINE      CODE     ---       #23
      00FF91E5H   LINE      CODE     ---       #25
      00FF91EDH   LINE      CODE     ---       #26
      00FF91EFH   LINE      CODE     ---       #27
      00FF91FBH   LINE      CODE     ---       #29
      00FF9204H   LINE      CODE     ---       #30
      00FF9204H   LINE      CODE     ---       #32
      00FF9218H   LINE      CODE     ---       #34
      00FF922CH   LINE      CODE     ---       #35
      ---         BLOCKEND  ---      ---       LVL=0
L251 LINKER/LOCATER V4.66.93.0                                                        05/01/2026  20:21:51  PAGE 138


      00011E4DH   SYMBOL    XDATA    ---       inductance_norm_data
      00011E51H   SYMBOL    XDATA    WORD      sum

      ---         MODULE    ---      ---       led
      00FFA468H   PUBLIC    CODE     ---       LED_Init
      000000D0H   SFRSYM    DATA     BYTE      PSW
      0000009DH   SFRSYM    DATA     BYTE      IRCBAND
      00000097H   SFRSYM    DATA     BYTE      AUXR2
      000000EFH   SFRSYM    DATA     BYTE      AUXINTIF
      000000FDH   SFRSYM    DATA     BYTE      S4CON
      000000ACH   SFRSYM    DATA     BYTE      S3CON
      0000009AH   SFRSYM    DATA     BYTE      S2CON
      000000B7H   SFRSYM    DATA     BYTE      IPH
      000000CDH   SFRSYM    DATA     BYTE      SPSTAT
      000000DDH   SFRSYM    DATA     BYTE      T4T3M
      000000C1H   SFRSYM    DATA     BYTE      WDT_CONTR
      000000DFH   SFRSYM    DATA     BYTE      IP3
      000000F4H   SFRSYM    DATA     BYTE      USBCON
      000000B5H   SFRSYM    DATA     BYTE      IP2
      000000FFH   SFRSYM    DATA     BYTE      RSTCFG
      000000C7H   SFRSYM    DATA     BYTE      IAP_CONTR
      000000F9H   SFRSYM    DATA     BYTE      LINICR
      0000008EH   SFRSYM    DATA     BYTE      AUXR
      000000AFH   SFRSYM    DATA     BYTE      IE2
      00000088H   SFRSYM    DATA     BYTE      TCON
      00000089H   SFRSYM    DATA     BYTE      TMOD
      00000098H   SFRSYM    DATA     BYTE      SCON
      000000F1H   SFRSYM    DATA     BYTE      CANICR
      00000087H   SFRSYM    DATA     BYTE      PCON
      000000BCH   SFRSYM    DATA     BYTE      ADC_CONTR
      000000E7H   SFRSYM    DATA     BYTE      CMPCR2
      000000E6H   SFRSYM    DATA     BYTE      CMPCR1
      000000DEH   SFRSYM    DATA     BYTE      ADCCFG
      000000B8H   SFRSYM    DATA     BYTE      IP
      0000008FH   SFRSYM    DATA     BYTE      INTCLKO
      000000EEH   SFRSYM    DATA     BYTE      IP3H
      000000B6H   SFRSYM    DATA     BYTE      IP2H
      000000A8H   SFRSYM    DATA     BYTE      IE
      000000BBH   SFRSYM    DATA     BYTE      P_SW3
      000000BAH   SFRSYM    DATA     BYTE      P_SW2
      000000A2H   SFRSYM    DATA     BYTE      P_SW1
      000000CEH   SFRSYM    DATA     BYTE      SPCTL
      000000F8H   SFRSYM    DATA     BYTE      P7
      000000E8H   SFRSYM    DATA     BYTE      P6
      000000C8H   SFRSYM    DATA     BYTE      P5
      000000C0H   SFRSYM    DATA     BYTE      P4
      000000B0H   SFRSYM    DATA     BYTE      P3
      000000A0H   SFRSYM    DATA     BYTE      P2
      00000090H   SFRSYM    DATA     BYTE      P1
      00000080H   SFRSYM    DATA     BYTE      P0

      00FFA468H   BLOCK     CODE     ---       LVL=0
      00FFA468H   LINE      CODE     ---       #19
      00FFA468H   LINE      CODE     ---       #21
      00FFA479H   LINE      CODE     ---       #22
      00FFA48AH   LINE      CODE     ---       #23
      ---         BLOCKEND  ---      ---       LVL=0
      00011FD8H   SYMBOL    XDATA    INT       pin
      00011FDAH   SYMBOL    XDATA    INT       pin
      00011FDCH   SYMBOL    XDATA    INT       pin

      ---         MODULE    ---      ---       trank
      00FF791FH   PUBLIC    CODE     ---       Calculate_Differential_Drive
      00FF62D0H   PUBLIC    CODE     ---       PID_Calc
      00FF92B6H   PUBLIC    CODE     ---       Dual_Loop_Control
L251 LINKER/LOCATER V4.66.93.0                                                        05/01/2026  20:21:51  PAGE 139


      00FF650DH   PUBLIC    CODE     ---       IncPID_Calc
      00FF70F7H   PUBLIC    CODE     ---       PID_Init
      00FF9447H   PUBLIC    CODE     ---       Dir_Control
      00010711H   PUBLIC    XDATA    FLOAT     eleOut_0
      00010715H   PUBLIC    XDATA    FLOAT     eleOut_1
      00010719H   PUBLIC    XDATA    LONG      speed_right
      0001071DH   PUBLIC    XDATA    FLOAT     Turn_target
      00010721H   PUBLIC    XDATA    LONG      speed_left
      00010725H   PUBLIC    XDATA    ---       right_spid
      00010769H   PUBLIC    XDATA    FLOAT     eleValue
      0001076DH   PUBLIC    XDATA    ---       left_spid
      000107B1H   PUBLIC    XDATA    INT       Gyro_Z
      000107B3H   PUBLIC    XDATA    ---       Gyro_PID
      000107F7H   PUBLIC    XDATA    ---       Turn_PID
      0001083BH   PUBLIC    XDATA    FLOAT     elemid
      00011355H   PUBLIC    XDATA    BYTE      ?PID_Init?BYTE
      00011A71H   PUBLIC    XDATA    BYTE      ?PID_Calc?BYTE
      000000D0H   SFRSYM    DATA     BYTE      PSW
      0000009DH   SFRSYM    DATA     BYTE      IRCBAND
      00000097H   SFRSYM    DATA     BYTE      AUXR2
      000000EFH   SFRSYM    DATA     BYTE      AUXINTIF
      000000FDH   SFRSYM    DATA     BYTE      S4CON
      000000ACH   SFRSYM    DATA     BYTE      S3CON
      0000009AH   SFRSYM    DATA     BYTE      S2CON
      000000B7H   SFRSYM    DATA     BYTE      IPH
      000000CDH   SFRSYM    DATA     BYTE      SPSTAT
      000000DDH   SFRSYM    DATA     BYTE      T4T3M
      000000C1H   SFRSYM    DATA     BYTE      WDT_CONTR
      000000DFH   SFRSYM    DATA     BYTE      IP3
      000000F4H   SFRSYM    DATA     BYTE      USBCON
      000000B5H   SFRSYM    DATA     BYTE      IP2
      000000FFH   SFRSYM    DATA     BYTE      RSTCFG
      000000C7H   SFRSYM    DATA     BYTE      IAP_CONTR
      000000F9H   SFRSYM    DATA     BYTE      LINICR
      0000008EH   SFRSYM    DATA     BYTE      AUXR
      000000AFH   SFRSYM    DATA     BYTE      IE2
      00000088H   SFRSYM    DATA     BYTE      TCON
      00000089H   SFRSYM    DATA     BYTE      TMOD
      00000098H   SFRSYM    DATA     BYTE      SCON
      000000F1H   SFRSYM    DATA     BYTE      CANICR
      00000087H   SFRSYM    DATA     BYTE      PCON
      000000BCH   SFRSYM    DATA     BYTE      ADC_CONTR
      000000E7H   SFRSYM    DATA     BYTE      CMPCR2
      000000E6H   SFRSYM    DATA     BYTE      CMPCR1
      000000DEH   SFRSYM    DATA     BYTE      ADCCFG
      000000B8H   SFRSYM    DATA     BYTE      IP
      0000008FH   SFRSYM    DATA     BYTE      INTCLKO
      000000EEH   SFRSYM    DATA     BYTE      IP3H
      000000B6H   SFRSYM    DATA     BYTE      IP2H
      000000A8H   SFRSYM    DATA     BYTE      IE
      000000BBH   SFRSYM    DATA     BYTE      P_SW3
      000000BAH   SFRSYM    DATA     BYTE      P_SW2
      000000A2H   SFRSYM    DATA     BYTE      P_SW1
      000000CEH   SFRSYM    DATA     BYTE      SPCTL
      000000F8H   SFRSYM    DATA     BYTE      P7
      000000E8H   SFRSYM    DATA     BYTE      P6
      000000C8H   SFRSYM    DATA     BYTE      P5
      000000C0H   SFRSYM    DATA     BYTE      P4
      000000B0H   SFRSYM    DATA     BYTE      P3
      000000A0H   SFRSYM    DATA     BYTE      P2
      00000090H   SFRSYM    DATA     BYTE      P1
      00000080H   SFRSYM    DATA     BYTE      P0

      00FF70F7H   BLOCK     CODE     ---       LVL=0
      00011355H   SYMBOL    XDATA    ---       pid
L251 LINKER/LOCATER V4.66.93.0                                                        05/01/2026  20:21:51  PAGE 140


      00011359H   SYMBOL    XDATA    FLOAT     kp
      0001135DH   SYMBOL    XDATA    FLOAT     kp2
      00011361H   SYMBOL    XDATA    FLOAT     ki
      00011365H   SYMBOL    XDATA    FLOAT     kd
      00011369H   SYMBOL    XDATA    FLOAT     max_out
      0001136DH   SYMBOL    XDATA    FLOAT     max_i
      00FF70F7H   LINE      CODE     ---       #28
      00FF710BH   LINE      CODE     ---       #30
      00FF7126H   LINE      CODE     ---       #31
      00FF7145H   LINE      CODE     ---       #33
      00FF7162H   LINE      CODE     ---       #34
      00FF7181H   LINE      CODE     ---       #35
      00FF71A1H   LINE      CODE     ---       #36
      00FF71C1H   LINE      CODE     ---       #38
      00FF71D8H   LINE      CODE     ---       #39
      00FF71EFH   LINE      CODE     ---       #40
      00FF7206H   LINE      CODE     ---       #41
      00FF721DH   LINE      CODE     ---       #42
      00FF7234H   LINE      CODE     ---       #43
      00FF724BH   LINE      CODE     ---       #44
      00FF7262H   LINE      CODE     ---       #45
      00FF7279H   LINE      CODE     ---       #46
      00FF7290H   LINE      CODE     ---       #47
      00FF72A7H   LINE      CODE     ---       #48
      00FF72BEH   LINE      CODE     ---       #51
      ---         BLOCKEND  ---      ---       LVL=0

      00FF62D0H   BLOCK     CODE     ---       LVL=0
      00011A71H   SYMBOL    XDATA    ---       pid
      00011A75H   SYMBOL    XDATA    FLOAT     target
      00011A79H   SYMBOL    XDATA    FLOAT     measure
      00FF62D0H   LINE      CODE     ---       #56
      00FF62E4H   LINE      CODE     ---       #58
      00FF6308H   LINE      CODE     ---       #59
      00FF6327H   LINE      CODE     ---       #62
      00FF6370H   LINE      CODE     ---       #65
      00FF63B0H   LINE      CODE     ---       #66
      00FF6413H   LINE      CODE     ---       #69
      00FF6471H   LINE      CODE     ---       #73
      00FF64CDH   LINE      CODE     ---       #75
      00FF64F7H   LINE      CODE     ---       #77
      00FF650CH   LINE      CODE     ---       #78
      ---         BLOCKEND  ---      ---       LVL=0

      00FF9447H   BLOCK     CODE     ---       LVL=0
      0001083FH   SYMBOL    XDATA    INT       t
      00FF9447H   LINE      CODE     ---       #83
      00FF9447H   LINE      CODE     ---       #84
      00FF9447H   LINE      CODE     ---       #86
      00FF945EH   LINE      CODE     ---       #88
      00FF9466H   LINE      CODE     ---       #90
      00FF9499H   LINE      CODE     ---       #92
      00FF94CAH   LINE      CODE     ---       #93
      ---         BLOCKEND  ---      ---       LVL=0

      00FF791FH   BLOCK     CODE     ---       LVL=0
      00011F66H   SYMBOL    XDATA    FLOAT     k
      00FF791FH   LINE      CODE     ---       #96
      00FF791FH   LINE      CODE     ---       #97
      00FF791FH   LINE      CODE     ---       #98
      00FF792BH   LINE      CODE     ---       #99
      00FF794AH   LINE      CODE     ---       #100
      00FF797BH   LINE      CODE     ---       #102
      00FF798CH   LINE      CODE     ---       #104
      00FF79C2H   LINE      CODE     ---       #105
L251 LINKER/LOCATER V4.66.93.0                                                        05/01/2026  20:21:51  PAGE 141


      00FF79EDH   LINE      CODE     ---       #106
      00FF79EDH   LINE      CODE     ---       #107
      00FF79FEH   LINE      CODE     ---       #109
      00FF7A18H   LINE      CODE     ---       #110
      00FF7A43H   LINE      CODE     ---       #111
      00FF7A79H   LINE      CODE     ---       #112
      ---         BLOCKEND  ---      ---       LVL=0

      00FF650DH   BLOCK     CODE     ---       LVL=0
      00011E53H   SYMBOL    XDATA    ---       pid
      00011E57H   SYMBOL    XDATA    INT       current_speed
      00FF650DH   LINE      CODE     ---       #117
      00FF651DH   LINE      CODE     ---       #120
      00FF655AH   LINE      CODE     ---       #121
      00FF659CH   LINE      CODE     ---       #124
      00FF660EH   LINE      CODE     ---       #127
      00FF6642H   LINE      CODE     ---       #129
      00FF6674H   LINE      CODE     ---       #130
      00FF66A1H   LINE      CODE     ---       #131
      00FF66D7H   LINE      CODE     ---       #132
      00FF6708H   LINE      CODE     ---       #133
      00FF6732H   LINE      CODE     ---       #134
      ---         BLOCKEND  ---      ---       LVL=0

      00FF92B6H   BLOCK     CODE     ---       LVL=0
      00FF92B6H   LINE      CODE     ---       #140
      00FF92B6H   LINE      CODE     ---       #142
      00FF92CFH   LINE      CODE     ---       #143
      00FF92E4H   LINE      CODE     ---       #145
      00FF92E9H   LINE      CODE     ---       #146
      00FF92F0H   LINE      CODE     ---       #148
      00FF9305H   LINE      CODE     ---       #149
      00FF931AH   LINE      CODE     ---       #152
      00FF933DH   LINE      CODE     ---       #153
      ---         BLOCKEND  ---      ---       LVL=0

      ---         MODULE    ---      ---       inductance
      00FF7D02H   PUBLIC    CODE     ---       Median_Average_Filter
      00FF922DH   PUBLIC    CODE     ---       ADC_Normalize_0_100
      00FF7614H   PUBLIC    CODE     ---       Inductance_Read
      00FF9993H   PUBLIC    CODE     ---       range_protect_float
      00FFA41EH   PUBLIC    CODE     ---       Inductance_Init
      00FF85A4H   PUBLIC    CODE     ---       Inductance_Count_Err
      00010F26H   PUBLIC    XDATA    ---       inductance_filter_data
      00010F30H   PUBLIC    XDATA    ---       inductance_init_data
      00011A7DH   PUBLIC    XDATA    BYTE      ?range_protect_float?BYTE
      000000D0H   SFRSYM    DATA     BYTE      PSW
      0000009DH   SFRSYM    DATA     BYTE      IRCBAND
      00000097H   SFRSYM    DATA     BYTE      AUXR2
      000000EFH   SFRSYM    DATA     BYTE      AUXINTIF
      000000FDH   SFRSYM    DATA     BYTE      S4CON
      000000ACH   SFRSYM    DATA     BYTE      S3CON
      0000009AH   SFRSYM    DATA     BYTE      S2CON
      000000B7H   SFRSYM    DATA     BYTE      IPH
      000000CDH   SFRSYM    DATA     BYTE      SPSTAT
      000000DDH   SFRSYM    DATA     BYTE      T4T3M
      000000C1H   SFRSYM    DATA     BYTE      WDT_CONTR
      000000DFH   SFRSYM    DATA     BYTE      IP3
      000000F4H   SFRSYM    DATA     BYTE      USBCON
      000000B5H   SFRSYM    DATA     BYTE      IP2
      000000FFH   SFRSYM    DATA     BYTE      RSTCFG
      000000C7H   SFRSYM    DATA     BYTE      IAP_CONTR
      000000F9H   SFRSYM    DATA     BYTE      LINICR
      0000008EH   SFRSYM    DATA     BYTE      AUXR
      000000AFH   SFRSYM    DATA     BYTE      IE2
L251 LINKER/LOCATER V4.66.93.0                                                        05/01/2026  20:21:51  PAGE 142


      00000088H   SFRSYM    DATA     BYTE      TCON
      00000089H   SFRSYM    DATA     BYTE      TMOD
      00000098H   SFRSYM    DATA     BYTE      SCON
      000000F1H   SFRSYM    DATA     BYTE      CANICR
      00000087H   SFRSYM    DATA     BYTE      PCON
      000000BCH   SFRSYM    DATA     BYTE      ADC_CONTR
      000000E7H   SFRSYM    DATA     BYTE      CMPCR2
      000000E6H   SFRSYM    DATA     BYTE      CMPCR1
      000000DEH   SFRSYM    DATA     BYTE      ADCCFG
      000000B8H   SFRSYM    DATA     BYTE      IP
      0000008FH   SFRSYM    DATA     BYTE      INTCLKO
      000000EEH   SFRSYM    DATA     BYTE      IP3H
      000000B6H   SFRSYM    DATA     BYTE      IP2H
      000000A8H   SFRSYM    DATA     BYTE      IE
      000000BBH   SFRSYM    DATA     BYTE      P_SW3
      000000BAH   SFRSYM    DATA     BYTE      P_SW2
      000000A2H   SFRSYM    DATA     BYTE      P_SW1
      000000CEH   SFRSYM    DATA     BYTE      SPCTL
      000000F8H   SFRSYM    DATA     BYTE      P7
      000000E8H   SFRSYM    DATA     BYTE      P6
      000000C8H   SFRSYM    DATA     BYTE      P5
      000000C0H   SFRSYM    DATA     BYTE      P4
      000000B0H   SFRSYM    DATA     BYTE      P3
      000000A0H   SFRSYM    DATA     BYTE      P2
      00000090H   SFRSYM    DATA     BYTE      P1
      00000080H   SFRSYM    DATA     BYTE      P0
      00011E59H   SYMBOL    XDATA    INT       value
      00011E5BH   SYMBOL    XDATA    INT       min_value
      00011E5DH   SYMBOL    XDATA    INT       max_value

      00FF9993H   BLOCK     CODE     ---       LVL=0
      00011A7DH   SYMBOL    XDATA    FLOAT     value
      00011A81H   SYMBOL    XDATA    FLOAT     min_value
      00011A85H   SYMBOL    XDATA    FLOAT     max_value
      00FF9993H   LINE      CODE     ---       #30
      00FF99A7H   LINE      CODE     ---       #32
      00FF99FBH   LINE      CODE     ---       #33
      ---         BLOCKEND  ---      ---       LVL=0

      00FFA41EH   BLOCK     CODE     ---       LVL=0
      00FFA41EH   LINE      CODE     ---       #41
      00FFA41EH   LINE      CODE     ---       #43
      00FFA427H   LINE      CODE     ---       #44
      00FFA430H   LINE      CODE     ---       #45
      00FFA439H   LINE      CODE     ---       #46
      00FFA442H   LINE      CODE     ---       #47
      ---         BLOCKEND  ---      ---       LVL=0

      00FF7D02H   BLOCK     CODE     ---       LVL=0
      00011822H   SYMBOL    XDATA    ---       arr
      00011826H   SYMBOL    XDATA    INT       times
      00FF7D12H   BLOCK     CODE     NEAR LAB  LVL=1
      00011828H   SYMBOL    XDATA    INT       min
      0001182AH   SYMBOL    XDATA    INT       max
      0001182CH   SYMBOL    XDATA    INT       sum
      0001182EH   SYMBOL    XDATA    INT       i
      ---         BLOCKEND  ---      ---       LVL=1
      00FF7D02H   LINE      CODE     ---       #57
      00FF7D12H   LINE      CODE     ---       #58
      00FF7D12H   LINE      CODE     ---       #60
      00FF7D48H   LINE      CODE     ---       #63
      00FF7D53H   LINE      CODE     ---       #65
      00FF7D74H   LINE      CODE     ---       #66
      00FF7D91H   LINE      CODE     ---       #67
      00FF7DB2H   LINE      CODE     ---       #68
L251 LINKER/LOCATER V4.66.93.0                                                        05/01/2026  20:21:51  PAGE 143


      00FF7DCFH   LINE      CODE     ---       #69
      00FF7DF1H   LINE      CODE     ---       #70
      00FF7E13H   LINE      CODE     ---       #74
      00FF7E38H   LINE      CODE     ---       #75
      ---         BLOCKEND  ---      ---       LVL=0

      00FF922DH   BLOCK     CODE     ---       LVL=0
      00011D4FH   SYMBOL    XDATA    WORD      adc_val
      00011D51H   SYMBOL    XDATA    WORD      adc_max
      00FF9239H   BLOCK     CODE     NEAR LAB  LVL=1
      00011D53H   SYMBOL    XDATA    FLOAT     temp
      ---         BLOCKEND  ---      ---       LVL=1
      00FF922DH   LINE      CODE     ---       #86
      00FF9239H   LINE      CODE     ---       #87
      00FF9239H   LINE      CODE     ---       #90
      00FF9269H   LINE      CODE     ---       #92
      00FF927EH   LINE      CODE     ---       #93
      00FF928EH   LINE      CODE     ---       #94
      00FF929FH   LINE      CODE     ---       #95
      00FF92ABH   LINE      CODE     ---       #96
      00FF92B5H   LINE      CODE     ---       #97
      ---         BLOCKEND  ---      ---       LVL=0

      00FF85A4H   BLOCK     CODE     ---       LVL=0
      0001154EH   SYMBOL    XDATA    INT       L
      00011550H   SYMBOL    XDATA    INT       LM
      00011552H   SYMBOL    XDATA    INT       RM
      00011554H   SYMBOL    XDATA    INT       R
      00FF85BCH   BLOCK     CODE     NEAR LAB  LVL=1
      00011556H   SYMBOL    XDATA    FLOAT     scaled_err
      0001155AH   SYMBOL    XDATA    FLOAT     numerator
      0001155EH   SYMBOL    XDATA    FLOAT     denominator
      ---         BLOCKEND  ---      ---       LVL=1
      00FF85A4H   LINE      CODE     ---       #107
      00FF85BCH   LINE      CODE     ---       #108
      00FF85BCH   LINE      CODE     ---       #111
      00FF85F4H   LINE      CODE     ---       #112
      00FF8635H   LINE      CODE     ---       #114
      00FF8656H   LINE      CODE     ---       #116
      00FF8687H   LINE      CODE     ---       #118
      00FF8691H   LINE      CODE     ---       #119
      ---         BLOCKEND  ---      ---       LVL=0

      00FF7614H   BLOCK     CODE     ---       LVL=0
      00011EC9H   SYMBOL    XDATA    ---       inductance_norm_data
      00FF761EH   BLOCK     CODE     NEAR LAB  LVL=1
      00011ECDH   SYMBOL    XDATA    BYTE      i
      ---         BLOCKEND  ---      ---       LVL=1
      00FF7614H   LINE      CODE     ---       #127
      00FF761EH   LINE      CODE     ---       #128
      00FF761EH   LINE      CODE     ---       #133
      00FF7626H   LINE      CODE     ---       #135
      00FF7648H   LINE      CODE     ---       #136
      00FF766AH   LINE      CODE     ---       #137
      00FF768CH   LINE      CODE     ---       #138
      00FF76AEH   LINE      CODE     ---       #139
      00FF76C8H   LINE      CODE     ---       #142
      00FF76D0H   LINE      CODE     ---       #145
      00FF7706H   LINE      CODE     ---       #146
      00FF771DH   LINE      CODE     ---       #148
      00FF7740H   LINE      CODE     ---       #149
      00FF7765H   LINE      CODE     ---       #150
      00FF778CH   LINE      CODE     ---       #151
      00FF77B1H   LINE      CODE     ---       #152
      ---         BLOCKEND  ---      ---       LVL=0
L251 LINKER/LOCATER V4.66.93.0                                                        05/01/2026  20:21:51  PAGE 144



      ---         MODULE    ---      ---       menu
      00FF94CBH   PUBLIC    CODE     ---       Send_Data_To_PC
      00FFA51BH   PUBLIC    CODE     ---       Parameter_Debug_Init
      00FF0046H   PUBLIC    CODE     ---       Oscilloscope_Init
      00010960H   PUBLIC    XDATA    ---       gyro_buffer
      000109C0H   PUBLIC    XDATA    ---       send_buf
      00010A40H   PUBLIC    XDATA    ---       data_buffer
      0001140BH   PUBLIC    XDATA    BYTE      ?Parameter_Debug?BYTE
      0001146CH   PUBLIC    XDATA    BYTE      ?Oscilloscope_Display?BYTE
      000000D0H   SFRSYM    DATA     BYTE      PSW
      0000009DH   SFRSYM    DATA     BYTE      IRCBAND
      00000097H   SFRSYM    DATA     BYTE      AUXR2
      000000EFH   SFRSYM    DATA     BYTE      AUXINTIF
      000000FDH   SFRSYM    DATA     BYTE      S4CON
      000000ACH   SFRSYM    DATA     BYTE      S3CON
      0000009AH   SFRSYM    DATA     BYTE      S2CON
      000000B7H   SFRSYM    DATA     BYTE      IPH
      000000CDH   SFRSYM    DATA     BYTE      SPSTAT
      000000DDH   SFRSYM    DATA     BYTE      T4T3M
      000000C1H   SFRSYM    DATA     BYTE      WDT_CONTR
      000000DFH   SFRSYM    DATA     BYTE      IP3
      000000F4H   SFRSYM    DATA     BYTE      USBCON
      000000B5H   SFRSYM    DATA     BYTE      IP2
      000000FFH   SFRSYM    DATA     BYTE      RSTCFG
      000000C7H   SFRSYM    DATA     BYTE      IAP_CONTR
      000000F9H   SFRSYM    DATA     BYTE      LINICR
      0000008EH   SFRSYM    DATA     BYTE      AUXR
      000000AFH   SFRSYM    DATA     BYTE      IE2
      00000088H   SFRSYM    DATA     BYTE      TCON
      00000089H   SFRSYM    DATA     BYTE      TMOD
      00000098H   SFRSYM    DATA     BYTE      SCON
      000000F1H   SFRSYM    DATA     BYTE      CANICR
      00000087H   SFRSYM    DATA     BYTE      PCON
      000000BCH   SFRSYM    DATA     BYTE      ADC_CONTR
      000000E7H   SFRSYM    DATA     BYTE      CMPCR2
      000000E6H   SFRSYM    DATA     BYTE      CMPCR1
      000000DEH   SFRSYM    DATA     BYTE      ADCCFG
      000000B8H   SFRSYM    DATA     BYTE      IP
      0000008FH   SFRSYM    DATA     BYTE      INTCLKO
      000000EEH   SFRSYM    DATA     BYTE      IP3H
      000000B6H   SFRSYM    DATA     BYTE      IP2H
      000000A8H   SFRSYM    DATA     BYTE      IE
      000000BBH   SFRSYM    DATA     BYTE      P_SW3
      000000BAH   SFRSYM    DATA     BYTE      P_SW2
      000000A2H   SFRSYM    DATA     BYTE      P_SW1
      000000CEH   SFRSYM    DATA     BYTE      SPCTL
      000000F8H   SFRSYM    DATA     BYTE      P7
      000000E8H   SFRSYM    DATA     BYTE      P6
      000000C8H   SFRSYM    DATA     BYTE      P5
      000000C0H   SFRSYM    DATA     BYTE      P4
      000000B0H   SFRSYM    DATA     BYTE      P3
      000000A0H   SFRSYM    DATA     BYTE      P2
      00000090H   SFRSYM    DATA     BYTE      P1
      00000080H   SFRSYM    DATA     BYTE      P0
      00010980H   SYMBOL    XDATA    ---       temp_uart_buffer
      00011F6AH   SYMBOL    XDATA    ---       inductance_data

      00FF94CBH   BLOCK     CODE     ---       LVL=0
      00FF94CBH   LINE      CODE     ---       #71
      00FF94CBH   LINE      CODE     ---       #78
      00FF9542H   LINE      CODE     ---       #81
      00FF954DH   LINE      CODE     ---       #82
      ---         BLOCKEND  ---      ---       LVL=0

L251 LINKER/LOCATER V4.66.93.0                                                        05/01/2026  20:21:51  PAGE 145


      00FFA51BH   BLOCK     CODE     ---       LVL=0
      00FFA51BH   LINE      CODE     ---       #86
      00FFA51BH   LINE      CODE     ---       #88
      00FFA525H   LINE      CODE     ---       #89
      00FFA528H   LINE      CODE     ---       #90
      ---         BLOCKEND  ---      ---       LVL=0
      0001140BH   SYMBOL    XDATA    ---       param1
      0001140FH   SYMBOL    XDATA    ---       param2
      00011413H   SYMBOL    XDATA    ---       param3
      00011417H   SYMBOL    XDATA    ---       param4
      0001141BH   SYMBOL    XDATA    ---       target1
      0001141FH   SYMBOL    XDATA    ---       target2
      00011423H   SYMBOL    XDATA    BYTE      i

      00FF0046H   BLOCK     CODE     ---       LVL=0
      00FF0046H   LINE      CODE     ---       #110
      00FF0046H   LINE      CODE     ---       #112
      00FF0050H   LINE      CODE     ---       #113
      ---         BLOCKEND  ---      ---       LVL=0
      0001146CH   SYMBOL    XDATA    FLOAT     num1
      00011470H   SYMBOL    XDATA    FLOAT     num2
      00011474H   SYMBOL    XDATA    INT       num3
      00011476H   SYMBOL    XDATA    INT       num4
      00011478H   SYMBOL    XDATA    INT       num5
      0001147AH   SYMBOL    XDATA    INT       num6
      0001147CH   SYMBOL    XDATA    FLOAT     num7
      00011480H   SYMBOL    XDATA    FLOAT     num8

      ---         MODULE    ---      ---       element
      00FF7E39H   PUBLIC    CODE     ---       Element_Control
      00011E5FH   PUBLIC    XDATA    FLOAT     Nowangel
      00011E63H   PUBLIC    XDATA    INT       TrackState
      000000D0H   SFRSYM    DATA     BYTE      PSW
      0000009DH   SFRSYM    DATA     BYTE      IRCBAND
      00000097H   SFRSYM    DATA     BYTE      AUXR2
      000000EFH   SFRSYM    DATA     BYTE      AUXINTIF
      000000FDH   SFRSYM    DATA     BYTE      S4CON
      000000ACH   SFRSYM    DATA     BYTE      S3CON
      0000009AH   SFRSYM    DATA     BYTE      S2CON
      000000B7H   SFRSYM    DATA     BYTE      IPH
      000000CDH   SFRSYM    DATA     BYTE      SPSTAT
      000000DDH   SFRSYM    DATA     BYTE      T4T3M
      000000C1H   SFRSYM    DATA     BYTE      WDT_CONTR
      000000DFH   SFRSYM    DATA     BYTE      IP3
      000000F4H   SFRSYM    DATA     BYTE      USBCON
      000000B5H   SFRSYM    DATA     BYTE      IP2
      000000FFH   SFRSYM    DATA     BYTE      RSTCFG
      000000C7H   SFRSYM    DATA     BYTE      IAP_CONTR
      000000F9H   SFRSYM    DATA     BYTE      LINICR
      0000008EH   SFRSYM    DATA     BYTE      AUXR
      000000AFH   SFRSYM    DATA     BYTE      IE2
      00000088H   SFRSYM    DATA     BYTE      TCON
      00000089H   SFRSYM    DATA     BYTE      TMOD
      00000098H   SFRSYM    DATA     BYTE      SCON
      000000F1H   SFRSYM    DATA     BYTE      CANICR
      00000087H   SFRSYM    DATA     BYTE      PCON
      000000BCH   SFRSYM    DATA     BYTE      ADC_CONTR
      000000E7H   SFRSYM    DATA     BYTE      CMPCR2
      000000E6H   SFRSYM    DATA     BYTE      CMPCR1
      000000DEH   SFRSYM    DATA     BYTE      ADCCFG
      000000B8H   SFRSYM    DATA     BYTE      IP
      0000008FH   SFRSYM    DATA     BYTE      INTCLKO
      000000EEH   SFRSYM    DATA     BYTE      IP3H
      000000B6H   SFRSYM    DATA     BYTE      IP2H
      000000A8H   SFRSYM    DATA     BYTE      IE
L251 LINKER/LOCATER V4.66.93.0                                                        05/01/2026  20:21:51  PAGE 146


      000000BBH   SFRSYM    DATA     BYTE      P_SW3
      000000BAH   SFRSYM    DATA     BYTE      P_SW2
      000000A2H   SFRSYM    DATA     BYTE      P_SW1
      000000CEH   SFRSYM    DATA     BYTE      SPCTL
      000000F8H   SFRSYM    DATA     BYTE      P7
      000000E8H   SFRSYM    DATA     BYTE      P6
      000000C8H   SFRSYM    DATA     BYTE      P5
      000000C0H   SFRSYM    DATA     BYTE      P4
      000000B0H   SFRSYM    DATA     BYTE      P3
      000000A0H   SFRSYM    DATA     BYTE      P2
      00000090H   SFRSYM    DATA     BYTE      P1
      00000080H   SFRSYM    DATA     BYTE      P0

      00FF7E39H   BLOCK     CODE     ---       LVL=0
      00011F6EH   SYMBOL    XDATA    ---       param
      00FF7E39H   LINE      CODE     ---       #18
      00FF7E43H   LINE      CODE     ---       #20
      00FF7E60H   LINE      CODE     ---       #22
      00FF7E60H   LINE      CODE     ---       #24
      00FF7EE4H   LINE      CODE     ---       #26
      00FF7EEEH   LINE      CODE     ---       #27
      00FF7F02H   LINE      CODE     ---       #28
      00FF7F02H   LINE      CODE     ---       #29
      00FF7F04H   LINE      CODE     ---       #30
      00FF7F04H   LINE      CODE     ---       #31
      00FF7F26H   LINE      CODE     ---       #33
      00FF7F30H   LINE      CODE     ---       #35
      00FF7F30H   LINE      CODE     ---       #36
      00FF7F32H   LINE      CODE     ---       #37
      00FF7F32H   LINE      CODE     ---       #38
      00FF7F54H   LINE      CODE     ---       #40
      00FF7F5EH   LINE      CODE     ---       #42
      00FF7F5EH   LINE      CODE     ---       #43
      00FF7F5EH   LINE      CODE     ---       #51
      00FF7F5EH   LINE      CODE     ---       #52
      00FF7F61H   LINE      CODE     ---       #53
      ---         BLOCKEND  ---      ---       LVL=0

      ---         MODULE    ---      ---       ?C?FPADD
      00FF21D4H   PUBLIC    CODE     ---       ?C?FPADD
      00FF21D1H   PUBLIC    CODE     ---       ?C?FPSUB

      ---         MODULE    ---      ---       ?C?FPMUL
      00FF228CH   PUBLIC    CODE     ---       ?C?FPMUL

      ---         MODULE    ---      ---       ?C?FPDIV
      00FF232CH   PUBLIC    CODE     ---       ?C?FPDIV

      ---         MODULE    ---      ---       ?C?FPCMP
      00FF23AFH   PUBLIC    CODE     ---       ?C?FPCMP
      00FF23ADH   PUBLIC    CODE     ---       ?C?FPCMP3

      ---         MODULE    ---      ---       ?C?FPNEG
      00FF23F3H   PUBLIC    CODE     ---       ?C?FPNEG

      ---         MODULE    ---      ---       ?C?FCAST
      00FF240BH   PUBLIC    CODE     NEAR LAB  ?C?FCASTC
      00FF2406H   PUBLIC    CODE     NEAR LAB  ?C?FCASTI
      00FF2401H   PUBLIC    CODE     NEAR LAB  ?C?FCASTL

      ---         MODULE    ---      ---       ?C?CASTF
      00FF243EH   PUBLIC    CODE     NEAR LAB  ?C?CASTF

      ---         MODULE    ---      ---       PRINTF
      000111DCH   PUBLIC    XDATA    ---       ?PRINTF?BYTE
L251 LINKER/LOCATER V4.66.93.0                                                        05/01/2026  20:21:51  PAGE 147


      00FF247BH   PUBLIC    CODE     NEAR LAB  PRINTF

      ---         MODULE    ---      ---       SPRINTF
      000111DCH   PUBLIC    XDATA    ---       ?SPRINTF?BYTE
      00FF24A7H   PUBLIC    CODE     NEAR LAB  SPRINTF

      ---         MODULE    ---      ---       SQRT?_
      00FF24C7H   PUBLIC    CODE     ---       SQRT?_

      ---         MODULE    ---      ---       pow

      ---         MODULE    ---      ---       SIN?_
      00FF259FH   PUBLIC    CODE     ---       COS?_
      00FF25BCH   PUBLIC    CODE     ---       SIN?_
      00FF25E9H   PUBLIC    CODE     ---       TAN?_

      ---         MODULE    ---      ---       ATAN?_
      00FF26AFH   PUBLIC    CODE     ---       ATAN?_

      ---         MODULE    ---      ---       ASIN?_
      00FF2781H   PUBLIC    CODE     ---       ASIN?_

      ---         MODULE    ---      ---       ?C?FPGETOPN
      00FF27A1H   PUBLIC    CODE     ---       ?C?FPGETOPN2
      00FF27DEH   PUBLIC    CODE     ---       ?C?FPNANRESULT
      00FF27E6H   PUBLIC    CODE     ---       ?C?FPOVERFLOW
      00FF27BAH   PUBLIC    CODE     ---       ?C?FPRESULT
      00FF27D0H   PUBLIC    CODE     ---       ?C?FPRESULT2
      00FF27E3H   PUBLIC    CODE     ---       ?C?FPUNDERFLOW

      ---         MODULE    ---      ---       _CHKFLOAT_?_
      00FF27F2H   PUBLIC    CODE     ---       _CHKFLOAT_?_

      ---         MODULE    ---      ---       ?C?PRNFMT
      00FF283CH   PUBLIC    CODE     ---       ?C?PRNFMT

      ---         MODULE    ---      ---       ?C?FPSERIES
      00FF2C4BH   PUBLIC    CODE     ---       ?C?FP2SERIES
      00FF2C54H   PUBLIC    CODE     ---       ?C?FPSERIES

      ---         MODULE    ---      ---       EXP?_
      00FF2CB1H   PUBLIC    CODE     ---       EXP?_

      ---         MODULE    ---      ---       LOG?_
      00FF2D40H   PUBLIC    CODE     NEAR LAB  LOG?_

      ---         MODULE    ---      ---       ?C?FPCONVERT
      00FF2E13H   PUBLIC    CODE     ---       ?C?FPCONVERT
      00FF2ECBH   PUBLIC    CODE     ---       ?C?FPROUND

      ---         MODULE    ---      ---       ?C?FTNPWR
      00FF2F3EH   PUBLIC    CODE     ---       ?C?FTNPWR

      ---         MODULE    ---      ---       ?C?INITHDATA
      00FF9E2EH   PUBLIC    CODE     ---       ?C?INITHDATA

      ---         MODULE    ---      ---       ?C?SIDIV
      00FF2F75H   PUBLIC    CODE     ---       ?C?SIDIV

      ---         MODULE    ---      ---       ?C?LMUL
      00FF2FA7H   PUBLIC    CODE     ---       ?C?LMUL

      ---         MODULE    ---      ---       ?C?LIMUL
      00FF2FB8H   PUBLIC    CODE     ---       ?C?LIMUL

L251 LINKER/LOCATER V4.66.93.0                                                        05/01/2026  20:21:51  PAGE 148


      ---         MODULE    ---      ---       ?C?ULDIV
      00FF2FC3H   PUBLIC    CODE     NEAR LAB  ?C?ULDIV
      00FF2FC1H   PUBLIC    CODE     NEAR LAB  ?C?ULIDIV

      ---         MODULE    ---      ---       ?C?SLDIV
      00FF3014H   PUBLIC    CODE     NEAR LAB  ?C?SLDIV

      ---         MODULE    ---      ---       ?C?BMOVEPP
      00FF304AH   PUBLIC    CODE     ---       ?C?BMOVEPP
      00FF3048H   PUBLIC    CODE     ---       ?C?BMOVEPP8

      ---         MODULE    ---      ---       STRNCMP

      ---         MODULE    ---      ---       STRNCPY

      ---         MODULE    ---      ---       STRLEN
      00FFA529H   PUBLIC    CODE     ---       strlen?_

      ---         MODULE    ---      ---       STRCHR

      ---         MODULE    ---      ---       memcpy
      00FFA443H   PUBLIC    CODE     ---       memcpy?_

      ---         MODULE    ---      ---       memset

      ---         MODULE    ---      ---       ?C?INITHDATA_END
      00FFAA83H   PUBLIC    HCONST   WORD      ?C?INITHDATA_END

Program Size: data=8.4 edata+hdata=2060 xdata=8175 const=4071 code=42206
L251 RUN COMPLETE.  0 WARNING(S),  0 ERROR(S)
