L251 LINKER/LOCATER V4.66.93.0                                                          03/26/2026  19:04:27  PAGE 1


L251 LINKER/LOCATER V4.66.93.0, INVOKED BY:
D:\KEIL_V5\C251\BIN\L251.EXE .\out_file\START251.obj, .\out_file\stc32g_isr.obj, .\out_file\zf_common_clock.obj, .\out_f
>> ile\zf_common_debug.obj, .\out_file\zf_common_fifo.obj, .\out_file\zf_common_font.obj, .\out_file\zf_common_function.
>> obj, .\out_file\zf_common_typedef.obj, .\out_file\zf_common_interrupt.obj, .\out_file\zf_driver_adc.obj, .\out_file\z
>> f_driver_delay.obj, .\out_file\zf_driver_eeprom.obj, .\out_file\zf_driver_encoder.obj, .\out_file\zf_driver_exti.obj,
>>  .\out_file\zf_driver_gpio.obj, .\out_file\zf_driver_pit.obj, .\out_file\zf_driver_pwm.obj, .\out_file\zf_driver_soft
>> _iic.obj, .\out_file\zf_driver_soft_spi.obj, .\out_file\zf_driver_spi.obj, .\out_file\zf_driver_timer.obj, .\out_file
>> \zf_driver_uart.obj, .\out_file\zf_device_ble6a20.obj, .\out_file\zf_device_config.obj, .\out_file\zf_device_dl1a.obj
>> , .\out_file\zf_device_dl1b.obj, .\out_file\zf_device_gps_tau1201.obj, .\out_file\zf_device_icm20602.obj, .\out_file\
>> zf_device_imu660ra.obj, .\out_file\zf_device_imu660rb.obj, .\out_file\zf_device_imu963ra.obj, .\out_file\zf_device_ip
>> s114.obj, .\out_file\zf_device_ips200.obj, .\out_file\zf_device_ips200pro.obj, .\out_file\zf_device_tft180.obj, .\out
>> _file\zf_device_tsl1401.obj, .\out_file\zf_device_type.obj, .\out_file\zf_device_wireless_uart.obj, .\out_file\seekfr
>> ee_assistant.obj, .\out_file\seekfree_assistant_interface.obj, .\out_file\isr.obj, .\out_file\main.obj, .\out_file\im
>> u.obj, .\out_file\eeprom.obj, .\out_file\inductance.obj, .\out_file\voltage_warning.obj, .\out_file\motor.obj, .\out_
>> file\buzzer.obj, .\out_file\led.obj, .\out_file\init.obj, .\out_file\control.obj, .\out_file\menu.obj, .\out_file\enc
>> oder.obj TO .\out_file\SEEKFREE PRINT (.\out_file\SEEKFREE.map) CASE DISABLEWARNING (57, 16) REMOVEUNUSED CLASSES (ED
>> ATA (0X0-0XFFF), HDATA (0X0-0XFFF))


CPU MODE:     251 SOURCE MODE
INTR FRAME:   4 BYTES SAVED ON INTERRUPT
MEMORY MODEL: LARGE WITH FLOATING POINT ARITHMETIC


INPUT MODULES INCLUDED:
  .\out_file\START251.obj (?C_START)
         COMMENT TYPE 0: A251 V4.69.13.0
  .\out_file\stc32g_isr.obj (stc32g_isr)
         COMMENT TYPE 0: A251 V4.69.13.0
  .\out_file\zf_common_clock.obj (zf_common_clock)
         COMMENT TYPE 0: C251 V5.60.0
  .\out_file\zf_common_debug.obj (zf_common_debug)
         COMMENT TYPE 0: C251 V5.60.0
  .\out_file\zf_common_fifo.obj (zf_common_fifo)
         COMMENT TYPE 0: C251 V5.60.0
  .\out_file\zf_common_font.obj (zf_common_font)
         COMMENT TYPE 0: C251 V5.60.0
  .\out_file\zf_common_function.obj (zf_common_function)
         COMMENT TYPE 0: C251 V5.60.0
  .\out_file\zf_common_typedef.obj (zf_common_typedef)
         COMMENT TYPE 0: C251 V5.60.0
  .\out_file\zf_common_interrupt.obj (zf_common_interrupt)
         COMMENT TYPE 0: C251 V5.60.0
  .\out_file\zf_driver_adc.obj (zf_driver_adc)
         COMMENT TYPE 0: C251 V5.60.0
  .\out_file\zf_driver_delay.obj (zf_driver_delay)
         COMMENT TYPE 0: C251 V5.60.0
  .\out_file\zf_driver_eeprom.obj (zf_driver_eeprom)
         COMMENT TYPE 0: C251 V5.60.0
  .\out_file\zf_driver_encoder.obj (zf_driver_encoder)
         COMMENT TYPE 0: C251 V5.60.0
  .\out_file\zf_driver_exti.obj (zf_driver_exti)
         COMMENT TYPE 0: C251 V5.60.0
  .\out_file\zf_driver_gpio.obj (zf_driver_gpio)
         COMMENT TYPE 0: C251 V5.60.0
  .\out_file\zf_driver_pit.obj (zf_driver_pit)
         COMMENT TYPE 0: C251 V5.60.0
  .\out_file\zf_driver_pwm.obj (zf_driver_pwm)
         COMMENT TYPE 0: C251 V5.60.0
  .\out_file\zf_driver_soft_iic.obj (zf_driver_soft_iic)
         COMMENT TYPE 0: C251 V5.60.0
  .\out_file\zf_driver_soft_spi.obj (zf_driver_soft_spi)
         COMMENT TYPE 0: C251 V5.60.0
  .\out_file\zf_driver_spi.obj (zf_driver_spi)
         COMMENT TYPE 0: C251 V5.60.0
  .\out_file\zf_driver_timer.obj (zf_driver_timer)
L251 LINKER/LOCATER V4.66.93.0                                                        03/26/2026  19:04:27  PAGE 2


         COMMENT TYPE 0: C251 V5.60.0
  .\out_file\zf_driver_uart.obj (zf_driver_uart)
         COMMENT TYPE 0: C251 V5.60.0
  .\out_file\zf_device_ble6a20.obj (zf_device_ble6a20)
         COMMENT TYPE 0: C251 V5.60.0
  .\out_file\zf_device_config.obj (zf_device_config)
         COMMENT TYPE 0: C251 V5.60.0
  .\out_file\zf_device_dl1a.obj (zf_device_dl1a)
         COMMENT TYPE 0: C251 V5.60.0
  .\out_file\zf_device_dl1b.obj (zf_device_dl1b)
         COMMENT TYPE 0: C251 V5.60.0
  .\out_file\zf_device_gps_tau1201.obj (zf_device_gps_tau1201)
         COMMENT TYPE 0: C251 V5.60.0
  .\out_file\zf_device_icm20602.obj (zf_device_icm20602)
         COMMENT TYPE 0: C251 V5.60.0
  .\out_file\zf_device_imu660ra.obj (zf_device_imu660ra)
         COMMENT TYPE 0: C251 V5.60.0
  .\out_file\zf_device_imu660rb.obj (zf_device_imu660rb)
         COMMENT TYPE 0: C251 V5.60.0
  .\out_file\zf_device_imu963ra.obj (zf_device_imu963ra)
         COMMENT TYPE 0: C251 V5.60.0
  .\out_file\zf_device_ips114.obj (zf_device_ips114)
         COMMENT TYPE 0: C251 V5.60.0
  .\out_file\zf_device_ips200.obj (zf_device_ips200)
         COMMENT TYPE 0: C251 V5.60.0
  .\out_file\zf_device_ips200pro.obj (zf_device_ips200pro)
         COMMENT TYPE 0: C251 V5.60.0
  .\out_file\zf_device_tft180.obj (zf_device_tft180)
         COMMENT TYPE 0: C251 V5.60.0
  .\out_file\zf_device_tsl1401.obj (zf_device_tsl1401)
         COMMENT TYPE 0: C251 V5.60.0
  .\out_file\zf_device_type.obj (zf_device_type)
         COMMENT TYPE 0: C251 V5.60.0
  .\out_file\zf_device_wireless_uart.obj (zf_device_wireless_uart)
         COMMENT TYPE 0: C251 V5.60.0
  .\out_file\seekfree_assistant.obj (seekfree_assistant)
         COMMENT TYPE 0: C251 V5.60.0
  .\out_file\seekfree_assistant_interface.obj (seekfree_assistant_interface)
         COMMENT TYPE 0: C251 V5.60.0
  .\out_file\isr.obj (isr)
         COMMENT TYPE 0: C251 V5.60.0
  .\out_file\main.obj (main)
         COMMENT TYPE 0: C251 V5.60.0
  .\out_file\imu.obj (imu)
         COMMENT TYPE 0: C251 V5.60.0
  .\out_file\eeprom.obj (eeprom)
         COMMENT TYPE 0: C251 V5.60.0
  .\out_file\inductance.obj (inductance)
         COMMENT TYPE 0: C251 V5.60.0
  .\out_file\voltage_warning.obj (voltage_warning)
         COMMENT TYPE 0: C251 V5.60.0
  .\out_file\motor.obj (motor)
         COMMENT TYPE 0: C251 V5.60.0
  .\out_file\buzzer.obj (buzzer)
         COMMENT TYPE 0: C251 V5.60.0
  .\out_file\led.obj (led)
         COMMENT TYPE 0: C251 V5.60.0
  .\out_file\init.obj (init)
         COMMENT TYPE 0: C251 V5.60.0
  .\out_file\control.obj (control)
         COMMENT TYPE 0: C251 V5.60.0
  .\out_file\menu.obj (menu)
         COMMENT TYPE 0: C251 V5.60.0
  .\out_file\encoder.obj (encoder)
         COMMENT TYPE 0: C251 V5.60.0
L251 LINKER/LOCATER V4.66.93.0                                                        03/26/2026  19:04:27  PAGE 3


  D:\KEIL_V5\C251\LIB\C2SFPL.LIB (?C?FPADD)
         COMMENT TYPE 0: A251 V4.69.6.0
  D:\KEIL_V5\C251\LIB\C2SFPL.LIB (?C?FPMUL)
         COMMENT TYPE 0: A251 V4.69.6.0
  D:\KEIL_V5\C251\LIB\C2SFPL.LIB (?C?FPDIV)
         COMMENT TYPE 0: A251 V4.69.6.0
  D:\KEIL_V5\C251\LIB\C2SFPL.LIB (?C?FPCMP)
         COMMENT TYPE 0: A251 V4.69.6.0
  D:\KEIL_V5\C251\LIB\C2SFPL.LIB (?C?FPNEG)
         COMMENT TYPE 0: A251 V4.69.6.0
  D:\KEIL_V5\C251\LIB\C2SFPL.LIB (?C?FCAST)
         COMMENT TYPE 0: A251 V4.69.6.0
  D:\KEIL_V5\C251\LIB\C2SFPL.LIB (?C?CASTF)
         COMMENT TYPE 0: A251 V4.69.6.0
  D:\KEIL_V5\C251\LIB\C2SFPL.LIB (PRINTF)
         COMMENT TYPE 0: A251 V4.69.6.0
  D:\KEIL_V5\C251\LIB\C2SFPL.LIB (SPRINTF)
         COMMENT TYPE 0: A251 V4.69.6.0
  D:\KEIL_V5\C251\LIB\C2SFPL.LIB (SQRT?_)
         COMMENT TYPE 0: A251 V4.69.6.0
  D:\KEIL_V5\C251\LIB\C2SFPL.LIB (pow)
         COMMENT TYPE 0: C251 V5.58.7
  D:\KEIL_V5\C251\LIB\C2SFPL.LIB (SIN?_)
         COMMENT TYPE 0: A251 V4.69.6.0
  D:\KEIL_V5\C251\LIB\C2SFPL.LIB (ATAN?_)
         COMMENT TYPE 0: A251 V4.69.6.0
  D:\KEIL_V5\C251\LIB\C2SFPL.LIB (ASIN?_)
         COMMENT TYPE 0: A251 V4.69.6.0
  D:\KEIL_V5\C251\LIB\C2SFPL.LIB (?C?FPGETOPN)
         COMMENT TYPE 0: A251 V4.69.6.0
  D:\KEIL_V5\C251\LIB\C2SFPL.LIB (_CHKFLOAT_?_)
         COMMENT TYPE 0: A251 V4.69.6.0
  D:\KEIL_V5\C251\LIB\C2SFPL.LIB (?C?PRNFMT)
         COMMENT TYPE 0: A251 V4.69.6.0
  D:\KEIL_V5\C251\LIB\C2SFPL.LIB (?C?FPSERIES)
         COMMENT TYPE 0: A251 V4.69.6.0
  D:\KEIL_V5\C251\LIB\C2SFPL.LIB (EXP?_)
         COMMENT TYPE 0: A251 V4.69.6.0
  D:\KEIL_V5\C251\LIB\C2SFPL.LIB (LOG?_)
         COMMENT TYPE 0: A251 V4.69.6.0
  D:\KEIL_V5\C251\LIB\C2SFPL.LIB (?C?FPCONVERT)
         COMMENT TYPE 0: A251 V4.69.6.0
  D:\KEIL_V5\C251\LIB\C2SFPL.LIB (?C?FTNPWR)
         COMMENT TYPE 0: A251 V4.69.6.0
  D:\KEIL_V5\C251\LIB\C2SL.LIB (?C?INITHDATA)
         COMMENT TYPE 0: A251 V4.69.6.0
  D:\KEIL_V5\C251\LIB\C2SL.LIB (?C?SIDIV)
         COMMENT TYPE 0: A251 V4.69.6.0
  D:\KEIL_V5\C251\LIB\C2SL.LIB (?C?LMUL)
         COMMENT TYPE 0: A251 V4.69.6.0
  D:\KEIL_V5\C251\LIB\C2SL.LIB (?C?LIMUL)
         COMMENT TYPE 0: A251 V4.69.6.0
  D:\KEIL_V5\C251\LIB\C2SL.LIB (?C?ULDIV)
         COMMENT TYPE 0: A251 V4.69.6.0
  D:\KEIL_V5\C251\LIB\C2SL.LIB (?C?SLDIV)
         COMMENT TYPE 0: A251 V4.69.6.0
  D:\KEIL_V5\C251\LIB\C2SL.LIB (?C?BMOVEPP)
         COMMENT TYPE 0: A251 V4.69.6.0
  D:\KEIL_V5\C251\LIB\C2SL.LIB (STRNCMP)
         COMMENT TYPE 0: C251 V5.58.7
  D:\KEIL_V5\C251\LIB\C2SL.LIB (STRNCPY)
         COMMENT TYPE 0: C251 V5.58.7
  D:\KEIL_V5\C251\LIB\C2SL.LIB (STRLEN)
         COMMENT TYPE 0: C251 V5.58.7
  D:\KEIL_V5\C251\LIB\C2SL.LIB (STRCHR)
L251 LINKER/LOCATER V4.66.93.0                                                        03/26/2026  19:04:27  PAGE 4


         COMMENT TYPE 0: C251 V5.58.7
  D:\KEIL_V5\C251\LIB\C2SL.LIB (memcpy)
         COMMENT TYPE 0: C251 V5.58.7
  D:\KEIL_V5\C251\LIB\C2SL.LIB (memset)
         COMMENT TYPE 0: C251 V5.58.7
  D:\KEIL_V5\C251\LIB\C2SL.LIB (?C?INITHDATA_END)
         COMMENT TYPE 0: A251 V4.69.6.0


ACTIVE MEMORY CLASSES OF MODULE:  .\out_file\SEEKFREE (?C_START)

BASE        START       END         USED      MEMORY CLASS
==========================================================
000000H     000000H     000FFFH     00080CH   EDATA
000000H     000000H     000FFFH               HDATA
FF0000H     FF0000H     FFFFFFH     009554H   CODE
010000H     010000H     01FFFFH     001E11H   XDATA
000000H     FF0000H     FFFFFFH     000FA7H   HCONST
000020H.0   000020H.0   00002FH.7   000000H.4 BIT
FF0000H     FF0000H     FFFFFFH     000004H   CONST
000000H     000000H     00007FH     000008H   DATA


MEMORY MAP OF MODULE:  .\out_file\SEEKFREE (?C_START)


START     STOP      LENGTH    ALIGN  RELOC    MEMORY CLASS   SEGMENT NAME
=========================================================================
000000H   000007H   000008H   ---    AT..     DATA           "REG BANK 0"
000008H   00000FH   000008H   BYTE   UNIT     EDATA          ?ED?DL1A_ENCODE_TIMEOUT?ZF_DEVICE_DL1A
000010H   000013H   000004H   BYTE   UNIT     EDATA          ?ED?ICM20602_SIMSPI_R_REG_BYTES?ZF_DEVICE_ICM20602
000014H.0 00001FH.7 00000CH.0 ---    ---      **GAP**
000020H.0 000020H.0 000000H.1 BIT    UNIT     BIT            ?BI?IAP_READ_BYTE?ZF_DRIVER_EEPROM
000020H.1 000020H.1 000000H.1 BIT    UNIT     BIT            ?BI?IAP_WRITE_BYTE?ZF_DRIVER_EEPROM
000020H.2 000020H.2 000000H.1 BIT    UNIT     BIT            ?BI?IAP_ERASE_PAGE?ZF_DRIVER_EEPROM
000020H.3 000020H.3 000000H.1 BIT    UNIT     BIT            ?BI?SEEKFREE_ASSISTANT_DATA_ANALYSIS?SEEKFREE_ASSISTANT
000020H.4 000020H   000000H.4 ---    ---      **GAP**
000021H   000820H   000800H   BYTE   UNIT     EDATA          ?STACK
000821H   00FFFFH   00F7DFH   ---    ---      **GAP**
010000H   010209H   00020AH   BYTE   UNIT     XDATA          ?XD?EXTERN_IAP_WRITE_BUFF?ZF_DRIVER_EEPROM
01020AH   01040BH   000202H   BYTE   INSEG    XDATA          ?XD?ZF_DEVICE_TSL1401
01040CH   0105D3H   0001C8H   BYTE   INSEG    XDATA          ?XD?ZF_DEVICE_GPS_TAU1201
0105D4H   010710H   00013DH   BYTE   INSEG    XDATA          ?XD?SEEKFREE_ASSISTANT
010711H   01082FH   00011FH   BYTE   INSEG    XDATA          ?XD?IMU
010830H   0108FDH   0000CEH   BYTE   UNIT     XDATA          ?XD?DL1A_INIT?ZF_DEVICE_DL1A
0108FEH   010992H   000095H   BYTE   UNIT     XDATA          ?XD?GPS_INIT?ZF_DEVICE_GPS_TAU1201
010993H   010A21H   00008FH   BYTE   UNIT     XDATA          ?XD?SEEKFREE_ASSISTANT_DATA_ANALYSIS?SEEKFREE_ASSISTANT
010A22H   010AA5H   000084H   BYTE   UNIT     XDATA          ?XD?SEND_DATA_TO_PC?MENU
010AA6H   010B04H   00005FH   BYTE   UNIT     XDATA          ?XD?ZF_SPRINTF?ZF_COMMON_FUNCTION
010B05H   010B5DH   000059H   BYTE   INSEG    XDATA          ?XD?ZF_COMMON_DEBUG
010B5EH   010BB4H   000057H   BYTE   INSEG    XDATA          ?XD?ZF_DEVICE_BLE6A20
010BB5H   010C0BH   000057H   BYTE   INSEG    XDATA          ?XD?ZF_DEVICE_WIRELESS_UART
010C0CH   010C5EH   000053H   BYTE   UNIT     XDATA          ?XD?VSNPRINTF?ZF_COMMON_FUNCTION
010C5FH   010CABH   00004DH   BYTE   INSEG    XDATA          ?XD?ZF_DEVICE_IPS200PRO
010CACH   010CF6H   00004BH   BYTE   UNIT     XDATA          ?XD?INDUCTANCE_READ?INDUCTANCE
010CF7H   010D40H   00004AH   BYTE   UNIT     XDATA          ?XD?UART_WRITE_BUFFER?ZF_DRIVER_UART
010D41H   010D85H   000045H   BYTE   UNIT     XDATA          ?XD?IPS200PRO_TABLE_CELL_PRINTF?ZF_DEVICE_IPS200PRO
010D86H   010DC5H   000040H   BYTE   INSEG    XDATA          ?XD?MENU
010DC6H   010E04H   00003FH   BYTE   UNIT     XDATA          ?XD?IPS200PRO_LABEL_PRINTF?ZF_DEVICE_IPS200PRO
010E05H   010E3CH   000038H   BYTE   UNIT     XDATA          ?XD?FUNC_DOUBLE_TO_STR?ZF_COMMON_FUNCTION
010E3DH   010E6CH   000030H   BYTE   UNIT     XDATA          ?XD?GET_TWO_POINTS_DISTANCE?ZF_DEVICE_GPS_TAU1201
010E6DH   010E9CH   000030H   BYTE   UNIT     XDATA          ?XD?IPS114_SHOW_FLOAT?ZF_DEVICE_IPS114
010E9DH   010ECCH   000030H   BYTE   UNIT     XDATA          ?XD?IPS200_SHOW_FLOAT?ZF_DEVICE_IPS200
010ECDH   010EFCH   000030H   BYTE   UNIT     XDATA          ?XD?TFT180_SHOW_FLOAT?ZF_DEVICE_TFT180
010EFDH   010F2BH   00002FH   BYTE   UNIT     XDATA          ?XD?DL1A_SET_MEASUREMENT_TIMING_BUDGET?ZF_DEVICE_DL1A
L251 LINKER/LOCATER V4.66.93.0                                                        03/26/2026  19:04:27  PAGE 5


010F2CH   010F57H   00002CH   BYTE   UNIT     XDATA          ?XD?IPS114_SHOW_INT32?ZF_DEVICE_IPS114
010F58H   010F83H   00002CH   BYTE   UNIT     XDATA          ?XD?IPS200_SHOW_INT32?ZF_DEVICE_IPS200
010F84H   010FAFH   00002CH   BYTE   UNIT     XDATA          ?XD?TFT180_SHOW_INT32?ZF_DEVICE_TFT180
010FB0H   010FDAH   00002BH   BYTE   UNIT     XDATA          ?XD?GPS_GNRMC_PARSE?ZF_DEVICE_GPS_TAU1201
010FDBH   011004H   00002AH   BYTE   UNIT     XDATA          ?XD?FUNC_FLOAT_TO_STR?ZF_COMMON_FUNCTION
011005H   01102EH   00002AH   BYTE   UNIT     XDATA          ?XD?SEEKFREE_ASSISTANT_OSCILLOSCOPE_SEND?SEEKFREE_ASSISTAN
                                                             -T
01102FH   011056H   000028H   BYTE   UNIT     XDATA          ?XD?IPS200PRO_IMAGE_DISPLAY?ZF_DEVICE_IPS200PRO
011057H   01107EH   000028H   BYTE   UNIT     XDATA          _XDATA_GROUP_
01107FH   0110A3H   000025H   BYTE   UNIT     XDATA          ?XD?FUNC_HEX_TO_STR?ZF_COMMON_FUNCTION
0110A4H   0110C5H   000022H   BYTE   UNIT     XDATA          ?XD?IPS200PRO_IMAGE_DRAW_RECTANGLE?ZF_DEVICE_IPS200PRO
0110C6H   0110E5H   000020H   BYTE   UNIT     XDATA          ?XD?IPS114_SHOW_WAVE?ZF_DEVICE_IPS114
0110E6H   011105H   000020H   BYTE   UNIT     XDATA          ?XD?IPS200_SHOW_WAVE?ZF_DEVICE_IPS200
011106H   011125H   000020H   BYTE   UNIT     XDATA          ?XD?TFT180_SHOW_WAVE?ZF_DEVICE_TFT180
011126H   011144H   00001FH   BYTE   UNIT     XDATA          ?XD?DL1A_GET_MEASUREMENT_TIMING_BUDGET?ZF_DEVICE_DL1A
011145H   011163H   00001FH   BYTE   UNIT     XDATA          ?XD?IPS200PRO_WRITE_PACKET?ZF_DEVICE_IPS200PRO
011164H   011182H   00001FH   BYTE   UNIT     XDATA          ?XD?SEEKFREE_ASSISTANT_CAMERA_BOUNDARY_CONFIG?SEEKFREE_ASS
                                                             -ISTANT
011183H   0111A0H   00001EH   BYTE   INSEG    XDATA          ?XD?ZF_COMMON_TYPEDEF
0111A1H   0111BEH   00001EH   BYTE   INSEG    XDATA          ?XD?ZF_DEVICE_IMU963RA
0111BFH   0111DBH   00001DH   BYTE   UNIT     XDATA          ?XD?FUNC_INT_TO_STR?ZF_COMMON_FUNCTION
0111DCH   0111F7H   00001CH   BYTE   UNIT     XDATA          ?XD?GET_TWO_POINTS_AZIMUTH?ZF_DEVICE_GPS_TAU1201
0111F8H   011212H   00001BH   BYTE   UNIT     XDATA          ?XD?IPS200PRO_CREATE_WIDGETS?ZF_DEVICE_IPS200PRO
011213H   01122CH   00001AH   BYTE   UNIT     XDATA          ?XD?IPS200PRO_WAVEFORM_ADD_VALUE?ZF_DEVICE_IPS200PRO
01122DH   011246H   00001AH   BYTE   UNIT     XDATA          ?XD?IPS200PRO_IMAGE_DRAW_LINE?ZF_DEVICE_IPS200PRO
011247H   01125FH   000019H   BYTE   UNIT     XDATA          ?XD?FUNC_UINT_TO_STR?ZF_COMMON_FUNCTION
011260H   011278H   000019H   BYTE   UNIT     XDATA          ?XD?IPS114_SHOW_CHINESE?ZF_DEVICE_IPS114
011279H   011291H   000019H   BYTE   UNIT     XDATA          ?XD?IPS200_SHOW_CHINESE?ZF_DEVICE_IPS200
011292H   0112A9H   000018H   BYTE   UNIT     XDATA          ?XD?FIFO_READ_BUFFER?ZF_COMMON_FIFO
0112AAH   0112C1H   000018H   BYTE   UNIT     XDATA          ?XD?GET_FLOAT_NUMBER?ZF_DEVICE_GPS_TAU1201
0112C2H   0112D9H   000018H   BYTE   UNIT     XDATA          ?XD?GET_DOUBLE_NUMBER?ZF_DEVICE_GPS_TAU1201
0112DAH   0112EEH   000015H   BYTE   UNIT     XDATA          ?XD?SOFT_SPI_INIT?ZF_DRIVER_SOFT_SPI
0112EFH   011303H   000015H   BYTE   UNIT     XDATA          ?XD?IPS200PRO_GET_INFORMATION?ZF_DEVICE_IPS200PRO
011304H   011317H   000014H   BYTE   UNIT     XDATA          ?XD?DEBUG_ASSERT_HANDLER?ZF_COMMON_DEBUG
011318H   01132BH   000014H   BYTE   UNIT     XDATA          ?XD?NUMBER_CONVERSION_ASCII?ZF_COMMON_FUNCTION
01132CH   01133FH   000014H   BYTE   UNIT     XDATA          ?XD?PWM_SET_FREQ?ZF_DRIVER_PWM
011340H   011353H   000014H   BYTE   UNIT     XDATA          ?XD?SOFT_IIC_TRANSFER_8BIT_ARRAY?ZF_DRIVER_SOFT_IIC
011354H   011367H   000014H   BYTE   UNIT     XDATA          ?XD?SOFT_IIC_TRANSFER_16BIT_ARRAY?ZF_DRIVER_SOFT_IIC
011368H   01137BH   000014H   BYTE   UNIT     XDATA          ?XD?SPI_INIT?ZF_DRIVER_SPI
01137CH   01138FH   000014H   BYTE   INSEG    XDATA          ?XD?ZF_DEVICE_ICM20602
011390H   0113A3H   000014H   BYTE   INSEG    XDATA          ?XD?ZF_DEVICE_IMU660RA
0113A4H   0113B7H   000014H   BYTE   UNIT     XDATA          ?XD?INDUCTANCE_COUNT_ERR?INDUCTANCE
0113B8H   0113CAH   000013H   BYTE   UNIT     XDATA          ?XD?IMU660RA_READ_REGISTERS?ZF_DEVICE_IMU660RA
0113CBH   0113DDH   000013H   BYTE   UNIT     XDATA          ?XD?IPS200PRO_SET_COLOR?ZF_DEVICE_IPS200PRO
0113DEH   0113F0H   000013H   BYTE   UNIT     XDATA          ?XD?IPS200PRO_SET_POSITION?ZF_DEVICE_IPS200PRO
0113F1H   011403H   000013H   BYTE   UNIT     XDATA          ?XD?IPS200PRO_WAVEFORM_LINE_STATE?ZF_DEVICE_IPS200PRO
011404H   011416H   000013H   BYTE   UNIT     XDATA          ?XD?IPS200PRO_CONTAINER_RADIUS?ZF_DEVICE_IPS200PRO
011417H   011428H   000012H   BYTE   UNIT     XDATA          ?XD?FIFO_WRITE_BUFFER?ZF_COMMON_FIFO
011429H   01143AH   000012H   BYTE   UNIT     XDATA          ?XD?PWM_INIT?ZF_DRIVER_PWM
01143BH   01144CH   000012H   BYTE   UNIT     XDATA          ?XD?IPS200PRO_TABLE_SET_COL_WIDTH?ZF_DEVICE_IPS200PRO
01144DH   01145EH   000012H   BYTE   UNIT     XDATA          ?XD?IPS200PRO_CALENDAR_DISPLAY?ZF_DEVICE_IPS200PRO
01145FH   01146FH   000011H   BYTE   UNIT     XDATA          ?XD?FUNC_STR_TO_FLOAT?ZF_COMMON_FUNCTION
011470H   011480H   000011H   BYTE   UNIT     XDATA          ?XD?FUNC_STR_TO_DOUBLE?ZF_COMMON_FUNCTION
011481H   011491H   000011H   BYTE   UNIT     XDATA          ?XD?GET_INT_NUMBER?ZF_DEVICE_GPS_TAU1201
011492H   0114A2H   000011H   BYTE   UNIT     XDATA          ?XD?IPS200PRO_SET_DATE?ZF_DEVICE_IPS200PRO
0114A3H   0114B3H   000011H   BYTE   UNIT     XDATA          ?XD?IPS200PRO_SET_PARENT?ZF_DEVICE_IPS200PRO
0114B4H   0114C4H   000011H   BYTE   UNIT     XDATA          ?XD?IPS200PRO_GET_DATE?ZF_DEVICE_IPS200PRO
0114C5H   0114D5H   000011H   BYTE   UNIT     XDATA          ?XD?IPS200PRO_GET_TIME?ZF_DEVICE_IPS200PRO
0114D6H   0114E6H   000011H   BYTE   UNIT     XDATA          ?XD?IPS200PRO_GET_FREE_STACK_SIZE?ZF_DEVICE_IPS200PRO
0114E7H   0114F7H   000011H   BYTE   UNIT     XDATA          ?XD?IPS200PRO_TABLE_SELECT?ZF_DEVICE_IPS200PRO
0114F8H   011508H   000011H   BYTE   UNIT     XDATA          ?XD?IPS200PRO_PROGRESS_BAR_SET_VALUE?ZF_DEVICE_IPS200PRO
011509H   011518H   000010H   BYTE   UNIT     XDATA          ?XD?SOFT_SPI_TRANSFER_8BIT?ZF_DRIVER_SOFT_SPI
011519H   011528H   000010H   BYTE   UNIT     XDATA          ?XD?SOFT_SPI_TRANSFER_16BIT?ZF_DRIVER_SOFT_SPI
011529H   011538H   000010H   BYTE   UNIT     XDATA          ?XD?IPS200PRO_SET_TIME?ZF_DEVICE_IPS200PRO
011539H   011548H   000010H   BYTE   UNIT     XDATA          ?XD?IPS200PRO_PAGE_SET_TITLE_POSITION_WIDTH?ZF_DEVICE_IPS2
L251 LINKER/LOCATER V4.66.93.0                                                        03/26/2026  19:04:27  PAGE 6


                                                             -00PRO
011549H   011558H   000010H   BYTE   UNIT     XDATA          ?XD?FAST_SQRT?IMU
011559H   011567H   00000FH   BYTE   UNIT     XDATA          ?XD?IPS200PRO_SET_FONT?ZF_DEVICE_IPS200PRO
011568H   011576H   00000FH   BYTE   UNIT     XDATA          ?XD?IPS200PRO_PAGE_SWITCH?ZF_DEVICE_IPS200PRO
011577H   011585H   00000FH   BYTE   UNIT     XDATA          ?XD?IPS200PRO_PAGE_SET_TITLE_NAME?ZF_DEVICE_IPS200PRO
011586H   011594H   00000FH   BYTE   UNIT     XDATA          ?XD?IPS200PRO_LABEL_SHOW_STRING?ZF_DEVICE_IPS200PRO
011595H   0115A3H   00000FH   BYTE   UNIT     XDATA          ?XD?IPS200PRO_LABEL_MODE?ZF_DEVICE_IPS200PRO
0115A4H   0115B2H   00000FH   BYTE   UNIT     XDATA          ?XD?IPS200PRO_METER_SET_VALUE?ZF_DEVICE_IPS200PRO
0115B3H   0115C1H   00000FH   BYTE   UNIT     XDATA          ?XD?SEEKFREE_ASSISTANT_CAMERA_DATA_SEND?SEEKFREE_ASSISTANT
0115C2H   0115CFH   00000EH   BYTE   UNIT     XDATA          ?XD?FIFO_INIT?ZF_COMMON_FIFO
0115D0H   0115DDH   00000EH   BYTE   UNIT     XDATA          ?XD?FUNC_STR_TO_HEX?ZF_COMMON_FUNCTION
0115DEH   0115EBH   00000EH   BYTE   UNIT     XDATA          ?XD?PWM_SET_DUTY?ZF_DRIVER_PWM
0115ECH   0115F9H   00000EH   BYTE   UNIT     XDATA          ?XD?SOFT_IIC_WRITE_16BIT_REGISTERS?ZF_DRIVER_SOFT_IIC
0115FAH   011607H   00000EH   BYTE   UNIT     XDATA          ?XD?SOFT_IIC_READ_16BIT_REGISTERS?ZF_DRIVER_SOFT_IIC
011608H   011615H   00000EH   BYTE   UNIT     XDATA          ?XD?SOFT_SPI_WRITE_16BIT_REGISTERS?ZF_DRIVER_SOFT_SPI
011616H   011623H   00000EH   BYTE   UNIT     XDATA          ?XD?SOFT_SPI_READ_16BIT_REGISTERS?ZF_DRIVER_SOFT_SPI
011624H   011631H   00000EH   BYTE   UNIT     XDATA          ?XD?SPI_TRANSFER_8BIT?ZF_DRIVER_SPI
011632H   01163FH   00000EH   BYTE   UNIT     XDATA          ?XD?SPI_TRANSFER_16BIT?ZF_DRIVER_SPI
011640H   01164DH   00000EH   BYTE   UNIT     XDATA          ?XD?GPS_GNGGA_PARSE?ZF_DEVICE_GPS_TAU1201
01164EH   01165BH   00000EH   BYTE   UNIT     XDATA          ?XD?IPS200PRO_SEND_BUFFER?ZF_DEVICE_IPS200PRO
01165CH   011669H   00000EH   BYTE   UNIT     XDATA          ?XD?IPS200PRO_SET_HIDDEN?ZF_DEVICE_IPS200PRO
01166AH   011677H   00000EH   BYTE   UNIT     XDATA          ?XD?IPS200PRO_WAVEFORM_LINE_TYPE?ZF_DEVICE_IPS200PRO
011678H   011685H   00000EH   BYTE   UNIT     XDATA          ?XD?MEDIAN_AVERAGE_FILTER?INDUCTANCE
011686H   011693H   00000EH   BYTE   UNIT     XDATA          ?XD?ADC_NORMALIZE?INDUCTANCE
011694H   0116A0H   00000DH   BYTE   UNIT     XDATA          ?XD?PRINTF_REVERSE_ORDER?ZF_COMMON_FUNCTION
0116A1H   0116ADH   00000DH   BYTE   UNIT     XDATA          ?XD?SOFT_IIC_WRITE_8BIT_REGISTERS?ZF_DRIVER_SOFT_IIC
0116AEH   0116BAH   00000DH   BYTE   UNIT     XDATA          ?XD?SOFT_IIC_READ_8BIT_REGISTERS?ZF_DRIVER_SOFT_IIC
0116BBH   0116C7H   00000DH   BYTE   UNIT     XDATA          ?XD?SOFT_IIC_INIT?ZF_DRIVER_SOFT_IIC
0116C8H   0116D4H   00000DH   BYTE   UNIT     XDATA          ?XD?SOFT_SPI_WRITE_8BIT_REGISTERS?ZF_DRIVER_SOFT_SPI
0116D5H   0116E1H   00000DH   BYTE   UNIT     XDATA          ?XD?SOFT_SPI_READ_8BIT_REGISTERS?ZF_DRIVER_SOFT_SPI
0116E2H   0116EEH   00000DH   BYTE   INSEG    XDATA          ?XD?ZF_DEVICE_DL1A
0116EFH   0116FBH   00000DH   BYTE   INSEG    XDATA          ?XD?ZF_DEVICE_DL1B
0116FCH   011708H   00000DH   BYTE   UNIT     XDATA          ?XD?GET_PARAMETER_INDEX?ZF_DEVICE_GPS_TAU1201
011709H   011715H   00000DH   BYTE   UNIT     XDATA          ?XD?IPS200PRO_RECEIVE_BUFFER?ZF_DEVICE_IPS200PRO
011716H   011722H   00000DH   BYTE   UNIT     XDATA          ?XD?IPS200PRO_SET_FORMAT?ZF_DEVICE_IPS200PRO
011723H   01172FH   00000DH   BYTE   UNIT     XDATA          ?XD?IPS200PRO_SET_DIRECTION?ZF_DEVICE_IPS200PRO
011730H   01173CH   00000DH   BYTE   UNIT     XDATA          ?XD?IPS200PRO_SET_DEFAULT_FONT?ZF_DEVICE_IPS200PRO
01173DH   011749H   00000DH   BYTE   INSEG    XDATA          ?XD?ENCODER
01174AH   011755H   00000CH   BYTE   UNIT     XDATA          ?XD?SOFT_IIC_WRITE_8BIT_ARRAY?ZF_DRIVER_SOFT_IIC
011756H   011761H   00000CH   BYTE   UNIT     XDATA          ?XD?SOFT_IIC_WRITE_16BIT_ARRAY?ZF_DRIVER_SOFT_IIC
011762H   01176DH   00000CH   BYTE   UNIT     XDATA          ?XD?SOFT_IIC_READ_8BIT_ARRAY?ZF_DRIVER_SOFT_IIC
01176EH   011779H   00000CH   BYTE   UNIT     XDATA          ?XD?SOFT_IIC_READ_16BIT_ARRAY?ZF_DRIVER_SOFT_IIC
01177AH   011785H   00000CH   BYTE   UNIT     XDATA          ?XD?SOFT_SPI_WRITE_8BIT_ARRAY?ZF_DRIVER_SOFT_SPI
011786H   011791H   00000CH   BYTE   UNIT     XDATA          ?XD?SOFT_SPI_WRITE_16BIT_ARRAY?ZF_DRIVER_SOFT_SPI
011792H   01179DH   00000CH   BYTE   UNIT     XDATA          ?XD?SOFT_SPI_READ_8BIT_ARRAY?ZF_DRIVER_SOFT_SPI
01179EH   0117A9H   00000CH   BYTE   UNIT     XDATA          ?XD?SOFT_SPI_READ_16BIT_ARRAY?ZF_DRIVER_SOFT_SPI
0117AAH   0117B5H   00000CH   BYTE   UNIT     XDATA          ?XD?SPI_WRITE_16BIT_REGISTERS?ZF_DRIVER_SPI
0117B6H   0117C1H   00000CH   BYTE   UNIT     XDATA          ?XD?SPI_READ_16BIT_REGISTERS?ZF_DRIVER_SPI
0117C2H   0117CDH   00000CH   BYTE   INSEG    XDATA          ?XD?ZF_DRIVER_TIMER
0117CEH   0117D9H   00000CH   BYTE   INSEG    XDATA          ?XD?ZF_DRIVER_UART
0117DAH   0117E5H   00000CH   BYTE   UNIT     XDATA          ?XD?UART_INIT?ZF_DRIVER_UART
0117E6H   0117F1H   00000CH   BYTE   UNIT     XDATA          ?XD?BLE6A20_SEND_BUFFER?ZF_DEVICE_BLE6A20
0117F2H   0117FDH   00000CH   BYTE   UNIT     XDATA          ?XD?BLE6A20_READ_BUFFER?ZF_DEVICE_BLE6A20
0117FEH   011809H   00000CH   BYTE   UNIT     XDATA          ?XD?DL1A_GET_SPAD_INFO?ZF_DEVICE_DL1A
01180AH   011815H   00000CH   BYTE   UNIT     XDATA          ?XD?DL1A_GET_SEQUENCE_STEP_TIMEOUTS?ZF_DEVICE_DL1A
011816H   011821H   00000CH   BYTE   UNIT     XDATA          ?XD?GPS_DATA_PARSE?ZF_DEVICE_GPS_TAU1201
011822H   01182DH   00000CH   BYTE   INSEG    XDATA          ?XD?ZF_DEVICE_IMU660RB
01182EH   011839H   00000CH   BYTE   UNIT     XDATA          ?XD?IPS114_SHOW_INT16?ZF_DEVICE_IPS114
01183AH   011845H   00000CH   BYTE   UNIT     XDATA          ?XD?IPS114_SHOW_UINT16?ZF_DEVICE_IPS114
011846H   011851H   00000CH   BYTE   UNIT     XDATA          ?XD?IPS200_SHOW_INT16?ZF_DEVICE_IPS200
011852H   01185DH   00000CH   BYTE   UNIT     XDATA          ?XD?IPS200_SHOW_UINT16?ZF_DEVICE_IPS200
01185EH   011869H   00000CH   BYTE   UNIT     XDATA          ?XD?IPS200PRO_SET_BACKLIGHT?ZF_DEVICE_IPS200PRO
01186AH   011875H   00000CH   BYTE   UNIT     XDATA          ?XD?IPS200PRO_SET_CRC_STATE?ZF_DEVICE_IPS200PRO
011876H   011881H   00000CH   BYTE   UNIT     XDATA          ?XD?IPS200PRO_SET_OPTIMIZE?ZF_DEVICE_IPS200PRO
011882H   01188DH   00000CH   BYTE   UNIT     XDATA          ?XD?TFT180_SHOW_INT16?ZF_DEVICE_TFT180
L251 LINKER/LOCATER V4.66.93.0                                                        03/26/2026  19:04:27  PAGE 7


01188EH   011899H   00000CH   BYTE   UNIT     XDATA          ?XD?TFT180_SHOW_UINT16?ZF_DEVICE_TFT180
01189AH   0118A5H   00000CH   BYTE   UNIT     XDATA          ?XD?WIRELESS_UART_SEND_BUFFER?ZF_DEVICE_WIRELESS_UART
0118A6H   0118B1H   00000CH   BYTE   UNIT     XDATA          ?XD?WIRELESS_UART_READ_BUFFER?ZF_DEVICE_WIRELESS_UART
0118B2H   0118BDH   00000CH   BYTE   UNIT     XDATA          ?XD?KALMANCREATE?IMU
0118BEH   0118C9H   00000CH   BYTE   UNIT     XDATA          ?XD?EEPROM_READ_VALUE?EEPROM
0118CAH   0118D5H   00000CH   BYTE   UNIT     XDATA          ?XD?RANGE_PROTECT?INDUCTANCE
0118D6H   0118E0H   00000BH   BYTE   UNIT     XDATA          ?XD?PIT_INIT?ZF_DRIVER_PIT
0118E1H   0118EBH   00000BH   BYTE   UNIT     XDATA          ?XD?SOFT_SPI_16BIT_DATA_HANDLER?ZF_DRIVER_SOFT_SPI
0118ECH   0118F6H   00000BH   BYTE   UNIT     XDATA          ?XD?SPI_WRITE_8BIT_REGISTERS?ZF_DRIVER_SPI
0118F7H   011901H   00000BH   BYTE   UNIT     XDATA          ?XD?SPI_READ_8BIT_REGISTERS?ZF_DRIVER_SPI
011902H   01190CH   00000BH   BYTE   UNIT     XDATA          ?XD?GPS_UART_CALLBACK?ZF_DEVICE_GPS_TAU1201
01190DH   011917H   00000BH   BYTE   UNIT     XDATA          ?XD?IPS200PRO_DELETE_WIDGETS?ZF_DEVICE_IPS200PRO
011918H   011922H   00000BH   BYTE   UNIT     XDATA          ?XD?IPS200PRO_WAVEFORM_CLEAR?ZF_DEVICE_IPS200PRO
011923H   01192CH   00000AH   BYTE   UNIT     XDATA          ?XD?IAP_READ_BUFF?ZF_DRIVER_EEPROM
01192DH   011936H   00000AH   BYTE   UNIT     XDATA          ?XD?IAP_WRITE_BUFF?ZF_DRIVER_EEPROM
011937H   011940H   00000AH   BYTE   UNIT     XDATA          ?XD?SPI_WRITE_8BIT_ARRAY?ZF_DRIVER_SPI
011941H   01194AH   00000AH   BYTE   UNIT     XDATA          ?XD?SPI_WRITE_16BIT_ARRAY?ZF_DRIVER_SPI
01194BH   011954H   00000AH   BYTE   UNIT     XDATA          ?XD?SPI_READ_8BIT_ARRAY?ZF_DRIVER_SPI
011955H   01195EH   00000AH   BYTE   UNIT     XDATA          ?XD?SPI_READ_16BIT_ARRAY?ZF_DRIVER_SPI
01195FH   011968H   00000AH   BYTE   UNIT     XDATA          ?XD?IPS114_SHOW_STRING?ZF_DEVICE_IPS114
011969H   011972H   00000AH   BYTE   INSEG    XDATA          ?XD?ZF_DEVICE_IPS200
011973H   01197CH   00000AH   BYTE   UNIT     XDATA          ?XD?IPS200_SHOW_STRING?ZF_DEVICE_IPS200
01197DH   011986H   00000AH   BYTE   UNIT     XDATA          ?XD?TFT180_SHOW_STRING?ZF_DEVICE_TFT180
011987H   011990H   00000AH   BYTE   UNIT     XDATA          ?XD?SEEKFREE_ASSISTANT_CAMERA_INFORMATION_CONFIG?SEEKFREE_
                                                             -ASSISTANT
011991H   01199AH   00000AH   BYTE   INSEG    XDATA          ?XD?MAIN
01199BH   0119A4H   00000AH   BYTE   UNIT     XDATA          ?XD?EEPROM_READ?EEPROM
0119A5H   0119ADH   000009H   BYTE   UNIT     XDATA          ?XD?FUNC_STR_TO_INT?ZF_COMMON_FUNCTION
0119AEH   0119B6H   000009H   BYTE   UNIT     XDATA          ?XD?DL1A_TIMEOUT_MICROSECONDS_TO_MCLKS?ZF_DEVICE_DL1A
0119B7H   0119BFH   000009H   BYTE   UNIT     XDATA          ?XD?DL1A_SET_SIGNAL_RATE_LIMIT?ZF_DEVICE_DL1A
0119C0H   0119C8H   000009H   BYTE   UNIT     XDATA          ?XD?ICM20602_SIMSPI_R_REG_BYTES?ZF_DEVICE_ICM20602
0119C9H   0119D1H   000009H   BYTE   UNIT     XDATA          ?XD?ICM20602_READ_REGISTERS?ZF_DEVICE_ICM20602
0119D2H   0119DAH   000009H   BYTE   UNIT     XDATA          ?XD?IMU660RA_SIMSPI_W_REG_BYTES?ZF_DEVICE_IMU660RA
0119DBH   0119E3H   000009H   BYTE   UNIT     XDATA          ?XD?IMU660RA_SIMSPI_R_REG_BYTES?ZF_DEVICE_IMU660RA
0119E4H   0119ECH   000009H   BYTE   UNIT     XDATA          ?XD?IMU660RA_WRITE_REGISTERS?ZF_DEVICE_IMU660RA
0119EDH   0119F5H   000009H   BYTE   UNIT     XDATA          ?XD?IMU660RB_SIMSPI_R_REG_BYTES?ZF_DEVICE_IMU660RB
0119F6H   0119FEH   000009H   BYTE   UNIT     XDATA          ?XD?IMU660RB_READ_REGISTERS?ZF_DEVICE_IMU660RB
0119FFH   011A07H   000009H   BYTE   UNIT     XDATA          ?XD?IMU963RA_READ_ACC_GYRO_REGISTERS?ZF_DEVICE_IMU963RA
011A08H   011A10H   000009H   BYTE   UNIT     XDATA          ?XD?IPS114_SHOW_INT8?ZF_DEVICE_IPS114
011A11H   011A19H   000009H   BYTE   UNIT     XDATA          ?XD?IPS114_SHOW_UINT8?ZF_DEVICE_IPS114
011A1AH   011A22H   000009H   BYTE   UNIT     XDATA          ?XD?IPS200_SHOW_INT8?ZF_DEVICE_IPS200
011A23H   011A2BH   000009H   BYTE   UNIT     XDATA          ?XD?IPS200_SHOW_UINT8?ZF_DEVICE_IPS200
011A2CH   011A34H   000009H   BYTE   UNIT     XDATA          ?XD?IPS200PRO_LABEL_CREATE?ZF_DEVICE_IPS200PRO
011A35H   011A3DH   000009H   BYTE   UNIT     XDATA          ?XD?IPS200PRO_TABLE_CREATE?ZF_DEVICE_IPS200PRO
011A3EH   011A46H   000009H   BYTE   UNIT     XDATA          ?XD?IPS200PRO_METER_CREATE?ZF_DEVICE_IPS200PRO
011A47H   011A4FH   000009H   BYTE   UNIT     XDATA          ?XD?IPS200PRO_CLOCK_CREATE?ZF_DEVICE_IPS200PRO
011A50H   011A58H   000009H   BYTE   UNIT     XDATA          ?XD?IPS200PRO_PROGRESS_BAR_CREATE?ZF_DEVICE_IPS200PRO
011A59H   011A61H   000009H   BYTE   UNIT     XDATA          ?XD?IPS200PRO_CALENDAR_CREATE?ZF_DEVICE_IPS200PRO
011A62H   011A6AH   000009H   BYTE   UNIT     XDATA          ?XD?IPS200PRO_WAVEFORM_CREATE?ZF_DEVICE_IPS200PRO
011A6BH   011A73H   000009H   BYTE   UNIT     XDATA          ?XD?IPS200PRO_IMAGE_CREATE?ZF_DEVICE_IPS200PRO
011A74H   011A7CH   000009H   BYTE   UNIT     XDATA          ?XD?IPS200PRO_CONTAINER_CREATE?ZF_DEVICE_IPS200PRO
011A7DH   011A85H   000009H   BYTE   UNIT     XDATA          ?XD?IPS200PRO_INIT?ZF_DEVICE_IPS200PRO
011A86H   011A8EH   000009H   BYTE   UNIT     XDATA          ?XD?TFT180_SHOW_INT8?ZF_DEVICE_TFT180
011A8FH   011A97H   000009H   BYTE   UNIT     XDATA          ?XD?TFT180_SHOW_UINT8?ZF_DEVICE_TFT180
011A98H   011AA0H   000009H   BYTE   UNIT     XDATA          ?XD?SEEKFREE_ASSISTANT_SUM?SEEKFREE_ASSISTANT
011AA1H   011AA8H   000008H   BYTE   UNIT     XDATA          ?XD?DEBUG_SEND_BUFFER?ZF_COMMON_DEBUG
011AA9H   011AB0H   000008H   BYTE   UNIT     XDATA          ?XD?DEBUG_READ_BUFFER?ZF_COMMON_DEBUG
011AB1H   011AB8H   000008H   BYTE   UNIT     XDATA          ?XD?FIFO_HEAD_OFFSET?ZF_COMMON_FIFO
011AB9H   011AC0H   000008H   BYTE   UNIT     XDATA          ?XD?FIFO_END_OFFSET?ZF_COMMON_FIFO
011AC1H   011AC8H   000008H   BYTE   UNIT     XDATA          ?XD?FUNC_GET_GREATEST_COMMON_DIVISOR?ZF_COMMON_FUNCTION
011AC9H   011AD0H   000008H   BYTE   UNIT     XDATA          ?XD?FUNC_STR_TO_UINT?ZF_COMMON_FUNCTION
011AD1H   011AD8H   000008H   BYTE   UNIT     XDATA          ?XD?ADC_MEAN_FILTER_CONVERT?ZF_DRIVER_ADC
011AD9H   011AE0H   000008H   BYTE   UNIT     XDATA          ?XD?SOFT_IIC_DELAY?ZF_DRIVER_SOFT_IIC
011AE1H   011AE8H   000008H   BYTE   UNIT     XDATA          ?XD?SOFT_IIC_WRITE_16BIT_REGISTER?ZF_DRIVER_SOFT_IIC
011AE9H   011AF0H   000008H   BYTE   UNIT     XDATA          ?XD?SOFT_IIC_READ_16BIT_REGISTER?ZF_DRIVER_SOFT_IIC
L251 LINKER/LOCATER V4.66.93.0                                                        03/26/2026  19:04:27  PAGE 8


011AF1H   011AF8H   000008H   BYTE   UNIT     XDATA          ?XD?SOFT_SPI_DELAY?ZF_DRIVER_SOFT_SPI
011AF9H   011B00H   000008H   BYTE   UNIT     XDATA          ?XD?SOFT_SPI_8BIT_DATA_HANDLER?ZF_DRIVER_SOFT_SPI
011B01H   011B08H   000008H   BYTE   UNIT     XDATA          ?XD?SOFT_SPI_WRITE_16BIT_REGISTER?ZF_DRIVER_SOFT_SPI
011B09H   011B10H   000008H   BYTE   UNIT     XDATA          ?XD?SOFT_SPI_READ_16BIT_REGISTER?ZF_DRIVER_SOFT_SPI
011B11H   011B18H   000008H   BYTE   UNIT     XDATA          ?XD?UART_WRITE_STRING?ZF_DRIVER_UART
011B19H   011B20H   000008H   BYTE   UNIT     XDATA          ?XD?BLE6A20_SEND_STRING?ZF_DEVICE_BLE6A20
011B21H   011B28H   000008H   BYTE   INSEG    XDATA          ?XD?ZF_DEVICE_IPS114
011B29H   011B30H   000008H   BYTE   UNIT     XDATA          ?XD?IPS114_SET_REGION?ZF_DEVICE_IPS114
011B31H   011B38H   000008H   BYTE   UNIT     XDATA          ?XD?IPS114_SHOW_CHAR?ZF_DEVICE_IPS114
011B39H   011B40H   000008H   BYTE   UNIT     XDATA          ?XD?IPS200_SET_REGION?ZF_DEVICE_IPS200
011B41H   011B48H   000008H   BYTE   UNIT     XDATA          ?XD?IPS200_SHOW_CHAR?ZF_DEVICE_IPS200
011B49H   011B50H   000008H   BYTE   UNIT     XDATA          ?XD?IPS200PRO_READ_PARAMETER?ZF_DEVICE_IPS200PRO
011B51H   011B58H   000008H   BYTE   INSEG    XDATA          ?XD?ZF_DEVICE_TFT180
011B59H   011B60H   000008H   BYTE   UNIT     XDATA          ?XD?TFT180_SET_REGION?ZF_DEVICE_TFT180
011B61H   011B68H   000008H   BYTE   UNIT     XDATA          ?XD?TFT180_SHOW_CHAR?ZF_DEVICE_TFT180
011B69H   011B70H   000008H   BYTE   INSEG    XDATA          ?XD?ZF_DEVICE_TYPE
011B71H   011B78H   000008H   BYTE   UNIT     XDATA          ?XD?SET_WIRELESS_TYPE?ZF_DEVICE_TYPE
011B79H   011B80H   000008H   BYTE   UNIT     XDATA          ?XD?SET_GPS_TYPE?ZF_DEVICE_TYPE
011B81H   011B88H   000008H   BYTE   UNIT     XDATA          ?XD?WIRELESS_UART_SEND_STRING?ZF_DEVICE_WIRELESS_UART
011B89H   011B90H   000008H   BYTE   UNIT     XDATA          ?XD?KALMANFILTER?IMU
011B91H   011B98H   000008H   BYTE   UNIT     XDATA          ?XD?EEPROM_WRITE_VALUE?EEPROM
011B99H   011B9FH   000007H   BYTE   UNIT     XDATA          ?XD?GPIO_INIT?ZF_DRIVER_GPIO
011BA0H   011BA6H   000007H   BYTE   UNIT     XDATA          ?XD?SOFT_IIC_READ_DATA?ZF_DRIVER_SOFT_IIC
011BA7H   011BADH   000007H   BYTE   UNIT     XDATA          ?XD?UART_QUERY_BYTE?ZF_DRIVER_UART
011BAEH   011BB4H   000007H   BYTE   UNIT     XDATA          ?XD?DL1A_TIMEOUT_MCLKS_TO_MICROSECONDS?ZF_DEVICE_DL1A
011BB5H   011BBBH   000007H   BYTE   UNIT     XDATA          ?XD?IMU963RA_GET_MAG?ZF_DEVICE_IMU963RA
011BBCH   011BC2H   000007H   BYTE   UNIT     XDATA          ?XD?SEEKFREE_ASSISTANT_CAMERA_DOT_SEND?SEEKFREE_ASSISTANT
011BC3H   011BC8H   000006H   BYTE   UNIT     XDATA          ?XD?FIFO_CLEAR?ZF_COMMON_FIFO
011BC9H   011BCEH   000006H   BYTE   INSEG    XDATA          ?XD?ZF_DRIVER_ENCODER
011BCFH   011BD4H   000006H   BYTE   UNIT     XDATA          ?XD?ENCODER_DIR_INIT?ZF_DRIVER_ENCODER
011BD5H   011BDAH   000006H   BYTE   UNIT     XDATA          ?XD?GPIO_SET_LEVEL_SPEED?ZF_DRIVER_GPIO
011BDBH   011BE0H   000006H   BYTE   UNIT     XDATA          ?XD?SOFT_IIC_SEND_DATA?ZF_DRIVER_SOFT_IIC
011BE1H   011BE6H   000006H   BYTE   UNIT     XDATA          ?XD?SOFT_IIC_WRITE_16BIT?ZF_DRIVER_SOFT_IIC
011BE7H   011BECH   000006H   BYTE   UNIT     XDATA          ?XD?SOFT_IIC_WRITE_8BIT_REGISTER?ZF_DRIVER_SOFT_IIC
011BEDH   011BF2H   000006H   BYTE   UNIT     XDATA          ?XD?SOFT_IIC_READ_16BIT?ZF_DRIVER_SOFT_IIC
011BF3H   011BF8H   000006H   BYTE   UNIT     XDATA          ?XD?SOFT_IIC_READ_8BIT_REGISTER?ZF_DRIVER_SOFT_IIC
011BF9H   011BFEH   000006H   BYTE   UNIT     XDATA          ?XD?SOFT_IIC_SCCB_WRITE_REGISTER?ZF_DRIVER_SOFT_IIC
011BFFH   011C04H   000006H   BYTE   UNIT     XDATA          ?XD?SOFT_IIC_SCCB_READ_REGISTER?ZF_DRIVER_SOFT_IIC
011C05H   011C0AH   000006H   BYTE   UNIT     XDATA          ?XD?SOFT_SPI_WRITE_16BIT?ZF_DRIVER_SOFT_SPI
011C0BH   011C10H   000006H   BYTE   UNIT     XDATA          ?XD?SOFT_SPI_WRITE_8BIT_REGISTER?ZF_DRIVER_SOFT_SPI
011C11H   011C16H   000006H   BYTE   UNIT     XDATA          ?XD?SOFT_SPI_READ_8BIT_REGISTER?ZF_DRIVER_SOFT_SPI
011C17H   011C1CH   000006H   BYTE   UNIT     XDATA          ?XD?SPI_WRITE_16BIT_REGISTER?ZF_DRIVER_SPI
011C1DH   011C22H   000006H   BYTE   UNIT     XDATA          ?XD?SPI_READ_16BIT_REGISTER?ZF_DRIVER_SPI
011C23H   011C28H   000006H   BYTE   UNIT     XDATA          ?XD?ICM20602_GET_ACC?ZF_DEVICE_ICM20602
011C29H   011C2EH   000006H   BYTE   UNIT     XDATA          ?XD?ICM20602_GET_GYRO?ZF_DEVICE_ICM20602
011C2FH   011C34H   000006H   BYTE   UNIT     XDATA          ?XD?IMU660RA_GET_ACC?ZF_DEVICE_IMU660RA
011C35H   011C3AH   000006H   BYTE   UNIT     XDATA          ?XD?IMU660RA_GET_GYRO?ZF_DEVICE_IMU660RA
011C3BH   011C40H   000006H   BYTE   UNIT     XDATA          ?XD?IMU660RB_GET_ACC?ZF_DEVICE_IMU660RB
011C41H   011C46H   000006H   BYTE   UNIT     XDATA          ?XD?IMU660RB_GET_GYRO?ZF_DEVICE_IMU660RB
011C47H   011C4CH   000006H   BYTE   UNIT     XDATA          ?XD?IMU660RB_ACC_TRANSITION?ZF_DEVICE_IMU660RB
011C4DH   011C52H   000006H   BYTE   UNIT     XDATA          ?XD?IMU660RB_GYRO_TRANSITION?ZF_DEVICE_IMU660RB
011C53H   011C58H   000006H   BYTE   UNIT     XDATA          ?XD?IMU963RA_WRITE_MAG_REGISTER?ZF_DEVICE_IMU963RA
011C59H   011C5EH   000006H   BYTE   UNIT     XDATA          ?XD?IMU963RA_GET_ACC?ZF_DEVICE_IMU963RA
011C5FH   011C64H   000006H   BYTE   UNIT     XDATA          ?XD?IMU963RA_GET_GYRO?ZF_DEVICE_IMU963RA
011C65H   011C6AH   000006H   BYTE   UNIT     XDATA          ?XD?IPS114_CLEAR?ZF_DEVICE_IPS114
011C6BH   011C70H   000006H   BYTE   UNIT     XDATA          ?XD?IPS114_DRAW_POINT?ZF_DEVICE_IPS114
011C71H   011C76H   000006H   BYTE   UNIT     XDATA          ?XD?IPS200_CLEAR?ZF_DEVICE_IPS200
011C77H   011C7CH   000006H   BYTE   UNIT     XDATA          ?XD?IPS200_DRAW_POINT?ZF_DEVICE_IPS200
011C7DH   011C82H   000006H   BYTE   UNIT     XDATA          ?XD?TFT180_CLEAR?ZF_DEVICE_TFT180
011C83H   011C88H   000006H   BYTE   UNIT     XDATA          ?XD?TFT180_DRAW_POINT?ZF_DEVICE_TFT180
011C89H   011C8EH   000006H   BYTE   UNIT     XDATA          ?XD?SET_TOF_TYPE?ZF_DEVICE_TYPE
011C8FH   011C94H   000006H   BYTE   INSEG    XDATA          ?XD?VOLTAGE_WARNING
011C95H   011C99H   000005H   BYTE   UNIT     XDATA          ?XD?IAP_READ_BYTE?ZF_DRIVER_EEPROM
011C9AH   011C9EH   000005H   BYTE   UNIT     XDATA          ?XD?IAP_WRITE_BYTE?ZF_DRIVER_EEPROM
011C9FH   011CA3H   000005H   BYTE   UNIT     XDATA          ?XD?GPIO_GET_LEVEL?ZF_DRIVER_GPIO
L251 LINKER/LOCATER V4.66.93.0                                                        03/26/2026  19:04:27  PAGE 9


011CA4H   011CA8H   000005H   BYTE   UNIT     XDATA          ?XD?GPIO_SET_LEVEL?ZF_DRIVER_GPIO
011CA9H   011CADH   000005H   BYTE   UNIT     XDATA          ?XD?SOFT_IIC_SEND_ACK?ZF_DRIVER_SOFT_IIC
011CAEH   011CB2H   000005H   BYTE   UNIT     XDATA          ?XD?SOFT_IIC_WAIT_ACK?ZF_DRIVER_SOFT_IIC
011CB3H   011CB7H   000005H   BYTE   UNIT     XDATA          ?XD?SOFT_IIC_WRITE_8BIT?ZF_DRIVER_SOFT_IIC
011CB8H   011CBCH   000005H   BYTE   UNIT     XDATA          ?XD?SOFT_IIC_READ_8BIT?ZF_DRIVER_SOFT_IIC
011CBDH   011CC1H   000005H   BYTE   UNIT     XDATA          ?XD?SOFT_SPI_WRITE_8BIT?ZF_DRIVER_SOFT_SPI
011CC2H   011CC6H   000005H   BYTE   UNIT     XDATA          ?XD?SOFT_SPI_READ_8BIT?ZF_DRIVER_SOFT_SPI
011CC7H   011CCBH   000005H   BYTE   UNIT     XDATA          ?XD?SOFT_SPI_READ_16BIT?ZF_DRIVER_SOFT_SPI
011CCCH   011CD0H   000005H   BYTE   UNIT     XDATA          ?XD?TIMER_FUNCITON_CHECK?ZF_DRIVER_TIMER
011CD1H   011CD5H   000005H   BYTE   UNIT     XDATA          ?XD?UART_FUNCITON_CHECK?ZF_DRIVER_UART
011CD6H   011CDAH   000005H   BYTE   UNIT     XDATA          ?XD?DL1A_GET_SEQUENCE_STEP_ENABLES?ZF_DEVICE_DL1A
011CDBH   011CDFH   000005H   BYTE   UNIT     XDATA          ?XD?DL1A_PERFORM_SINGLE_REF_CALIBRATION?ZF_DEVICE_DL1A
011CE0H   011CE4H   000005H   BYTE   UNIT     XDATA          ?XD?DL1B_GET_DISTANCE?ZF_DEVICE_DL1B
011CE5H   011CE9H   000005H   BYTE   UNIT     XDATA          ?XD?UTC_TO_BTC?ZF_DEVICE_GPS_TAU1201
011CEAH   011CEEH   000005H   BYTE   UNIT     XDATA          ?XD?ICM20602_SIMSPI_R_REG_BYTE?ZF_DEVICE_ICM20602
011CEFH   011CF3H   000005H   BYTE   UNIT     XDATA          ?XD?IMU660RB_SIMSPI_R_REG_BYTE?ZF_DEVICE_IMU660RB
011CF4H   011CF8H   000005H   BYTE   UNIT     XDATA          ?XD?IPS200PRO_PAGE_CREATE?ZF_DEVICE_IPS200PRO
011CF9H   011CFCH   000004H   BYTE   INSEG    XDATA          ?XD?ZF_COMMON_CLOCK
011CFDH   011D00H   000004H   BYTE   UNIT     XDATA          ?XD?SET_SYS_CLK?ZF_COMMON_CLOCK
011D01H   011D04H   000004H   BYTE   UNIT     XDATA          ?XD?CLOCK_INIT?ZF_COMMON_CLOCK
011D05H   011D08H   000004H   BYTE   UNIT     XDATA          ?XD?FIFO_USED?ZF_COMMON_FIFO
011D09H   011D0CH   000004H   BYTE   UNIT     XDATA          ?XD?FUNC_SOFT_DELAY?ZF_COMMON_FUNCTION
011D0DH   011D10H   000004H   BYTE   UNIT     XDATA          ?XD?ADC_CONVERT?ZF_DRIVER_ADC
011D11H   011D14H   000004H   BYTE   UNIT     XDATA          ?XD?ADC_INIT?ZF_DRIVER_ADC
011D15H   011D18H   000004H   BYTE   INSEG    XDATA          ?XD?ZF_DRIVER_DELAY
011D19H   011D1CH   000004H   BYTE   UNIT     XDATA          ?XD?IAP_ERASE_PAGE?ZF_DRIVER_EEPROM
011D1DH   011D20H   000004H   BYTE   UNIT     XDATA          ?XD?ENCODER_GET_COUNT?ZF_DRIVER_ENCODER
011D21H   011D24H   000004H   BYTE   UNIT     XDATA          ?XD?EXTI_INIT?ZF_DRIVER_EXTI
011D25H   011D28H   000004H   BYTE   UNIT     XDATA          ?XD?GPIO_SET_MODE?ZF_DRIVER_GPIO
011D29H   011D2CH   000004H   BYTE   UNIT     XDATA          ?XD?GPIO_SET_DIR?ZF_DRIVER_GPIO
011D2DH   011D30H   000004H   BYTE   UNIT     XDATA          ?XD?GPIO_SET_IMPEDANCE?ZF_DRIVER_GPIO
011D31H   011D34H   000004H   BYTE   UNIT     XDATA          ?XD?SOFT_IIC_START?ZF_DRIVER_SOFT_IIC
011D35H   011D38H   000004H   BYTE   UNIT     XDATA          ?XD?SOFT_IIC_STOP?ZF_DRIVER_SOFT_IIC
011D39H   011D3CH   000004H   BYTE   UNIT     XDATA          ?XD?SPI_READ_DAT?ZF_DRIVER_SPI
011D3DH   011D40H   000004H   BYTE   UNIT     XDATA          ?XD?SPI_WRITE_16BIT?ZF_DRIVER_SPI
011D41H   011D44H   000004H   BYTE   UNIT     XDATA          ?XD?SPI_WRITE_8BIT_REGISTER?ZF_DRIVER_SPI
011D45H   011D48H   000004H   BYTE   UNIT     XDATA          ?XD?SPI_READ_16BIT?ZF_DRIVER_SPI
011D49H   011D4CH   000004H   BYTE   UNIT     XDATA          ?XD?ICM20602_SELF_CHECK?ZF_DEVICE_ICM20602
011D4DH   011D50H   000004H   BYTE   UNIT     XDATA          ?XD?ICM20602_INIT?ZF_DEVICE_ICM20602
011D51H   011D54H   000004H   BYTE   UNIT     XDATA          ?XD?IMU660RA_SELF_CHECK?ZF_DEVICE_IMU660RA
011D55H   011D58H   000004H   BYTE   UNIT     XDATA          ?XD?IMU660RB_SELF_CHECK?ZF_DEVICE_IMU660RB
011D59H   011D5CH   000004H   BYTE   UNIT     XDATA          ?XD?IMU963RA_READ_MAG_REGISTER?ZF_DEVICE_IMU963RA
011D5DH   011D60H   000004H   BYTE   UNIT     XDATA          ?XD?IMU963RA_ACC_GYRO_SELF_CHECK?ZF_DEVICE_IMU963RA
011D61H   011D64H   000004H   BYTE   UNIT     XDATA          ?XD?IMU963RA_MAG_SELF_CHECK?ZF_DEVICE_IMU963RA
011D65H   011D68H   000004H   BYTE   UNIT     XDATA          ?XD?IPS114_SET_COLOR?ZF_DEVICE_IPS114
011D69H   011D6CH   000004H   BYTE   UNIT     XDATA          ?XD?IPS200_SET_COLOR?ZF_DEVICE_IPS200
011D6DH   011D70H   000004H   BYTE   UNIT     XDATA          ?XD?IPS200PRO_WAIT_IDLE?ZF_DEVICE_IPS200PRO
011D71H   011D74H   000004H   BYTE   UNIT     XDATA          ?XD?IPS200PRO_PAGE_HIDDEN?ZF_DEVICE_IPS200PRO
011D75H   011D78H   000004H   BYTE   UNIT     XDATA          ?XD?TFT180_SET_COLOR?ZF_DEVICE_TFT180
011D79H   011D7CH   000004H   BYTE   UNIT     XDATA          ?XD?TSL1401_SEND_DATA?ZF_DEVICE_TSL1401
011D7DH   011D80H   000004H   BYTE   INSEG    XDATA          ?XD?SEEKFREE_ASSISTANT_INTERFACE
011D81H   011D84H   000004H   BYTE   UNIT     XDATA          ?XD?FIRST_COMPLEMENT_INIT?IMU
011D85H   011D88H   000004H   BYTE   UNIT     XDATA          ?XD?MY_ABS?IMU
011D89H   011D8CH   000004H   BYTE   UNIT     XDATA          ?XD?VOLTAGE_WARNING_TASK?VOLTAGE_WARNING
011D8DH   011D90H   000004H   BYTE   UNIT     XDATA          ?XD?MENU_DISPLAY?MENU
011D91H   011D93H   000003H   BYTE   UNIT     XDATA          ?XD?INTERRUPT_SET_PRIORITY?ZF_COMMON_INTERRUPT
011D94H   011D96H   000003H   BYTE   UNIT     XDATA          ?XD?SPI_WRITE_DAT?ZF_DRIVER_SPI
011D97H   011D99H   000003H   BYTE   UNIT     XDATA          ?XD?SPI_WRITE_8BIT?ZF_DRIVER_SPI
011D9AH   011D9CH   000003H   BYTE   UNIT     XDATA          ?XD?SPI_READ_8BIT_REGISTER?ZF_DRIVER_SPI
011D9DH   011D9FH   000003H   BYTE   UNIT     XDATA          ?XD?UART_WRITE_BYTE?ZF_DRIVER_UART
011DA0H   011DA2H   000003H   BYTE   UNIT     XDATA          ?XD?UART_RX_INTERRUPT?ZF_DRIVER_UART
011DA3H   011DA5H   000003H   BYTE   UNIT     XDATA          ?XD?UART_READ_BYTE?ZF_DRIVER_UART
011DA6H   011DA8H   000003H   BYTE   UNIT     XDATA          ?XD?BLE6A20_SEND_BYTE?ZF_DEVICE_BLE6A20
011DA9H   011DABH   000003H   BYTE   UNIT     XDATA          ?XD?DL1A_GET_VCSEL_PULSE_PERIOD?ZF_DEVICE_DL1A
011DACH   011DAEH   000003H   BYTE   UNIT     XDATA          ?XD?DL1A_GET_DISTANCE?ZF_DEVICE_DL1A
L251 LINKER/LOCATER V4.66.93.0                                                        03/26/2026  19:04:27  PAGE 10


011DAFH   011DB1H   000003H   BYTE   UNIT     XDATA          ?XD?IMU660RA_READ_REGISTER?ZF_DEVICE_IMU660RA
011DB2H   011DB4H   000003H   BYTE   UNIT     XDATA          ?XD?WIRELESS_UART_SEND_BYTE?ZF_DEVICE_WIRELESS_UART
011DB5H   011DB6H   000002H   BYTE   UNIT     XDATA          ?XD?DELAY_CYCLES?ZF_DRIVER_DELAY
011DB7H   011DB8H   000002H   BYTE   UNIT     XDATA          ?XD?SYSTEM_DELAY_MS?ZF_DRIVER_DELAY
011DB9H   011DBAH   000002H   BYTE   UNIT     XDATA          ?XD?SYSTEM_DELAY_US?ZF_DRIVER_DELAY
011DBBH   011DBCH   000002H   BYTE   UNIT     XDATA          ?XD?ENCODER_CLEAR_COUNT?ZF_DRIVER_ENCODER
011DBDH   011DBEH   000002H   BYTE   UNIT     XDATA          ?XD?EXTI_ENABLE?ZF_DRIVER_EXTI
011DBFH   011DC0H   000002H   BYTE   UNIT     XDATA          ?XD?EXTI_DISABLE?ZF_DRIVER_EXTI
011DC1H   011DC2H   000002H   BYTE   UNIT     XDATA          ?XD?GPIO_TOGGLE_LEVEL?ZF_DRIVER_GPIO
011DC3H   011DC4H   000002H   BYTE   UNIT     XDATA          ?XD?SPI_READ_8BIT?ZF_DRIVER_SPI
011DC5H   011DC6H   000002H   BYTE   UNIT     XDATA          ?XD?UART_RX_START_BUFF?ZF_DRIVER_UART
011DC7H   011DC8H   000002H   BYTE   UNIT     XDATA          ?XD?UART_DMA_INIT?ZF_DRIVER_UART
011DC9H   011DCAH   000002H   BYTE   UNIT     XDATA          ?XD?DL1A_DECODE_TIMEOUT?ZF_DEVICE_DL1A
011DCBH   011DCCH   000002H   BYTE   UNIT     XDATA          ?XD?DL1A_ENCODE_TIMEOUT?ZF_DEVICE_DL1A
011DCDH   011DCEH   000002H   BYTE   UNIT     XDATA          ?XD?ICM20602_SIMSPI_WR_BYTE?ZF_DEVICE_ICM20602
011DCFH   011DD0H   000002H   BYTE   UNIT     XDATA          ?XD?ICM20602_SIMSPI_W_REG_BYTE?ZF_DEVICE_ICM20602
011DD1H   011DD2H   000002H   BYTE   UNIT     XDATA          ?XD?ICM20602_WRITE_REGISTER?ZF_DEVICE_ICM20602
011DD3H   011DD4H   000002H   BYTE   UNIT     XDATA          ?XD?ICM20602_READ_REGISTER?ZF_DEVICE_ICM20602
011DD5H   011DD6H   000002H   BYTE   UNIT     XDATA          ?XD?IMU660RA_SIMSPI_WR_BYTE?ZF_DEVICE_IMU660RA
011DD7H   011DD8H   000002H   BYTE   UNIT     XDATA          ?XD?IMU660RA_SIMSPI_W_REG_BYTE?ZF_DEVICE_IMU660RA
011DD9H   011DDAH   000002H   BYTE   UNIT     XDATA          ?XD?IMU660RA_WRITE_REGISTER?ZF_DEVICE_IMU660RA
011DDBH   011DDCH   000002H   BYTE   UNIT     XDATA          ?XD?IMU660RB_SIMSPI_WR_BYTE?ZF_DEVICE_IMU660RB
011DDDH   011DDEH   000002H   BYTE   UNIT     XDATA          ?XD?IMU660RB_SIMSPI_W_REG_BYTE?ZF_DEVICE_IMU660RB
011DDFH   011DE0H   000002H   BYTE   UNIT     XDATA          ?XD?IMU660RB_WRITE_REGISTER?ZF_DEVICE_IMU660RB
011DE1H   011DE2H   000002H   BYTE   UNIT     XDATA          ?XD?IMU660RB_READ_REGISTER?ZF_DEVICE_IMU660RB
011DE3H   011DE4H   000002H   BYTE   UNIT     XDATA          ?XD?IMU963RA_WRITE_ACC_GYRO_REGISTER?ZF_DEVICE_IMU963RA
011DE5H   011DE6H   000002H   BYTE   UNIT     XDATA          ?XD?IMU963RA_READ_ACC_GYRO_REGISTER?ZF_DEVICE_IMU963RA
011DE7H   011DE8H   000002H   BYTE   UNIT     XDATA          ?XD?IMU963RA_CONNECT_MAG?ZF_DEVICE_IMU963RA
011DE9H   011DEAH   000002H   BYTE   UNIT     XDATA          ?XD?IPS114_SET_DIR?ZF_DEVICE_IPS114
011DEBH   011DECH   000002H   BYTE   UNIT     XDATA          ?XD?IPS200_SET_DIR?ZF_DEVICE_IPS200
011DEDH   011DEEH   000002H   BYTE   UNIT     XDATA          ?XD?TFT180_SET_DIR?ZF_DEVICE_TFT180
011DEFH   011DF0H   000002H   BYTE   UNIT     XDATA          ?XD?SEEKFREE_ASSISTANT_INTERFACE_INIT?SEEKFREE_ASSISTANT_I
                                                             -NTERFACE
011DF1H   011DF2H   000002H   BYTE   UNIT     XDATA          ?XD?IMU_GYRO_OFFSET_INIT?IMU
011DF3H   011DF4H   000002H   BYTE   INSEG    XDATA          ?XD?EEPROM
011DF5H   011DF6H   000002H   BYTE   UNIT     XDATA          ?XD?MOTOR_L?MOTOR
011DF7H   011DF8H   000002H   BYTE   UNIT     XDATA          ?XD?MOTOR_R?MOTOR
011DF9H   011DFAH   000002H   BYTE   UNIT     XDATA          ?XD?LED_ON?LED
011DFBH   011DFCH   000002H   BYTE   UNIT     XDATA          ?XD?LED_OFF?LED
011DFDH   011DFEH   000002H   BYTE   UNIT     XDATA          ?XD?LED_SWITCH?LED
011DFFH   011DFFH   000001H   BYTE   UNIT     XDATA          ?XD?DEBUG_INTERRUPR_HANDLER?ZF_COMMON_DEBUG
011E00H   011E00H   000001H   BYTE   UNIT     XDATA          ?XD?PUTCHAR?ZF_COMMON_DEBUG
011E01H   011E01H   000001H   BYTE   UNIT     XDATA          ?XD?DEBUG_INIT?ZF_COMMON_DEBUG
011E02H   011E02H   000001H   BYTE   INSEG    XDATA          ?XD?ZF_DRIVER_ADC
011E03H   011E03H   000001H   BYTE   UNIT     XDATA          ?XD?IAP_SET_TPS?ZF_DRIVER_EEPROM
011E04H   011E04H   000001H   BYTE   UNIT     XDATA          ?XD?BLE6A20_CALLBACK?ZF_DEVICE_BLE6A20
011E05H   011E05H   000001H   BYTE   UNIT     XDATA          ?XD?BLE6A20_INIT?ZF_DEVICE_BLE6A20
011E06H   011E06H   000001H   BYTE   UNIT     XDATA          ?XD?DL1B_INIT?ZF_DEVICE_DL1B
011E07H   011E07H   000001H   BYTE   UNIT     XDATA          ?XD?IMU660RA_INIT?ZF_DEVICE_IMU660RA
011E08H   011E08H   000001H   BYTE   UNIT     XDATA          ?XD?IMU660RB_INIT?ZF_DEVICE_IMU660RB
011E09H   011E09H   000001H   BYTE   UNIT     XDATA          ?XD?IMU963RA_INIT?ZF_DEVICE_IMU963RA
011E0AH   011E0AH   000001H   BYTE   UNIT     XDATA          ?XD?IPS114_WRITE_INDEX?ZF_DEVICE_IPS114
011E0BH   011E0BH   000001H   BYTE   UNIT     XDATA          ?XD?IPS200_WRITE_INDEX?ZF_DEVICE_IPS200
011E0CH   011E0CH   000001H   BYTE   UNIT     XDATA          ?XD?TFT180_WRITE_INDEX?ZF_DEVICE_TFT180
011E0DH   011E0DH   000001H   BYTE   UNIT     XDATA          ?XD?TSL1401_COLLECT_PIT_HANDLER?ZF_DEVICE_TSL1401
011E0EH   011E0EH   000001H   BYTE   UNIT     XDATA          ?XD?WIRELESS_UART_CALLBACK?ZF_DEVICE_WIRELESS_UART
011E0FH   011E0FH   000001H   BYTE   UNIT     XDATA          ?XD?WIRELESS_UART_INIT?ZF_DEVICE_WIRELESS_UART
011E10H   011E10H   000001H   BYTE   INSEG    XDATA          ?XD?ISR
011E11H   FEFFFFH   FDE1EFH   ---    ---      **GAP**
FF0000H   FF0002H   000003H   ---    OFFS..   CODE           ?CO?START251?4
FF0003H   FF0005H   000003H   ---    OFFS..   CODE           ?PR?IV?0
FF0006H   FF0009H   000004H   BYTE   INSEG    CODE           ?PR?INTERRUPT_GLOBAL_DISABLE?ZF_COMMON_INTERRUPT
FF000AH   FF000AH   000001H   ---    ---      **GAP**
FF000BH   FF000DH   000003H   ---    OFFS..   CODE           ?PR?IV?1
FF000EH   FF0011H   000004H   BYTE   INSEG    CODE           ?PR?INTERRUPT_GLOBAL_ENABLE?ZF_COMMON_INTERRUPT
L251 LINKER/LOCATER V4.66.93.0                                                        03/26/2026  19:04:27  PAGE 11


FF0012H   FF0012H   000001H   ---    ---      **GAP**
FF0013H   FF0015H   000003H   ---    OFFS..   CODE           ?PR?IV?2
FF0016H   FF0019H   000004H   BYTE   UNIT     CONST          ?CO?PRINTF
FF001AH   FF001AH   000001H   ---    ---      **GAP**
FF001BH   FF001DH   000003H   ---    OFFS..   CODE           ?PR?IV?3
FF001EH   FF0022H   000005H   BYTE   UNIT     HCONST         ?HC?VOLTAGE_WARNING
FF0023H   FF0025H   000003H   ---    OFFS..   CODE           ?PR?IV?4
FF0026H   FF0042H   00001DH   BYTE   INSEG    CODE           ?PR?IMU660RA_SIMSPI_W_REG_BYTE?ZF_DEVICE_IMU660RA
FF0043H   FF0045H   000003H   ---    OFFS..   CODE           ?PR?IV?8
FF0046H   FF0047H   000002H   BYTE   UNIT     HCONST         ?HC?MAIN
FF0048H   FF0052H   00000BH   ---    ---      **GAP**
FF0053H   FF0055H   000003H   ---    OFFS..   CODE           ?PR?IV?10
FF0056H   FF005AH   000005H   ---    ---      **GAP**
FF005BH   FF005DH   000003H   ---    OFFS..   CODE           ?PR?IV?11
FF005EH   FF0062H   000005H   ---    ---      **GAP**
FF0063H   FF0065H   000003H   ---    OFFS..   CODE           ?PR?IV?12
FF0066H   FF007DH   000018H   BYTE   INSEG    CODE           ?PR?SPI_WRITE_8BIT?ZF_DRIVER_SPI
FF007EH   FF0082H   000005H   ---    ---      **GAP**
FF0083H   FF0085H   000003H   ---    OFFS..   CODE           ?PR?IV?16
FF0086H   FF008AH   000005H   ---    ---      **GAP**
FF008BH   FF008DH   000003H   ---    OFFS..   CODE           ?PR?IV?17
FF008EH   FF0092H   000005H   ---    ---      **GAP**
FF0093H   FF0095H   000003H   ---    OFFS..   CODE           ?PR?IV?18
FF0096H   FF009AH   000005H   ---    ---      **GAP**
FF009BH   FF009DH   000003H   ---    OFFS..   CODE           ?PR?IV?19
FF009EH   FF00A2H   000005H   ---    ---      **GAP**
FF00A3H   FF00A5H   000003H   ---    OFFS..   CODE           ?PR?IV?20
FF00A6H   FF0199H   0000F4H   BYTE   INSEG    CODE           ?PR?SOFT_IIC_SEND_DATA?ZF_DRIVER_SOFT_IIC
FF019AH   FF019AH   000001H   ---    ---      **GAP**
FF019BH   FF019DH   000003H   ---    OFFS..   CODE           ?CO?stc32g_isr?1
FF019EH   FF01AAH   00000DH   ---    ---      **GAP**
FF01ABH   FF01ADH   000003H   ---    OFFS..   CODE           ?CO?stc32g_isr?2
FF01AEH   FF01BAH   00000DH   ---    ---      **GAP**
FF01BBH   FF01BDH   000003H   ---    OFFS..   CODE           ?CO?stc32g_isr?3
FF01BEH   FF01CAH   00000DH   ---    ---      **GAP**
FF01CBH   FF01CDH   000003H   ---    OFFS..   CODE           ?CO?stc32g_isr?4
FF01CEH   FF21CDH   002000H   BYTE   UNIT     CODE           ?CO?ZF_DEVICE_CONFIG
FF21CEH   FF3070H   000EA3H   BYTE   UNIT     CODE           ?C?LIB_CODE
FF3071H   FF398FH   00091FH   BYTE   INSEG    CODE           ?PR?ZF_SPRINTF?ZF_COMMON_FUNCTION
FF3990H   FF3F7FH   0005F0H   BYTE   UNIT     CODE           ?CO?ZF_COMMON_FONT
FF3F80H   FF4527H   0005A8H   BYTE   INSEG    CODE           ?PR?FIFO_WRITE_BUFFER?ZF_COMMON_FIFO
FF4528H   FF4AABH   000584H   BYTE   INSEG    CODE           ?PR?GPIO_SET_DIR?ZF_DRIVER_GPIO
FF4AACH   FF4F84H   0004D9H   BYTE   INSEG    CODE           ?PR?SPI_INIT?ZF_DRIVER_SPI
FF4F85H   FF5297H   000313H   BYTE   INSEG    CODE           ?PR?GPIO_SET_LEVEL_SPEED?ZF_DRIVER_GPIO
FF5298H   FF5588H   0002F1H   BYTE   INSEG    CODE           ?PR?UART_INIT?ZF_DRIVER_UART
FF5589H   FF5874H   0002ECH   BYTE   INSEG    CODE           ?PR?GPIO_SET_MODE?ZF_DRIVER_GPIO
FF5875H   FF5B36H   0002C2H   BYTE   INSEG    CODE           ?PR?IPS114_INIT?ZF_DEVICE_IPS114
FF5B37H   FF5DB9H   000283H   BYTE   INSEG    CODE           ?PR?PIT_INIT?ZF_DRIVER_PIT
FF5DBAH   FF5FFEH   000245H   BYTE   INSEG    CODE           ?PR?IPS114_SET_REGION?ZF_DEVICE_IPS114
FF5FFFH   FF6213H   000215H   BYTE   INSEG    CODE           ?PR?GPIO_SET_LEVEL?ZF_DRIVER_GPIO
FF6214H   FF6424H   000211H   BYTE   INSEG    CODE           ?PR?SET_SYS_CLK?ZF_COMMON_CLOCK
FF6425H   FF6618H   0001F4H   BYTE   INSEG    CODE           ?PR?IMU660RA_INIT?ZF_DEVICE_IMU660RA
FF6619H   FF6803H   0001EBH   BYTE   INSEG    CODE           ?PR?IPS114_SHOW_FLOAT?ZF_DEVICE_IPS114
FF6804H   FF69D9H   0001D6H   BYTE   INSEG    CODE           ?PR?UART_WRITE_BUFFER?ZF_DRIVER_UART
FF69DAH   FF6B8BH   0001B2H   BYTE   INSEG    CODE           ?PR?GPIO_SET_IMPEDANCE?ZF_DRIVER_GPIO
FF6B8CH   FF6D2EH   0001A3H   BYTE   INSEG    CODE           ?PR?UART_DMA_INIT?ZF_DRIVER_UART
FF6D2FH   FF6EC5H   000197H   BYTE   INSEG    CODE           ?PR?NUMBER_CONVERSION_ASCII?ZF_COMMON_FUNCTION
FF6EC6H   FF700BH   000146H   BYTE   INSEG    CODE           ?PR?GPIO_GET_LEVEL?ZF_DRIVER_GPIO
FF700CH   FF714DH   000142H   BYTE   INSEG    CODE           ?PR?SOFT_IIC_READ_DATA?ZF_DRIVER_SOFT_IIC
FF714EH   FF7284H   000137H   BYTE   INSEG    CODE           ?PR?MEDIAN_AVERAGE_FILTER?INDUCTANCE
FF7285H   FF73A3H   00011FH   BYTE   INSEG    CODE           ?PR?IMU_GYRO_OFFSET_INIT?IMU
FF73A4H   FF74BFH   00011CH   BYTE   INSEG    CODE           ?PR?IPS114_SHOW_CHAR?ZF_DEVICE_IPS114
FF74C0H   FF75D8H   000119H   BYTE   INSEG    CODE           ?PR?IPS114_SHOW_UINT16?ZF_DEVICE_IPS114
FF75D9H   FF76E8H   000110H   BYTE   INSEG    CODE           ?PR?WIRELESS_UART_SEND_BUFFER?ZF_DEVICE_WIRELESS_UART
FF76E9H   FF77F7H   00010FH   BYTE   INSEG    CODE           ?PR?GPIO_INIT?ZF_DRIVER_GPIO
L251 LINKER/LOCATER V4.66.93.0                                                        03/26/2026  19:04:27  PAGE 12


FF77F8H   FF7901H   00010AH   BYTE   INSEG    CODE           ?PR?INDUCTANCE_READ?INDUCTANCE
FF7902H   FF7A01H   000100H   BYTE   INSEG    CODE           ?PR?MENU_DISPLAY?MENU
FF7A02H   FF7AFAH   0000F9H   BYTE   INSEG    CODE           ?PR?PRINTF_REVERSE_ORDER?ZF_COMMON_FUNCTION
FF7AFBH   FF7BE8H   0000EEH   BYTE   INSEG    CODE           ?PR?KALMANCREATE?IMU
FF7BE9H   FF7CCBH   0000E3H   BYTE   INSEG    CODE           ?PR?FIFO_INIT?ZF_COMMON_FIFO
FF7CCCH   FF7DAEH   0000E3H   BYTE   INSEG    CODE           ?PR?SOFT_IIC_WAIT_ACK?ZF_DRIVER_SOFT_IIC
FF7DAFH   FF7E89H   0000DBH   BYTE   INSEG    CODE           ?PR?SOFT_IIC_SEND_ACK?ZF_DRIVER_SOFT_IIC
FF7E8AH   FF7F4EH   0000C5H   BYTE   INSEG    CODE           ?PR?ADC_INIT?ZF_DRIVER_ADC
FF7F4FH   FF8012H   0000C4H   BYTE   INSEG    CODE           ?PR?IPS114_SHOW_STRING?ZF_DEVICE_IPS114
FF8013H   FF80D4H   0000C2H   BYTE   INSEG    CODE           ?PR?UART_RX_START_BUFF?ZF_DRIVER_UART
FF80D5H   FF8193H   0000BFH   BYTE   INSEG    CODE           ?PR?SOFT_IIC_STOP?ZF_DRIVER_SOFT_IIC
FF8194H   FF8250H   0000BDH   BYTE   INSEG    CODE           ?PR?SEND_DATA_TO_PC?MENU
FF8251H   FF8300H   0000B0H   BYTE   INSEG    CODE           ?PR?DMA_UART1_IRQHANDLER?ISR
FF8301H   FF83A7H   0000A7H   BYTE   INSEG    CODE           ?PR?DEBUG_INIT?ZF_COMMON_DEBUG
FF83A8H   FF844EH   0000A7H   BYTE   INSEG    CODE           ?PR?SOFT_IIC_START?ZF_DRIVER_SOFT_IIC
FF844FH   FF84EEH   0000A0H   BYTE   INSEG    CODE           ?PR?FIFO_HEAD_OFFSET?ZF_COMMON_FIFO
FF84EFH   FF858DH   00009FH   BYTE   INSEG    CODE           ?PR?UART_QUERY_BYTE?ZF_DRIVER_UART
FF858EH   FF862CH   00009FH   BYTE   INSEG    CODE           ?PR?SET_WIRELESS_TYPE?ZF_DEVICE_TYPE
FF862DH   FF86C1H   000095H   BYTE   INSEG    CODE           ?PR?MENU_INIT?MENU
FF86C2H   FF8750H   00008FH   BYTE   INSEG    CODE           ?PR?DMA_UART2_IRQHANDLER?ISR
FF8751H   FF87DFH   00008FH   BYTE   INSEG    CODE           ?PR?DMA_UART3_IRQHANDLER?ISR
FF87E0H   FF886EH   00008FH   BYTE   INSEG    CODE           ?PR?DMA_UART4_IRQHANDLER?ISR
FF886FH   FF88F3H   000085H   BYTE   INSEG    CODE           ?PR?IPS114_CLEAR?ZF_DEVICE_IPS114
FF88F4H   FF8974H   000081H   BYTE   INSEG    CODE           ?PR?CLOCK_INIT?ZF_COMMON_CLOCK
FF8975H   FF89F5H   000081H   BYTE   INSEG    CODE           ?PR?TIMER_FUNCITON_CHECK?ZF_DRIVER_TIMER
FF89F6H   FF8A76H   000081H   BYTE   INSEG    CODE           ?PR?UART_FUNCITON_CHECK?ZF_DRIVER_UART
FF8A77H   FF8AF7H   000081H   BYTE   INSEG    CODE           ?PR?WIRELESS_UART_INIT?ZF_DEVICE_WIRELESS_UART
FF8AF8H   FF8B70H   000079H   BYTE   INSEG    CODE           ?PR?DEBUG_ASSERT_HANDLER?ZF_COMMON_DEBUG
FF8B71H   FF8BE8H   000078H   BYTE   INSEG    CODE           ?PR?SPI_READ_DAT?ZF_DRIVER_SPI
FF8BE9H   FF8C58H   000070H   BYTE   INSEG    CODE           ?PR?IMU660RA_SIMSPI_R_REG_BYTES?ZF_DEVICE_IMU660RA
FF8C59H   FF8CBEH   000066H   BYTE   INSEG    CODE           ?PR?UART_RX_INTERRUPT?ZF_DRIVER_UART
FF8CBFH   FF8D23H   000065H   BYTE   INSEG    CODE           ?PR?ADC_CONVERT?ZF_DRIVER_ADC
FF8D24H   FF8D88H   000065H   BYTE   INSEG    CODE           ?PR?IMU660RA_SELF_CHECK?ZF_DEVICE_IMU660RA
FF8D89H   FF8DE5H   00005DH   BYTE   INSEG    CODE           ?PR?WIRELESS_UART_SEND_STRING?ZF_DEVICE_WIRELESS_UART
FF8DE6H   FF8E41H   00005CH   BYTE   INSEG    CODE           ?PR?SPI_WRITE_DAT?ZF_DRIVER_SPI
FF8E42H   FF8E9DH   00005CH   BYTE   INSEG    CODE           ?PR?IMU660RA_SIMSPI_W_REG_BYTES?ZF_DEVICE_IMU660RA
FF8E9EH   FF8EF5H   000058H   BYTE   INSEG    CODE           ?PR?SYSTEM_DELAY_INIT?ZF_DRIVER_DELAY
FF8EF6H   FF8F16H   000021H   BYTE   UNIT     CODE           ?C_C51STARTUP
FF8F17H   FF8F47H   000031H   BYTE   UNIT     CODE           ?C_C51STARTUP?2
FF8F48H   FF8F4AH   000003H   BYTE   UNIT     CODE           ?C_C51STARTUP?3
FF8F4BH   FF8F9DH   000053H   BYTE   INSEG    CODE           ?PR?IMU660RA_SIMSPI_WR_BYTE?ZF_DEVICE_IMU660RA
FF8F9EH   FF8FEBH   00004EH   BYTE   INSEG    CODE           ?PR?GYRO_INIT?IMU
FF8FECH   FF902EH   000043H   BYTE   INSEG    CODE           ?PR?CAR_INIT?INIT
FF902FH   FF906EH   000040H   BYTE   INSEG    CODE           ?PR?INT0_IRQHANDLER?ISR
FF906FH   FF90AEH   000040H   BYTE   INSEG    CODE           ?PR?INT1_IRQHANDLER?ISR
FF90AFH   FF90EEH   000040H   BYTE   INSEG    CODE           ?PR?INT2_IRQHANDLER?ISR
FF90EFH   FF912EH   000040H   BYTE   INSEG    CODE           ?PR?INT3_IRQHANDLER?ISR
FF912FH   FF916EH   000040H   BYTE   INSEG    CODE           ?PR?INT4_IRQHANDLER?ISR
FF916FH   FF91AEH   000040H   BYTE   INSEG    CODE           ?PR?TM0_IRQHANDLER?ISR
FF91AFH   FF91EEH   000040H   BYTE   INSEG    CODE           ?PR?TM1_IRQHANDLER?ISR
FF91EFH   FF922EH   000040H   BYTE   INSEG    CODE           ?PR?TM2_IRQHANDLER?ISR
FF922FH   FF926EH   000040H   BYTE   INSEG    CODE           ?PR?TM3_IRQHANDLER?ISR
FF926FH   FF92AEH   000040H   BYTE   INSEG    CODE           ?PR?TM4_IRQHANDLER?ISR
FF92AFH   FF92EAH   00003CH   BYTE   INSEG    CODE           ?PR?DEBUG_INTERRUPR_HANDLER?ZF_COMMON_DEBUG
FF92EBH   FF9326H   00003CH   BYTE   INSEG    CODE           ?PR?SOFT_IIC_DELAY?ZF_DRIVER_SOFT_IIC
FF9327H   FF9361H   00003BH   BYTE   INSEG    CODE           ?PR?SPI_WRITE_16BIT?ZF_DRIVER_SPI
FF9362H   FF939CH   00003BH   BYTE   INSEG    CODE           ?PR?IPS114_SET_DIR?ZF_DEVICE_IPS114
FF939DH   FF93D6H   00003AH   BYTE   INSEG    CODE           ?PR?IMU660RA_WRITE_REGISTERS?ZF_DEVICE_IMU660RA
FF93D7H   FF9402H   00002CH   BYTE   INSEG    CODE           ?PR?MAIN?MAIN
FF9403H   FF942AH   000028H   BYTE   INSEG    CODE           ?PR?IMU660RA_READ_REGISTER?ZF_DEVICE_IMU660RA
FF942BH   FF9450H   000026H   BYTE   INSEG    CODE           ?PR?WIRELESS_UART_CALLBACK?ZF_DEVICE_WIRELESS_UART
FF9451H   FF9475H   000025H   BYTE   INSEG    CODE           ?PR?SYSTEM_DELAY_MS?ZF_DRIVER_DELAY
FF9476H   FF949AH   000025H   BYTE   INSEG    CODE           ?PR?IPS114_SET_COLOR?ZF_DEVICE_IPS114
FF949BH   FF94BFH   000025H   BYTE   INSEG    CODE           ?PR?INDUCTANCE_INIT?INDUCTANCE
FF94C0H   FF94E4H   000025H   BYTE   INSEG    CODE           ?PR?MEMCPY?_?MEMCPY
L251 LINKER/LOCATER V4.66.93.0                                                        03/26/2026  19:04:27  PAGE 13


FF94E5H   FF9507H   000023H   BYTE   INSEG    CODE           ?PR?_M?MAIN
FF9508H   FF9529H   000022H   BYTE   INSEG    CODE           ?PR?IPS114_WRITE_INDEX?ZF_DEVICE_IPS114
FF952AH   FF9549H   000020H   BYTE   INSEG    CODE           ?PR?UART_WRITE_BYTE?ZF_DRIVER_UART
FF954AH   FF9567H   00001EH   BYTE   INSEG    CODE           ?PR?DELAY_CYCLES?ZF_DRIVER_DELAY
FF9568H   FF9585H   00001EH   BYTE   INSEG    CODE           ?PR?IMU660RA_WRITE_REGISTER?ZF_DEVICE_IMU660RA
FF9586H   FF9597H   000012H   BYTE   INSEG    CODE           ?PR?PUTCHAR?ZF_COMMON_DEBUG
FF9598H   FF95A9H   000012H   BYTE   INSEG    CODE           ?PR?BUZZER_INIT?BUZZER
FF95AAH   FF95B7H   00000EH   BYTE   INSEG    CODE           ?PR?STRLEN?_?STRLEN
FF95B8H   FF9AABH   0004F4H   BYTE   UNIT     HCONST         ?C_INITHDATA
FF9AACH   FF9CABH   000200H   BYTE   UNIT     HCONST         ?HC?ZF_DRIVER_EEPROM
FF9CACH   FF9DDAH   00012FH   BYTE   UNIT     HCONST         ?HC?ZF_DEVICE_DL1A
FF9DDBH   FF9EAAH   0000D0H   BYTE   UNIT     HCONST         ?HC?ZF_DEVICE_IMU963RA
FF9EABH   FF9F51H   0000A7H   BYTE   UNIT     HCONST         ?HC?ZF_DEVICE_IMU660RA
FF9F52H   FF9FF5H   0000A4H   BYTE   UNIT     HCONST         ?HC?SEEKFREE_ASSISTANT
FF9FF6H   FFA097H   0000A2H   BYTE   UNIT     HCONST         ?HC?ZF_DEVICE_GPS_TAU1201
FFA098H   FFA121H   00008AH   BYTE   UNIT     HCONST         ?HC?ZF_DRIVER_PWM
FFA122H   FFA1A9H   000088H   BYTE   UNIT     HCONST         ?HC?ZF_DEVICE_ICM20602
FFA1AAH   FFA224H   00007BH   BYTE   UNIT     HCONST         ?HC?MENU
FFA225H   FFA28FH   00006BH   BYTE   UNIT     HCONST         ?HC?ZF_DRIVER_UART
FFA290H   FFA2E6H   000057H   BYTE   UNIT     HCONST         ?HC?ZF_COMMON_FUNCTION
FFA2E7H   FFA31AH   000034H   BYTE   UNIT     HCONST         ?HC?ZF_DEVICE_WIRELESS_UART
FFA31BH   FFA34DH   000033H   BYTE   UNIT     HCONST         ?HC?ZF_DEVICE_IPS114
FFA34EH   FFA380H   000033H   BYTE   UNIT     HCONST         ?HC?ZF_DEVICE_IPS200
FFA381H   FFA3B3H   000033H   BYTE   UNIT     HCONST         ?HC?ZF_DEVICE_TFT180
FFA3B4H   FFA3E2H   00002FH   BYTE   UNIT     HCONST         ?HC?ZF_DRIVER_SOFT_IIC
FFA3E3H   FFA411H   00002FH   BYTE   UNIT     HCONST         ?HC?ZF_DRIVER_SOFT_SPI
FFA412H   FFA43FH   00002EH   BYTE   UNIT     HCONST         ?HC?ZF_DRIVER_ENCODER
FFA440H   FFA46DH   00002EH   BYTE   UNIT     HCONST         ?HC?ZF_DEVICE_BLE6A20
FFA46EH   FFA498H   00002BH   BYTE   UNIT     HCONST         ?HC?ZF_COMMON_FIFO
FFA499H   FFA4C3H   00002BH   BYTE   UNIT     HCONST         ?HC?ZF_DRIVER_GPIO
FFA4C4H   FFA4EDH   00002AH   BYTE   UNIT     HCONST         ?HC?ZF_DRIVER_ADC
FFA4EEH   FFA517H   00002AH   BYTE   UNIT     HCONST         ?HC?ZF_DRIVER_SPI
FFA518H   FFA53CH   000025H   BYTE   UNIT     HCONST         ?HC?ZF_COMMON_DEBUG
FFA53DH   FFA557H   00001BH   BYTE   UNIT     HCONST         ?HC?ZF_DEVICE_IMU660RB

* * * * * * * * *   R E M O V E D     S E G M E N T S   * * * * * * * *
   *DEL*:           00004EH   BYTE   INSEG    CODE           ?PR?DEBUG_READ_BUFFER?ZF_COMMON_DEBUG
   *DEL*:           000067H   BYTE   INSEG    CODE           ?PR?DEBUG_SEND_BUFFER?ZF_COMMON_DEBUG
   *DEL*:           0005B1H   BYTE   INSEG    CODE           ?PR?FIFO_READ_BUFFER?ZF_COMMON_FIFO
   *DEL*:           000186H   BYTE   INSEG    CODE           ?PR?FIFO_CLEAR?ZF_COMMON_FIFO
   *DEL*:           0000A0H   BYTE   INSEG    CODE           ?PR?FIFO_END_OFFSET?ZF_COMMON_FIFO
   *DEL*:           000059H   BYTE   INSEG    CODE           ?PR?FIFO_USED?ZF_COMMON_FIFO
   *DEL*:           0003B0H   BYTE   INSEG    CODE           ?PR?FUNC_DOUBLE_TO_STR?ZF_COMMON_FUNCTION
   *DEL*:           000275H   BYTE   INSEG    CODE           ?PR?FUNC_STR_TO_DOUBLE?ZF_COMMON_FUNCTION
   *DEL*:           0003B0H   BYTE   INSEG    CODE           ?PR?FUNC_FLOAT_TO_STR?ZF_COMMON_FUNCTION
   *DEL*:           000275H   BYTE   INSEG    CODE           ?PR?FUNC_STR_TO_FLOAT?ZF_COMMON_FUNCTION
   *DEL*:           000028H   BYTE   INSEG    CODE           ?PR?FUNC_SOFT_DELAY?ZF_COMMON_FUNCTION
   *DEL*:           00011BH   BYTE   INSEG    CODE           ?PR?FUNC_UINT_TO_STR?ZF_COMMON_FUNCTION
   *DEL*:           0000C0H   BYTE   INSEG    CODE           ?PR?FUNC_STR_TO_UINT?ZF_COMMON_FUNCTION
   *DEL*:           000184H   BYTE   INSEG    CODE           ?PR?FUNC_HEX_TO_STR?ZF_COMMON_FUNCTION
   *DEL*:           0001ECH   BYTE   INSEG    CODE           ?PR?FUNC_STR_TO_HEX?ZF_COMMON_FUNCTION
   *DEL*:           0001B5H   BYTE   INSEG    CODE           ?PR?FUNC_INT_TO_STR?ZF_COMMON_FUNCTION
   *DEL*:           000141H   BYTE   INSEG    CODE           ?PR?FUNC_STR_TO_INT?ZF_COMMON_FUNCTION
   *DEL*:           0000A6H   BYTE   INSEG    CODE           ?PR?FUNC_GET_GREATEST_COMMON_DIVISOR?ZF_COMMON_FUNCTION
   *DEL*:           0006E4H   BYTE   INSEG    CODE           ?PR?VSNPRINTF?ZF_COMMON_FUNCTION
   *DEL*:           0000CDH   BYTE   INSEG    CODE           ?PR?INTERRUPT_SET_PRIORITY?ZF_COMMON_INTERRUPT
   *DEL*:           000090H   BYTE   INSEG    CODE           ?PR?ADC_MEAN_FILTER_CONVERT?ZF_DRIVER_ADC
   *DEL*:           000025H   BYTE   INSEG    CODE           ?PR?SYSTEM_DELAY_US?ZF_DRIVER_DELAY
   *DEL*:           00002AH   BYTE   INSEG    CODE           ?PR?IAP_SET_TPS?ZF_DRIVER_EEPROM
   *DEL*:           00000DH   BYTE   INSEG    CODE           ?PR?EEPROM_TRIG?ZF_DRIVER_EEPROM
   *DEL*:           00004FH   BYTE   INSEG    CODE           ?PR?IAP_ERASE_PAGE?ZF_DRIVER_EEPROM
   *DEL*:           000004H   BYTE   INSEG    CODE           ?PR?IAP_IDLE?ZF_DRIVER_EEPROM
   *DEL*:           000075H   BYTE   INSEG    CODE           ?PR?IAP_READ_BUFF?ZF_DRIVER_EEPROM
   *DEL*:           000119H   BYTE   INSEG    CODE           ?PR?EXTERN_IAP_WRITE_BUFF?ZF_DRIVER_EEPROM
   *DEL*:           000072H   BYTE   INSEG    CODE           ?PR?IAP_WRITE_BUFF?ZF_DRIVER_EEPROM
L251 LINKER/LOCATER V4.66.93.0                                                        03/26/2026  19:04:27  PAGE 14


   *DEL*:           000052H   BYTE   INSEG    CODE           ?PR?IAP_READ_BYTE?ZF_DRIVER_EEPROM
   *DEL*:           000008H   BYTE   INSEG    CODE           ?PR?IAP_INIT?ZF_DRIVER_EEPROM
   *DEL*:           000052H   BYTE   INSEG    CODE           ?PR?IAP_WRITE_BYTE?ZF_DRIVER_EEPROM
   *DEL*:           000012H   BYTE   INSEG    CODE           ?PR?IAP_GET_CMD_STATE?ZF_DRIVER_EEPROM
   *DEL*:           000109H   BYTE   INSEG    CODE           ?PR?ENCODER_GET_COUNT?ZF_DRIVER_ENCODER
   *DEL*:           00010DH   BYTE   INSEG    CODE           ?PR?ENCODER_DIR_INIT?ZF_DRIVER_ENCODER
   *DEL*:           000065H   BYTE   INSEG    CODE           ?PR?ENCODER_CLEAR_COUNT?ZF_DRIVER_ENCODER
   *DEL*:           000045H   BYTE   INSEG    CODE           ?PR?EXTI_ENABLE?ZF_DRIVER_EXTI
   *DEL*:           000013H   BYTE   INSEG    CODE           ?PR?EXTI_ALL_CLOSE?ZF_DRIVER_EXTI
   *DEL*:           00005BH   BYTE   INSEG    CODE           ?PR?EXTI_INIT?ZF_DRIVER_EXTI
   *DEL*:           000045H   BYTE   INSEG    CODE           ?PR?EXTI_DISABLE?ZF_DRIVER_EXTI
   *DEL*:           000023H   BYTE   INSEG    CODE           ?PR?GPIO_TOGGLE_LEVEL?ZF_DRIVER_GPIO
   *DEL*:           0002D5H   BYTE   INSEG    CODE           ?PR?PWM_SET_FREQ?ZF_DRIVER_PWM
   *DEL*:           0001D4H   BYTE   INSEG    CODE           ?PR?PWM_SET_DUTY?ZF_DRIVER_PWM
   *DEL*:           000643H   BYTE   INSEG    CODE           ?PR?PWM_INIT?ZF_DRIVER_PWM
   *DEL*:           000091H   BYTE   INSEG    CODE           ?PR?SOFT_IIC_WRITE_8BIT_REGISTER?ZF_DRIVER_SOFT_IIC
   *DEL*:           000186H   BYTE   INSEG    CODE           ?PR?SOFT_IIC_READ_16BIT_REGISTERS?ZF_DRIVER_SOFT_IIC
   *DEL*:           0000D2H   BYTE   INSEG    CODE           ?PR?SOFT_IIC_SCCB_READ_REGISTER?ZF_DRIVER_SOFT_IIC
   *DEL*:           000117H   BYTE   INSEG    CODE           ?PR?SOFT_IIC_READ_16BIT_REGISTER?ZF_DRIVER_SOFT_IIC
   *DEL*:           0001F3H   BYTE   INSEG    CODE           ?PR?SOFT_IIC_TRANSFER_16BIT_ARRAY?ZF_DRIVER_SOFT_IIC
   *DEL*:           00012FH   BYTE   INSEG    CODE           ?PR?SOFT_IIC_WRITE_16BIT_REGISTERS?ZF_DRIVER_SOFT_IIC
   *DEL*:           000091H   BYTE   INSEG    CODE           ?PR?SOFT_IIC_SCCB_WRITE_REGISTER?ZF_DRIVER_SOFT_IIC
   *DEL*:           000085H   BYTE   INSEG    CODE           ?PR?SOFT_IIC_READ_8BIT?ZF_DRIVER_SOFT_IIC
   *DEL*:           0000F7H   BYTE   INSEG    CODE           ?PR?SOFT_IIC_READ_8BIT_ARRAY?ZF_DRIVER_SOFT_IIC
   *DEL*:           0000DDH   BYTE   INSEG    CODE           ?PR?SOFT_IIC_WRITE_16BIT_REGISTER?ZF_DRIVER_SOFT_IIC
   *DEL*:           00007AH   BYTE   INSEG    CODE           ?PR?SOFT_IIC_WRITE_8BIT?ZF_DRIVER_SOFT_IIC
   *DEL*:           0000D3H   BYTE   INSEG    CODE           ?PR?SOFT_IIC_WRITE_8BIT_ARRAY?ZF_DRIVER_SOFT_IIC
   *DEL*:           0000B0H   BYTE   INSEG    CODE           ?PR?SOFT_IIC_READ_16BIT?ZF_DRIVER_SOFT_IIC
   *DEL*:           000129H   BYTE   INSEG    CODE           ?PR?SOFT_IIC_READ_16BIT_ARRAY?ZF_DRIVER_SOFT_IIC
   *DEL*:           0000DFH   BYTE   INSEG    CODE           ?PR?SOFT_IIC_INIT?ZF_DRIVER_SOFT_IIC
   *DEL*:           000137H   BYTE   INSEG    CODE           ?PR?SOFT_IIC_READ_8BIT_REGISTERS?ZF_DRIVER_SOFT_IIC
   *DEL*:           0000A1H   BYTE   INSEG    CODE           ?PR?SOFT_IIC_WRITE_16BIT?ZF_DRIVER_SOFT_IIC
   *DEL*:           0000FDH   BYTE   INSEG    CODE           ?PR?SOFT_IIC_WRITE_16BIT_ARRAY?ZF_DRIVER_SOFT_IIC
   *DEL*:           0000C5H   BYTE   INSEG    CODE           ?PR?SOFT_IIC_READ_8BIT_REGISTER?ZF_DRIVER_SOFT_IIC
   *DEL*:           000197H   BYTE   INSEG    CODE           ?PR?SOFT_IIC_TRANSFER_8BIT_ARRAY?ZF_DRIVER_SOFT_IIC
   *DEL*:           0000E8H   BYTE   INSEG    CODE           ?PR?SOFT_IIC_WRITE_8BIT_REGISTERS?ZF_DRIVER_SOFT_IIC
   *DEL*:           0002EFH   BYTE   INSEG    CODE           ?PR?SOFT_SPI_INIT?ZF_DRIVER_SOFT_SPI
   *DEL*:           000111H   BYTE   INSEG    CODE           ?PR?SOFT_SPI_READ_8BIT_REGISTERS?ZF_DRIVER_SOFT_SPI
   *DEL*:           000099H   BYTE   INSEG    CODE           ?PR?SOFT_SPI_WRITE_16BIT?ZF_DRIVER_SOFT_SPI
   *DEL*:           000216H   BYTE   INSEG    CODE           ?PR?SOFT_SPI_8BIT_DATA_HANDLER?ZF_DRIVER_SOFT_SPI
   *DEL*:           0000EEH   BYTE   INSEG    CODE           ?PR?SOFT_SPI_WRITE_16BIT_ARRAY?ZF_DRIVER_SOFT_SPI
   *DEL*:           0000B0H   BYTE   INSEG    CODE           ?PR?SOFT_SPI_READ_8BIT_REGISTER?ZF_DRIVER_SOFT_SPI
   *DEL*:           000159H   BYTE   INSEG    CODE           ?PR?SOFT_SPI_TRANSFER_8BIT?ZF_DRIVER_SOFT_SPI
   *DEL*:           000103H   BYTE   INSEG    CODE           ?PR?SOFT_SPI_WRITE_8BIT_REGISTERS?ZF_DRIVER_SOFT_SPI
   *DEL*:           0000ACH   BYTE   INSEG    CODE           ?PR?SOFT_SPI_WRITE_8BIT_REGISTER?ZF_DRIVER_SOFT_SPI
   *DEL*:           00010EH   BYTE   INSEG    CODE           ?PR?SOFT_SPI_READ_16BIT_REGISTERS?ZF_DRIVER_SOFT_SPI
   *DEL*:           000250H   BYTE   INSEG    CODE           ?PR?SOFT_SPI_16BIT_DATA_HANDLER?ZF_DRIVER_SOFT_SPI
   *DEL*:           0000BCH   BYTE   INSEG    CODE           ?PR?SOFT_SPI_READ_16BIT_REGISTER?ZF_DRIVER_SOFT_SPI
   *DEL*:           00015BH   BYTE   INSEG    CODE           ?PR?SOFT_SPI_TRANSFER_16BIT?ZF_DRIVER_SOFT_SPI
   *DEL*:           0000FDH   BYTE   INSEG    CODE           ?PR?SOFT_SPI_WRITE_16BIT_REGISTERS?ZF_DRIVER_SOFT_SPI
   *DEL*:           00009BH   BYTE   INSEG    CODE           ?PR?SOFT_SPI_READ_8BIT?ZF_DRIVER_SOFT_SPI
   *DEL*:           0000FCH   BYTE   INSEG    CODE           ?PR?SOFT_SPI_READ_8BIT_ARRAY?ZF_DRIVER_SOFT_SPI
   *DEL*:           0000B2H   BYTE   INSEG    CODE           ?PR?SOFT_SPI_WRITE_16BIT_REGISTER?ZF_DRIVER_SOFT_SPI
   *DEL*:           000095H   BYTE   INSEG    CODE           ?PR?SOFT_SPI_WRITE_8BIT?ZF_DRIVER_SOFT_SPI
   *DEL*:           0000EEH   BYTE   INSEG    CODE           ?PR?SOFT_SPI_WRITE_8BIT_ARRAY?ZF_DRIVER_SOFT_SPI
   *DEL*:           00003CH   BYTE   INSEG    CODE           ?PR?SOFT_SPI_DELAY?ZF_DRIVER_SOFT_SPI
   *DEL*:           0000A0H   BYTE   INSEG    CODE           ?PR?SOFT_SPI_READ_16BIT?ZF_DRIVER_SOFT_SPI
   *DEL*:           0000FFH   BYTE   INSEG    CODE           ?PR?SOFT_SPI_READ_16BIT_ARRAY?ZF_DRIVER_SOFT_SPI
   *DEL*:           00002BH   BYTE   INSEG    CODE           ?PR?SPI_WRITE_8BIT_REGISTER?ZF_DRIVER_SPI
   *DEL*:           0000BCH   BYTE   INSEG    CODE           ?PR?SPI_READ_16BIT_REGISTERS?ZF_DRIVER_SPI
   *DEL*:           000079H   BYTE   INSEG    CODE           ?PR?SPI_READ_16BIT_REGISTER?ZF_DRIVER_SPI
   *DEL*:           00010DH   BYTE   INSEG    CODE           ?PR?SPI_TRANSFER_16BIT?ZF_DRIVER_SPI
   *DEL*:           00008AH   BYTE   INSEG    CODE           ?PR?SPI_WRITE_16BIT_REGISTERS?ZF_DRIVER_SPI
   *DEL*:           000011H   BYTE   INSEG    CODE           ?PR?SPI_READ_8BIT?ZF_DRIVER_SPI
   *DEL*:           00005DH   BYTE   INSEG    CODE           ?PR?SPI_READ_8BIT_ARRAY?ZF_DRIVER_SPI
L251 LINKER/LOCATER V4.66.93.0                                                        03/26/2026  19:04:27  PAGE 15


   *DEL*:           00006FH   BYTE   INSEG    CODE           ?PR?SPI_WRITE_16BIT_REGISTER?ZF_DRIVER_SPI
   *DEL*:           00004FH   BYTE   INSEG    CODE           ?PR?SPI_WRITE_8BIT_ARRAY?ZF_DRIVER_SPI
   *DEL*:           000045H   BYTE   INSEG    CODE           ?PR?SPI_READ_16BIT?ZF_DRIVER_SPI
   *DEL*:           000088H   BYTE   INSEG    CODE           ?PR?SPI_READ_16BIT_ARRAY?ZF_DRIVER_SPI
   *DEL*:           00006EH   BYTE   INSEG    CODE           ?PR?SPI_READ_8BIT_REGISTERS?ZF_DRIVER_SPI
   *DEL*:           000075H   BYTE   INSEG    CODE           ?PR?SPI_WRITE_16BIT_ARRAY?ZF_DRIVER_SPI
   *DEL*:           000022H   BYTE   INSEG    CODE           ?PR?SPI_READ_8BIT_REGISTER?ZF_DRIVER_SPI
   *DEL*:           0000A4H   BYTE   INSEG    CODE           ?PR?SPI_TRANSFER_8BIT?ZF_DRIVER_SPI
   *DEL*:           000060H   BYTE   INSEG    CODE           ?PR?SPI_WRITE_8BIT_REGISTERS?ZF_DRIVER_SPI
   *DEL*:           00003DH   BYTE   INSEG    CODE           ?PR?UART_WRITE_STRING?ZF_DRIVER_UART
   *DEL*:           000072H   BYTE   INSEG    CODE           ?PR?UART_READ_BYTE?ZF_DRIVER_UART
   *DEL*:           000084H   BYTE   INSEG    CODE           ?PR?BLE6A20_READ_BUFFER?ZF_DEVICE_BLE6A20
   *DEL*:           000110H   BYTE   INSEG    CODE           ?PR?BLE6A20_SEND_BUFFER?ZF_DEVICE_BLE6A20
   *DEL*:           00005DH   BYTE   INSEG    CODE           ?PR?BLE6A20_SEND_STRING?ZF_DEVICE_BLE6A20
   *DEL*:           000026H   BYTE   INSEG    CODE           ?PR?BLE6A20_CALLBACK?ZF_DEVICE_BLE6A20
   *DEL*:           000088H   BYTE   INSEG    CODE           ?PR?BLE6A20_INIT?ZF_DEVICE_BLE6A20
   *DEL*:           00006DH   BYTE   INSEG    CODE           ?PR?BLE6A20_SEND_BYTE?ZF_DEVICE_BLE6A20
   *DEL*:           00006FH   BYTE   INSEG    CODE           ?PR?DL1A_TIMEOUT_MICROSECONDS_TO_MCLKS?ZF_DEVICE_DL1A
   *DEL*:           000069H   BYTE   INSEG    CODE           ?PR?DL1A_TIMEOUT_MCLKS_TO_MICROSECONDS?ZF_DEVICE_DL1A
   *DEL*:           0000A2H   BYTE   INSEG    CODE           ?PR?DL1A_SET_SIGNAL_RATE_LIMIT?ZF_DEVICE_DL1A
   *DEL*:           000030H   BYTE   INSEG    CODE           ?PR?DL1A_DECODE_TIMEOUT?ZF_DEVICE_DL1A
   *DEL*:           000259H   BYTE   INSEG    CODE           ?PR?DL1A_GET_SPAD_INFO?ZF_DEVICE_DL1A
   *DEL*:           000085H   BYTE   INSEG    CODE           ?PR?DL1A_ENCODE_TIMEOUT?ZF_DEVICE_DL1A
   *DEL*:           0000CBH   BYTE   INSEG    CODE           ?PR?DL1A_GET_SEQUENCE_STEP_ENABLES?ZF_DEVICE_DL1A
   *DEL*:           0000D3H   BYTE   INSEG    CODE           ?PR?DL1A_GET_DISTANCE?ZF_DEVICE_DL1A
   *DEL*:           0000D6H   BYTE   INSEG    CODE           ?PR?DL1A_PERFORM_SINGLE_REF_CALIBRATION?ZF_DEVICE_DL1A
   *DEL*:           00021AH   BYTE   INSEG    CODE           ?PR?DL1A_GET_SEQUENCE_STEP_TIMEOUTS?ZF_DEVICE_DL1A
   *DEL*:           000001H   BYTE   INSEG    CODE           ?PR?DL1A_INT_HANDLER?ZF_DEVICE_DL1A
   *DEL*:           000119H   BYTE   INSEG    CODE           ?PR?DL1A_GET_MEASUREMENT_TIMING_BUDGET?ZF_DEVICE_DL1A
   *DEL*:           000210H   BYTE   INSEG    CODE           ?PR?DL1A_SET_MEASUREMENT_TIMING_BUDGET?ZF_DEVICE_DL1A
   *DEL*:           000602H   BYTE   INSEG    CODE           ?PR?DL1A_INIT?ZF_DEVICE_DL1A
   *DEL*:           00009EH   BYTE   INSEG    CODE           ?PR?DL1A_GET_VCSEL_PULSE_PERIOD?ZF_DEVICE_DL1A
   *DEL*:           0001E4H   BYTE   INSEG    CODE           ?PR?DL1B_GET_DISTANCE?ZF_DEVICE_DL1B
   *DEL*:           000001H   BYTE   INSEG    CODE           ?PR?DL1B_INT_HANDLER?ZF_DEVICE_DL1B
   *DEL*:           00000AH   BYTE   INSEG    CODE           ?PR?DL1B_INIT?ZF_DEVICE_DL1B
   *DEL*:           000094H   BYTE   INSEG    CODE           ?PR?GET_DOUBLE_NUMBER?ZF_DEVICE_GPS_TAU1201
   *DEL*:           000094H   BYTE   INSEG    CODE           ?PR?GET_FLOAT_NUMBER?ZF_DEVICE_GPS_TAU1201
   *DEL*:           0001CEH   BYTE   INSEG    CODE           ?PR?UTC_TO_BTC?ZF_DEVICE_GPS_TAU1201
   *DEL*:           000214H   BYTE   INSEG    CODE           ?PR?GET_TWO_POINTS_DISTANCE?ZF_DEVICE_GPS_TAU1201
   *DEL*:           000102H   BYTE   INSEG    CODE           ?PR?GPS_GNGGA_PARSE?ZF_DEVICE_GPS_TAU1201
   *DEL*:           000668H   BYTE   INSEG    CODE           ?PR?GPS_GNRMC_PARSE?ZF_DEVICE_GPS_TAU1201
   *DEL*:           000212H   BYTE   INSEG    CODE           ?PR?GPS_DATA_PARSE?ZF_DEVICE_GPS_TAU1201
   *DEL*:           000088H   BYTE   INSEG    CODE           ?PR?GET_INT_NUMBER?ZF_DEVICE_GPS_TAU1201
   *DEL*:           0002B0H   BYTE   INSEG    CODE           ?PR?GPS_INIT?ZF_DEVICE_GPS_TAU1201
   *DEL*:           0000D3H   BYTE   INSEG    CODE           ?PR?GET_PARAMETER_INDEX?ZF_DEVICE_GPS_TAU1201
   *DEL*:           00033DH   BYTE   INSEG    CODE           ?PR?GET_TWO_POINTS_AZIMUTH?ZF_DEVICE_GPS_TAU1201
   *DEL*:           000191H   BYTE   INSEG    CODE           ?PR?GPS_UART_CALLBACK?ZF_DEVICE_GPS_TAU1201
   *DEL*:           000024H   BYTE   INSEG    CODE           ?PR?ICM20602_READ_REGISTER?ZF_DEVICE_ICM20602
   *DEL*:           00001EH   BYTE   INSEG    CODE           ?PR?ICM20602_WRITE_REGISTER?ZF_DEVICE_ICM20602
   *DEL*:           000050H   BYTE   INSEG    CODE           ?PR?ICM20602_SIMSPI_WR_BYTE?ZF_DEVICE_ICM20602
   *DEL*:           000051H   BYTE   INSEG    CODE           ?PR?ICM20602_SELF_CHECK?ZF_DEVICE_ICM20602
   *DEL*:           000076H   BYTE   INSEG    CODE           ?PR?ICM20602_SIMSPI_R_REG_BYTES?ZF_DEVICE_ICM20602
   *DEL*:           000031H   BYTE   INSEG    CODE           ?PR?ICM20602_SIMSPI_R_REG_BYTE?ZF_DEVICE_ICM20602
   *DEL*:           00001DH   BYTE   INSEG    CODE           ?PR?ICM20602_SIMSPI_W_REG_BYTE?ZF_DEVICE_ICM20602
   *DEL*:           0001F1H   BYTE   INSEG    CODE           ?PR?ICM20602_INIT?ZF_DEVICE_ICM20602
   *DEL*:           00005AH   BYTE   INSEG    CODE           ?PR?ICM20602_GET_ACC?ZF_DEVICE_ICM20602
   *DEL*:           000040H   BYTE   INSEG    CODE           ?PR?ICM20602_READ_REGISTERS?ZF_DEVICE_ICM20602
   *DEL*:           00005AH   BYTE   INSEG    CODE           ?PR?ICM20602_GET_GYRO?ZF_DEVICE_ICM20602
   *DEL*:           00005AH   BYTE   INSEG    CODE           ?PR?IMU660RA_GET_GYRO?ZF_DEVICE_IMU660RA
   *DEL*:           00005AH   BYTE   INSEG    CODE           ?PR?IMU660RA_GET_ACC?ZF_DEVICE_IMU660RA
   *DEL*:           0000B1H   BYTE   INSEG    CODE           ?PR?IMU660RA_READ_REGISTERS?ZF_DEVICE_IMU660RA
   *DEL*:           00005AH   BYTE   INSEG    CODE           ?PR?IMU660RB_GET_GYRO?ZF_DEVICE_IMU660RB
   *DEL*:           000024H   BYTE   INSEG    CODE           ?PR?IMU660RB_READ_REGISTER?ZF_DEVICE_IMU660RB
   *DEL*:           000114H   BYTE   INSEG    CODE           ?PR?IMU660RB_GYRO_TRANSITION?ZF_DEVICE_IMU660RB
   *DEL*:           00001EH   BYTE   INSEG    CODE           ?PR?IMU660RB_WRITE_REGISTER?ZF_DEVICE_IMU660RB
L251 LINKER/LOCATER V4.66.93.0                                                        03/26/2026  19:04:27  PAGE 16


   *DEL*:           000053H   BYTE   INSEG    CODE           ?PR?IMU660RB_SIMSPI_WR_BYTE?ZF_DEVICE_IMU660RB
   *DEL*:           00004FH   BYTE   INSEG    CODE           ?PR?IMU660RB_SELF_CHECK?ZF_DEVICE_IMU660RB
   *DEL*:           000070H   BYTE   INSEG    CODE           ?PR?IMU660RB_SIMSPI_R_REG_BYTES?ZF_DEVICE_IMU660RB
   *DEL*:           000037H   BYTE   INSEG    CODE           ?PR?IMU660RB_SIMSPI_R_REG_BYTE?ZF_DEVICE_IMU660RB
   *DEL*:           00001DH   BYTE   INSEG    CODE           ?PR?IMU660RB_SIMSPI_W_REG_BYTE?ZF_DEVICE_IMU660RB
   *DEL*:           000071H   BYTE   INSEG    CODE           ?PR?IMU660RB_INIT?ZF_DEVICE_IMU660RB
   *DEL*:           00005AH   BYTE   INSEG    CODE           ?PR?IMU660RB_GET_ACC?ZF_DEVICE_IMU660RB
   *DEL*:           0000BEH   BYTE   INSEG    CODE           ?PR?IMU660RB_ACC_TRANSITION?ZF_DEVICE_IMU660RB
   *DEL*:           000040H   BYTE   INSEG    CODE           ?PR?IMU660RB_READ_REGISTERS?ZF_DEVICE_IMU660RB
   *DEL*:           00005AH   BYTE   INSEG    CODE           ?PR?IMU963RA_GET_GYRO?ZF_DEVICE_IMU963RA
   *DEL*:           000072H   BYTE   INSEG    CODE           ?PR?IMU963RA_READ_MAG_REGISTER?ZF_DEVICE_IMU963RA
   *DEL*:           00003DH   BYTE   INSEG    CODE           ?PR?IMU963RA_CONNECT_MAG?ZF_DEVICE_IMU963RA
   *DEL*:           00004CH   BYTE   INSEG    CODE           ?PR?IMU963RA_READ_ACC_GYRO_REGISTERS?ZF_DEVICE_IMU963RA
   *DEL*:           000089H   BYTE   INSEG    CODE           ?PR?IMU963RA_WRITE_MAG_REGISTER?ZF_DEVICE_IMU963RA
   *DEL*:           000027H   BYTE   INSEG    CODE           ?PR?IMU963RA_READ_ACC_GYRO_REGISTER?ZF_DEVICE_IMU963RA
   *DEL*:           000054H   BYTE   INSEG    CODE           ?PR?IMU963RA_MAG_SELF_CHECK?ZF_DEVICE_IMU963RA
   *DEL*:           000020H   BYTE   INSEG    CODE           ?PR?IMU963RA_WRITE_ACC_GYRO_REGISTER?ZF_DEVICE_IMU963RA
   *DEL*:           000345H   BYTE   INSEG    CODE           ?PR?IMU963RA_INIT?ZF_DEVICE_IMU963RA
   *DEL*:           000068H   BYTE   INSEG    CODE           ?PR?IMU963RA_ACC_GYRO_SELF_CHECK?ZF_DEVICE_IMU963RA
   *DEL*:           00005AH   BYTE   INSEG    CODE           ?PR?IMU963RA_GET_ACC?ZF_DEVICE_IMU963RA
   *DEL*:           000079H   BYTE   INSEG    CODE           ?PR?IMU963RA_GET_MAG?ZF_DEVICE_IMU963RA
   *DEL*:           000083H   BYTE   INSEG    CODE           ?PR?IPS114_DRAW_POINT?ZF_DEVICE_IPS114
   *DEL*:           00015EH   BYTE   INSEG    CODE           ?PR?IPS114_SHOW_INT32?ZF_DEVICE_IPS114
   *DEL*:           00016DH   BYTE   INSEG    CODE           ?PR?IPS114_SHOW_INT16?ZF_DEVICE_IPS114
   *DEL*:           000214H   BYTE   INSEG    CODE           ?PR?IPS114_SHOW_WAVE?ZF_DEVICE_IPS114
   *DEL*:           000200H   BYTE   INSEG    CODE           ?PR?IPS114_SHOW_CHINESE?ZF_DEVICE_IPS114
   *DEL*:           0000E9H   BYTE   INSEG    CODE           ?PR?IPS114_SHOW_UINT8?ZF_DEVICE_IPS114
   *DEL*:           00012EH   BYTE   INSEG    CODE           ?PR?IPS114_SHOW_INT8?ZF_DEVICE_IPS114
   *DEL*:           0001EBH   BYTE   INSEG    CODE           ?PR?IPS200_SHOW_FLOAT?ZF_DEVICE_IPS200
   *DEL*:           000083H   BYTE   INSEG    CODE           ?PR?IPS200_DRAW_POINT?ZF_DEVICE_IPS200
   *DEL*:           0000C4H   BYTE   INSEG    CODE           ?PR?IPS200_SHOW_STRING?ZF_DEVICE_IPS200
   *DEL*:           00011CH   BYTE   INSEG    CODE           ?PR?IPS200_SHOW_CHAR?ZF_DEVICE_IPS200
   *DEL*:           000119H   BYTE   INSEG    CODE           ?PR?IPS200_SHOW_UINT16?ZF_DEVICE_IPS200
   *DEL*:           000025H   BYTE   INSEG    CODE           ?PR?IPS200_SET_COLOR?ZF_DEVICE_IPS200
   *DEL*:           00015EH   BYTE   INSEG    CODE           ?PR?IPS200_SHOW_INT32?ZF_DEVICE_IPS200
   *DEL*:           00016DH   BYTE   INSEG    CODE           ?PR?IPS200_SHOW_INT16?ZF_DEVICE_IPS200
   *DEL*:           000214H   BYTE   INSEG    CODE           ?PR?IPS200_SHOW_WAVE?ZF_DEVICE_IPS200
   *DEL*:           000013H   BYTE   INSEG    CODE           ?PR?IPS200_SET_DIR?ZF_DEVICE_IPS200
   *DEL*:           000200H   BYTE   INSEG    CODE           ?PR?IPS200_SHOW_CHINESE?ZF_DEVICE_IPS200
   *DEL*:           000085H   BYTE   INSEG    CODE           ?PR?IPS200_CLEAR?ZF_DEVICE_IPS200
   *DEL*:           0000E9H   BYTE   INSEG    CODE           ?PR?IPS200_SHOW_UINT8?ZF_DEVICE_IPS200
   *DEL*:           00012EH   BYTE   INSEG    CODE           ?PR?IPS200_SHOW_INT8?ZF_DEVICE_IPS200
   *DEL*:           000022H   BYTE   INSEG    CODE           ?PR?IPS200_WRITE_INDEX?ZF_DEVICE_IPS200
   *DEL*:           0000ECH   BYTE   INSEG    CODE           ?PR?IPS200_SET_REGION?ZF_DEVICE_IPS200
   *DEL*:           0002C2H   BYTE   INSEG    CODE           ?PR?IPS200_INIT?ZF_DEVICE_IPS200
   *DEL*:           000095H   BYTE   INSEG    CODE           ?PR?IPS200PRO_PROGRESS_BAR_CREATE?ZF_DEVICE_IPS200PRO
   *DEL*:           000053H   BYTE   INSEG    CODE           ?PR?IPS200PRO_SET_CRC_STATE?ZF_DEVICE_IPS200PRO
   *DEL*:           000070H   BYTE   INSEG    CODE           ?PR?IPS200PRO_TABLE_SELECT?ZF_DEVICE_IPS200PRO
   *DEL*:           000036H   BYTE   INSEG    CODE           ?PR?IPS200PRO_PAGE_HIDDEN?ZF_DEVICE_IPS200PRO
   *DEL*:           000055H   BYTE   INSEG    CODE           ?PR?IPS200PRO_SET_DIRECTION?ZF_DEVICE_IPS200PRO
   *DEL*:           00009EH   BYTE   INSEG    CODE           ?PR?IPS200PRO_PAGE_CREATE?ZF_DEVICE_IPS200PRO
   *DEL*:           00010CH   BYTE   INSEG    CODE           ?PR?IPS200PRO_WAVEFORM_ADD_VALUE?ZF_DEVICE_IPS200PRO
   *DEL*:           000095H   BYTE   INSEG    CODE           ?PR?IPS200PRO_METER_CREATE?ZF_DEVICE_IPS200PRO
   *DEL*:           0000E3H   BYTE   INSEG    CODE           ?PR?IPS200PRO_LABEL_PRINTF?ZF_DEVICE_IPS200PRO
   *DEL*:           000072H   BYTE   INSEG    CODE           ?PR?IPS200PRO_WAVEFORM_LINE_STATE?ZF_DEVICE_IPS200PRO
   *DEL*:           000114H   BYTE   INSEG    CODE           ?PR?IPS200PRO_TABLE_CELL_PRINTF?ZF_DEVICE_IPS200PRO
   *DEL*:           000286H   BYTE   INSEG    CODE           ?PR?IPS200PRO_WRITE_PACKET?ZF_DEVICE_IPS200PRO
   *DEL*:           00009AH   BYTE   INSEG    CODE           ?PR?IPS200PRO_SEND_BUFFER?ZF_DEVICE_IPS200PRO
   *DEL*:           000060H   BYTE   INSEG    CODE           ?PR?IPS200PRO_LABEL_MODE?ZF_DEVICE_IPS200PRO
   *DEL*:           000060H   BYTE   INSEG    CODE           ?PR?IPS200PRO_PAGE_SWITCH?ZF_DEVICE_IPS200PRO
   *DEL*:           000053H   BYTE   INSEG    CODE           ?PR?IPS200PRO_CALENDAR_CREATE?ZF_DEVICE_IPS200PRO
   *DEL*:           000087H   BYTE   INSEG    CODE           ?PR?IPS200PRO_CALENDAR_DISPLAY?ZF_DEVICE_IPS200PRO
   *DEL*:           00005EH   BYTE   INSEG    CODE           ?PR?IPS200PRO_WAVEFORM_LINE_TYPE?ZF_DEVICE_IPS200PRO
   *DEL*:           000062H   BYTE   INSEG    CODE           ?PR?IPS200PRO_SET_HIDDEN?ZF_DEVICE_IPS200PRO
   *DEL*:           000095H   BYTE   INSEG    CODE           ?PR?IPS200PRO_CONTAINER_CREATE?ZF_DEVICE_IPS200PRO
L251 LINKER/LOCATER V4.66.93.0                                                        03/26/2026  19:04:27  PAGE 17


   *DEL*:           0000E6H   BYTE   INSEG    CODE           ?PR?IPS200PRO_IMAGE_DRAW_LINE?ZF_DEVICE_IPS200PRO
   *DEL*:           000081H   BYTE   INSEG    CODE           ?PR?IPS200PRO_LABEL_SHOW_STRING?ZF_DEVICE_IPS200PRO
   *DEL*:           000053H   BYTE   INSEG    CODE           ?PR?IPS200PRO_SET_OPTIMIZE?ZF_DEVICE_IPS200PRO
   *DEL*:           000076H   BYTE   INSEG    CODE           ?PR?IPS200PRO_SET_POSITION?ZF_DEVICE_IPS200PRO
   *DEL*:           000055H   BYTE   INSEG    CODE           ?PR?IPS200PRO_SET_DEFAULT_FONT?ZF_DEVICE_IPS200PRO
   *DEL*:           000066H   BYTE   INSEG    CODE           ?PR?IPS200PRO_PAGE_SET_TITLE_POSITION_WIDTH?ZF_DEVICE_IPS2
                                                             -00PRO
   *DEL*:           0000C1H   BYTE   INSEG    CODE           ?PR?IPS200PRO_IMAGE_DRAW_RECTANGLE?ZF_DEVICE_IPS200PRO
   *DEL*:           0000EDH   BYTE   INSEG    CODE           ?PR?IPS200PRO_INIT?ZF_DEVICE_IPS200PRO
   *DEL*:           000072H   BYTE   INSEG    CODE           ?PR?IPS200PRO_CONTAINER_RADIUS?ZF_DEVICE_IPS200PRO
   *DEL*:           00006DH   BYTE   INSEG    CODE           ?PR?IPS200PRO_WAIT_IDLE?ZF_DEVICE_IPS200PRO
   *DEL*:           000055H   BYTE   INSEG    CODE           ?PR?IPS200PRO_SET_FORMAT?ZF_DEVICE_IPS200PRO
   *DEL*:           000067H   BYTE   INSEG    CODE           ?PR?IPS200PRO_SET_PARENT?ZF_DEVICE_IPS200PRO
   *DEL*:           000070H   BYTE   INSEG    CODE           ?PR?IPS200PRO_PROGRESS_BAR_SET_VALUE?ZF_DEVICE_IPS200PRO
   *DEL*:           00004AH   BYTE   INSEG    CODE           ?PR?IPS200PRO_GET_DATE?ZF_DEVICE_IPS200PRO
   *DEL*:           000095H   BYTE   INSEG    CODE           ?PR?IPS200PRO_WAVEFORM_CREATE?ZF_DEVICE_IPS200PRO
   *DEL*:           0000B6H   BYTE   INSEG    CODE           ?PR?IPS200PRO_READ_PARAMETER?ZF_DEVICE_IPS200PRO
   *DEL*:           0000A1H   BYTE   INSEG    CODE           ?PR?IPS200PRO_RECEIVE_BUFFER?ZF_DEVICE_IPS200PRO
   *DEL*:           000086H   BYTE   INSEG    CODE           ?PR?IPS200PRO_SET_DATE?ZF_DEVICE_IPS200PRO
   *DEL*:           000060H   BYTE   INSEG    CODE           ?PR?IPS200PRO_METER_SET_VALUE?ZF_DEVICE_IPS200PRO
   *DEL*:           000076H   BYTE   INSEG    CODE           ?PR?IPS200PRO_SET_COLOR?ZF_DEVICE_IPS200PRO
   *DEL*:           00005FH   BYTE   INSEG    CODE           ?PR?IPS200PRO_GET_INFORMATION?ZF_DEVICE_IPS200PRO
   *DEL*:           000052H   BYTE   INSEG    CODE           ?PR?IPS200PRO_DELETE_WIDGETS?ZF_DEVICE_IPS200PRO
   *DEL*:           00004CH   BYTE   INSEG    CODE           ?PR?IPS200PRO_GET_TIME?ZF_DEVICE_IPS200PRO
   *DEL*:           0000B5H   BYTE   INSEG    CODE           ?PR?IPS200PRO_CREATE_WIDGETS?ZF_DEVICE_IPS200PRO
   *DEL*:           00004EH   BYTE   INSEG    CODE           ?PR?IPS200PRO_WAVEFORM_CLEAR?ZF_DEVICE_IPS200PRO
   *DEL*:           00006FH   BYTE   INSEG    CODE           ?PR?IPS200PRO_PAGE_SET_TITLE_NAME?ZF_DEVICE_IPS200PRO
   *DEL*:           000095H   BYTE   INSEG    CODE           ?PR?IPS200PRO_LABEL_CREATE?ZF_DEVICE_IPS200PRO
   *DEL*:           000070H   BYTE   INSEG    CODE           ?PR?IPS200PRO_TABLE_SET_COL_WIDTH?ZF_DEVICE_IPS200PRO
   *DEL*:           000053H   BYTE   INSEG    CODE           ?PR?IPS200PRO_SET_BACKLIGHT?ZF_DEVICE_IPS200PRO
   *DEL*:           000095H   BYTE   INSEG    CODE           ?PR?IPS200PRO_IMAGE_CREATE?ZF_DEVICE_IPS200PRO
   *DEL*:           00004DH   BYTE   INSEG    CODE           ?PR?IPS200PRO_GET_FREE_STACK_SIZE?ZF_DEVICE_IPS200PRO
   *DEL*:           000091H   BYTE   INSEG    CODE           ?PR?IPS200PRO_SET_TIME?ZF_DEVICE_IPS200PRO
   *DEL*:           0001BFH   BYTE   INSEG    CODE           ?PR?IPS200PRO_IMAGE_DISPLAY?ZF_DEVICE_IPS200PRO
   *DEL*:           000095H   BYTE   INSEG    CODE           ?PR?IPS200PRO_TABLE_CREATE?ZF_DEVICE_IPS200PRO
   *DEL*:           000095H   BYTE   INSEG    CODE           ?PR?IPS200PRO_CLOCK_CREATE?ZF_DEVICE_IPS200PRO
   *DEL*:           000064H   BYTE   INSEG    CODE           ?PR?IPS200PRO_SET_FONT?ZF_DEVICE_IPS200PRO
   *DEL*:           000176H   BYTE   INSEG    CODE           ?PR?TFT180_SET_REGION?ZF_DEVICE_TFT180
   *DEL*:           00036EH   BYTE   INSEG    CODE           ?PR?TFT180_INIT?ZF_DEVICE_TFT180
   *DEL*:           0001EBH   BYTE   INSEG    CODE           ?PR?TFT180_SHOW_FLOAT?ZF_DEVICE_TFT180
   *DEL*:           000083H   BYTE   INSEG    CODE           ?PR?TFT180_DRAW_POINT?ZF_DEVICE_TFT180
   *DEL*:           0000C4H   BYTE   INSEG    CODE           ?PR?TFT180_SHOW_STRING?ZF_DEVICE_TFT180
   *DEL*:           00011CH   BYTE   INSEG    CODE           ?PR?TFT180_SHOW_CHAR?ZF_DEVICE_TFT180
   *DEL*:           000119H   BYTE   INSEG    CODE           ?PR?TFT180_SHOW_UINT16?ZF_DEVICE_TFT180
   *DEL*:           000025H   BYTE   INSEG    CODE           ?PR?TFT180_SET_COLOR?ZF_DEVICE_TFT180
   *DEL*:           00015EH   BYTE   INSEG    CODE           ?PR?TFT180_SHOW_INT32?ZF_DEVICE_TFT180
   *DEL*:           00016DH   BYTE   INSEG    CODE           ?PR?TFT180_SHOW_INT16?ZF_DEVICE_TFT180
   *DEL*:           000214H   BYTE   INSEG    CODE           ?PR?TFT180_SHOW_WAVE?ZF_DEVICE_TFT180
   *DEL*:           00003BH   BYTE   INSEG    CODE           ?PR?TFT180_SET_DIR?ZF_DEVICE_TFT180
   *DEL*:           000079H   BYTE   INSEG    CODE           ?PR?TFT180_CLEAR?ZF_DEVICE_TFT180
   *DEL*:           0000E9H   BYTE   INSEG    CODE           ?PR?TFT180_SHOW_UINT8?ZF_DEVICE_TFT180
   *DEL*:           00012EH   BYTE   INSEG    CODE           ?PR?TFT180_SHOW_INT8?ZF_DEVICE_TFT180
   *DEL*:           000022H   BYTE   INSEG    CODE           ?PR?TFT180_WRITE_INDEX?ZF_DEVICE_TFT180
   *DEL*:           0000C0H   BYTE   INSEG    CODE           ?PR?TSL1401_SEND_DATA?ZF_DEVICE_TSL1401
   *DEL*:           00003DH   BYTE   INSEG    CODE           ?PR?TSL1401_INIT?ZF_DEVICE_TSL1401
   *DEL*:           0000BEH   BYTE   INSEG    CODE           ?PR?TSL1401_COLLECT_PIT_HANDLER?ZF_DEVICE_TSL1401
   *DEL*:           00002DH   BYTE   INSEG    CODE           ?PR?SET_TOF_TYPE?ZF_DEVICE_TYPE
   *DEL*:           00009FH   BYTE   INSEG    CODE           ?PR?SET_GPS_TYPE?ZF_DEVICE_TYPE
   *DEL*:           00006DH   BYTE   INSEG    CODE           ?PR?WIRELESS_UART_SEND_BYTE?ZF_DEVICE_WIRELESS_UART
   *DEL*:           000084H   BYTE   INSEG    CODE           ?PR?WIRELESS_UART_READ_BUFFER?ZF_DEVICE_WIRELESS_UART
   *DEL*:           0004A1H   BYTE   INSEG    CODE           ?PR?SEEKFREE_ASSISTANT_CAMERA_BOUNDARY_CONFIG?SEEKFREE_ASS
                                                             -ISTANT
   *DEL*:           000142H   BYTE   INSEG    CODE           ?PR?SEEKFREE_ASSISTANT_CAMERA_DOT_SEND?SEEKFREE_ASSISTANT
   *DEL*:           0001A3H   BYTE   INSEG    CODE           ?PR?SEEKFREE_ASSISTANT_OSCILLOSCOPE_SEND?SEEKFREE_ASSISTAN
                                                             -T
L251 LINKER/LOCATER V4.66.93.0                                                        03/26/2026  19:04:27  PAGE 18


   *DEL*:           00002EH   BYTE   INSEG    CODE           ?PR?SEEKFREE_ASSISTANT_INIT?SEEKFREE_ASSISTANT
   *DEL*:           00005AH   BYTE   INSEG    CODE           ?PR?SEEKFREE_ASSISTANT_SUM?SEEKFREE_ASSISTANT
   *DEL*:           000061H   BYTE   INSEG    CODE           ?PR?SEEKFREE_ASSISTANT_CAMERA_INFORMATION_CONFIG?SEEKFREE_
                                                             -ASSISTANT
   *DEL*:           0002B2H   BYTE   INSEG    CODE           ?PR?SEEKFREE_ASSISTANT_DATA_ANALYSIS?SEEKFREE_ASSISTANT
   *DEL*:           00015CH   BYTE   INSEG    CODE           ?PR?SEEKFREE_ASSISTANT_CAMERA_DATA_SEND?SEEKFREE_ASSISTANT
   *DEL*:           00004AH   BYTE   INSEG    CODE           ?PR?SEEKFREE_ASSISTANT_CAMERA_SEND?SEEKFREE_ASSISTANT
   *DEL*:           000059H   BYTE   INSEG    CODE           ?PR?SEEKFREE_ASSISTANT_INTERFACE_INIT?SEEKFREE_ASSISTANT_I
                                                             -NTERFACE
   *DEL*:           0001ABH   BYTE   INSEG    CODE           ?PR?IMU_HANDLE_360?IMU
   *DEL*:           000113H   BYTE   INSEG    CODE           ?PR?IMU_HANDLE_180?IMU
   *DEL*:           0003D8H   BYTE   INSEG    CODE           ?PR?FIRST_COMPLEMENT_INIT?IMU
   *DEL*:           000037H   BYTE   INSEG    CODE           ?PR?IMU_HANDLE_0?IMU
   *DEL*:           000228H   BYTE   INSEG    CODE           ?PR?KALMANFILTER?IMU
   *DEL*:           000079H   BYTE   INSEG    CODE           ?PR?MAIN_LOOP?IMU
   *DEL*:           00000AH   BYTE   INSEG    CODE           ?PR?GYRO_PROC?IMU
   *DEL*:           000131H   BYTE   INSEG    CODE           ?PR?FAST_SQRT?IMU
   *DEL*:           000035H   BYTE   INSEG    CODE           ?PR?MY_ABS?IMU
   *DEL*:           000184H   BYTE   INSEG    CODE           ?PR?IMU_GETVALUES?IMU
   *DEL*:           0000C9H   BYTE   INSEG    CODE           ?PR?IMU_YAW_INTEGRAL?IMU
   *DEL*:           000038H   BYTE   INSEG    CODE           ?PR?EEPROM_READ?EEPROM
   *DEL*:           000074H   BYTE   INSEG    CODE           ?PR?EEPROM_READ_VALUE?EEPROM
   *DEL*:           00007DH   BYTE   INSEG    CODE           ?PR?EEPROM_WRITE_VALUE?EEPROM
   *DEL*:           000032H   BYTE   INSEG    CODE           ?PR?EEPROM_INIT?EEPROM
   *DEL*:           00008BH   BYTE   INSEG    CODE           ?PR?ADC_NORMALIZE?INDUCTANCE
   *DEL*:           000069H   BYTE   INSEG    CODE           ?PR?RANGE_PROTECT?INDUCTANCE
   *DEL*:           00011DH   BYTE   INSEG    CODE           ?PR?INDUCTANCE_COUNT_ERR?INDUCTANCE
   *DEL*:           000090H   BYTE   INSEG    CODE           ?PR?VOLTAGE_WARNING_TASK?VOLTAGE_WARNING
   *DEL*:           00000AH   BYTE   INSEG    CODE           ?PR?VOLTAGE_WARNING_INIT?VOLTAGE_WARNING
   *DEL*:           000051H   BYTE   INSEG    CODE           ?PR?MOTOR_INIT?MOTOR
   *DEL*:           000068H   BYTE   INSEG    CODE           ?PR?MOTOR_L?MOTOR
   *DEL*:           000068H   BYTE   INSEG    CODE           ?PR?MOTOR_R?MOTOR
   *DEL*:           00000AH   BYTE   INSEG    CODE           ?PR?BUZZER_OFF?BUZZER
   *DEL*:           000009H   BYTE   INSEG    CODE           ?PR?BUZZER_ON?BUZZER
   *DEL*:           000023H   BYTE   INSEG    CODE           ?PR?LED_SWITCH?LED
   *DEL*:           00002AH   BYTE   INSEG    CODE           ?PR?LED_INIT?LED
   *DEL*:           000012H   BYTE   INSEG    CODE           ?PR?LED_OFF?LED
   *DEL*:           000011H   BYTE   INSEG    CODE           ?PR?LED_ON?LED
   *DEL*:           0000DAH   BYTE   INSEG    CODE           ?PR?PIT_HANDLER?ENCODER
   *DEL*:           000045H   BYTE   INSEG    CODE           ?PR?ENCODER_INIT?ENCODER
   *DEL*:           0000F2H   BYTE   INSEG    CODE           ?PR?POW?_?POW
   *DEL*:           000037H   BYTE   INSEG    CODE           ?PR?STRNCMP?_?STRNCMP
   *DEL*:           000030H   BYTE   INSEG    CODE           ?PR?STRNCPY?_?STRNCPY
   *DEL*:           00001FH   BYTE   INSEG    CODE           ?PR?STRCHR?_?STRCHR
   *DEL*:           00001AH   BYTE   INSEG    CODE           ?PR?MEMSET?_?MEMSET



OVERLAY MAP OF MODULE:   .\out_file\SEEKFREE (?C_START)


FUNCTION/MODULE                               XDATA_GROUP
--> CALLED FUNCTION/MODULE                    START  STOP
=========================================================
?C_C51STARTUP                                 ----- -----

*** NEW ROOT ********************************

?C_C51STARTUP?3                               ----- -----
  +--> main/main

main/main                                     ----- -----
  +--> _m/main
  +--> SPRINTF/SPRINTF

L251 LINKER/LOCATER V4.66.93.0                                                        03/26/2026  19:04:27  PAGE 19


_m/main                                       ----- -----
  +--> Car_Init/init
  +--> Inductance_Read/inductance
  +--> Menu_Display/menu
  +--> system_delay_ms/zf_driver_delay

Car_Init/init                                 ----- -----
  +--> clock_init/zf_common_clock
  +--> debug_init/zf_common_debug
  +--> interrupt_global_disable/zf_common_interrupt
  +--> gyro_init/imu
  +--> Menu_Init/menu
  +--> ?C?SLDIV/?C?SLDIV
  +--> pit_init/zf_driver_pit
  +--> Inductance_Init/inductance
  +--> Buzzer_Init/buzzer
  +--> wireless_uart_init/zf_device_wireless_uart
  +--> imu660ra_init/zf_device_imu660ra
  +--> interrupt_global_enable/zf_common_interrupt

clock_init/zf_common_clock                    ----- -----
  +--> set_sys_clk/zf_common_clock
  +--> system_delay_init/zf_driver_delay
  +--> interrupt_global_enable/zf_common_interrupt

set_sys_clk/zf_common_clock                   ----- -----

system_delay_init/zf_driver_delay             ----- -----
  +--> ?C?SLDIV/?C?SLDIV

?C?SLDIV/?C?SLDIV                             ----- -----
  +--> ?C?ULIDIV/?C?ULDIV

?C?ULIDIV/?C?ULDIV                            ----- -----

interrupt_global_enable/zf_common_interr+     ----- -----
... upt

debug_init/zf_common_debug                    ----- -----
  +--> uart_init/zf_driver_uart
  +--> fifo_init/zf_common_fifo
  +--> uart_rx_interrupt/zf_driver_uart
  +--> debug_interrupr_handler/zf_common_debug

uart_init/zf_driver_uart                      ----- -----
  +--> uart_funciton_check/zf_driver_uart
  +--> debug_assert_handler/zf_common_debug
  +--> timer_funciton_check/zf_driver_timer
  +--> gpio_init/zf_driver_gpio
  +--> ?C?ULIDIV/?C?ULDIV
  +--> uart_dma_init/zf_driver_uart

uart_funciton_check/zf_driver_uart            ----- -----

debug_assert_handler/zf_common_debug          ----- -----
  +--> PRINTF/PRINTF
  +--> system_delay_ms/zf_driver_delay

PRINTF/PRINTF                                 1057H 107EH
  +--> OUT/PRINTF

OUT/PRINTF                                    ----- -----
  +--> PUTCH/PRINTF

PUTCH/PRINTF                                  ----- -----
L251 LINKER/LOCATER V4.66.93.0                                                        03/26/2026  19:04:27  PAGE 20


  +--> putchar/zf_common_debug
  +--> OUT/PRINTF

putchar/zf_common_debug                       ----- -----
  +--> uart_write_byte/zf_driver_uart

uart_write_byte/zf_driver_uart                ----- -----
  +--> uart_write_buffer/zf_driver_uart

uart_write_buffer/zf_driver_uart              ----- -----
  +--> memcpy?_/memcpy

memcpy?_/memcpy                               ----- -----

system_delay_ms/zf_driver_delay               ----- -----
  +--> delay_cycles/zf_driver_delay

delay_cycles/zf_driver_delay                  ----- -----

timer_funciton_check/zf_driver_timer          ----- -----

gpio_init/zf_driver_gpio                      ----- -----
  +--> debug_assert_handler/zf_common_debug
  +--> gpio_set_dir/zf_driver_gpio
  +--> gpio_set_mode/zf_driver_gpio
  +--> gpio_set_impedance/zf_driver_gpio
  +--> gpio_set_level/zf_driver_gpio

gpio_set_dir/zf_driver_gpio                   ----- -----
  +--> debug_assert_handler/zf_common_debug

gpio_set_mode/zf_driver_gpio                  ----- -----

gpio_set_impedance/zf_driver_gpio             ----- -----

gpio_set_level/zf_driver_gpio                 ----- -----

uart_dma_init/zf_driver_uart                  ----- -----

fifo_init/zf_common_fifo                      ----- -----
  +--> debug_assert_handler/zf_common_debug

uart_rx_interrupt/zf_driver_uart              ----- -----

debug_interrupr_handler/zf_common_debug       ----- -----
  +--> uart_query_byte/zf_driver_uart
  +--> fifo_write_buffer/zf_common_fifo

uart_query_byte/zf_driver_uart                ----- -----
  +--> uart_rx_start_buff/zf_driver_uart

uart_rx_start_buff/zf_driver_uart             ----- -----

fifo_write_buffer/zf_common_fifo              ----- -----
  +--> debug_assert_handler/zf_common_debug
  +--> memcpy?_/memcpy
  +--> fifo_head_offset/zf_common_fifo

fifo_head_offset/zf_common_fifo               ----- -----

interrupt_global_disable/zf_common_inter+     ----- -----
... rupt

gyro_init/imu                                 ----- -----
  +--> IMU_gyro_Offset_Init/imu
L251 LINKER/LOCATER V4.66.93.0                                                        03/26/2026  19:04:27  PAGE 21


  +--> KalmanCreate/imu

IMU_gyro_Offset_Init/imu                      ----- -----
  +--> system_delay_ms/zf_driver_delay

KalmanCreate/imu                              ----- -----

Menu_Init/menu                                ----- -----
  +--> ips114_init/zf_device_ips114
  +--> ips114_clear/zf_device_ips114
  +--> ips114_show_string/zf_device_ips114

ips114_init/zf_device_ips114                  ----- -----
  +--> debug_assert_handler/zf_common_debug
  +--> spi_init/zf_driver_spi
  +--> ips114_set_dir/zf_device_ips114
  +--> ips114_set_color/zf_device_ips114
  +--> system_delay_ms/zf_driver_delay
  +--> ips114_write_index/zf_device_ips114
  +--> spi_write_8bit/zf_driver_spi
  +--> ips114_clear/zf_device_ips114

spi_init/zf_driver_spi                        ----- -----
  +--> debug_assert_handler/zf_common_debug
  +--> gpio_init/zf_driver_gpio
  +--> gpio_set_level_speed/zf_driver_gpio
  +--> ?C?ULIDIV/?C?ULDIV
  +--> uart_funciton_check/zf_driver_uart

gpio_set_level_speed/zf_driver_gpio           ----- -----

ips114_set_dir/zf_device_ips114               ----- -----

ips114_set_color/zf_device_ips114             ----- -----

ips114_write_index/zf_device_ips114           ----- -----
  +--> spi_write_8bit/zf_driver_spi

spi_write_8bit/zf_driver_spi                  ----- -----
  +--> spi_write_dat/zf_driver_spi

spi_write_dat/zf_driver_spi                   ----- -----
  +--> debug_assert_handler/zf_common_debug

ips114_clear/zf_device_ips114                 ----- -----
  +--> ips114_set_region/zf_device_ips114
  +--> spi_write_16bit/zf_driver_spi

ips114_set_region/zf_device_ips114            ----- -----
  +--> debug_assert_handler/zf_common_debug
  +--> ips114_write_index/zf_device_ips114
  +--> spi_write_16bit/zf_driver_spi

spi_write_16bit/zf_driver_spi                 ----- -----
  +--> spi_write_dat/zf_driver_spi

ips114_show_string/zf_device_ips114           ----- -----
  +--> debug_assert_handler/zf_common_debug
  +--> ips114_show_char/zf_device_ips114

ips114_show_char/zf_device_ips114             ----- -----
  +--> debug_assert_handler/zf_common_debug
  +--> ips114_set_region/zf_device_ips114
  +--> spi_write_16bit/zf_driver_spi

L251 LINKER/LOCATER V4.66.93.0                                                        03/26/2026  19:04:27  PAGE 22


pit_init/zf_driver_pit                        ----- -----
  +--> ?C?ULIDIV/?C?ULDIV

Inductance_Init/inductance                    ----- -----
  +--> adc_init/zf_driver_adc

adc_init/zf_driver_adc                        ----- -----

Buzzer_Init/buzzer                            ----- -----
  +--> gpio_init/zf_driver_gpio

wireless_uart_init/zf_device_wireless_ua+     ----- -----
... rt
  +--> wireless_uart_callback/zf_device_wireless_uart
  +--> set_wireless_type/zf_device_type
  +--> fifo_init/zf_common_fifo
  +--> gpio_init/zf_driver_gpio
  +--> uart_init/zf_driver_uart
  +--> uart_rx_interrupt/zf_driver_uart

wireless_uart_callback/zf_device_wireles+     ----- -----
... s_uart
  +--> fifo_write_buffer/zf_common_fifo

set_wireless_type/zf_device_type              ----- -----

imu660ra_init/zf_device_imu660ra              ----- -----
  +--> system_delay_ms/zf_driver_delay
  +--> imu660ra_read_register/zf_device_imu660ra
  +--> imu660ra_self_check/zf_device_imu660ra
  +--> PRINTF/PRINTF
  +--> imu660ra_write_register/zf_device_imu660ra
  +--> imu660ra_write_registers/zf_device_imu660ra

imu660ra_read_register/zf_device_imu660r+     ----- -----
... a
  +--> imu660ra_simspi_r_reg_bytes/zf_device_imu660ra

imu660ra_simspi_r_reg_bytes/zf_device_im+     ----- -----
... u660ra
  +--> imu660ra_simspi_wr_byte/zf_device_imu660ra

imu660ra_simspi_wr_byte/zf_device_imu660+     ----- -----
... ra

imu660ra_self_check/zf_device_imu660ra        ----- -----
  +--> imu660ra_read_register/zf_device_imu660ra
  +--> PRINTF/PRINTF
  +--> system_delay_ms/zf_driver_delay

imu660ra_write_register/zf_device_imu660+     ----- -----
... ra
  +--> imu660ra_simspi_w_reg_byte/zf_device_imu660ra

imu660ra_simspi_w_reg_byte/zf_device_imu+     ----- -----
... 660ra
  +--> imu660ra_simspi_wr_byte/zf_device_imu660ra

imu660ra_write_registers/zf_device_imu66+     ----- -----
... 0ra
  +--> imu660ra_simspi_w_reg_bytes/zf_device_imu660ra

imu660ra_simspi_w_reg_bytes/zf_device_im+     ----- -----
... u660ra
  +--> imu660ra_simspi_wr_byte/zf_device_imu660ra
L251 LINKER/LOCATER V4.66.93.0                                                        03/26/2026  19:04:27  PAGE 23



Inductance_Read/inductance                    ----- -----
  +--> adc_convert/zf_driver_adc
  +--> Median_Average_Filter/inductance

adc_convert/zf_driver_adc                     ----- -----

Median_Average_Filter/inductance              ----- -----

Menu_Display/menu                             ----- -----
  +--> ips114_show_float/zf_device_ips114
  +--> ips114_show_uint16/zf_device_ips114
  +--> Send_Data_To_PC/menu

ips114_show_float/zf_device_ips114            ----- -----
  +--> debug_assert_handler/zf_common_debug
  +--> zf_sprintf/zf_common_function
  +--> ips114_show_string/zf_device_ips114

zf_sprintf/zf_common_function                 ----- -----
  +--> number_conversion_ascii/zf_common_function
  +--> printf_reverse_order/zf_common_function
  +--> memcpy?_/memcpy

number_conversion_ascii/zf_common_functi+     ----- -----
... on
  +--> ?C?SLDIV/?C?SLDIV
  +--> ?C?ULIDIV/?C?ULDIV

printf_reverse_order/zf_common_function       ----- -----

ips114_show_uint16/zf_device_ips114           ----- -----
  +--> debug_assert_handler/zf_common_debug
  +--> ips114_show_char/zf_device_ips114

Send_Data_To_PC/menu                          ----- -----
  +--> SPRINTF/SPRINTF
  +--> wireless_uart_send_string/zf_device_wireless_uart

SPRINTF/SPRINTF                               1057H 107EH
  +--> OUT/SPRINTF

OUT/SPRINTF                                   ----- -----
  +--> PUTCH/SPRINTF

PUTCH/SPRINTF                                 ----- -----

wireless_uart_send_string/zf_device_wire+     ----- -----
... less_uart
  +--> strlen?_/STRLEN
  +--> debug_assert_handler/zf_common_debug
  +--> wireless_uart_send_buffer/zf_device_wireless_uart

strlen?_/STRLEN                               ----- -----

wireless_uart_send_buffer/zf_device_wire+     ----- -----
... less_uart
  +--> debug_assert_handler/zf_common_debug
  +--> gpio_get_level/zf_driver_gpio
  +--> uart_write_buffer/zf_driver_uart
  +--> system_delay_ms/zf_driver_delay

gpio_get_level/zf_driver_gpio                 ----- -----

*** NEW ROOT ********************************
L251 LINKER/LOCATER V4.66.93.0                                                        03/26/2026  19:04:27  PAGE 24



INT0_IRQHandler/isr                           ----- -----

*** NEW ROOT ********************************

INT1_IRQHandler/isr                           ----- -----

*** NEW ROOT ********************************

INT2_IRQHandler/isr                           ----- -----

*** NEW ROOT ********************************

INT3_IRQHandler/isr                           ----- -----

*** NEW ROOT ********************************

INT4_IRQHandler/isr                           ----- -----

*** NEW ROOT ********************************

DMA_UART1_IRQHandler/isr                      ----- -----
  +--> uart_rx_start_buff/zf_driver_uart

*** NEW ROOT ********************************

DMA_UART2_IRQHandler/isr                      ----- -----
  +--> uart_rx_start_buff/zf_driver_uart

*** NEW ROOT ********************************

DMA_UART3_IRQHandler/isr                      ----- -----
  +--> uart_rx_start_buff/zf_driver_uart

*** NEW ROOT ********************************

DMA_UART4_IRQHandler/isr                      ----- -----
  +--> uart_rx_start_buff/zf_driver_uart

*** NEW ROOT ********************************

TM0_IRQHandler/isr                            ----- -----

*** NEW ROOT ********************************

TM1_IRQHandler/isr                            ----- -----

*** NEW ROOT ********************************

TM2_IRQHandler/isr                            ----- -----

*** NEW ROOT ********************************

TM3_IRQHandler/isr                            ----- -----

*** NEW ROOT ********************************

TM4_IRQHandler/isr                            ----- -----

*** NEW ROOT ********************************

?C_C51STARTUP?2                               ----- -----



L251 LINKER/LOCATER V4.66.93.0                                                        03/26/2026  19:04:27  PAGE 25


PUBLIC SYMBOLS OF MODULE:  .\out_file\SEEKFREE (?C_START)


      VALUE       CLASS    TYPE      PUBLIC SYMBOL NAME
      =================================================
      00011686H   XDATA    BYTE      ?Adc_Normalize?BYTE
      00FF304AH   CODE     ---       ?C?BMOVEPP
      00FF3048H   CODE     ---       ?C?BMOVEPP8
      00FF243EH   CODE     NEAR LAB  ?C?CASTF
      000000FFH   NUMBER   ---       ?C?CODESEG
      00FF240BH   CODE     NEAR LAB  ?C?FCASTC
      00FF2406H   CODE     NEAR LAB  ?C?FCASTI
      00FF2401H   CODE     NEAR LAB  ?C?FCASTL
      00FF2C4BH   CODE     ---       ?C?FP2SERIES
      00FF21D4H   CODE     ---       ?C?FPADD
      00FF23AFH   CODE     ---       ?C?FPCMP
      00FF23ADH   CODE     ---       ?C?FPCMP3
      00FF2E13H   CODE     ---       ?C?FPCONVERT
      00FF232CH   CODE     ---       ?C?FPDIV
      00FF27A1H   CODE     ---       ?C?FPGETOPN2
      00FF228CH   CODE     ---       ?C?FPMUL
      00FF27DEH   CODE     ---       ?C?FPNANRESULT
      00FF23F3H   CODE     ---       ?C?FPNEG
      00FF27E6H   CODE     ---       ?C?FPOVERFLOW
      00FF27BAH   CODE     ---       ?C?FPRESULT
      00FF27D0H   CODE     ---       ?C?FPRESULT2
      00FF2ECBH   CODE     ---       ?C?FPROUND
      00FF2C54H   CODE     ---       ?C?FPSERIES
      00FF21D1H   CODE     ---       ?C?FPSUB
      00FF27E3H   CODE     ---       ?C?FPUNDERFLOW
      00FF2F3EH   CODE     ---       ?C?FTNPWR
      00FF8F17H   CODE     ---       ?C?INITHDATA
      00FF9AAAH   HCONST   WORD      ?C?INITHDATA_END
      00FF2FB8H   CODE     ---       ?C?LIMUL
      00FF2FA7H   CODE     ---       ?C?LMUL
      00FF283CH   CODE     ---       ?C?PRNFMT
      00FF2F75H   CODE     ---       ?C?SIDIV
      00FF3014H   CODE     NEAR LAB  ?C?SLDIV
      00FF0000H   CODE     ---       ?C?STARTUP
      00FF2FC3H   CODE     NEAR LAB  ?C?ULDIV
      00FF2FC1H   CODE     NEAR LAB  ?C?ULIDIV
      00000001H   NUMBER   ---       ?C?XDATASEG
      00FF0000H   CODE     ---       ?C_STARTUP
      0001199BH   XDATA    BYTE      ?eeprom_read?BYTE
      000115C2H   XDATA    BYTE      ?fifo_init?BYTE
      00011292H   XDATA    BYTE      ?fifo_read_buffer?BYTE
      00011417H   XDATA    BYTE      ?fifo_write_buffer?BYTE
      000111DCH   XDATA    BYTE      ?get_two_points_azimuth?BYTE
      00010E3DH   XDATA    BYTE      ?get_two_points_distance?BYTE
      00011923H   XDATA    BYTE      ?iap_read_buff?BYTE
      0001192DH   XDATA    BYTE      ?iap_write_buff?BYTE
      00011260H   XDATA    BYTE      ?ips114_show_chinese?BYTE
      00010E6DH   XDATA    BYTE      ?ips114_show_float?BYTE
      000110C6H   XDATA    BYTE      ?ips114_show_wave?BYTE
      00011279H   XDATA    BYTE      ?ips200_show_chinese?BYTE
      00010E9DH   XDATA    BYTE      ?ips200_show_float?BYTE
      000110E6H   XDATA    BYTE      ?ips200_show_wave?BYTE
      000111F8H   XDATA    BYTE      ?ips200pro_create_widgets?BYTE
      0001102FH   XDATA    BYTE      ?ips200pro_image_display?BYTE
      0001122DH   XDATA    BYTE      ?ips200pro_image_draw_line?BYTE
      000110A4H   XDATA    BYTE      ?ips200pro_image_draw_rectangle?BYTE
      00010DEEH   XDATA    BYTE      ?ips200pro_label_printf?BYTE
      00011709H   XDATA    BYTE      ?ips200pro_receive_buffer?BYTE
      0001164EH   XDATA    BYTE      ?ips200pro_send_buffer?BYTE
      00010D69H   XDATA    BYTE      ?ips200pro_table_cell_printf?BYTE
L251 LINKER/LOCATER V4.66.93.0                                                        03/26/2026  19:04:27  PAGE 26


      00011213H   XDATA    BYTE      ?ips200pro_waveform_add_value?BYTE
      00011145H   XDATA    BYTE      ?ips200pro_write_packet?BYTE
      000118B2H   XDATA    BYTE      ?KalmanCreate?BYTE
      0001107FH   XDATA    ---       ?printf?BYTE
      00011429H   XDATA    BYTE      ?pwm_init?BYTE
      0001132CH   XDATA    BYTE      ?pwm_set_freq?BYTE
      000118CAH   XDATA    BYTE      ?range_protect?BYTE
      00011164H   XDATA    BYTE      ?seekfree_assistant_camera_boundary_config?BYTE
      000115B3H   XDATA    BYTE      ?seekfree_assistant_camera_data_send?BYTE
      00011987H   XDATA    BYTE      ?seekfree_assistant_camera_information_config?BYTE
      000116BBH   XDATA    BYTE      ?soft_iic_init?BYTE
      0001176EH   XDATA    BYTE      ?soft_iic_read_16bit_array?BYTE
      000115FAH   XDATA    BYTE      ?soft_iic_read_16bit_registers?BYTE
      00011762H   XDATA    BYTE      ?soft_iic_read_8bit_array?BYTE
      000116AEH   XDATA    BYTE      ?soft_iic_read_8bit_registers?BYTE
      00011354H   XDATA    BYTE      ?soft_iic_transfer_16bit_array?BYTE
      00011340H   XDATA    BYTE      ?soft_iic_transfer_8bit_array?BYTE
      00011756H   XDATA    BYTE      ?soft_iic_write_16bit_array?BYTE
      000115ECH   XDATA    BYTE      ?soft_iic_write_16bit_registers?BYTE
      0001174AH   XDATA    BYTE      ?soft_iic_write_8bit_array?BYTE
      000116A1H   XDATA    BYTE      ?soft_iic_write_8bit_registers?BYTE
      000112DAH   XDATA    BYTE      ?soft_spi_init?BYTE
      0001179EH   XDATA    BYTE      ?soft_spi_read_16bit_array?BYTE
      00011616H   XDATA    BYTE      ?soft_spi_read_16bit_registers?BYTE
      00011792H   XDATA    BYTE      ?soft_spi_read_8bit_array?BYTE
      000116D5H   XDATA    BYTE      ?soft_spi_read_8bit_registers?BYTE
      00011519H   XDATA    BYTE      ?soft_spi_transfer_16bit?BYTE
      00011509H   XDATA    BYTE      ?soft_spi_transfer_8bit?BYTE
      00011786H   XDATA    BYTE      ?soft_spi_write_16bit_array?BYTE
      00011608H   XDATA    BYTE      ?soft_spi_write_16bit_registers?BYTE
      0001177AH   XDATA    BYTE      ?soft_spi_write_8bit_array?BYTE
      000116C8H   XDATA    BYTE      ?soft_spi_write_8bit_registers?BYTE
      00011368H   XDATA    BYTE      ?spi_init?BYTE
      00011955H   XDATA    BYTE      ?spi_read_16bit_array?BYTE
      000117B6H   XDATA    BYTE      ?spi_read_16bit_registers?BYTE
      0001194BH   XDATA    BYTE      ?spi_read_8bit_array?BYTE
      000118F7H   XDATA    BYTE      ?spi_read_8bit_registers?BYTE
      00011632H   XDATA    BYTE      ?spi_transfer_16bit?BYTE
      00011624H   XDATA    BYTE      ?spi_transfer_8bit?BYTE
      00011941H   XDATA    BYTE      ?spi_write_16bit_array?BYTE
      000117AAH   XDATA    BYTE      ?spi_write_16bit_registers?BYTE
      00011937H   XDATA    BYTE      ?spi_write_8bit_array?BYTE
      000118ECH   XDATA    BYTE      ?spi_write_8bit_registers?BYTE
      0001107FH   XDATA    ---       ?sprintf?BYTE
      00010ECDH   XDATA    BYTE      ?tft180_show_float?BYTE
      00011106H   XDATA    BYTE      ?tft180_show_wave?BYTE
      000117DAH   XDATA    BYTE      ?uart_init?BYTE
      00010C0CH   XDATA    BYTE      ?vsnprintf?BYTE
      00010ACEH   XDATA    BYTE      ?zf_sprintf?BYTE
      00FF27F2H   CODE     ---       _chkfloat_?_
      00FF94E5H   CODE     ---       _m
*SFR* 000000D0H.6 DATA     BIT       AC
*SFR* 000000E0H   DATA     BYTE      ACC
      00011C8FH   XDATA    WORD      ad_result
*SFR* 000000BCH   DATA     BYTE      ADC_CONTR
      00FF8CBFH   CODE     ---       adc_convert
      00FF7E8AH   CODE     ---       adc_init
*DEL*:00000000H   CODE     ---       adc_mean_filter_convert
*DEL*:00000000H   CODE     ---       Adc_Normalize
*SFR* 000000BDH   DATA     BYTE      ADC_RES
*SFR* 000000BEH   DATA     BYTE      ADC_RESL
*SFR* 000000DEH   DATA     BYTE      ADCCFG
      00FF3990H   CODE     ---       ascii_font_8x16
      00FF2781H   CODE     ---       asin?_
      00FF26AFH   CODE     ---       atan?_
L251 LINKER/LOCATER V4.66.93.0                                                        03/26/2026  19:04:27  PAGE 27


*SFR* 000000EFH   DATA     BYTE      AUXINTIF
*SFR* 0000008EH   DATA     BYTE      AUXR
*SFR* 00000097H   DATA     BYTE      AUXR2
*SFR* 000000F0H   DATA     BYTE      B
      00011C91H   XDATA    FLOAT     battery_voltage
*DEL*:00000000H   CODE     ---       ble6a20_callback
*DEL*:00000000H   CODE     ---       ble6a20_init
*DEL*:00000000H   CODE     ---       ble6a20_read_buffer
*DEL*:00000000H   CODE     ---       ble6a20_send_buffer
*DEL*:00000000H   CODE     ---       ble6a20_send_byte
*DEL*:00000000H   CODE     ---       ble6a20_send_string
      00011DF3H   XDATA    ---       buff
      00FF9598H   CODE     ---       Buzzer_Init
*DEL*:00000000H   CODE     ---       Buzzer_Off
*DEL*:00000000H   CODE     ---       Buzzer_On
*SFR* 000000C8H.1 DATA     BIT       C_T2
*SFR* 000000F1H   DATA     BYTE      CANICR
      00FF8FECH   CODE     ---       Car_Init
*SFR* 000000FAH   DATA     BYTE      CCAP0H
*SFR* 000000EAH   DATA     BYTE      CCAP0L
*SFR* 000000FBH   DATA     BYTE      CCAP1H
*SFR* 000000EBH   DATA     BYTE      CCAP1L
*SFR* 000000FCH   DATA     BYTE      CCAP2H
*SFR* 000000ECH   DATA     BYTE      CCAP2L
*SFR* 000000FDH   DATA     BYTE      CCAP3H
*SFR* 000000EDH   DATA     BYTE      CCAP3L
*SFR* 000000FEH   DATA     BYTE      CCAP4H
*SFR* 000000EEH   DATA     BYTE      CCAP4L
*SFR* 000000DAH   DATA     BYTE      CCAPM0
*SFR* 000000DBH   DATA     BYTE      CCAPM1
*SFR* 000000DCH   DATA     BYTE      CCAPM2
*SFR* 000000DDH   DATA     BYTE      CCAPM3
*SFR* 000000DEH   DATA     BYTE      CCAPM4
*SFR* 000000D8H.0 DATA     BIT       CCF0
*SFR* 000000D8H.1 DATA     BIT       CCF1
*SFR* 000000D8H.2 DATA     BIT       CCF2
*SFR* 000000D8H.3 DATA     BIT       CCF3
*SFR* 000000D8H.4 DATA     BIT       CCF4
*SFR* 000000D8H   DATA     BYTE      CCON
*SFR* 00000090H.3 DATA     BIT       CEX0
*SFR* 00000090H.4 DATA     BIT       CEX1
*SFR* 00000090H.5 DATA     BIT       CEX2
*SFR* 00000090H.6 DATA     BIT       CEX3
*SFR* 00000090H.7 DATA     BIT       CEX4
*SFR* 000000D8H.7 DATA     BIT       CF
*SFR* 000000F9H   DATA     BYTE      CH
*SFR* 000000EAH   DATA     BYTE      CKCON
*SFR* 000000E9H   DATA     BYTE      CL
      00FF88F4H   CODE     ---       clock_init
*SFR* 000000D9H   DATA     BYTE      CMOD
*SFR* 000000E6H   DATA     BYTE      CMPCR1
*SFR* 000000E7H   DATA     BYTE      CMPCR2
      00FF259FH   CODE     ---       cos?_
*SFR* 000000C8H.0 DATA     BIT       CP_RL2
*SFR* 000000D8H.6 DATA     BIT       CR
*SFR* 000000D0H.7 DATA     BIT       CY
      00010DA6H   XDATA    ---       data_buffer
      000107F6H   XDATA    FLOAT     Daty_X
      000107FAH   XDATA    FLOAT     Daty_Y
      000107FEH   XDATA    FLOAT     Daty_Z
      00FF8AF8H   CODE     ---       debug_assert_handler
      00FF8301H   CODE     ---       debug_init
      00FF92AFH   CODE     ---       debug_interrupr_handler
*DEL*:00000000H   CODE     ---       debug_read_buffer
*DEL*:00000000H   CODE     ---       debug_send_buffer
L251 LINKER/LOCATER V4.66.93.0                                                        03/26/2026  19:04:27  PAGE 28


      00010B05H   XDATA    ---       debug_uart_buffer
      00010B46H   XDATA    ---       debug_uart_fifo
      000116EBH   XDATA    WORD      dl1a_distance_mm
      000116EDH   XDATA    BYTE      dl1a_finsh_flag
*DEL*:00000000H   CODE     ---       dl1a_get_distance
*DEL*:00000000H   CODE     ---       dl1a_init
*DEL*:00000000H   CODE     ---       dl1a_int_handler
      000116F8H   XDATA    WORD      dl1b_distance_mm
      000116FAH   XDATA    BYTE      dl1b_finsh_flag
*DEL*:00000000H   CODE     ---       dl1b_get_distance
*DEL*:00000000H   CODE     ---       dl1b_init
*DEL*:00000000H   CODE     ---       dl1b_int_handler
      00FF8251H   CODE     ---       DMA_UART1_IRQHandler
      00FF86C2H   CODE     ---       DMA_UART2_IRQHandler
      00FF8751H   CODE     ---       DMA_UART3_IRQHandler
      00FF87E0H   CODE     ---       DMA_UART4_IRQHandler
*SFR* 00000083H   DATA     BYTE      DPH
*SFR* 00000082H   DATA     BYTE      DPL
*SFR* 00000084H   DATA     BYTE      DPXL
*SFR* 000000A8H.7 DATA     BIT       EA
*SFR* 000000BAH.7 DATA     BIT       EAXFR
*SFR* 000000A8H.6 DATA     BIT       EC
*SFR* 00000090H.2 DATA     BIT       ECI
*DEL*:00000000H   CODE     ---       eeprom_init
*DEL*:00000000H   CODE     ---       eeprom_read
*DEL*:00000000H   CODE     ---       eeprom_read_value
*DEL*:00000000H   CODE     ---       eeprom_trig
*DEL*:00000000H   CODE     ---       eeprom_write_value
*DEL*:00000000H   CODE     ---       encoder_clear_count
*DEL*:00000000H   CODE     ---       encoder_dir_init
*DEL*:00000000H   CODE     ---       encoder_get_count
*DEL*:00000000H   CODE     ---       encoder_init
*SFR* 000000A8H.4 DATA     BIT       ES
*SFR* 000000A8H.1 DATA     BIT       ET0
*SFR* 000000A8H.3 DATA     BIT       ET1
*SFR* 000000A8H.5 DATA     BIT       ET2
*SFR* 000000A8H.0 DATA     BIT       EX0
*SFR* 000000A8H.2 DATA     BIT       EX1
*SFR* 0000008FH.4 DATA     BIT       EX2
*SFR* 0000008FH.5 DATA     BIT       EX3
*SFR* 0000008FH.6 DATA     BIT       EX4
*SFR* 000000C8H.3 DATA     BIT       EXEN2
*SFR* 000000C8H.6 DATA     BIT       EXF2
      00FF2CB1H   CODE     ---       exp?_
*DEL*:00000000H   CODE     ---       extern_iap_write_buff
*DEL*:00000000H   CODE     ---       exti_all_close
*DEL*:00000000H   CODE     ---       exti_disable
*DEL*:00000000H   CODE     ---       exti_enable
*DEL*:00000000H   CODE     ---       exti_init
*SFR* 000000D0H.5 DATA     BIT       F0
*DEL*:00000000H   CODE     ---       fast_sqrt
*SFR* 00000098H.7 DATA     BIT       FE
*DEL*:00000000H   CODE     ---       fifo_clear
      00FF7BE9H   CODE     ---       fifo_init
*DEL*:00000000H   CODE     ---       fifo_read_buffer
*DEL*:00000000H   CODE     ---       fifo_used
      00FF3F80H   CODE     ---       fifo_write_buffer
      000107CAH   XDATA    ---       first_complement
*DEL*:00000000H   CODE     ---       First_complement_Init
*DEL*:00000000H   CODE     ---       func_double_to_str
*DEL*:00000000H   CODE     ---       func_float_to_str
*DEL*:00000000H   CODE     ---       func_get_greatest_common_divisor
*DEL*:00000000H   CODE     ---       func_hex_to_str
*DEL*:00000000H   CODE     ---       func_int_to_str
*DEL*:00000000H   CODE     ---       func_soft_delay
L251 LINKER/LOCATER V4.66.93.0                                                        03/26/2026  19:04:27  PAGE 29


*DEL*:00000000H   CODE     ---       func_str_to_double
*DEL*:00000000H   CODE     ---       func_str_to_float
*DEL*:00000000H   CODE     ---       func_str_to_hex
*DEL*:00000000H   CODE     ---       func_str_to_int
*DEL*:00000000H   CODE     ---       func_str_to_uint
*DEL*:00000000H   CODE     ---       func_uint_to_str
*DEL*:00000000H   CODE     ---       get_two_points_azimuth
*DEL*:00000000H   CODE     ---       get_two_points_distance
      00FF6EC6H   CODE     ---       gpio_get_level
      00FF76E9H   CODE     ---       gpio_init
      00FF69DAH   CODE     ---       gpio_set_impedance
      00FF5FFFH   CODE     ---       gpio_set_level
      00FF4F85H   CODE     ---       gpio_set_level_speed
*DEL*:00000000H   CODE     ---       gpio_toggle_level
*DEL*:00000000H   CODE     ---       gps_data_parse
      000105D0H   XDATA    INT       gps_gga_state
*DEL*:00000000H   CODE     ---       gps_init
      000105D2H   XDATA    INT       gps_rmc_state
      000104A4H   XDATA    ---       gps_tau1201
      00010423H   XDATA    BYTE      gps_tau1201_flag
      00011B6FH   XDATA    INT       gps_type
*DEL*:00000000H   CODE     ---       gps_uart_callback
      00010D86H   XDATA    ---       gyro_buffer
      00FF8F9EH   CODE     ---       gyro_init
      00010812H   XDATA    ---       Gyro_Offset
      0001077AH   XDATA    FLOAT     gyro_Offset_flag
*DEL*:00000000H   CODE     ---       gyro_proc
      000107BEH   XDATA    FLOAT     gyrox
      000107C2H   XDATA    FLOAT     gyroy
      000107C6H   XDATA    FLOAT     gyroz
*SFR* 000000F6H   DATA     BYTE      IAP_ADDRE
*SFR* 000000C3H   DATA     BYTE      IAP_ADDRH
*SFR* 000000C4H   DATA     BYTE      IAP_ADDRL
*SFR* 000000C5H   DATA     BYTE      IAP_CMD
*SFR* 000000C7H   DATA     BYTE      IAP_CONTR
*SFR* 000000C2H   DATA     BYTE      IAP_DATA
*DEL*:00000000H   CODE     ---       iap_erase_page
*DEL*:00000000H   CODE     ---       iap_get_cmd_state
*DEL*:00000000H   CODE     ---       iap_idle
*DEL*:00000000H   CODE     ---       iap_init
*DEL*:00000000H   CODE     ---       iap_read_buff
*DEL*:00000000H   CODE     ---       iap_read_byte
*DEL*:00000000H   CODE     ---       iap_set_tps
*SFR* 000000F5H   DATA     BYTE      IAP_TPS
*SFR* 000000C6H   DATA     BYTE      IAP_TRIG
*DEL*:00000000H   CODE     ---       iap_write_buff
*DEL*:00000000H   CODE     ---       iap_write_byte
      0001137CH   XDATA    INT       icm20602_acc_x
      0001137EH   XDATA    INT       icm20602_acc_y
      00011380H   XDATA    INT       icm20602_acc_z
*DEL*:00000000H   CODE     ---       icm20602_get_acc
*DEL*:00000000H   CODE     ---       icm20602_get_gyro
      00011382H   XDATA    INT       icm20602_gyro_x
      00011384H   XDATA    INT       icm20602_gyro_y
      00011386H   XDATA    INT       icm20602_gyro_z
*DEL*:00000000H   CODE     ---       icm20602_init
      00011388H   XDATA    ---       icm20602_transition_factor
*SFR* 000000A8H   DATA     BYTE      IE
*SFR* 000000A8H   DATA     BYTE      IE0
*SFR* 00000088H.1 DATA     BIT       IE0_
*SFR* 000000B1H   DATA     BYTE      IE1
*SFR* 00000088H.3 DATA     BIT       IE1_
*SFR* 000000AFH   DATA     BYTE      IE2
      00011390H   XDATA    INT       imu660ra_acc_x
      00011392H   XDATA    INT       imu660ra_acc_y
L251 LINKER/LOCATER V4.66.93.0                                                        03/26/2026  19:04:27  PAGE 30


      00011394H   XDATA    INT       imu660ra_acc_z
      00FF01CEH   CODE     ---       imu660ra_config_file
*DEL*:00000000H   CODE     ---       imu660ra_get_acc
*DEL*:00000000H   CODE     ---       imu660ra_get_gyro
      00011396H   XDATA    INT       imu660ra_gyro_x
      00011398H   XDATA    INT       imu660ra_gyro_y
      0001139AH   XDATA    INT       imu660ra_gyro_z
      00FF6425H   CODE     ---       imu660ra_init
      0001139CH   XDATA    ---       imu660ra_transition_factor
*DEL*:00000000H   CODE     ---       imu660rb_acc_transition
      00011822H   XDATA    INT       imu660rb_acc_x
      00011824H   XDATA    INT       imu660rb_acc_y
      00011826H   XDATA    INT       imu660rb_acc_z
*DEL*:00000000H   CODE     ---       imu660rb_get_acc
*DEL*:00000000H   CODE     ---       imu660rb_get_gyro
*DEL*:00000000H   CODE     ---       imu660rb_gyro_transition
      00011828H   XDATA    INT       imu660rb_gyro_x
      0001182AH   XDATA    INT       imu660rb_gyro_y
      0001182CH   XDATA    INT       imu660rb_gyro_z
*DEL*:00000000H   CODE     ---       imu660rb_init
      000111A1H   XDATA    INT       imu963ra_acc_x
      000111A3H   XDATA    INT       imu963ra_acc_y
      000111A5H   XDATA    INT       imu963ra_acc_z
*DEL*:00000000H   CODE     ---       imu963ra_get_acc
*DEL*:00000000H   CODE     ---       imu963ra_get_gyro
*DEL*:00000000H   CODE     ---       imu963ra_get_mag
      000111ADH   XDATA    INT       imu963ra_gyro_x
      000111AFH   XDATA    INT       imu963ra_gyro_y
      000111B1H   XDATA    INT       imu963ra_gyro_z
*DEL*:00000000H   CODE     ---       imu963ra_init
      000111A7H   XDATA    INT       imu963ra_mag_x
      000111A9H   XDATA    INT       imu963ra_mag_y
      000111ABH   XDATA    INT       imu963ra_mag_z
      000111B3H   XDATA    ---       imu963ra_transition_factor
      00011749H   XDATA    BYTE      imu_cnt
      000107DEH   XDATA    ---       IMU_Data
*DEL*:00000000H   CODE     ---       IMU_GetValues
      00FF7285H   CODE     ---       IMU_gyro_Offset_Init
*DEL*:00000000H   CODE     ---       IMU_Handle_0
*DEL*:00000000H   CODE     ---       IMU_Handle_180
*DEL*:00000000H   CODE     ---       IMU_Handle_360
*DEL*:00000000H   CODE     ---       IMU_YAW_integral
      00011993H   XDATA    ---       ind_data
*DEL*:00000000H   CODE     ---       Inductance_Count_Err
      00FF949BH   CODE     ---       Inductance_Init
      00FF77F8H   CODE     ---       Inductance_Read
*SFR* 000000B0H.2 DATA     BIT       INT0
      0001118FH   XDATA    ---       int0_irq_handler
      00FF902FH   CODE     ---       INT0_IRQHandler
*SFR* 000000B0H.3 DATA     BIT       INT1
      00011193H   XDATA    ---       int1_irq_handler
      00FF906FH   CODE     ---       INT1_IRQHandler
      00011197H   XDATA    ---       int2_irq_handler
      00FF90AFH   CODE     ---       INT2_IRQHandler
      0001119BH   XDATA    ---       int3_irq_handler
      00FF90EFH   CODE     ---       INT3_IRQHandler
      0001119FH   XDATA    ---       int4_irq_handler
      00FF912FH   CODE     ---       INT4_IRQHandler
*SFR* 0000008FH   DATA     BYTE      INTCLKO
      00FF0006H   CODE     ---       interrupt_global_disable
      00FF000EH   CODE     ---       interrupt_global_enable
*DEL*:00000000H   CODE     ---       interrupt_set_priority
*SFR* 000000B8H   DATA     BYTE      IP
*SFR* 000000B5H   DATA     BYTE      IP2
*SFR* 000000B6H   DATA     BYTE      IP2H
L251 LINKER/LOCATER V4.66.93.0                                                        03/26/2026  19:04:27  PAGE 31


*SFR* 000000DFH   DATA     BYTE      IP3
*SFR* 000000EEH   DATA     BYTE      IP3H
*SFR* 000000B7H   DATA     BYTE      IPH
*SFR* 000000B7H   DATA     BYTE      IPH0
*SFR* 000000B8H   DATA     BYTE      IPL0
      00011B23H   XDATA    WORD      ips114_bgcolor
      00FF886FH   CODE     ---       ips114_clear
      00011B25H   XDATA    INT       ips114_display_dir
*DEL*:00000000H   CODE     ---       ips114_draw_point
      00FF5875H   CODE     ---       ips114_init
      00011B21H   XDATA    WORD      ips114_pencolor
      00FF9476H   CODE     ---       ips114_set_color
      00FF9362H   CODE     ---       ips114_set_dir
      00FF73A4H   CODE     ---       ips114_show_char
*DEL*:00000000H   CODE     ---       ips114_show_chinese
      00FF6619H   CODE     ---       ips114_show_float
*DEL*:00000000H   CODE     ---       ips114_show_int16
*DEL*:00000000H   CODE     ---       ips114_show_int32
*DEL*:00000000H   CODE     ---       ips114_show_int8
      00FF7F4FH   CODE     ---       ips114_show_string
      00FF74C0H   CODE     ---       ips114_show_uint16
*DEL*:00000000H   CODE     ---       ips114_show_uint8
*DEL*:00000000H   CODE     ---       ips114_show_wave
      00011B27H   XDATA    BYTE      ips114_x_max
      00011B28H   XDATA    BYTE      ips114_y_max
      0001196BH   XDATA    WORD      ips200_bgcolor
*DEL*:00000000H   CODE     ---       ips200_clear
      0001196DH   XDATA    INT       ips200_display_dir
*DEL*:00000000H   CODE     ---       ips200_draw_point
*DEL*:00000000H   CODE     ---       ips200_init
      00011969H   XDATA    WORD      ips200_pencolor
*DEL*:00000000H   CODE     ---       ips200_set_color
*DEL*:00000000H   CODE     ---       ips200_set_dir
*DEL*:00000000H   CODE     ---       ips200_show_char
*DEL*:00000000H   CODE     ---       ips200_show_chinese
*DEL*:00000000H   CODE     ---       ips200_show_float
*DEL*:00000000H   CODE     ---       ips200_show_int16
*DEL*:00000000H   CODE     ---       ips200_show_int32
*DEL*:00000000H   CODE     ---       ips200_show_int8
*DEL*:00000000H   CODE     ---       ips200_show_string
*DEL*:00000000H   CODE     ---       ips200_show_uint16
*DEL*:00000000H   CODE     ---       ips200_show_uint8
*DEL*:00000000H   CODE     ---       ips200_show_wave
      0001196FH   XDATA    WORD      ips200_x_max
      00011971H   XDATA    WORD      ips200_y_max
*DEL*:00000000H   CODE     ---       ips200pro_calendar_create
*DEL*:00000000H   CODE     ---       ips200pro_calendar_display
*DEL*:00000000H   CODE     ---       ips200pro_clock_create
*DEL*:00000000H   CODE     ---       ips200pro_container_create
*DEL*:00000000H   CODE     ---       ips200pro_container_radius
*DEL*:00000000H   CODE     ---       ips200pro_create_widgets
*DEL*:00000000H   CODE     ---       ips200pro_delete_widgets
*DEL*:00000000H   CODE     ---       ips200pro_get_date
*DEL*:00000000H   CODE     ---       ips200pro_get_free_stack_size
*DEL*:00000000H   CODE     ---       ips200pro_get_information
*DEL*:00000000H   CODE     ---       ips200pro_get_time
*DEL*:00000000H   CODE     ---       ips200pro_image_create
*DEL*:00000000H   CODE     ---       ips200pro_image_display
*DEL*:00000000H   CODE     ---       ips200pro_image_draw_line
*DEL*:00000000H   CODE     ---       ips200pro_image_draw_rectangle
      00010C92H   XDATA    ---       ips200pro_information
*DEL*:00000000H   CODE     ---       ips200pro_init
*DEL*:00000000H   CODE     ---       ips200pro_label_create
*DEL*:00000000H   CODE     ---       ips200pro_label_mode
*DEL*:00000000H   CODE     ---       ips200pro_label_printf
L251 LINKER/LOCATER V4.66.93.0                                                        03/26/2026  19:04:27  PAGE 32


*DEL*:00000000H   CODE     ---       ips200pro_label_show_string
*DEL*:00000000H   CODE     ---       ips200pro_meter_create
*DEL*:00000000H   CODE     ---       ips200pro_meter_set_value
*DEL*:00000000H   CODE     ---       ips200pro_page_create
*DEL*:00000000H   CODE     ---       ips200pro_page_hidden
*DEL*:00000000H   CODE     ---       ips200pro_page_set_title_name
*DEL*:00000000H   CODE     ---       ips200pro_page_set_title_position_width
*DEL*:00000000H   CODE     ---       ips200pro_page_switch
*DEL*:00000000H   CODE     ---       ips200pro_progress_bar_create
*DEL*:00000000H   CODE     ---       ips200pro_progress_bar_set_value
*DEL*:00000000H   CODE     ---       ips200pro_read_parameter
*DEL*:00000000H   CODE     ---       ips200pro_receive_buffer
*DEL*:00000000H   CODE     ---       ips200pro_send_buffer
*DEL*:00000000H   CODE     ---       ips200pro_set_backlight
*DEL*:00000000H   CODE     ---       ips200pro_set_color
*DEL*:00000000H   CODE     ---       ips200pro_set_crc_state
*DEL*:00000000H   CODE     ---       ips200pro_set_date
*DEL*:00000000H   CODE     ---       ips200pro_set_default_font
*DEL*:00000000H   CODE     ---       ips200pro_set_direction
*DEL*:00000000H   CODE     ---       ips200pro_set_font
*DEL*:00000000H   CODE     ---       ips200pro_set_format
*DEL*:00000000H   CODE     ---       ips200pro_set_hidden
*DEL*:00000000H   CODE     ---       ips200pro_set_optimize
*DEL*:00000000H   CODE     ---       ips200pro_set_parent
*DEL*:00000000H   CODE     ---       ips200pro_set_position
*DEL*:00000000H   CODE     ---       ips200pro_set_time
*DEL*:00000000H   CODE     ---       ips200pro_table_cell_printf
*DEL*:00000000H   CODE     ---       ips200pro_table_create
*DEL*:00000000H   CODE     ---       ips200pro_table_select
*DEL*:00000000H   CODE     ---       ips200pro_table_set_col_width
      00010C9BH   XDATA    ---       ips200pro_time
*DEL*:00000000H   CODE     ---       ips200pro_waveform_add_value
*DEL*:00000000H   CODE     ---       ips200pro_waveform_clear
*DEL*:00000000H   CODE     ---       ips200pro_waveform_create
*DEL*:00000000H   CODE     ---       ips200pro_waveform_line_state
*DEL*:00000000H   CODE     ---       ips200pro_waveform_line_type
*DEL*:00000000H   CODE     ---       ips200pro_write_packet
*SFR* 0000009DH   DATA     BYTE      IRCBAND
*SFR* 0000009FH   DATA     BYTE      IRTRIM
*SFR* 00000088H.0 DATA     BIT       IT0
*SFR* 00000088H.2 DATA     BIT       IT1
      00010719H   XDATA    ---       Kalman1
      00010749H   XDATA    ---       Kalman2
      00FF7AFBH   CODE     ---       KalmanCreate
*DEL*:00000000H   CODE     ---       KalmanFilter
      00011747H   XDATA    INT       last_speed_left
      00011743H   XDATA    INT       last_speed_right
*DEL*:00000000H   CODE     ---       LED_Init
*DEL*:00000000H   CODE     ---       LED_Off
*DEL*:00000000H   CODE     ---       LED_On
*DEL*:00000000H   CODE     ---       LED_Switch
*SFR* 000000F9H   DATA     BYTE      LINICR
      00FF2D40H   CODE     NEAR LAB  log?_
      00FF93D7H   CODE     ---       MAIN
*DEL*:00000000H   CODE     ---       main_loop
      00010806H   XDATA    FLOAT     Max_Delta_Pitch
      0001081EH   XDATA    FLOAT     Max_Delta_Roll
      00FF714EH   CODE     ---       Median_Average_Filter
      00FF94C0H   CODE     ---       memcpy?_
*DEL*:00000000H   CODE     ---       memset?_
      00FF7902H   CODE     ---       Menu_Display
      00FF862DH   CODE     ---       Menu_Init
*DEL*:00000000H   CODE     ---       motor_init
*DEL*:00000000H   CODE     ---       motor_L
*DEL*:00000000H   CODE     ---       motor_R
L251 LINKER/LOCATER V4.66.93.0                                                        03/26/2026  19:04:27  PAGE 33


*DEL*:00000000H   CODE     ---       My_abs
*SFR* 000000D0H.2 DATA     BIT       OV
*SFR* 000000D0H.0 DATA     BIT       P
*SFR* 00000080H   DATA     BYTE      P0
*SFR* 00000094H   DATA     BYTE      P0M0
*SFR* 00000093H   DATA     BYTE      P0M1
*SFR* 00000090H   DATA     BYTE      P1
*SFR* 00000092H   DATA     BYTE      P1M0
*SFR* 00000091H   DATA     BYTE      P1M1
*SFR* 000000A0H   DATA     BYTE      P2
*SFR* 000000A0H.0 DATA     BIT       P20
*SFR* 000000A0H.1 DATA     BIT       P21
*SFR* 000000A0H.2 DATA     BIT       P22
*SFR* 00000096H   DATA     BYTE      P2M0
*SFR* 00000095H   DATA     BYTE      P2M1
*SFR* 000000B0H   DATA     BYTE      P3
*SFR* 000000B2H   DATA     BYTE      P3M0
*SFR* 000000B1H   DATA     BYTE      P3M1
*SFR* 000000C0H   DATA     BYTE      P4
*SFR* 000000C0H.0 DATA     BIT       P40
*SFR* 000000C0H.1 DATA     BIT       P41
*SFR* 000000C0H.2 DATA     BIT       P42
*SFR* 000000C0H.3 DATA     BIT       P43
*SFR* 000000B4H   DATA     BYTE      P4M0
*SFR* 000000B3H   DATA     BYTE      P4M1
*SFR* 000000C8H   DATA     BYTE      P5
*SFR* 000000CAH   DATA     BYTE      P5M0
*SFR* 000000C9H   DATA     BYTE      P5M1
*SFR* 000000E8H   DATA     BYTE      P6
*SFR* 000000CCH   DATA     BYTE      P6M0
*SFR* 000000CBH   DATA     BYTE      P6M1
*SFR* 000000F8H   DATA     BYTE      P7
*SFR* 000000E2H   DATA     BYTE      P7M0
*SFR* 000000E1H   DATA     BYTE      P7M1
*SFR* 000000A2H   DATA     BYTE      P_SW1
*SFR* 000000BAH   DATA     BYTE      P_SW2
*SFR* 000000BBH   DATA     BYTE      P_SW3
*SFR* 00000087H   DATA     BYTE      PCON
      00011991H   XDATA    WORD      pit0_count
*DEL*:00000000H   CODE     ---       pit_handler
      00FF5B37H   CODE     ---       pit_init
      0001077EH   XDATA    FLOAT     pitch
      00010715H   XDATA    FLOAT     Pitch_Max
      00010711H   XDATA    FLOAT     Pitch_Min
*DEL*:00000000H   CODE     ---       pow?_
*SFR* 000000B8H.6 DATA     BIT       PPC
      00FF247BH   CODE     NEAR LAB  printf
*SFR* 000000B8H.4 DATA     BIT       PS
*SFR* 000000D0H   DATA     BYTE      PSW
*SFR* 000000D1H   DATA     BYTE      PSW1
*SFR* 000000B8H.1 DATA     BIT       PT0
*SFR* 000000B8H.3 DATA     BIT       PT1
*SFR* 000000B8H.5 DATA     BIT       PT2
      00FF9586H   CODE     ---       putchar
      00FFA0EAH   HCONST   ---       PWM_ARR_ADDR
      00FFA0F2H   HCONST   ---       PWM_CCER_ADDR
      00FFA102H   HCONST   ---       PWM_CCMR_ADDR
      00FFA0CAH   HCONST   ---       PWM_CCR_ADDR
*DEL*:00000000H   CODE     ---       pwm_init
      00FFA0C2H   HCONST   ---       PWM_PSCR_ADDR
*DEL*:00000000H   CODE     ---       pwm_set_duty
*DEL*:00000000H   CODE     ---       pwm_set_freq
*SFR* 000000B8H.0 DATA     BIT       PX0
*SFR* 000000B8H.2 DATA     BIT       PX1
*DEL*:00000000H   CODE     ---       range_protect
L251 LINKER/LOCATER V4.66.93.0                                                        03/26/2026  19:04:27  PAGE 34


*SFR* 00000098H.2 DATA     BIT       RB8
*SFR* 000000CBH   DATA     BYTE      RCAP2H
*SFR* 000000CAH   DATA     BYTE      RCAP2L
*SFR* 000000C8H.5 DATA     BIT       RCLK
*SFR* 000000B0H.7 DATA     BIT       RD
      00011745H   XDATA    INT       real_left
      00011741H   XDATA    INT       real_right
*SFR* 00000098H.4 DATA     BIT       REN
*SFR* 00000098H.0 DATA     BIT       RI
      000107BAH   XDATA    FLOAT     roll
      000107B6H   XDATA    FLOAT     Roll_Max
      00010782H   XDATA    FLOAT     Roll_Min
      00010779H   XDATA    CHAR      Round
*SFR* 000000D0H.3 DATA     BIT       RS0
*SFR* 000000D0H.4 DATA     BIT       RS1
*SFR* 000000FFH   DATA     BYTE      RSTCFG
*SFR* 000000B0H.0 DATA     BIT       RXD
*SFR* 0000009BH   DATA     BYTE      S2BUF
*SFR* 0000009AH   DATA     BYTE      S2CON
*SFR* 0000009AH.1 DATA     BIT       S2TI
*SFR* 000000ACH   DATA     BYTE      S3CON
*SFR* 000000FDH   DATA     BYTE      S4CON
*SFR* 000000A9H   DATA     BYTE      SADDR
*SFR* 000000B9H   DATA     BYTE      SADEN
*SFR* 00000099H   DATA     BYTE      SBUF
*SFR* 00000098H   DATA     BYTE      SCON
*DEL*:00000000H   CODE     ---       seekfree_assistant_camera_boundary_config
*DEL*:00000000H   CODE     ---       seekfree_assistant_camera_data_send
*DEL*:00000000H   CODE     ---       seekfree_assistant_camera_dot_send
*DEL*:00000000H   CODE     ---       seekfree_assistant_camera_information_config
*DEL*:00000000H   CODE     ---       seekfree_assistant_camera_send
*DEL*:00000000H   CODE     ---       seekfree_assistant_data_analysis
*DEL*:00000000H   CODE     ---       seekfree_assistant_init
*DEL*:00000000H   CODE     ---       seekfree_assistant_interface_init
      000105DCH   XDATA    ---       seekfree_assistant_oscilloscope_data
*DEL*:00000000H   CODE     ---       seekfree_assistant_oscilloscope_send
      0001061FH   XDATA    ---       seekfree_assistant_parameter
      00010617H   XDATA    ---       seekfree_assistant_parameter_update_flag
      00011D7DH   XDATA    ---       seekfree_assistant_receive_callback
      00011D7FH   XDATA    ---       seekfree_assistant_transfer_callback
      00FF8194H   CODE     ---       Send_Data_To_PC
*DEL*:00000000H   CODE     ---       set_gps_type
      00FF6214H   CODE     ---       set_sys_clk
*DEL*:00000000H   CODE     ---       set_tof_type
      00FF858EH   CODE     ---       set_wireless_type
      00FF25BCH   CODE     ---       sin?_
*SFR* 00000098H.7 DATA     BIT       SM0
*SFR* 00000098H.6 DATA     BIT       SM1
*SFR* 00000098H.5 DATA     BIT       SM2
      00FF92EBH   CODE     ---       soft_iic_delay
*DEL*:00000000H   CODE     ---       soft_iic_init
*DEL*:00000000H   CODE     ---       soft_iic_read_16bit
*DEL*:00000000H   CODE     ---       soft_iic_read_16bit_array
*DEL*:00000000H   CODE     ---       soft_iic_read_16bit_register
*DEL*:00000000H   CODE     ---       soft_iic_read_16bit_registers
*DEL*:00000000H   CODE     ---       soft_iic_read_8bit
*DEL*:00000000H   CODE     ---       soft_iic_read_8bit_array
*DEL*:00000000H   CODE     ---       soft_iic_read_8bit_register
*DEL*:00000000H   CODE     ---       soft_iic_read_8bit_registers
      00FF700CH   CODE     ---       soft_iic_read_data
*DEL*:00000000H   CODE     ---       soft_iic_sccb_read_register
*DEL*:00000000H   CODE     ---       soft_iic_sccb_write_register
      00FF7DAFH   CODE     ---       soft_iic_send_ack
      00FF00A6H   CODE     ---       soft_iic_send_data
      00FF83A8H   CODE     ---       soft_iic_start
L251 LINKER/LOCATER V4.66.93.0                                                        03/26/2026  19:04:27  PAGE 35


      00FF80D5H   CODE     ---       soft_iic_stop
*DEL*:00000000H   CODE     ---       soft_iic_transfer_16bit_array
*DEL*:00000000H   CODE     ---       soft_iic_transfer_8bit_array
      00FF7CCCH   CODE     ---       soft_iic_wait_ack
*DEL*:00000000H   CODE     ---       soft_iic_write_16bit
*DEL*:00000000H   CODE     ---       soft_iic_write_16bit_array
*DEL*:00000000H   CODE     ---       soft_iic_write_16bit_register
*DEL*:00000000H   CODE     ---       soft_iic_write_16bit_registers
*DEL*:00000000H   CODE     ---       soft_iic_write_8bit
*DEL*:00000000H   CODE     ---       soft_iic_write_8bit_array
*DEL*:00000000H   CODE     ---       soft_iic_write_8bit_register
*DEL*:00000000H   CODE     ---       soft_iic_write_8bit_registers
*DEL*:00000000H   CODE     ---       soft_spi_delay
*DEL*:00000000H   CODE     ---       soft_spi_init
*DEL*:00000000H   CODE     ---       soft_spi_read_16bit
*DEL*:00000000H   CODE     ---       soft_spi_read_16bit_array
*DEL*:00000000H   CODE     ---       soft_spi_read_16bit_register
*DEL*:00000000H   CODE     ---       soft_spi_read_16bit_registers
*DEL*:00000000H   CODE     ---       soft_spi_read_8bit
*DEL*:00000000H   CODE     ---       soft_spi_read_8bit_array
*DEL*:00000000H   CODE     ---       soft_spi_read_8bit_register
*DEL*:00000000H   CODE     ---       soft_spi_read_8bit_registers
*DEL*:00000000H   CODE     ---       soft_spi_transfer_16bit
*DEL*:00000000H   CODE     ---       soft_spi_transfer_8bit
*DEL*:00000000H   CODE     ---       soft_spi_write_16bit
*DEL*:00000000H   CODE     ---       soft_spi_write_16bit_array
*DEL*:00000000H   CODE     ---       soft_spi_write_16bit_register
*DEL*:00000000H   CODE     ---       soft_spi_write_16bit_registers
*DEL*:00000000H   CODE     ---       soft_spi_write_8bit
*DEL*:00000000H   CODE     ---       soft_spi_write_8bit_array
*DEL*:00000000H   CODE     ---       soft_spi_write_8bit_register
*DEL*:00000000H   CODE     ---       soft_spi_write_8bit_registers
*SFR* 00000081H   DATA     BYTE      SP
*SFR* 000000CEH   DATA     BYTE      SPCTL
*SFR* 000000CFH   DATA     BYTE      SPDAT
      0001173FH   XDATA    INT       speed_left
      0001173DH   XDATA    INT       speed_right
*SFR* 000000BEH   DATA     BYTE      SPH
      00FF4AACH   CODE     ---       spi_init
*DEL*:00000000H   CODE     ---       spi_read_16bit
*DEL*:00000000H   CODE     ---       spi_read_16bit_array
*DEL*:00000000H   CODE     ---       spi_read_16bit_register
*DEL*:00000000H   CODE     ---       spi_read_16bit_registers
*DEL*:00000000H   CODE     ---       spi_read_8bit
*DEL*:00000000H   CODE     ---       spi_read_8bit_array
*DEL*:00000000H   CODE     ---       spi_read_8bit_register
*DEL*:00000000H   CODE     ---       spi_read_8bit_registers
      00FF8B71H   CODE     ---       spi_read_dat
*DEL*:00000000H   CODE     ---       spi_transfer_16bit
*DEL*:00000000H   CODE     ---       spi_transfer_8bit
      00FF9327H   CODE     ---       spi_write_16bit
*DEL*:00000000H   CODE     ---       spi_write_16bit_array
*DEL*:00000000H   CODE     ---       spi_write_16bit_register
*DEL*:00000000H   CODE     ---       spi_write_16bit_registers
      00FF0066H   CODE     ---       spi_write_8bit
*DEL*:00000000H   CODE     ---       spi_write_8bit_array
*DEL*:00000000H   CODE     ---       spi_write_8bit_register
*DEL*:00000000H   CODE     ---       spi_write_8bit_registers
      00FF8DE6H   CODE     ---       spi_write_dat
      00FF24A7H   CODE     NEAR LAB  sprintf
*SFR* 000000CDH   DATA     BYTE      SPSTAT
      00FF24C7H   CODE     ---       sqrt?_
*DEL*:00000000H   CODE     ---       strchr?_
      00FF95AAH   CODE     ---       strlen?_
*DEL*:00000000H   CODE     ---       strncmp?_
L251 LINKER/LOCATER V4.66.93.0                                                        03/26/2026  19:04:27  PAGE 36


*DEL*:00000000H   CODE     ---       strncpy?_
      00011CF9H   XDATA    LONG      system_clock
      00FF8E9EH   CODE     ---       system_delay_init
      00FF9451H   CODE     ---       system_delay_ms
*DEL*:00000000H   CODE     ---       system_delay_us
*SFR* 000000B0H.4 DATA     BIT       T0
*SFR* 000000B0H.5 DATA     BIT       T1
*SFR* 00000090H.0 DATA     BIT       T2
*SFR* 000000C8H   DATA     BYTE      T2CON
*SFR* 00000090H.1 DATA     BIT       T2EX
*SFR* 000000D6H   DATA     BYTE      T2H
*SFR* 000000D7H   DATA     BYTE      T2L
*SFR* 000000C9H   DATA     BYTE      T2MOD
*SFR* 000000D4H   DATA     BYTE      T3H
*SFR* 000000D5H   DATA     BYTE      T3L
*SFR* 000000D2H   DATA     BYTE      T4H
*SFR* 000000D3H   DATA     BYTE      T4L
*SFR* 000000DDH   DATA     BYTE      T4T3M
      00FF25E9H   CODE     ---       TAN?_
*SFR* 00000098H.3 DATA     BIT       TB8
*SFR* 000000C8H.4 DATA     BIT       TCLK
*SFR* 00000088H   DATA     BYTE      TCON
*SFR* 00000088H.5 DATA     BIT       TF0
*SFR* 00000088H.7 DATA     BIT       TF1
*SFR* 000000C8H.7 DATA     BIT       TF2
      00011B53H   XDATA    WORD      tft180_bgcolor
*DEL*:00000000H   CODE     ---       tft180_clear
      00011B55H   XDATA    INT       tft180_display_dir
*DEL*:00000000H   CODE     ---       tft180_draw_point
*DEL*:00000000H   CODE     ---       tft180_init
      00011B51H   XDATA    WORD      tft180_pencolor
*DEL*:00000000H   CODE     ---       tft180_set_color
*DEL*:00000000H   CODE     ---       tft180_set_dir
*DEL*:00000000H   CODE     ---       tft180_show_char
*DEL*:00000000H   CODE     ---       tft180_show_float
*DEL*:00000000H   CODE     ---       tft180_show_int16
*DEL*:00000000H   CODE     ---       tft180_show_int32
*DEL*:00000000H   CODE     ---       tft180_show_int8
*DEL*:00000000H   CODE     ---       tft180_show_string
*DEL*:00000000H   CODE     ---       tft180_show_uint16
*DEL*:00000000H   CODE     ---       tft180_show_uint8
*DEL*:00000000H   CODE     ---       tft180_show_wave
      00011B57H   XDATA    BYTE      tft180_x_max
      00011B58H   XDATA    BYTE      tft180_y_max
*SFR* 0000008CH   DATA     BYTE      TH0
*SFR* 0000008DH   DATA     BYTE      TH1
*SFR* 000000CDH   DATA     BYTE      TH2
*SFR* 00000098H.1 DATA     BIT       TI
      0001118DH   XDATA    ---       tim0_irq_handler
      00011183H   XDATA    ---       tim11_irq_handler
      00011191H   XDATA    ---       tim1_irq_handler
      00011195H   XDATA    ---       tim2_irq_handler
      00011199H   XDATA    ---       tim3_irq_handler
      0001119DH   XDATA    ---       tim4_irq_handler
      00FF8975H   CODE     ---       timer_funciton_check
*SFR* 0000008AH   DATA     BYTE      TL0
*SFR* 0000008BH   DATA     BYTE      TL1
*SFR* 000000CCH   DATA     BYTE      TL2
      00FF916FH   CODE     ---       TM0_IRQHandler
      00FF91AFH   CODE     ---       TM1_IRQHandler
      00FF91EFH   CODE     ---       TM2_IRQHandler
      00FF922FH   CODE     ---       TM3_IRQHandler
      00FF926FH   CODE     ---       TM4_IRQHandler
*SFR* 00000089H   DATA     BYTE      TMOD
      00011B69H   XDATA    ---       tof_module_exti_handler
L251 LINKER/LOCATER V4.66.93.0                                                        03/26/2026  19:04:27  PAGE 37


      00011B6DH   XDATA    INT       tof_type
*SFR* 00000088H.4 DATA     BIT       TR0
*SFR* 00000088H.6 DATA     BIT       TR1
*SFR* 000000C8H.2 DATA     BIT       TR2
*DEL*:00000000H   CODE     ---       tsl1401_collect_pit_handler
      0001020BH   XDATA    ---       tsl1401_data
      0001020AH   XDATA    BYTE      tsl1401_finish_flag
*DEL*:00000000H   CODE     ---       tsl1401_init
*DEL*:00000000H   CODE     ---       tsl1401_send_data
*SFR* 000000B0H.1 DATA     BIT       TXD
      00011185H   XDATA    ---       uart1_irq_handler
      00011187H   XDATA    ---       uart2_irq_handler
      00011189H   XDATA    ---       uart3_irq_handler
      0001118BH   XDATA    ---       uart4_irq_handler
      00FF6B8CH   CODE     ---       uart_dma_init
      00FF89F6H   CODE     ---       uart_funciton_check
      00FF5298H   CODE     ---       uart_init
      00FF84EFH   CODE     ---       uart_query_byte
*DEL*:00000000H   CODE     ---       uart_read_byte
      000117D6H   XDATA    ---       uart_rx_buff
      00FF8C59H   CODE     ---       uart_rx_interrupt
      00FF8013H   CODE     ---       uart_rx_start_buff
      00FF6804H   CODE     ---       uart_write_buffer
      00FF952AH   CODE     ---       uart_write_byte
*DEL*:00000000H   CODE     ---       uart_write_string
*SFR* 000000F4H   DATA     BYTE      USBCON
*DEL*:00000000H   CODE     ---       voltage_warning_init
*DEL*:00000000H   CODE     ---       voltage_warning_task
*SFR* 000000A6H   DATA     BYTE      VRTRIM
*DEL*:00000000H   CODE     ---       vsnprintf
*SFR* 000000C1H   DATA     BYTE      WDT_CONTR
*SFR* 000000A6H   DATA     BYTE      WDTRST
      00011B6BH   XDATA    INT       wireless_type
      00FF942BH   CODE     ---       wireless_uart_callback
      00FF8A77H   CODE     ---       wireless_uart_init
*DEL*:00000000H   CODE     ---       wireless_uart_read_buffer
      00FF75D9H   CODE     ---       wireless_uart_send_buffer
*DEL*:00000000H   CODE     ---       wireless_uart_send_byte
      00FF8D89H   CODE     ---       wireless_uart_send_string
*SFR* 000000B0H.6 DATA     BIT       WR
*SFR* 000000E9H   DATA     BYTE      WTST
      0001080AH   XDATA    FLOAT     yaw
      00010802H   XDATA    FLOAT     yaw_limit_360
      0001080EH   XDATA    FLOAT     yaw_total
      00010786H   XDATA    ---       Zero
      00FF3071H   CODE     ---       zf_sprintf



SYMBOL TABLE OF MODULE:  .\out_file\SEEKFREE (?C_START)

      VALUE       REP       CLASS    TYPE      SYMBOL NAME
      ====================================================
      ---         MODULE    ---      ---       ?C_START
      00FF0000H   PUBLIC    CODE     ---       ?C?STARTUP
      00FF0000H   PUBLIC    CODE     ---       ?C_STARTUP
      000000D0H.6 SFRSYM    DATA     BIT       AC
      000000E0H   SFRSYM    DATA     BYTE      ACC
      000000F0H   SFRSYM    DATA     BYTE      B
      000000FAH   SFRSYM    DATA     BYTE      CCAP0H
      000000EAH   SFRSYM    DATA     BYTE      CCAP0L
      000000FBH   SFRSYM    DATA     BYTE      CCAP1H
      000000EBH   SFRSYM    DATA     BYTE      CCAP1L
      000000FCH   SFRSYM    DATA     BYTE      CCAP2H
      000000ECH   SFRSYM    DATA     BYTE      CCAP2L
L251 LINKER/LOCATER V4.66.93.0                                                        03/26/2026  19:04:27  PAGE 38


      000000FDH   SFRSYM    DATA     BYTE      CCAP3H
      000000EDH   SFRSYM    DATA     BYTE      CCAP3L
      000000FEH   SFRSYM    DATA     BYTE      CCAP4H
      000000EEH   SFRSYM    DATA     BYTE      CCAP4L
      000000DAH   SFRSYM    DATA     BYTE      CCAPM0
      000000DBH   SFRSYM    DATA     BYTE      CCAPM1
      000000DCH   SFRSYM    DATA     BYTE      CCAPM2
      000000DDH   SFRSYM    DATA     BYTE      CCAPM3
      000000DEH   SFRSYM    DATA     BYTE      CCAPM4
      000000D8H.0 SFRSYM    DATA     BIT       CCF0
      000000D8H.1 SFRSYM    DATA     BIT       CCF1
      000000D8H.2 SFRSYM    DATA     BIT       CCF2
      000000D8H.3 SFRSYM    DATA     BIT       CCF3
      000000D8H.4 SFRSYM    DATA     BIT       CCF4
      000000D8H   SFRSYM    DATA     BYTE      CCON
      00000090H.3 SFRSYM    DATA     BIT       CEX0
      00000090H.4 SFRSYM    DATA     BIT       CEX1
      00000090H.5 SFRSYM    DATA     BIT       CEX2
      00000090H.6 SFRSYM    DATA     BIT       CEX3
      00000090H.7 SFRSYM    DATA     BIT       CEX4
      000000D8H.7 SFRSYM    DATA     BIT       CF
      000000F9H   SFRSYM    DATA     BYTE      CH
      000000E9H   SFRSYM    DATA     BYTE      CL
      000000D9H   SFRSYM    DATA     BYTE      CMOD
      000000C8H.0 SFRSYM    DATA     BIT       CP_RL2
      000000D8H.6 SFRSYM    DATA     BIT       CR
      000000D0H.7 SFRSYM    DATA     BIT       CY
      000000C8H.1 SFRSYM    DATA     BIT       C_T2
      00000083H   SFRSYM    DATA     BYTE      DPH
      00000082H   SFRSYM    DATA     BYTE      DPL
      00000084H   SFRSYM    DATA     BYTE      DPXL
      000000A8H.7 SFRSYM    DATA     BIT       EA
      000000A8H.6 SFRSYM    DATA     BIT       EC
      00000090H.2 SFRSYM    DATA     BIT       ECI
      000000A8H.4 SFRSYM    DATA     BIT       ES
      000000A8H.1 SFRSYM    DATA     BIT       ET0
      000000A8H.3 SFRSYM    DATA     BIT       ET1
      000000A8H.5 SFRSYM    DATA     BIT       ET2
      000000A8H.0 SFRSYM    DATA     BIT       EX0
      000000A8H.2 SFRSYM    DATA     BIT       EX1
      000000C8H.3 SFRSYM    DATA     BIT       EXEN2
      000000C8H.6 SFRSYM    DATA     BIT       EXF2
      000000D0H.5 SFRSYM    DATA     BIT       F0
      00000098H.7 SFRSYM    DATA     BIT       FE
      000000A8H   SFRSYM    DATA     BYTE      IE0
      00000088H.1 SFRSYM    DATA     BIT       IE0_
      000000B1H   SFRSYM    DATA     BYTE      IE1
      00000088H.3 SFRSYM    DATA     BIT       IE1_
      000000B0H.2 SFRSYM    DATA     BIT       INT0
      000000B0H.3 SFRSYM    DATA     BIT       INT1
      000000B7H   SFRSYM    DATA     BYTE      IPH0
      000000B8H   SFRSYM    DATA     BYTE      IPL0
      00000088H.0 SFRSYM    DATA     BIT       IT0
      00000088H.2 SFRSYM    DATA     BIT       IT1
      000000D0H.2 SFRSYM    DATA     BIT       OV
      000000D0H.0 SFRSYM    DATA     BIT       P
      00000080H   SFRSYM    DATA     BYTE      P0
      00000090H   SFRSYM    DATA     BYTE      P1
      000000A0H   SFRSYM    DATA     BYTE      P2
      000000B0H   SFRSYM    DATA     BYTE      P3
      00000087H   SFRSYM    DATA     BYTE      PCON
      000000B8H.6 SFRSYM    DATA     BIT       PPC
      000000B8H.4 SFRSYM    DATA     BIT       PS
      000000D0H   SFRSYM    DATA     BYTE      PSW
      000000D1H   SFRSYM    DATA     BYTE      PSW1
L251 LINKER/LOCATER V4.66.93.0                                                        03/26/2026  19:04:27  PAGE 39


      000000B8H.1 SFRSYM    DATA     BIT       PT0
      000000B8H.3 SFRSYM    DATA     BIT       PT1
      000000B8H.5 SFRSYM    DATA     BIT       PT2
      000000B8H.0 SFRSYM    DATA     BIT       PX0
      000000B8H.2 SFRSYM    DATA     BIT       PX1
      00000098H.2 SFRSYM    DATA     BIT       RB8
      000000CBH   SFRSYM    DATA     BYTE      RCAP2H
      000000CAH   SFRSYM    DATA     BYTE      RCAP2L
      000000C8H.5 SFRSYM    DATA     BIT       RCLK
      000000B0H.7 SFRSYM    DATA     BIT       RD
      00000098H.4 SFRSYM    DATA     BIT       REN
      00000098H.0 SFRSYM    DATA     BIT       RI
      000000D0H.3 SFRSYM    DATA     BIT       RS0
      000000D0H.4 SFRSYM    DATA     BIT       RS1
      000000B0H.0 SFRSYM    DATA     BIT       RXD
      000000A9H   SFRSYM    DATA     BYTE      SADDR
      000000B9H   SFRSYM    DATA     BYTE      SADEN
      00000099H   SFRSYM    DATA     BYTE      SBUF
      00000098H   SFRSYM    DATA     BYTE      SCON
      00000098H.7 SFRSYM    DATA     BIT       SM0
      00000098H.6 SFRSYM    DATA     BIT       SM1
      00000098H.5 SFRSYM    DATA     BIT       SM2
      00000081H   SFRSYM    DATA     BYTE      SP
      000000BEH   SFRSYM    DATA     BYTE      SPH
      000000B0H.4 SFRSYM    DATA     BIT       T0
      000000B0H.5 SFRSYM    DATA     BIT       T1
      00000090H.0 SFRSYM    DATA     BIT       T2
      000000C8H   SFRSYM    DATA     BYTE      T2CON
      00000090H.1 SFRSYM    DATA     BIT       T2EX
      000000C9H   SFRSYM    DATA     BYTE      T2MOD
      00000098H.3 SFRSYM    DATA     BIT       TB8
      000000C8H.4 SFRSYM    DATA     BIT       TCLK
      00000088H   SFRSYM    DATA     BYTE      TCON
      00000088H.5 SFRSYM    DATA     BIT       TF0
      00000088H.7 SFRSYM    DATA     BIT       TF1
      000000C8H.7 SFRSYM    DATA     BIT       TF2
      0000008CH   SFRSYM    DATA     BYTE      TH0
      0000008DH   SFRSYM    DATA     BYTE      TH1
      000000CDH   SFRSYM    DATA     BYTE      TH2
      00000098H.1 SFRSYM    DATA     BIT       TI
      0000008AH   SFRSYM    DATA     BYTE      TL0
      0000008BH   SFRSYM    DATA     BYTE      TL1
      000000CCH   SFRSYM    DATA     BYTE      TL2
      00000089H   SFRSYM    DATA     BYTE      TMOD
      00000088H.4 SFRSYM    DATA     BIT       TR0
      00000088H.6 SFRSYM    DATA     BIT       TR1
      000000C8H.2 SFRSYM    DATA     BIT       TR2
      000000B0H.1 SFRSYM    DATA     BIT       TXD
      000000A6H   SFRSYM    DATA     BYTE      WDTRST
      000000B0H.6 SFRSYM    DATA     BIT       WR
      00000800H   SYMBOL    NUMBER   ---       EDATALEN
      00FF8EFEH   SYMBOL    CODE     ---       EDATALOOP
      00000001H   SYMBOL    NUMBER   ---       EDF
      00000001H   SYMBOL    NUMBER   ---       EMAP
      00000000H   SYMBOL    NUMBER   ---       HDATALEN
      00010000H   SYMBOL    NUMBER   ---       HDATASTART
      00000000H   SYMBOL    NUMBER   ---       IBPSTACK
      00000100H   SYMBOL    NUMBER   ---       IBPSTACKTOP
      00000001H   SYMBOL    NUMBER   ---       INTR
      00000001H   SYMBOL    NUMBER   ---       PAGM
      00000003H   SYMBOL    NUMBER   ---       RDRG
      00000001H   SYMBOL    NUMBER   ---       SRCM
      00000800H   SYMBOL    NUMBER   ---       STACKSIZE
      00FF8EF6H   SYMBOL    CODE     ---       STARTUP1
      00000003H   SYMBOL    NUMBER   ---       WSA
L251 LINKER/LOCATER V4.66.93.0                                                        03/26/2026  19:04:27  PAGE 40


      00000003H   SYMBOL    NUMBER   ---       WSB
      00000001H   SYMBOL    NUMBER   ---       XALE
      00000000H   SYMBOL    NUMBER   ---       XBPSTACK
      00010000H   SYMBOL    NUMBER   ---       XBPSTACKTOP
      00008000H   SYMBOL    NUMBER   ---       XDATALEN
      00FF8F0DH   SYMBOL    CODE     ---       XDATALOOP
      00010000H   SYMBOL    NUMBER   ---       XDATASTART

      00FF0000H   BLOCK     CODE     NEAR LAB  LVL=0
      00FF0000H   LINE      CODE     ---       #183
      ---         BLOCKEND  ---      ---       LVL=0

      00FF8EF6H   BLOCK     CODE     NEAR LAB  LVL=0
      00FF8EF6H   LINE      CODE     ---       #188
      00FF8EF9H   LINE      CODE     ---       #191
      00FF8EFDH   LINE      CODE     ---       #192
      00FF8EFEH   LINE      CODE     ---       #193
      00FF8F01H   LINE      CODE     ---       #194
      00FF8F03H   LINE      CODE     ---       #195
      00FF8F05H   LINE      CODE     ---       #199
      00FF8F08H   LINE      CODE     ---       #200
      00FF8F0CH   LINE      CODE     ---       #201
      00FF8F0DH   LINE      CODE     ---       #202
      00FF8F0EH   LINE      CODE     ---       #203
      00FF8F0FH   LINE      CODE     ---       #204
      00FF8F11H   LINE      CODE     ---       #205
      00FF8F13H   LINE      CODE     ---       #235
      ---         BLOCKEND  ---      ---       LVL=0

      00FF8F48H   BLOCK     CODE     NEAR LAB  LVL=0
      00FF8F48H   LINE      CODE     ---       #238
      ---         BLOCKEND  ---      ---       LVL=0

      ---         MODULE    ---      ---       stc32g_isr

      00FF019BH   BLOCK     CODE     NEAR LAB  LVL=0
      00FF019BH   LINE      CODE     ---       #3
      ---         BLOCKEND  ---      ---       LVL=0

      00FF01ABH   BLOCK     CODE     NEAR LAB  LVL=0
      00FF01ABH   LINE      CODE     ---       #6
      ---         BLOCKEND  ---      ---       LVL=0

      00FF01BBH   BLOCK     CODE     NEAR LAB  LVL=0
      00FF01BBH   LINE      CODE     ---       #9
      ---         BLOCKEND  ---      ---       LVL=0

      00FF01CBH   BLOCK     CODE     NEAR LAB  LVL=0
      00FF01CBH   LINE      CODE     ---       #12
      ---         BLOCKEND  ---      ---       LVL=0

      ---         MODULE    ---      ---       zf_common_clock
      00FF88F4H   PUBLIC    CODE     ---       clock_init
      00FF6214H   PUBLIC    CODE     ---       set_sys_clk
      00011CF9H   PUBLIC    XDATA    LONG      system_clock
      00000094H   SFRSYM    DATA     BYTE      P0M0
      000000D0H   SFRSYM    DATA     BYTE      PSW
      000000BAH.7 SFRSYM    DATA     BIT       EAXFR
      0000009DH   SFRSYM    DATA     BYTE      IRCBAND
      00000097H   SFRSYM    DATA     BYTE      AUXR2
      000000EAH   SFRSYM    DATA     BYTE      CKCON
      000000EFH   SFRSYM    DATA     BYTE      AUXINTIF
      000000FDH   SFRSYM    DATA     BYTE      S4CON
      000000ACH   SFRSYM    DATA     BYTE      S3CON
      0000009AH   SFRSYM    DATA     BYTE      S2CON
L251 LINKER/LOCATER V4.66.93.0                                                        03/26/2026  19:04:27  PAGE 41


      000000A6H   SFRSYM    DATA     BYTE      VRTRIM
      000000B7H   SFRSYM    DATA     BYTE      IPH
      000000CDH   SFRSYM    DATA     BYTE      SPSTAT
      000000DDH   SFRSYM    DATA     BYTE      T4T3M
      0000009FH   SFRSYM    DATA     BYTE      IRTRIM
      000000C1H   SFRSYM    DATA     BYTE      WDT_CONTR
      000000E9H   SFRSYM    DATA     BYTE      WTST
      000000DFH   SFRSYM    DATA     BYTE      IP3
      000000F4H   SFRSYM    DATA     BYTE      USBCON
      000000B5H   SFRSYM    DATA     BYTE      IP2
      000000FFH   SFRSYM    DATA     BYTE      RSTCFG
      000000C7H   SFRSYM    DATA     BYTE      IAP_CONTR
      000000F9H   SFRSYM    DATA     BYTE      LINICR
      0000008EH   SFRSYM    DATA     BYTE      AUXR
      000000AFH   SFRSYM    DATA     BYTE      IE2
      00000088H   SFRSYM    DATA     BYTE      TCON
      00000089H   SFRSYM    DATA     BYTE      TMOD
      00000098H   SFRSYM    DATA     BYTE      SCON
      000000F1H   SFRSYM    DATA     BYTE      CANICR
      00000087H   SFRSYM    DATA     BYTE      PCON
      000000BCH   SFRSYM    DATA     BYTE      ADC_CONTR
      000000E7H   SFRSYM    DATA     BYTE      CMPCR2
      000000E6H   SFRSYM    DATA     BYTE      CMPCR1
      000000DEH   SFRSYM    DATA     BYTE      ADCCFG
      000000B8H   SFRSYM    DATA     BYTE      IP
      0000008FH   SFRSYM    DATA     BYTE      INTCLKO
      000000EEH   SFRSYM    DATA     BYTE      IP3H
      000000B6H   SFRSYM    DATA     BYTE      IP2H
      000000A8H   SFRSYM    DATA     BYTE      IE
      000000BBH   SFRSYM    DATA     BYTE      P_SW3
      000000BAH   SFRSYM    DATA     BYTE      P_SW2
      000000A2H   SFRSYM    DATA     BYTE      P_SW1
      000000CEH   SFRSYM    DATA     BYTE      SPCTL
      000000F8H   SFRSYM    DATA     BYTE      P7
      000000E1H   SFRSYM    DATA     BYTE      P7M1
      000000E8H   SFRSYM    DATA     BYTE      P6
      000000C8H   SFRSYM    DATA     BYTE      P5
      000000CBH   SFRSYM    DATA     BYTE      P6M1
      000000E2H   SFRSYM    DATA     BYTE      P7M0
      000000C0H   SFRSYM    DATA     BYTE      P4
      000000C9H   SFRSYM    DATA     BYTE      P5M1
      000000CCH   SFRSYM    DATA     BYTE      P6M0
      000000B0H   SFRSYM    DATA     BYTE      P3
      000000B3H   SFRSYM    DATA     BYTE      P4M1
      000000CAH   SFRSYM    DATA     BYTE      P5M0
      000000A0H   SFRSYM    DATA     BYTE      P2
      000000B1H   SFRSYM    DATA     BYTE      P3M1
      000000B4H   SFRSYM    DATA     BYTE      P4M0
      00000090H   SFRSYM    DATA     BYTE      P1
      00000095H   SFRSYM    DATA     BYTE      P2M1
      000000B2H   SFRSYM    DATA     BYTE      P3M0
      00000080H   SFRSYM    DATA     BYTE      P0
      00000091H   SFRSYM    DATA     BYTE      P1M1
      00000096H   SFRSYM    DATA     BYTE      P2M0
      00000092H   SFRSYM    DATA     BYTE      P1M0
      00000093H   SFRSYM    DATA     BYTE      P0M1

      00FF6214H   BLOCK     CODE     ---       LVL=0
      00011CFDH   SYMBOL    XDATA    DWORD     sys_clk
      00FF6214H   LINE      CODE     ---       #54
      00FF621EH   LINE      CODE     ---       #57
      00FF6221H   LINE      CODE     ---       #59
      00FF6276H   LINE      CODE     ---       #61
      00FF6276H   LINE      CODE     ---       #63
      00FF6283H   LINE      CODE     ---       #64
L251 LINKER/LOCATER V4.66.93.0                                                        03/26/2026  19:04:27  PAGE 42


      00FF6290H   LINE      CODE     ---       #65
      00FF629DH   LINE      CODE     ---       #66
      00FF62A1H   LINE      CODE     ---       #67
      00FF62ADH   LINE      CODE     ---       #68
      00FF62B0H   LINE      CODE     ---       #70
      00FF62B0H   LINE      CODE     ---       #72
      00FF62BDH   LINE      CODE     ---       #73
      00FF62CAH   LINE      CODE     ---       #74
      00FF62D7H   LINE      CODE     ---       #75
      00FF62DBH   LINE      CODE     ---       #76
      00FF62E7H   LINE      CODE     ---       #77
      00FF62EAH   LINE      CODE     ---       #79
      00FF62EAH   LINE      CODE     ---       #81
      00FF62F7H   LINE      CODE     ---       #82
      00FF6304H   LINE      CODE     ---       #83
      00FF6311H   LINE      CODE     ---       #84
      00FF6315H   LINE      CODE     ---       #85
      00FF6321H   LINE      CODE     ---       #86
      00FF6324H   LINE      CODE     ---       #88
      00FF6324H   LINE      CODE     ---       #90
      00FF6331H   LINE      CODE     ---       #91
      00FF633EH   LINE      CODE     ---       #92
      00FF634BH   LINE      CODE     ---       #93
      00FF634FH   LINE      CODE     ---       #94
      00FF635BH   LINE      CODE     ---       #95
      00FF635EH   LINE      CODE     ---       #97
      00FF635EH   LINE      CODE     ---       #99
      00FF636BH   LINE      CODE     ---       #100
      00FF6378H   LINE      CODE     ---       #101
      00FF6385H   LINE      CODE     ---       #102
      00FF6389H   LINE      CODE     ---       #103
      00FF6395H   LINE      CODE     ---       #104
      00FF6398H   LINE      CODE     ---       #106
      00FF6398H   LINE      CODE     ---       #108
      00FF63A5H   LINE      CODE     ---       #109
      00FF63B2H   LINE      CODE     ---       #110
      00FF63BFH   LINE      CODE     ---       #111
      00FF63C3H   LINE      CODE     ---       #112
      00FF63CFH   LINE      CODE     ---       #113
      00FF63D1H   LINE      CODE     ---       #115
      00FF63D1H   LINE      CODE     ---       #116
      00FF63E3H   LINE      CODE     ---       #118
      00FF63F0H   LINE      CODE     ---       #119
      00FF63FDH   LINE      CODE     ---       #120
      00FF640AH   LINE      CODE     ---       #121
      00FF640EH   LINE      CODE     ---       #122
      00FF641AH   LINE      CODE     ---       #123
      00FF641AH   LINE      CODE     ---       #124
      00FF641AH   LINE      CODE     ---       #126
      00FF6424H   LINE      CODE     ---       #127
      ---         BLOCKEND  ---      ---       LVL=0

      00FF88F4H   BLOCK     CODE     ---       LVL=0
      00011D01H   SYMBOL    XDATA    DWORD     clock
      00FF88F4H   LINE      CODE     ---       #132
      00FF88FEH   LINE      CODE     ---       #134
      00FF8902H   LINE      CODE     ---       #135
      00FF8906H   LINE      CODE     ---       #136
      00FF8909H   LINE      CODE     ---       #137
      00FF890CH   LINE      CODE     ---       #147
      00FF8923H   LINE      CODE     ---       #153
      00FF8926H   LINE      CODE     ---       #156
      00FF8929H   LINE      CODE     ---       #157
      00FF892CH   LINE      CODE     ---       #158
      00FF892FH   LINE      CODE     ---       #159
L251 LINKER/LOCATER V4.66.93.0                                                        03/26/2026  19:04:27  PAGE 43


      00FF8932H   LINE      CODE     ---       #160
      00FF8935H   LINE      CODE     ---       #161
      00FF8938H   LINE      CODE     ---       #162
      00FF893BH   LINE      CODE     ---       #163
      00FF893EH   LINE      CODE     ---       #164
      00FF8941H   LINE      CODE     ---       #165
      00FF8944H   LINE      CODE     ---       #166
      00FF8947H   LINE      CODE     ---       #167
      00FF894AH   LINE      CODE     ---       #168
      00FF894DH   LINE      CODE     ---       #169
      00FF8950H   LINE      CODE     ---       #170
      00FF8953H   LINE      CODE     ---       #171
      00FF8956H   LINE      CODE     ---       #173
      00FF8959H   LINE      CODE     ---       #174
      00FF895CH   LINE      CODE     ---       #175
      00FF895FH   LINE      CODE     ---       #176
      00FF8962H   LINE      CODE     ---       #177
      00FF8965H   LINE      CODE     ---       #178
      00FF8968H   LINE      CODE     ---       #179
      00FF896BH   LINE      CODE     ---       #180
      00FF896EH   LINE      CODE     ---       #181
      00FF8971H   LINE      CODE     ---       #183
      00FF8974H   LINE      CODE     ---       #184
      ---         BLOCKEND  ---      ---       LVL=0

      ---         MODULE    ---      ---       zf_common_debug
      00FF92AFH   PUBLIC    CODE     ---       debug_interrupr_handler
      00FF8301H   PUBLIC    CODE     ---       debug_init
      00FF8AF8H   PUBLIC    CODE     ---       debug_assert_handler
      00FF9586H   PUBLIC    CODE     ---       putchar
      00010B05H   PUBLIC    XDATA    ---       debug_uart_buffer
      00010B46H   PUBLIC    XDATA    ---       debug_uart_fifo
      000000D0H   SFRSYM    DATA     BYTE      PSW
      0000009DH   SFRSYM    DATA     BYTE      IRCBAND
      00000097H   SFRSYM    DATA     BYTE      AUXR2
      000000EFH   SFRSYM    DATA     BYTE      AUXINTIF
      000000FDH   SFRSYM    DATA     BYTE      S4CON
      000000ACH   SFRSYM    DATA     BYTE      S3CON
      0000009AH   SFRSYM    DATA     BYTE      S2CON
      000000B7H   SFRSYM    DATA     BYTE      IPH
      000000CDH   SFRSYM    DATA     BYTE      SPSTAT
      000000DDH   SFRSYM    DATA     BYTE      T4T3M
      000000C1H   SFRSYM    DATA     BYTE      WDT_CONTR
      000000DFH   SFRSYM    DATA     BYTE      IP3
      000000F4H   SFRSYM    DATA     BYTE      USBCON
      000000B5H   SFRSYM    DATA     BYTE      IP2
      000000FFH   SFRSYM    DATA     BYTE      RSTCFG
      000000C7H   SFRSYM    DATA     BYTE      IAP_CONTR
      000000F9H   SFRSYM    DATA     BYTE      LINICR
      0000008EH   SFRSYM    DATA     BYTE      AUXR
      000000AFH   SFRSYM    DATA     BYTE      IE2
      00000088H   SFRSYM    DATA     BYTE      TCON
      00000089H   SFRSYM    DATA     BYTE      TMOD
      00000098H   SFRSYM    DATA     BYTE      SCON
      000000F1H   SFRSYM    DATA     BYTE      CANICR
      00000087H   SFRSYM    DATA     BYTE      PCON
      000000BCH   SFRSYM    DATA     BYTE      ADC_CONTR
      000000E7H   SFRSYM    DATA     BYTE      CMPCR2
      000000E6H   SFRSYM    DATA     BYTE      CMPCR1
      000000DEH   SFRSYM    DATA     BYTE      ADCCFG
      000000B8H   SFRSYM    DATA     BYTE      IP
      0000008FH   SFRSYM    DATA     BYTE      INTCLKO
      000000EEH   SFRSYM    DATA     BYTE      IP3H
      000000B6H   SFRSYM    DATA     BYTE      IP2H
      000000A8H   SFRSYM    DATA     BYTE      IE
L251 LINKER/LOCATER V4.66.93.0                                                        03/26/2026  19:04:27  PAGE 44


      000000BBH   SFRSYM    DATA     BYTE      P_SW3
      000000BAH   SFRSYM    DATA     BYTE      P_SW2
      000000A2H   SFRSYM    DATA     BYTE      P_SW1
      000000CEH   SFRSYM    DATA     BYTE      SPCTL
      000000F8H   SFRSYM    DATA     BYTE      P7
      000000E8H   SFRSYM    DATA     BYTE      P6
      000000C8H   SFRSYM    DATA     BYTE      P5
      000000C0H   SFRSYM    DATA     BYTE      P4
      000000B0H   SFRSYM    DATA     BYTE      P3
      000000A0H   SFRSYM    DATA     BYTE      P2
      00000090H   SFRSYM    DATA     BYTE      P1
      00000080H   SFRSYM    DATA     BYTE      P0
      00FFA530H   SYMBOL    HCONST   ---       ?tpl?0001
      00010B45H   SYMBOL    XDATA    BYTE      zf_debug_assert_enable
      00010B5DH   SYMBOL    XDATA    BYTE      zf_debug_init_flag
      00011AA1H   SYMBOL    XDATA    ---       buff
      00011AA5H   SYMBOL    XDATA    DWORD     len
      00011AA9H   SYMBOL    XDATA    ---       buff
      00011AADH   SYMBOL    XDATA    DWORD     len

      00FF92AFH   BLOCK     CODE     ---       LVL=0
      00011DFFH   SYMBOL    XDATA    BYTE      dat
      00FF92AFH   LINE      CODE     ---       #281
      00FF92B3H   LINE      CODE     ---       #283
      00FF92BCH   LINE      CODE     ---       #285
      00FF92C9H   LINE      CODE     ---       #286
      00FF92EAH   LINE      CODE     ---       #287
      ---         BLOCKEND  ---      ---       LVL=0

      00FF9586H   BLOCK     CODE     ---       LVL=0
      00011E00H   SYMBOL    XDATA    CHAR      c
      00FF9586H   LINE      CODE     ---       #303
      00FF958AH   LINE      CODE     ---       #305
      00FF9593H   LINE      CODE     ---       #307
      00FF9597H   LINE      CODE     ---       #308
      ---         BLOCKEND  ---      ---       LVL=0

      00FF8AF8H   BLOCK     CODE     ---       LVL=0
      00011304H   SYMBOL    XDATA    BYTE      pass
      00011305H   SYMBOL    XDATA    ---       file
      00011309H   SYMBOL    XDATA    INT       line
      00FF8B0CH   BLOCK     CODE     NEAR LAB  LVL=1
      0001130BH   SYMBOL    XDATA    ---       log_str
      ---         BLOCKEND  ---      ---       LVL=1
      00FF8AF8H   LINE      CODE     ---       #346
      00FF8B0CH   LINE      CODE     ---       #347
      00FF8B0CH   LINE      CODE     ---       #348
      00FF8B21H   LINE      CODE     ---       #350
      00FF8B23H   LINE      CODE     ---       #366
      00FF8B60H   LINE      CODE     ---       #369
      00FF8B67H   LINE      CODE     ---       #370
      00FF8B70H   LINE      CODE     ---       #371
      ---         BLOCKEND  ---      ---       LVL=0

      00FF8301H   BLOCK     CODE     ---       LVL=0
      00011E01H   SYMBOL    XDATA    BYTE      uartx
      00FF8301H   LINE      CODE     ---       #453
      00FF8301H   LINE      CODE     ---       #454
      00FF8301H   LINE      CODE     ---       #455
      00FF8306H   LINE      CODE     ---       #461
      00FF8321H   LINE      CODE     ---       #468
      00FF834EH   LINE      CODE     ---       #469
      00FF8355H   LINE      CODE     ---       #472
      00FF835EH   LINE      CODE     ---       #474
      00FF8368H   LINE      CODE     ---       #475
L251 LINKER/LOCATER V4.66.93.0                                                        03/26/2026  19:04:27  PAGE 45


      00FF836AH   LINE      CODE     ---       #476
      00FF8373H   LINE      CODE     ---       #478
      00FF837DH   LINE      CODE     ---       #479
      00FF837FH   LINE      CODE     ---       #480
      00FF8388H   LINE      CODE     ---       #482
      00FF8392H   LINE      CODE     ---       #483
      00FF8394H   LINE      CODE     ---       #484
      00FF839DH   LINE      CODE     ---       #486
      00FF83A7H   LINE      CODE     ---       #487
      ---         BLOCKEND  ---      ---       LVL=0

      ---         MODULE    ---      ---       zf_common_fifo
      00FF3F80H   PUBLIC    CODE     ---       fifo_write_buffer
      00FF7BE9H   PUBLIC    CODE     ---       fifo_init
      00011417H   PUBLIC    XDATA    BYTE      ?fifo_write_buffer?BYTE
      00011292H   PUBLIC    XDATA    BYTE      ?fifo_read_buffer?BYTE
      000115C2H   PUBLIC    XDATA    BYTE      ?fifo_init?BYTE
      000000D0H   SFRSYM    DATA     BYTE      PSW
      0000009DH   SFRSYM    DATA     BYTE      IRCBAND
      00000097H   SFRSYM    DATA     BYTE      AUXR2
      000000EFH   SFRSYM    DATA     BYTE      AUXINTIF
      000000FDH   SFRSYM    DATA     BYTE      S4CON
      000000ACH   SFRSYM    DATA     BYTE      S3CON
      0000009AH   SFRSYM    DATA     BYTE      S2CON
      000000B7H   SFRSYM    DATA     BYTE      IPH
      000000CDH   SFRSYM    DATA     BYTE      SPSTAT
      000000DDH   SFRSYM    DATA     BYTE      T4T3M
      000000C1H   SFRSYM    DATA     BYTE      WDT_CONTR
      000000DFH   SFRSYM    DATA     BYTE      IP3
      000000F4H   SFRSYM    DATA     BYTE      USBCON
      000000B5H   SFRSYM    DATA     BYTE      IP2
      000000FFH   SFRSYM    DATA     BYTE      RSTCFG
      000000C7H   SFRSYM    DATA     BYTE      IAP_CONTR
      000000F9H   SFRSYM    DATA     BYTE      LINICR
      0000008EH   SFRSYM    DATA     BYTE      AUXR
      000000AFH   SFRSYM    DATA     BYTE      IE2
      00000088H   SFRSYM    DATA     BYTE      TCON
      00000089H   SFRSYM    DATA     BYTE      TMOD
      00000098H   SFRSYM    DATA     BYTE      SCON
      000000F1H   SFRSYM    DATA     BYTE      CANICR
      00000087H   SFRSYM    DATA     BYTE      PCON
      000000BCH   SFRSYM    DATA     BYTE      ADC_CONTR
      000000E7H   SFRSYM    DATA     BYTE      CMPCR2
      000000E6H   SFRSYM    DATA     BYTE      CMPCR1
      000000DEH   SFRSYM    DATA     BYTE      ADCCFG
      000000B8H   SFRSYM    DATA     BYTE      IP
      0000008FH   SFRSYM    DATA     BYTE      INTCLKO
      000000EEH   SFRSYM    DATA     BYTE      IP3H
      000000B6H   SFRSYM    DATA     BYTE      IP2H
      000000A8H   SFRSYM    DATA     BYTE      IE
      000000BBH   SFRSYM    DATA     BYTE      P_SW3
      000000BAH   SFRSYM    DATA     BYTE      P_SW2
      000000A2H   SFRSYM    DATA     BYTE      P_SW1
      000000CEH   SFRSYM    DATA     BYTE      SPCTL
      000000F8H   SFRSYM    DATA     BYTE      P7
      000000E8H   SFRSYM    DATA     BYTE      P6
      000000C8H   SFRSYM    DATA     BYTE      P5
      000000C0H   SFRSYM    DATA     BYTE      P4
      000000B0H   SFRSYM    DATA     BYTE      P3
      000000A0H   SFRSYM    DATA     BYTE      P2
      00000090H   SFRSYM    DATA     BYTE      P1
      00000080H   SFRSYM    DATA     BYTE      P0
      00FF844FH   SYMBOL    CODE     ---       fifo_head_offset

      00FF844FH   BLOCK     CODE     ---       LVL=0
L251 LINKER/LOCATER V4.66.93.0                                                        03/26/2026  19:04:27  PAGE 46


      00011AB1H   SYMBOL    XDATA    ---       fifo
      00011AB5H   SYMBOL    XDATA    DWORD     offset
      00FF844FH   LINE      CODE     ---       #51
      00FF8463H   LINE      CODE     ---       #53
      00FF848BH   LINE      CODE     ---       #55
      00FF848DH   LINE      CODE     ---       #57
      00FF84C0H   LINE      CODE     ---       #58
      00FF84EEH   LINE      CODE     ---       #59
      ---         BLOCKEND  ---      ---       LVL=0
      00011AB9H   SYMBOL    XDATA    ---       fifo
      00011ABDH   SYMBOL    XDATA    DWORD     offset
      00011BC3H   SYMBOL    XDATA    ---       fifo
      00011BC7H   SYMBOL    XDATA    INT       return_state
      00011D05H   SYMBOL    XDATA    ---       fifo

      00FF3F80H   BLOCK     CODE     ---       LVL=0
      00011417H   SYMBOL    XDATA    ---       fifo
      0001141BH   SYMBOL    XDATA    ---       dat
      0001141FH   SYMBOL    XDATA    DWORD     length
      00FF3F94H   BLOCK     CODE     NEAR LAB  LVL=1
      00011423H   SYMBOL    XDATA    INT       return_state
      00011425H   SYMBOL    XDATA    DWORD     temp_length
      ---         BLOCKEND  ---      ---       LVL=1
      00FF3F80H   LINE      CODE     ---       #178
      00FF3F94H   LINE      CODE     ---       #179
      00FF3F94H   LINE      CODE     ---       #180
      00FF3F9CH   LINE      CODE     ---       #181
      00FF3FA8H   LINE      CODE     ---       #182
      00FF3FCAH   LINE      CODE     ---       #184
      00FF3FCAH   LINE      CODE     ---       #186
      00FF3FD8H   LINE      CODE     ---       #188
      00FF3FE2H   LINE      CODE     ---       #189
      00FF3FE5H   LINE      CODE     ---       #190
      00FF3FE5H   LINE      CODE     ---       #191
      00FF4000H   LINE      CODE     ---       #193
      00FF400AH   LINE      CODE     ---       #194
      00FF400DH   LINE      CODE     ---       #195
      00FF400DH   LINE      CODE     ---       #196
      00FF4021H   LINE      CODE     ---       #198
      00FF4047H   LINE      CODE     ---       #200
      00FF407DH   LINE      CODE     ---       #202
      00FF4098H   LINE      CODE     ---       #204
      00FF40BCH   LINE      CODE     ---       #206
      00FF40BCH   LINE      CODE     ---       #208
      00FF4103H   LINE      CODE     ---       #211
      00FF411AH   LINE      CODE     ---       #212
      00FF417FH   LINE      CODE     ---       #216
      00FF41A2H   LINE      CODE     ---       #217
      00FF41A5H   LINE      CODE     ---       #218
      00FF41A5H   LINE      CODE     ---       #220
      00FF41F0H   LINE      CODE     ---       #223
      00FF4207H   LINE      CODE     ---       #224
      00FF426EH   LINE      CODE     ---       #228
      00FF4291H   LINE      CODE     ---       #229
      00FF4294H   LINE      CODE     ---       #230
      00FF4294H   LINE      CODE     ---       #232
      00FF42E3H   LINE      CODE     ---       #235
      00FF42FAH   LINE      CODE     ---       #236
      00FF4367H   LINE      CODE     ---       #240
      00FF438AH   LINE      CODE     ---       #241
      00FF438AH   LINE      CODE     ---       #242
      00FF438AH   LINE      CODE     ---       #243
      00FF438DH   LINE      CODE     ---       #246
      00FF43AEH   LINE      CODE     ---       #248
      00FF43AEH   LINE      CODE     ---       #250
L251 LINKER/LOCATER V4.66.93.0                                                        03/26/2026  19:04:27  PAGE 47


      00FF43F5H   LINE      CODE     ---       #253
      00FF440CH   LINE      CODE     ---       #254
      00FF440FH   LINE      CODE     ---       #255
      00FF440FH   LINE      CODE     ---       #257
      00FF445AH   LINE      CODE     ---       #260
      00FF4471H   LINE      CODE     ---       #261
      00FF4473H   LINE      CODE     ---       #262
      00FF4473H   LINE      CODE     ---       #264
      00FF44C2H   LINE      CODE     ---       #267
      00FF44D9H   LINE      CODE     ---       #268
      00FF44D9H   LINE      CODE     ---       #269
      00FF44D9H   LINE      CODE     ---       #270
      00FF44D9H   LINE      CODE     ---       #272
      00FF4501H   LINE      CODE     ---       #273
      00FF4503H   LINE      CODE     ---       #276
      00FF450DH   LINE      CODE     ---       #277
      00FF450DH   LINE      CODE     ---       #278
      00FF4521H   LINE      CODE     ---       #279
      00FF4521H   LINE      CODE     ---       #281
      00FF4527H   LINE      CODE     ---       #282
      ---         BLOCKEND  ---      ---       LVL=0
      00011292H   SYMBOL    XDATA    ---       fifo
      00011296H   SYMBOL    XDATA    ---       dat
      0001129AH   SYMBOL    XDATA    ---       length
      0001129EH   SYMBOL    XDATA    INT       flag
      000112A0H   SYMBOL    XDATA    INT       return_state
      000112A2H   SYMBOL    XDATA    DWORD     temp_length
      000112A6H   SYMBOL    XDATA    DWORD     fifo_data_length

      00FF7BE9H   BLOCK     CODE     ---       LVL=0
      000115C2H   SYMBOL    XDATA    ---       fifo
      000115C6H   SYMBOL    XDATA    INT       type
      000115C8H   SYMBOL    XDATA    ---       buffer_addr
      000115CCH   SYMBOL    XDATA    DWORD     siz
      00FF7BE9H   LINE      CODE     ---       #549
      00FF7BF9H   LINE      CODE     ---       #551
      00FF7C1BH   LINE      CODE     ---       #552
      00FF7C1BH   LINE      CODE     ---       #554
      00FF7C3AH   LINE      CODE     ---       #555
      00FF7C48H   LINE      CODE     ---       #556
      00FF7C5DH   LINE      CODE     ---       #557
      00FF7C74H   LINE      CODE     ---       #558
      00FF7C8BH   LINE      CODE     ---       #559
      00FF7CAAH   LINE      CODE     ---       #560
      00FF7CC9H   LINE      CODE     ---       #561
      00FF7CC9H   LINE      CODE     ---       #562
      00FF7CCBH   LINE      CODE     ---       #563
      ---         BLOCKEND  ---      ---       LVL=0

      ---         MODULE    ---      ---       zf_common_font
      00FF3990H   PUBLIC    CODE     ---       ascii_font_8x16
      000000D0H   SFRSYM    DATA     BYTE      PSW
      0000009DH   SFRSYM    DATA     BYTE      IRCBAND
      00000097H   SFRSYM    DATA     BYTE      AUXR2
      000000EFH   SFRSYM    DATA     BYTE      AUXINTIF
      000000FDH   SFRSYM    DATA     BYTE      S4CON
      000000ACH   SFRSYM    DATA     BYTE      S3CON
      0000009AH   SFRSYM    DATA     BYTE      S2CON
      000000B7H   SFRSYM    DATA     BYTE      IPH
      000000CDH   SFRSYM    DATA     BYTE      SPSTAT
      000000DDH   SFRSYM    DATA     BYTE      T4T3M
      000000C1H   SFRSYM    DATA     BYTE      WDT_CONTR
      000000DFH   SFRSYM    DATA     BYTE      IP3
      000000F4H   SFRSYM    DATA     BYTE      USBCON
      000000B5H   SFRSYM    DATA     BYTE      IP2
L251 LINKER/LOCATER V4.66.93.0                                                        03/26/2026  19:04:27  PAGE 48


      000000FFH   SFRSYM    DATA     BYTE      RSTCFG
      000000C7H   SFRSYM    DATA     BYTE      IAP_CONTR
      000000F9H   SFRSYM    DATA     BYTE      LINICR
      0000008EH   SFRSYM    DATA     BYTE      AUXR
      000000AFH   SFRSYM    DATA     BYTE      IE2
      00000088H   SFRSYM    DATA     BYTE      TCON
      00000089H   SFRSYM    DATA     BYTE      TMOD
      00000098H   SFRSYM    DATA     BYTE      SCON
      000000F1H   SFRSYM    DATA     BYTE      CANICR
      00000087H   SFRSYM    DATA     BYTE      PCON
      000000BCH   SFRSYM    DATA     BYTE      ADC_CONTR
      000000E7H   SFRSYM    DATA     BYTE      CMPCR2
      000000E6H   SFRSYM    DATA     BYTE      CMPCR1
      000000DEH   SFRSYM    DATA     BYTE      ADCCFG
      000000B8H   SFRSYM    DATA     BYTE      IP
      0000008FH   SFRSYM    DATA     BYTE      INTCLKO
      000000EEH   SFRSYM    DATA     BYTE      IP3H
      000000B6H   SFRSYM    DATA     BYTE      IP2H
      000000A8H   SFRSYM    DATA     BYTE      IE
      000000BBH   SFRSYM    DATA     BYTE      P_SW3
      000000BAH   SFRSYM    DATA     BYTE      P_SW2
      000000A2H   SFRSYM    DATA     BYTE      P_SW1
      000000CEH   SFRSYM    DATA     BYTE      SPCTL
      000000F8H   SFRSYM    DATA     BYTE      P7
      000000E8H   SFRSYM    DATA     BYTE      P6
      000000C8H   SFRSYM    DATA     BYTE      P5
      000000C0H   SFRSYM    DATA     BYTE      P4
      000000B0H   SFRSYM    DATA     BYTE      P3
      000000A0H   SFRSYM    DATA     BYTE      P2
      00000090H   SFRSYM    DATA     BYTE      P1
      00000080H   SFRSYM    DATA     BYTE      P0

      ---         MODULE    ---      ---       zf_common_function
      00FF3071H   PUBLIC    CODE     ---       zf_sprintf
      00010C0CH   PUBLIC    XDATA    BYTE      ?vsnprintf?BYTE
      00010ACEH   PUBLIC    XDATA    BYTE      ?zf_sprintf?BYTE
      000000D0H   SFRSYM    DATA     BYTE      PSW
      0000009DH   SFRSYM    DATA     BYTE      IRCBAND
      00000097H   SFRSYM    DATA     BYTE      AUXR2
      000000EFH   SFRSYM    DATA     BYTE      AUXINTIF
      000000FDH   SFRSYM    DATA     BYTE      S4CON
      000000ACH   SFRSYM    DATA     BYTE      S3CON
      0000009AH   SFRSYM    DATA     BYTE      S2CON
      000000B7H   SFRSYM    DATA     BYTE      IPH
      000000CDH   SFRSYM    DATA     BYTE      SPSTAT
      000000DDH   SFRSYM    DATA     BYTE      T4T3M
      000000C1H   SFRSYM    DATA     BYTE      WDT_CONTR
      000000DFH   SFRSYM    DATA     BYTE      IP3
      000000F4H   SFRSYM    DATA     BYTE      USBCON
      000000B5H   SFRSYM    DATA     BYTE      IP2
      000000FFH   SFRSYM    DATA     BYTE      RSTCFG
      000000C7H   SFRSYM    DATA     BYTE      IAP_CONTR
      000000F9H   SFRSYM    DATA     BYTE      LINICR
      0000008EH   SFRSYM    DATA     BYTE      AUXR
      000000AFH   SFRSYM    DATA     BYTE      IE2
      00000088H   SFRSYM    DATA     BYTE      TCON
      00000089H   SFRSYM    DATA     BYTE      TMOD
      00000098H   SFRSYM    DATA     BYTE      SCON
      000000F1H   SFRSYM    DATA     BYTE      CANICR
      00000087H   SFRSYM    DATA     BYTE      PCON
      000000BCH   SFRSYM    DATA     BYTE      ADC_CONTR
      000000E7H   SFRSYM    DATA     BYTE      CMPCR2
      000000E6H   SFRSYM    DATA     BYTE      CMPCR1
      000000DEH   SFRSYM    DATA     BYTE      ADCCFG
      000000B8H   SFRSYM    DATA     BYTE      IP
L251 LINKER/LOCATER V4.66.93.0                                                        03/26/2026  19:04:27  PAGE 49


      0000008FH   SFRSYM    DATA     BYTE      INTCLKO
      000000EEH   SFRSYM    DATA     BYTE      IP3H
      000000B6H   SFRSYM    DATA     BYTE      IP2H
      000000A8H   SFRSYM    DATA     BYTE      IE
      000000BBH   SFRSYM    DATA     BYTE      P_SW3
      000000BAH   SFRSYM    DATA     BYTE      P_SW2
      000000A2H   SFRSYM    DATA     BYTE      P_SW1
      000000CEH   SFRSYM    DATA     BYTE      SPCTL
      000000F8H   SFRSYM    DATA     BYTE      P7
      000000E8H   SFRSYM    DATA     BYTE      P6
      000000C8H   SFRSYM    DATA     BYTE      P5
      000000C0H   SFRSYM    DATA     BYTE      P4
      000000B0H   SFRSYM    DATA     BYTE      P3
      000000A0H   SFRSYM    DATA     BYTE      P2
      00000090H   SFRSYM    DATA     BYTE      P1
      00000080H   SFRSYM    DATA     BYTE      P0
      00FFA2C6H   SYMBOL    HCONST   ---       ?tpl?0001
      00FFA2D6H   SYMBOL    HCONST   ---       ?tpl?0002
      00FF6D2FH   SYMBOL    CODE     ---       number_conversion_ascii
      00FF7A02H   SYMBOL    CODE     ---       printf_reverse_order
      00011AC1H   SYMBOL    XDATA    DWORD     num1
      00011AC5H   SYMBOL    XDATA    DWORD     num2
      00011D09H   SYMBOL    XDATA    LONG      t
      000119A5H   SYMBOL    XDATA    ---       str
      000119A9H   SYMBOL    XDATA    BYTE      sign
      000119AAH   SYMBOL    XDATA    LONG      temp
      000111BFH   SYMBOL    XDATA    ---       str
      000111C3H   SYMBOL    XDATA    LONG      number
      000111C7H   SYMBOL    XDATA    ---       data_temp
      000111D7H   SYMBOL    XDATA    BYTE      temp_bit
      000111D8H   SYMBOL    XDATA    LONG      number_temp
      00011AC9H   SYMBOL    XDATA    ---       str
      00011ACDH   SYMBOL    XDATA    DWORD     temp
      00011247H   SYMBOL    XDATA    ---       str
      0001124BH   SYMBOL    XDATA    DWORD     number
      0001124FH   SYMBOL    XDATA    ---       data_temp
      0001125FH   SYMBOL    XDATA    BYTE      temp_bit
      0001145FH   SYMBOL    XDATA    ---       str
      00011463H   SYMBOL    XDATA    BYTE      sign
      00011464H   SYMBOL    XDATA    FLOAT     temp
      00011468H   SYMBOL    XDATA    FLOAT     temp_point
      0001146CH   SYMBOL    XDATA    FLOAT     point_bit
      00010FDBH   SYMBOL    XDATA    ---       str
      00010FDFH   SYMBOL    XDATA    FLOAT     number
      00010FE3H   SYMBOL    XDATA    BYTE      point_bit
      00010FE4H   SYMBOL    XDATA    INT       data_int
      00010FE6H   SYMBOL    XDATA    INT       data_float
      00010FE8H   SYMBOL    XDATA    ---       data_temp
      00010FF8H   SYMBOL    XDATA    ---       data_temp_point
      00011004H   SYMBOL    XDATA    BYTE      temp_bit
      00011470H   SYMBOL    XDATA    ---       str
      00011474H   SYMBOL    XDATA    BYTE      sign
      00011475H   SYMBOL    XDATA    FLOAT     temp
      00011479H   SYMBOL    XDATA    FLOAT     temp_point
      0001147DH   SYMBOL    XDATA    FLOAT     point_bit
      00010E05H   SYMBOL    XDATA    ---       str
      00010E09H   SYMBOL    XDATA    FLOAT     number
      00010E0DH   SYMBOL    XDATA    BYTE      point_bit
      00010E0EH   SYMBOL    XDATA    INT       data_int
      00010E10H   SYMBOL    XDATA    INT       data_float
      00010E12H   SYMBOL    XDATA    ---       data_temp
      00010E2AH   SYMBOL    XDATA    ---       data_temp_point
      00010E3CH   SYMBOL    XDATA    BYTE      temp_bit
      000115D0H   SYMBOL    XDATA    ---       str
      000115D4H   SYMBOL    XDATA    DWORD     str_len
L251 LINKER/LOCATER V4.66.93.0                                                        03/26/2026  19:04:27  PAGE 50


      000115D8H   SYMBOL    XDATA    DWORD     result_data
      000115DCH   SYMBOL    XDATA    BYTE      temp
      000115DDH   SYMBOL    XDATA    BYTE      flag
      0001107FH   SYMBOL    XDATA    ---       str
      00011083H   SYMBOL    XDATA    DWORD     number
      00011087H   SYMBOL    XDATA    ---       hex_index
      00011097H   SYMBOL    XDATA    ---       data_temp
      000110A3H   SYMBOL    XDATA    BYTE      temp_bit

      00FF6D2FH   BLOCK     CODE     ---       LVL=0
      00011318H   SYMBOL    XDATA    DWORD     dat
      0001131CH   SYMBOL    XDATA    ---       p
      00011320H   SYMBOL    XDATA    BYTE      neg_type
      00011321H   SYMBOL    XDATA    BYTE      radix
      00FF6D47H   BLOCK     CODE     NEAR LAB  LVL=1
      00011322H   SYMBOL    XDATA    LONG      neg_dat
      00011326H   SYMBOL    XDATA    DWORD     pos_dat
      0001132AH   SYMBOL    XDATA    BYTE      temp_data
      0001132BH   SYMBOL    XDATA    BYTE      valid_num
      ---         BLOCKEND  ---      ---       LVL=1
      00FF6D2FH   LINE      CODE     ---       #647
      00FF6D47H   LINE      CODE     ---       #648
      00FF6D47H   LINE      CODE     ---       #651
      00FF6D4CH   LINE      CODE     ---       #652
      00FF6D51H   LINE      CODE     ---       #654
      00FF6D5DH   LINE      CODE     ---       #656
      00FF6D71H   LINE      CODE     ---       #657
      00FF6D81H   LINE      CODE     ---       #659
      00FF6D9FH   LINE      CODE     ---       #660
      00FF6D9FH   LINE      CODE     ---       #661
      00FF6D9FH   LINE      CODE     ---       #663
      00FF6DC7H   LINE      CODE     ---       #664
      00FF6DE3H   LINE      CODE     ---       #665
      00FF6DEEH   LINE      CODE     ---       #667
      00FF6DFCH   LINE      CODE     ---       #669
      00FF6DFCH   LINE      CODE     ---       #670
      00FF6DFCH   LINE      CODE     ---       #671
      00FF6E0FH   LINE      CODE     ---       #672
      00FF6E11H   LINE      CODE     ---       #673
      00FF6E14H   LINE      CODE     ---       #676
      00FF6E28H   LINE      CODE     ---       #677
      00FF6E28H   LINE      CODE     ---       #679
      00FF6E43H   LINE      CODE     ---       #680
      00FF6E4FH   LINE      CODE     ---       #682
      00FF6E59H   LINE      CODE     ---       #683
      00FF6E5BH   LINE      CODE     ---       #686
      00FF6E65H   LINE      CODE     ---       #687
      00FF6E65H   LINE      CODE     ---       #689
      00FF6E76H   LINE      CODE     ---       #691
      00FF6E92H   LINE      CODE     ---       #692
      00FF6E9DH   LINE      CODE     ---       #694
      00FF6EABH   LINE      CODE     ---       #696
      00FF6EABH   LINE      CODE     ---       #697
      00FF6EABH   LINE      CODE     ---       #698
      00FF6EBEH   LINE      CODE     ---       #699
      00FF6EC1H   LINE      CODE     ---       #700
      00FF6EC1H   LINE      CODE     ---       #701
      00FF6EC5H   LINE      CODE     ---       #702
      ---         BLOCKEND  ---      ---       LVL=0

      00FF7A02H   BLOCK     CODE     ---       LVL=0
      00011694H   SYMBOL    XDATA    ---       d_buff
      00011698H   SYMBOL    XDATA    DWORD     len
      00FF7A16H   BLOCK     CODE     NEAR LAB  LVL=1
      0001169CH   SYMBOL    XDATA    DWORD     i
L251 LINKER/LOCATER V4.66.93.0                                                        03/26/2026  19:04:27  PAGE 51


      000116A0H   SYMBOL    XDATA    CHAR      temp_data
      ---         BLOCKEND  ---      ---       LVL=1
      00FF7A02H   LINE      CODE     ---       #712
      00FF7A16H   LINE      CODE     ---       #713
      00FF7A16H   LINE      CODE     ---       #716
      00FF7A25H   LINE      CODE     ---       #718
      00FF7A56H   LINE      CODE     ---       #719
      00FF7A9EH   LINE      CODE     ---       #720
      00FF7ABDH   LINE      CODE     ---       #721
      00FF7AFAH   LINE      CODE     ---       #722
      ---         BLOCKEND  ---      ---       LVL=0
      00010C0CH   SYMBOL    XDATA    ---       buffer
      00010C10H   SYMBOL    XDATA    DWORD     siz
      00010C14H   SYMBOL    XDATA    ---       format
      00010C18H   SYMBOL    XDATA    ---       args
      00010C1CH   SYMBOL    XDATA    DWORD     i
      00010C20H   SYMBOL    XDATA    ---       ptr
      00010C24H   SYMBOL    XDATA    INT       j
      00010C26H   SYMBOL    XDATA    INT       num
      00010C28H   SYMBOL    XDATA    ---       temp
      00010C38H   SYMBOL    XDATA    INT       len
      00010C3AH   SYMBOL    XDATA    INT       is_negative
      00010C3CH   SYMBOL    XDATA    ---       str
      00010C40H   SYMBOL    XDATA    DWORD     num_x
      00010C44H   SYMBOL    XDATA    ---       temp_x
      00010C4DH   SYMBOL    XDATA    ---       hex_digits
      00010C5EH   SYMBOL    XDATA    CHAR      t
      00010C5EH   SYMBOL    XDATA    CHAR      t

      00FF3071H   BLOCK     CODE     ---       LVL=0
      00010ACEH   SYMBOL    XDATA    ---       buff
      00010AD2H   SYMBOL    XDATA    ---       format
      00FF3085H   BLOCK     CODE     NEAR LAB  LVL=1
      00010AD6H   SYMBOL    XDATA    DWORD     buff_len
      00010ADAH   SYMBOL    XDATA    ---       arg
      00FF30A6H   BLOCK     CODE     NEAR LAB  LVL=2
      00010ADEH   SYMBOL    XDATA    CHAR      ret
      00FF31EAH   BLOCK     CODE     NEAR LAB  LVL=3
      00010ADFH   SYMBOL    XDATA    CHAR      ch
      ---         BLOCKEND  ---      ---       LVL=3
      00FF3250H   BLOCK     CODE     NEAR LAB  LVL=3
      00010ADFH   SYMBOL    XDATA    ---       vstr
      00010B00H   SYMBOL    XDATA    LONG      ival
      00010B04H   SYMBOL    XDATA    BYTE      vlen
      ---         BLOCKEND  ---      ---       LVL=3
      00FF333BH   BLOCK     CODE     NEAR LAB  LVL=3
      00010ADFH   SYMBOL    XDATA    ---       vstr
      00010B00H   SYMBOL    XDATA    FLOAT     ival
      00010B04H   SYMBOL    XDATA    BYTE      vlen
      ---         BLOCKEND  ---      ---       LVL=3
      00FF3578H   BLOCK     CODE     NEAR LAB  LVL=3
      00010ADFH   SYMBOL    XDATA    ---       vstr
      00010B00H   SYMBOL    XDATA    DWORD     ival
      00010B04H   SYMBOL    XDATA    BYTE      vlen
      ---         BLOCKEND  ---      ---       LVL=3
      00FF362FH   BLOCK     CODE     NEAR LAB  LVL=3
      00010ADFH   SYMBOL    XDATA    ---       vstr
      00010B00H   SYMBOL    XDATA    DWORD     ival
      00010B04H   SYMBOL    XDATA    BYTE      vlen
      ---         BLOCKEND  ---      ---       LVL=3
      00FF36E6H   BLOCK     CODE     NEAR LAB  LVL=3
      00010ADFH   SYMBOL    XDATA    ---       vstr
      00010B00H   SYMBOL    XDATA    DWORD     ival
      00010B04H   SYMBOL    XDATA    BYTE      vlen
      ---         BLOCKEND  ---      ---       LVL=3
L251 LINKER/LOCATER V4.66.93.0                                                        03/26/2026  19:04:27  PAGE 52


      00FF379DH   BLOCK     CODE     NEAR LAB  LVL=3
      00010ADFH   SYMBOL    XDATA    ---       pc
      ---         BLOCKEND  ---      ---       LVL=3
      00FF3839H   BLOCK     CODE     NEAR LAB  LVL=3
      00010ADFH   SYMBOL    XDATA    ---       vstr
      00010B00H   SYMBOL    XDATA    DWORD     ival
      ---         BLOCKEND  ---      ---       LVL=3
      ---         BLOCKEND  ---      ---       LVL=2
      ---         BLOCKEND  ---      ---       LVL=1
      00FF3071H   LINE      CODE     ---       #875
      00FF3085H   LINE      CODE     ---       #876
      00FF3085H   LINE      CODE     ---       #877
      00FF3091H   LINE      CODE     ---       #879
      00FF30A3H   LINE      CODE     ---       #881
      00FF30A6H   LINE      CODE     ---       #882
      00FF30A6H   LINE      CODE     ---       #883
      00FF30B7H   LINE      CODE     ---       #884
      00FF30C3H   LINE      CODE     ---       #886
      00FF31E7H   LINE      CODE     ---       #888
      00FF31E7H   LINE      CODE     ---       #891
      00FF31EAH   LINE      CODE     ---       #893
      00FF31EAH   LINE      CODE     ---       #894
      00FF31EAH   LINE      CODE     ---       #895
      00FF3212H   LINE      CODE     ---       #896
      00FF3223H   LINE      CODE     ---       #897
      00FF3236H   LINE      CODE     ---       #898
      00FF324DH   LINE      CODE     ---       #900
      00FF3250H   LINE      CODE     ---       #902
      00FF3250H   LINE      CODE     ---       #903
      00FF3250H   LINE      CODE     ---       #904
      00FF3250H   LINE      CODE     ---       #906
      00FF327EH   LINE      CODE     ---       #907
      00FF329FH   LINE      CODE     ---       #909
      00FF32AFH   LINE      CODE     ---       #911
      00FF32C7H   LINE      CODE     ---       #912
      00FF32D2H   LINE      CODE     ---       #913
      00FF32D2H   LINE      CODE     ---       #914
      00FF32E5H   LINE      CODE     ---       #915
      00FF3304H   LINE      CODE     ---       #916
      00FF331DH   LINE      CODE     ---       #917
      00FF3338H   LINE      CODE     ---       #919
      00FF333BH   LINE      CODE     ---       #921
      00FF333BH   LINE      CODE     ---       #922
      00FF333BH   LINE      CODE     ---       #923
      00FF333BH   LINE      CODE     ---       #925
      00FF3369H   LINE      CODE     ---       #926
      00FF338DH   LINE      CODE     ---       #928
      00FF339EH   LINE      CODE     ---       #930
      00FF33B6H   LINE      CODE     ---       #931
      00FF33C1H   LINE      CODE     ---       #932
      00FF33C1H   LINE      CODE     ---       #933
      00FF33D4H   LINE      CODE     ---       #934
      00FF33F3H   LINE      CODE     ---       #935
      00FF340CH   LINE      CODE     ---       #936
      00FF3427H   LINE      CODE     ---       #938
      00FF345DH   LINE      CODE     ---       #939
      00FF346BH   LINE      CODE     ---       #941
      00FF348FH   LINE      CODE     ---       #942
      00FF3491H   LINE      CODE     ---       #945
      00FF34B5H   LINE      CODE     ---       #946
      00FF34BBH   LINE      CODE     ---       #947
      00FF34BBH   LINE      CODE     ---       #949
      00FF34BDH   LINE      CODE     ---       #951
      00FF34D5H   LINE      CODE     ---       #952
      00FF34E0H   LINE      CODE     ---       #953
L251 LINKER/LOCATER V4.66.93.0                                                        03/26/2026  19:04:27  PAGE 53


      00FF34ECH   LINE      CODE     ---       #955
      00FF3504H   LINE      CODE     ---       #956
      00FF350FH   LINE      CODE     ---       #958
      00FF3522H   LINE      CODE     ---       #959
      00FF3541H   LINE      CODE     ---       #960
      00FF355AH   LINE      CODE     ---       #961
      00FF3575H   LINE      CODE     ---       #963
      00FF3578H   LINE      CODE     ---       #965
      00FF3578H   LINE      CODE     ---       #966
      00FF3578H   LINE      CODE     ---       #968
      00FF35A6H   LINE      CODE     ---       #969
      00FF35C6H   LINE      CODE     ---       #971
      00FF35D9H   LINE      CODE     ---       #972
      00FF35F8H   LINE      CODE     ---       #973
      00FF3611H   LINE      CODE     ---       #974
      00FF362CH   LINE      CODE     ---       #976
      00FF362FH   LINE      CODE     ---       #978
      00FF362FH   LINE      CODE     ---       #979
      00FF362FH   LINE      CODE     ---       #981
      00FF365DH   LINE      CODE     ---       #982
      00FF367DH   LINE      CODE     ---       #984
      00FF3690H   LINE      CODE     ---       #985
      00FF36AFH   LINE      CODE     ---       #986
      00FF36C8H   LINE      CODE     ---       #987
      00FF36E3H   LINE      CODE     ---       #990
      00FF36E6H   LINE      CODE     ---       #992
      00FF36E6H   LINE      CODE     ---       #993
      00FF36E6H   LINE      CODE     ---       #994
      00FF36E6H   LINE      CODE     ---       #996
      00FF3714H   LINE      CODE     ---       #997
      00FF3734H   LINE      CODE     ---       #999
      00FF3747H   LINE      CODE     ---       #1000
      00FF3766H   LINE      CODE     ---       #1001
      00FF377FH   LINE      CODE     ---       #1002
      00FF379AH   LINE      CODE     ---       #1004
      00FF379DH   LINE      CODE     ---       #1006
      00FF379DH   LINE      CODE     ---       #1007
      00FF379DH   LINE      CODE     ---       #1008
      00FF37CBH   LINE      CODE     ---       #1009
      00FF37CDH   LINE      CODE     ---       #1011
      00FF37E7H   LINE      CODE     ---       #1012
      00FF37FAH   LINE      CODE     ---       #1013
      00FF3811H   LINE      CODE     ---       #1014
      00FF3824H   LINE      CODE     ---       #1015
      00FF3836H   LINE      CODE     ---       #1017
      00FF3839H   LINE      CODE     ---       #1019
      00FF3839H   LINE      CODE     ---       #1020
      00FF3839H   LINE      CODE     ---       #1022
      00FF3867H   LINE      CODE     ---       #1024
      00FF3883H   LINE      CODE     ---       #1025
      00FF3892H   LINE      CODE     ---       #1026
      00FF38AFH   LINE      CODE     ---       #1027
      00FF38C4H   LINE      CODE     ---       #1028
      00FF38DBH   LINE      CODE     ---       #1030
      00FF38DEH   LINE      CODE     ---       #1032
      00FF38DEH   LINE      CODE     ---       #1034
      00FF38EDH   LINE      CODE     ---       #1035
      00FF3900H   LINE      CODE     ---       #1036
      00FF3917H   LINE      CODE     ---       #1038
      00FF3919H   LINE      CODE     ---       #1040
      00FF3919H   LINE      CODE     ---       #1041
      00FF3919H   LINE      CODE     ---       #1042
      00FF3919H   LINE      CODE     ---       #1043
      00FF3919H   LINE      CODE     ---       #1046
      00FF3933H   LINE      CODE     ---       #1047
L251 LINKER/LOCATER V4.66.93.0                                                        03/26/2026  19:04:27  PAGE 54


      00FF3946H   LINE      CODE     ---       #1048
      00FF395DH   LINE      CODE     ---       #1049
      00FF395DH   LINE      CODE     ---       #1050
      00FF3970H   LINE      CODE     ---       #1051
      00FF3985H   LINE      CODE     ---       #1054
      00FF398FH   LINE      CODE     ---       #1055
      ---         BLOCKEND  ---      ---       LVL=0

      ---         MODULE    ---      ---       zf_common_typedef
      00011183H   PUBLIC    XDATA    ---       tim11_irq_handler
      00011185H   PUBLIC    XDATA    ---       uart1_irq_handler
      00011187H   PUBLIC    XDATA    ---       uart2_irq_handler
      00011189H   PUBLIC    XDATA    ---       uart3_irq_handler
      0001118BH   PUBLIC    XDATA    ---       uart4_irq_handler
      0001118DH   PUBLIC    XDATA    ---       tim0_irq_handler
      0001118FH   PUBLIC    XDATA    ---       int0_irq_handler
      00011191H   PUBLIC    XDATA    ---       tim1_irq_handler
      00011193H   PUBLIC    XDATA    ---       int1_irq_handler
      00011195H   PUBLIC    XDATA    ---       tim2_irq_handler
      00011197H   PUBLIC    XDATA    ---       int2_irq_handler
      00011199H   PUBLIC    XDATA    ---       tim3_irq_handler
      0001119BH   PUBLIC    XDATA    ---       int3_irq_handler
      0001119DH   PUBLIC    XDATA    ---       tim4_irq_handler
      0001119FH   PUBLIC    XDATA    ---       int4_irq_handler
      000000D0H   SFRSYM    DATA     BYTE      PSW
      0000009DH   SFRSYM    DATA     BYTE      IRCBAND
      00000097H   SFRSYM    DATA     BYTE      AUXR2
      000000EFH   SFRSYM    DATA     BYTE      AUXINTIF
      000000FDH   SFRSYM    DATA     BYTE      S4CON
      000000ACH   SFRSYM    DATA     BYTE      S3CON
      0000009AH   SFRSYM    DATA     BYTE      S2CON
      000000B7H   SFRSYM    DATA     BYTE      IPH
      000000CDH   SFRSYM    DATA     BYTE      SPSTAT
      000000DDH   SFRSYM    DATA     BYTE      T4T3M
      000000C1H   SFRSYM    DATA     BYTE      WDT_CONTR
      000000DFH   SFRSYM    DATA     BYTE      IP3
      000000F4H   SFRSYM    DATA     BYTE      USBCON
      000000B5H   SFRSYM    DATA     BYTE      IP2
      000000FFH   SFRSYM    DATA     BYTE      RSTCFG
      000000C7H   SFRSYM    DATA     BYTE      IAP_CONTR
      000000F9H   SFRSYM    DATA     BYTE      LINICR
      0000008EH   SFRSYM    DATA     BYTE      AUXR
      000000AFH   SFRSYM    DATA     BYTE      IE2
      00000088H   SFRSYM    DATA     BYTE      TCON
      00000089H   SFRSYM    DATA     BYTE      TMOD
      00000098H   SFRSYM    DATA     BYTE      SCON
      000000F1H   SFRSYM    DATA     BYTE      CANICR
      00000087H   SFRSYM    DATA     BYTE      PCON
      000000BCH   SFRSYM    DATA     BYTE      ADC_CONTR
      000000E7H   SFRSYM    DATA     BYTE      CMPCR2
      000000E6H   SFRSYM    DATA     BYTE      CMPCR1
      000000DEH   SFRSYM    DATA     BYTE      ADCCFG
      000000B8H   SFRSYM    DATA     BYTE      IP
      0000008FH   SFRSYM    DATA     BYTE      INTCLKO
      000000EEH   SFRSYM    DATA     BYTE      IP3H
      000000B6H   SFRSYM    DATA     BYTE      IP2H
      000000A8H   SFRSYM    DATA     BYTE      IE
      000000BBH   SFRSYM    DATA     BYTE      P_SW3
      000000BAH   SFRSYM    DATA     BYTE      P_SW2
      000000A2H   SFRSYM    DATA     BYTE      P_SW1
      000000CEH   SFRSYM    DATA     BYTE      SPCTL
      000000F8H   SFRSYM    DATA     BYTE      P7
      000000E8H   SFRSYM    DATA     BYTE      P6
      000000C8H   SFRSYM    DATA     BYTE      P5
      000000C0H   SFRSYM    DATA     BYTE      P4
L251 LINKER/LOCATER V4.66.93.0                                                        03/26/2026  19:04:27  PAGE 55


      000000B0H   SFRSYM    DATA     BYTE      P3
      000000A0H   SFRSYM    DATA     BYTE      P2
      00000090H   SFRSYM    DATA     BYTE      P1
      00000080H   SFRSYM    DATA     BYTE      P0

      ---         MODULE    ---      ---       zf_common_interrupt
      00FF0006H   PUBLIC    CODE     ---       interrupt_global_disable
      00FF000EH   PUBLIC    CODE     ---       interrupt_global_enable
      000000D0H   SFRSYM    DATA     BYTE      PSW
      0000009DH   SFRSYM    DATA     BYTE      IRCBAND
      00000097H   SFRSYM    DATA     BYTE      AUXR2
      000000EFH   SFRSYM    DATA     BYTE      AUXINTIF
      000000FDH   SFRSYM    DATA     BYTE      S4CON
      000000ACH   SFRSYM    DATA     BYTE      S3CON
      0000009AH   SFRSYM    DATA     BYTE      S2CON
      000000B7H   SFRSYM    DATA     BYTE      IPH
      000000CDH   SFRSYM    DATA     BYTE      SPSTAT
      000000DDH   SFRSYM    DATA     BYTE      T4T3M
      000000C1H   SFRSYM    DATA     BYTE      WDT_CONTR
      000000DFH   SFRSYM    DATA     BYTE      IP3
      000000F4H   SFRSYM    DATA     BYTE      USBCON
      000000B5H   SFRSYM    DATA     BYTE      IP2
      000000FFH   SFRSYM    DATA     BYTE      RSTCFG
      000000C7H   SFRSYM    DATA     BYTE      IAP_CONTR
      000000F9H   SFRSYM    DATA     BYTE      LINICR
      0000008EH   SFRSYM    DATA     BYTE      AUXR
      000000AFH   SFRSYM    DATA     BYTE      IE2
      00000088H   SFRSYM    DATA     BYTE      TCON
      00000089H   SFRSYM    DATA     BYTE      TMOD
      00000098H   SFRSYM    DATA     BYTE      SCON
      000000F1H   SFRSYM    DATA     BYTE      CANICR
      00000087H   SFRSYM    DATA     BYTE      PCON
      000000BCH   SFRSYM    DATA     BYTE      ADC_CONTR
      000000E7H   SFRSYM    DATA     BYTE      CMPCR2
      000000E6H   SFRSYM    DATA     BYTE      CMPCR1
      000000DEH   SFRSYM    DATA     BYTE      ADCCFG
      000000B8H   SFRSYM    DATA     BYTE      IP
      0000008FH   SFRSYM    DATA     BYTE      INTCLKO
      000000EEH   SFRSYM    DATA     BYTE      IP3H
      000000B6H   SFRSYM    DATA     BYTE      IP2H
      000000A8H   SFRSYM    DATA     BYTE      IE
      000000BBH   SFRSYM    DATA     BYTE      P_SW3
      000000BAH   SFRSYM    DATA     BYTE      P_SW2
      000000A2H   SFRSYM    DATA     BYTE      P_SW1
      000000CEH   SFRSYM    DATA     BYTE      SPCTL
      000000F8H   SFRSYM    DATA     BYTE      P7
      000000A8H.7 SFRSYM    DATA     BIT       EA
      000000E8H   SFRSYM    DATA     BYTE      P6
      000000C8H   SFRSYM    DATA     BYTE      P5
      000000C0H   SFRSYM    DATA     BYTE      P4
      000000B0H   SFRSYM    DATA     BYTE      P3
      000000A0H   SFRSYM    DATA     BYTE      P2
      00000090H   SFRSYM    DATA     BYTE      P1
      00000080H   SFRSYM    DATA     BYTE      P0
      00011D91H   SYMBOL    XDATA    INT       irqn
      00011D93H   SYMBOL    XDATA    BYTE      priority

      00FF0006H   BLOCK     CODE     ---       LVL=0
      00FF0006H   LINE      CODE     ---       #75
      00FF0006H   LINE      CODE     ---       #77
      00FF0009H   LINE      CODE     ---       #78
      ---         BLOCKEND  ---      ---       LVL=0

      00FF000EH   BLOCK     CODE     ---       LVL=0
      00FF000EH   LINE      CODE     ---       #88
L251 LINKER/LOCATER V4.66.93.0                                                        03/26/2026  19:04:27  PAGE 56


      00FF000EH   LINE      CODE     ---       #90
      00FF0011H   LINE      CODE     ---       #91
      ---         BLOCKEND  ---      ---       LVL=0

      ---         MODULE    ---      ---       zf_driver_adc
      00FF8CBFH   PUBLIC    CODE     ---       adc_convert
      00FF7E8AH   PUBLIC    CODE     ---       adc_init
      00000094H   SFRSYM    DATA     BYTE      P0M0
      000000D0H   SFRSYM    DATA     BYTE      PSW
      0000009DH   SFRSYM    DATA     BYTE      IRCBAND
      00000097H   SFRSYM    DATA     BYTE      AUXR2
      000000EFH   SFRSYM    DATA     BYTE      AUXINTIF
      000000FDH   SFRSYM    DATA     BYTE      S4CON
      000000ACH   SFRSYM    DATA     BYTE      S3CON
      0000009AH   SFRSYM    DATA     BYTE      S2CON
      000000B7H   SFRSYM    DATA     BYTE      IPH
      000000CDH   SFRSYM    DATA     BYTE      SPSTAT
      000000BEH   SFRSYM    DATA     BYTE      ADC_RESL
      000000DDH   SFRSYM    DATA     BYTE      T4T3M
      000000C1H   SFRSYM    DATA     BYTE      WDT_CONTR
      000000DFH   SFRSYM    DATA     BYTE      IP3
      000000F4H   SFRSYM    DATA     BYTE      USBCON
      000000B5H   SFRSYM    DATA     BYTE      IP2
      000000FFH   SFRSYM    DATA     BYTE      RSTCFG
      000000C7H   SFRSYM    DATA     BYTE      IAP_CONTR
      000000F9H   SFRSYM    DATA     BYTE      LINICR
      0000008EH   SFRSYM    DATA     BYTE      AUXR
      000000AFH   SFRSYM    DATA     BYTE      IE2
      00000088H   SFRSYM    DATA     BYTE      TCON
      00000089H   SFRSYM    DATA     BYTE      TMOD
      00000098H   SFRSYM    DATA     BYTE      SCON
      000000F1H   SFRSYM    DATA     BYTE      CANICR
      00000087H   SFRSYM    DATA     BYTE      PCON
      000000BCH   SFRSYM    DATA     BYTE      ADC_CONTR
      000000E7H   SFRSYM    DATA     BYTE      CMPCR2
      000000E6H   SFRSYM    DATA     BYTE      CMPCR1
      000000DEH   SFRSYM    DATA     BYTE      ADCCFG
      000000B8H   SFRSYM    DATA     BYTE      IP
      0000008FH   SFRSYM    DATA     BYTE      INTCLKO
      000000EEH   SFRSYM    DATA     BYTE      IP3H
      000000B6H   SFRSYM    DATA     BYTE      IP2H
      000000BDH   SFRSYM    DATA     BYTE      ADC_RES
      000000A8H   SFRSYM    DATA     BYTE      IE
      000000BBH   SFRSYM    DATA     BYTE      P_SW3
      000000BAH   SFRSYM    DATA     BYTE      P_SW2
      000000A2H   SFRSYM    DATA     BYTE      P_SW1
      000000CEH   SFRSYM    DATA     BYTE      SPCTL
      000000F8H   SFRSYM    DATA     BYTE      P7
      000000E8H   SFRSYM    DATA     BYTE      P6
      000000C8H   SFRSYM    DATA     BYTE      P5
      000000C0H   SFRSYM    DATA     BYTE      P4
      000000B0H   SFRSYM    DATA     BYTE      P3
      000000A0H   SFRSYM    DATA     BYTE      P2
      00000090H   SFRSYM    DATA     BYTE      P1
      00000080H   SFRSYM    DATA     BYTE      P0
      00000091H   SFRSYM    DATA     BYTE      P1M1
      00000092H   SFRSYM    DATA     BYTE      P1M0
      00000093H   SFRSYM    DATA     BYTE      P0M1
      00011E02H   SYMBOL    XDATA    BYTE      adc_resolution
      00011AD1H   SYMBOL    XDATA    INT       ch
      00011AD3H   SYMBOL    XDATA    BYTE      count
      00011AD4H   SYMBOL    XDATA    BYTE      i
      00011AD5H   SYMBOL    XDATA    DWORD     sum

      00FF8CBFH   BLOCK     CODE     ---       LVL=0
L251 LINKER/LOCATER V4.66.93.0                                                        03/26/2026  19:04:27  PAGE 57


      00011D0DH   SYMBOL    XDATA    INT       ch
      00FF8CC5H   BLOCK     CODE     NEAR LAB  LVL=1
      00011D0FH   SYMBOL    XDATA    WORD      adc_value
      ---         BLOCKEND  ---      ---       LVL=1
      00FF8CBFH   LINE      CODE     ---       #75
      00FF8CC5H   LINE      CODE     ---       #76
      00FF8CC5H   LINE      CODE     ---       #79
      00FF8CC8H   LINE      CODE     ---       #80
      00FF8CD2H   LINE      CODE     ---       #82
      00FF8CD5H   LINE      CODE     ---       #84
      00FF8CDAH   LINE      CODE     ---       #86
      00FF8CDDH   LINE      CODE     ---       #88
      00FF8CE7H   LINE      CODE     ---       #89
      00FF8CF4H   LINE      CODE     ---       #90
      00FF8D03H   LINE      CODE     ---       #92
      00FF8D06H   LINE      CODE     ---       #93
      00FF8D09H   LINE      CODE     ---       #95
      00FF8D1DH   LINE      CODE     ---       #98
      00FF8D23H   LINE      CODE     ---       #99
      ---         BLOCKEND  ---      ---       LVL=0

      00FF7E8AH   BLOCK     CODE     ---       LVL=0
      00011D11H   SYMBOL    XDATA    INT       ch
      00011D13H   SYMBOL    XDATA    INT       resolution
      00FF7E8AH   LINE      CODE     ---       #108
      00FF7E96H   LINE      CODE     ---       #110
      00FF7E99H   LINE      CODE     ---       #112
      00FF7E9CH   LINE      CODE     ---       #113
      00FF7EA6H   LINE      CODE     ---       #115
      00FF7EBAH   LINE      CODE     ---       #118
      00FF7ED7H   LINE      CODE     ---       #119
      00FF7EF2H   LINE      CODE     ---       #120
      00FF7EF4H   LINE      CODE     ---       #121
      00FF7F06H   LINE      CODE     ---       #124
      00FF7F23H   LINE      CODE     ---       #125
      00FF7F3EH   LINE      CODE     ---       #126
      00FF7F3EH   LINE      CODE     ---       #128
      00FF7F41H   LINE      CODE     ---       #130
      00FF7F44H   LINE      CODE     ---       #132
      00FF7F4EH   LINE      CODE     ---       #133
      ---         BLOCKEND  ---      ---       LVL=0

      ---         MODULE    ---      ---       zf_driver_delay
      00FF8E9EH   PUBLIC    CODE     ---       system_delay_init
      00FF9451H   PUBLIC    CODE     ---       system_delay_ms
      000000D0H   SFRSYM    DATA     BYTE      PSW
      0000009DH   SFRSYM    DATA     BYTE      IRCBAND
      00000097H   SFRSYM    DATA     BYTE      AUXR2
      000000EFH   SFRSYM    DATA     BYTE      AUXINTIF
      000000FDH   SFRSYM    DATA     BYTE      S4CON
      000000ACH   SFRSYM    DATA     BYTE      S3CON
      0000009AH   SFRSYM    DATA     BYTE      S2CON
      000000B7H   SFRSYM    DATA     BYTE      IPH
      000000CDH   SFRSYM    DATA     BYTE      SPSTAT
      000000DDH   SFRSYM    DATA     BYTE      T4T3M
      000000C1H   SFRSYM    DATA     BYTE      WDT_CONTR
      000000DFH   SFRSYM    DATA     BYTE      IP3
      000000F4H   SFRSYM    DATA     BYTE      USBCON
      000000B5H   SFRSYM    DATA     BYTE      IP2
      000000FFH   SFRSYM    DATA     BYTE      RSTCFG
      000000C7H   SFRSYM    DATA     BYTE      IAP_CONTR
      000000F9H   SFRSYM    DATA     BYTE      LINICR
      0000008EH   SFRSYM    DATA     BYTE      AUXR
      000000AFH   SFRSYM    DATA     BYTE      IE2
      00000088H   SFRSYM    DATA     BYTE      TCON
L251 LINKER/LOCATER V4.66.93.0                                                        03/26/2026  19:04:27  PAGE 58


      00000089H   SFRSYM    DATA     BYTE      TMOD
      00000098H   SFRSYM    DATA     BYTE      SCON
      000000F1H   SFRSYM    DATA     BYTE      CANICR
      00000087H   SFRSYM    DATA     BYTE      PCON
      000000BCH   SFRSYM    DATA     BYTE      ADC_CONTR
      000000E7H   SFRSYM    DATA     BYTE      CMPCR2
      000000E6H   SFRSYM    DATA     BYTE      CMPCR1
      000000DEH   SFRSYM    DATA     BYTE      ADCCFG
      000000B8H   SFRSYM    DATA     BYTE      IP
      0000008FH   SFRSYM    DATA     BYTE      INTCLKO
      000000EEH   SFRSYM    DATA     BYTE      IP3H
      000000B6H   SFRSYM    DATA     BYTE      IP2H
      000000A8H   SFRSYM    DATA     BYTE      IE
      000000BBH   SFRSYM    DATA     BYTE      P_SW3
      000000BAH   SFRSYM    DATA     BYTE      P_SW2
      000000A2H   SFRSYM    DATA     BYTE      P_SW1
      000000CEH   SFRSYM    DATA     BYTE      SPCTL
      000000F8H   SFRSYM    DATA     BYTE      P7
      000000E8H   SFRSYM    DATA     BYTE      P6
      000000C8H   SFRSYM    DATA     BYTE      P5
      000000C0H   SFRSYM    DATA     BYTE      P4
      000000B0H   SFRSYM    DATA     BYTE      P3
      000000A0H   SFRSYM    DATA     BYTE      P2
      00000090H   SFRSYM    DATA     BYTE      P1
      00000080H   SFRSYM    DATA     BYTE      P0
      00FF954AH   SYMBOL    CODE     ---       delay_cycles
      00011D15H   SYMBOL    XDATA    WORD      zf_delay_1ms
      00011D17H   SYMBOL    XDATA    WORD      zf_delay_1us

      00FF954AH   BLOCK     CODE     ---       LVL=0
      00011DB5H   SYMBOL    XDATA    WORD      cycles
      00FF954AH   LINE      CODE     ---       #44
      00FF9550H   LINE      CODE     ---       #47
      00FF9550H   LINE      CODE     ---       #50
      00FF9567H   LINE      CODE     ---       #51
      ---         BLOCKEND  ---      ---       LVL=0

      00FF8E9EH   BLOCK     CODE     ---       LVL=0
      00FF8E9EH   LINE      CODE     ---       #59
      00FF8E9EH   LINE      CODE     ---       #61
      00FF8EB5H   LINE      CODE     ---       #62
      00FF8ED0H   LINE      CODE     ---       #63
      00FF8EF5H   LINE      CODE     ---       #64
      ---         BLOCKEND  ---      ---       LVL=0

      00FF9451H   BLOCK     CODE     ---       LVL=0
      00011DB7H   SYMBOL    XDATA    WORD      ms
      00FF9451H   LINE      CODE     ---       #72
      00FF9457H   LINE      CODE     ---       #74
      00FF9457H   LINE      CODE     ---       #76
      00FF9460H   LINE      CODE     ---       #77
      00FF9475H   LINE      CODE     ---       #78
      ---         BLOCKEND  ---      ---       LVL=0
      00011DB9H   SYMBOL    XDATA    WORD      us

      ---         MODULE    ---      ---       zf_driver_eeprom
      00011923H   PUBLIC    XDATA    BYTE      ?iap_read_buff?BYTE
      0001192DH   PUBLIC    XDATA    BYTE      ?iap_write_buff?BYTE
      000000D0H   SFRSYM    DATA     BYTE      PSW
      0000009DH   SFRSYM    DATA     BYTE      IRCBAND
      00000097H   SFRSYM    DATA     BYTE      AUXR2
      000000C6H   SFRSYM    DATA     BYTE      IAP_TRIG
      000000EFH   SFRSYM    DATA     BYTE      AUXINTIF
      000000FDH   SFRSYM    DATA     BYTE      S4CON
      000000ACH   SFRSYM    DATA     BYTE      S3CON
L251 LINKER/LOCATER V4.66.93.0                                                        03/26/2026  19:04:27  PAGE 59


      0000009AH   SFRSYM    DATA     BYTE      S2CON
      000000B7H   SFRSYM    DATA     BYTE      IPH
      000000CDH   SFRSYM    DATA     BYTE      SPSTAT
      000000DDH   SFRSYM    DATA     BYTE      T4T3M
      000000C1H   SFRSYM    DATA     BYTE      WDT_CONTR
      000000C2H   SFRSYM    DATA     BYTE      IAP_DATA
      000000DFH   SFRSYM    DATA     BYTE      IP3
      000000F4H   SFRSYM    DATA     BYTE      USBCON
      000000B5H   SFRSYM    DATA     BYTE      IP2
      000000FFH   SFRSYM    DATA     BYTE      RSTCFG
      000000C7H   SFRSYM    DATA     BYTE      IAP_CONTR
      000000F9H   SFRSYM    DATA     BYTE      LINICR
      0000008EH   SFRSYM    DATA     BYTE      AUXR
      000000AFH   SFRSYM    DATA     BYTE      IE2
      00000088H   SFRSYM    DATA     BYTE      TCON
      00000089H   SFRSYM    DATA     BYTE      TMOD
      00000098H   SFRSYM    DATA     BYTE      SCON
      000000F5H   SFRSYM    DATA     BYTE      IAP_TPS
      000000F1H   SFRSYM    DATA     BYTE      CANICR
      00000087H   SFRSYM    DATA     BYTE      PCON
      000000BCH   SFRSYM    DATA     BYTE      ADC_CONTR
      000000E7H   SFRSYM    DATA     BYTE      CMPCR2
      000000E6H   SFRSYM    DATA     BYTE      CMPCR1
      000000C4H   SFRSYM    DATA     BYTE      IAP_ADDRL
      000000C3H   SFRSYM    DATA     BYTE      IAP_ADDRH
      000000F6H   SFRSYM    DATA     BYTE      IAP_ADDRE
      000000DEH   SFRSYM    DATA     BYTE      ADCCFG
      000000B8H   SFRSYM    DATA     BYTE      IP
      0000008FH   SFRSYM    DATA     BYTE      INTCLKO
      000000EEH   SFRSYM    DATA     BYTE      IP3H
      000000B6H   SFRSYM    DATA     BYTE      IP2H
      000000C5H   SFRSYM    DATA     BYTE      IAP_CMD
      000000A8H   SFRSYM    DATA     BYTE      IE
      000000BBH   SFRSYM    DATA     BYTE      P_SW3
      000000BAH   SFRSYM    DATA     BYTE      P_SW2
      000000A2H   SFRSYM    DATA     BYTE      P_SW1
      000000CEH   SFRSYM    DATA     BYTE      SPCTL
      000000F8H   SFRSYM    DATA     BYTE      P7
      000000A8H.7 SFRSYM    DATA     BIT       EA
      000000E8H   SFRSYM    DATA     BYTE      P6
      000000C8H   SFRSYM    DATA     BYTE      P5
      000000C0H   SFRSYM    DATA     BYTE      P4
      000000B0H   SFRSYM    DATA     BYTE      P3
      000000A0H   SFRSYM    DATA     BYTE      P2
      00000090H   SFRSYM    DATA     BYTE      P1
      00000080H   SFRSYM    DATA     BYTE      P0
      00FF9AACH   SYMBOL    HCONST   ---       ?tpl?0001
      00011E03H   SYMBOL    XDATA    BYTE      write_time
      00011C95H   SYMBOL    XDATA    DWORD     addr
      00011C99H   SYMBOL    XDATA    BYTE      temp
      00000020H.0 SYMBOL    BIT      BIT       flag
      00011C9AH   SYMBOL    XDATA    DWORD     addr
      00011C9EH   SYMBOL    XDATA    BYTE      byte
      00000020H.1 SYMBOL    BIT      BIT       flag
      00011923H   SYMBOL    XDATA    DWORD     addr
      00011927H   SYMBOL    XDATA    ---       buf
      0001192BH   SYMBOL    XDATA    WORD      len
      0001192DH   SYMBOL    XDATA    DWORD     addr
      00011931H   SYMBOL    XDATA    ---       buf
      00011935H   SYMBOL    XDATA    WORD      len
      00011D19H   SYMBOL    XDATA    DWORD     addr
      00000020H.2 SYMBOL    BIT      BIT       flag
      00010000H   SYMBOL    XDATA    WORD      addr
      00010002H   SYMBOL    XDATA    ---       buf
      00010006H   SYMBOL    XDATA    WORD      len
L251 LINKER/LOCATER V4.66.93.0                                                        03/26/2026  19:04:27  PAGE 60


      00010008H   SYMBOL    XDATA    ---       temp
      00010208H   SYMBOL    XDATA    WORD      i

      ---         MODULE    ---      ---       zf_driver_encoder
      000000D0H   SFRSYM    DATA     BYTE      PSW
      0000009DH   SFRSYM    DATA     BYTE      IRCBAND
      00000097H   SFRSYM    DATA     BYTE      AUXR2
      000000EFH   SFRSYM    DATA     BYTE      AUXINTIF
      000000FDH   SFRSYM    DATA     BYTE      S4CON
      000000ACH   SFRSYM    DATA     BYTE      S3CON
      0000009AH   SFRSYM    DATA     BYTE      S2CON
      000000B7H   SFRSYM    DATA     BYTE      IPH
      000000CDH   SFRSYM    DATA     BYTE      SPSTAT
      000000DDH   SFRSYM    DATA     BYTE      T4T3M
      000000C1H   SFRSYM    DATA     BYTE      WDT_CONTR
      00000088H.6 SFRSYM    DATA     BIT       TR1
      00000088H.4 SFRSYM    DATA     BIT       TR0
      000000D3H   SFRSYM    DATA     BYTE      T4L
      000000D5H   SFRSYM    DATA     BYTE      T3L
      000000D7H   SFRSYM    DATA     BYTE      T2L
      0000008BH   SFRSYM    DATA     BYTE      TL1
      0000008AH   SFRSYM    DATA     BYTE      TL0
      000000D2H   SFRSYM    DATA     BYTE      T4H
      000000D4H   SFRSYM    DATA     BYTE      T3H
      000000D6H   SFRSYM    DATA     BYTE      T2H
      0000008DH   SFRSYM    DATA     BYTE      TH1
      0000008CH   SFRSYM    DATA     BYTE      TH0
      000000DFH   SFRSYM    DATA     BYTE      IP3
      000000F4H   SFRSYM    DATA     BYTE      USBCON
      000000B5H   SFRSYM    DATA     BYTE      IP2
      000000FFH   SFRSYM    DATA     BYTE      RSTCFG
      000000C7H   SFRSYM    DATA     BYTE      IAP_CONTR
      000000F9H   SFRSYM    DATA     BYTE      LINICR
      0000008EH   SFRSYM    DATA     BYTE      AUXR
      000000AFH   SFRSYM    DATA     BYTE      IE2
      00000088H   SFRSYM    DATA     BYTE      TCON
      00000089H   SFRSYM    DATA     BYTE      TMOD
      00000098H   SFRSYM    DATA     BYTE      SCON
      000000F1H   SFRSYM    DATA     BYTE      CANICR
      00000087H   SFRSYM    DATA     BYTE      PCON
      000000BCH   SFRSYM    DATA     BYTE      ADC_CONTR
      000000E7H   SFRSYM    DATA     BYTE      CMPCR2
      000000E6H   SFRSYM    DATA     BYTE      CMPCR1
      000000DEH   SFRSYM    DATA     BYTE      ADCCFG
      000000B8H   SFRSYM    DATA     BYTE      IP
      0000008FH   SFRSYM    DATA     BYTE      INTCLKO
      000000EEH   SFRSYM    DATA     BYTE      IP3H
      000000B6H   SFRSYM    DATA     BYTE      IP2H
      000000A8H   SFRSYM    DATA     BYTE      IE
      000000BBH   SFRSYM    DATA     BYTE      P_SW3
      000000BAH   SFRSYM    DATA     BYTE      P_SW2
      000000A2H   SFRSYM    DATA     BYTE      P_SW1
      000000CEH   SFRSYM    DATA     BYTE      SPCTL
      000000F8H   SFRSYM    DATA     BYTE      P7
      000000E8H   SFRSYM    DATA     BYTE      P6
      000000C8H   SFRSYM    DATA     BYTE      P5
      000000C0H   SFRSYM    DATA     BYTE      P4
      000000B0H   SFRSYM    DATA     BYTE      P3
      000000A0H   SFRSYM    DATA     BYTE      P2
      00000090H   SFRSYM    DATA     BYTE      P1
      00000080H   SFRSYM    DATA     BYTE      P0
      00011BC9H   SYMBOL    XDATA    ---       encoder_dir_pin
      00011D1DH   SYMBOL    XDATA    INT       encoder_n
      00011D1FH   SYMBOL    XDATA    INT       dat
      00011DBBH   SYMBOL    XDATA    INT       encoder_n
L251 LINKER/LOCATER V4.66.93.0                                                        03/26/2026  19:04:27  PAGE 61


      00011BCFH   SYMBOL    XDATA    INT       encoder_n
      00011BD1H   SYMBOL    XDATA    INT       dir_pin
      00011BD3H   SYMBOL    XDATA    INT       lsb_pin

      ---         MODULE    ---      ---       zf_driver_exti
      000000D0H   SFRSYM    DATA     BYTE      PSW
      0000009DH   SFRSYM    DATA     BYTE      IRCBAND
      00000097H   SFRSYM    DATA     BYTE      AUXR2
      000000EFH   SFRSYM    DATA     BYTE      AUXINTIF
      000000FDH   SFRSYM    DATA     BYTE      S4CON
      000000ACH   SFRSYM    DATA     BYTE      S3CON
      0000009AH   SFRSYM    DATA     BYTE      S2CON
      000000B7H   SFRSYM    DATA     BYTE      IPH
      000000CDH   SFRSYM    DATA     BYTE      SPSTAT
      000000DDH   SFRSYM    DATA     BYTE      T4T3M
      000000C1H   SFRSYM    DATA     BYTE      WDT_CONTR
      0000008FH.6 SFRSYM    DATA     BIT       EX4
      0000008FH.5 SFRSYM    DATA     BIT       EX3
      0000008FH.4 SFRSYM    DATA     BIT       EX2
      00000088H.2 SFRSYM    DATA     BIT       IT1
      000000A8H.2 SFRSYM    DATA     BIT       EX1
      00000088H.0 SFRSYM    DATA     BIT       IT0
      000000A8H.0 SFRSYM    DATA     BIT       EX0
      000000DFH   SFRSYM    DATA     BYTE      IP3
      000000F4H   SFRSYM    DATA     BYTE      USBCON
      000000B5H   SFRSYM    DATA     BYTE      IP2
      000000FFH   SFRSYM    DATA     BYTE      RSTCFG
      000000C7H   SFRSYM    DATA     BYTE      IAP_CONTR
      000000F9H   SFRSYM    DATA     BYTE      LINICR
      0000008EH   SFRSYM    DATA     BYTE      AUXR
      000000AFH   SFRSYM    DATA     BYTE      IE2
      00000088H   SFRSYM    DATA     BYTE      TCON
      00000089H   SFRSYM    DATA     BYTE      TMOD
      00000098H   SFRSYM    DATA     BYTE      SCON
      000000F1H   SFRSYM    DATA     BYTE      CANICR
      00000087H   SFRSYM    DATA     BYTE      PCON
      000000BCH   SFRSYM    DATA     BYTE      ADC_CONTR
      000000E7H   SFRSYM    DATA     BYTE      CMPCR2
      000000E6H   SFRSYM    DATA     BYTE      CMPCR1
      000000DEH   SFRSYM    DATA     BYTE      ADCCFG
      000000B8H   SFRSYM    DATA     BYTE      IP
      0000008FH   SFRSYM    DATA     BYTE      INTCLKO
      000000EEH   SFRSYM    DATA     BYTE      IP3H
      000000B6H   SFRSYM    DATA     BYTE      IP2H
      000000A8H   SFRSYM    DATA     BYTE      IE
      000000BBH   SFRSYM    DATA     BYTE      P_SW3
      000000BAH   SFRSYM    DATA     BYTE      P_SW2
      000000A2H   SFRSYM    DATA     BYTE      P_SW1
      000000CEH   SFRSYM    DATA     BYTE      SPCTL
      000000F8H   SFRSYM    DATA     BYTE      P7
      000000E8H   SFRSYM    DATA     BYTE      P6
      000000C8H   SFRSYM    DATA     BYTE      P5
      000000C0H   SFRSYM    DATA     BYTE      P4
      000000B0H   SFRSYM    DATA     BYTE      P3
      000000A0H   SFRSYM    DATA     BYTE      P2
      00000090H   SFRSYM    DATA     BYTE      P1
      00000080H   SFRSYM    DATA     BYTE      P0
      00011DBDH   SYMBOL    XDATA    INT       eru_pin
      00011DBFH   SYMBOL    XDATA    INT       eru_pin
      00011D21H   SYMBOL    XDATA    INT       eru_pin
      00011D23H   SYMBOL    XDATA    INT       trigger

      ---         MODULE    ---      ---       zf_driver_gpio
      00FF76E9H   PUBLIC    CODE     ---       gpio_init
      00FF6EC6H   PUBLIC    CODE     ---       gpio_get_level
L251 LINKER/LOCATER V4.66.93.0                                                        03/26/2026  19:04:27  PAGE 62


      00FF4F85H   PUBLIC    CODE     ---       gpio_set_level_speed
      00FF5FFFH   PUBLIC    CODE     ---       gpio_set_level
      00FF69DAH   PUBLIC    CODE     ---       gpio_set_impedance
      00000094H   SFRSYM    DATA     BYTE      P0M0
      000000D0H   SFRSYM    DATA     BYTE      PSW
      0000009DH   SFRSYM    DATA     BYTE      IRCBAND
      00000097H   SFRSYM    DATA     BYTE      AUXR2
      000000EFH   SFRSYM    DATA     BYTE      AUXINTIF
      000000FDH   SFRSYM    DATA     BYTE      S4CON
      000000ACH   SFRSYM    DATA     BYTE      S3CON
      0000009AH   SFRSYM    DATA     BYTE      S2CON
      000000B7H   SFRSYM    DATA     BYTE      IPH
      000000CDH   SFRSYM    DATA     BYTE      SPSTAT
      000000DDH   SFRSYM    DATA     BYTE      T4T3M
      000000C1H   SFRSYM    DATA     BYTE      WDT_CONTR
      000000DFH   SFRSYM    DATA     BYTE      IP3
      000000F4H   SFRSYM    DATA     BYTE      USBCON
      000000B5H   SFRSYM    DATA     BYTE      IP2
      000000FFH   SFRSYM    DATA     BYTE      RSTCFG
      000000C7H   SFRSYM    DATA     BYTE      IAP_CONTR
      000000F9H   SFRSYM    DATA     BYTE      LINICR
      0000008EH   SFRSYM    DATA     BYTE      AUXR
      000000AFH   SFRSYM    DATA     BYTE      IE2
      00000088H   SFRSYM    DATA     BYTE      TCON
      00000089H   SFRSYM    DATA     BYTE      TMOD
      00000098H   SFRSYM    DATA     BYTE      SCON
      000000F1H   SFRSYM    DATA     BYTE      CANICR
      00000087H   SFRSYM    DATA     BYTE      PCON
      000000BCH   SFRSYM    DATA     BYTE      ADC_CONTR
      000000E7H   SFRSYM    DATA     BYTE      CMPCR2
      000000E6H   SFRSYM    DATA     BYTE      CMPCR1
      000000DEH   SFRSYM    DATA     BYTE      ADCCFG
      000000B8H   SFRSYM    DATA     BYTE      IP
      0000008FH   SFRSYM    DATA     BYTE      INTCLKO
      000000EEH   SFRSYM    DATA     BYTE      IP3H
      000000B6H   SFRSYM    DATA     BYTE      IP2H
      000000A8H   SFRSYM    DATA     BYTE      IE
      000000BBH   SFRSYM    DATA     BYTE      P_SW3
      000000BAH   SFRSYM    DATA     BYTE      P_SW2
      000000A2H   SFRSYM    DATA     BYTE      P_SW1
      000000CEH   SFRSYM    DATA     BYTE      SPCTL
      000000F8H   SFRSYM    DATA     BYTE      P7
      000000E1H   SFRSYM    DATA     BYTE      P7M1
      000000E8H   SFRSYM    DATA     BYTE      P6
      000000C8H   SFRSYM    DATA     BYTE      P5
      000000CBH   SFRSYM    DATA     BYTE      P6M1
      000000E2H   SFRSYM    DATA     BYTE      P7M0
      000000C0H   SFRSYM    DATA     BYTE      P4
      000000C9H   SFRSYM    DATA     BYTE      P5M1
      000000CCH   SFRSYM    DATA     BYTE      P6M0
      000000B0H   SFRSYM    DATA     BYTE      P3
      000000B3H   SFRSYM    DATA     BYTE      P4M1
      000000CAH   SFRSYM    DATA     BYTE      P5M0
      000000A0H   SFRSYM    DATA     BYTE      P2
      000000B1H   SFRSYM    DATA     BYTE      P3M1
      000000B4H   SFRSYM    DATA     BYTE      P4M0
      00000090H   SFRSYM    DATA     BYTE      P1
      00000095H   SFRSYM    DATA     BYTE      P2M1
      000000B2H   SFRSYM    DATA     BYTE      P3M0
      00000080H   SFRSYM    DATA     BYTE      P0
      00000091H   SFRSYM    DATA     BYTE      P1M1
      00000096H   SFRSYM    DATA     BYTE      P2M0
      00000092H   SFRSYM    DATA     BYTE      P1M0
      00000093H   SFRSYM    DATA     BYTE      P0M1
      00FF4528H   SYMBOL    CODE     ---       gpio_set_dir
L251 LINKER/LOCATER V4.66.93.0                                                        03/26/2026  19:04:27  PAGE 63


      00FF5589H   SYMBOL    CODE     ---       gpio_set_mode

      00FF5589H   BLOCK     CODE     ---       LVL=0
      00011D25H   SYMBOL    XDATA    INT       pin
      00011D27H   SYMBOL    XDATA    INT       mode
      00FF5589H   LINE      CODE     ---       #42
      00FF5595H   LINE      CODE     ---       #47
      00FF55B1H   LINE      CODE     ---       #49
      00FF55F0H   LINE      CODE     ---       #51
      00FF55F3H   LINE      CODE     ---       #56
      00FF560FH   LINE      CODE     ---       #58
      00FF564CH   LINE      CODE     ---       #59
      00FF564FH   LINE      CODE     ---       #60
      00FF5660H   LINE      CODE     ---       #63
      00FF56B1H   LINE      CODE     ---       #65
      00FF56B1H   LINE      CODE     ---       #66
      00FF56CCH   LINE      CODE     ---       #67
      00FF56E7H   LINE      CODE     ---       #68
      00FF56EAH   LINE      CODE     ---       #69
      00FF56EAH   LINE      CODE     ---       #70
      00FF5705H   LINE      CODE     ---       #71
      00FF5720H   LINE      CODE     ---       #72
      00FF5723H   LINE      CODE     ---       #73
      00FF5723H   LINE      CODE     ---       #74
      00FF573EH   LINE      CODE     ---       #75
      00FF5759H   LINE      CODE     ---       #76
      00FF575CH   LINE      CODE     ---       #77
      00FF575CH   LINE      CODE     ---       #78
      00FF5777H   LINE      CODE     ---       #79
      00FF5792H   LINE      CODE     ---       #80
      00FF5795H   LINE      CODE     ---       #81
      00FF5795H   LINE      CODE     ---       #82
      00FF57B0H   LINE      CODE     ---       #83
      00FF57CBH   LINE      CODE     ---       #84
      00FF57CEH   LINE      CODE     ---       #85
      00FF57CEH   LINE      CODE     ---       #86
      00FF57E9H   LINE      CODE     ---       #87
      00FF5804H   LINE      CODE     ---       #88
      00FF5806H   LINE      CODE     ---       #89
      00FF5806H   LINE      CODE     ---       #90
      00FF5821H   LINE      CODE     ---       #91
      00FF583CH   LINE      CODE     ---       #92
      00FF583EH   LINE      CODE     ---       #93
      00FF583EH   LINE      CODE     ---       #94
      00FF5859H   LINE      CODE     ---       #95
      00FF5874H   LINE      CODE     ---       #96
      00FF5874H   LINE      CODE     ---       #97
      00FF5874H   LINE      CODE     ---       #98
      00FF5874H   LINE      CODE     ---       #99
      00FF5874H   LINE      CODE     ---       #100
      00FF5874H   LINE      CODE     ---       #104
      00FF5874H   LINE      CODE     ---       #105
      ---         BLOCKEND  ---      ---       LVL=0

      00FF4F85H   BLOCK     CODE     ---       LVL=0
      00011BD5H   SYMBOL    XDATA    INT       pin
      00011BD7H   SYMBOL    XDATA    INT       speed
      00FF4F91H   BLOCK     CODE     NEAR LAB  LVL=1
      00011BD9H   SYMBOL    XDATA    BYTE      pin_bit
      00011BDAH   SYMBOL    XDATA    BYTE      port_flag
      ---         BLOCKEND  ---      ---       LVL=1
      00FF4F85H   LINE      CODE     ---       #108
      00FF4F91H   LINE      CODE     ---       #109
      00FF4F91H   LINE      CODE     ---       #111
      00FF4FA1H   LINE      CODE     ---       #112
L251 LINKER/LOCATER V4.66.93.0                                                        03/26/2026  19:04:27  PAGE 64


      00FF4FB1H   LINE      CODE     ---       #115
      00FF4FEDH   LINE      CODE     ---       #117
      00FF4FEDH   LINE      CODE     ---       #119
      00FF5040H   LINE      CODE     ---       #120
      00FF5043H   LINE      CODE     ---       #121
      00FF5043H   LINE      CODE     ---       #122
      00FF5096H   LINE      CODE     ---       #123
      00FF5099H   LINE      CODE     ---       #124
      00FF5099H   LINE      CODE     ---       #125
      00FF50ECH   LINE      CODE     ---       #126
      00FF50EFH   LINE      CODE     ---       #127
      00FF50EFH   LINE      CODE     ---       #128
      00FF5142H   LINE      CODE     ---       #129
      00FF5145H   LINE      CODE     ---       #130
      00FF5145H   LINE      CODE     ---       #131
      00FF5198H   LINE      CODE     ---       #132
      00FF519BH   LINE      CODE     ---       #133
      00FF519BH   LINE      CODE     ---       #134
      00FF51EEH   LINE      CODE     ---       #135
      00FF51F1H   LINE      CODE     ---       #136
      00FF51F1H   LINE      CODE     ---       #137
      00FF5243H   LINE      CODE     ---       #138
      00FF5245H   LINE      CODE     ---       #139
      00FF5245H   LINE      CODE     ---       #140
      00FF5297H   LINE      CODE     ---       #141
      00FF5297H   LINE      CODE     ---       #142
      00FF5297H   LINE      CODE     ---       #144
      00FF5297H   LINE      CODE     ---       #145
      00FF5297H   LINE      CODE     ---       #146
      ---         BLOCKEND  ---      ---       LVL=0

      00FF4528H   BLOCK     CODE     ---       LVL=0
      00011D29H   SYMBOL    XDATA    INT       pin
      00011D2BH   SYMBOL    XDATA    INT       dir
      00FF4528H   LINE      CODE     ---       #150
      00FF4534H   LINE      CODE     ---       #152
      00FF4588H   LINE      CODE     ---       #154
      00FF4588H   LINE      CODE     ---       #156
      00FF45A2H   LINE      CODE     ---       #158
      00FF45BFH   LINE      CODE     ---       #159
      00FF45DCH   LINE      CODE     ---       #160
      00FF45DFH   LINE      CODE     ---       #166
      00FF45F0H   LINE      CODE     ---       #168
      00FF460DH   LINE      CODE     ---       #169
      00FF4628H   LINE      CODE     ---       #170
      00FF4628H   LINE      CODE     ---       #172
      00FF462BH   LINE      CODE     ---       #174
      00FF462BH   LINE      CODE     ---       #176
      00FF4645H   LINE      CODE     ---       #178
      00FF4662H   LINE      CODE     ---       #179
      00FF467FH   LINE      CODE     ---       #180
      00FF4682H   LINE      CODE     ---       #186
      00FF4693H   LINE      CODE     ---       #188
      00FF46B0H   LINE      CODE     ---       #189
      00FF46CBH   LINE      CODE     ---       #190
      00FF46CBH   LINE      CODE     ---       #192
      00FF46CEH   LINE      CODE     ---       #194
      00FF46CEH   LINE      CODE     ---       #196
      00FF46E8H   LINE      CODE     ---       #198
      00FF4705H   LINE      CODE     ---       #199
      00FF4722H   LINE      CODE     ---       #200
      00FF4725H   LINE      CODE     ---       #206
      00FF4736H   LINE      CODE     ---       #208
      00FF4753H   LINE      CODE     ---       #209
      00FF476EH   LINE      CODE     ---       #210
L251 LINKER/LOCATER V4.66.93.0                                                        03/26/2026  19:04:27  PAGE 65


      00FF476EH   LINE      CODE     ---       #212
      00FF4771H   LINE      CODE     ---       #214
      00FF4771H   LINE      CODE     ---       #216
      00FF478BH   LINE      CODE     ---       #218
      00FF47A8H   LINE      CODE     ---       #219
      00FF47C5H   LINE      CODE     ---       #220
      00FF47C8H   LINE      CODE     ---       #226
      00FF47D9H   LINE      CODE     ---       #228
      00FF47F6H   LINE      CODE     ---       #229
      00FF4811H   LINE      CODE     ---       #230
      00FF4811H   LINE      CODE     ---       #232
      00FF4814H   LINE      CODE     ---       #234
      00FF4814H   LINE      CODE     ---       #236
      00FF482EH   LINE      CODE     ---       #238
      00FF484BH   LINE      CODE     ---       #239
      00FF4868H   LINE      CODE     ---       #240
      00FF486BH   LINE      CODE     ---       #246
      00FF487CH   LINE      CODE     ---       #248
      00FF4899H   LINE      CODE     ---       #249
      00FF48B4H   LINE      CODE     ---       #250
      00FF48B4H   LINE      CODE     ---       #252
      00FF48B7H   LINE      CODE     ---       #254
      00FF48B7H   LINE      CODE     ---       #256
      00FF48D1H   LINE      CODE     ---       #258
      00FF48EEH   LINE      CODE     ---       #259
      00FF490BH   LINE      CODE     ---       #260
      00FF490EH   LINE      CODE     ---       #266
      00FF491FH   LINE      CODE     ---       #268
      00FF493CH   LINE      CODE     ---       #269
      00FF4957H   LINE      CODE     ---       #270
      00FF4957H   LINE      CODE     ---       #272
      00FF495AH   LINE      CODE     ---       #274
      00FF495AH   LINE      CODE     ---       #276
      00FF4974H   LINE      CODE     ---       #278
      00FF4991H   LINE      CODE     ---       #279
      00FF49AEH   LINE      CODE     ---       #280
      00FF49B1H   LINE      CODE     ---       #286
      00FF49C2H   LINE      CODE     ---       #288
      00FF49DFH   LINE      CODE     ---       #289
      00FF49FAH   LINE      CODE     ---       #290
      00FF49FAH   LINE      CODE     ---       #292
      00FF49FDH   LINE      CODE     ---       #294
      00FF49FDH   LINE      CODE     ---       #296
      00FF4A17H   LINE      CODE     ---       #298
      00FF4A34H   LINE      CODE     ---       #299
      00FF4A51H   LINE      CODE     ---       #300
      00FF4A53H   LINE      CODE     ---       #306
      00FF4A61H   LINE      CODE     ---       #308
      00FF4A7EH   LINE      CODE     ---       #309
      00FF4A99H   LINE      CODE     ---       #310
      00FF4A99H   LINE      CODE     ---       #313
      00FF4A9BH   LINE      CODE     ---       #315
      00FF4A9BH   LINE      CODE     ---       #317
      00FF4AABH   LINE      CODE     ---       #319
      00FF4AABH   LINE      CODE     ---       #320
      00FF4AABH   LINE      CODE     ---       #321
      ---         BLOCKEND  ---      ---       LVL=0

      00FF6EC6H   BLOCK     CODE     ---       LVL=0
      00011C9FH   SYMBOL    XDATA    INT       pin
      00FF6ECCH   BLOCK     CODE     NEAR LAB  LVL=1
      00011CA1H   SYMBOL    XDATA    BYTE      pin_bit
      00011CA2H   SYMBOL    XDATA    BYTE      port_flag
      00011CA3H   SYMBOL    XDATA    BYTE      status
      ---         BLOCKEND  ---      ---       LVL=1
L251 LINKER/LOCATER V4.66.93.0                                                        03/26/2026  19:04:27  PAGE 66


      00FF6EC6H   LINE      CODE     ---       #329
      00FF6ECCH   LINE      CODE     ---       #330
      00FF6ECCH   LINE      CODE     ---       #331
      00FF6EDCH   LINE      CODE     ---       #332
      00FF6EECH   LINE      CODE     ---       #333
      00FF6EF1H   LINE      CODE     ---       #336
      00FF6F24H   LINE      CODE     ---       #338
      00FF6F40H   LINE      CODE     ---       #339
      00FF6F5CH   LINE      CODE     ---       #340
      00FF6F78H   LINE      CODE     ---       #341
      00FF6F93H   LINE      CODE     ---       #342
      00FF6FAEH   LINE      CODE     ---       #343
      00FF6FC9H   LINE      CODE     ---       #344
      00FF6FE4H   LINE      CODE     ---       #345
      00FF6FFDH   LINE      CODE     ---       #346
      00FF6FFDH   LINE      CODE     ---       #347
      00FF6FFDH   LINE      CODE     ---       #349
      00FF700BH   LINE      CODE     ---       #350
      ---         BLOCKEND  ---      ---       LVL=0

      00FF5FFFH   BLOCK     CODE     ---       LVL=0
      00011CA4H   SYMBOL    XDATA    INT       pin
      00011CA6H   SYMBOL    XDATA    BYTE      dat
      00FF6009H   BLOCK     CODE     NEAR LAB  LVL=1
      00011CA7H   SYMBOL    XDATA    BYTE      pin_bit
      00011CA8H   SYMBOL    XDATA    BYTE      port_flag
      ---         BLOCKEND  ---      ---       LVL=1
      00FF5FFFH   LINE      CODE     ---       #359
      00FF6009H   LINE      CODE     ---       #360
      00FF6009H   LINE      CODE     ---       #361
      00FF6019H   LINE      CODE     ---       #362
      00FF6029H   LINE      CODE     ---       #365
      00FF6062H   LINE      CODE     ---       #367
      00FF6099H   LINE      CODE     ---       #368
      00FF60D0H   LINE      CODE     ---       #369
      00FF6107H   LINE      CODE     ---       #370
      00FF613EH   LINE      CODE     ---       #371
      00FF6175H   LINE      CODE     ---       #372
      00FF61ABH   LINE      CODE     ---       #373
      00FF61E0H   LINE      CODE     ---       #374
      00FF6213H   LINE      CODE     ---       #375
      00FF6213H   LINE      CODE     ---       #376
      00FF6213H   LINE      CODE     ---       #377
      ---         BLOCKEND  ---      ---       LVL=0
      00011DC1H   SYMBOL    XDATA    INT       pin

      00FF69DAH   BLOCK     CODE     ---       LVL=0
      00011D2DH   SYMBOL    XDATA    INT       pin
      00FF69E0H   BLOCK     CODE     NEAR LAB  LVL=1
      00011D2FH   SYMBOL    XDATA    BYTE      pin_bit
      00011D30H   SYMBOL    XDATA    BYTE      port_flag
      ---         BLOCKEND  ---      ---       LVL=1
      00FF69DAH   LINE      CODE     ---       #397
      00FF69E0H   LINE      CODE     ---       #398
      00FF69E0H   LINE      CODE     ---       #399
      00FF69F0H   LINE      CODE     ---       #400
      00FF6A00H   LINE      CODE     ---       #403
      00FF6A39H   LINE      CODE     ---       #405
      00FF6A64H   LINE      CODE     ---       #406
      00FF6A8FH   LINE      CODE     ---       #407
      00FF6ABAH   LINE      CODE     ---       #408
      00FF6AE5H   LINE      CODE     ---       #409
      00FF6B0FH   LINE      CODE     ---       #410
      00FF6B39H   LINE      CODE     ---       #411
      00FF6B63H   LINE      CODE     ---       #412
L251 LINKER/LOCATER V4.66.93.0                                                        03/26/2026  19:04:27  PAGE 67


      00FF6B8BH   LINE      CODE     ---       #413
      00FF6B8BH   LINE      CODE     ---       #414
      00FF6B8BH   LINE      CODE     ---       #415
      ---         BLOCKEND  ---      ---       LVL=0

      00FF76E9H   BLOCK     CODE     ---       LVL=0
      00011B99H   SYMBOL    XDATA    INT       pin
      00011B9BH   SYMBOL    XDATA    INT       dir
      00011B9DH   SYMBOL    XDATA    BYTE      dat
      00011B9EH   SYMBOL    XDATA    INT       mode
      00FF76E9H   LINE      CODE     ---       #426
      00FF76FFH   LINE      CODE     ---       #428
      00FF772BH   LINE      CODE     ---       #430
      00FF7739H   LINE      CODE     ---       #432
      00FF7746H   LINE      CODE     ---       #433
      00FF7755H   LINE      CODE     ---       #434
      00FF7758H   LINE      CODE     ---       #435
      00FF7764H   LINE      CODE     ---       #437
      00FF7770H   LINE      CODE     ---       #439
      00FF7779H   LINE      CODE     ---       #440
      00FF777BH   LINE      CODE     ---       #443
      00FF7786H   LINE      CODE     ---       #444
      00FF7795H   LINE      CODE     ---       #445
      00FF7795H   LINE      CODE     ---       #446
      00FF7797H   LINE      CODE     ---       #447
      00FF77A5H   LINE      CODE     ---       #449
      00FF77B3H   LINE      CODE     ---       #451
      00FF77C0H   LINE      CODE     ---       #452
      00FF77CDH   LINE      CODE     ---       #453
      00FF77CFH   LINE      CODE     ---       #454
      00FF77DDH   LINE      CODE     ---       #456
      00FF77EAH   LINE      CODE     ---       #457
      00FF77EAH   LINE      CODE     ---       #459
      00FF77F7H   LINE      CODE     ---       #460
      ---         BLOCKEND  ---      ---       LVL=0

      ---         MODULE    ---      ---       zf_driver_pit
      00FF5B37H   PUBLIC    CODE     ---       pit_init
      000000D0H   SFRSYM    DATA     BYTE      PSW
      0000009DH   SFRSYM    DATA     BYTE      IRCBAND
      00000097H   SFRSYM    DATA     BYTE      AUXR2
      000000EFH   SFRSYM    DATA     BYTE      AUXINTIF
      000000FDH   SFRSYM    DATA     BYTE      S4CON
      000000ACH   SFRSYM    DATA     BYTE      S3CON
      0000009AH   SFRSYM    DATA     BYTE      S2CON
      000000B7H   SFRSYM    DATA     BYTE      IPH
      000000CDH   SFRSYM    DATA     BYTE      SPSTAT
      000000DDH   SFRSYM    DATA     BYTE      T4T3M
      000000C1H   SFRSYM    DATA     BYTE      WDT_CONTR
      00000088H.6 SFRSYM    DATA     BIT       TR1
      00000088H.4 SFRSYM    DATA     BIT       TR0
      000000D3H   SFRSYM    DATA     BYTE      T4L
      000000D5H   SFRSYM    DATA     BYTE      T3L
      000000D7H   SFRSYM    DATA     BYTE      T2L
      0000008BH   SFRSYM    DATA     BYTE      TL1
      0000008AH   SFRSYM    DATA     BYTE      TL0
      000000D2H   SFRSYM    DATA     BYTE      T4H
      000000D4H   SFRSYM    DATA     BYTE      T3H
      000000D6H   SFRSYM    DATA     BYTE      T2H
      0000008DH   SFRSYM    DATA     BYTE      TH1
      0000008CH   SFRSYM    DATA     BYTE      TH0
      000000DFH   SFRSYM    DATA     BYTE      IP3
      000000F4H   SFRSYM    DATA     BYTE      USBCON
      000000B5H   SFRSYM    DATA     BYTE      IP2
      000000FFH   SFRSYM    DATA     BYTE      RSTCFG
L251 LINKER/LOCATER V4.66.93.0                                                        03/26/2026  19:04:27  PAGE 68


      000000A8H.3 SFRSYM    DATA     BIT       ET1
      000000A8H.1 SFRSYM    DATA     BIT       ET0
      000000C7H   SFRSYM    DATA     BYTE      IAP_CONTR
      000000F9H   SFRSYM    DATA     BYTE      LINICR
      0000008EH   SFRSYM    DATA     BYTE      AUXR
      000000AFH   SFRSYM    DATA     BYTE      IE2
      00000088H   SFRSYM    DATA     BYTE      TCON
      00000089H   SFRSYM    DATA     BYTE      TMOD
      00000098H   SFRSYM    DATA     BYTE      SCON
      000000F1H   SFRSYM    DATA     BYTE      CANICR
      00000087H   SFRSYM    DATA     BYTE      PCON
      000000BCH   SFRSYM    DATA     BYTE      ADC_CONTR
      000000E7H   SFRSYM    DATA     BYTE      CMPCR2
      000000E6H   SFRSYM    DATA     BYTE      CMPCR1
      000000DEH   SFRSYM    DATA     BYTE      ADCCFG
      000000B8H   SFRSYM    DATA     BYTE      IP
      0000008FH   SFRSYM    DATA     BYTE      INTCLKO
      000000EEH   SFRSYM    DATA     BYTE      IP3H
      000000B6H   SFRSYM    DATA     BYTE      IP2H
      000000A8H   SFRSYM    DATA     BYTE      IE
      000000BBH   SFRSYM    DATA     BYTE      P_SW3
      000000BAH   SFRSYM    DATA     BYTE      P_SW2
      000000A2H   SFRSYM    DATA     BYTE      P_SW1
      000000CEH   SFRSYM    DATA     BYTE      SPCTL
      000000F8H   SFRSYM    DATA     BYTE      P7
      000000E8H   SFRSYM    DATA     BYTE      P6
      000000C8H   SFRSYM    DATA     BYTE      P5
      000000C0H   SFRSYM    DATA     BYTE      P4
      000000B0H   SFRSYM    DATA     BYTE      P3
      000000A0H   SFRSYM    DATA     BYTE      P2
      00000090H   SFRSYM    DATA     BYTE      P1
      00000080H   SFRSYM    DATA     BYTE      P0

      00FF5B37H   BLOCK     CODE     ---       LVL=0
      000118D6H   SYMBOL    XDATA    INT       pit_n
      000118D8H   SYMBOL    XDATA    DWORD     period
      00FF5B47H   BLOCK     CODE     NEAR LAB  LVL=1
      000118DCH   SYMBOL    XDATA    BYTE      freq_div
      000118DDH   SYMBOL    XDATA    WORD      period_temp
      000118DFH   SYMBOL    XDATA    WORD      temp
      ---         BLOCKEND  ---      ---       LVL=1
      00FF5B37H   LINE      CODE     ---       #50
      00FF5B47H   LINE      CODE     ---       #51
      00FF5B47H   LINE      CODE     ---       #52
      00FF5B4CH   LINE      CODE     ---       #53
      00FF5B54H   LINE      CODE     ---       #54
      00FF5B5CH   LINE      CODE     ---       #57
      00FF5B72H   LINE      CODE     ---       #60
      00FF5B8AH   LINE      CODE     ---       #62
      00FF5B96H   LINE      CODE     ---       #64
      00FF5B99H   LINE      CODE     ---       #65
      00FF5B9CH   LINE      CODE     ---       #66
      00FF5BAAH   LINE      CODE     ---       #68
      00FF5BADH   LINE      CODE     ---       #69
      00FF5BB0H   LINE      CODE     ---       #70
      00FF5BBEH   LINE      CODE     ---       #72
      00FF5BC1H   LINE      CODE     ---       #73
      00FF5BC4H   LINE      CODE     ---       #74
      00FF5BD2H   LINE      CODE     ---       #76
      00FF5BD5H   LINE      CODE     ---       #77
      00FF5BD7H   LINE      CODE     ---       #78
      00FF5BE5H   LINE      CODE     ---       #80
      00FF5BE8H   LINE      CODE     ---       #81
      00FF5BEAH   LINE      CODE     ---       #88
      00FF5BF6H   LINE      CODE     ---       #90
L251 LINKER/LOCATER V4.66.93.0                                                        03/26/2026  19:04:27  PAGE 69


      00FF5BF9H   LINE      CODE     ---       #91
      00FF5BFBH   LINE      CODE     ---       #92
      00FF5C09H   LINE      CODE     ---       #94
      00FF5C0CH   LINE      CODE     ---       #95
      00FF5C0EH   LINE      CODE     ---       #96
      00FF5C1CH   LINE      CODE     ---       #98
      00FF5C1FH   LINE      CODE     ---       #99
      00FF5C21H   LINE      CODE     ---       #100
      00FF5C2FH   LINE      CODE     ---       #102
      00FF5C32H   LINE      CODE     ---       #103
      00FF5C34H   LINE      CODE     ---       #104
      00FF5C42H   LINE      CODE     ---       #106
      00FF5C45H   LINE      CODE     ---       #107
      00FF5C45H   LINE      CODE     ---       #112
      00FF5C63H   LINE      CODE     ---       #113
      00FF5C84H   LINE      CODE     ---       #115
      00FF5C96H   LINE      CODE     ---       #117
      00FF5CA2H   LINE      CODE     ---       #119
      00FF5CB1H   LINE      CODE     ---       #120
      00FF5CB5H   LINE      CODE     ---       #121
      00FF5CBDH   LINE      CODE     ---       #122
      00FF5CC9H   LINE      CODE     ---       #123
      00FF5CCCH   LINE      CODE     ---       #124
      00FF5CCFH   LINE      CODE     ---       #125
      00FF5CD2H   LINE      CODE     ---       #126
      00FF5CE0H   LINE      CODE     ---       #128
      00FF5CEFH   LINE      CODE     ---       #129
      00FF5CF3H   LINE      CODE     ---       #130
      00FF5CFBH   LINE      CODE     ---       #131
      00FF5D07H   LINE      CODE     ---       #132
      00FF5D0AH   LINE      CODE     ---       #133
      00FF5D0DH   LINE      CODE     ---       #134
      00FF5D10H   LINE      CODE     ---       #135
      00FF5D1EH   LINE      CODE     ---       #137
      00FF5D2DH   LINE      CODE     ---       #138
      00FF5D35H   LINE      CODE     ---       #139
      00FF5D41H   LINE      CODE     ---       #140
      00FF5D44H   LINE      CODE     ---       #141
      00FF5D47H   LINE      CODE     ---       #142
      00FF5D49H   LINE      CODE     ---       #143
      00FF5D57H   LINE      CODE     ---       #145
      00FF5D66H   LINE      CODE     ---       #146
      00FF5D6EH   LINE      CODE     ---       #147
      00FF5D7AH   LINE      CODE     ---       #148
      00FF5D7DH   LINE      CODE     ---       #149
      00FF5D80H   LINE      CODE     ---       #150
      00FF5D82H   LINE      CODE     ---       #151
      00FF5D90H   LINE      CODE     ---       #153
      00FF5D9FH   LINE      CODE     ---       #154
      00FF5DA7H   LINE      CODE     ---       #155
      00FF5DB3H   LINE      CODE     ---       #156
      00FF5DB6H   LINE      CODE     ---       #157
      00FF5DB9H   LINE      CODE     ---       #158
      ---         BLOCKEND  ---      ---       LVL=0

      ---         MODULE    ---      ---       zf_driver_pwm
      00FFA0C2H   PUBLIC    HCONST   ---       PWM_PSCR_ADDR
      00FFA0CAH   PUBLIC    HCONST   ---       PWM_CCR_ADDR
      00FFA0EAH   PUBLIC    HCONST   ---       PWM_ARR_ADDR
      00FFA0F2H   PUBLIC    HCONST   ---       PWM_CCER_ADDR
      00FFA102H   PUBLIC    HCONST   ---       PWM_CCMR_ADDR
      0001132CH   PUBLIC    XDATA    BYTE      ?pwm_set_freq?BYTE
      00011429H   PUBLIC    XDATA    BYTE      ?pwm_init?BYTE
      000000D0H   SFRSYM    DATA     BYTE      PSW
      0000009DH   SFRSYM    DATA     BYTE      IRCBAND
L251 LINKER/LOCATER V4.66.93.0                                                        03/26/2026  19:04:27  PAGE 70


      00000097H   SFRSYM    DATA     BYTE      AUXR2
      000000EFH   SFRSYM    DATA     BYTE      AUXINTIF
      000000FDH   SFRSYM    DATA     BYTE      S4CON
      000000ACH   SFRSYM    DATA     BYTE      S3CON
      0000009AH   SFRSYM    DATA     BYTE      S2CON
      000000B7H   SFRSYM    DATA     BYTE      IPH
      000000CDH   SFRSYM    DATA     BYTE      SPSTAT
      000000DDH   SFRSYM    DATA     BYTE      T4T3M
      000000C1H   SFRSYM    DATA     BYTE      WDT_CONTR
      000000DFH   SFRSYM    DATA     BYTE      IP3
      000000F4H   SFRSYM    DATA     BYTE      USBCON
      000000B5H   SFRSYM    DATA     BYTE      IP2
      000000FFH   SFRSYM    DATA     BYTE      RSTCFG
      000000C7H   SFRSYM    DATA     BYTE      IAP_CONTR
      000000F9H   SFRSYM    DATA     BYTE      LINICR
      0000008EH   SFRSYM    DATA     BYTE      AUXR
      000000AFH   SFRSYM    DATA     BYTE      IE2
      00000088H   SFRSYM    DATA     BYTE      TCON
      00000089H   SFRSYM    DATA     BYTE      TMOD
      00000098H   SFRSYM    DATA     BYTE      SCON
      000000F1H   SFRSYM    DATA     BYTE      CANICR
      00000087H   SFRSYM    DATA     BYTE      PCON
      000000BCH   SFRSYM    DATA     BYTE      ADC_CONTR
      000000E7H   SFRSYM    DATA     BYTE      CMPCR2
      000000E6H   SFRSYM    DATA     BYTE      CMPCR1
      000000DEH   SFRSYM    DATA     BYTE      ADCCFG
      000000B8H   SFRSYM    DATA     BYTE      IP
      0000008FH   SFRSYM    DATA     BYTE      INTCLKO
      000000EEH   SFRSYM    DATA     BYTE      IP3H
      000000B6H   SFRSYM    DATA     BYTE      IP2H
      000000A8H   SFRSYM    DATA     BYTE      IE
      000000BBH   SFRSYM    DATA     BYTE      P_SW3
      000000BAH   SFRSYM    DATA     BYTE      P_SW2
      000000A2H   SFRSYM    DATA     BYTE      P_SW1
      000000CEH   SFRSYM    DATA     BYTE      SPCTL
      000000F8H   SFRSYM    DATA     BYTE      P7
      000000E8H   SFRSYM    DATA     BYTE      P6
      000000C8H   SFRSYM    DATA     BYTE      P5
      000000C0H   SFRSYM    DATA     BYTE      P4
      000000B0H   SFRSYM    DATA     BYTE      P3
      000000A0H   SFRSYM    DATA     BYTE      P2
      00000090H   SFRSYM    DATA     BYTE      P1
      00000080H   SFRSYM    DATA     BYTE      P0
      0001132CH   SYMBOL    XDATA    INT       pin
      0001132EH   SYMBOL    XDATA    DWORD     freq
      00011332H   SYMBOL    XDATA    DWORD     duty
      00011336H   SYMBOL    XDATA    DWORD     match_temp
      0001133AH   SYMBOL    XDATA    DWORD     period_temp
      0001133EH   SYMBOL    XDATA    WORD      freq_div
      000115DEH   SYMBOL    XDATA    INT       pin
      000115E0H   SYMBOL    XDATA    DWORD     duty
      000115E4H   SYMBOL    XDATA    DWORD     match_temp
      000115E8H   SYMBOL    XDATA    DWORD     arr
      00011429H   SYMBOL    XDATA    INT       pin
      0001142BH   SYMBOL    XDATA    DWORD     freq
      0001142FH   SYMBOL    XDATA    DWORD     duty
      00011433H   SYMBOL    XDATA    WORD      match_temp
      00011435H   SYMBOL    XDATA    DWORD     period_temp
      00011439H   SYMBOL    XDATA    WORD      freq_div

      ---         MODULE    ---      ---       zf_driver_soft_iic
      00FF7CCCH   PUBLIC    CODE     ---       soft_iic_wait_ack
      00FF80D5H   PUBLIC    CODE     ---       soft_iic_stop
      00FF92EBH   PUBLIC    CODE     ---       soft_iic_delay
      00FF700CH   PUBLIC    CODE     ---       soft_iic_read_data
L251 LINKER/LOCATER V4.66.93.0                                                        03/26/2026  19:04:27  PAGE 71


      00FF00A6H   PUBLIC    CODE     ---       soft_iic_send_data
      00FF83A8H   PUBLIC    CODE     ---       soft_iic_start
      00FF7DAFH   PUBLIC    CODE     ---       soft_iic_send_ack
      0001174AH   PUBLIC    XDATA    BYTE      ?soft_iic_write_8bit_array?BYTE
      00011756H   PUBLIC    XDATA    BYTE      ?soft_iic_write_16bit_array?BYTE
      000116A1H   PUBLIC    XDATA    BYTE      ?soft_iic_write_8bit_registers?BYTE
      000115ECH   PUBLIC    XDATA    BYTE      ?soft_iic_write_16bit_registers?BYTE
      00011762H   PUBLIC    XDATA    BYTE      ?soft_iic_read_8bit_array?BYTE
      0001176EH   PUBLIC    XDATA    BYTE      ?soft_iic_read_16bit_array?BYTE
      000116AEH   PUBLIC    XDATA    BYTE      ?soft_iic_read_8bit_registers?BYTE
      000115FAH   PUBLIC    XDATA    BYTE      ?soft_iic_read_16bit_registers?BYTE
      00011340H   PUBLIC    XDATA    BYTE      ?soft_iic_transfer_8bit_array?BYTE
      00011354H   PUBLIC    XDATA    BYTE      ?soft_iic_transfer_16bit_array?BYTE
      000116BBH   PUBLIC    XDATA    BYTE      ?soft_iic_init?BYTE
      000000D0H   SFRSYM    DATA     BYTE      PSW
      0000009DH   SFRSYM    DATA     BYTE      IRCBAND
      00000097H   SFRSYM    DATA     BYTE      AUXR2
      000000EFH   SFRSYM    DATA     BYTE      AUXINTIF
      000000FDH   SFRSYM    DATA     BYTE      S4CON
      000000ACH   SFRSYM    DATA     BYTE      S3CON
      0000009AH   SFRSYM    DATA     BYTE      S2CON
      000000B7H   SFRSYM    DATA     BYTE      IPH
      000000CDH   SFRSYM    DATA     BYTE      SPSTAT
      000000DDH   SFRSYM    DATA     BYTE      T4T3M
      000000C1H   SFRSYM    DATA     BYTE      WDT_CONTR
      000000DFH   SFRSYM    DATA     BYTE      IP3
      000000F4H   SFRSYM    DATA     BYTE      USBCON
      000000B5H   SFRSYM    DATA     BYTE      IP2
      000000FFH   SFRSYM    DATA     BYTE      RSTCFG
      000000C7H   SFRSYM    DATA     BYTE      IAP_CONTR
      000000F9H   SFRSYM    DATA     BYTE      LINICR
      0000008EH   SFRSYM    DATA     BYTE      AUXR
      000000AFH   SFRSYM    DATA     BYTE      IE2
      00000088H   SFRSYM    DATA     BYTE      TCON
      00000089H   SFRSYM    DATA     BYTE      TMOD
      00000098H   SFRSYM    DATA     BYTE      SCON
      000000F1H   SFRSYM    DATA     BYTE      CANICR
      00000087H   SFRSYM    DATA     BYTE      PCON
      000000BCH   SFRSYM    DATA     BYTE      ADC_CONTR
      000000E7H   SFRSYM    DATA     BYTE      CMPCR2
      000000E6H   SFRSYM    DATA     BYTE      CMPCR1
      000000DEH   SFRSYM    DATA     BYTE      ADCCFG
      000000B8H   SFRSYM    DATA     BYTE      IP
      0000008FH   SFRSYM    DATA     BYTE      INTCLKO
      000000EEH   SFRSYM    DATA     BYTE      IP3H
      000000B6H   SFRSYM    DATA     BYTE      IP2H
      000000A8H   SFRSYM    DATA     BYTE      IE
      000000BBH   SFRSYM    DATA     BYTE      P_SW3
      000000BAH   SFRSYM    DATA     BYTE      P_SW2
      000000A2H   SFRSYM    DATA     BYTE      P_SW1
      000000CEH   SFRSYM    DATA     BYTE      SPCTL
      000000F8H   SFRSYM    DATA     BYTE      P7
      000000E8H   SFRSYM    DATA     BYTE      P6
      000000C8H   SFRSYM    DATA     BYTE      P5
      000000C0H   SFRSYM    DATA     BYTE      P4
      000000B0H   SFRSYM    DATA     BYTE      P3
      000000A0H   SFRSYM    DATA     BYTE      P2
      00000090H   SFRSYM    DATA     BYTE      P1
      00000080H   SFRSYM    DATA     BYTE      P0

      00FF92EBH   BLOCK     CODE     ---       LVL=0
      00011AD9H   SYMBOL    XDATA    DWORD     delay
      00FF92F5H   BLOCK     CODE     NEAR LAB  LVL=1
      00011ADDH   SYMBOL    XDATA    DWORD     count
      ---         BLOCKEND  ---      ---       LVL=1
L251 LINKER/LOCATER V4.66.93.0                                                        03/26/2026  19:04:27  PAGE 72


      00FF92EBH   LINE      CODE     ---       #53
      00FF92F5H   LINE      CODE     ---       #54
      00FF92F5H   LINE      CODE     ---       #55
      00FF9309H   LINE      CODE     ---       #56
      00FF9326H   LINE      CODE     ---       #57
      ---         BLOCKEND  ---      ---       LVL=0

      00FF83A8H   BLOCK     CODE     ---       LVL=0
      00011D31H   SYMBOL    XDATA    ---       soft_iic_obj
      00FF83A8H   LINE      CODE     ---       #67
      00FF83B2H   LINE      CODE     ---       #69
      00FF83D4H   LINE      CODE     ---       #70
      00FF83E6H   LINE      CODE     ---       #71
      00FF83FAH   LINE      CODE     ---       #73
      00FF8412H   LINE      CODE     ---       #74
      00FF8425H   LINE      CODE     ---       #75
      00FF843DH   LINE      CODE     ---       #76
      00FF844EH   LINE      CODE     ---       #77
      ---         BLOCKEND  ---      ---       LVL=0

      00FF80D5H   BLOCK     CODE     ---       LVL=0
      00011D35H   SYMBOL    XDATA    ---       soft_iic_obj
      00FF80D5H   LINE      CODE     ---       #86
      00FF80DFH   LINE      CODE     ---       #88
      00FF8101H   LINE      CODE     ---       #89
      00FF8114H   LINE      CODE     ---       #90
      00FF8125H   LINE      CODE     ---       #92
      00FF813DH   LINE      CODE     ---       #93
      00FF814FH   LINE      CODE     ---       #94
      00FF8167H   LINE      CODE     ---       #95
      00FF817BH   LINE      CODE     ---       #96
      00FF8193H   LINE      CODE     ---       #97
      ---         BLOCKEND  ---      ---       LVL=0

      00FF7DAFH   BLOCK     CODE     ---       LVL=0
      00011CA9H   SYMBOL    XDATA    ---       soft_iic_obj
      00011CADH   SYMBOL    XDATA    BYTE      ack
      00FF7DAFH   LINE      CODE     ---       #107
      00FF7DBDH   LINE      CODE     ---       #109
      00FF7DDFH   LINE      CODE     ---       #110
      00FF7DF0H   LINE      CODE     ---       #112
      00FF7DF9H   LINE      CODE     ---       #114
      00FF7E0DH   LINE      CODE     ---       #115
      00FF7E0FH   LINE      CODE     ---       #118
      00FF7E22H   LINE      CODE     ---       #119
      00FF7E22H   LINE      CODE     ---       #121
      00FF7E3AH   LINE      CODE     ---       #122
      00FF7E4CH   LINE      CODE     ---       #123
      00FF7E64H   LINE      CODE     ---       #124
      00FF7E75H   LINE      CODE     ---       #125
      00FF7E89H   LINE      CODE     ---       #126
      ---         BLOCKEND  ---      ---       LVL=0

      00FF7CCCH   BLOCK     CODE     ---       LVL=0
      00011CAEH   SYMBOL    XDATA    ---       soft_iic_obj
      00FF7CD6H   BLOCK     CODE     NEAR LAB  LVL=1
      00011CB2H   SYMBOL    XDATA    BYTE      temp
      ---         BLOCKEND  ---      ---       LVL=1
      00FF7CCCH   LINE      CODE     ---       #135
      00FF7CD6H   LINE      CODE     ---       #136
      00FF7CD6H   LINE      CODE     ---       #137
      00FF7CDBH   LINE      CODE     ---       #138
      00FF7CFDH   LINE      CODE     ---       #140
      00FF7D0EH   LINE      CODE     ---       #141
      00FF7D22H   LINE      CODE     ---       #145
L251 LINKER/LOCATER V4.66.93.0                                                        03/26/2026  19:04:27  PAGE 73


      00FF7D3AH   LINE      CODE     ---       #147
      00FF7D4CH   LINE      CODE     ---       #148
      00FF7D64H   LINE      CODE     ---       #150
      00FF7D7BH   LINE      CODE     ---       #152
      00FF7D81H   LINE      CODE     ---       #153
      00FF7D81H   LINE      CODE     ---       #154
      00FF7D92H   LINE      CODE     ---       #158
      00FF7DAAH   LINE      CODE     ---       #160
      00FF7DAEH   LINE      CODE     ---       #161
      ---         BLOCKEND  ---      ---       LVL=0

      00FF00A6H   BLOCK     CODE     ---       LVL=0
      00011BDBH   SYMBOL    XDATA    ---       soft_iic_obj
      00011BDFH   SYMBOL    XDATA    BYTE      dat
      00FF00B4H   BLOCK     CODE     NEAR LAB  LVL=1
      00011BE0H   SYMBOL    XDATA    BYTE      temp
      ---         BLOCKEND  ---      ---       LVL=1
      00FF00A6H   LINE      CODE     ---       #170
      00FF00B4H   LINE      CODE     ---       #171
      00FF00B4H   LINE      CODE     ---       #172
      00FF00BAH   LINE      CODE     ---       #174
      00FF00DCH   LINE      CODE     ---       #176
      00FF00DFH   LINE      CODE     ---       #179
      00FF011CH   LINE      CODE     ---       #180
      00FF0123H   LINE      CODE     ---       #182
      00FF013BH   LINE      CODE     ---       #183
      00FF014DH   LINE      CODE     ---       #184
      00FF0165H   LINE      CODE     ---       #185
      00FF0176H   LINE      CODE     ---       #186
      00FF0182H   LINE      CODE     ---       #187
      00FF0199H   LINE      CODE     ---       #188
      ---         BLOCKEND  ---      ---       LVL=0

      00FF700CH   BLOCK     CODE     ---       LVL=0
      00011BA0H   SYMBOL    XDATA    ---       soft_iic_obj
      00011BA4H   SYMBOL    XDATA    BYTE      ack
      00FF701AH   BLOCK     CODE     NEAR LAB  LVL=1
      00011BA5H   SYMBOL    XDATA    BYTE      dat
      00011BA6H   SYMBOL    XDATA    BYTE      temp
      ---         BLOCKEND  ---      ---       LVL=1
      00FF700CH   LINE      CODE     ---       #197
      00FF701AH   LINE      CODE     ---       #198
      00FF701AH   LINE      CODE     ---       #199
      00FF701FH   LINE      CODE     ---       #200
      00FF7025H   LINE      CODE     ---       #201
      00FF7047H   LINE      CODE     ---       #202
      00FF7058H   LINE      CODE     ---       #203
      00FF7070H   LINE      CODE     ---       #204
      00FF7084H   LINE      CODE     ---       #209
      00FF7086H   LINE      CODE     ---       #211
      00FF7097H   LINE      CODE     ---       #212
      00FF70AFH   LINE      CODE     ---       #213
      00FF70C1H   LINE      CODE     ---       #214
      00FF70D9H   LINE      CODE     ---       #215
      00FF70F9H   LINE      CODE     ---       #216
      00FF710FH   LINE      CODE     ---       #217
      00FF7120H   LINE      CODE     ---       #221
      00FF7138H   LINE      CODE     ---       #222
      00FF7149H   LINE      CODE     ---       #223
      00FF714DH   LINE      CODE     ---       #224
      ---         BLOCKEND  ---      ---       LVL=0
      00011CB3H   SYMBOL    XDATA    ---       soft_iic_obj
      00011CB7H   SYMBOL    XDATA    BYTE      dat
      0001174AH   SYMBOL    XDATA    ---       soft_iic_obj
      0001174EH   SYMBOL    XDATA    ---       dat
L251 LINKER/LOCATER V4.66.93.0                                                        03/26/2026  19:04:27  PAGE 74


      00011752H   SYMBOL    XDATA    DWORD     len
      00011BE1H   SYMBOL    XDATA    ---       soft_iic_obj
      00011BE5H   SYMBOL    XDATA    WORD      dat
      00011756H   SYMBOL    XDATA    ---       soft_iic_obj
      0001175AH   SYMBOL    XDATA    ---       dat
      0001175EH   SYMBOL    XDATA    DWORD     len
      00011BE7H   SYMBOL    XDATA    ---       soft_iic_obj
      00011BEBH   SYMBOL    XDATA    BYTE      register_name
      00011BECH   SYMBOL    XDATA    BYTE      dat
      000116A1H   SYMBOL    XDATA    ---       soft_iic_obj
      000116A5H   SYMBOL    XDATA    BYTE      register_name
      000116A6H   SYMBOL    XDATA    ---       dat
      000116AAH   SYMBOL    XDATA    DWORD     len
      00011AE1H   SYMBOL    XDATA    ---       soft_iic_obj
      00011AE5H   SYMBOL    XDATA    WORD      register_name
      00011AE7H   SYMBOL    XDATA    WORD      dat
      000115ECH   SYMBOL    XDATA    ---       soft_iic_obj
      000115F0H   SYMBOL    XDATA    WORD      register_name
      000115F2H   SYMBOL    XDATA    ---       dat
      000115F6H   SYMBOL    XDATA    DWORD     len
      00011CB8H   SYMBOL    XDATA    ---       soft_iic_obj
      00011CBCH   SYMBOL    XDATA    BYTE      temp
      00011762H   SYMBOL    XDATA    ---       soft_iic_obj
      00011766H   SYMBOL    XDATA    ---       dat
      0001176AH   SYMBOL    XDATA    DWORD     len
      00011BEDH   SYMBOL    XDATA    ---       soft_iic_obj
      00011BF1H   SYMBOL    XDATA    WORD      temp
      0001176EH   SYMBOL    XDATA    ---       soft_iic_obj
      00011772H   SYMBOL    XDATA    ---       dat
      00011776H   SYMBOL    XDATA    DWORD     len
      00011BF3H   SYMBOL    XDATA    ---       soft_iic_obj
      00011BF7H   SYMBOL    XDATA    BYTE      register_name
      00011BF8H   SYMBOL    XDATA    BYTE      temp
      000116AEH   SYMBOL    XDATA    ---       soft_iic_obj
      000116B2H   SYMBOL    XDATA    BYTE      register_name
      000116B3H   SYMBOL    XDATA    ---       dat
      000116B7H   SYMBOL    XDATA    DWORD     len
      00011AE9H   SYMBOL    XDATA    ---       soft_iic_obj
      00011AEDH   SYMBOL    XDATA    WORD      register_name
      00011AEFH   SYMBOL    XDATA    WORD      temp
      000115FAH   SYMBOL    XDATA    ---       soft_iic_obj
      000115FEH   SYMBOL    XDATA    WORD      register_name
      00011600H   SYMBOL    XDATA    ---       dat
      00011604H   SYMBOL    XDATA    DWORD     len
      00011340H   SYMBOL    XDATA    ---       soft_iic_obj
      00011344H   SYMBOL    XDATA    ---       write_data
      00011348H   SYMBOL    XDATA    DWORD     write_len
      0001134CH   SYMBOL    XDATA    ---       read_data
      00011350H   SYMBOL    XDATA    DWORD     read_len
      00011354H   SYMBOL    XDATA    ---       soft_iic_obj
      00011358H   SYMBOL    XDATA    ---       write_data
      0001135CH   SYMBOL    XDATA    DWORD     write_len
      00011360H   SYMBOL    XDATA    ---       read_data
      00011364H   SYMBOL    XDATA    DWORD     read_len
      00011BF9H   SYMBOL    XDATA    ---       soft_iic_obj
      00011BFDH   SYMBOL    XDATA    BYTE      register_name
      00011BFEH   SYMBOL    XDATA    BYTE      dat
      00011BFFH   SYMBOL    XDATA    ---       soft_iic_obj
      00011C03H   SYMBOL    XDATA    BYTE      register_name
      00011C04H   SYMBOL    XDATA    BYTE      temp
      000116BBH   SYMBOL    XDATA    ---       soft_iic_obj
      000116BFH   SYMBOL    XDATA    BYTE      addr
      000116C0H   SYMBOL    XDATA    DWORD     delay
      000116C4H   SYMBOL    XDATA    INT       scl_pin
      000116C6H   SYMBOL    XDATA    INT       sda_pin
L251 LINKER/LOCATER V4.66.93.0                                                        03/26/2026  19:04:27  PAGE 75



      ---         MODULE    ---      ---       zf_driver_soft_spi
      0001177AH   PUBLIC    XDATA    BYTE      ?soft_spi_write_8bit_array?BYTE
      00011786H   PUBLIC    XDATA    BYTE      ?soft_spi_write_16bit_array?BYTE
      000116C8H   PUBLIC    XDATA    BYTE      ?soft_spi_write_8bit_registers?BYTE
      00011608H   PUBLIC    XDATA    BYTE      ?soft_spi_write_16bit_registers?BYTE
      00011792H   PUBLIC    XDATA    BYTE      ?soft_spi_read_8bit_array?BYTE
      0001179EH   PUBLIC    XDATA    BYTE      ?soft_spi_read_16bit_array?BYTE
      000116D5H   PUBLIC    XDATA    BYTE      ?soft_spi_read_8bit_registers?BYTE
      00011616H   PUBLIC    XDATA    BYTE      ?soft_spi_read_16bit_registers?BYTE
      00011509H   PUBLIC    XDATA    BYTE      ?soft_spi_transfer_8bit?BYTE
      00011519H   PUBLIC    XDATA    BYTE      ?soft_spi_transfer_16bit?BYTE
      000112DAH   PUBLIC    XDATA    BYTE      ?soft_spi_init?BYTE
      000000D0H   SFRSYM    DATA     BYTE      PSW
      0000009DH   SFRSYM    DATA     BYTE      IRCBAND
      00000097H   SFRSYM    DATA     BYTE      AUXR2
      000000EFH   SFRSYM    DATA     BYTE      AUXINTIF
      000000FDH   SFRSYM    DATA     BYTE      S4CON
      000000ACH   SFRSYM    DATA     BYTE      S3CON
      0000009AH   SFRSYM    DATA     BYTE      S2CON
      000000B7H   SFRSYM    DATA     BYTE      IPH
      000000CDH   SFRSYM    DATA     BYTE      SPSTAT
      000000DDH   SFRSYM    DATA     BYTE      T4T3M
      000000C1H   SFRSYM    DATA     BYTE      WDT_CONTR
      000000DFH   SFRSYM    DATA     BYTE      IP3
      000000F4H   SFRSYM    DATA     BYTE      USBCON
      000000B5H   SFRSYM    DATA     BYTE      IP2
      000000FFH   SFRSYM    DATA     BYTE      RSTCFG
      000000C7H   SFRSYM    DATA     BYTE      IAP_CONTR
      000000F9H   SFRSYM    DATA     BYTE      LINICR
      0000008EH   SFRSYM    DATA     BYTE      AUXR
      000000AFH   SFRSYM    DATA     BYTE      IE2
      00000088H   SFRSYM    DATA     BYTE      TCON
      00000089H   SFRSYM    DATA     BYTE      TMOD
      00000098H   SFRSYM    DATA     BYTE      SCON
      000000F1H   SFRSYM    DATA     BYTE      CANICR
      00000087H   SFRSYM    DATA     BYTE      PCON
      000000BCH   SFRSYM    DATA     BYTE      ADC_CONTR
      000000E7H   SFRSYM    DATA     BYTE      CMPCR2
      000000E6H   SFRSYM    DATA     BYTE      CMPCR1
      000000DEH   SFRSYM    DATA     BYTE      ADCCFG
      000000B8H   SFRSYM    DATA     BYTE      IP
      0000008FH   SFRSYM    DATA     BYTE      INTCLKO
      000000EEH   SFRSYM    DATA     BYTE      IP3H
      000000B6H   SFRSYM    DATA     BYTE      IP2H
      000000A8H   SFRSYM    DATA     BYTE      IE
      000000BBH   SFRSYM    DATA     BYTE      P_SW3
      000000BAH   SFRSYM    DATA     BYTE      P_SW2
      000000A2H   SFRSYM    DATA     BYTE      P_SW1
      000000CEH   SFRSYM    DATA     BYTE      SPCTL
      000000F8H   SFRSYM    DATA     BYTE      P7
      000000E8H   SFRSYM    DATA     BYTE      P6
      000000C8H   SFRSYM    DATA     BYTE      P5
      000000C0H   SFRSYM    DATA     BYTE      P4
      000000B0H   SFRSYM    DATA     BYTE      P3
      000000A0H   SFRSYM    DATA     BYTE      P2
      00000090H   SFRSYM    DATA     BYTE      P1
      00000080H   SFRSYM    DATA     BYTE      P0
      00011AF1H   SYMBOL    XDATA    DWORD     x
      00011AF5H   SYMBOL    XDATA    DWORD     i
      00011AF9H   SYMBOL    XDATA    ---       soft_spi_obj
      00011AFDH   SYMBOL    XDATA    BYTE      dat
      00011AFEH   SYMBOL    XDATA    BYTE      temp
      00011AFFH   SYMBOL    XDATA    BYTE      write_data
      00011B00H   SYMBOL    XDATA    BYTE      read_data
L251 LINKER/LOCATER V4.66.93.0                                                        03/26/2026  19:04:27  PAGE 76


      000118E1H   SYMBOL    XDATA    ---       soft_spi_obj
      000118E5H   SYMBOL    XDATA    WORD      dat
      000118E7H   SYMBOL    XDATA    BYTE      temp
      000118E8H   SYMBOL    XDATA    WORD      write_data
      000118EAH   SYMBOL    XDATA    WORD      read_data
      00011CBDH   SYMBOL    XDATA    ---       soft_spi_obj
      00011CC1H   SYMBOL    XDATA    BYTE      dat
      0001177AH   SYMBOL    XDATA    ---       soft_spi_obj
      0001177EH   SYMBOL    XDATA    ---       dat
      00011782H   SYMBOL    XDATA    DWORD     len
      00011C05H   SYMBOL    XDATA    ---       soft_spi_obj
      00011C09H   SYMBOL    XDATA    WORD      dat
      00011786H   SYMBOL    XDATA    ---       soft_spi_obj
      0001178AH   SYMBOL    XDATA    ---       dat
      0001178EH   SYMBOL    XDATA    DWORD     len
      00011C0BH   SYMBOL    XDATA    ---       soft_spi_obj
      00011C0FH   SYMBOL    XDATA    BYTE      register_name
      00011C10H   SYMBOL    XDATA    BYTE      dat
      000116C8H   SYMBOL    XDATA    ---       soft_spi_obj
      000116CCH   SYMBOL    XDATA    BYTE      register_name
      000116CDH   SYMBOL    XDATA    ---       dat
      000116D1H   SYMBOL    XDATA    DWORD     len
      00011B01H   SYMBOL    XDATA    ---       soft_spi_obj
      00011B05H   SYMBOL    XDATA    WORD      register_name
      00011B07H   SYMBOL    XDATA    WORD      dat
      00011608H   SYMBOL    XDATA    ---       soft_spi_obj
      0001160CH   SYMBOL    XDATA    WORD      register_name
      0001160EH   SYMBOL    XDATA    ---       dat
      00011612H   SYMBOL    XDATA    DWORD     len
      00011CC2H   SYMBOL    XDATA    ---       soft_spi_obj
      00011CC6H   SYMBOL    XDATA    BYTE      dat
      00011792H   SYMBOL    XDATA    ---       soft_spi_obj
      00011796H   SYMBOL    XDATA    ---       dat
      0001179AH   SYMBOL    XDATA    DWORD     len
      00011CC7H   SYMBOL    XDATA    ---       soft_spi_obj
      00011CCBH   SYMBOL    XDATA    BYTE      dat
      0001179EH   SYMBOL    XDATA    ---       soft_spi_obj
      000117A2H   SYMBOL    XDATA    ---       dat
      000117A6H   SYMBOL    XDATA    DWORD     len
      00011C11H   SYMBOL    XDATA    ---       soft_spi_obj
      00011C15H   SYMBOL    XDATA    BYTE      register_name
      00011C16H   SYMBOL    XDATA    BYTE      dat
      000116D5H   SYMBOL    XDATA    ---       soft_spi_obj
      000116D9H   SYMBOL    XDATA    BYTE      register_name
      000116DAH   SYMBOL    XDATA    ---       dat
      000116DEH   SYMBOL    XDATA    DWORD     len
      00011B09H   SYMBOL    XDATA    ---       soft_spi_obj
      00011B0DH   SYMBOL    XDATA    WORD      register_name
      00011B0FH   SYMBOL    XDATA    WORD      dat
      00011616H   SYMBOL    XDATA    ---       soft_spi_obj
      0001161AH   SYMBOL    XDATA    WORD      register_name
      0001161CH   SYMBOL    XDATA    ---       dat
      00011620H   SYMBOL    XDATA    DWORD     len
      00011509H   SYMBOL    XDATA    ---       soft_spi_obj
      0001150DH   SYMBOL    XDATA    ---       write_buffer
      00011511H   SYMBOL    XDATA    ---       read_buffer
      00011515H   SYMBOL    XDATA    DWORD     len
      00011519H   SYMBOL    XDATA    ---       soft_spi_obj
      0001151DH   SYMBOL    XDATA    ---       write_buffer
      00011521H   SYMBOL    XDATA    ---       read_buffer
      00011525H   SYMBOL    XDATA    DWORD     len
      000112DAH   SYMBOL    XDATA    ---       soft_spi_obj
      000112DEH   SYMBOL    XDATA    BYTE      mode
      000112DFH   SYMBOL    XDATA    DWORD     delay
      000112E3H   SYMBOL    XDATA    INT       sck_pin
L251 LINKER/LOCATER V4.66.93.0                                                        03/26/2026  19:04:27  PAGE 77


      000112E5H   SYMBOL    XDATA    INT       mosi_pin
      000112E7H   SYMBOL    XDATA    DWORD     miso_pin
      000112EBH   SYMBOL    XDATA    DWORD     cs_pin

      ---         MODULE    ---      ---       zf_driver_spi
      00FF0066H   PUBLIC    CODE     ---       spi_write_8bit
      00FF4AACH   PUBLIC    CODE     ---       spi_init
      00FF9327H   PUBLIC    CODE     ---       spi_write_16bit
      00FF8B71H   PUBLIC    CODE     ---       spi_read_dat
      00FF8DE6H   PUBLIC    CODE     ---       spi_write_dat
      00011937H   PUBLIC    XDATA    BYTE      ?spi_write_8bit_array?BYTE
      00011941H   PUBLIC    XDATA    BYTE      ?spi_write_16bit_array?BYTE
      000118ECH   PUBLIC    XDATA    BYTE      ?spi_write_8bit_registers?BYTE
      000117AAH   PUBLIC    XDATA    BYTE      ?spi_write_16bit_registers?BYTE
      0001194BH   PUBLIC    XDATA    BYTE      ?spi_read_8bit_array?BYTE
      00011955H   PUBLIC    XDATA    BYTE      ?spi_read_16bit_array?BYTE
      000118F7H   PUBLIC    XDATA    BYTE      ?spi_read_8bit_registers?BYTE
      000117B6H   PUBLIC    XDATA    BYTE      ?spi_read_16bit_registers?BYTE
      00011624H   PUBLIC    XDATA    BYTE      ?spi_transfer_8bit?BYTE
      00011632H   PUBLIC    XDATA    BYTE      ?spi_transfer_16bit?BYTE
      00011368H   PUBLIC    XDATA    BYTE      ?spi_init?BYTE
      000000CFH   SFRSYM    DATA     BYTE      SPDAT
      000000D0H   SFRSYM    DATA     BYTE      PSW
      0000009DH   SFRSYM    DATA     BYTE      IRCBAND
      00000097H   SFRSYM    DATA     BYTE      AUXR2
      000000EFH   SFRSYM    DATA     BYTE      AUXINTIF
      000000FDH   SFRSYM    DATA     BYTE      S4CON
      000000ACH   SFRSYM    DATA     BYTE      S3CON
      0000009AH   SFRSYM    DATA     BYTE      S2CON
      0000009BH   SFRSYM    DATA     BYTE      S2BUF
      000000B7H   SFRSYM    DATA     BYTE      IPH
      000000CDH   SFRSYM    DATA     BYTE      SPSTAT
      000000DDH   SFRSYM    DATA     BYTE      T4T3M
      000000C1H   SFRSYM    DATA     BYTE      WDT_CONTR
      000000DFH   SFRSYM    DATA     BYTE      IP3
      000000F4H   SFRSYM    DATA     BYTE      USBCON
      000000B5H   SFRSYM    DATA     BYTE      IP2
      000000FFH   SFRSYM    DATA     BYTE      RSTCFG
      000000C7H   SFRSYM    DATA     BYTE      IAP_CONTR
      000000F9H   SFRSYM    DATA     BYTE      LINICR
      0000008EH   SFRSYM    DATA     BYTE      AUXR
      000000AFH   SFRSYM    DATA     BYTE      IE2
      00000088H   SFRSYM    DATA     BYTE      TCON
      00000089H   SFRSYM    DATA     BYTE      TMOD
      00000098H   SFRSYM    DATA     BYTE      SCON
      000000F1H   SFRSYM    DATA     BYTE      CANICR
      00000087H   SFRSYM    DATA     BYTE      PCON
      00000099H   SFRSYM    DATA     BYTE      SBUF
      000000BCH   SFRSYM    DATA     BYTE      ADC_CONTR
      000000E7H   SFRSYM    DATA     BYTE      CMPCR2
      000000E6H   SFRSYM    DATA     BYTE      CMPCR1
      0000009AH.1 SFRSYM    DATA     BIT       S2TI
      00000098H.1 SFRSYM    DATA     BIT       TI
      000000DEH   SFRSYM    DATA     BYTE      ADCCFG
      000000B8H   SFRSYM    DATA     BYTE      IP
      0000008FH   SFRSYM    DATA     BYTE      INTCLKO
      000000EEH   SFRSYM    DATA     BYTE      IP3H
      000000B6H   SFRSYM    DATA     BYTE      IP2H
      000000A8H   SFRSYM    DATA     BYTE      IE
      000000BBH   SFRSYM    DATA     BYTE      P_SW3
      000000BAH   SFRSYM    DATA     BYTE      P_SW2
      000000A2H   SFRSYM    DATA     BYTE      P_SW1
      000000CEH   SFRSYM    DATA     BYTE      SPCTL
      000000F8H   SFRSYM    DATA     BYTE      P7
      000000E8H   SFRSYM    DATA     BYTE      P6
L251 LINKER/LOCATER V4.66.93.0                                                        03/26/2026  19:04:27  PAGE 78


      000000C8H   SFRSYM    DATA     BYTE      P5
      000000C0H   SFRSYM    DATA     BYTE      P4
      000000B0H   SFRSYM    DATA     BYTE      P3
      000000A0H   SFRSYM    DATA     BYTE      P2
      00000090H   SFRSYM    DATA     BYTE      P1
      00000080H   SFRSYM    DATA     BYTE      P0

      00FF8DE6H   BLOCK     CODE     ---       LVL=0
      00011D94H   SYMBOL    XDATA    INT       spi_n
      00011D96H   SYMBOL    XDATA    BYTE      dat
      00FF8DE6H   LINE      CODE     ---       #81
      00FF8DF0H   LINE      CODE     ---       #83
      00FF8E02H   LINE      CODE     ---       #85
      00FF8E02H   LINE      CODE     ---       #86
      00FF8E06H   LINE      CODE     ---       #87
      00FF8E0CH   LINE      CODE     ---       #88
      00FF8E11H   LINE      CODE     ---       #89
      00FF8E13H   LINE      CODE     ---       #90
      00FF8E13H   LINE      CODE     ---       #91
      00FF8E16H   LINE      CODE     ---       #92
      00FF8E1CH   LINE      CODE     ---       #93
      00FF8E1FH   LINE      CODE     ---       #94
      00FF8E21H   LINE      CODE     ---       #95
      00FF8E21H   LINE      CODE     ---       #96
      00FF8E25H   LINE      CODE     ---       #97
      00FF8E2BH   LINE      CODE     ---       #98
      00FF8E2FH   LINE      CODE     ---       #99
      00FF8E31H   LINE      CODE     ---       #100
      00FF8E31H   LINE      CODE     ---       #101
      00FF8E41H   LINE      CODE     ---       #102
      00FF8E41H   LINE      CODE     ---       #103
      00FF8E41H   LINE      CODE     ---       #104
      ---         BLOCKEND  ---      ---       LVL=0

      00FF8B71H   BLOCK     CODE     ---       LVL=0
      00011D39H   SYMBOL    XDATA    INT       spi_n
      00011D3BH   SYMBOL    XDATA    BYTE      dat
      00FF8B7BH   BLOCK     CODE     NEAR LAB  LVL=1
      00011D3CH   SYMBOL    XDATA    BYTE      ret
      ---         BLOCKEND  ---      ---       LVL=1
      00FF8B71H   LINE      CODE     ---       #107
      00FF8B7BH   LINE      CODE     ---       #108
      00FF8B7BH   LINE      CODE     ---       #109
      00FF8B81H   LINE      CODE     ---       #110
      00FF8B93H   LINE      CODE     ---       #112
      00FF8B93H   LINE      CODE     ---       #113
      00FF8B97H   LINE      CODE     ---       #114
      00FF8B9DH   LINE      CODE     ---       #115
      00FF8BA2H   LINE      CODE     ---       #116
      00FF8BA8H   LINE      CODE     ---       #117
      00FF8BAAH   LINE      CODE     ---       #118
      00FF8BAAH   LINE      CODE     ---       #119
      00FF8BADH   LINE      CODE     ---       #120
      00FF8BB3H   LINE      CODE     ---       #121
      00FF8BB6H   LINE      CODE     ---       #122
      00FF8BBCH   LINE      CODE     ---       #123
      00FF8BBEH   LINE      CODE     ---       #124
      00FF8BBEH   LINE      CODE     ---       #125
      00FF8BC2H   LINE      CODE     ---       #126
      00FF8BC8H   LINE      CODE     ---       #127
      00FF8BCCH   LINE      CODE     ---       #128
      00FF8BD2H   LINE      CODE     ---       #129
      00FF8BD4H   LINE      CODE     ---       #130
      00FF8BD4H   LINE      CODE     ---       #131
      00FF8BE4H   LINE      CODE     ---       #132
L251 LINKER/LOCATER V4.66.93.0                                                        03/26/2026  19:04:27  PAGE 79


      00FF8BE4H   LINE      CODE     ---       #133
      00FF8BE4H   LINE      CODE     ---       #135
      00FF8BE8H   LINE      CODE     ---       #136
      ---         BLOCKEND  ---      ---       LVL=0

      00FF0066H   BLOCK     CODE     ---       LVL=0
      00011D97H   SYMBOL    XDATA    INT       spi_n
      00011D99H   SYMBOL    XDATA    BYTE      dat
      00FF0066H   LINE      CODE     ---       #147
      00FF0070H   LINE      CODE     ---       #149
      00FF007DH   LINE      CODE     ---       #150
      ---         BLOCKEND  ---      ---       LVL=0
      00011937H   SYMBOL    XDATA    INT       spi_n
      00011939H   SYMBOL    XDATA    ---       dat
      0001193DH   SYMBOL    XDATA    DWORD     len

      00FF9327H   BLOCK     CODE     ---       LVL=0
      00011D3DH   SYMBOL    XDATA    INT       spi_n
      00011D3FH   SYMBOL    XDATA    WORD      dat
      00FF9327H   LINE      CODE     ---       #175
      00FF9333H   LINE      CODE     ---       #177
      00FF934CH   LINE      CODE     ---       #178
      00FF9361H   LINE      CODE     ---       #179
      ---         BLOCKEND  ---      ---       LVL=0
      00011941H   SYMBOL    XDATA    INT       spi_n
      00011943H   SYMBOL    XDATA    ---       dat
      00011947H   SYMBOL    XDATA    DWORD     len
      00011D41H   SYMBOL    XDATA    INT       spi_n
      00011D43H   SYMBOL    XDATA    BYTE      register_name
      00011D44H   SYMBOL    XDATA    BYTE      dat
      000118ECH   SYMBOL    XDATA    INT       spi_n
      000118EEH   SYMBOL    XDATA    BYTE      register_name
      000118EFH   SYMBOL    XDATA    ---       dat
      000118F3H   SYMBOL    XDATA    DWORD     len
      00011C17H   SYMBOL    XDATA    INT       spi_n
      00011C19H   SYMBOL    XDATA    WORD      register_name
      00011C1BH   SYMBOL    XDATA    WORD      dat
      000117AAH   SYMBOL    XDATA    INT       spi_n
      000117ACH   SYMBOL    XDATA    WORD      register_name
      000117AEH   SYMBOL    XDATA    ---       dat
      00011DC3H   SYMBOL    XDATA    INT       spi_n
      0001194BH   SYMBOL    XDATA    INT       spi_n
      0001194DH   SYMBOL    XDATA    ---       dat
      00011951H   SYMBOL    XDATA    DWORD     len
      00011D45H   SYMBOL    XDATA    INT       spi_n
      00011D47H   SYMBOL    XDATA    WORD      dat
      00011955H   SYMBOL    XDATA    INT       spi_n
      00011957H   SYMBOL    XDATA    ---       dat
      0001195BH   SYMBOL    XDATA    DWORD     len
      00011D9AH   SYMBOL    XDATA    INT       spi_n
      00011D9CH   SYMBOL    XDATA    BYTE      register_name
      000118F7H   SYMBOL    XDATA    INT       spi_n
      000118F9H   SYMBOL    XDATA    BYTE      register_name
      000118FAH   SYMBOL    XDATA    ---       dat
      000118FEH   SYMBOL    XDATA    DWORD     len
      00011C1DH   SYMBOL    XDATA    INT       spi_n
      00011C1FH   SYMBOL    XDATA    WORD      register_name
      00011C21H   SYMBOL    XDATA    WORD      dat
      000117B6H   SYMBOL    XDATA    INT       spi_n
      000117B8H   SYMBOL    XDATA    WORD      register_name
      000117BAH   SYMBOL    XDATA    ---       dat
      000117BEH   SYMBOL    XDATA    DWORD     len
      00011624H   SYMBOL    XDATA    INT       spi_n
      00011626H   SYMBOL    XDATA    ---       write_buffer
      0001162AH   SYMBOL    XDATA    ---       read_buffer
L251 LINKER/LOCATER V4.66.93.0                                                        03/26/2026  19:04:27  PAGE 80


      0001162EH   SYMBOL    XDATA    DWORD     len
      00011632H   SYMBOL    XDATA    INT       spi_n
      00011634H   SYMBOL    XDATA    ---       write_buffer
      00011638H   SYMBOL    XDATA    ---       read_buffer
      0001163CH   SYMBOL    XDATA    DWORD     len

      00FF4AACH   BLOCK     CODE     ---       LVL=0
      00011368H   SYMBOL    XDATA    INT       spi_n
      0001136AH   SYMBOL    XDATA    INT       mode
      0001136CH   SYMBOL    XDATA    DWORD     baud
      00011370H   SYMBOL    XDATA    INT       sck_pin
      00011372H   SYMBOL    XDATA    INT       mosi_pin
      00011374H   SYMBOL    XDATA    INT       miso_pin
      00011376H   SYMBOL    XDATA    INT       cs_pin
      00FF4AC2H   BLOCK     CODE     NEAR LAB  LVL=1
      00011378H   SYMBOL    XDATA    DWORD     spi_psc
      ---         BLOCKEND  ---      ---       LVL=1
      00FF4AACH   LINE      CODE     ---       #465
      00FF4AC2H   LINE      CODE     ---       #466
      00FF4AC2H   LINE      CODE     ---       #468
      00FF4ACEH   LINE      CODE     ---       #470
      00FF4AEAH   LINE      CODE     ---       #472
      00FF4AFAH   LINE      CODE     ---       #474
      00FF4AFAH   LINE      CODE     ---       #476
      00FF4B13H   LINE      CODE     ---       #477
      00FF4B2CH   LINE      CODE     ---       #479
      00FF4B3AH   LINE      CODE     ---       #481
      00FF4B4FH   LINE      CODE     ---       #482
      00FF4B4FH   LINE      CODE     ---       #484
      00FF4B5DH   LINE      CODE     ---       #486
      00FF4B75H   LINE      CODE     ---       #487
      00FF4B75H   LINE      CODE     ---       #490
      00FF4B85H   LINE      CODE     ---       #492
      00FF4B96H   LINE      CODE     ---       #493
      00FF4BA7H   LINE      CODE     ---       #494
      00FF4BB5H   LINE      CODE     ---       #496
      00FF4BC6H   LINE      CODE     ---       #497
      00FF4BC6H   LINE      CODE     ---       #498
      00FF4BD4H   LINE      CODE     ---       #500
      00FF4BE5H   LINE      CODE     ---       #501
      00FF4BE5H   LINE      CODE     ---       #504
      00FF4BF4H   LINE      CODE     ---       #506
      00FF4BF7H   LINE      CODE     ---       #508
      00FF4C19H   LINE      CODE     ---       #510
      00FF4C19H   LINE      CODE     ---       #511
      00FF4C1DH   LINE      CODE     ---       #512
      00FF4C1FH   LINE      CODE     ---       #514
      00FF4C1FH   LINE      CODE     ---       #515
      00FF4C22H   LINE      CODE     ---       #516
      00FF4C24H   LINE      CODE     ---       #518
      00FF4C24H   LINE      CODE     ---       #519
      00FF4C27H   LINE      CODE     ---       #520
      00FF4C29H   LINE      CODE     ---       #522
      00FF4C29H   LINE      CODE     ---       #523
      00FF4C2CH   LINE      CODE     ---       #524
      00FF4C2CH   LINE      CODE     ---       #525
      00FF4C2CH   LINE      CODE     ---       #527
      00FF4C2FH   LINE      CODE     ---       #528
      00FF4C32H   LINE      CODE     ---       #529
      00FF4C35H   LINE      CODE     ---       #532
      00FF4C56H   LINE      CODE     ---       #534
      00FF4C59H   LINE      CODE     ---       #536
      00FF4C69H   LINE      CODE     ---       #538
      00FF4C6CH   LINE      CODE     ---       #539
      00FF4C6EH   LINE      CODE     ---       #540
L251 LINKER/LOCATER V4.66.93.0                                                        03/26/2026  19:04:27  PAGE 81


      00FF4C7EH   LINE      CODE     ---       #542
      00FF4C81H   LINE      CODE     ---       #543
      00FF4C83H   LINE      CODE     ---       #544
      00FF4C93H   LINE      CODE     ---       #546
      00FF4C97H   LINE      CODE     ---       #547
      00FF4C99H   LINE      CODE     ---       #550
      00FF4C9CH   LINE      CODE     ---       #551
      00FF4C9CH   LINE      CODE     ---       #554
      00FF4CB0H   LINE      CODE     ---       #556
      00FF4CB0H   LINE      CODE     ---       #557
      00FF4CB2H   LINE      CODE     ---       #559
      00FF4CB2H   LINE      CODE     ---       #560
      00FF4CB5H   LINE      CODE     ---       #561
      00FF4CB7H   LINE      CODE     ---       #563
      00FF4CB7H   LINE      CODE     ---       #564
      00FF4CBAH   LINE      CODE     ---       #565
      00FF4CBCH   LINE      CODE     ---       #567
      00FF4CBCH   LINE      CODE     ---       #568
      00FF4CBFH   LINE      CODE     ---       #569
      00FF4CBFH   LINE      CODE     ---       #570
      00FF4CBFH   LINE      CODE     ---       #572
      00FF4CC2H   LINE      CODE     ---       #573
      00FF4CC5H   LINE      CODE     ---       #574
      00FF4CD6H   LINE      CODE     ---       #583
      00FF4CEEH   LINE      CODE     ---       #586
      00FF4CF1H   LINE      CODE     ---       #588
      00FF4D13H   LINE      CODE     ---       #590
      00FF4D13H   LINE      CODE     ---       #591
      00FF4D17H   LINE      CODE     ---       #592
      00FF4D19H   LINE      CODE     ---       #594
      00FF4D19H   LINE      CODE     ---       #595
      00FF4D1CH   LINE      CODE     ---       #596
      00FF4D1EH   LINE      CODE     ---       #598
      00FF4D1EH   LINE      CODE     ---       #599
      00FF4D21H   LINE      CODE     ---       #600
      00FF4D23H   LINE      CODE     ---       #602
      00FF4D23H   LINE      CODE     ---       #603
      00FF4D26H   LINE      CODE     ---       #604
      00FF4D26H   LINE      CODE     ---       #605
      00FF4D26H   LINE      CODE     ---       #607
      00FF4D2AH   LINE      CODE     ---       #608
      00FF4D37H   LINE      CODE     ---       #612
      00FF4D58H   LINE      CODE     ---       #616
      00FF4D68H   LINE      CODE     ---       #618
      00FF4D7AH   LINE      CODE     ---       #619
      00FF4D7CH   LINE      CODE     ---       #620
      00FF4D8CH   LINE      CODE     ---       #622
      00FF4D9EH   LINE      CODE     ---       #623
      00FF4DA0H   LINE      CODE     ---       #626
      00FF4DAEH   LINE      CODE     ---       #627
      00FF4DAEH   LINE      CODE     ---       #635
      00FF4DC6H   LINE      CODE     ---       #637
      00FF4DC6H   LINE      CODE     ---       #638
      00FF4DD4H   LINE      CODE     ---       #639
      00FF4DD6H   LINE      CODE     ---       #641
      00FF4DD6H   LINE      CODE     ---       #642
      00FF4DE8H   LINE      CODE     ---       #643
      00FF4DEAH   LINE      CODE     ---       #645
      00FF4DEAH   LINE      CODE     ---       #646
      00FF4DFCH   LINE      CODE     ---       #647
      00FF4DFEH   LINE      CODE     ---       #649
      00FF4DFEH   LINE      CODE     ---       #650
      00FF4E10H   LINE      CODE     ---       #651
      00FF4E10H   LINE      CODE     ---       #652
      00FF4E10H   LINE      CODE     ---       #654
L251 LINKER/LOCATER V4.66.93.0                                                        03/26/2026  19:04:27  PAGE 82


      00FF4E22H   LINE      CODE     ---       #655
      00FF4E25H   LINE      CODE     ---       #656
      00FF4E36H   LINE      CODE     ---       #665
      00FF4E50H   LINE      CODE     ---       #667
      00FF4E53H   LINE      CODE     ---       #669
      00FF4E75H   LINE      CODE     ---       #671
      00FF4E75H   LINE      CODE     ---       #672
      00FF4E79H   LINE      CODE     ---       #673
      00FF4E7BH   LINE      CODE     ---       #675
      00FF4E7BH   LINE      CODE     ---       #676
      00FF4E7EH   LINE      CODE     ---       #677
      00FF4E80H   LINE      CODE     ---       #679
      00FF4E80H   LINE      CODE     ---       #680
      00FF4E83H   LINE      CODE     ---       #681
      00FF4E85H   LINE      CODE     ---       #683
      00FF4E85H   LINE      CODE     ---       #684
      00FF4E88H   LINE      CODE     ---       #685
      00FF4E88H   LINE      CODE     ---       #686
      00FF4E88H   LINE      CODE     ---       #688
      00FF4E8CH   LINE      CODE     ---       #689
      00FF4E99H   LINE      CODE     ---       #693
      00FF4EBAH   LINE      CODE     ---       #695
      00FF4ECAH   LINE      CODE     ---       #697
      00FF4EDCH   LINE      CODE     ---       #698
      00FF4EDEH   LINE      CODE     ---       #699
      00FF4EEEH   LINE      CODE     ---       #701
      00FF4F00H   LINE      CODE     ---       #702
      00FF4F02H   LINE      CODE     ---       #705
      00FF4F10H   LINE      CODE     ---       #706
      00FF4F10H   LINE      CODE     ---       #714
      00FF4F28H   LINE      CODE     ---       #716
      00FF4F28H   LINE      CODE     ---       #717
      00FF4F36H   LINE      CODE     ---       #718
      00FF4F38H   LINE      CODE     ---       #720
      00FF4F38H   LINE      CODE     ---       #721
      00FF4F4AH   LINE      CODE     ---       #722
      00FF4F4CH   LINE      CODE     ---       #724
      00FF4F4CH   LINE      CODE     ---       #725
      00FF4F5EH   LINE      CODE     ---       #726
      00FF4F60H   LINE      CODE     ---       #728
      00FF4F60H   LINE      CODE     ---       #729
      00FF4F72H   LINE      CODE     ---       #730
      00FF4F72H   LINE      CODE     ---       #731
      00FF4F72H   LINE      CODE     ---       #733
      00FF4F84H   LINE      CODE     ---       #734
      ---         BLOCKEND  ---      ---       LVL=0

      ---         MODULE    ---      ---       zf_driver_timer
      00FF8975H   PUBLIC    CODE     ---       timer_funciton_check
      000000D0H   SFRSYM    DATA     BYTE      PSW
      0000009DH   SFRSYM    DATA     BYTE      IRCBAND
      00000097H   SFRSYM    DATA     BYTE      AUXR2
      000000EFH   SFRSYM    DATA     BYTE      AUXINTIF
      000000FDH   SFRSYM    DATA     BYTE      S4CON
      000000ACH   SFRSYM    DATA     BYTE      S3CON
      0000009AH   SFRSYM    DATA     BYTE      S2CON
      000000B7H   SFRSYM    DATA     BYTE      IPH
      000000CDH   SFRSYM    DATA     BYTE      SPSTAT
      000000DDH   SFRSYM    DATA     BYTE      T4T3M
      000000C1H   SFRSYM    DATA     BYTE      WDT_CONTR
      000000DFH   SFRSYM    DATA     BYTE      IP3
      000000F4H   SFRSYM    DATA     BYTE      USBCON
      000000B5H   SFRSYM    DATA     BYTE      IP2
      000000FFH   SFRSYM    DATA     BYTE      RSTCFG
      000000C7H   SFRSYM    DATA     BYTE      IAP_CONTR
L251 LINKER/LOCATER V4.66.93.0                                                        03/26/2026  19:04:27  PAGE 83


      000000F9H   SFRSYM    DATA     BYTE      LINICR
      0000008EH   SFRSYM    DATA     BYTE      AUXR
      000000AFH   SFRSYM    DATA     BYTE      IE2
      00000088H   SFRSYM    DATA     BYTE      TCON
      00000089H   SFRSYM    DATA     BYTE      TMOD
      00000098H   SFRSYM    DATA     BYTE      SCON
      000000F1H   SFRSYM    DATA     BYTE      CANICR
      00000087H   SFRSYM    DATA     BYTE      PCON
      000000BCH   SFRSYM    DATA     BYTE      ADC_CONTR
      000000E7H   SFRSYM    DATA     BYTE      CMPCR2
      000000E6H   SFRSYM    DATA     BYTE      CMPCR1
      000000DEH   SFRSYM    DATA     BYTE      ADCCFG
      000000B8H   SFRSYM    DATA     BYTE      IP
      0000008FH   SFRSYM    DATA     BYTE      INTCLKO
      000000EEH   SFRSYM    DATA     BYTE      IP3H
      000000B6H   SFRSYM    DATA     BYTE      IP2H
      000000A8H   SFRSYM    DATA     BYTE      IE
      000000BBH   SFRSYM    DATA     BYTE      P_SW3
      000000BAH   SFRSYM    DATA     BYTE      P_SW2
      000000A2H   SFRSYM    DATA     BYTE      P_SW1
      000000CEH   SFRSYM    DATA     BYTE      SPCTL
      000000F8H   SFRSYM    DATA     BYTE      P7
      000000E8H   SFRSYM    DATA     BYTE      P6
      000000C8H   SFRSYM    DATA     BYTE      P5
      000000C0H   SFRSYM    DATA     BYTE      P4
      000000B0H   SFRSYM    DATA     BYTE      P3
      000000A0H   SFRSYM    DATA     BYTE      P2
      00000090H   SFRSYM    DATA     BYTE      P1
      00000080H   SFRSYM    DATA     BYTE      P0
      000117C2H   SYMBOL    XDATA    ---       timer_function_state

      00FF8975H   BLOCK     CODE     ---       LVL=0
      00011CCCH   SYMBOL    XDATA    INT       index
      00011CCEH   SYMBOL    XDATA    INT       mode
      00FF8981H   BLOCK     CODE     NEAR LAB  LVL=1
      00011CD0H   SYMBOL    XDATA    BYTE      return_state
      ---         BLOCKEND  ---      ---       LVL=1
      00FF8975H   LINE      CODE     ---       #58
      00FF8981H   LINE      CODE     ---       #59
      00FF8981H   LINE      CODE     ---       #60
      00FF8987H   LINE      CODE     ---       #61
      00FF89A4H   LINE      CODE     ---       #63
      00FF89C1H   LINE      CODE     ---       #64
      00FF89C3H   LINE      CODE     ---       #65
      00FF89E4H   LINE      CODE     ---       #67
      00FF89EAH   LINE      CODE     ---       #68
      00FF89ECH   LINE      CODE     ---       #71
      00FF89F1H   LINE      CODE     ---       #72
      00FF89F1H   LINE      CODE     ---       #73
      00FF89F5H   LINE      CODE     ---       #74
      ---         BLOCKEND  ---      ---       LVL=0

      ---         MODULE    ---      ---       zf_driver_uart
      00FF8013H   PUBLIC    CODE     ---       uart_rx_start_buff
      00FF6804H   PUBLIC    CODE     ---       uart_write_buffer
      00FF5298H   PUBLIC    CODE     ---       uart_init
      00FF8C59H   PUBLIC    CODE     ---       uart_rx_interrupt
      00FF952AH   PUBLIC    CODE     ---       uart_write_byte
      00FF6B8CH   PUBLIC    CODE     ---       uart_dma_init
      00FF89F6H   PUBLIC    CODE     ---       uart_funciton_check
      00FF84EFH   PUBLIC    CODE     ---       uart_query_byte
      000117D6H   PUBLIC    XDATA    ---       uart_rx_buff
      000117DAH   PUBLIC    XDATA    BYTE      ?uart_init?BYTE
      000000D0H   SFRSYM    DATA     BYTE      PSW
      0000009DH   SFRSYM    DATA     BYTE      IRCBAND
L251 LINKER/LOCATER V4.66.93.0                                                        03/26/2026  19:04:27  PAGE 84


      00000097H   SFRSYM    DATA     BYTE      AUXR2
      000000EFH   SFRSYM    DATA     BYTE      AUXINTIF
      000000FDH   SFRSYM    DATA     BYTE      S4CON
      000000ACH   SFRSYM    DATA     BYTE      S3CON
      0000009AH   SFRSYM    DATA     BYTE      S2CON
      000000B7H   SFRSYM    DATA     BYTE      IPH
      000000CDH   SFRSYM    DATA     BYTE      SPSTAT
      000000DDH   SFRSYM    DATA     BYTE      T4T3M
      000000C1H   SFRSYM    DATA     BYTE      WDT_CONTR
      00000088H.6 SFRSYM    DATA     BIT       TR1
      000000D7H   SFRSYM    DATA     BYTE      T2L
      000000D6H   SFRSYM    DATA     BYTE      T2H
      000000DFH   SFRSYM    DATA     BYTE      IP3
      000000F4H   SFRSYM    DATA     BYTE      USBCON
      000000B5H   SFRSYM    DATA     BYTE      IP2
      000000FFH   SFRSYM    DATA     BYTE      RSTCFG
      000000C7H   SFRSYM    DATA     BYTE      IAP_CONTR
      000000F9H   SFRSYM    DATA     BYTE      LINICR
      0000008EH   SFRSYM    DATA     BYTE      AUXR
      000000AFH   SFRSYM    DATA     BYTE      IE2
      00000088H   SFRSYM    DATA     BYTE      TCON
      00000089H   SFRSYM    DATA     BYTE      TMOD
      00000098H   SFRSYM    DATA     BYTE      SCON
      000000F1H   SFRSYM    DATA     BYTE      CANICR
      00000087H   SFRSYM    DATA     BYTE      PCON
      000000BCH   SFRSYM    DATA     BYTE      ADC_CONTR
      000000E7H   SFRSYM    DATA     BYTE      CMPCR2
      000000E6H   SFRSYM    DATA     BYTE      CMPCR1
      000000DEH   SFRSYM    DATA     BYTE      ADCCFG
      000000B8H   SFRSYM    DATA     BYTE      IP
      0000008FH   SFRSYM    DATA     BYTE      INTCLKO
      000000EEH   SFRSYM    DATA     BYTE      IP3H
      000000B6H   SFRSYM    DATA     BYTE      IP2H
      000000A8H   SFRSYM    DATA     BYTE      IE
      000000BBH   SFRSYM    DATA     BYTE      P_SW3
      000000BAH   SFRSYM    DATA     BYTE      P_SW2
      000000A2H   SFRSYM    DATA     BYTE      P_SW1
      000000CEH   SFRSYM    DATA     BYTE      SPCTL
      000000F8H   SFRSYM    DATA     BYTE      P7
      000000E8H   SFRSYM    DATA     BYTE      P6
      000000C8H   SFRSYM    DATA     BYTE      P5
      000000C0H   SFRSYM    DATA     BYTE      P4
      000000B0H   SFRSYM    DATA     BYTE      P3
      000000A0H   SFRSYM    DATA     BYTE      P2
      00000090H   SFRSYM    DATA     BYTE      P1
      00000080H   SFRSYM    DATA     BYTE      P0
      00FFA250H   SYMBOL    HCONST   ---       ?tpl?0001
      000117CEH   SYMBOL    XDATA    ---       uart_function_state

      00FF89F6H   BLOCK     CODE     ---       LVL=0
      00011CD1H   SYMBOL    XDATA    INT       index
      00011CD3H   SYMBOL    XDATA    INT       mode
      00FF8A02H   BLOCK     CODE     NEAR LAB  LVL=1
      00011CD5H   SYMBOL    XDATA    BYTE      return_state
      ---         BLOCKEND  ---      ---       LVL=1
      00FF89F6H   LINE      CODE     ---       #86
      00FF8A02H   LINE      CODE     ---       #87
      00FF8A02H   LINE      CODE     ---       #88
      00FF8A08H   LINE      CODE     ---       #89
      00FF8A25H   LINE      CODE     ---       #91
      00FF8A42H   LINE      CODE     ---       #92
      00FF8A44H   LINE      CODE     ---       #93
      00FF8A65H   LINE      CODE     ---       #95
      00FF8A6BH   LINE      CODE     ---       #96
      00FF8A6DH   LINE      CODE     ---       #99
L251 LINKER/LOCATER V4.66.93.0                                                        03/26/2026  19:04:27  PAGE 85


      00FF8A72H   LINE      CODE     ---       #100
      00FF8A72H   LINE      CODE     ---       #101
      00FF8A76H   LINE      CODE     ---       #102
      ---         BLOCKEND  ---      ---       LVL=0

      00FF6804H   BLOCK     CODE     ---       LVL=0
      00010CF7H   SYMBOL    XDATA    INT       uart_n
      00010CF9H   SYMBOL    XDATA    ---       buff
      00010CFDH   SYMBOL    XDATA    WORD      len
      00FF681AH   BLOCK     CODE     NEAR LAB  LVL=1
      00010CFFH   SYMBOL    XDATA    ---       tmp_buff
      00010D3FH   SYMBOL    XDATA    WORD      tmp_len
      ---         BLOCKEND  ---      ---       LVL=1
      00FF6804H   LINE      CODE     ---       #111
      00FF681AH   LINE      CODE     ---       #112
      00FF681AH   LINE      CODE     ---       #116
      00FF682FH   LINE      CODE     ---       #117
      00FF6837H   LINE      CODE     ---       #118
      00FF683AH   LINE      CODE     ---       #120
      00FF685AH   LINE      CODE     ---       #121
      00FF6879H   LINE      CODE     ---       #122
      00FF688AH   LINE      CODE     ---       #123
      00FF68A3H   LINE      CODE     ---       #126
      00FF68C3H   LINE      CODE     ---       #128
      00FF68EFH   LINE      CODE     ---       #129
      00FF691CH   LINE      CODE     ---       #130
      00FF6944H   LINE      CODE     ---       #131
      00FF6968H   LINE      CODE     ---       #132
      00FF6989H   LINE      CODE     ---       #134
      00FF69AAH   LINE      CODE     ---       #136
      00FF69CAH   LINE      CODE     ---       #137
      00FF69D9H   LINE      CODE     ---       #138
      ---         BLOCKEND  ---      ---       LVL=0
      00011B11H   SYMBOL    XDATA    INT       uart_n
      00011B13H   SYMBOL    XDATA    ---       str
      00011B17H   SYMBOL    XDATA    WORD      len

      00FF952AH   BLOCK     CODE     ---       LVL=0
      00011D9DH   SYMBOL    XDATA    INT       uart_n
      00011D9FH   SYMBOL    XDATA    BYTE      dat
      00FF952AH   LINE      CODE     ---       #159
      00FF9534H   LINE      CODE     ---       #161
      00FF9549H   LINE      CODE     ---       #162
      ---         BLOCKEND  ---      ---       LVL=0

      00FF8013H   BLOCK     CODE     ---       LVL=0
      00011DC5H   SYMBOL    XDATA    INT       uart_n
      00FF8013H   LINE      CODE     ---       #170
      00FF8019H   LINE      CODE     ---       #172
      00FF8039H   LINE      CODE     ---       #173
      00FF8057H   LINE      CODE     ---       #174
      00FF8083H   LINE      CODE     ---       #175
      00FF80B3H   LINE      CODE     ---       #176
      00FF80D4H   LINE      CODE     ---       #177
      ---         BLOCKEND  ---      ---       LVL=0

      00FF8C59H   BLOCK     CODE     ---       LVL=0
      00011DA0H   SYMBOL    XDATA    INT       uart_n
      00011DA2H   SYMBOL    XDATA    BYTE      status
      00FF8C59H   LINE      CODE     ---       #186
      00FF8C63H   LINE      CODE     ---       #188
      00FF8C6CH   LINE      CODE     ---       #190
      00FF8C94H   LINE      CODE     ---       #191
      00FF8C96H   LINE      CODE     ---       #194
      00FF8CBEH   LINE      CODE     ---       #195
L251 LINKER/LOCATER V4.66.93.0                                                        03/26/2026  19:04:27  PAGE 86


      00FF8CBEH   LINE      CODE     ---       #196
      ---         BLOCKEND  ---      ---       LVL=0
      00011DA3H   SYMBOL    XDATA    INT       uart_n
      00011DA5H   SYMBOL    XDATA    BYTE      dat

      00FF84EFH   BLOCK     CODE     ---       LVL=0
      00011BA7H   SYMBOL    XDATA    INT       uart_n
      00011BA9H   SYMBOL    XDATA    ---       dat
      00FF84FFH   BLOCK     CODE     NEAR LAB  LVL=1
      00011BADH   SYMBOL    XDATA    BYTE      ret
      ---         BLOCKEND  ---      ---       LVL=1
      00FF84EFH   LINE      CODE     ---       #230
      00FF84FFH   LINE      CODE     ---       #231
      00FF84FFH   LINE      CODE     ---       #232
      00FF8504H   LINE      CODE     ---       #235
      00FF8524H   LINE      CODE     ---       #237
      00FF854BH   LINE      CODE     ---       #239
      00FF8551H   LINE      CODE     ---       #241
      00FF8579H   LINE      CODE     ---       #242
      00FF857BH   LINE      CODE     ---       #245
      00FF8580H   LINE      CODE     ---       #246
      00FF8580H   LINE      CODE     ---       #249
      00FF8589H   LINE      CODE     ---       #251
      00FF858DH   LINE      CODE     ---       #252
      ---         BLOCKEND  ---      ---       LVL=0

      00FF6B8CH   BLOCK     CODE     ---       LVL=0
      00011DC7H   SYMBOL    XDATA    INT       uart_n
      00FF6B8CH   LINE      CODE     ---       #260
      00FF6B92H   LINE      CODE     ---       #262
      00FF6BB2H   LINE      CODE     ---       #263
      00FF6BD2H   LINE      CODE     ---       #264
      00FF6BF2H   LINE      CODE     ---       #266
      00FF6C12H   LINE      CODE     ---       #267
      00FF6C32H   LINE      CODE     ---       #268
      00FF6C52H   LINE      CODE     ---       #270
      00FF6C72H   LINE      CODE     ---       #271
      00FF6C90H   LINE      CODE     ---       #272
      00FF6CBCH   LINE      CODE     ---       #273
      00FF6CECH   LINE      CODE     ---       #274
      00FF6D0DH   LINE      CODE     ---       #275
      00FF6D2EH   LINE      CODE     ---       #277
      ---         BLOCKEND  ---      ---       LVL=0

      00FF5298H   BLOCK     CODE     ---       LVL=0
      000117DAH   SYMBOL    XDATA    INT       uart_n
      000117DCH   SYMBOL    XDATA    DWORD     baud
      000117E0H   SYMBOL    XDATA    INT       tx_pin
      000117E2H   SYMBOL    XDATA    INT       rx_pin
      00FF52AEH   BLOCK     CODE     NEAR LAB  LVL=1
      000117E4H   SYMBOL    XDATA    WORD      brt
      ---         BLOCKEND  ---      ---       LVL=1
      00FF5298H   LINE      CODE     ---       #289
      00FF52AEH   LINE      CODE     ---       #290
      00FF52AEH   LINE      CODE     ---       #299
      00FF52CAH   LINE      CODE     ---       #306
      00FF52E4H   LINE      CODE     ---       #311
      00FF531AH   LINE      CODE     ---       #314
      00FF5333H   LINE      CODE     ---       #315
      00FF534AH   LINE      CODE     ---       #317
      00FF5385H   LINE      CODE     ---       #319
      00FF53A9H   LINE      CODE     ---       #321
      00FF53A9H   LINE      CODE     ---       #335
      00FF53ACH   LINE      CODE     ---       #336
      00FF53B4H   LINE      CODE     ---       #337
L251 LINKER/LOCATER V4.66.93.0                                                        03/26/2026  19:04:27  PAGE 87


      00FF53C0H   LINE      CODE     ---       #338
      00FF53C3H   LINE      CODE     ---       #339
      00FF53C6H   LINE      CODE     ---       #342
      00FF53C9H   LINE      CODE     ---       #344
      00FF53E5H   LINE      CODE     ---       #346
      00FF53E9H   LINE      CODE     ---       #347
      00FF53ECH   LINE      CODE     ---       #348
      00FF5408H   LINE      CODE     ---       #350
      00FF540BH   LINE      CODE     ---       #351
      00FF540EH   LINE      CODE     ---       #352
      00FF542AH   LINE      CODE     ---       #354
      00FF542DH   LINE      CODE     ---       #355
      00FF5430H   LINE      CODE     ---       #356
      00FF5452H   LINE      CODE     ---       #358
      00FF5455H   LINE      CODE     ---       #359
      00FF5455H   LINE      CODE     ---       #362
      00FF5458H   LINE      CODE     ---       #365
      00FF5458H   LINE      CODE     ---       #369
      00FF545BH   LINE      CODE     ---       #370
      00FF5463H   LINE      CODE     ---       #371
      00FF546FH   LINE      CODE     ---       #372
      00FF5472H   LINE      CODE     ---       #375
      00FF5475H   LINE      CODE     ---       #377
      00FF5491H   LINE      CODE     ---       #379
      00FF5495H   LINE      CODE     ---       #380
      00FF5498H   LINE      CODE     ---       #381
      00FF54BAH   LINE      CODE     ---       #383
      00FF54BDH   LINE      CODE     ---       #384
      00FF54BDH   LINE      CODE     ---       #388
      00FF54C0H   LINE      CODE     ---       #391
      00FF54C0H   LINE      CODE     ---       #395
      00FF54C3H   LINE      CODE     ---       #396
      00FF54CBH   LINE      CODE     ---       #397
      00FF54D7H   LINE      CODE     ---       #398
      00FF54DAH   LINE      CODE     ---       #408
      00FF54DDH   LINE      CODE     ---       #410
      00FF54F9H   LINE      CODE     ---       #412
      00FF54FDH   LINE      CODE     ---       #413
      00FF5500H   LINE      CODE     ---       #414
      00FF551CH   LINE      CODE     ---       #416
      00FF551FH   LINE      CODE     ---       #417
      00FF551FH   LINE      CODE     ---       #421
      00FF5521H   LINE      CODE     ---       #424
      00FF5521H   LINE      CODE     ---       #428
      00FF5524H   LINE      CODE     ---       #429
      00FF552CH   LINE      CODE     ---       #430
      00FF5538H   LINE      CODE     ---       #431
      00FF553BH   LINE      CODE     ---       #441
      00FF553EH   LINE      CODE     ---       #443
      00FF555AH   LINE      CODE     ---       #445
      00FF555EH   LINE      CODE     ---       #446
      00FF5560H   LINE      CODE     ---       #447
      00FF557CH   LINE      CODE     ---       #451
      00FF557FH   LINE      CODE     ---       #452
      00FF557FH   LINE      CODE     ---       #456
      00FF557FH   LINE      CODE     ---       #459
      00FF557FH   LINE      CODE     ---       #462
      00FF5588H   LINE      CODE     ---       #464
      ---         BLOCKEND  ---      ---       LVL=0

      ---         MODULE    ---      ---       zf_device_ble6a20
      000000D0H   SFRSYM    DATA     BYTE      PSW
      0000009DH   SFRSYM    DATA     BYTE      IRCBAND
      00000097H   SFRSYM    DATA     BYTE      AUXR2
      000000EFH   SFRSYM    DATA     BYTE      AUXINTIF
L251 LINKER/LOCATER V4.66.93.0                                                        03/26/2026  19:04:27  PAGE 88


      000000FDH   SFRSYM    DATA     BYTE      S4CON
      000000ACH   SFRSYM    DATA     BYTE      S3CON
      0000009AH   SFRSYM    DATA     BYTE      S2CON
      000000B7H   SFRSYM    DATA     BYTE      IPH
      000000CDH   SFRSYM    DATA     BYTE      SPSTAT
      000000DDH   SFRSYM    DATA     BYTE      T4T3M
      000000C1H   SFRSYM    DATA     BYTE      WDT_CONTR
      000000DFH   SFRSYM    DATA     BYTE      IP3
      000000F4H   SFRSYM    DATA     BYTE      USBCON
      000000B5H   SFRSYM    DATA     BYTE      IP2
      000000FFH   SFRSYM    DATA     BYTE      RSTCFG
      000000C7H   SFRSYM    DATA     BYTE      IAP_CONTR
      000000F9H   SFRSYM    DATA     BYTE      LINICR
      0000008EH   SFRSYM    DATA     BYTE      AUXR
      000000AFH   SFRSYM    DATA     BYTE      IE2
      00000088H   SFRSYM    DATA     BYTE      TCON
      00000089H   SFRSYM    DATA     BYTE      TMOD
      00000098H   SFRSYM    DATA     BYTE      SCON
      000000F1H   SFRSYM    DATA     BYTE      CANICR
      00000087H   SFRSYM    DATA     BYTE      PCON
      000000BCH   SFRSYM    DATA     BYTE      ADC_CONTR
      000000E7H   SFRSYM    DATA     BYTE      CMPCR2
      000000E6H   SFRSYM    DATA     BYTE      CMPCR1
      000000DEH   SFRSYM    DATA     BYTE      ADCCFG
      000000B8H   SFRSYM    DATA     BYTE      IP
      0000008FH   SFRSYM    DATA     BYTE      INTCLKO
      000000EEH   SFRSYM    DATA     BYTE      IP3H
      000000B6H   SFRSYM    DATA     BYTE      IP2H
      000000A8H   SFRSYM    DATA     BYTE      IE
      000000BBH   SFRSYM    DATA     BYTE      P_SW3
      000000BAH   SFRSYM    DATA     BYTE      P_SW2
      000000A2H   SFRSYM    DATA     BYTE      P_SW1
      000000CEH   SFRSYM    DATA     BYTE      SPCTL
      000000F8H   SFRSYM    DATA     BYTE      P7
      000000E8H   SFRSYM    DATA     BYTE      P6
      000000C8H   SFRSYM    DATA     BYTE      P5
      000000C0H   SFRSYM    DATA     BYTE      P4
      000000B0H   SFRSYM    DATA     BYTE      P3
      000000A0H   SFRSYM    DATA     BYTE      P2
      00000090H   SFRSYM    DATA     BYTE      P1
      00000080H   SFRSYM    DATA     BYTE      P0
      00010B5EH   SYMBOL    XDATA    ---       ble6a20_buffer
      00010B9EH   SYMBOL    XDATA    ---       ble6a20_fifo
      00011DA6H   SYMBOL    XDATA    BYTE      dat
      00011DA7H   SYMBOL    XDATA    WORD      time_cnt
      000117E6H   SYMBOL    XDATA    ---       buff
      000117EAH   SYMBOL    XDATA    DWORD     len
      000117EEH   SYMBOL    XDATA    WORD      time_cnt
      000117F0H   SYMBOL    XDATA    WORD      send_len
      00011B19H   SYMBOL    XDATA    ---       str
      00011B1DH   SYMBOL    XDATA    DWORD     len
      000117F2H   SYMBOL    XDATA    ---       buff
      000117F6H   SYMBOL    XDATA    DWORD     len
      000117FAH   SYMBOL    XDATA    DWORD     data_len
      00011E04H   SYMBOL    XDATA    BYTE      uart_dat
      00011E05H   SYMBOL    XDATA    BYTE      return_state

      ---         MODULE    ---      ---       zf_device_config
      00FF01CEH   PUBLIC    CODE     ---       imu660ra_config_file

      ---         MODULE    ---      ---       zf_device_dl1a
      000116EBH   PUBLIC    XDATA    WORD      dl1a_distance_mm
      000116EDH   PUBLIC    XDATA    BYTE      dl1a_finsh_flag
      000000D0H   SFRSYM    DATA     BYTE      PSW
      0000009DH   SFRSYM    DATA     BYTE      IRCBAND
L251 LINKER/LOCATER V4.66.93.0                                                        03/26/2026  19:04:27  PAGE 89


      00000097H   SFRSYM    DATA     BYTE      AUXR2
      000000EFH   SFRSYM    DATA     BYTE      AUXINTIF
      000000FDH   SFRSYM    DATA     BYTE      S4CON
      000000ACH   SFRSYM    DATA     BYTE      S3CON
      0000009AH   SFRSYM    DATA     BYTE      S2CON
      000000B7H   SFRSYM    DATA     BYTE      IPH
      000000CDH   SFRSYM    DATA     BYTE      SPSTAT
      000000DDH   SFRSYM    DATA     BYTE      T4T3M
      000000C1H   SFRSYM    DATA     BYTE      WDT_CONTR
      000000DFH   SFRSYM    DATA     BYTE      IP3
      000000F4H   SFRSYM    DATA     BYTE      USBCON
      000000B5H   SFRSYM    DATA     BYTE      IP2
      000000FFH   SFRSYM    DATA     BYTE      RSTCFG
      000000C7H   SFRSYM    DATA     BYTE      IAP_CONTR
      000000F9H   SFRSYM    DATA     BYTE      LINICR
      0000008EH   SFRSYM    DATA     BYTE      AUXR
      000000AFH   SFRSYM    DATA     BYTE      IE2
      00000088H   SFRSYM    DATA     BYTE      TCON
      00000089H   SFRSYM    DATA     BYTE      TMOD
      00000098H   SFRSYM    DATA     BYTE      SCON
      000000F1H   SFRSYM    DATA     BYTE      CANICR
      00000087H   SFRSYM    DATA     BYTE      PCON
      000000BCH   SFRSYM    DATA     BYTE      ADC_CONTR
      000000E7H   SFRSYM    DATA     BYTE      CMPCR2
      000000E6H   SFRSYM    DATA     BYTE      CMPCR1
      000000DEH   SFRSYM    DATA     BYTE      ADCCFG
      000000B8H   SFRSYM    DATA     BYTE      IP
      0000008FH   SFRSYM    DATA     BYTE      INTCLKO
      000000EEH   SFRSYM    DATA     BYTE      IP3H
      000000B6H   SFRSYM    DATA     BYTE      IP2H
      000000A8H   SFRSYM    DATA     BYTE      IE
      000000BBH   SFRSYM    DATA     BYTE      P_SW3
      000000BAH   SFRSYM    DATA     BYTE      P_SW2
      000000A2H   SFRSYM    DATA     BYTE      P_SW1
      000000CEH   SFRSYM    DATA     BYTE      SPCTL
      000000F8H   SFRSYM    DATA     BYTE      P7
      000000E8H   SFRSYM    DATA     BYTE      P6
      000000C8H   SFRSYM    DATA     BYTE      P5
      000000C0H   SFRSYM    DATA     BYTE      P4
      000000B0H   SFRSYM    DATA     BYTE      P3
      000000A0H   SFRSYM    DATA     BYTE      P2
      00000090H   SFRSYM    DATA     BYTE      P1
      00000080H   SFRSYM    DATA     BYTE      P0
      00FF9D23H   SYMBOL    HCONST   ---       ?tpl?0001
      00FF9D2BH   SYMBOL    HCONST   ---       ?tpl?0002
      00FF9D31H   SYMBOL    HCONST   ---       ?tpl?0003
      00FF9D3BH   SYMBOL    HCONST   ---       ?tpl?0004
      000116E2H   SYMBOL    XDATA    ---       dl1a_iic_struct
      000116EEH   SYMBOL    XDATA    BYTE      dl1a_init_flag
      000117FEH   SYMBOL    XDATA    ---       index
      00011802H   SYMBOL    XDATA    ---       type_is_aperture
      00011806H   SYMBOL    XDATA    BYTE      tmp
      00011807H   SYMBOL    XDATA    BYTE      return_state
      00011808H   SYMBOL    XDATA    WORD      loop_count
      00011BAEH   SYMBOL    XDATA    WORD      timeout_period_mclks
      00011BB0H   SYMBOL    XDATA    BYTE      vcsel_period_pclks
      00011BB1H   SYMBOL    XDATA    DWORD     macro_period_ns
      000119AEH   SYMBOL    XDATA    DWORD     timeout_period_us
      000119B2H   SYMBOL    XDATA    BYTE      vcsel_period_pclks
      000119B3H   SYMBOL    XDATA    DWORD     macro_period_ns
      00011DC9H   SYMBOL    XDATA    WORD      reg_val
      00011DCBH   SYMBOL    XDATA    WORD      timeout_mclks
      00000008H   SYMBOL    EDATA    DWORD     ls_byte
      0000000CH   SYMBOL    EDATA    WORD      ms_byte
      0000000EH   SYMBOL    EDATA    WORD      return_data
L251 LINKER/LOCATER V4.66.93.0                                                        03/26/2026  19:04:27  PAGE 90


      00011CD6H   SYMBOL    XDATA    ---       enables
      00011CDAH   SYMBOL    XDATA    BYTE      sequence_config
      00011DA9H   SYMBOL    XDATA    INT       type
      00011DABH   SYMBOL    XDATA    BYTE      data_buffer
      0001180AH   SYMBOL    XDATA    ---       enables
      0001180EH   SYMBOL    XDATA    ---       timeouts
      00011812H   SYMBOL    XDATA    ---       reg_buffer
      00011814H   SYMBOL    XDATA    WORD      reg16_buffer
      00011CDBH   SYMBOL    XDATA    BYTE      vhv_init_byte
      00011CDCH   SYMBOL    XDATA    BYTE      return_state
      00011CDDH   SYMBOL    XDATA    BYTE      data_buffer
      00011CDEH   SYMBOL    XDATA    WORD      loop_count
      00010EFDH   SYMBOL    XDATA    DWORD     budget_us
      00010F01H   SYMBOL    XDATA    BYTE      return_state
      00010F02H   SYMBOL    XDATA    ---       data_buffer
      00010F05H   SYMBOL    XDATA    WORD      dat
      00010F07H   SYMBOL    XDATA    DWORD     final_range_timeout_us
      00010F0BH   SYMBOL    XDATA    WORD      final_range_timeout_mclks
      00010F0DH   SYMBOL    XDATA    ---       enables
      00010F12H   SYMBOL    XDATA    ---       timeouts
      00010F28H   SYMBOL    XDATA    DWORD     used_budget_us
      00011126H   SYMBOL    XDATA    ---       enables
      0001112BH   SYMBOL    XDATA    ---       timeouts
      00011141H   SYMBOL    XDATA    DWORD     budget_us
      000119B7H   SYMBOL    XDATA    FLOAT     limit_mcps
      000119BBH   SYMBOL    XDATA    ---       data_buffer
      000119BEH   SYMBOL    XDATA    WORD      limit_mcps_16bit
      00011DACH   SYMBOL    XDATA    ---       reg_databuffer
      00010830H   SYMBOL    XDATA    DWORD     measurement_timing_budget_us
      00010834H   SYMBOL    XDATA    BYTE      stop_variable
      00010835H   SYMBOL    XDATA    BYTE      return_state
      00010836H   SYMBOL    XDATA    BYTE      reg_data_buffer
      00010837H   SYMBOL    XDATA    ---       ref_spad_map
      0001083DH   SYMBOL    XDATA    ---       data_buffer
      00010844H   SYMBOL    XDATA    WORD      i
      00010846H   SYMBOL    XDATA    ---       temp_buff1
      0001084EH   SYMBOL    XDATA    ---       temp_buff2
      00010854H   SYMBOL    XDATA    ---       temp_buff3
      0001085EH   SYMBOL    XDATA    ---       temp_buff4

      ---         MODULE    ---      ---       zf_device_dl1b
      000116F8H   PUBLIC    XDATA    WORD      dl1b_distance_mm
      000116FAH   PUBLIC    XDATA    BYTE      dl1b_finsh_flag
      000000D0H   SFRSYM    DATA     BYTE      PSW
      0000009DH   SFRSYM    DATA     BYTE      IRCBAND
      00000097H   SFRSYM    DATA     BYTE      AUXR2
      000000EFH   SFRSYM    DATA     BYTE      AUXINTIF
      000000FDH   SFRSYM    DATA     BYTE      S4CON
      000000ACH   SFRSYM    DATA     BYTE      S3CON
      0000009AH   SFRSYM    DATA     BYTE      S2CON
      000000B7H   SFRSYM    DATA     BYTE      IPH
      000000CDH   SFRSYM    DATA     BYTE      SPSTAT
      000000DDH   SFRSYM    DATA     BYTE      T4T3M
      000000C1H   SFRSYM    DATA     BYTE      WDT_CONTR
      000000DFH   SFRSYM    DATA     BYTE      IP3
      000000F4H   SFRSYM    DATA     BYTE      USBCON
      000000B5H   SFRSYM    DATA     BYTE      IP2
      000000FFH   SFRSYM    DATA     BYTE      RSTCFG
      000000C7H   SFRSYM    DATA     BYTE      IAP_CONTR
      000000F9H   SFRSYM    DATA     BYTE      LINICR
      0000008EH   SFRSYM    DATA     BYTE      AUXR
      000000AFH   SFRSYM    DATA     BYTE      IE2
      00000088H   SFRSYM    DATA     BYTE      TCON
      00000089H   SFRSYM    DATA     BYTE      TMOD
      00000098H   SFRSYM    DATA     BYTE      SCON
L251 LINKER/LOCATER V4.66.93.0                                                        03/26/2026  19:04:27  PAGE 91


      000000F1H   SFRSYM    DATA     BYTE      CANICR
      00000087H   SFRSYM    DATA     BYTE      PCON
      000000BCH   SFRSYM    DATA     BYTE      ADC_CONTR
      000000E7H   SFRSYM    DATA     BYTE      CMPCR2
      000000E6H   SFRSYM    DATA     BYTE      CMPCR1
      000000DEH   SFRSYM    DATA     BYTE      ADCCFG
      000000B8H   SFRSYM    DATA     BYTE      IP
      0000008FH   SFRSYM    DATA     BYTE      INTCLKO
      000000EEH   SFRSYM    DATA     BYTE      IP3H
      000000B6H   SFRSYM    DATA     BYTE      IP2H
      000000A8H   SFRSYM    DATA     BYTE      IE
      000000BBH   SFRSYM    DATA     BYTE      P_SW3
      000000BAH   SFRSYM    DATA     BYTE      P_SW2
      000000A2H   SFRSYM    DATA     BYTE      P_SW1
      000000CEH   SFRSYM    DATA     BYTE      SPCTL
      000000F8H   SFRSYM    DATA     BYTE      P7
      000000E8H   SFRSYM    DATA     BYTE      P6
      000000C8H   SFRSYM    DATA     BYTE      P5
      000000C0H   SFRSYM    DATA     BYTE      P4
      000000B0H   SFRSYM    DATA     BYTE      P3
      000000A0H   SFRSYM    DATA     BYTE      P2
      00000090H   SFRSYM    DATA     BYTE      P1
      00000080H   SFRSYM    DATA     BYTE      P0
      000116EFH   SYMBOL    XDATA    ---       dl1b_iic_struct
      000116FBH   SYMBOL    XDATA    BYTE      dl1b_init_flag
      00011CE0H   SYMBOL    XDATA    ---       data_buffer
      00011CE3H   SYMBOL    XDATA    INT       dl1b_distance_temp
      00011E06H   SYMBOL    XDATA    BYTE      return_state

      ---         MODULE    ---      ---       zf_device_gps_tau1201
      00010423H   PUBLIC    XDATA    BYTE      gps_tau1201_flag
      000104A4H   PUBLIC    XDATA    ---       gps_tau1201
      000105D0H   PUBLIC    XDATA    INT       gps_gga_state
      000105D2H   PUBLIC    XDATA    INT       gps_rmc_state
      00010E3DH   PUBLIC    XDATA    BYTE      ?get_two_points_distance?BYTE
      000111DCH   PUBLIC    XDATA    BYTE      ?get_two_points_azimuth?BYTE
      000000D0H   SFRSYM    DATA     BYTE      PSW
      0000009DH   SFRSYM    DATA     BYTE      IRCBAND
      00000097H   SFRSYM    DATA     BYTE      AUXR2
      000000EFH   SFRSYM    DATA     BYTE      AUXINTIF
      000000FDH   SFRSYM    DATA     BYTE      S4CON
      000000ACH   SFRSYM    DATA     BYTE      S3CON
      0000009AH   SFRSYM    DATA     BYTE      S2CON
      000000B7H   SFRSYM    DATA     BYTE      IPH
      000000CDH   SFRSYM    DATA     BYTE      SPSTAT
      000000DDH   SFRSYM    DATA     BYTE      T4T3M
      000000C1H   SFRSYM    DATA     BYTE      WDT_CONTR
      000000DFH   SFRSYM    DATA     BYTE      IP3
      000000F4H   SFRSYM    DATA     BYTE      USBCON
      000000B5H   SFRSYM    DATA     BYTE      IP2
      000000FFH   SFRSYM    DATA     BYTE      RSTCFG
      000000C7H   SFRSYM    DATA     BYTE      IAP_CONTR
      000000F9H   SFRSYM    DATA     BYTE      LINICR
      0000008EH   SFRSYM    DATA     BYTE      AUXR
      000000AFH   SFRSYM    DATA     BYTE      IE2
      00000088H   SFRSYM    DATA     BYTE      TCON
      00000089H   SFRSYM    DATA     BYTE      TMOD
      00000098H   SFRSYM    DATA     BYTE      SCON
      000000F1H   SFRSYM    DATA     BYTE      CANICR
      00000087H   SFRSYM    DATA     BYTE      PCON
      000000BCH   SFRSYM    DATA     BYTE      ADC_CONTR
      000000E7H   SFRSYM    DATA     BYTE      CMPCR2
      000000E6H   SFRSYM    DATA     BYTE      CMPCR1
      000000DEH   SFRSYM    DATA     BYTE      ADCCFG
      000000B8H   SFRSYM    DATA     BYTE      IP
L251 LINKER/LOCATER V4.66.93.0                                                        03/26/2026  19:04:27  PAGE 92


      0000008FH   SFRSYM    DATA     BYTE      INTCLKO
      000000EEH   SFRSYM    DATA     BYTE      IP3H
      000000B6H   SFRSYM    DATA     BYTE      IP2H
      000000A8H   SFRSYM    DATA     BYTE      IE
      000000BBH   SFRSYM    DATA     BYTE      P_SW3
      000000BAH   SFRSYM    DATA     BYTE      P_SW2
      000000A2H   SFRSYM    DATA     BYTE      P_SW1
      000000CEH   SFRSYM    DATA     BYTE      SPCTL
      000000F8H   SFRSYM    DATA     BYTE      P7
      000000E8H   SFRSYM    DATA     BYTE      P6
      000000C8H   SFRSYM    DATA     BYTE      P5
      000000C0H   SFRSYM    DATA     BYTE      P4
      000000B0H   SFRSYM    DATA     BYTE      P3
      000000A0H   SFRSYM    DATA     BYTE      P2
      00000090H   SFRSYM    DATA     BYTE      P1
      00000080H   SFRSYM    DATA     BYTE      P0
      00FF9FFEH   SYMBOL    HCONST   ---       ?tpl?0001
      00FFA003H   SYMBOL    HCONST   ---       ?tpl?0002
      00FFA01FH   SYMBOL    HCONST   ---       ?tpl?0003
      00FFA02AH   SYMBOL    HCONST   ---       ?tpl?0004
      00FFA035H   SYMBOL    HCONST   ---       ?tpl?0005
      00FFA040H   SYMBOL    HCONST   ---       ?tpl?0006
      00FFA04BH   SYMBOL    HCONST   ---       ?tpl?0007
      00FFA056H   SYMBOL    HCONST   ---       ?tpl?0008
      00FFA061H   SYMBOL    HCONST   ---       ?tpl?0009
      00FFA06CH   SYMBOL    HCONST   ---       ?tpl?000A
      00FFA077H   SYMBOL    HCONST   ---       ?tpl?000B
      00FFA082H   SYMBOL    HCONST   ---       ?tpl?000C
      00FFA08DH   SYMBOL    HCONST   ---       ?tpl?000D
      0001040CH   SYMBOL    XDATA    ---       gps_tau1201_receiver_fifo
      00010424H   SYMBOL    XDATA    ---       gps_gga_buffer
      000104CFH   SYMBOL    XDATA    BYTE      gps_tau1201_state
      000104D0H   SYMBOL    XDATA    ---       gps_rmc_buffer
      00010550H   SYMBOL    XDATA    ---       gps_tau1201_receiver_buffer
      000116FCH   SYMBOL    XDATA    BYTE      num
      000116FDH   SYMBOL    XDATA    ---       str
      00011701H   SYMBOL    XDATA    BYTE      i
      00011702H   SYMBOL    XDATA    BYTE      j
      00011703H   SYMBOL    XDATA    ---       temp
      00011707H   SYMBOL    XDATA    BYTE      len
      00011708H   SYMBOL    XDATA    BYTE      len1
      00011481H   SYMBOL    XDATA    ---       s
      00011485H   SYMBOL    XDATA    ---       buf
      0001148FH   SYMBOL    XDATA    BYTE      i
      00011490H   SYMBOL    XDATA    INT       return_value
      000112AAH   SYMBOL    XDATA    ---       s
      000112AEH   SYMBOL    XDATA    BYTE      i
      000112AFH   SYMBOL    XDATA    ---       buf
      000112BEH   SYMBOL    XDATA    FLOAT     return_value
      000112C2H   SYMBOL    XDATA    ---       s
      000112C6H   SYMBOL    XDATA    BYTE      i
      000112C7H   SYMBOL    XDATA    ---       buf
      000112D6H   SYMBOL    XDATA    FLOAT     return_value
      00011CE5H   SYMBOL    XDATA    ---       time
      00011CE9H   SYMBOL    XDATA    BYTE      day_num
      00010FB0H   SYMBOL    XDATA    ---       line
      00010FB4H   SYMBOL    XDATA    ---       gps
      00010FB8H   SYMBOL    XDATA    BYTE      state
      00010FB9H   SYMBOL    XDATA    BYTE      temp
      00010FBAH   SYMBOL    XDATA    FLOAT     latitude
      00010FBEH   SYMBOL    XDATA    FLOAT     longitude
      00010FC2H   SYMBOL    XDATA    FLOAT     lati_cent_tmp
      00010FC6H   SYMBOL    XDATA    FLOAT     lati_second_tmp
      00010FCAH   SYMBOL    XDATA    FLOAT     long_cent_tmp
      00010FCEH   SYMBOL    XDATA    FLOAT     long_second_tmp
L251 LINKER/LOCATER V4.66.93.0                                                        03/26/2026  19:04:27  PAGE 93


      00010FD2H   SYMBOL    XDATA    FLOAT     speed_tmp
      00010FD6H   SYMBOL    XDATA    ---       buf
      00010FDAH   SYMBOL    XDATA    BYTE      return_state
      00011640H   SYMBOL    XDATA    ---       line
      00011644H   SYMBOL    XDATA    ---       gps
      00011648H   SYMBOL    XDATA    BYTE      state
      00011649H   SYMBOL    XDATA    ---       buf
      0001164DH   SYMBOL    XDATA    BYTE      return_state
      00010E3DH   SYMBOL    XDATA    FLOAT     latitude1
      00010E41H   SYMBOL    XDATA    FLOAT     longitude1
      00010E45H   SYMBOL    XDATA    FLOAT     latitude2
      00010E49H   SYMBOL    XDATA    FLOAT     longitude2
      00010E4DH   SYMBOL    XDATA    FLOAT     EARTH_RADIUS
      00010E51H   SYMBOL    XDATA    FLOAT     rad_latitude1
      00010E55H   SYMBOL    XDATA    FLOAT     rad_latitude2
      00010E59H   SYMBOL    XDATA    FLOAT     rad_longitude1
      00010E5DH   SYMBOL    XDATA    FLOAT     rad_longitude2
      00010E61H   SYMBOL    XDATA    FLOAT     distance
      00010E65H   SYMBOL    XDATA    FLOAT     a
      00010E69H   SYMBOL    XDATA    FLOAT     b
      000111DCH   SYMBOL    XDATA    FLOAT     latitude1
      000111E0H   SYMBOL    XDATA    FLOAT     longitude1
      000111E4H   SYMBOL    XDATA    FLOAT     latitude2
      000111E8H   SYMBOL    XDATA    FLOAT     longitude2
      000111ECH   SYMBOL    XDATA    FLOAT     x
      000111F0H   SYMBOL    XDATA    FLOAT     y
      000111F4H   SYMBOL    XDATA    FLOAT     angle
      00011816H   SYMBOL    XDATA    BYTE      return_state
      00011817H   SYMBOL    XDATA    ---       check_buffer
      0001181CH   SYMBOL    XDATA    BYTE      bbc_xor_origin
      0001181DH   SYMBOL    XDATA    BYTE      bbc_xor_calculation
      0001181EH   SYMBOL    XDATA    DWORD     data_len
      00011902H   SYMBOL    XDATA    BYTE      uart_dat
      00011903H   SYMBOL    XDATA    ---       temp_gps
      00011909H   SYMBOL    XDATA    DWORD     temp_length
      000108FEH   SYMBOL    XDATA    ---       set_rate
      0001091AH   SYMBOL    XDATA    ---       open_gga
      00010925H   SYMBOL    XDATA    ---       open_rmc
      00010930H   SYMBOL    XDATA    ---       close_gll
      0001093BH   SYMBOL    XDATA    ---       close_gsa
      00010946H   SYMBOL    XDATA    ---       close_grs
      00010951H   SYMBOL    XDATA    ---       close_gsv
      0001095CH   SYMBOL    XDATA    ---       close_vtg
      00010967H   SYMBOL    XDATA    ---       close_zda
      00010972H   SYMBOL    XDATA    ---       close_gst
      0001097DH   SYMBOL    XDATA    ---       close_txt
      00010988H   SYMBOL    XDATA    ---       close_txt_ant

      ---         MODULE    ---      ---       zf_device_icm20602
      0001137CH   PUBLIC    XDATA    INT       icm20602_acc_x
      0001137EH   PUBLIC    XDATA    INT       icm20602_acc_y
      00011380H   PUBLIC    XDATA    INT       icm20602_acc_z
      00011382H   PUBLIC    XDATA    INT       icm20602_gyro_x
      00011384H   PUBLIC    XDATA    INT       icm20602_gyro_y
      00011386H   PUBLIC    XDATA    INT       icm20602_gyro_z
      00011388H   PUBLIC    XDATA    ---       icm20602_transition_factor
      000000D0H   SFRSYM    DATA     BYTE      PSW
      0000009DH   SFRSYM    DATA     BYTE      IRCBAND
      00000097H   SFRSYM    DATA     BYTE      AUXR2
      000000EFH   SFRSYM    DATA     BYTE      AUXINTIF
      000000FDH   SFRSYM    DATA     BYTE      S4CON
      000000ACH   SFRSYM    DATA     BYTE      S3CON
      0000009AH   SFRSYM    DATA     BYTE      S2CON
      000000B7H   SFRSYM    DATA     BYTE      IPH
      000000CDH   SFRSYM    DATA     BYTE      SPSTAT
L251 LINKER/LOCATER V4.66.93.0                                                        03/26/2026  19:04:27  PAGE 94


      000000DDH   SFRSYM    DATA     BYTE      T4T3M
      000000C1H   SFRSYM    DATA     BYTE      WDT_CONTR
      000000DFH   SFRSYM    DATA     BYTE      IP3
      000000F4H   SFRSYM    DATA     BYTE      USBCON
      000000B5H   SFRSYM    DATA     BYTE      IP2
      000000FFH   SFRSYM    DATA     BYTE      RSTCFG
      000000C7H   SFRSYM    DATA     BYTE      IAP_CONTR
      000000F9H   SFRSYM    DATA     BYTE      LINICR
      0000008EH   SFRSYM    DATA     BYTE      AUXR
      000000AFH   SFRSYM    DATA     BYTE      IE2
      000000C0H.3 SFRSYM    DATA     BIT       P43
      000000C0H.2 SFRSYM    DATA     BIT       P42
      00000088H   SFRSYM    DATA     BYTE      TCON
      00000089H   SFRSYM    DATA     BYTE      TMOD
      000000C0H.1 SFRSYM    DATA     BIT       P41
      00000098H   SFRSYM    DATA     BYTE      SCON
      000000C0H.0 SFRSYM    DATA     BIT       P40
      000000F1H   SFRSYM    DATA     BYTE      CANICR
      00000087H   SFRSYM    DATA     BYTE      PCON
      000000BCH   SFRSYM    DATA     BYTE      ADC_CONTR
      000000E7H   SFRSYM    DATA     BYTE      CMPCR2
      000000E6H   SFRSYM    DATA     BYTE      CMPCR1
      000000DEH   SFRSYM    DATA     BYTE      ADCCFG
      000000B8H   SFRSYM    DATA     BYTE      IP
      0000008FH   SFRSYM    DATA     BYTE      INTCLKO
      000000EEH   SFRSYM    DATA     BYTE      IP3H
      000000B6H   SFRSYM    DATA     BYTE      IP2H
      000000A8H   SFRSYM    DATA     BYTE      IE
      000000BBH   SFRSYM    DATA     BYTE      P_SW3
      000000BAH   SFRSYM    DATA     BYTE      P_SW2
      000000A2H   SFRSYM    DATA     BYTE      P_SW1
      000000CEH   SFRSYM    DATA     BYTE      SPCTL
      000000F8H   SFRSYM    DATA     BYTE      P7
      000000E8H   SFRSYM    DATA     BYTE      P6
      000000C8H   SFRSYM    DATA     BYTE      P5
      000000C0H   SFRSYM    DATA     BYTE      P4
      000000B0H   SFRSYM    DATA     BYTE      P3
      000000A0H   SFRSYM    DATA     BYTE      P2
      00000090H   SFRSYM    DATA     BYTE      P1
      00000080H   SFRSYM    DATA     BYTE      P0
      00011DCDH   SYMBOL    XDATA    BYTE      byte
      00011DCEH   SYMBOL    XDATA    BYTE      i
      00011DCFH   SYMBOL    XDATA    BYTE      cmd
      00011DD0H   SYMBOL    XDATA    BYTE      val
      00011CEAH   SYMBOL    XDATA    BYTE      cmd
      00011CEBH   SYMBOL    XDATA    ---       val
      000119C0H   SYMBOL    XDATA    BYTE      cmd
      000119C1H   SYMBOL    XDATA    ---       val
      000119C5H   SYMBOL    XDATA    DWORD     num
      00000010H   SYMBOL    EDATA    DWORD     i
      00011DD1H   SYMBOL    XDATA    BYTE      reg
      00011DD2H   SYMBOL    XDATA    BYTE      dat
      00011DD3H   SYMBOL    XDATA    BYTE      reg
      00011DD4H   SYMBOL    XDATA    BYTE      dat
      000119C9H   SYMBOL    XDATA    BYTE      reg
      000119CAH   SYMBOL    XDATA    ---       dat
      000119CEH   SYMBOL    XDATA    DWORD     len
      00011D49H   SYMBOL    XDATA    BYTE      dat
      00011D4AH   SYMBOL    XDATA    BYTE      return_state
      00011D4BH   SYMBOL    XDATA    WORD      timeout_count
      00011C23H   SYMBOL    XDATA    ---       dat
      00011C29H   SYMBOL    XDATA    ---       dat
      00011D4DH   SYMBOL    XDATA    BYTE      val
      00011D4EH   SYMBOL    XDATA    BYTE      return_state
      00011D4FH   SYMBOL    XDATA    WORD      timeout_count
L251 LINKER/LOCATER V4.66.93.0                                                        03/26/2026  19:04:27  PAGE 95



      ---         MODULE    ---      ---       zf_device_imu660ra
      00FF6425H   PUBLIC    CODE     ---       imu660ra_init
      00011390H   PUBLIC    XDATA    INT       imu660ra_acc_x
      00011392H   PUBLIC    XDATA    INT       imu660ra_acc_y
      00011394H   PUBLIC    XDATA    INT       imu660ra_acc_z
      00011396H   PUBLIC    XDATA    INT       imu660ra_gyro_x
      00011398H   PUBLIC    XDATA    INT       imu660ra_gyro_y
      0001139AH   PUBLIC    XDATA    INT       imu660ra_gyro_z
      0001139CH   PUBLIC    XDATA    ---       imu660ra_transition_factor
      000000D0H   SFRSYM    DATA     BYTE      PSW
      0000009DH   SFRSYM    DATA     BYTE      IRCBAND
      00000097H   SFRSYM    DATA     BYTE      AUXR2
      000000EFH   SFRSYM    DATA     BYTE      AUXINTIF
      000000FDH   SFRSYM    DATA     BYTE      S4CON
      000000ACH   SFRSYM    DATA     BYTE      S3CON
      0000009AH   SFRSYM    DATA     BYTE      S2CON
      000000B7H   SFRSYM    DATA     BYTE      IPH
      000000CDH   SFRSYM    DATA     BYTE      SPSTAT
      000000DDH   SFRSYM    DATA     BYTE      T4T3M
      000000C1H   SFRSYM    DATA     BYTE      WDT_CONTR
      000000DFH   SFRSYM    DATA     BYTE      IP3
      000000F4H   SFRSYM    DATA     BYTE      USBCON
      000000B5H   SFRSYM    DATA     BYTE      IP2
      000000FFH   SFRSYM    DATA     BYTE      RSTCFG
      000000C7H   SFRSYM    DATA     BYTE      IAP_CONTR
      000000F9H   SFRSYM    DATA     BYTE      LINICR
      0000008EH   SFRSYM    DATA     BYTE      AUXR
      000000AFH   SFRSYM    DATA     BYTE      IE2
      000000C0H.3 SFRSYM    DATA     BIT       P43
      000000C0H.2 SFRSYM    DATA     BIT       P42
      00000088H   SFRSYM    DATA     BYTE      TCON
      00000089H   SFRSYM    DATA     BYTE      TMOD
      000000C0H.1 SFRSYM    DATA     BIT       P41
      00000098H   SFRSYM    DATA     BYTE      SCON
      000000C0H.0 SFRSYM    DATA     BIT       P40
      000000F1H   SFRSYM    DATA     BYTE      CANICR
      00000087H   SFRSYM    DATA     BYTE      PCON
      000000BCH   SFRSYM    DATA     BYTE      ADC_CONTR
      000000E7H   SFRSYM    DATA     BYTE      CMPCR2
      000000E6H   SFRSYM    DATA     BYTE      CMPCR1
      000000DEH   SFRSYM    DATA     BYTE      ADCCFG
      000000B8H   SFRSYM    DATA     BYTE      IP
      0000008FH   SFRSYM    DATA     BYTE      INTCLKO
      000000EEH   SFRSYM    DATA     BYTE      IP3H
      000000B6H   SFRSYM    DATA     BYTE      IP2H
      000000A8H   SFRSYM    DATA     BYTE      IE
      000000BBH   SFRSYM    DATA     BYTE      P_SW3
      000000BAH   SFRSYM    DATA     BYTE      P_SW2
      000000A2H   SFRSYM    DATA     BYTE      P_SW1
      000000CEH   SFRSYM    DATA     BYTE      SPCTL
      000000F8H   SFRSYM    DATA     BYTE      P7
      000000E8H   SFRSYM    DATA     BYTE      P6
      000000C8H   SFRSYM    DATA     BYTE      P5
      000000C0H   SFRSYM    DATA     BYTE      P4
      000000B0H   SFRSYM    DATA     BYTE      P3
      000000A0H   SFRSYM    DATA     BYTE      P2
      00000090H   SFRSYM    DATA     BYTE      P1
      00000080H   SFRSYM    DATA     BYTE      P0
      00FF9403H   SYMBOL    CODE     ---       imu660ra_read_register
      00FF939DH   SYMBOL    CODE     ---       imu660ra_write_registers
      00FF9568H   SYMBOL    CODE     ---       imu660ra_write_register
      00FF8F4BH   SYMBOL    CODE     ---       imu660ra_simspi_wr_byte
      00FF8D24H   SYMBOL    CODE     ---       imu660ra_self_check
      00FF8BE9H   SYMBOL    CODE     ---       imu660ra_simspi_r_reg_bytes
L251 LINKER/LOCATER V4.66.93.0                                                        03/26/2026  19:04:27  PAGE 96


      00FF8E42H   SYMBOL    CODE     ---       imu660ra_simspi_w_reg_bytes
      00FF0026H   SYMBOL    CODE     ---       imu660ra_simspi_w_reg_byte

      00FF8F4BH   BLOCK     CODE     ---       LVL=0
      00011DD5H   SYMBOL    XDATA    BYTE      byte
      00FF8F4FH   BLOCK     CODE     NEAR LAB  LVL=1
      00011DD6H   SYMBOL    XDATA    BYTE      i
      ---         BLOCKEND  ---      ---       LVL=1
      00FF8F4BH   LINE      CODE     ---       #160
      00FF8F4FH   LINE      CODE     ---       #161
      00FF8F4FH   LINE      CODE     ---       #163
      00FF8F56H   LINE      CODE     ---       #165
      00FF8F59H   LINE      CODE     ---       #166
      00FF8F68H   LINE      CODE     ---       #167
      00FF8F6FH   LINE      CODE     ---       #168
      00FF8F72H   LINE      CODE     ---       #169
      00FF8F7FH   LINE      CODE     ---       #170
      00FF8F96H   LINE      CODE     ---       #171
      00FF8F99H   LINE      CODE     ---       #172
      00FF8F9DH   LINE      CODE     ---       #173
      ---         BLOCKEND  ---      ---       LVL=0

      00FF0026H   BLOCK     CODE     ---       LVL=0
      00011DD7H   SYMBOL    XDATA    BYTE      cmd
      00011DD8H   SYMBOL    XDATA    BYTE      val
      00FF0026H   LINE      CODE     ---       #182
      00FF0030H   LINE      CODE     ---       #184
      00FF0034H   LINE      CODE     ---       #185
      00FF003BH   LINE      CODE     ---       #186
      00FF0042H   LINE      CODE     ---       #187
      ---         BLOCKEND  ---      ---       LVL=0

      00FF8E42H   BLOCK     CODE     ---       LVL=0
      000119D2H   SYMBOL    XDATA    BYTE      cmd
      000119D3H   SYMBOL    XDATA    ---       dat_addr
      000119D7H   SYMBOL    XDATA    DWORD     len
      00FF8E42H   LINE      CODE     ---       #197
      00FF8E5AH   LINE      CODE     ---       #199
      00FF8E5EH   LINE      CODE     ---       #200
      00FF8E65H   LINE      CODE     ---       #201
      00FF8E67H   LINE      CODE     ---       #203
      00FF8E80H   LINE      CODE     ---       #204
      00FF8E9DH   LINE      CODE     ---       #205
      ---         BLOCKEND  ---      ---       LVL=0

      00FF8BE9H   BLOCK     CODE     ---       LVL=0
      000119DBH   SYMBOL    XDATA    BYTE      cmd
      000119DCH   SYMBOL    XDATA    ---       val
      000119E0H   SYMBOL    XDATA    DWORD     num
      00FF8BE9H   LINE      CODE     ---       #215
      00FF8C01H   LINE      CODE     ---       #217
      00FF8C0BH   LINE      CODE     ---       #218
      00FF8C12H   LINE      CODE     ---       #219
      00FF8C14H   LINE      CODE     ---       #221
      00FF8C3BH   LINE      CODE     ---       #222
      00FF8C58H   LINE      CODE     ---       #223
      ---         BLOCKEND  ---      ---       LVL=0

      00FF9568H   BLOCK     CODE     ---       LVL=0
      00011DD9H   SYMBOL    XDATA    BYTE      reg
      00011DDAH   SYMBOL    XDATA    BYTE      dat
      00FF9568H   LINE      CODE     ---       #234
      00FF9572H   LINE      CODE     ---       #236
      00FF9575H   LINE      CODE     ---       #237
      00FF9582H   LINE      CODE     ---       #238
L251 LINKER/LOCATER V4.66.93.0                                                        03/26/2026  19:04:27  PAGE 97


      00FF9585H   LINE      CODE     ---       #239
      ---         BLOCKEND  ---      ---       LVL=0

      00FF939DH   BLOCK     CODE     ---       LVL=0
      000119E4H   SYMBOL    XDATA    BYTE      reg
      000119E5H   SYMBOL    XDATA    ---       dat
      000119E9H   SYMBOL    XDATA    DWORD     len
      00FF939DH   LINE      CODE     ---       #249
      00FF93B5H   LINE      CODE     ---       #251
      00FF93B8H   LINE      CODE     ---       #252
      00FF93D3H   LINE      CODE     ---       #253
      00FF93D6H   LINE      CODE     ---       #254
      ---         BLOCKEND  ---      ---       LVL=0

      00FF9403H   BLOCK     CODE     ---       LVL=0
      00011DAFH   SYMBOL    XDATA    BYTE      reg
      00FF9407H   BLOCK     CODE     NEAR LAB  LVL=1
      00011DB0H   SYMBOL    XDATA    ---       dat
      ---         BLOCKEND  ---      ---       LVL=1
      00FF9403H   LINE      CODE     ---       #263
      00FF9407H   LINE      CODE     ---       #264
      00FF9407H   LINE      CODE     ---       #266
      00FF940AH   LINE      CODE     ---       #267
      00FF9423H   LINE      CODE     ---       #268
      00FF9426H   LINE      CODE     ---       #269
      00FF942AH   LINE      CODE     ---       #270
      ---         BLOCKEND  ---      ---       LVL=0
      000113B8H   SYMBOL    XDATA    BYTE      reg
      000113B9H   SYMBOL    XDATA    ---       dat
      000113BDH   SYMBOL    XDATA    DWORD     len
      000113C1H   SYMBOL    XDATA    WORD      i
      000113C3H   SYMBOL    XDATA    ---       temp_data

      00FF8D24H   BLOCK     CODE     ---       LVL=0
      00011D51H   SYMBOL    XDATA    BYTE      dat
      00011D52H   SYMBOL    XDATA    BYTE      return_state
      00011D53H   SYMBOL    XDATA    WORD      timeout_count
      00FF8D24H   LINE      CODE     ---       #312
      00FF8D24H   LINE      CODE     ---       #313
      00FF8D24H   LINE      CODE     ---       #314
      00FF8D2EH   LINE      CODE     ---       #315
      00FF8D36H   LINE      CODE     ---       #317
      00FF8D36H   LINE      CODE     ---       #319
      00FF8D4DH   LINE      CODE     ---       #321
      00FF8D53H   LINE      CODE     ---       #322
      00FF8D55H   LINE      CODE     ---       #323
      00FF8D55H   LINE      CODE     ---       #325
      00FF8D5DH   LINE      CODE     ---       #326
      00FF8D74H   LINE      CODE     ---       #327
      00FF8D7BH   LINE      CODE     ---       #328
      00FF8D84H   LINE      CODE     ---       #331
      00FF8D88H   LINE      CODE     ---       #332
      ---         BLOCKEND  ---      ---       LVL=0
      00011C2FH   SYMBOL    XDATA    ---       dat
      00011C35H   SYMBOL    XDATA    ---       dat

      00FF6425H   BLOCK     CODE     ---       LVL=0
      00011E07H   SYMBOL    XDATA    BYTE      return_state
      00FF6425H   LINE      CODE     ---       #376
      00FF6425H   LINE      CODE     ---       #377
      00FF6425H   LINE      CODE     ---       #378
      00FF642AH   LINE      CODE     ---       #379
      00FF6431H   LINE      CODE     ---       #389
      00FF6435H   LINE      CODE     ---       #395
      00FF6435H   LINE      CODE     ---       #397
L251 LINKER/LOCATER V4.66.93.0                                                        03/26/2026  19:04:27  PAGE 98


      00FF643DH   LINE      CODE     ---       #402
      00FF6448H   LINE      CODE     ---       #403
      00FF644EH   LINE      CODE     ---       #404
      00FF6451H   LINE      CODE     ---       #405
      00FF6451H   LINE      CODE     ---       #407
      00FF6458H   LINE      CODE     ---       #408
      00FF645FH   LINE      CODE     ---       #409
      00FF6466H   LINE      CODE     ---       #410
      00FF6477H   LINE      CODE     ---       #411
      00FF647FH   LINE      CODE     ---       #412
      00FF6486H   LINE      CODE     ---       #414
      00FF6490H   LINE      CODE     ---       #419
      00FF649BH   LINE      CODE     ---       #420
      00FF64A1H   LINE      CODE     ---       #421
      00FF64A4H   LINE      CODE     ---       #422
      00FF64A4H   LINE      CODE     ---       #424
      00FF64ACH   LINE      CODE     ---       #425
      00FF64B4H   LINE      CODE     ---       #426
      00FF64BCH   LINE      CODE     ---       #433
      00FF64D4H   LINE      CODE     ---       #435
      00FF64D4H   LINE      CODE     ---       #437
      00FF64DFH   LINE      CODE     ---       #438
      00FF64E5H   LINE      CODE     ---       #440
      00FF64E7H   LINE      CODE     ---       #442
      00FF64E7H   LINE      CODE     ---       #444
      00FF64EEH   LINE      CODE     ---       #445
      00FF64FEH   LINE      CODE     ---       #447
      00FF6500H   LINE      CODE     ---       #449
      00FF6500H   LINE      CODE     ---       #451
      00FF6508H   LINE      CODE     ---       #452
      00FF6518H   LINE      CODE     ---       #454
      00FF651AH   LINE      CODE     ---       #456
      00FF651AH   LINE      CODE     ---       #458
      00FF6522H   LINE      CODE     ---       #459
      00FF6532H   LINE      CODE     ---       #461
      00FF6534H   LINE      CODE     ---       #463
      00FF6534H   LINE      CODE     ---       #465
      00FF653CH   LINE      CODE     ---       #466
      00FF654CH   LINE      CODE     ---       #468
      00FF654CH   LINE      CODE     ---       #469
      00FF654CH   LINE      CODE     ---       #471
      00FF6558H   LINE      CODE     ---       #473
      00FF6558H   LINE      CODE     ---       #474
      00FF6558H   LINE      CODE     ---       #482
      00FF6577H   LINE      CODE     ---       #484
      00FF6577H   LINE      CODE     ---       #486
      00FF6582H   LINE      CODE     ---       #487
      00FF6588H   LINE      CODE     ---       #489
      00FF658BH   LINE      CODE     ---       #491
      00FF658BH   LINE      CODE     ---       #493
      00FF6593H   LINE      CODE     ---       #494
      00FF65A5H   LINE      CODE     ---       #496
      00FF65A7H   LINE      CODE     ---       #498
      00FF65A7H   LINE      CODE     ---       #500
      00FF65AFH   LINE      CODE     ---       #501
      00FF65C1H   LINE      CODE     ---       #503
      00FF65C3H   LINE      CODE     ---       #505
      00FF65C3H   LINE      CODE     ---       #507
      00FF65CBH   LINE      CODE     ---       #508
      00FF65DDH   LINE      CODE     ---       #510
      00FF65DFH   LINE      CODE     ---       #512
      00FF65DFH   LINE      CODE     ---       #514
      00FF65E7H   LINE      CODE     ---       #515
      00FF65F9H   LINE      CODE     ---       #517
      00FF65FBH   LINE      CODE     ---       #519
L251 LINKER/LOCATER V4.66.93.0                                                        03/26/2026  19:04:27  PAGE 99


      00FF65FBH   LINE      CODE     ---       #521
      00FF6602H   LINE      CODE     ---       #522
      00FF6614H   LINE      CODE     ---       #524
      00FF6614H   LINE      CODE     ---       #525
      00FF6614H   LINE      CODE     ---       #527
      00FF6614H   LINE      CODE     ---       #529
      00FF6614H   LINE      CODE     ---       #530
      00FF6614H   LINE      CODE     ---       #534
      00FF6618H   LINE      CODE     ---       #535
      ---         BLOCKEND  ---      ---       LVL=0

      ---         MODULE    ---      ---       zf_device_imu660rb
      00011822H   PUBLIC    XDATA    INT       imu660rb_acc_x
      00011824H   PUBLIC    XDATA    INT       imu660rb_acc_y
      00011826H   PUBLIC    XDATA    INT       imu660rb_acc_z
      00011828H   PUBLIC    XDATA    INT       imu660rb_gyro_x
      0001182AH   PUBLIC    XDATA    INT       imu660rb_gyro_y
      0001182CH   PUBLIC    XDATA    INT       imu660rb_gyro_z
      000000D0H   SFRSYM    DATA     BYTE      PSW
      0000009DH   SFRSYM    DATA     BYTE      IRCBAND
      00000097H   SFRSYM    DATA     BYTE      AUXR2
      000000EFH   SFRSYM    DATA     BYTE      AUXINTIF
      000000FDH   SFRSYM    DATA     BYTE      S4CON
      000000ACH   SFRSYM    DATA     BYTE      S3CON
      0000009AH   SFRSYM    DATA     BYTE      S2CON
      000000B7H   SFRSYM    DATA     BYTE      IPH
      000000CDH   SFRSYM    DATA     BYTE      SPSTAT
      000000DDH   SFRSYM    DATA     BYTE      T4T3M
      000000C1H   SFRSYM    DATA     BYTE      WDT_CONTR
      000000DFH   SFRSYM    DATA     BYTE      IP3
      000000F4H   SFRSYM    DATA     BYTE      USBCON
      000000B5H   SFRSYM    DATA     BYTE      IP2
      000000FFH   SFRSYM    DATA     BYTE      RSTCFG
      000000C7H   SFRSYM    DATA     BYTE      IAP_CONTR
      000000F9H   SFRSYM    DATA     BYTE      LINICR
      0000008EH   SFRSYM    DATA     BYTE      AUXR
      000000AFH   SFRSYM    DATA     BYTE      IE2
      000000C0H.3 SFRSYM    DATA     BIT       P43
      000000C0H.2 SFRSYM    DATA     BIT       P42
      00000088H   SFRSYM    DATA     BYTE      TCON
      00000089H   SFRSYM    DATA     BYTE      TMOD
      000000C0H.1 SFRSYM    DATA     BIT       P41
      00000098H   SFRSYM    DATA     BYTE      SCON
      000000C0H.0 SFRSYM    DATA     BIT       P40
      000000F1H   SFRSYM    DATA     BYTE      CANICR
      00000087H   SFRSYM    DATA     BYTE      PCON
      000000BCH   SFRSYM    DATA     BYTE      ADC_CONTR
      000000E7H   SFRSYM    DATA     BYTE      CMPCR2
      000000E6H   SFRSYM    DATA     BYTE      CMPCR1
      000000DEH   SFRSYM    DATA     BYTE      ADCCFG
      000000B8H   SFRSYM    DATA     BYTE      IP
      0000008FH   SFRSYM    DATA     BYTE      INTCLKO
      000000EEH   SFRSYM    DATA     BYTE      IP3H
      000000B6H   SFRSYM    DATA     BYTE      IP2H
      000000A8H   SFRSYM    DATA     BYTE      IE
      000000BBH   SFRSYM    DATA     BYTE      P_SW3
      000000BAH   SFRSYM    DATA     BYTE      P_SW2
      000000A2H   SFRSYM    DATA     BYTE      P_SW1
      000000CEH   SFRSYM    DATA     BYTE      SPCTL
      000000F8H   SFRSYM    DATA     BYTE      P7
      000000E8H   SFRSYM    DATA     BYTE      P6
      000000C8H   SFRSYM    DATA     BYTE      P5
      000000C0H   SFRSYM    DATA     BYTE      P4
      000000B0H   SFRSYM    DATA     BYTE      P3
      000000A0H   SFRSYM    DATA     BYTE      P2
L251 LINKER/LOCATER V4.66.93.0                                                        03/26/2026  19:04:27  PAGE 100


      00000090H   SFRSYM    DATA     BYTE      P1
      00000080H   SFRSYM    DATA     BYTE      P0
      00011DDBH   SYMBOL    XDATA    BYTE      byte
      00011DDCH   SYMBOL    XDATA    BYTE      i
      00011DDDH   SYMBOL    XDATA    BYTE      cmd
      00011DDEH   SYMBOL    XDATA    BYTE      val
      00011CEFH   SYMBOL    XDATA    BYTE      cmd
      00011CF0H   SYMBOL    XDATA    ---       val
      000119EDH   SYMBOL    XDATA    BYTE      cmd
      000119EEH   SYMBOL    XDATA    ---       val
      000119F2H   SYMBOL    XDATA    DWORD     num
      00011DDFH   SYMBOL    XDATA    BYTE      reg
      00011DE0H   SYMBOL    XDATA    BYTE      dat
      00011DE1H   SYMBOL    XDATA    BYTE      reg
      00011DE2H   SYMBOL    XDATA    BYTE      dat
      000119F6H   SYMBOL    XDATA    BYTE      reg
      000119F7H   SYMBOL    XDATA    ---       dat
      000119FBH   SYMBOL    XDATA    DWORD     len
      00011D55H   SYMBOL    XDATA    BYTE      dat
      00011D56H   SYMBOL    XDATA    BYTE      return_state
      00011D57H   SYMBOL    XDATA    WORD      timeout_count
      00011C3BH   SYMBOL    XDATA    ---       dat
      00011C41H   SYMBOL    XDATA    ---       dat
      00011C47H   SYMBOL    XDATA    INT       acc_value
      00011C49H   SYMBOL    XDATA    FLOAT     acc_data
      00011C4DH   SYMBOL    XDATA    INT       gyro_value
      00011C4FH   SYMBOL    XDATA    FLOAT     gyro_data
      00011E08H   SYMBOL    XDATA    BYTE      return_state

      ---         MODULE    ---      ---       zf_device_imu963ra
      000111A1H   PUBLIC    XDATA    INT       imu963ra_acc_x
      000111A3H   PUBLIC    XDATA    INT       imu963ra_acc_y
      000111A5H   PUBLIC    XDATA    INT       imu963ra_acc_z
      000111A7H   PUBLIC    XDATA    INT       imu963ra_mag_x
      000111A9H   PUBLIC    XDATA    INT       imu963ra_mag_y
      000111ABH   PUBLIC    XDATA    INT       imu963ra_mag_z
      000111ADH   PUBLIC    XDATA    INT       imu963ra_gyro_x
      000111AFH   PUBLIC    XDATA    INT       imu963ra_gyro_y
      000111B1H   PUBLIC    XDATA    INT       imu963ra_gyro_z
      000111B3H   PUBLIC    XDATA    ---       imu963ra_transition_factor
      000000D0H   SFRSYM    DATA     BYTE      PSW
      0000009DH   SFRSYM    DATA     BYTE      IRCBAND
      00000097H   SFRSYM    DATA     BYTE      AUXR2
      000000EFH   SFRSYM    DATA     BYTE      AUXINTIF
      000000FDH   SFRSYM    DATA     BYTE      S4CON
      000000ACH   SFRSYM    DATA     BYTE      S3CON
      0000009AH   SFRSYM    DATA     BYTE      S2CON
      000000B7H   SFRSYM    DATA     BYTE      IPH
      000000CDH   SFRSYM    DATA     BYTE      SPSTAT
      000000DDH   SFRSYM    DATA     BYTE      T4T3M
      000000C1H   SFRSYM    DATA     BYTE      WDT_CONTR
      000000DFH   SFRSYM    DATA     BYTE      IP3
      000000F4H   SFRSYM    DATA     BYTE      USBCON
      000000B5H   SFRSYM    DATA     BYTE      IP2
      000000FFH   SFRSYM    DATA     BYTE      RSTCFG
      000000C7H   SFRSYM    DATA     BYTE      IAP_CONTR
      000000F9H   SFRSYM    DATA     BYTE      LINICR
      0000008EH   SFRSYM    DATA     BYTE      AUXR
      000000AFH   SFRSYM    DATA     BYTE      IE2
      000000C0H.2 SFRSYM    DATA     BIT       P42
      00000088H   SFRSYM    DATA     BYTE      TCON
      00000089H   SFRSYM    DATA     BYTE      TMOD
      00000098H   SFRSYM    DATA     BYTE      SCON
      000000F1H   SFRSYM    DATA     BYTE      CANICR
      00000087H   SFRSYM    DATA     BYTE      PCON
L251 LINKER/LOCATER V4.66.93.0                                                        03/26/2026  19:04:27  PAGE 101


      000000BCH   SFRSYM    DATA     BYTE      ADC_CONTR
      000000E7H   SFRSYM    DATA     BYTE      CMPCR2
      000000E6H   SFRSYM    DATA     BYTE      CMPCR1
      000000DEH   SFRSYM    DATA     BYTE      ADCCFG
      000000B8H   SFRSYM    DATA     BYTE      IP
      0000008FH   SFRSYM    DATA     BYTE      INTCLKO
      000000EEH   SFRSYM    DATA     BYTE      IP3H
      000000B6H   SFRSYM    DATA     BYTE      IP2H
      000000A8H   SFRSYM    DATA     BYTE      IE
      000000BBH   SFRSYM    DATA     BYTE      P_SW3
      000000BAH   SFRSYM    DATA     BYTE      P_SW2
      000000A2H   SFRSYM    DATA     BYTE      P_SW1
      000000CEH   SFRSYM    DATA     BYTE      SPCTL
      000000F8H   SFRSYM    DATA     BYTE      P7
      000000E8H   SFRSYM    DATA     BYTE      P6
      000000C8H   SFRSYM    DATA     BYTE      P5
      000000C0H   SFRSYM    DATA     BYTE      P4
      000000B0H   SFRSYM    DATA     BYTE      P3
      000000A0H   SFRSYM    DATA     BYTE      P2
      00000090H   SFRSYM    DATA     BYTE      P1
      00000080H   SFRSYM    DATA     BYTE      P0
      00011DE3H   SYMBOL    XDATA    BYTE      reg
      00011DE4H   SYMBOL    XDATA    BYTE      dat
      00011DE5H   SYMBOL    XDATA    BYTE      reg
      00011DE6H   SYMBOL    XDATA    BYTE      dat
      000119FFH   SYMBOL    XDATA    BYTE      reg
      00011A00H   SYMBOL    XDATA    ---       dat
      00011A04H   SYMBOL    XDATA    DWORD     len
      00011C53H   SYMBOL    XDATA    BYTE      addr
      00011C54H   SYMBOL    XDATA    BYTE      reg
      00011C55H   SYMBOL    XDATA    BYTE      dat
      00011C56H   SYMBOL    XDATA    BYTE      return_state
      00011C57H   SYMBOL    XDATA    WORD      timeout_count
      00011D59H   SYMBOL    XDATA    BYTE      addr
      00011D5AH   SYMBOL    XDATA    BYTE      reg
      00011D5BH   SYMBOL    XDATA    WORD      timeout_count
      00011DE7H   SYMBOL    XDATA    BYTE      addr
      00011DE8H   SYMBOL    XDATA    BYTE      reg
      00011D5DH   SYMBOL    XDATA    BYTE      return_state
      00011D5EH   SYMBOL    XDATA    BYTE      dat
      00011D5FH   SYMBOL    XDATA    WORD      timeout_count
      00011D61H   SYMBOL    XDATA    BYTE      return_state
      00011D62H   SYMBOL    XDATA    BYTE      dat
      00011D63H   SYMBOL    XDATA    WORD      timeout_count
      00011C59H   SYMBOL    XDATA    ---       dat
      00011C5FH   SYMBOL    XDATA    ---       dat
      00011BB5H   SYMBOL    XDATA    BYTE      temp_status
      00011BB6H   SYMBOL    XDATA    ---       dat
      00011E09H   SYMBOL    XDATA    BYTE      return_state

      ---         MODULE    ---      ---       zf_device_ips114
      00FF6619H   PUBLIC    CODE     ---       ips114_show_float
      00FF7F4FH   PUBLIC    CODE     ---       ips114_show_string
      00FF73A4H   PUBLIC    CODE     ---       ips114_show_char
      00FF74C0H   PUBLIC    CODE     ---       ips114_show_uint16
      00FF9476H   PUBLIC    CODE     ---       ips114_set_color
      00FF9362H   PUBLIC    CODE     ---       ips114_set_dir
      00FF886FH   PUBLIC    CODE     ---       ips114_clear
      00FF5875H   PUBLIC    CODE     ---       ips114_init
      00011B21H   PUBLIC    XDATA    WORD      ips114_pencolor
      00011B23H   PUBLIC    XDATA    WORD      ips114_bgcolor
      00011B25H   PUBLIC    XDATA    INT       ips114_display_dir
      00011B27H   PUBLIC    XDATA    BYTE      ips114_x_max
      00011B28H   PUBLIC    XDATA    BYTE      ips114_y_max
      00010E6DH   PUBLIC    XDATA    BYTE      ?ips114_show_float?BYTE
L251 LINKER/LOCATER V4.66.93.0                                                        03/26/2026  19:04:27  PAGE 102


      000110C6H   PUBLIC    XDATA    BYTE      ?ips114_show_wave?BYTE
      00011260H   PUBLIC    XDATA    BYTE      ?ips114_show_chinese?BYTE
      000000D0H   SFRSYM    DATA     BYTE      PSW
      0000009DH   SFRSYM    DATA     BYTE      IRCBAND
      00000097H   SFRSYM    DATA     BYTE      AUXR2
      000000EFH   SFRSYM    DATA     BYTE      AUXINTIF
      000000FDH   SFRSYM    DATA     BYTE      S4CON
      000000ACH   SFRSYM    DATA     BYTE      S3CON
      0000009AH   SFRSYM    DATA     BYTE      S2CON
      000000B7H   SFRSYM    DATA     BYTE      IPH
      000000CDH   SFRSYM    DATA     BYTE      SPSTAT
      000000DDH   SFRSYM    DATA     BYTE      T4T3M
      000000C1H   SFRSYM    DATA     BYTE      WDT_CONTR
      000000DFH   SFRSYM    DATA     BYTE      IP3
      000000F4H   SFRSYM    DATA     BYTE      USBCON
      000000B5H   SFRSYM    DATA     BYTE      IP2
      000000FFH   SFRSYM    DATA     BYTE      RSTCFG
      000000C7H   SFRSYM    DATA     BYTE      IAP_CONTR
      000000F9H   SFRSYM    DATA     BYTE      LINICR
      0000008EH   SFRSYM    DATA     BYTE      AUXR
      000000AFH   SFRSYM    DATA     BYTE      IE2
      00000088H   SFRSYM    DATA     BYTE      TCON
      00000089H   SFRSYM    DATA     BYTE      TMOD
      00000098H   SFRSYM    DATA     BYTE      SCON
      000000A0H.2 SFRSYM    DATA     BIT       P22
      000000A0H.1 SFRSYM    DATA     BIT       P21
      000000A0H.0 SFRSYM    DATA     BIT       P20
      000000F1H   SFRSYM    DATA     BYTE      CANICR
      00000087H   SFRSYM    DATA     BYTE      PCON
      000000BCH   SFRSYM    DATA     BYTE      ADC_CONTR
      000000E7H   SFRSYM    DATA     BYTE      CMPCR2
      000000E6H   SFRSYM    DATA     BYTE      CMPCR1
      000000DEH   SFRSYM    DATA     BYTE      ADCCFG
      000000B8H   SFRSYM    DATA     BYTE      IP
      0000008FH   SFRSYM    DATA     BYTE      INTCLKO
      000000EEH   SFRSYM    DATA     BYTE      IP3H
      000000B6H   SFRSYM    DATA     BYTE      IP2H
      000000A8H   SFRSYM    DATA     BYTE      IE
      000000BBH   SFRSYM    DATA     BYTE      P_SW3
      000000BAH   SFRSYM    DATA     BYTE      P_SW2
      000000A2H   SFRSYM    DATA     BYTE      P_SW1
      000000CEH   SFRSYM    DATA     BYTE      SPCTL
      000000F8H   SFRSYM    DATA     BYTE      P7
      000000E8H   SFRSYM    DATA     BYTE      P6
      000000C8H   SFRSYM    DATA     BYTE      P5
      000000C0H   SFRSYM    DATA     BYTE      P4
      000000B0H   SFRSYM    DATA     BYTE      P3
      000000A0H   SFRSYM    DATA     BYTE      P2
      00000090H   SFRSYM    DATA     BYTE      P1
      00000080H   SFRSYM    DATA     BYTE      P0
      00FF9508H   SYMBOL    CODE     ---       ips114_write_index
      00FF5DBAH   SYMBOL    CODE     ---       ips114_set_region

      00FF9508H   BLOCK     CODE     ---       LVL=0
      00011E0AH   SYMBOL    XDATA    BYTE      dat
      00FF9508H   LINE      CODE     ---       #83
      00FF950CH   LINE      CODE     ---       #85
      00FF950FH   LINE      CODE     ---       #86
      00FF9512H   LINE      CODE     ---       #87
      00FF9515H   LINE      CODE     ---       #88
      00FF9520H   LINE      CODE     ---       #89
      00FF9523H   LINE      CODE     ---       #90
      00FF9526H   LINE      CODE     ---       #91
      00FF9529H   LINE      CODE     ---       #92
      ---         BLOCKEND  ---      ---       LVL=0
L251 LINKER/LOCATER V4.66.93.0                                                        03/26/2026  19:04:27  PAGE 103



      00FF5DBAH   BLOCK     CODE     ---       LVL=0
      00011B29H   SYMBOL    XDATA    WORD      x1
      00011B2BH   SYMBOL    XDATA    WORD      y1
      00011B2DH   SYMBOL    XDATA    WORD      x2
      00011B2FH   SYMBOL    XDATA    WORD      y2
      00FF5DBAH   LINE      CODE     ---       #103
      00FF5DD2H   LINE      CODE     ---       #105
      00FF5DF6H   LINE      CODE     ---       #106
      00FF5E1AH   LINE      CODE     ---       #107
      00FF5E3EH   LINE      CODE     ---       #108
      00FF5E62H   LINE      CODE     ---       #110
      00FF5E6EH   LINE      CODE     ---       #112
      00FF5E73H   LINE      CODE     ---       #113
      00FF5E86H   LINE      CODE     ---       #114
      00FF5E99H   LINE      CODE     ---       #115
      00FF5E9EH   LINE      CODE     ---       #116
      00FF5EB1H   LINE      CODE     ---       #117
      00FF5EC4H   LINE      CODE     ---       #118
      00FF5EC9H   LINE      CODE     ---       #119
      00FF5ECCH   LINE      CODE     ---       #120
      00FF5EDAH   LINE      CODE     ---       #122
      00FF5EDFH   LINE      CODE     ---       #123
      00FF5EF2H   LINE      CODE     ---       #124
      00FF5F05H   LINE      CODE     ---       #125
      00FF5F0AH   LINE      CODE     ---       #126
      00FF5F1DH   LINE      CODE     ---       #127
      00FF5F30H   LINE      CODE     ---       #128
      00FF5F35H   LINE      CODE     ---       #129
      00FF5F38H   LINE      CODE     ---       #130
      00FF5F46H   LINE      CODE     ---       #132
      00FF5F4BH   LINE      CODE     ---       #133
      00FF5F5EH   LINE      CODE     ---       #134
      00FF5F71H   LINE      CODE     ---       #135
      00FF5F76H   LINE      CODE     ---       #136
      00FF5F89H   LINE      CODE     ---       #137
      00FF5F9CH   LINE      CODE     ---       #138
      00FF5FA1H   LINE      CODE     ---       #139
      00FF5FA3H   LINE      CODE     ---       #142
      00FF5FA8H   LINE      CODE     ---       #143
      00FF5FBBH   LINE      CODE     ---       #144
      00FF5FCEH   LINE      CODE     ---       #145
      00FF5FD3H   LINE      CODE     ---       #146
      00FF5FE6H   LINE      CODE     ---       #147
      00FF5FF9H   LINE      CODE     ---       #148
      00FF5FFEH   LINE      CODE     ---       #149
      00FF5FFEH   LINE      CODE     ---       #150
      ---         BLOCKEND  ---      ---       LVL=0

      00FF886FH   BLOCK     CODE     ---       LVL=0
      00011C65H   SYMBOL    XDATA    WORD      color
      00FF8875H   BLOCK     CODE     NEAR LAB  LVL=1
      00011C67H   SYMBOL    XDATA    WORD      i
      00011C69H   SYMBOL    XDATA    WORD      j
      ---         BLOCKEND  ---      ---       LVL=1
      00FF886FH   LINE      CODE     ---       #158
      00FF8875H   LINE      CODE     ---       #159
      00FF8875H   LINE      CODE     ---       #161
      00FF8894H   LINE      CODE     ---       #163
      00FF889EH   LINE      CODE     ---       #165
      00FF88A8H   LINE      CODE     ---       #167
      00FF88B5H   LINE      CODE     ---       #168
      00FF88D4H   LINE      CODE     ---       #169
      00FF88F3H   LINE      CODE     ---       #170
      ---         BLOCKEND  ---      ---       LVL=0
L251 LINKER/LOCATER V4.66.93.0                                                        03/26/2026  19:04:27  PAGE 104



      00FF9362H   BLOCK     CODE     ---       LVL=0
      00011DE9H   SYMBOL    XDATA    INT       dir
      00FF9362H   LINE      CODE     ---       #178
      00FF9368H   LINE      CODE     ---       #180
      00FF9374H   LINE      CODE     ---       #181
      00FF9382H   LINE      CODE     ---       #183
      00FF9388H   LINE      CODE     ---       #184
      00FF938EH   LINE      CODE     ---       #185
      00FF9390H   LINE      CODE     ---       #188
      00FF9396H   LINE      CODE     ---       #189
      00FF939CH   LINE      CODE     ---       #190
      00FF939CH   LINE      CODE     ---       #191
      ---         BLOCKEND  ---      ---       LVL=0

      00FF9476H   BLOCK     CODE     ---       LVL=0
      00011D65H   SYMBOL    XDATA    WORD      pen
      00011D67H   SYMBOL    XDATA    WORD      bgcolor
      00FF9476H   LINE      CODE     ---       #200
      00FF9482H   LINE      CODE     ---       #202
      00FF948EH   LINE      CODE     ---       #203
      00FF949AH   LINE      CODE     ---       #204
      ---         BLOCKEND  ---      ---       LVL=0
      00011C6BH   SYMBOL    XDATA    WORD      x
      00011C6DH   SYMBOL    XDATA    WORD      y
      00011C6FH   SYMBOL    XDATA    WORD      color

      00FF73A4H   BLOCK     CODE     ---       LVL=0
      00011B31H   SYMBOL    XDATA    WORD      x
      00011B33H   SYMBOL    XDATA    WORD      y
      00011B35H   SYMBOL    XDATA    CHAR      dat
      00FF73B4H   BLOCK     CODE     NEAR LAB  LVL=1
      00011B36H   SYMBOL    XDATA    BYTE      i
      00011B37H   SYMBOL    XDATA    BYTE      j
      00011B38H   SYMBOL    XDATA    BYTE      temp
      ---         BLOCKEND  ---      ---       LVL=1
      00FF73A4H   LINE      CODE     ---       #231
      00FF73B4H   LINE      CODE     ---       #232
      00FF73B4H   LINE      CODE     ---       #236
      00FF73D8H   LINE      CODE     ---       #237
      00FF73FCH   LINE      CODE     ---       #239
      00FF7404H   LINE      CODE     ---       #241
      00FF7435H   LINE      CODE     ---       #242
      00FF745DH   LINE      CODE     ---       #243
      00FF7464H   LINE      CODE     ---       #245
      00FF746BH   LINE      CODE     ---       #246
      00FF747AH   LINE      CODE     ---       #248
      00FF7487H   LINE      CODE     ---       #249
      00FF748EH   LINE      CODE     ---       #250
      00FF74A5H   LINE      CODE     ---       #251
      00FF74BFH   LINE      CODE     ---       #252
      ---         BLOCKEND  ---      ---       LVL=0

      00FF7F4FH   BLOCK     CODE     ---       LVL=0
      0001195FH   SYMBOL    XDATA    WORD      x
      00011961H   SYMBOL    XDATA    WORD      y
      00011963H   SYMBOL    XDATA    ---       dat
      00FF7F65H   BLOCK     CODE     NEAR LAB  LVL=1
      00011967H   SYMBOL    XDATA    WORD      j
      ---         BLOCKEND  ---      ---       LVL=1
      00FF7F4FH   LINE      CODE     ---       #262
      00FF7F65H   LINE      CODE     ---       #263
      00FF7F65H   LINE      CODE     ---       #264
      00FF7F6DH   LINE      CODE     ---       #266
      00FF7F91H   LINE      CODE     ---       #267
L251 LINKER/LOCATER V4.66.93.0                                                        03/26/2026  19:04:27  PAGE 105


      00FF7FB5H   LINE      CODE     ---       #269
      00FF7FB7H   LINE      CODE     ---       #271
      00FF7FE9H   LINE      CODE     ---       #272
      00FF7FF8H   LINE      CODE     ---       #273
      00FF8012H   LINE      CODE     ---       #274
      ---         BLOCKEND  ---      ---       LVL=0
      00011A08H   SYMBOL    XDATA    WORD      x
      00011A0AH   SYMBOL    XDATA    WORD      y
      00011A0CH   SYMBOL    XDATA    CHAR      dat
      00011A0DH   SYMBOL    XDATA    ---       a
      00011A10H   SYMBOL    XDATA    BYTE      i
      00011A11H   SYMBOL    XDATA    WORD      x
      00011A13H   SYMBOL    XDATA    WORD      y
      00011A15H   SYMBOL    XDATA    BYTE      dat
      00011A16H   SYMBOL    XDATA    ---       a
      00011A19H   SYMBOL    XDATA    BYTE      i
      0001182EH   SYMBOL    XDATA    WORD      x
      00011830H   SYMBOL    XDATA    WORD      y
      00011832H   SYMBOL    XDATA    INT       dat
      00011834H   SYMBOL    XDATA    ---       a
      00011839H   SYMBOL    XDATA    BYTE      i

      00FF74C0H   BLOCK     CODE     ---       LVL=0
      0001183AH   SYMBOL    XDATA    WORD      x
      0001183CH   SYMBOL    XDATA    WORD      y
      0001183EH   SYMBOL    XDATA    WORD      dat
      00FF74D2H   BLOCK     CODE     NEAR LAB  LVL=1
      00011840H   SYMBOL    XDATA    ---       a
      00011845H   SYMBOL    XDATA    BYTE      i
      ---         BLOCKEND  ---      ---       LVL=1
      00FF74C0H   LINE      CODE     ---       #384
      00FF74D2H   LINE      CODE     ---       #385
      00FF74D2H   LINE      CODE     ---       #389
      00FF74F6H   LINE      CODE     ---       #390
      00FF751AH   LINE      CODE     ---       #392
      00FF752AH   LINE      CODE     ---       #393
      00FF7542H   LINE      CODE     ---       #394
      00FF755AH   LINE      CODE     ---       #395
      00FF7572H   LINE      CODE     ---       #396
      00FF7584H   LINE      CODE     ---       #398
      00FF7589H   LINE      CODE     ---       #399
      00FF758BH   LINE      CODE     ---       #401
      00FF75C1H   LINE      CODE     ---       #402
      00FF75CCH   LINE      CODE     ---       #403
      00FF75D8H   LINE      CODE     ---       #404
      ---         BLOCKEND  ---      ---       LVL=0
      00010F2CH   SYMBOL    XDATA    WORD      x
      00010F2EH   SYMBOL    XDATA    WORD      y
      00010F30H   SYMBOL    XDATA    LONG      dat
      00010F34H   SYMBOL    XDATA    BYTE      num
      00010F35H   SYMBOL    XDATA    ---       buff
      00010F57H   SYMBOL    XDATA    BYTE      length

      00FF6619H   BLOCK     CODE     ---       LVL=0
      00010E6DH   SYMBOL    XDATA    WORD      x
      00010E6FH   SYMBOL    XDATA    WORD      y
      00010E71H   SYMBOL    XDATA    FLOAT     dat
      00010E75H   SYMBOL    XDATA    BYTE      num
      00010E76H   SYMBOL    XDATA    BYTE      pointnum
      00FF6633H   BLOCK     CODE     NEAR LAB  LVL=1
      00010E77H   SYMBOL    XDATA    BYTE      length
      00010E78H   SYMBOL    XDATA    ---       buff
      00010E9AH   SYMBOL    XDATA    CHAR      start
      00010E9BH   SYMBOL    XDATA    CHAR      end
      00010E9CH   SYMBOL    XDATA    CHAR      point
L251 LINKER/LOCATER V4.66.93.0                                                        03/26/2026  19:04:27  PAGE 106


      ---         BLOCKEND  ---      ---       LVL=1
      00FF6619H   LINE      CODE     ---       #459
      00FF6633H   LINE      CODE     ---       #460
      00FF6633H   LINE      CODE     ---       #465
      00FF6657H   LINE      CODE     ---       #466
      00FF667BH   LINE      CODE     ---       #468
      00FF668DH   LINE      CODE     ---       #469
      00FF669FH   LINE      CODE     ---       #471
      00FF66DFH   LINE      CODE     ---       #474
      00FF670CH   LINE      CODE     ---       #475
      00FF6717H   LINE      CODE     ---       #476
      00FF6717H   LINE      CODE     ---       #477
      00FF6727H   LINE      CODE     ---       #478
      00FF673FH   LINE      CODE     ---       #479
      00FF6757H   LINE      CODE     ---       #480
      00FF6759H   LINE      CODE     ---       #482
      00FF6771H   LINE      CODE     ---       #483
      00FF677CH   LINE      CODE     ---       #484
      00FF6787H   LINE      CODE     ---       #485
      00FF6792H   LINE      CODE     ---       #487
      00FF67BDH   LINE      CODE     ---       #488
      00FF67D5H   LINE      CODE     ---       #490
      00FF67ECH   LINE      CODE     ---       #492
      00FF6803H   LINE      CODE     ---       #493
      ---         BLOCKEND  ---      ---       LVL=0
      000110C6H   SYMBOL    XDATA    WORD      x
      000110C8H   SYMBOL    XDATA    WORD      y
      000110CAH   SYMBOL    XDATA    ---       p
      000110CEH   SYMBOL    XDATA    WORD      width
      000110D0H   SYMBOL    XDATA    WORD      value_max
      000110D2H   SYMBOL    XDATA    WORD      dis_width
      000110D4H   SYMBOL    XDATA    WORD      dis_value_max
      000110D6H   SYMBOL    XDATA    DWORD     i
      000110DAH   SYMBOL    XDATA    DWORD     j
      000110DEH   SYMBOL    XDATA    DWORD     width_index
      000110E2H   SYMBOL    XDATA    DWORD     value_max_index
      00011260H   SYMBOL    XDATA    WORD      x
      00011262H   SYMBOL    XDATA    WORD      y
      00011264H   SYMBOL    XDATA    BYTE      siz
      00011265H   SYMBOL    XDATA    ---       p
      00011269H   SYMBOL    XDATA    BYTE      number
      0001126AH   SYMBOL    XDATA    WORD      color
      0001126CH   SYMBOL    XDATA    INT       i
      0001126EH   SYMBOL    XDATA    INT       j
      00011270H   SYMBOL    XDATA    INT       k
      00011272H   SYMBOL    XDATA    BYTE      temp
      00011273H   SYMBOL    XDATA    BYTE      temp1
      00011274H   SYMBOL    XDATA    BYTE      temp2
      00011275H   SYMBOL    XDATA    ---       p_data

      00FF5875H   BLOCK     CODE     ---       LVL=0
      00FF5875H   LINE      CODE     ---       #585
      00FF5875H   LINE      CODE     ---       #590
      00FF5886H   LINE      CODE     ---       #591
      00FF5897H   LINE      CODE     ---       #592
      00FF58D0H   LINE      CODE     ---       #600
      00FF58D9H   LINE      CODE     ---       #601
      00FF58E8H   LINE      CODE     ---       #603
      00FF58EBH   LINE      CODE     ---       #604
      00FF58F2H   LINE      CODE     ---       #606
      00FF58F5H   LINE      CODE     ---       #607
      00FF58FCH   LINE      CODE     ---       #609
      00FF5901H   LINE      CODE     ---       #610
      00FF5908H   LINE      CODE     ---       #611
      00FF591EH   LINE      CODE     ---       #612
L251 LINKER/LOCATER V4.66.93.0                                                        03/26/2026  19:04:27  PAGE 107


      00FF5937H   LINE      CODE     ---       #613
      00FF5950H   LINE      CODE     ---       #614
      00FF5959H   LINE      CODE     ---       #616
      00FF595EH   LINE      CODE     ---       #617
      00FF5967H   LINE      CODE     ---       #619
      00FF596CH   LINE      CODE     ---       #620
      00FF5975H   LINE      CODE     ---       #621
      00FF597EH   LINE      CODE     ---       #622
      00FF5986H   LINE      CODE     ---       #623
      00FF598FH   LINE      CODE     ---       #624
      00FF5998H   LINE      CODE     ---       #626
      00FF599DH   LINE      CODE     ---       #627
      00FF59A6H   LINE      CODE     ---       #629
      00FF59ABH   LINE      CODE     ---       #630
      00FF59B4H   LINE      CODE     ---       #632
      00FF59B9H   LINE      CODE     ---       #633
      00FF59C2H   LINE      CODE     ---       #635
      00FF59C7H   LINE      CODE     ---       #636
      00FF59D0H   LINE      CODE     ---       #638
      00FF59D5H   LINE      CODE     ---       #639
      00FF59DEH   LINE      CODE     ---       #641
      00FF59E3H   LINE      CODE     ---       #642
      00FF59ECH   LINE      CODE     ---       #644
      00FF59F1H   LINE      CODE     ---       #645
      00FF59FAH   LINE      CODE     ---       #647
      00FF59FFH   LINE      CODE     ---       #648
      00FF5A08H   LINE      CODE     ---       #649
      00FF5A11H   LINE      CODE     ---       #651
      00FF5A16H   LINE      CODE     ---       #652
      00FF5A1FH   LINE      CODE     ---       #653
      00FF5A28H   LINE      CODE     ---       #654
      00FF5A31H   LINE      CODE     ---       #655
      00FF5A3AH   LINE      CODE     ---       #656
      00FF5A43H   LINE      CODE     ---       #657
      00FF5A4CH   LINE      CODE     ---       #658
      00FF5A55H   LINE      CODE     ---       #659
      00FF5A5EH   LINE      CODE     ---       #660
      00FF5A67H   LINE      CODE     ---       #661
      00FF5A70H   LINE      CODE     ---       #662
      00FF5A79H   LINE      CODE     ---       #663
      00FF5A82H   LINE      CODE     ---       #664
      00FF5A8BH   LINE      CODE     ---       #665
      00FF5A94H   LINE      CODE     ---       #667
      00FF5A99H   LINE      CODE     ---       #668
      00FF5AA2H   LINE      CODE     ---       #669
      00FF5AABH   LINE      CODE     ---       #670
      00FF5AB4H   LINE      CODE     ---       #671
      00FF5ABDH   LINE      CODE     ---       #672
      00FF5AC6H   LINE      CODE     ---       #673
      00FF5ACFH   LINE      CODE     ---       #674
      00FF5AD8H   LINE      CODE     ---       #675
      00FF5AE1H   LINE      CODE     ---       #676
      00FF5AEAH   LINE      CODE     ---       #677
      00FF5AF3H   LINE      CODE     ---       #678
      00FF5AFCH   LINE      CODE     ---       #679
      00FF5B05H   LINE      CODE     ---       #680
      00FF5B0EH   LINE      CODE     ---       #681
      00FF5B17H   LINE      CODE     ---       #683
      00FF5B1CH   LINE      CODE     ---       #685
      00FF5B21H   LINE      CODE     ---       #686
      00FF5B28H   LINE      CODE     ---       #688
      00FF5B2DH   LINE      CODE     ---       #690
      00FF5B36H   LINE      CODE     ---       #691
      ---         BLOCKEND  ---      ---       LVL=0

L251 LINKER/LOCATER V4.66.93.0                                                        03/26/2026  19:04:27  PAGE 108


      ---         MODULE    ---      ---       zf_device_ips200
      00011969H   PUBLIC    XDATA    WORD      ips200_pencolor
      0001196BH   PUBLIC    XDATA    WORD      ips200_bgcolor
      0001196DH   PUBLIC    XDATA    INT       ips200_display_dir
      0001196FH   PUBLIC    XDATA    WORD      ips200_x_max
      00011971H   PUBLIC    XDATA    WORD      ips200_y_max
      00010E9DH   PUBLIC    XDATA    BYTE      ?ips200_show_float?BYTE
      000110E6H   PUBLIC    XDATA    BYTE      ?ips200_show_wave?BYTE
      00011279H   PUBLIC    XDATA    BYTE      ?ips200_show_chinese?BYTE
      000000D0H   SFRSYM    DATA     BYTE      PSW
      0000009DH   SFRSYM    DATA     BYTE      IRCBAND
      00000097H   SFRSYM    DATA     BYTE      AUXR2
      000000EFH   SFRSYM    DATA     BYTE      AUXINTIF
      000000FDH   SFRSYM    DATA     BYTE      S4CON
      000000ACH   SFRSYM    DATA     BYTE      S3CON
      0000009AH   SFRSYM    DATA     BYTE      S2CON
      000000B7H   SFRSYM    DATA     BYTE      IPH
      000000CDH   SFRSYM    DATA     BYTE      SPSTAT
      000000DDH   SFRSYM    DATA     BYTE      T4T3M
      000000C1H   SFRSYM    DATA     BYTE      WDT_CONTR
      000000DFH   SFRSYM    DATA     BYTE      IP3
      000000F4H   SFRSYM    DATA     BYTE      USBCON
      000000B5H   SFRSYM    DATA     BYTE      IP2
      000000FFH   SFRSYM    DATA     BYTE      RSTCFG
      000000C7H   SFRSYM    DATA     BYTE      IAP_CONTR
      000000F9H   SFRSYM    DATA     BYTE      LINICR
      0000008EH   SFRSYM    DATA     BYTE      AUXR
      000000AFH   SFRSYM    DATA     BYTE      IE2
      00000088H   SFRSYM    DATA     BYTE      TCON
      00000089H   SFRSYM    DATA     BYTE      TMOD
      00000098H   SFRSYM    DATA     BYTE      SCON
      000000A0H.2 SFRSYM    DATA     BIT       P22
      000000A0H.1 SFRSYM    DATA     BIT       P21
      000000A0H.0 SFRSYM    DATA     BIT       P20
      000000F1H   SFRSYM    DATA     BYTE      CANICR
      00000087H   SFRSYM    DATA     BYTE      PCON
      000000BCH   SFRSYM    DATA     BYTE      ADC_CONTR
      000000E7H   SFRSYM    DATA     BYTE      CMPCR2
      000000E6H   SFRSYM    DATA     BYTE      CMPCR1
      000000DEH   SFRSYM    DATA     BYTE      ADCCFG
      000000B8H   SFRSYM    DATA     BYTE      IP
      0000008FH   SFRSYM    DATA     BYTE      INTCLKO
      000000EEH   SFRSYM    DATA     BYTE      IP3H
      000000B6H   SFRSYM    DATA     BYTE      IP2H
      000000A8H   SFRSYM    DATA     BYTE      IE
      000000BBH   SFRSYM    DATA     BYTE      P_SW3
      000000BAH   SFRSYM    DATA     BYTE      P_SW2
      000000A2H   SFRSYM    DATA     BYTE      P_SW1
      000000CEH   SFRSYM    DATA     BYTE      SPCTL
      000000F8H   SFRSYM    DATA     BYTE      P7
      000000E8H   SFRSYM    DATA     BYTE      P6
      000000C8H   SFRSYM    DATA     BYTE      P5
      000000C0H   SFRSYM    DATA     BYTE      P4
      000000B0H   SFRSYM    DATA     BYTE      P3
      000000A0H   SFRSYM    DATA     BYTE      P2
      00000090H   SFRSYM    DATA     BYTE      P1
      00000080H   SFRSYM    DATA     BYTE      P0
      00011E0BH   SYMBOL    XDATA    BYTE      dat
      00011B39H   SYMBOL    XDATA    WORD      x1
      00011B3BH   SYMBOL    XDATA    WORD      y1
      00011B3DH   SYMBOL    XDATA    WORD      x2
      00011B3FH   SYMBOL    XDATA    WORD      y2
      00011C71H   SYMBOL    XDATA    WORD      color
      00011C73H   SYMBOL    XDATA    WORD      i
      00011C75H   SYMBOL    XDATA    WORD      j
L251 LINKER/LOCATER V4.66.93.0                                                        03/26/2026  19:04:27  PAGE 109


      00011DEBH   SYMBOL    XDATA    INT       dir
      00011D69H   SYMBOL    XDATA    WORD      pen
      00011D6BH   SYMBOL    XDATA    WORD      bgcolor
      00011C77H   SYMBOL    XDATA    WORD      x
      00011C79H   SYMBOL    XDATA    WORD      y
      00011C7BH   SYMBOL    XDATA    WORD      color
      00011B41H   SYMBOL    XDATA    WORD      x
      00011B43H   SYMBOL    XDATA    WORD      y
      00011B45H   SYMBOL    XDATA    CHAR      dat
      00011B46H   SYMBOL    XDATA    BYTE      i
      00011B47H   SYMBOL    XDATA    BYTE      j
      00011B48H   SYMBOL    XDATA    BYTE      temp
      00011973H   SYMBOL    XDATA    WORD      x
      00011975H   SYMBOL    XDATA    WORD      y
      00011977H   SYMBOL    XDATA    ---       dat
      0001197BH   SYMBOL    XDATA    WORD      j
      00011A1AH   SYMBOL    XDATA    WORD      x
      00011A1CH   SYMBOL    XDATA    WORD      y
      00011A1EH   SYMBOL    XDATA    CHAR      dat
      00011A1FH   SYMBOL    XDATA    ---       a
      00011A22H   SYMBOL    XDATA    BYTE      i
      00011A23H   SYMBOL    XDATA    WORD      x
      00011A25H   SYMBOL    XDATA    WORD      y
      00011A27H   SYMBOL    XDATA    BYTE      dat
      00011A28H   SYMBOL    XDATA    ---       a
      00011A2BH   SYMBOL    XDATA    BYTE      i
      00011846H   SYMBOL    XDATA    WORD      x
      00011848H   SYMBOL    XDATA    WORD      y
      0001184AH   SYMBOL    XDATA    INT       dat
      0001184CH   SYMBOL    XDATA    ---       a
      00011851H   SYMBOL    XDATA    BYTE      i
      00011852H   SYMBOL    XDATA    WORD      x
      00011854H   SYMBOL    XDATA    WORD      y
      00011856H   SYMBOL    XDATA    WORD      dat
      00011858H   SYMBOL    XDATA    ---       a
      0001185DH   SYMBOL    XDATA    BYTE      i
      00010F58H   SYMBOL    XDATA    WORD      x
      00010F5AH   SYMBOL    XDATA    WORD      y
      00010F5CH   SYMBOL    XDATA    LONG      dat
      00010F60H   SYMBOL    XDATA    BYTE      num
      00010F61H   SYMBOL    XDATA    ---       buff
      00010F83H   SYMBOL    XDATA    BYTE      length
      00010E9DH   SYMBOL    XDATA    WORD      x
      00010E9FH   SYMBOL    XDATA    WORD      y
      00010EA1H   SYMBOL    XDATA    FLOAT     dat
      00010EA5H   SYMBOL    XDATA    BYTE      num
      00010EA6H   SYMBOL    XDATA    BYTE      pointnum
      00010EA7H   SYMBOL    XDATA    BYTE      length
      00010EA8H   SYMBOL    XDATA    ---       buff
      00010ECAH   SYMBOL    XDATA    CHAR      start
      00010ECBH   SYMBOL    XDATA    CHAR      end
      00010ECCH   SYMBOL    XDATA    CHAR      point
      000110E6H   SYMBOL    XDATA    WORD      x
      000110E8H   SYMBOL    XDATA    WORD      y
      000110EAH   SYMBOL    XDATA    ---       p
      000110EEH   SYMBOL    XDATA    WORD      width
      000110F0H   SYMBOL    XDATA    WORD      value_max
      000110F2H   SYMBOL    XDATA    WORD      dis_width
      000110F4H   SYMBOL    XDATA    WORD      dis_value_max
      000110F6H   SYMBOL    XDATA    DWORD     i
      000110FAH   SYMBOL    XDATA    DWORD     j
      000110FEH   SYMBOL    XDATA    DWORD     width_index
      00011102H   SYMBOL    XDATA    DWORD     value_max_index
      00011279H   SYMBOL    XDATA    WORD      x
      0001127BH   SYMBOL    XDATA    WORD      y
L251 LINKER/LOCATER V4.66.93.0                                                        03/26/2026  19:04:27  PAGE 110


      0001127DH   SYMBOL    XDATA    BYTE      siz
      0001127EH   SYMBOL    XDATA    ---       p
      00011282H   SYMBOL    XDATA    BYTE      number
      00011283H   SYMBOL    XDATA    WORD      color
      00011285H   SYMBOL    XDATA    INT       i
      00011287H   SYMBOL    XDATA    INT       j
      00011289H   SYMBOL    XDATA    INT       k
      0001128BH   SYMBOL    XDATA    BYTE      temp
      0001128CH   SYMBOL    XDATA    BYTE      temp1
      0001128DH   SYMBOL    XDATA    BYTE      temp2
      0001128EH   SYMBOL    XDATA    ---       p_data

      ---         MODULE    ---      ---       zf_device_ips200pro
      00010C92H   PUBLIC    XDATA    ---       ips200pro_information
      00010C9BH   PUBLIC    XDATA    ---       ips200pro_time
      0001164EH   PUBLIC    XDATA    BYTE      ?ips200pro_send_buffer?BYTE
      00011709H   PUBLIC    XDATA    BYTE      ?ips200pro_receive_buffer?BYTE
      00011145H   PUBLIC    XDATA    BYTE      ?ips200pro_write_packet?BYTE
      000111F8H   PUBLIC    XDATA    BYTE      ?ips200pro_create_widgets?BYTE
      00010DEEH   PUBLIC    XDATA    BYTE      ?ips200pro_label_printf?BYTE
      00010D69H   PUBLIC    XDATA    BYTE      ?ips200pro_table_cell_printf?BYTE
      00011213H   PUBLIC    XDATA    BYTE      ?ips200pro_waveform_add_value?BYTE
      0001102FH   PUBLIC    XDATA    BYTE      ?ips200pro_image_display?BYTE
      0001122DH   PUBLIC    XDATA    BYTE      ?ips200pro_image_draw_line?BYTE
      000110A4H   PUBLIC    XDATA    BYTE      ?ips200pro_image_draw_rectangle?BYTE
      000000D0H   SFRSYM    DATA     BYTE      PSW
      0000009DH   SFRSYM    DATA     BYTE      IRCBAND
      00000097H   SFRSYM    DATA     BYTE      AUXR2
      000000EFH   SFRSYM    DATA     BYTE      AUXINTIF
      000000FDH   SFRSYM    DATA     BYTE      S4CON
      000000ACH   SFRSYM    DATA     BYTE      S3CON
      0000009AH   SFRSYM    DATA     BYTE      S2CON
      000000B7H   SFRSYM    DATA     BYTE      IPH
      000000CDH   SFRSYM    DATA     BYTE      SPSTAT
      000000DDH   SFRSYM    DATA     BYTE      T4T3M
      000000C1H   SFRSYM    DATA     BYTE      WDT_CONTR
      000000DFH   SFRSYM    DATA     BYTE      IP3
      000000F4H   SFRSYM    DATA     BYTE      USBCON
      000000B5H   SFRSYM    DATA     BYTE      IP2
      000000FFH   SFRSYM    DATA     BYTE      RSTCFG
      000000C7H   SFRSYM    DATA     BYTE      IAP_CONTR
      000000F9H   SFRSYM    DATA     BYTE      LINICR
      0000008EH   SFRSYM    DATA     BYTE      AUXR
      000000AFH   SFRSYM    DATA     BYTE      IE2
      00000088H   SFRSYM    DATA     BYTE      TCON
      00000089H   SFRSYM    DATA     BYTE      TMOD
      00000098H   SFRSYM    DATA     BYTE      SCON
      000000A0H.2 SFRSYM    DATA     BIT       P22
      000000A0H.1 SFRSYM    DATA     BIT       P21
      000000F1H   SFRSYM    DATA     BYTE      CANICR
      00000087H   SFRSYM    DATA     BYTE      PCON
      000000BCH   SFRSYM    DATA     BYTE      ADC_CONTR
      000000E7H   SFRSYM    DATA     BYTE      CMPCR2
      000000E6H   SFRSYM    DATA     BYTE      CMPCR1
      000000DEH   SFRSYM    DATA     BYTE      ADCCFG
      000000B8H   SFRSYM    DATA     BYTE      IP
      0000008FH   SFRSYM    DATA     BYTE      INTCLKO
      000000EEH   SFRSYM    DATA     BYTE      IP3H
      000000B6H   SFRSYM    DATA     BYTE      IP2H
      000000A8H   SFRSYM    DATA     BYTE      IE
      000000BBH   SFRSYM    DATA     BYTE      P_SW3
      000000BAH   SFRSYM    DATA     BYTE      P_SW2
      000000A2H   SFRSYM    DATA     BYTE      P_SW1
      000000CEH   SFRSYM    DATA     BYTE      SPCTL
      000000F8H   SFRSYM    DATA     BYTE      P7
L251 LINKER/LOCATER V4.66.93.0                                                        03/26/2026  19:04:27  PAGE 111


      000000E8H   SFRSYM    DATA     BYTE      P6
      000000C8H   SFRSYM    DATA     BYTE      P5
      000000C0H   SFRSYM    DATA     BYTE      P4
      000000B0H   SFRSYM    DATA     BYTE      P3
      000000A0H   SFRSYM    DATA     BYTE      P2
      00000090H   SFRSYM    DATA     BYTE      P1
      00000080H   SFRSYM    DATA     BYTE      P0
      00010C5FH   SYMBOL    XDATA    ---       ips200pro_printf_buffer
      00010CA3H   SYMBOL    XDATA    BYTE      ips200pro_page_num
      00011D6DH   SYMBOL    XDATA    DWORD     wait_time
      0001164EH   SYMBOL    XDATA    ---       buffer
      00011652H   SYMBOL    XDATA    DWORD     length
      00011656H   SYMBOL    XDATA    DWORD     time_out
      0001165AH   SYMBOL    XDATA    BYTE      end_flag
      0001165BH   SYMBOL    XDATA    BYTE      return_state
      00011709H   SYMBOL    XDATA    ---       buffer
      0001170DH   SYMBOL    XDATA    DWORD     length
      00011711H   SYMBOL    XDATA    DWORD     time_out
      00011715H   SYMBOL    XDATA    BYTE      return_state
      00011145H   SYMBOL    XDATA    INT       command1
      00011147H   SYMBOL    XDATA    INT       command2
      00011149H   SYMBOL    XDATA    BYTE      widgets_id
      0001114AH   SYMBOL    XDATA    ---       temp
      0001114EH   SYMBOL    XDATA    DWORD     length
      00011152H   SYMBOL    XDATA    ---       buffer
      00011156H   SYMBOL    XDATA    DWORD     buffer_length
      0001115AH   SYMBOL    XDATA    BYTE      return_state
      0001115BH   SYMBOL    XDATA    ---       p
      0001115FH   SYMBOL    XDATA    BYTE      tmp
      00011160H   SYMBOL    XDATA    WORD      i
      00011162H   SYMBOL    XDATA    WORD      struct_len
      00011B49H   SYMBOL    XDATA    INT       command2
      00011B4BH   SYMBOL    XDATA    ---       temp
      00011B4FH   SYMBOL    XDATA    BYTE      length
      00011B50H   SYMBOL    XDATA    BYTE      return_state
      00011492H   SYMBOL    XDATA    WORD      year
      00011494H   SYMBOL    XDATA    BYTE      month
      00011495H   SYMBOL    XDATA    BYTE      day
      00011496H   SYMBOL    XDATA    BYTE      return_state
      00011497H   SYMBOL    XDATA    ---       temp
      00011529H   SYMBOL    XDATA    BYTE      hour
      0001152AH   SYMBOL    XDATA    BYTE      minute
      0001152BH   SYMBOL    XDATA    BYTE      second
      0001152CH   SYMBOL    XDATA    BYTE      return_state
      0001152DH   SYMBOL    XDATA    ---       temp
      000114A3H   SYMBOL    XDATA    WORD      child_id
      000114A5H   SYMBOL    XDATA    WORD      parent_id
      000114A7H   SYMBOL    XDATA    BYTE      return_state
      000114A8H   SYMBOL    XDATA    ---       temp
      00011716H   SYMBOL    XDATA    INT       format
      00011718H   SYMBOL    XDATA    BYTE      return_state
      00011719H   SYMBOL    XDATA    ---       temp
      0001185EH   SYMBOL    XDATA    BYTE      backlight
      0001185FH   SYMBOL    XDATA    BYTE      return_state
      00011860H   SYMBOL    XDATA    ---       temp
      00011723H   SYMBOL    XDATA    INT       dir
      00011725H   SYMBOL    XDATA    BYTE      return_state
      00011726H   SYMBOL    XDATA    ---       temp
      0001186AH   SYMBOL    XDATA    BYTE      crc_state
      0001186BH   SYMBOL    XDATA    BYTE      return_state
      0001186CH   SYMBOL    XDATA    ---       temp
      00011730H   SYMBOL    XDATA    INT       font
      00011732H   SYMBOL    XDATA    BYTE      return_state
      00011733H   SYMBOL    XDATA    ---       temp
      00011876H   SYMBOL    XDATA    BYTE      state
L251 LINKER/LOCATER V4.66.93.0                                                        03/26/2026  19:04:27  PAGE 112


      00011877H   SYMBOL    XDATA    BYTE      return_state
      00011878H   SYMBOL    XDATA    ---       temp
      000114B4H   SYMBOL    XDATA    ---       time
      000114B8H   SYMBOL    XDATA    BYTE      return_state
      000114B9H   SYMBOL    XDATA    ---       temp
      000114C5H   SYMBOL    XDATA    ---       time
      000114C9H   SYMBOL    XDATA    BYTE      return_state
      000114CAH   SYMBOL    XDATA    ---       temp
      000112EFH   SYMBOL    XDATA    ---       information
      000112F3H   SYMBOL    XDATA    BYTE      return_state
      000112F4H   SYMBOL    XDATA    ---       temp
      000114D6H   SYMBOL    XDATA    ---       stack_size
      000114DAH   SYMBOL    XDATA    BYTE      return_state
      000114DBH   SYMBOL    XDATA    ---       temp
      000111F8H   SYMBOL    XDATA    WORD      widgets_id
      000111FAH   SYMBOL    XDATA    INT       x
      000111FCH   SYMBOL    XDATA    INT       y
      000111FEH   SYMBOL    XDATA    WORD      width
      00011200H   SYMBOL    XDATA    WORD      height
      00011202H   SYMBOL    XDATA    BYTE      return_state
      00011203H   SYMBOL    XDATA    ---       temp
      0001190DH   SYMBOL    XDATA    WORD      widgets_id
      0001190FH   SYMBOL    XDATA    BYTE      return_state
      00011910H   SYMBOL    XDATA    ---       temp
      00011559H   SYMBOL    XDATA    WORD      widgets_id
      0001155BH   SYMBOL    XDATA    INT       font_size
      0001155DH   SYMBOL    XDATA    BYTE      return_state
      0001155EH   SYMBOL    XDATA    ---       temp
      000113CBH   SYMBOL    XDATA    WORD      widgets_id
      000113CDH   SYMBOL    XDATA    INT       color_type
      000113CFH   SYMBOL    XDATA    WORD      color
      000113D1H   SYMBOL    XDATA    BYTE      return_state
      000113D2H   SYMBOL    XDATA    ---       temp
      000113DEH   SYMBOL    XDATA    WORD      widgets_id
      000113E0H   SYMBOL    XDATA    INT       x
      000113E2H   SYMBOL    XDATA    INT       y
      000113E4H   SYMBOL    XDATA    BYTE      return_state
      000113E5H   SYMBOL    XDATA    ---       temp
      0001165CH   SYMBOL    XDATA    WORD      widgets_id
      0001165EH   SYMBOL    XDATA    BYTE      state
      0001165FH   SYMBOL    XDATA    BYTE      return_state
      00011660H   SYMBOL    XDATA    ---       temp
      00011CF4H   SYMBOL    XDATA    ---       str
      00011CF8H   SYMBOL    XDATA    BYTE      return_state
      00011568H   SYMBOL    XDATA    WORD      page_id
      0001156AH   SYMBOL    XDATA    INT       anim_en
      0001156CH   SYMBOL    XDATA    BYTE      return_state
      0001156DH   SYMBOL    XDATA    ---       temp
      00011D71H   SYMBOL    XDATA    WORD      page_id
      00011D73H   SYMBOL    XDATA    BYTE      state
      00011D74H   SYMBOL    XDATA    BYTE      return_state
      00011577H   SYMBOL    XDATA    WORD      page_id
      00011579H   SYMBOL    XDATA    ---       str
      0001157DH   SYMBOL    XDATA    BYTE      return_state
      0001157EH   SYMBOL    XDATA    ---       temp
      00011539H   SYMBOL    XDATA    INT       title_position
      0001153BH   SYMBOL    XDATA    BYTE      title_width
      0001153CH   SYMBOL    XDATA    BYTE      return_state
      0001153DH   SYMBOL    XDATA    ---       temp
      00011A2CH   SYMBOL    XDATA    INT       x
      00011A2EH   SYMBOL    XDATA    INT       y
      00011A30H   SYMBOL    XDATA    WORD      width
      00011A32H   SYMBOL    XDATA    WORD      height
      00011A34H   SYMBOL    XDATA    BYTE      return_state
      00010CA4H   SYMBOL    XDATA    BYTE      lebel_num
L251 LINKER/LOCATER V4.66.93.0                                                        03/26/2026  19:04:27  PAGE 113


      00010DEEH   SYMBOL    XDATA    WORD      label_id
      00010DF0H   SYMBOL    XDATA    ---       format
      00010DF4H   SYMBOL    XDATA    LONG      str_length
      00010DF8H   SYMBOL    XDATA    BYTE      return_state
      00010DF9H   SYMBOL    XDATA    ---       temp
      00010E01H   SYMBOL    XDATA    ---       arg
      00011586H   SYMBOL    XDATA    WORD      label_id
      00011588H   SYMBOL    XDATA    ---       str
      0001158CH   SYMBOL    XDATA    BYTE      return_state
      0001158DH   SYMBOL    XDATA    ---       temp
      00011595H   SYMBOL    XDATA    WORD      label_id
      00011597H   SYMBOL    XDATA    INT       mode
      00011599H   SYMBOL    XDATA    BYTE      return_state
      0001159AH   SYMBOL    XDATA    ---       temp
      00011A35H   SYMBOL    XDATA    INT       x
      00011A37H   SYMBOL    XDATA    INT       y
      00011A39H   SYMBOL    XDATA    WORD      row_num
      00011A3BH   SYMBOL    XDATA    WORD      col_num
      00011A3DH   SYMBOL    XDATA    BYTE      return_state
      00010CA5H   SYMBOL    XDATA    BYTE      table_num
      00010D69H   SYMBOL    XDATA    WORD      table_id
      00010D6BH   SYMBOL    XDATA    BYTE      row
      00010D6CH   SYMBOL    XDATA    BYTE      col
      00010D6DH   SYMBOL    XDATA    ---       format
      00010D71H   SYMBOL    XDATA    LONG      str_length
      00010D75H   SYMBOL    XDATA    BYTE      return_state
      00010D76H   SYMBOL    XDATA    ---       arg
      00010D7AH   SYMBOL    XDATA    ---       temp
      0001143BH   SYMBOL    XDATA    WORD      table_id
      0001143DH   SYMBOL    XDATA    BYTE      col
      0001143EH   SYMBOL    XDATA    WORD      width
      00011440H   SYMBOL    XDATA    BYTE      return_state
      00011441H   SYMBOL    XDATA    ---       temp
      000114E7H   SYMBOL    XDATA    WORD      table_id
      000114E9H   SYMBOL    XDATA    BYTE      row
      000114EAH   SYMBOL    XDATA    BYTE      col
      000114EBH   SYMBOL    XDATA    BYTE      return_state
      000114ECH   SYMBOL    XDATA    ---       temp
      00011A3EH   SYMBOL    XDATA    INT       x
      00011A40H   SYMBOL    XDATA    INT       y
      00011A42H   SYMBOL    XDATA    WORD      siz
      00011A44H   SYMBOL    XDATA    INT       style
      00011A46H   SYMBOL    XDATA    BYTE      return_state
      00010CA6H   SYMBOL    XDATA    BYTE      meter_num
      000115A4H   SYMBOL    XDATA    WORD      meter_id
      000115A6H   SYMBOL    XDATA    INT       value
      000115A8H   SYMBOL    XDATA    BYTE      return_state
      000115A9H   SYMBOL    XDATA    ---       temp
      00011A47H   SYMBOL    XDATA    INT       x
      00011A49H   SYMBOL    XDATA    INT       y
      00011A4BH   SYMBOL    XDATA    WORD      clock_size
      00011A4DH   SYMBOL    XDATA    INT       clock_type
      00011A4FH   SYMBOL    XDATA    BYTE      return_state
      00010CA7H   SYMBOL    XDATA    BYTE      clock_num
      00011A50H   SYMBOL    XDATA    INT       x
      00011A52H   SYMBOL    XDATA    INT       y
      00011A54H   SYMBOL    XDATA    WORD      width
      00011A56H   SYMBOL    XDATA    WORD      height
      00011A58H   SYMBOL    XDATA    BYTE      return_state
      00010CA8H   SYMBOL    XDATA    BYTE      progress_bar_num
      000114F8H   SYMBOL    XDATA    WORD      progress_bar_id
      000114FAH   SYMBOL    XDATA    BYTE      start_value
      000114FBH   SYMBOL    XDATA    BYTE      end_value
      000114FCH   SYMBOL    XDATA    BYTE      return_state
      000114FDH   SYMBOL    XDATA    ---       temp
L251 LINKER/LOCATER V4.66.93.0                                                        03/26/2026  19:04:27  PAGE 114


      00011A59H   SYMBOL    XDATA    INT       x
      00011A5BH   SYMBOL    XDATA    INT       y
      00011A5DH   SYMBOL    XDATA    WORD      width
      00011A5FH   SYMBOL    XDATA    WORD      height
      00011A61H   SYMBOL    XDATA    BYTE      return_state
      0001144DH   SYMBOL    XDATA    WORD      year
      0001144FH   SYMBOL    XDATA    BYTE      month
      00011450H   SYMBOL    XDATA    INT       mode
      00011452H   SYMBOL    XDATA    BYTE      return_state
      00011453H   SYMBOL    XDATA    ---       temp
      00011A62H   SYMBOL    XDATA    INT       x
      00011A64H   SYMBOL    XDATA    INT       y
      00011A66H   SYMBOL    XDATA    WORD      width
      00011A68H   SYMBOL    XDATA    WORD      height
      00011A6AH   SYMBOL    XDATA    BYTE      return_state
      00010CA9H   SYMBOL    XDATA    BYTE      waveform_num
      00011213H   SYMBOL    XDATA    WORD      waveform_id
      00011215H   SYMBOL    XDATA    BYTE      line_id
      00011216H   SYMBOL    XDATA    ---       dat
      0001121AH   SYMBOL    XDATA    WORD      length
      0001121CH   SYMBOL    XDATA    WORD      color
      0001121EH   SYMBOL    XDATA    BYTE      return_state
      0001121FH   SYMBOL    XDATA    WORD      i
      00011221H   SYMBOL    XDATA    ---       temp
      000113F1H   SYMBOL    XDATA    WORD      waveform_id
      000113F3H   SYMBOL    XDATA    WORD      line_id
      000113F5H   SYMBOL    XDATA    WORD      line_state
      000113F7H   SYMBOL    XDATA    BYTE      return_state
      000113F8H   SYMBOL    XDATA    ---       temp
      0001166AH   SYMBOL    XDATA    WORD      waveform_id
      0001166CH   SYMBOL    XDATA    BYTE      line_type
      0001166DH   SYMBOL    XDATA    BYTE      return_state
      0001166EH   SYMBOL    XDATA    ---       temp
      00011918H   SYMBOL    XDATA    WORD      waveform_id
      0001191AH   SYMBOL    XDATA    BYTE      return_state
      0001191BH   SYMBOL    XDATA    ---       temp
      00011A6BH   SYMBOL    XDATA    INT       x
      00011A6DH   SYMBOL    XDATA    INT       y
      00011A6FH   SYMBOL    XDATA    WORD      width
      00011A71H   SYMBOL    XDATA    WORD      height
      00011A73H   SYMBOL    XDATA    BYTE      return_state
      00010CAAH   SYMBOL    XDATA    BYTE      image_num
      0001102FH   SYMBOL    XDATA    WORD      image_id
      00011031H   SYMBOL    XDATA    ---       image
      00011035H   SYMBOL    XDATA    WORD      width
      00011037H   SYMBOL    XDATA    WORD      height
      00011039H   SYMBOL    XDATA    INT       image_type
      0001103BH   SYMBOL    XDATA    BYTE      threshold
      0001103CH   SYMBOL    XDATA    BYTE      return_state
      0001103DH   SYMBOL    XDATA    WORD      send_length
      0001103FH   SYMBOL    XDATA    DWORD     image_size
      00011043H   SYMBOL    XDATA    ---       image_data
      00011047H   SYMBOL    XDATA    ---       temp
      0001122DH   SYMBOL    XDATA    WORD      image_id
      0001122FH   SYMBOL    XDATA    BYTE      line_id
      00011230H   SYMBOL    XDATA    ---       line_data
      00011234H   SYMBOL    XDATA    WORD      line_length
      00011236H   SYMBOL    XDATA    INT       data_type
      00011238H   SYMBOL    XDATA    WORD      color
      0001123AH   SYMBOL    XDATA    BYTE      return_state
      0001123BH   SYMBOL    XDATA    ---       temp
      000110A4H   SYMBOL    XDATA    WORD      image_id
      000110A6H   SYMBOL    XDATA    BYTE      rectangle_id
      000110A7H   SYMBOL    XDATA    INT       x
      000110A9H   SYMBOL    XDATA    INT       y
L251 LINKER/LOCATER V4.66.93.0                                                        03/26/2026  19:04:27  PAGE 115


      000110ABH   SYMBOL    XDATA    WORD      rectangle_width
      000110ADH   SYMBOL    XDATA    WORD      rectangle_height
      000110AFH   SYMBOL    XDATA    WORD      color
      000110B1H   SYMBOL    XDATA    BYTE      return_state
      000110B2H   SYMBOL    XDATA    ---       temp
      00011A74H   SYMBOL    XDATA    INT       x
      00011A76H   SYMBOL    XDATA    INT       y
      00011A78H   SYMBOL    XDATA    WORD      width
      00011A7AH   SYMBOL    XDATA    WORD      height
      00011A7CH   SYMBOL    XDATA    BYTE      return_state
      00010CABH   SYMBOL    XDATA    BYTE      container_num
      00011404H   SYMBOL    XDATA    WORD      container_id
      00011406H   SYMBOL    XDATA    WORD      border_width
      00011408H   SYMBOL    XDATA    WORD      radius
      0001140AH   SYMBOL    XDATA    BYTE      return_state
      0001140BH   SYMBOL    XDATA    ---       temp
      00011A7DH   SYMBOL    XDATA    ---       str
      00011A81H   SYMBOL    XDATA    INT       title_position
      00011A83H   SYMBOL    XDATA    BYTE      title_size
      00011A84H   SYMBOL    XDATA    WORD      page_id

      ---         MODULE    ---      ---       zf_device_tft180
      00011B51H   PUBLIC    XDATA    WORD      tft180_pencolor
      00011B53H   PUBLIC    XDATA    WORD      tft180_bgcolor
      00011B55H   PUBLIC    XDATA    INT       tft180_display_dir
      00011B57H   PUBLIC    XDATA    BYTE      tft180_x_max
      00011B58H   PUBLIC    XDATA    BYTE      tft180_y_max
      00010ECDH   PUBLIC    XDATA    BYTE      ?tft180_show_float?BYTE
      00011106H   PUBLIC    XDATA    BYTE      ?tft180_show_wave?BYTE
      000000D0H   SFRSYM    DATA     BYTE      PSW
      0000009DH   SFRSYM    DATA     BYTE      IRCBAND
      00000097H   SFRSYM    DATA     BYTE      AUXR2
      000000EFH   SFRSYM    DATA     BYTE      AUXINTIF
      000000FDH   SFRSYM    DATA     BYTE      S4CON
      000000ACH   SFRSYM    DATA     BYTE      S3CON
      0000009AH   SFRSYM    DATA     BYTE      S2CON
      000000B7H   SFRSYM    DATA     BYTE      IPH
      000000CDH   SFRSYM    DATA     BYTE      SPSTAT
      000000DDH   SFRSYM    DATA     BYTE      T4T3M
      000000C1H   SFRSYM    DATA     BYTE      WDT_CONTR
      000000DFH   SFRSYM    DATA     BYTE      IP3
      000000F4H   SFRSYM    DATA     BYTE      USBCON
      000000B5H   SFRSYM    DATA     BYTE      IP2
      000000FFH   SFRSYM    DATA     BYTE      RSTCFG
      000000C7H   SFRSYM    DATA     BYTE      IAP_CONTR
      000000F9H   SFRSYM    DATA     BYTE      LINICR
      0000008EH   SFRSYM    DATA     BYTE      AUXR
      000000AFH   SFRSYM    DATA     BYTE      IE2
      00000088H   SFRSYM    DATA     BYTE      TCON
      00000089H   SFRSYM    DATA     BYTE      TMOD
      00000098H   SFRSYM    DATA     BYTE      SCON
      000000A0H.2 SFRSYM    DATA     BIT       P22
      000000A0H.1 SFRSYM    DATA     BIT       P21
      000000A0H.0 SFRSYM    DATA     BIT       P20
      000000F1H   SFRSYM    DATA     BYTE      CANICR
      00000087H   SFRSYM    DATA     BYTE      PCON
      000000BCH   SFRSYM    DATA     BYTE      ADC_CONTR
      000000E7H   SFRSYM    DATA     BYTE      CMPCR2
      000000E6H   SFRSYM    DATA     BYTE      CMPCR1
      000000DEH   SFRSYM    DATA     BYTE      ADCCFG
      000000B8H   SFRSYM    DATA     BYTE      IP
      0000008FH   SFRSYM    DATA     BYTE      INTCLKO
      000000EEH   SFRSYM    DATA     BYTE      IP3H
      000000B6H   SFRSYM    DATA     BYTE      IP2H
      000000A8H   SFRSYM    DATA     BYTE      IE
L251 LINKER/LOCATER V4.66.93.0                                                        03/26/2026  19:04:27  PAGE 116


      000000BBH   SFRSYM    DATA     BYTE      P_SW3
      000000BAH   SFRSYM    DATA     BYTE      P_SW2
      000000A2H   SFRSYM    DATA     BYTE      P_SW1
      000000CEH   SFRSYM    DATA     BYTE      SPCTL
      000000F8H   SFRSYM    DATA     BYTE      P7
      000000E8H   SFRSYM    DATA     BYTE      P6
      000000C8H   SFRSYM    DATA     BYTE      P5
      000000C0H   SFRSYM    DATA     BYTE      P4
      000000B0H   SFRSYM    DATA     BYTE      P3
      000000A0H   SFRSYM    DATA     BYTE      P2
      00000090H   SFRSYM    DATA     BYTE      P1
      00000080H   SFRSYM    DATA     BYTE      P0
      00011E0CH   SYMBOL    XDATA    BYTE      dat
      00011B59H   SYMBOL    XDATA    WORD      x1
      00011B5BH   SYMBOL    XDATA    WORD      y1
      00011B5DH   SYMBOL    XDATA    WORD      x2
      00011B5FH   SYMBOL    XDATA    WORD      y2
      00011C7DH   SYMBOL    XDATA    WORD      color
      00011C7FH   SYMBOL    XDATA    DWORD     i
      00011DEDH   SYMBOL    XDATA    INT       dir
      00011D75H   SYMBOL    XDATA    WORD      pen
      00011D77H   SYMBOL    XDATA    WORD      bgcolor
      00011C83H   SYMBOL    XDATA    WORD      x
      00011C85H   SYMBOL    XDATA    WORD      y
      00011C87H   SYMBOL    XDATA    WORD      color
      00011B61H   SYMBOL    XDATA    WORD      x
      00011B63H   SYMBOL    XDATA    WORD      y
      00011B65H   SYMBOL    XDATA    CHAR      dat
      00011B66H   SYMBOL    XDATA    BYTE      i
      00011B67H   SYMBOL    XDATA    BYTE      j
      00011B68H   SYMBOL    XDATA    BYTE      temp
      0001197DH   SYMBOL    XDATA    WORD      x
      0001197FH   SYMBOL    XDATA    WORD      y
      00011981H   SYMBOL    XDATA    ---       dat
      00011985H   SYMBOL    XDATA    WORD      j
      00011A86H   SYMBOL    XDATA    WORD      x
      00011A88H   SYMBOL    XDATA    WORD      y
      00011A8AH   SYMBOL    XDATA    CHAR      dat
      00011A8BH   SYMBOL    XDATA    ---       a
      00011A8EH   SYMBOL    XDATA    BYTE      i
      00011A8FH   SYMBOL    XDATA    WORD      x
      00011A91H   SYMBOL    XDATA    WORD      y
      00011A93H   SYMBOL    XDATA    BYTE      dat
      00011A94H   SYMBOL    XDATA    ---       a
      00011A97H   SYMBOL    XDATA    BYTE      i
      00011882H   SYMBOL    XDATA    WORD      x
      00011884H   SYMBOL    XDATA    WORD      y
      00011886H   SYMBOL    XDATA    INT       dat
      00011888H   SYMBOL    XDATA    ---       a
      0001188DH   SYMBOL    XDATA    BYTE      i
      0001188EH   SYMBOL    XDATA    WORD      x
      00011890H   SYMBOL    XDATA    WORD      y
      00011892H   SYMBOL    XDATA    WORD      dat
      00011894H   SYMBOL    XDATA    ---       a
      00011899H   SYMBOL    XDATA    BYTE      i
      00010F84H   SYMBOL    XDATA    WORD      x
      00010F86H   SYMBOL    XDATA    WORD      y
      00010F88H   SYMBOL    XDATA    LONG      dat
      00010F8CH   SYMBOL    XDATA    BYTE      num
      00010F8DH   SYMBOL    XDATA    ---       buff
      00010FAFH   SYMBOL    XDATA    BYTE      length
      00010ECDH   SYMBOL    XDATA    WORD      x
      00010ECFH   SYMBOL    XDATA    WORD      y
      00010ED1H   SYMBOL    XDATA    FLOAT     dat
      00010ED5H   SYMBOL    XDATA    BYTE      num
L251 LINKER/LOCATER V4.66.93.0                                                        03/26/2026  19:04:27  PAGE 117


      00010ED6H   SYMBOL    XDATA    BYTE      pointnum
      00010ED7H   SYMBOL    XDATA    BYTE      length
      00010ED8H   SYMBOL    XDATA    ---       buff
      00010EFAH   SYMBOL    XDATA    CHAR      start
      00010EFBH   SYMBOL    XDATA    CHAR      end
      00010EFCH   SYMBOL    XDATA    CHAR      point
      00011106H   SYMBOL    XDATA    WORD      x
      00011108H   SYMBOL    XDATA    WORD      y
      0001110AH   SYMBOL    XDATA    ---       p
      0001110EH   SYMBOL    XDATA    WORD      width
      00011110H   SYMBOL    XDATA    WORD      value_max
      00011112H   SYMBOL    XDATA    WORD      dis_width
      00011114H   SYMBOL    XDATA    WORD      dis_value_max
      00011116H   SYMBOL    XDATA    DWORD     i
      0001111AH   SYMBOL    XDATA    DWORD     j
      0001111EH   SYMBOL    XDATA    DWORD     width_index
      00011122H   SYMBOL    XDATA    DWORD     value_max_index

      ---         MODULE    ---      ---       zf_device_tsl1401
      0001020AH   PUBLIC    XDATA    BYTE      tsl1401_finish_flag
      0001020BH   PUBLIC    XDATA    ---       tsl1401_data
      000000D0H   SFRSYM    DATA     BYTE      PSW
      0000009DH   SFRSYM    DATA     BYTE      IRCBAND
      00000097H   SFRSYM    DATA     BYTE      AUXR2
      000000EFH   SFRSYM    DATA     BYTE      AUXINTIF
      000000FDH   SFRSYM    DATA     BYTE      S4CON
      000000ACH   SFRSYM    DATA     BYTE      S3CON
      0000009AH   SFRSYM    DATA     BYTE      S2CON
      000000B7H   SFRSYM    DATA     BYTE      IPH
      000000CDH   SFRSYM    DATA     BYTE      SPSTAT
      000000DDH   SFRSYM    DATA     BYTE      T4T3M
      000000C1H   SFRSYM    DATA     BYTE      WDT_CONTR
      000000DFH   SFRSYM    DATA     BYTE      IP3
      000000F4H   SFRSYM    DATA     BYTE      USBCON
      000000B5H   SFRSYM    DATA     BYTE      IP2
      000000FFH   SFRSYM    DATA     BYTE      RSTCFG
      000000C7H   SFRSYM    DATA     BYTE      IAP_CONTR
      000000F9H   SFRSYM    DATA     BYTE      LINICR
      0000008EH   SFRSYM    DATA     BYTE      AUXR
      000000AFH   SFRSYM    DATA     BYTE      IE2
      00000088H   SFRSYM    DATA     BYTE      TCON
      00000089H   SFRSYM    DATA     BYTE      TMOD
      00000098H   SFRSYM    DATA     BYTE      SCON
      000000F1H   SFRSYM    DATA     BYTE      CANICR
      00000087H   SFRSYM    DATA     BYTE      PCON
      000000BCH   SFRSYM    DATA     BYTE      ADC_CONTR
      000000E7H   SFRSYM    DATA     BYTE      CMPCR2
      000000E6H   SFRSYM    DATA     BYTE      CMPCR1
      000000DEH   SFRSYM    DATA     BYTE      ADCCFG
      000000B8H   SFRSYM    DATA     BYTE      IP
      0000008FH   SFRSYM    DATA     BYTE      INTCLKO
      000000EEH   SFRSYM    DATA     BYTE      IP3H
      000000B6H   SFRSYM    DATA     BYTE      IP2H
      000000A8H   SFRSYM    DATA     BYTE      IE
      000000BBH   SFRSYM    DATA     BYTE      P_SW3
      000000BAH   SFRSYM    DATA     BYTE      P_SW2
      000000A2H   SFRSYM    DATA     BYTE      P_SW1
      000000CEH   SFRSYM    DATA     BYTE      SPCTL
      000000F8H   SFRSYM    DATA     BYTE      P7
      000000E8H   SFRSYM    DATA     BYTE      P6
      000000C8H   SFRSYM    DATA     BYTE      P5
      000000C0H   SFRSYM    DATA     BYTE      P4
      000000B0H   SFRSYM    DATA     BYTE      P3
      000000A0H   SFRSYM    DATA     BYTE      P2
      00000090H   SFRSYM    DATA     BYTE      P1
L251 LINKER/LOCATER V4.66.93.0                                                        03/26/2026  19:04:27  PAGE 118


      00000080H   SFRSYM    DATA     BYTE      P0
      0001040BH   SYMBOL    XDATA    BYTE      tsl1401_init_state
      00011E0DH   SYMBOL    XDATA    BYTE      i
      00011D79H   SYMBOL    XDATA    INT       uart_n
      00011D7BH   SYMBOL    XDATA    BYTE      index
      00011D7CH   SYMBOL    XDATA    BYTE      i

      ---         MODULE    ---      ---       zf_device_type
      00FF858EH   PUBLIC    CODE     ---       set_wireless_type
      00011B69H   PUBLIC    XDATA    ---       tof_module_exti_handler
      00011B6BH   PUBLIC    XDATA    INT       wireless_type
      00011B6DH   PUBLIC    XDATA    INT       tof_type
      00011B6FH   PUBLIC    XDATA    INT       gps_type
      000000D0H   SFRSYM    DATA     BYTE      PSW
      0000009DH   SFRSYM    DATA     BYTE      IRCBAND
      00000097H   SFRSYM    DATA     BYTE      AUXR2
      000000EFH   SFRSYM    DATA     BYTE      AUXINTIF
      000000FDH   SFRSYM    DATA     BYTE      S4CON
      000000ACH   SFRSYM    DATA     BYTE      S3CON
      0000009AH   SFRSYM    DATA     BYTE      S2CON
      000000B7H   SFRSYM    DATA     BYTE      IPH
      000000CDH   SFRSYM    DATA     BYTE      SPSTAT
      000000DDH   SFRSYM    DATA     BYTE      T4T3M
      000000C1H   SFRSYM    DATA     BYTE      WDT_CONTR
      000000DFH   SFRSYM    DATA     BYTE      IP3
      000000F4H   SFRSYM    DATA     BYTE      USBCON
      000000B5H   SFRSYM    DATA     BYTE      IP2
      000000FFH   SFRSYM    DATA     BYTE      RSTCFG
      000000C7H   SFRSYM    DATA     BYTE      IAP_CONTR
      000000F9H   SFRSYM    DATA     BYTE      LINICR
      0000008EH   SFRSYM    DATA     BYTE      AUXR
      000000AFH   SFRSYM    DATA     BYTE      IE2
      00000088H   SFRSYM    DATA     BYTE      TCON
      00000089H   SFRSYM    DATA     BYTE      TMOD
      00000098H   SFRSYM    DATA     BYTE      SCON
      000000F1H   SFRSYM    DATA     BYTE      CANICR
      00000087H   SFRSYM    DATA     BYTE      PCON
      000000BCH   SFRSYM    DATA     BYTE      ADC_CONTR
      000000E7H   SFRSYM    DATA     BYTE      CMPCR2
      000000E6H   SFRSYM    DATA     BYTE      CMPCR1
      000000DEH   SFRSYM    DATA     BYTE      ADCCFG
      000000B8H   SFRSYM    DATA     BYTE      IP
      0000008FH   SFRSYM    DATA     BYTE      INTCLKO
      000000EEH   SFRSYM    DATA     BYTE      IP3H
      000000B6H   SFRSYM    DATA     BYTE      IP2H
      000000A8H   SFRSYM    DATA     BYTE      IE
      000000BBH   SFRSYM    DATA     BYTE      P_SW3
      000000BAH   SFRSYM    DATA     BYTE      P_SW2
      000000A2H   SFRSYM    DATA     BYTE      P_SW1
      000000CEH   SFRSYM    DATA     BYTE      SPCTL
      000000F8H   SFRSYM    DATA     BYTE      P7
      000000E8H   SFRSYM    DATA     BYTE      P6
      000000C8H   SFRSYM    DATA     BYTE      P5
      000000C0H   SFRSYM    DATA     BYTE      P4
      000000B0H   SFRSYM    DATA     BYTE      P3
      000000A0H   SFRSYM    DATA     BYTE      P2
      00000090H   SFRSYM    DATA     BYTE      P1
      00000080H   SFRSYM    DATA     BYTE      P0

      00FF858EH   BLOCK     CODE     ---       LVL=0
      00011B71H   SYMBOL    XDATA    INT       type_set
      00011B73H   SYMBOL    XDATA    INT       uartx
      00011B75H   SYMBOL    XDATA    ---       uart_callback
      00FF858EH   LINE      CODE     ---       #52
      00FF85A4H   LINE      CODE     ---       #54
L251 LINKER/LOCATER V4.66.93.0                                                        03/26/2026  19:04:27  PAGE 119


      00FF85B0H   LINE      CODE     ---       #56
      00FF85BCH   LINE      CODE     ---       #58
      00FF85CCH   LINE      CODE     ---       #59
      00FF85CEH   LINE      CODE     ---       #60
      00FF85DCH   LINE      CODE     ---       #62
      00FF85ECH   LINE      CODE     ---       #63
      00FF85EEH   LINE      CODE     ---       #64
      00FF85FCH   LINE      CODE     ---       #66
      00FF860CH   LINE      CODE     ---       #67
      00FF860EH   LINE      CODE     ---       #68
      00FF861CH   LINE      CODE     ---       #70
      00FF862CH   LINE      CODE     ---       #71
      ---         BLOCKEND  ---      ---       LVL=0
      00011C89H   SYMBOL    XDATA    INT       type_set
      00011C8BH   SYMBOL    XDATA    ---       exti_callback
      00011B79H   SYMBOL    XDATA    INT       type_set
      00011B7BH   SYMBOL    XDATA    INT       uartx
      00011B7DH   SYMBOL    XDATA    ---       uart_callback

      ---         MODULE    ---      ---       zf_device_wireless_uart
      00FF75D9H   PUBLIC    CODE     ---       wireless_uart_send_buffer
      00FF8D89H   PUBLIC    CODE     ---       wireless_uart_send_string
      00FF942BH   PUBLIC    CODE     ---       wireless_uart_callback
      00FF8A77H   PUBLIC    CODE     ---       wireless_uart_init
      000000D0H   SFRSYM    DATA     BYTE      PSW
      0000009DH   SFRSYM    DATA     BYTE      IRCBAND
      00000097H   SFRSYM    DATA     BYTE      AUXR2
      000000EFH   SFRSYM    DATA     BYTE      AUXINTIF
      000000FDH   SFRSYM    DATA     BYTE      S4CON
      000000ACH   SFRSYM    DATA     BYTE      S3CON
      0000009AH   SFRSYM    DATA     BYTE      S2CON
      000000B7H   SFRSYM    DATA     BYTE      IPH
      000000CDH   SFRSYM    DATA     BYTE      SPSTAT
      000000DDH   SFRSYM    DATA     BYTE      T4T3M
      000000C1H   SFRSYM    DATA     BYTE      WDT_CONTR
      000000DFH   SFRSYM    DATA     BYTE      IP3
      000000F4H   SFRSYM    DATA     BYTE      USBCON
      000000B5H   SFRSYM    DATA     BYTE      IP2
      000000FFH   SFRSYM    DATA     BYTE      RSTCFG
      000000C7H   SFRSYM    DATA     BYTE      IAP_CONTR
      000000F9H   SFRSYM    DATA     BYTE      LINICR
      0000008EH   SFRSYM    DATA     BYTE      AUXR
      000000AFH   SFRSYM    DATA     BYTE      IE2
      00000088H   SFRSYM    DATA     BYTE      TCON
      00000089H   SFRSYM    DATA     BYTE      TMOD
      00000098H   SFRSYM    DATA     BYTE      SCON
      000000F1H   SFRSYM    DATA     BYTE      CANICR
      00000087H   SFRSYM    DATA     BYTE      PCON
      000000BCH   SFRSYM    DATA     BYTE      ADC_CONTR
      000000E7H   SFRSYM    DATA     BYTE      CMPCR2
      000000E6H   SFRSYM    DATA     BYTE      CMPCR1
      000000DEH   SFRSYM    DATA     BYTE      ADCCFG
      000000B8H   SFRSYM    DATA     BYTE      IP
      0000008FH   SFRSYM    DATA     BYTE      INTCLKO
      000000EEH   SFRSYM    DATA     BYTE      IP3H
      000000B6H   SFRSYM    DATA     BYTE      IP2H
      000000A8H   SFRSYM    DATA     BYTE      IE
      000000BBH   SFRSYM    DATA     BYTE      P_SW3
      000000BAH   SFRSYM    DATA     BYTE      P_SW2
      000000A2H   SFRSYM    DATA     BYTE      P_SW1
      000000CEH   SFRSYM    DATA     BYTE      SPCTL
      000000F8H   SFRSYM    DATA     BYTE      P7
      000000E8H   SFRSYM    DATA     BYTE      P6
      000000C8H   SFRSYM    DATA     BYTE      P5
      000000C0H   SFRSYM    DATA     BYTE      P4
L251 LINKER/LOCATER V4.66.93.0                                                        03/26/2026  19:04:27  PAGE 120


      000000B0H   SFRSYM    DATA     BYTE      P3
      000000A0H   SFRSYM    DATA     BYTE      P2
      00000090H   SFRSYM    DATA     BYTE      P1
      00000080H   SFRSYM    DATA     BYTE      P0
      00010BB5H   SYMBOL    XDATA    ---       wireless_uart_fifo
      00010BCCH   SYMBOL    XDATA    ---       wireless_uart_buffer
      00011DB2H   SYMBOL    XDATA    BYTE      dat
      00011DB3H   SYMBOL    XDATA    WORD      time_cnt

      00FF75D9H   BLOCK     CODE     ---       LVL=0
      0001189AH   SYMBOL    XDATA    ---       buff
      0001189EH   SYMBOL    XDATA    DWORD     len
      00FF75EDH   BLOCK     CODE     NEAR LAB  LVL=1
      000118A2H   SYMBOL    XDATA    WORD      time_cnt
      000118A4H   SYMBOL    XDATA    WORD      send_len
      ---         BLOCKEND  ---      ---       LVL=1
      00FF75D9H   LINE      CODE     ---       #103
      00FF75EDH   LINE      CODE     ---       #104
      00FF75EDH   LINE      CODE     ---       #108
      00FF75F5H   LINE      CODE     ---       #109
      00FF75FDH   LINE      CODE     ---       #110
      00FF761FH   LINE      CODE     ---       #112
      00FF7622H   LINE      CODE     ---       #114
      00FF762EH   LINE      CODE     ---       #116
      00FF7654H   LINE      CODE     ---       #117
      00FF766BH   LINE      CODE     ---       #118
      00FF7684H   LINE      CODE     ---       #119
      00FF769FH   LINE      CODE     ---       #120
      00FF76A7H   LINE      CODE     ---       #121
      00FF76A9H   LINE      CODE     ---       #124
      00FF76B0H   LINE      CODE     ---       #125
      00FF76BFH   LINE      CODE     ---       #126
      00FF76BFH   LINE      CODE     ---       #127
      00FF76DEH   LINE      CODE     ---       #129
      00FF76E8H   LINE      CODE     ---       #130
      ---         BLOCKEND  ---      ---       LVL=0

      00FF8D89H   BLOCK     CODE     ---       LVL=0
      00011B81H   SYMBOL    XDATA    ---       str
      00FF8D93H   BLOCK     CODE     NEAR LAB  LVL=1
      00011B85H   SYMBOL    XDATA    DWORD     len
      ---         BLOCKEND  ---      ---       LVL=1
      00FF8D89H   LINE      CODE     ---       #139
      00FF8D93H   LINE      CODE     ---       #140
      00FF8D93H   LINE      CODE     ---       #141
      00FF8DACH   LINE      CODE     ---       #142
      00FF8DCEH   LINE      CODE     ---       #144
      00FF8DE5H   LINE      CODE     ---       #145
      ---         BLOCKEND  ---      ---       LVL=0
      000118A6H   SYMBOL    XDATA    ---       buff
      000118AAH   SYMBOL    XDATA    DWORD     len
      000118AEH   SYMBOL    XDATA    DWORD     data_len

      00FF942BH   BLOCK     CODE     ---       LVL=0
      00011E0EH   SYMBOL    XDATA    BYTE      uart_dat
      00FF942BH   LINE      CODE     ---       #173
      00FF942FH   LINE      CODE     ---       #176
      00FF9450H   LINE      CODE     ---       #187
      ---         BLOCKEND  ---      ---       LVL=0

      00FF8A77H   BLOCK     CODE     ---       LVL=0
      00011E0FH   SYMBOL    XDATA    BYTE      return_state
      00FF8A77H   LINE      CODE     ---       #196
      00FF8A77H   LINE      CODE     ---       #197
      00FF8A77H   LINE      CODE     ---       #198
L251 LINKER/LOCATER V4.66.93.0                                                        03/26/2026  19:04:27  PAGE 121


      00FF8A7CH   LINE      CODE     ---       #199
      00FF8A8FH   LINE      CODE     ---       #201
      00FF8ABCH   LINE      CODE     ---       #202
      00FF8ACDH   LINE      CODE     ---       #205
      00FF8AEAH   LINE      CODE     ---       #206
      00FF8AF3H   LINE      CODE     ---       #259
      00FF8AF7H   LINE      CODE     ---       #260
      ---         BLOCKEND  ---      ---       LVL=0

      ---         MODULE    ---      ---       seekfree_assistant
      000105DCH   PUBLIC    XDATA    ---       seekfree_assistant_oscilloscope_data
      00010617H   PUBLIC    XDATA    ---       seekfree_assistant_parameter_update_flag
      0001061FH   PUBLIC    XDATA    ---       seekfree_assistant_parameter
      000115B3H   PUBLIC    XDATA    BYTE      ?seekfree_assistant_camera_data_send?BYTE
      00011987H   PUBLIC    XDATA    BYTE      ?seekfree_assistant_camera_information_config?BYTE
      00011164H   PUBLIC    XDATA    BYTE      ?seekfree_assistant_camera_boundary_config?BYTE
      000000D0H   SFRSYM    DATA     BYTE      PSW
      0000009DH   SFRSYM    DATA     BYTE      IRCBAND
      00000097H   SFRSYM    DATA     BYTE      AUXR2
      000000EFH   SFRSYM    DATA     BYTE      AUXINTIF
      000000FDH   SFRSYM    DATA     BYTE      S4CON
      000000ACH   SFRSYM    DATA     BYTE      S3CON
      0000009AH   SFRSYM    DATA     BYTE      S2CON
      000000B7H   SFRSYM    DATA     BYTE      IPH
      000000CDH   SFRSYM    DATA     BYTE      SPSTAT
      000000DDH   SFRSYM    DATA     BYTE      T4T3M
      000000C1H   SFRSYM    DATA     BYTE      WDT_CONTR
      000000DFH   SFRSYM    DATA     BYTE      IP3
      000000F4H   SFRSYM    DATA     BYTE      USBCON
      000000B5H   SFRSYM    DATA     BYTE      IP2
      000000FFH   SFRSYM    DATA     BYTE      RSTCFG
      000000C7H   SFRSYM    DATA     BYTE      IAP_CONTR
      000000F9H   SFRSYM    DATA     BYTE      LINICR
      0000008EH   SFRSYM    DATA     BYTE      AUXR
      000000AFH   SFRSYM    DATA     BYTE      IE2
      00000088H   SFRSYM    DATA     BYTE      TCON
      00000089H   SFRSYM    DATA     BYTE      TMOD
      00000098H   SFRSYM    DATA     BYTE      SCON
      000000F1H   SFRSYM    DATA     BYTE      CANICR
      00000087H   SFRSYM    DATA     BYTE      PCON
      000000BCH   SFRSYM    DATA     BYTE      ADC_CONTR
      000000E7H   SFRSYM    DATA     BYTE      CMPCR2
      000000E6H   SFRSYM    DATA     BYTE      CMPCR1
      000000DEH   SFRSYM    DATA     BYTE      ADCCFG
      000000B8H   SFRSYM    DATA     BYTE      IP
      0000008FH   SFRSYM    DATA     BYTE      INTCLKO
      000000EEH   SFRSYM    DATA     BYTE      IP3H
      000000B6H   SFRSYM    DATA     BYTE      IP2H
      000000A8H   SFRSYM    DATA     BYTE      IE
      000000BBH   SFRSYM    DATA     BYTE      P_SW3
      000000BAH   SFRSYM    DATA     BYTE      P_SW2
      000000A2H   SFRSYM    DATA     BYTE      P_SW1
      000000CEH   SFRSYM    DATA     BYTE      SPCTL
      000000F8H   SFRSYM    DATA     BYTE      P7
      000000A8H.7 SFRSYM    DATA     BIT       EA
      000000E8H   SFRSYM    DATA     BYTE      P6
      000000C8H   SFRSYM    DATA     BYTE      P5
      000000C0H   SFRSYM    DATA     BYTE      P4
      000000B0H   SFRSYM    DATA     BYTE      P3
      000000A0H   SFRSYM    DATA     BYTE      P2
      00000090H   SFRSYM    DATA     BYTE      P1
      00000080H   SFRSYM    DATA     BYTE      P0
      000105D4H   SYMBOL    XDATA    ---       seekfree_assistant_camera_dot_data
      00010600H   SYMBOL    XDATA    ---       seekfree_assistant_fifo
      0001063FH   SYMBOL    XDATA    ---       seekfree_assistant_camera_buffer
L251 LINKER/LOCATER V4.66.93.0                                                        03/26/2026  19:04:27  PAGE 122


      00010689H   SYMBOL    XDATA    ---       seekfree_assistant_camera_data
      00010691H   SYMBOL    XDATA    ---       seekfree_assistant_buffer
      00FF9F52H   SYMBOL    HCONST   ---       ?tpl?0001
      00FF9F76H   SYMBOL    HCONST   ---       ?tpl?0002
      00011A98H   SYMBOL    XDATA    ---       buffer
      00011A9CH   SYMBOL    XDATA    DWORD     length
      00011AA0H   SYMBOL    XDATA    BYTE      temp_sum
      000115B3H   SYMBOL    XDATA    INT       camera_type
      000115B5H   SYMBOL    XDATA    ---       image_addr
      000115B9H   SYMBOL    XDATA    BYTE      boundary_num
      000115BAH   SYMBOL    XDATA    WORD      width
      000115BCH   SYMBOL    XDATA    WORD      height
      000115BEH   SYMBOL    XDATA    DWORD     image_size
      00011987H   SYMBOL    XDATA    INT       camera_type
      00011989H   SYMBOL    XDATA    ---       image_addr
      0001198DH   SYMBOL    XDATA    WORD      width
      0001198FH   SYMBOL    XDATA    WORD      height
      00011005H   SYMBOL    XDATA    ---       seekfree_assistant_oscilloscope
      00011009H   SYMBOL    XDATA    BYTE      packet_size
      0001100AH   SYMBOL    XDATA    BYTE      i
      0001100BH   SYMBOL    XDATA    ---       temp_oscilloscope
      00011BBCH   SYMBOL    XDATA    ---       buffer
      00011BC0H   SYMBOL    XDATA    BYTE      i
      00011BC1H   SYMBOL    XDATA    WORD      dot_bytes
      00011164H   SYMBOL    XDATA    INT       boundary_type
      00011166H   SYMBOL    XDATA    WORD      dot_num
      00011168H   SYMBOL    XDATA    ---       dot_x1
      0001116CH   SYMBOL    XDATA    ---       dot_x2
      00011170H   SYMBOL    XDATA    ---       dot_x3
      00011174H   SYMBOL    XDATA    ---       dot_y1
      00011178H   SYMBOL    XDATA    ---       dot_y2
      0001117CH   SYMBOL    XDATA    ---       dot_y3
      00011180H   SYMBOL    XDATA    BYTE      i
      00011181H   SYMBOL    XDATA    BYTE      boundary_num
      00011182H   SYMBOL    XDATA    BYTE      boundary_data_type
      00010993H   SYMBOL    XDATA    BYTE      temp_sum
      00010994H   SYMBOL    XDATA    DWORD     read_length
      00010998H   SYMBOL    XDATA    WORD      struct_len
      0001099AH   SYMBOL    XDATA    ---       receive_packet
      0001099EH   SYMBOL    XDATA    ---       temp_buffer
      00010A1EH   SYMBOL    XDATA    DWORD     i
      00000020H.3 SYMBOL    BIT      BIT       flag

      ---         MODULE    ---      ---       seekfree_assistant_interface
      00011D7DH   PUBLIC    XDATA    ---       seekfree_assistant_receive_callback
      00011D7FH   PUBLIC    XDATA    ---       seekfree_assistant_transfer_callback
      000000D0H   SFRSYM    DATA     BYTE      PSW
      0000009DH   SFRSYM    DATA     BYTE      IRCBAND
      00000097H   SFRSYM    DATA     BYTE      AUXR2
      000000EFH   SFRSYM    DATA     BYTE      AUXINTIF
      000000FDH   SFRSYM    DATA     BYTE      S4CON
      000000ACH   SFRSYM    DATA     BYTE      S3CON
      0000009AH   SFRSYM    DATA     BYTE      S2CON
      000000B7H   SFRSYM    DATA     BYTE      IPH
      000000CDH   SFRSYM    DATA     BYTE      SPSTAT
      000000DDH   SFRSYM    DATA     BYTE      T4T3M
      000000C1H   SFRSYM    DATA     BYTE      WDT_CONTR
      000000DFH   SFRSYM    DATA     BYTE      IP3
      000000F4H   SFRSYM    DATA     BYTE      USBCON
      000000B5H   SFRSYM    DATA     BYTE      IP2
      000000FFH   SFRSYM    DATA     BYTE      RSTCFG
      000000C7H   SFRSYM    DATA     BYTE      IAP_CONTR
      000000F9H   SFRSYM    DATA     BYTE      LINICR
      0000008EH   SFRSYM    DATA     BYTE      AUXR
      000000AFH   SFRSYM    DATA     BYTE      IE2
L251 LINKER/LOCATER V4.66.93.0                                                        03/26/2026  19:04:27  PAGE 123


      00000088H   SFRSYM    DATA     BYTE      TCON
      00000089H   SFRSYM    DATA     BYTE      TMOD
      00000098H   SFRSYM    DATA     BYTE      SCON
      000000F1H   SFRSYM    DATA     BYTE      CANICR
      00000087H   SFRSYM    DATA     BYTE      PCON
      000000BCH   SFRSYM    DATA     BYTE      ADC_CONTR
      000000E7H   SFRSYM    DATA     BYTE      CMPCR2
      000000E6H   SFRSYM    DATA     BYTE      CMPCR1
      000000DEH   SFRSYM    DATA     BYTE      ADCCFG
      000000B8H   SFRSYM    DATA     BYTE      IP
      0000008FH   SFRSYM    DATA     BYTE      INTCLKO
      000000EEH   SFRSYM    DATA     BYTE      IP3H
      000000B6H   SFRSYM    DATA     BYTE      IP2H
      000000A8H   SFRSYM    DATA     BYTE      IE
      000000BBH   SFRSYM    DATA     BYTE      P_SW3
      000000BAH   SFRSYM    DATA     BYTE      P_SW2
      000000A2H   SFRSYM    DATA     BYTE      P_SW1
      000000CEH   SFRSYM    DATA     BYTE      SPCTL
      000000F8H   SFRSYM    DATA     BYTE      P7
      000000E8H   SFRSYM    DATA     BYTE      P6
      000000C8H   SFRSYM    DATA     BYTE      P5
      000000C0H   SFRSYM    DATA     BYTE      P4
      000000B0H   SFRSYM    DATA     BYTE      P3
      000000A0H   SFRSYM    DATA     BYTE      P2
      00000090H   SFRSYM    DATA     BYTE      P1
      00000080H   SFRSYM    DATA     BYTE      P0
      00011DEFH   SYMBOL    XDATA    INT       transfer_device

      ---         MODULE    ---      ---       isr
      00FF902FH   PUBLIC    CODE     ---       INT0_IRQHandler
      00FF906FH   PUBLIC    CODE     ---       INT1_IRQHandler
      00FF90AFH   PUBLIC    CODE     ---       INT2_IRQHandler
      00FF90EFH   PUBLIC    CODE     ---       INT3_IRQHandler
      00FF912FH   PUBLIC    CODE     ---       INT4_IRQHandler
      00FF8251H   PUBLIC    CODE     ---       DMA_UART1_IRQHandler
      00FF86C2H   PUBLIC    CODE     ---       DMA_UART2_IRQHandler
      00FF8751H   PUBLIC    CODE     ---       DMA_UART3_IRQHandler
      00FF87E0H   PUBLIC    CODE     ---       DMA_UART4_IRQHandler
      00FF916FH   PUBLIC    CODE     ---       TM0_IRQHandler
      00FF91AFH   PUBLIC    CODE     ---       TM1_IRQHandler
      00FF91EFH   PUBLIC    CODE     ---       TM2_IRQHandler
      00FF922FH   PUBLIC    CODE     ---       TM3_IRQHandler
      00FF926FH   PUBLIC    CODE     ---       TM4_IRQHandler
      000000D0H   SFRSYM    DATA     BYTE      PSW
      0000009DH   SFRSYM    DATA     BYTE      IRCBAND
      00000097H   SFRSYM    DATA     BYTE      AUXR2
      000000EFH   SFRSYM    DATA     BYTE      AUXINTIF
      000000FDH   SFRSYM    DATA     BYTE      S4CON
      000000ACH   SFRSYM    DATA     BYTE      S3CON
      0000009AH   SFRSYM    DATA     BYTE      S2CON
      000000B7H   SFRSYM    DATA     BYTE      IPH
      000000CDH   SFRSYM    DATA     BYTE      SPSTAT
      000000DDH   SFRSYM    DATA     BYTE      T4T3M
      000000C1H   SFRSYM    DATA     BYTE      WDT_CONTR
      000000DFH   SFRSYM    DATA     BYTE      IP3
      000000F4H   SFRSYM    DATA     BYTE      USBCON
      000000B5H   SFRSYM    DATA     BYTE      IP2
      000000FFH   SFRSYM    DATA     BYTE      RSTCFG
      000000C7H   SFRSYM    DATA     BYTE      IAP_CONTR
      000000F9H   SFRSYM    DATA     BYTE      LINICR
      0000008EH   SFRSYM    DATA     BYTE      AUXR
      000000AFH   SFRSYM    DATA     BYTE      IE2
      00000088H   SFRSYM    DATA     BYTE      TCON
      00000089H   SFRSYM    DATA     BYTE      TMOD
      00000098H   SFRSYM    DATA     BYTE      SCON
L251 LINKER/LOCATER V4.66.93.0                                                        03/26/2026  19:04:27  PAGE 124


      000000F1H   SFRSYM    DATA     BYTE      CANICR
      00000087H   SFRSYM    DATA     BYTE      PCON
      000000BCH   SFRSYM    DATA     BYTE      ADC_CONTR
      000000E7H   SFRSYM    DATA     BYTE      CMPCR2
      000000E6H   SFRSYM    DATA     BYTE      CMPCR1
      000000DEH   SFRSYM    DATA     BYTE      ADCCFG
      000000B8H   SFRSYM    DATA     BYTE      IP
      0000008FH   SFRSYM    DATA     BYTE      INTCLKO
      000000EEH   SFRSYM    DATA     BYTE      IP3H
      000000B6H   SFRSYM    DATA     BYTE      IP2H
      000000A8H   SFRSYM    DATA     BYTE      IE
      000000BBH   SFRSYM    DATA     BYTE      P_SW3
      000000BAH   SFRSYM    DATA     BYTE      P_SW2
      000000A2H   SFRSYM    DATA     BYTE      P_SW1
      000000CEH   SFRSYM    DATA     BYTE      SPCTL
      000000F8H   SFRSYM    DATA     BYTE      P7
      000000E8H   SFRSYM    DATA     BYTE      P6
      000000C8H   SFRSYM    DATA     BYTE      P5
      000000C0H   SFRSYM    DATA     BYTE      P4
      000000B0H   SFRSYM    DATA     BYTE      P3
      000000A0H   SFRSYM    DATA     BYTE      P2
      00000090H   SFRSYM    DATA     BYTE      P1
      00000080H   SFRSYM    DATA     BYTE      P0

      00FF902FH   BLOCK     CODE     ---       LVL=0
      00FF902FH   LINE      CODE     ---       #39
      00FF9043H   LINE      CODE     ---       #41
      00FF9046H   LINE      CODE     ---       #42
      00FF9052H   LINE      CODE     ---       #44
      00FF905AH   LINE      CODE     ---       #45
      ---         BLOCKEND  ---      ---       LVL=0

      00FF906FH   BLOCK     CODE     ---       LVL=0
      00FF906FH   LINE      CODE     ---       #49
      00FF9083H   LINE      CODE     ---       #51
      00FF9086H   LINE      CODE     ---       #52
      00FF9092H   LINE      CODE     ---       #54
      00FF909AH   LINE      CODE     ---       #55
      ---         BLOCKEND  ---      ---       LVL=0

      00FF90AFH   BLOCK     CODE     ---       LVL=0
      00FF90AFH   LINE      CODE     ---       #58
      00FF90C3H   LINE      CODE     ---       #60
      00FF90C6H   LINE      CODE     ---       #61
      00FF90D2H   LINE      CODE     ---       #63
      00FF90DAH   LINE      CODE     ---       #64
      ---         BLOCKEND  ---      ---       LVL=0

      00FF90EFH   BLOCK     CODE     ---       LVL=0
      00FF90EFH   LINE      CODE     ---       #66
      00FF9103H   LINE      CODE     ---       #68
      00FF9106H   LINE      CODE     ---       #69
      00FF9112H   LINE      CODE     ---       #71
      00FF911AH   LINE      CODE     ---       #72
      ---         BLOCKEND  ---      ---       LVL=0

      00FF912FH   BLOCK     CODE     ---       LVL=0
      00FF912FH   LINE      CODE     ---       #75
      00FF9143H   LINE      CODE     ---       #77
      00FF9146H   LINE      CODE     ---       #78
      00FF9152H   LINE      CODE     ---       #80
      00FF915AH   LINE      CODE     ---       #81
      ---         BLOCKEND  ---      ---       LVL=0

      00FF8251H   BLOCK     CODE     ---       LVL=0
L251 LINKER/LOCATER V4.66.93.0                                                        03/26/2026  19:04:27  PAGE 125


      00FF8265H   BLOCK     CODE     NEAR LAB  LVL=1
      00011E10H   SYMBOL    XDATA    BYTE      dwon_count
      ---         BLOCKEND  ---      ---       LVL=1
      00FF8251H   LINE      CODE     ---       #85
      00FF8265H   LINE      CODE     ---       #86
      00FF8265H   LINE      CODE     ---       #89
      00FF8273H   LINE      CODE     ---       #91
      00FF8285H   LINE      CODE     ---       #92
      00FF828AH   LINE      CODE     ---       #95
      00FF8293H   LINE      CODE     ---       #97
      00FF82A4H   LINE      CODE     ---       #99
      00FF82A8H   LINE      CODE     ---       #100
      00FF82AAH   LINE      CODE     ---       #104
      00FF82AFH   LINE      CODE     ---       #105
      00FF82AFH   LINE      CODE     ---       #107
      00FF82BBH   LINE      CODE     ---       #109
      00FF82C7H   LINE      CODE     ---       #110
      00FF82C7H   LINE      CODE     ---       #113
      00FF82D5H   LINE      CODE     ---       #115
      00FF82E7H   LINE      CODE     ---       #116
      00FF82ECH   LINE      CODE     ---       #120
      ---         BLOCKEND  ---      ---       LVL=0

      00FF86C2H   BLOCK     CODE     ---       LVL=0
      00FF86C2H   LINE      CODE     ---       #123
      00FF86D6H   LINE      CODE     ---       #125
      00FF86E4H   LINE      CODE     ---       #127
      00FF86F6H   LINE      CODE     ---       #128
      00FF86FDH   LINE      CODE     ---       #130
      00FF8709H   LINE      CODE     ---       #132
      00FF8715H   LINE      CODE     ---       #133
      00FF8715H   LINE      CODE     ---       #136
      00FF8723H   LINE      CODE     ---       #138
      00FF8735H   LINE      CODE     ---       #139
      00FF873CH   LINE      CODE     ---       #143
      ---         BLOCKEND  ---      ---       LVL=0

      00FF8751H   BLOCK     CODE     ---       LVL=0
      00FF8751H   LINE      CODE     ---       #146
      00FF8765H   LINE      CODE     ---       #148
      00FF8773H   LINE      CODE     ---       #150
      00FF8785H   LINE      CODE     ---       #151
      00FF878CH   LINE      CODE     ---       #153
      00FF8798H   LINE      CODE     ---       #155
      00FF87A4H   LINE      CODE     ---       #156
      00FF87A4H   LINE      CODE     ---       #159
      00FF87B2H   LINE      CODE     ---       #161
      00FF87C4H   LINE      CODE     ---       #162
      00FF87CBH   LINE      CODE     ---       #166
      ---         BLOCKEND  ---      ---       LVL=0

      00FF87E0H   BLOCK     CODE     ---       LVL=0
      00FF87E0H   LINE      CODE     ---       #169
      00FF87F4H   LINE      CODE     ---       #171
      00FF8802H   LINE      CODE     ---       #173
      00FF8814H   LINE      CODE     ---       #174
      00FF881BH   LINE      CODE     ---       #176
      00FF8827H   LINE      CODE     ---       #178
      00FF8833H   LINE      CODE     ---       #179
      00FF8833H   LINE      CODE     ---       #182
      00FF8841H   LINE      CODE     ---       #184
      00FF8853H   LINE      CODE     ---       #185
      00FF885AH   LINE      CODE     ---       #189
      ---         BLOCKEND  ---      ---       LVL=0

L251 LINKER/LOCATER V4.66.93.0                                                        03/26/2026  19:04:27  PAGE 126


      00FF916FH   BLOCK     CODE     ---       LVL=0
      00FF916FH   LINE      CODE     ---       #192
      00FF9183H   LINE      CODE     ---       #194
      00FF9186H   LINE      CODE     ---       #196
      00FF9192H   LINE      CODE     ---       #198
      00FF919AH   LINE      CODE     ---       #199
      ---         BLOCKEND  ---      ---       LVL=0

      00FF91AFH   BLOCK     CODE     ---       LVL=0
      00FF91AFH   LINE      CODE     ---       #202
      00FF91C3H   LINE      CODE     ---       #204
      00FF91C6H   LINE      CODE     ---       #206
      00FF91D2H   LINE      CODE     ---       #208
      00FF91DAH   LINE      CODE     ---       #209
      ---         BLOCKEND  ---      ---       LVL=0

      00FF91EFH   BLOCK     CODE     ---       LVL=0
      00FF91EFH   LINE      CODE     ---       #212
      00FF9203H   LINE      CODE     ---       #214
      00FF9206H   LINE      CODE     ---       #216
      00FF9212H   LINE      CODE     ---       #218
      00FF921AH   LINE      CODE     ---       #219
      ---         BLOCKEND  ---      ---       LVL=0

      00FF922FH   BLOCK     CODE     ---       LVL=0
      00FF922FH   LINE      CODE     ---       #222
      00FF9243H   LINE      CODE     ---       #224
      00FF9246H   LINE      CODE     ---       #226
      00FF9252H   LINE      CODE     ---       #228
      00FF925AH   LINE      CODE     ---       #229
      ---         BLOCKEND  ---      ---       LVL=0

      00FF926FH   BLOCK     CODE     ---       LVL=0
      00FF926FH   LINE      CODE     ---       #232
      00FF9283H   LINE      CODE     ---       #234
      00FF9286H   LINE      CODE     ---       #236
      00FF9292H   LINE      CODE     ---       #238
      00FF929AH   LINE      CODE     ---       #239
      ---         BLOCKEND  ---      ---       LVL=0

      ---         MODULE    ---      ---       main
      00FF93D7H   PUBLIC    CODE     ---       main
      00FF94E5H   PUBLIC    CODE     ---       _m
      00011991H   PUBLIC    XDATA    WORD      pit0_count
      00011993H   PUBLIC    XDATA    ---       ind_data
      000000D0H   SFRSYM    DATA     BYTE      PSW
      0000009DH   SFRSYM    DATA     BYTE      IRCBAND
      00000097H   SFRSYM    DATA     BYTE      AUXR2
      000000EFH   SFRSYM    DATA     BYTE      AUXINTIF
      000000FDH   SFRSYM    DATA     BYTE      S4CON
      000000ACH   SFRSYM    DATA     BYTE      S3CON
      0000009AH   SFRSYM    DATA     BYTE      S2CON
      000000B7H   SFRSYM    DATA     BYTE      IPH
      000000CDH   SFRSYM    DATA     BYTE      SPSTAT
      000000DDH   SFRSYM    DATA     BYTE      T4T3M
      000000C1H   SFRSYM    DATA     BYTE      WDT_CONTR
      000000DFH   SFRSYM    DATA     BYTE      IP3
      000000F4H   SFRSYM    DATA     BYTE      USBCON
      000000B5H   SFRSYM    DATA     BYTE      IP2
      000000FFH   SFRSYM    DATA     BYTE      RSTCFG
      000000C7H   SFRSYM    DATA     BYTE      IAP_CONTR
      000000F9H   SFRSYM    DATA     BYTE      LINICR
      0000008EH   SFRSYM    DATA     BYTE      AUXR
      000000AFH   SFRSYM    DATA     BYTE      IE2
      00000088H   SFRSYM    DATA     BYTE      TCON
L251 LINKER/LOCATER V4.66.93.0                                                        03/26/2026  19:04:27  PAGE 127


      00000089H   SFRSYM    DATA     BYTE      TMOD
      00000098H   SFRSYM    DATA     BYTE      SCON
      000000F1H   SFRSYM    DATA     BYTE      CANICR
      00000087H   SFRSYM    DATA     BYTE      PCON
      000000BCH   SFRSYM    DATA     BYTE      ADC_CONTR
      000000E7H   SFRSYM    DATA     BYTE      CMPCR2
      000000E6H   SFRSYM    DATA     BYTE      CMPCR1
      000000DEH   SFRSYM    DATA     BYTE      ADCCFG
      000000B8H   SFRSYM    DATA     BYTE      IP
      0000008FH   SFRSYM    DATA     BYTE      INTCLKO
      000000EEH   SFRSYM    DATA     BYTE      IP3H
      000000B6H   SFRSYM    DATA     BYTE      IP2H
      000000A8H   SFRSYM    DATA     BYTE      IE
      000000BBH   SFRSYM    DATA     BYTE      P_SW3
      000000BAH   SFRSYM    DATA     BYTE      P_SW2
      000000A2H   SFRSYM    DATA     BYTE      P_SW1
      000000CEH   SFRSYM    DATA     BYTE      SPCTL
      000000F8H   SFRSYM    DATA     BYTE      P7
      000000E8H   SFRSYM    DATA     BYTE      P6
      000000C8H   SFRSYM    DATA     BYTE      P5
      000000C0H   SFRSYM    DATA     BYTE      P4
      000000B0H   SFRSYM    DATA     BYTE      P3
      000000A0H   SFRSYM    DATA     BYTE      P2
      00000090H   SFRSYM    DATA     BYTE      P1
      00000080H   SFRSYM    DATA     BYTE      P0

      00FF93D7H   BLOCK     CODE     ---       LVL=0
      00FF93D7H   LINE      CODE     ---       #4
      ---         BLOCKEND  ---      ---       LVL=0

      00FF94E5H   BLOCK     CODE     ---       LVL=0
      00FF94E5H   LINE      CODE     ---       #4
      00FF94E5H   LINE      CODE     ---       #6
      00FF94E8H   LINE      CODE     ---       #7
      00FF94E8H   LINE      CODE     ---       #9
      00FF94F3H   LINE      CODE     ---       #11
      00FF94FEH   LINE      CODE     ---       #14
      00FF9505H   LINE      CODE     ---       #15
      00FF9507H   LINE      CODE     ---       #16
      ---         BLOCKEND  ---      ---       LVL=0

      ---         MODULE    ---      ---       imu
      00FF7AFBH   PUBLIC    CODE     ---       KalmanCreate
      00FF7285H   PUBLIC    CODE     ---       IMU_gyro_Offset_Init
      00FF8F9EH   PUBLIC    CODE     ---       gyro_init
      00010711H   PUBLIC    XDATA    FLOAT     Pitch_Min
      00010715H   PUBLIC    XDATA    FLOAT     Pitch_Max
      00010719H   PUBLIC    XDATA    ---       Kalman1
      00010749H   PUBLIC    XDATA    ---       Kalman2
      00010779H   PUBLIC    XDATA    CHAR      Round
      0001077AH   PUBLIC    XDATA    FLOAT     gyro_Offset_flag
      0001077EH   PUBLIC    XDATA    FLOAT     pitch
      00010782H   PUBLIC    XDATA    FLOAT     Roll_Min
      00010786H   PUBLIC    XDATA    ---       Zero
      000107B6H   PUBLIC    XDATA    FLOAT     Roll_Max
      000107BAH   PUBLIC    XDATA    FLOAT     roll
      000107BEH   PUBLIC    XDATA    FLOAT     gyrox
      000107C2H   PUBLIC    XDATA    FLOAT     gyroy
      000107C6H   PUBLIC    XDATA    FLOAT     gyroz
      000107CAH   PUBLIC    XDATA    ---       first_complement
      000107DEH   PUBLIC    XDATA    ---       IMU_Data
      000107F6H   PUBLIC    XDATA    FLOAT     Daty_X
      000107FAH   PUBLIC    XDATA    FLOAT     Daty_Y
      000107FEH   PUBLIC    XDATA    FLOAT     Daty_Z
      00010802H   PUBLIC    XDATA    FLOAT     yaw_limit_360
L251 LINKER/LOCATER V4.66.93.0                                                        03/26/2026  19:04:27  PAGE 128


      00010806H   PUBLIC    XDATA    FLOAT     Max_Delta_Pitch
      0001080AH   PUBLIC    XDATA    FLOAT     yaw
      0001080EH   PUBLIC    XDATA    FLOAT     yaw_total
      00010812H   PUBLIC    XDATA    ---       Gyro_Offset
      0001081EH   PUBLIC    XDATA    FLOAT     Max_Delta_Roll
      000118B2H   PUBLIC    XDATA    BYTE      ?KalmanCreate?BYTE
      000000D0H   SFRSYM    DATA     BYTE      PSW
      0000009DH   SFRSYM    DATA     BYTE      IRCBAND
      00000097H   SFRSYM    DATA     BYTE      AUXR2
      000000EFH   SFRSYM    DATA     BYTE      AUXINTIF
      000000FDH   SFRSYM    DATA     BYTE      S4CON
      000000ACH   SFRSYM    DATA     BYTE      S3CON
      0000009AH   SFRSYM    DATA     BYTE      S2CON
      000000B7H   SFRSYM    DATA     BYTE      IPH
      000000CDH   SFRSYM    DATA     BYTE      SPSTAT
      000000DDH   SFRSYM    DATA     BYTE      T4T3M
      000000C1H   SFRSYM    DATA     BYTE      WDT_CONTR
      000000DFH   SFRSYM    DATA     BYTE      IP3
      000000F4H   SFRSYM    DATA     BYTE      USBCON
      000000B5H   SFRSYM    DATA     BYTE      IP2
      000000FFH   SFRSYM    DATA     BYTE      RSTCFG
      000000C7H   SFRSYM    DATA     BYTE      IAP_CONTR
      000000F9H   SFRSYM    DATA     BYTE      LINICR
      0000008EH   SFRSYM    DATA     BYTE      AUXR
      000000AFH   SFRSYM    DATA     BYTE      IE2
      00000088H   SFRSYM    DATA     BYTE      TCON
      00000089H   SFRSYM    DATA     BYTE      TMOD
      00000098H   SFRSYM    DATA     BYTE      SCON
      000000F1H   SFRSYM    DATA     BYTE      CANICR
      00000087H   SFRSYM    DATA     BYTE      PCON
      000000BCH   SFRSYM    DATA     BYTE      ADC_CONTR
      000000E7H   SFRSYM    DATA     BYTE      CMPCR2
      000000E6H   SFRSYM    DATA     BYTE      CMPCR1
      000000DEH   SFRSYM    DATA     BYTE      ADCCFG
      000000B8H   SFRSYM    DATA     BYTE      IP
      0000008FH   SFRSYM    DATA     BYTE      INTCLKO
      000000EEH   SFRSYM    DATA     BYTE      IP3H
      000000B6H   SFRSYM    DATA     BYTE      IP2H
      000000A8H   SFRSYM    DATA     BYTE      IE
      000000BBH   SFRSYM    DATA     BYTE      P_SW3
      000000BAH   SFRSYM    DATA     BYTE      P_SW2
      000000A2H   SFRSYM    DATA     BYTE      P_SW1
      000000CEH   SFRSYM    DATA     BYTE      SPCTL
      000000F8H   SFRSYM    DATA     BYTE      P7
      000000E8H   SFRSYM    DATA     BYTE      P6
      000000C8H   SFRSYM    DATA     BYTE      P5
      000000C0H   SFRSYM    DATA     BYTE      P4
      000000B0H   SFRSYM    DATA     BYTE      P3
      000000A0H   SFRSYM    DATA     BYTE      P2
      00000090H   SFRSYM    DATA     BYTE      P1
      00000080H   SFRSYM    DATA     BYTE      P0
      00011D81H   SYMBOL    XDATA    FLOAT     k
      00010822H   SYMBOL    XDATA    FLOAT     Pitch_Temp
      00010826H   SYMBOL    XDATA    FLOAT     Roll_Temp
      0001082AH   SYMBOL    XDATA    FLOAT     Delta_Roll
      0001082EH   SYMBOL    XDATA    CHAR      Pitch_Flag
      0001082FH   SYMBOL    XDATA    CHAR      Roll_Flag

      00FF7285H   BLOCK     CODE     ---       LVL=0
      00011DF1H   SYMBOL    XDATA    WORD      i
      00FF7285H   LINE      CODE     ---       #101
      00FF7285H   LINE      CODE     ---       #102
      00FF7285H   LINE      CODE     ---       #103
      00FF728DH   LINE      CODE     ---       #104
      00FF7299H   LINE      CODE     ---       #105
L251 LINKER/LOCATER V4.66.93.0                                                        03/26/2026  19:04:27  PAGE 129


      00FF72A5H   LINE      CODE     ---       #106
      00FF72B1H   LINE      CODE     ---       #107
      00FF72BBH   LINE      CODE     ---       #109
      00FF72DCH   LINE      CODE     ---       #110
      00FF72FDH   LINE      CODE     ---       #111
      00FF731EH   LINE      CODE     ---       #112
      00FF7325H   LINE      CODE     ---       #113
      00FF7345H   LINE      CODE     ---       #115
      00FF735FH   LINE      CODE     ---       #116
      00FF7379H   LINE      CODE     ---       #117
      00FF7393H   LINE      CODE     ---       #119
      00FF73A3H   LINE      CODE     ---       #120
      ---         BLOCKEND  ---      ---       LVL=0
      00011549H   SYMBOL    XDATA    FLOAT     num
      0001154DH   SYMBOL    XDATA    FLOAT     halfx
      00011551H   SYMBOL    XDATA    FLOAT     y
      00011555H   SYMBOL    XDATA    LONG      i
      00011D85H   SYMBOL    XDATA    FLOAT     x

      00FF7AFBH   BLOCK     CODE     ---       LVL=0
      000118B2H   SYMBOL    XDATA    ---       p
      000118B6H   SYMBOL    XDATA    FLOAT     T_Q
      000118BAH   SYMBOL    XDATA    FLOAT     T_R
      00FF7AFBH   LINE      CODE     ---       #249
      00FF7B0FH   LINE      CODE     ---       #251
      00FF7B22H   LINE      CODE     ---       #252
      00FF7B39H   LINE      CODE     ---       #253
      00FF7B58H   LINE      CODE     ---       #254
      00FF7B77H   LINE      CODE     ---       #255
      00FF7B92H   LINE      CODE     ---       #256
      00FF7BA9H   LINE      CODE     ---       #257
      00FF7BC4H   LINE      CODE     ---       #258
      00FF7BE8H   LINE      CODE     ---       #259
      ---         BLOCKEND  ---      ---       LVL=0
      00011B89H   SYMBOL    XDATA    ---       p
      00011B8DH   SYMBOL    XDATA    FLOAT     dat

      00FF8F9EH   BLOCK     CODE     ---       LVL=0
      00FF8F9EH   LINE      CODE     ---       #273
      00FF8F9EH   LINE      CODE     ---       #276
      00FF8FA1H   LINE      CODE     ---       #277
      00FF8FC6H   LINE      CODE     ---       #278
      00FF8FEBH   LINE      CODE     ---       #279
      ---         BLOCKEND  ---      ---       LVL=0

      ---         MODULE    ---      ---       eeprom
      00011DF3H   PUBLIC    XDATA    ---       buff
      0001199BH   PUBLIC    XDATA    BYTE      ?eeprom_read?BYTE
      000000D0H   SFRSYM    DATA     BYTE      PSW
      0000009DH   SFRSYM    DATA     BYTE      IRCBAND
      00000097H   SFRSYM    DATA     BYTE      AUXR2
      000000EFH   SFRSYM    DATA     BYTE      AUXINTIF
      000000FDH   SFRSYM    DATA     BYTE      S4CON
      000000ACH   SFRSYM    DATA     BYTE      S3CON
      0000009AH   SFRSYM    DATA     BYTE      S2CON
      000000B7H   SFRSYM    DATA     BYTE      IPH
      000000CDH   SFRSYM    DATA     BYTE      SPSTAT
      000000DDH   SFRSYM    DATA     BYTE      T4T3M
      000000C1H   SFRSYM    DATA     BYTE      WDT_CONTR
      000000DFH   SFRSYM    DATA     BYTE      IP3
      000000F4H   SFRSYM    DATA     BYTE      USBCON
      000000B5H   SFRSYM    DATA     BYTE      IP2
      000000FFH   SFRSYM    DATA     BYTE      RSTCFG
      000000C7H   SFRSYM    DATA     BYTE      IAP_CONTR
      000000F9H   SFRSYM    DATA     BYTE      LINICR
L251 LINKER/LOCATER V4.66.93.0                                                        03/26/2026  19:04:27  PAGE 130


      0000008EH   SFRSYM    DATA     BYTE      AUXR
      000000AFH   SFRSYM    DATA     BYTE      IE2
      00000088H   SFRSYM    DATA     BYTE      TCON
      00000089H   SFRSYM    DATA     BYTE      TMOD
      00000098H   SFRSYM    DATA     BYTE      SCON
      000000F1H   SFRSYM    DATA     BYTE      CANICR
      00000087H   SFRSYM    DATA     BYTE      PCON
      000000BCH   SFRSYM    DATA     BYTE      ADC_CONTR
      000000E7H   SFRSYM    DATA     BYTE      CMPCR2
      000000E6H   SFRSYM    DATA     BYTE      CMPCR1
      000000DEH   SFRSYM    DATA     BYTE      ADCCFG
      000000B8H   SFRSYM    DATA     BYTE      IP
      0000008FH   SFRSYM    DATA     BYTE      INTCLKO
      000000EEH   SFRSYM    DATA     BYTE      IP3H
      000000B6H   SFRSYM    DATA     BYTE      IP2H
      000000A8H   SFRSYM    DATA     BYTE      IE
      000000BBH   SFRSYM    DATA     BYTE      P_SW3
      000000BAH   SFRSYM    DATA     BYTE      P_SW2
      000000A2H   SFRSYM    DATA     BYTE      P_SW1
      000000CEH   SFRSYM    DATA     BYTE      SPCTL
      000000F8H   SFRSYM    DATA     BYTE      P7
      000000E8H   SFRSYM    DATA     BYTE      P6
      000000C8H   SFRSYM    DATA     BYTE      P5
      000000C0H   SFRSYM    DATA     BYTE      P4
      000000B0H   SFRSYM    DATA     BYTE      P3
      000000A0H   SFRSYM    DATA     BYTE      P2
      00000090H   SFRSYM    DATA     BYTE      P1
      00000080H   SFRSYM    DATA     BYTE      P0
      0001199BH   SYMBOL    XDATA    DWORD     addr
      0001199FH   SYMBOL    XDATA    ---       buf
      000119A3H   SYMBOL    XDATA    WORD      len
      00011B91H   SYMBOL    XDATA    DWORD     addr
      00011B95H   SYMBOL    XDATA    WORD      max
      00011B97H   SYMBOL    XDATA    WORD      min
      000118BEH   SYMBOL    XDATA    DWORD     addr
      000118C2H   SYMBOL    XDATA    ---       buff
      000118C6H   SYMBOL    XDATA    ---       buf

      ---         MODULE    ---      ---       inductance
      00FF714EH   PUBLIC    CODE     ---       Median_Average_Filter
      00FF77F8H   PUBLIC    CODE     ---       Inductance_Read
      00FF949BH   PUBLIC    CODE     ---       Inductance_Init
      000118CAH   PUBLIC    XDATA    BYTE      ?range_protect?BYTE
      00011686H   PUBLIC    XDATA    BYTE      ?Adc_Normalize?BYTE
      000000D0H   SFRSYM    DATA     BYTE      PSW
      0000009DH   SFRSYM    DATA     BYTE      IRCBAND
      00000097H   SFRSYM    DATA     BYTE      AUXR2
      000000EFH   SFRSYM    DATA     BYTE      AUXINTIF
      000000FDH   SFRSYM    DATA     BYTE      S4CON
      000000ACH   SFRSYM    DATA     BYTE      S3CON
      0000009AH   SFRSYM    DATA     BYTE      S2CON
      000000B7H   SFRSYM    DATA     BYTE      IPH
      000000CDH   SFRSYM    DATA     BYTE      SPSTAT
      000000DDH   SFRSYM    DATA     BYTE      T4T3M
      000000C1H   SFRSYM    DATA     BYTE      WDT_CONTR
      000000DFH   SFRSYM    DATA     BYTE      IP3
      000000F4H   SFRSYM    DATA     BYTE      USBCON
      000000B5H   SFRSYM    DATA     BYTE      IP2
      000000FFH   SFRSYM    DATA     BYTE      RSTCFG
      000000C7H   SFRSYM    DATA     BYTE      IAP_CONTR
      000000F9H   SFRSYM    DATA     BYTE      LINICR
      0000008EH   SFRSYM    DATA     BYTE      AUXR
      000000AFH   SFRSYM    DATA     BYTE      IE2
      00000088H   SFRSYM    DATA     BYTE      TCON
      00000089H   SFRSYM    DATA     BYTE      TMOD
L251 LINKER/LOCATER V4.66.93.0                                                        03/26/2026  19:04:27  PAGE 131


      00000098H   SFRSYM    DATA     BYTE      SCON
      000000F1H   SFRSYM    DATA     BYTE      CANICR
      00000087H   SFRSYM    DATA     BYTE      PCON
      000000BCH   SFRSYM    DATA     BYTE      ADC_CONTR
      000000E7H   SFRSYM    DATA     BYTE      CMPCR2
      000000E6H   SFRSYM    DATA     BYTE      CMPCR1
      000000DEH   SFRSYM    DATA     BYTE      ADCCFG
      000000B8H   SFRSYM    DATA     BYTE      IP
      0000008FH   SFRSYM    DATA     BYTE      INTCLKO
      000000EEH   SFRSYM    DATA     BYTE      IP3H
      000000B6H   SFRSYM    DATA     BYTE      IP2H
      000000A8H   SFRSYM    DATA     BYTE      IE
      000000BBH   SFRSYM    DATA     BYTE      P_SW3
      000000BAH   SFRSYM    DATA     BYTE      P_SW2
      000000A2H   SFRSYM    DATA     BYTE      P_SW1
      000000CEH   SFRSYM    DATA     BYTE      SPCTL
      000000F8H   SFRSYM    DATA     BYTE      P7
      000000E8H   SFRSYM    DATA     BYTE      P6
      000000C8H   SFRSYM    DATA     BYTE      P5
      000000C0H   SFRSYM    DATA     BYTE      P4
      000000B0H   SFRSYM    DATA     BYTE      P3
      000000A0H   SFRSYM    DATA     BYTE      P2
      00000090H   SFRSYM    DATA     BYTE      P1
      00000080H   SFRSYM    DATA     BYTE      P0
      000118CAH   SYMBOL    XDATA    FLOAT     value
      000118CEH   SYMBOL    XDATA    FLOAT     min_value
      000118D2H   SYMBOL    XDATA    FLOAT     max_value

      00FF949BH   BLOCK     CODE     ---       LVL=0
      00FF949BH   LINE      CODE     ---       #35
      00FF949BH   LINE      CODE     ---       #36
      00FF94A4H   LINE      CODE     ---       #37
      00FF94ADH   LINE      CODE     ---       #38
      00FF94B6H   LINE      CODE     ---       #39
      00FF94BFH   LINE      CODE     ---       #40
      ---         BLOCKEND  ---      ---       LVL=0

      00FF714EH   BLOCK     CODE     ---       LVL=0
      00011678H   SYMBOL    XDATA    ---       arr
      0001167CH   SYMBOL    XDATA    INT       times
      00FF715EH   BLOCK     CODE     NEAR LAB  LVL=1
      0001167EH   SYMBOL    XDATA    INT       min
      00011680H   SYMBOL    XDATA    INT       max
      00011682H   SYMBOL    XDATA    INT       sum
      00011684H   SYMBOL    XDATA    INT       i
      ---         BLOCKEND  ---      ---       LVL=1
      00FF714EH   LINE      CODE     ---       #50
      00FF715EH   LINE      CODE     ---       #51
      00FF715EH   LINE      CODE     ---       #53
      00FF7194H   LINE      CODE     ---       #56
      00FF719FH   LINE      CODE     ---       #57
      00FF71DDH   LINE      CODE     ---       #58
      00FF721BH   LINE      CODE     ---       #59
      00FF723DH   LINE      CODE     ---       #60
      00FF725FH   LINE      CODE     ---       #64
      00FF7284H   LINE      CODE     ---       #65
      ---         BLOCKEND  ---      ---       LVL=0
      00011686H   SYMBOL    XDATA    INT       value
      00011688H   SYMBOL    XDATA    FLOAT     max_value
      0001168CH   SYMBOL    XDATA    FLOAT     min_value
      00011690H   SYMBOL    XDATA    FLOAT     normalized_value
      000113A4H   SYMBOL    XDATA    WORD      L
      000113A6H   SYMBOL    XDATA    WORD      LM
      000113A8H   SYMBOL    XDATA    WORD      RM
      000113AAH   SYMBOL    XDATA    WORD      R
L251 LINKER/LOCATER V4.66.93.0                                                        03/26/2026  19:04:27  PAGE 132


      000113ACH   SYMBOL    XDATA    FLOAT     scaled_err
      000113B0H   SYMBOL    XDATA    FLOAT     numerator
      000113B4H   SYMBOL    XDATA    FLOAT     denominator

      00FF77F8H   BLOCK     CODE     ---       LVL=0
      00010CACH   SYMBOL    XDATA    ---       inductance_filter_data
      00FF7802H   BLOCK     CODE     NEAR LAB  LVL=1
      00010CB0H   SYMBOL    XDATA    BYTE      i
      00010CB1H   SYMBOL    XDATA    ---       inductance_init_data
      ---         BLOCKEND  ---      ---       LVL=1
      00FF77F8H   LINE      CODE     ---       #114
      00FF7802H   LINE      CODE     ---       #115
      00FF7802H   LINE      CODE     ---       #121
      00FF780AH   LINE      CODE     ---       #122
      00FF782CH   LINE      CODE     ---       #123
      00FF784EH   LINE      CODE     ---       #124
      00FF7870H   LINE      CODE     ---       #125
      00FF7892H   LINE      CODE     ---       #126
      00FF78ACH   LINE      CODE     ---       #129
      00FF78B4H   LINE      CODE     ---       #132
      00FF78EAH   LINE      CODE     ---       #133
      00FF7901H   LINE      CODE     ---       #134
      ---         BLOCKEND  ---      ---       LVL=0

      ---         MODULE    ---      ---       voltage_warning
      00011C8FH   PUBLIC    XDATA    WORD      ad_result
      00011C91H   PUBLIC    XDATA    FLOAT     battery_voltage
      000000D0H   SFRSYM    DATA     BYTE      PSW
      0000009DH   SFRSYM    DATA     BYTE      IRCBAND
      00000097H   SFRSYM    DATA     BYTE      AUXR2
      000000EFH   SFRSYM    DATA     BYTE      AUXINTIF
      000000FDH   SFRSYM    DATA     BYTE      S4CON
      000000ACH   SFRSYM    DATA     BYTE      S3CON
      0000009AH   SFRSYM    DATA     BYTE      S2CON
      000000B7H   SFRSYM    DATA     BYTE      IPH
      000000CDH   SFRSYM    DATA     BYTE      SPSTAT
      000000DDH   SFRSYM    DATA     BYTE      T4T3M
      000000C1H   SFRSYM    DATA     BYTE      WDT_CONTR
      000000DFH   SFRSYM    DATA     BYTE      IP3
      000000F4H   SFRSYM    DATA     BYTE      USBCON
      000000B5H   SFRSYM    DATA     BYTE      IP2
      000000FFH   SFRSYM    DATA     BYTE      RSTCFG
      000000C7H   SFRSYM    DATA     BYTE      IAP_CONTR
      000000F9H   SFRSYM    DATA     BYTE      LINICR
      0000008EH   SFRSYM    DATA     BYTE      AUXR
      000000AFH   SFRSYM    DATA     BYTE      IE2
      00000088H   SFRSYM    DATA     BYTE      TCON
      00000089H   SFRSYM    DATA     BYTE      TMOD
      00000098H   SFRSYM    DATA     BYTE      SCON
      000000F1H   SFRSYM    DATA     BYTE      CANICR
      00000087H   SFRSYM    DATA     BYTE      PCON
      000000BCH   SFRSYM    DATA     BYTE      ADC_CONTR
      000000E7H   SFRSYM    DATA     BYTE      CMPCR2
      000000E6H   SFRSYM    DATA     BYTE      CMPCR1
      000000DEH   SFRSYM    DATA     BYTE      ADCCFG
      000000B8H   SFRSYM    DATA     BYTE      IP
      0000008FH   SFRSYM    DATA     BYTE      INTCLKO
      000000EEH   SFRSYM    DATA     BYTE      IP3H
      000000B6H   SFRSYM    DATA     BYTE      IP2H
      000000A8H   SFRSYM    DATA     BYTE      IE
      000000BBH   SFRSYM    DATA     BYTE      P_SW3
      000000BAH   SFRSYM    DATA     BYTE      P_SW2
      000000A2H   SFRSYM    DATA     BYTE      P_SW1
      000000CEH   SFRSYM    DATA     BYTE      SPCTL
      000000F8H   SFRSYM    DATA     BYTE      P7
L251 LINKER/LOCATER V4.66.93.0                                                        03/26/2026  19:04:27  PAGE 133


      000000E8H   SFRSYM    DATA     BYTE      P6
      000000C8H   SFRSYM    DATA     BYTE      P5
      000000C0H   SFRSYM    DATA     BYTE      P4
      000000B0H   SFRSYM    DATA     BYTE      P3
      000000A0H   SFRSYM    DATA     BYTE      P2
      00000090H   SFRSYM    DATA     BYTE      P1
      00000080H   SFRSYM    DATA     BYTE      P0
      00011D89H   SYMBOL    XDATA    FLOAT     target_voltage

      ---         MODULE    ---      ---       motor
      000000D0H   SFRSYM    DATA     BYTE      PSW
      0000009DH   SFRSYM    DATA     BYTE      IRCBAND
      00000097H   SFRSYM    DATA     BYTE      AUXR2
      000000EFH   SFRSYM    DATA     BYTE      AUXINTIF
      000000FDH   SFRSYM    DATA     BYTE      S4CON
      000000ACH   SFRSYM    DATA     BYTE      S3CON
      0000009AH   SFRSYM    DATA     BYTE      S2CON
      000000B7H   SFRSYM    DATA     BYTE      IPH
      000000CDH   SFRSYM    DATA     BYTE      SPSTAT
      000000DDH   SFRSYM    DATA     BYTE      T4T3M
      000000C1H   SFRSYM    DATA     BYTE      WDT_CONTR
      000000DFH   SFRSYM    DATA     BYTE      IP3
      000000F4H   SFRSYM    DATA     BYTE      USBCON
      000000B5H   SFRSYM    DATA     BYTE      IP2
      000000FFH   SFRSYM    DATA     BYTE      RSTCFG
      000000C7H   SFRSYM    DATA     BYTE      IAP_CONTR
      000000F9H   SFRSYM    DATA     BYTE      LINICR
      0000008EH   SFRSYM    DATA     BYTE      AUXR
      000000AFH   SFRSYM    DATA     BYTE      IE2
      00000088H   SFRSYM    DATA     BYTE      TCON
      00000089H   SFRSYM    DATA     BYTE      TMOD
      00000098H   SFRSYM    DATA     BYTE      SCON
      000000F1H   SFRSYM    DATA     BYTE      CANICR
      00000087H   SFRSYM    DATA     BYTE      PCON
      000000BCH   SFRSYM    DATA     BYTE      ADC_CONTR
      000000E7H   SFRSYM    DATA     BYTE      CMPCR2
      000000E6H   SFRSYM    DATA     BYTE      CMPCR1
      000000DEH   SFRSYM    DATA     BYTE      ADCCFG
      000000B8H   SFRSYM    DATA     BYTE      IP
      0000008FH   SFRSYM    DATA     BYTE      INTCLKO
      000000EEH   SFRSYM    DATA     BYTE      IP3H
      000000B6H   SFRSYM    DATA     BYTE      IP2H
      000000A8H   SFRSYM    DATA     BYTE      IE
      000000BBH   SFRSYM    DATA     BYTE      P_SW3
      000000BAH   SFRSYM    DATA     BYTE      P_SW2
      000000A2H   SFRSYM    DATA     BYTE      P_SW1
      000000CEH   SFRSYM    DATA     BYTE      SPCTL
      000000F8H   SFRSYM    DATA     BYTE      P7
      000000E8H   SFRSYM    DATA     BYTE      P6
      000000C8H   SFRSYM    DATA     BYTE      P5
      000000C0H   SFRSYM    DATA     BYTE      P4
      000000B0H   SFRSYM    DATA     BYTE      P3
      000000A0H   SFRSYM    DATA     BYTE      P2
      00000090H   SFRSYM    DATA     BYTE      P1
      00000080H   SFRSYM    DATA     BYTE      P0
      00011DF5H   SYMBOL    XDATA    INT       duty
      00011DF7H   SYMBOL    XDATA    INT       duty

      ---         MODULE    ---      ---       buzzer
      00FF9598H   PUBLIC    CODE     ---       Buzzer_Init
      000000D0H   SFRSYM    DATA     BYTE      PSW
      0000009DH   SFRSYM    DATA     BYTE      IRCBAND
      00000097H   SFRSYM    DATA     BYTE      AUXR2
      000000EFH   SFRSYM    DATA     BYTE      AUXINTIF
      000000FDH   SFRSYM    DATA     BYTE      S4CON
L251 LINKER/LOCATER V4.66.93.0                                                        03/26/2026  19:04:27  PAGE 134


      000000ACH   SFRSYM    DATA     BYTE      S3CON
      0000009AH   SFRSYM    DATA     BYTE      S2CON
      000000B7H   SFRSYM    DATA     BYTE      IPH
      000000CDH   SFRSYM    DATA     BYTE      SPSTAT
      000000DDH   SFRSYM    DATA     BYTE      T4T3M
      000000C1H   SFRSYM    DATA     BYTE      WDT_CONTR
      000000DFH   SFRSYM    DATA     BYTE      IP3
      000000F4H   SFRSYM    DATA     BYTE      USBCON
      000000B5H   SFRSYM    DATA     BYTE      IP2
      000000FFH   SFRSYM    DATA     BYTE      RSTCFG
      000000C7H   SFRSYM    DATA     BYTE      IAP_CONTR
      000000F9H   SFRSYM    DATA     BYTE      LINICR
      0000008EH   SFRSYM    DATA     BYTE      AUXR
      000000AFH   SFRSYM    DATA     BYTE      IE2
      00000088H   SFRSYM    DATA     BYTE      TCON
      00000089H   SFRSYM    DATA     BYTE      TMOD
      00000098H   SFRSYM    DATA     BYTE      SCON
      000000F1H   SFRSYM    DATA     BYTE      CANICR
      00000087H   SFRSYM    DATA     BYTE      PCON
      000000BCH   SFRSYM    DATA     BYTE      ADC_CONTR
      000000E7H   SFRSYM    DATA     BYTE      CMPCR2
      000000E6H   SFRSYM    DATA     BYTE      CMPCR1
      000000DEH   SFRSYM    DATA     BYTE      ADCCFG
      000000B8H   SFRSYM    DATA     BYTE      IP
      0000008FH   SFRSYM    DATA     BYTE      INTCLKO
      000000EEH   SFRSYM    DATA     BYTE      IP3H
      000000B6H   SFRSYM    DATA     BYTE      IP2H
      000000A8H   SFRSYM    DATA     BYTE      IE
      000000BBH   SFRSYM    DATA     BYTE      P_SW3
      000000BAH   SFRSYM    DATA     BYTE      P_SW2
      000000A2H   SFRSYM    DATA     BYTE      P_SW1
      000000CEH   SFRSYM    DATA     BYTE      SPCTL
      000000F8H   SFRSYM    DATA     BYTE      P7
      000000E8H   SFRSYM    DATA     BYTE      P6
      000000C8H   SFRSYM    DATA     BYTE      P5
      000000C0H   SFRSYM    DATA     BYTE      P4
      000000B0H   SFRSYM    DATA     BYTE      P3
      000000A0H   SFRSYM    DATA     BYTE      P2
      00000090H   SFRSYM    DATA     BYTE      P1
      00000080H   SFRSYM    DATA     BYTE      P0

      00FF9598H   BLOCK     CODE     ---       LVL=0
      00FF9598H   LINE      CODE     ---       #22
      00FF9598H   LINE      CODE     ---       #24
      00FF95A9H   LINE      CODE     ---       #25
      ---         BLOCKEND  ---      ---       LVL=0

      ---         MODULE    ---      ---       led
      000000D0H   SFRSYM    DATA     BYTE      PSW
      0000009DH   SFRSYM    DATA     BYTE      IRCBAND
      00000097H   SFRSYM    DATA     BYTE      AUXR2
      000000EFH   SFRSYM    DATA     BYTE      AUXINTIF
      000000FDH   SFRSYM    DATA     BYTE      S4CON
      000000ACH   SFRSYM    DATA     BYTE      S3CON
      0000009AH   SFRSYM    DATA     BYTE      S2CON
      000000B7H   SFRSYM    DATA     BYTE      IPH
      000000CDH   SFRSYM    DATA     BYTE      SPSTAT
      000000DDH   SFRSYM    DATA     BYTE      T4T3M
      000000C1H   SFRSYM    DATA     BYTE      WDT_CONTR
      000000DFH   SFRSYM    DATA     BYTE      IP3
      000000F4H   SFRSYM    DATA     BYTE      USBCON
      000000B5H   SFRSYM    DATA     BYTE      IP2
      000000FFH   SFRSYM    DATA     BYTE      RSTCFG
      000000C7H   SFRSYM    DATA     BYTE      IAP_CONTR
      000000F9H   SFRSYM    DATA     BYTE      LINICR
L251 LINKER/LOCATER V4.66.93.0                                                        03/26/2026  19:04:27  PAGE 135


      0000008EH   SFRSYM    DATA     BYTE      AUXR
      000000AFH   SFRSYM    DATA     BYTE      IE2
      00000088H   SFRSYM    DATA     BYTE      TCON
      00000089H   SFRSYM    DATA     BYTE      TMOD
      00000098H   SFRSYM    DATA     BYTE      SCON
      000000F1H   SFRSYM    DATA     BYTE      CANICR
      00000087H   SFRSYM    DATA     BYTE      PCON
      000000BCH   SFRSYM    DATA     BYTE      ADC_CONTR
      000000E7H   SFRSYM    DATA     BYTE      CMPCR2
      000000E6H   SFRSYM    DATA     BYTE      CMPCR1
      000000DEH   SFRSYM    DATA     BYTE      ADCCFG
      000000B8H   SFRSYM    DATA     BYTE      IP
      0000008FH   SFRSYM    DATA     BYTE      INTCLKO
      000000EEH   SFRSYM    DATA     BYTE      IP3H
      000000B6H   SFRSYM    DATA     BYTE      IP2H
      000000A8H   SFRSYM    DATA     BYTE      IE
      000000BBH   SFRSYM    DATA     BYTE      P_SW3
      000000BAH   SFRSYM    DATA     BYTE      P_SW2
      000000A2H   SFRSYM    DATA     BYTE      P_SW1
      000000CEH   SFRSYM    DATA     BYTE      SPCTL
      000000F8H   SFRSYM    DATA     BYTE      P7
      000000E8H   SFRSYM    DATA     BYTE      P6
      000000C8H   SFRSYM    DATA     BYTE      P5
      000000C0H   SFRSYM    DATA     BYTE      P4
      000000B0H   SFRSYM    DATA     BYTE      P3
      000000A0H   SFRSYM    DATA     BYTE      P2
      00000090H   SFRSYM    DATA     BYTE      P1
      00000080H   SFRSYM    DATA     BYTE      P0
      00011DF9H   SYMBOL    XDATA    INT       pin
      00011DFBH   SYMBOL    XDATA    INT       pin
      00011DFDH   SYMBOL    XDATA    INT       pin

      ---         MODULE    ---      ---       init
      00FF8FECH   PUBLIC    CODE     ---       Car_Init
      000000D0H   SFRSYM    DATA     BYTE      PSW
      0000009DH   SFRSYM    DATA     BYTE      IRCBAND
      00000097H   SFRSYM    DATA     BYTE      AUXR2
      000000EFH   SFRSYM    DATA     BYTE      AUXINTIF
      000000FDH   SFRSYM    DATA     BYTE      S4CON
      000000ACH   SFRSYM    DATA     BYTE      S3CON
      0000009AH   SFRSYM    DATA     BYTE      S2CON
      000000B7H   SFRSYM    DATA     BYTE      IPH
      000000CDH   SFRSYM    DATA     BYTE      SPSTAT
      000000DDH   SFRSYM    DATA     BYTE      T4T3M
      000000C1H   SFRSYM    DATA     BYTE      WDT_CONTR
      000000DFH   SFRSYM    DATA     BYTE      IP3
      000000F4H   SFRSYM    DATA     BYTE      USBCON
      000000B5H   SFRSYM    DATA     BYTE      IP2
      000000FFH   SFRSYM    DATA     BYTE      RSTCFG
      000000C7H   SFRSYM    DATA     BYTE      IAP_CONTR
      000000F9H   SFRSYM    DATA     BYTE      LINICR
      0000008EH   SFRSYM    DATA     BYTE      AUXR
      000000AFH   SFRSYM    DATA     BYTE      IE2
      00000088H   SFRSYM    DATA     BYTE      TCON
      00000089H   SFRSYM    DATA     BYTE      TMOD
      00000098H   SFRSYM    DATA     BYTE      SCON
      000000F1H   SFRSYM    DATA     BYTE      CANICR
      00000087H   SFRSYM    DATA     BYTE      PCON
      000000BCH   SFRSYM    DATA     BYTE      ADC_CONTR
      000000E7H   SFRSYM    DATA     BYTE      CMPCR2
      000000E6H   SFRSYM    DATA     BYTE      CMPCR1
      000000DEH   SFRSYM    DATA     BYTE      ADCCFG
      000000B8H   SFRSYM    DATA     BYTE      IP
      0000008FH   SFRSYM    DATA     BYTE      INTCLKO
      000000EEH   SFRSYM    DATA     BYTE      IP3H
L251 LINKER/LOCATER V4.66.93.0                                                        03/26/2026  19:04:27  PAGE 136


      000000B6H   SFRSYM    DATA     BYTE      IP2H
      000000A8H   SFRSYM    DATA     BYTE      IE
      000000BBH   SFRSYM    DATA     BYTE      P_SW3
      000000BAH   SFRSYM    DATA     BYTE      P_SW2
      000000A2H   SFRSYM    DATA     BYTE      P_SW1
      000000CEH   SFRSYM    DATA     BYTE      SPCTL
      000000F8H   SFRSYM    DATA     BYTE      P7
      000000E8H   SFRSYM    DATA     BYTE      P6
      000000C8H   SFRSYM    DATA     BYTE      P5
      000000C0H   SFRSYM    DATA     BYTE      P4
      000000B0H   SFRSYM    DATA     BYTE      P3
      000000A0H   SFRSYM    DATA     BYTE      P2
      00000090H   SFRSYM    DATA     BYTE      P1
      00000080H   SFRSYM    DATA     BYTE      P0

      00FF8FECH   BLOCK     CODE     ---       LVL=0
      00FF8FECH   LINE      CODE     ---       #15
      00FF8FECH   LINE      CODE     ---       #19
      00FF8FF7H   LINE      CODE     ---       #20
      00FF8FFAH   LINE      CODE     ---       #21
      00FF8FFDH   LINE      CODE     ---       #22
      00FF9000H   LINE      CODE     ---       #23
      00FF9003H   LINE      CODE     ---       #24
      00FF901FH   LINE      CODE     ---       #27
      00FF9022H   LINE      CODE     ---       #28
      00FF9025H   LINE      CODE     ---       #29
      00FF9028H   LINE      CODE     ---       #30
      00FF902BH   LINE      CODE     ---       #32
      00FF902EH   LINE      CODE     ---       #33
      ---         BLOCKEND  ---      ---       LVL=0

      ---         MODULE    ---      ---       control

      ---         MODULE    ---      ---       menu
      00FF8194H   PUBLIC    CODE     ---       Send_Data_To_PC
      00FF862DH   PUBLIC    CODE     ---       Menu_Init
      00FF7902H   PUBLIC    CODE     ---       Menu_Display
      00010D86H   PUBLIC    XDATA    ---       gyro_buffer
      00010DA6H   PUBLIC    XDATA    ---       data_buffer
      000000D0H   SFRSYM    DATA     BYTE      PSW
      0000009DH   SFRSYM    DATA     BYTE      IRCBAND
      00000097H   SFRSYM    DATA     BYTE      AUXR2
      000000EFH   SFRSYM    DATA     BYTE      AUXINTIF
      000000FDH   SFRSYM    DATA     BYTE      S4CON
      000000ACH   SFRSYM    DATA     BYTE      S3CON
      0000009AH   SFRSYM    DATA     BYTE      S2CON
      000000B7H   SFRSYM    DATA     BYTE      IPH
      000000CDH   SFRSYM    DATA     BYTE      SPSTAT
      000000DDH   SFRSYM    DATA     BYTE      T4T3M
      000000C1H   SFRSYM    DATA     BYTE      WDT_CONTR
      000000DFH   SFRSYM    DATA     BYTE      IP3
      000000F4H   SFRSYM    DATA     BYTE      USBCON
      000000B5H   SFRSYM    DATA     BYTE      IP2
      000000FFH   SFRSYM    DATA     BYTE      RSTCFG
      000000C7H   SFRSYM    DATA     BYTE      IAP_CONTR
      000000F9H   SFRSYM    DATA     BYTE      LINICR
      0000008EH   SFRSYM    DATA     BYTE      AUXR
      000000AFH   SFRSYM    DATA     BYTE      IE2
      00000088H   SFRSYM    DATA     BYTE      TCON
      00000089H   SFRSYM    DATA     BYTE      TMOD
      00000098H   SFRSYM    DATA     BYTE      SCON
      000000F1H   SFRSYM    DATA     BYTE      CANICR
      00000087H   SFRSYM    DATA     BYTE      PCON
      000000BCH   SFRSYM    DATA     BYTE      ADC_CONTR
      000000E7H   SFRSYM    DATA     BYTE      CMPCR2
L251 LINKER/LOCATER V4.66.93.0                                                        03/26/2026  19:04:27  PAGE 137


      000000E6H   SFRSYM    DATA     BYTE      CMPCR1
      000000DEH   SFRSYM    DATA     BYTE      ADCCFG
      000000B8H   SFRSYM    DATA     BYTE      IP
      0000008FH   SFRSYM    DATA     BYTE      INTCLKO
      000000EEH   SFRSYM    DATA     BYTE      IP3H
      000000B6H   SFRSYM    DATA     BYTE      IP2H
      000000A8H   SFRSYM    DATA     BYTE      IE
      000000BBH   SFRSYM    DATA     BYTE      P_SW3
      000000BAH   SFRSYM    DATA     BYTE      P_SW2
      000000A2H   SFRSYM    DATA     BYTE      P_SW1
      000000CEH   SFRSYM    DATA     BYTE      SPCTL
      000000F8H   SFRSYM    DATA     BYTE      P7
      000000E8H   SFRSYM    DATA     BYTE      P6
      000000C8H   SFRSYM    DATA     BYTE      P5
      000000C0H   SFRSYM    DATA     BYTE      P4
      000000B0H   SFRSYM    DATA     BYTE      P3
      000000A0H   SFRSYM    DATA     BYTE      P2
      00000090H   SFRSYM    DATA     BYTE      P1
      00000080H   SFRSYM    DATA     BYTE      P0

      00FF862DH   BLOCK     CODE     ---       LVL=0
      00FF862DH   LINE      CODE     ---       #20
      00FF862DH   LINE      CODE     ---       #22
      00FF8630H   LINE      CODE     ---       #23
      00FF8637H   LINE      CODE     ---       #27
      00FF8646H   LINE      CODE     ---       #28
      00FF8657H   LINE      CODE     ---       #29
      00FF8668H   LINE      CODE     ---       #30
      00FF867BH   LINE      CODE     ---       #31
      00FF868CH   LINE      CODE     ---       #32
      00FF869FH   LINE      CODE     ---       #33
      00FF86B0H   LINE      CODE     ---       #34
      00FF86C1H   LINE      CODE     ---       #35
      ---         BLOCKEND  ---      ---       LVL=0

      00FF7902H   BLOCK     CODE     ---       LVL=0
      00011D8DH   SYMBOL    XDATA    ---       inductance_data
      00FF7902H   LINE      CODE     ---       #38
      00FF790CH   LINE      CODE     ---       #42
      00FF7927H   LINE      CODE     ---       #43
      00FF793AH   LINE      CODE     ---       #46
      00FF7957H   LINE      CODE     ---       #47
      00FF796AH   LINE      CODE     ---       #50
      00FF7982H   LINE      CODE     ---       #51
      00FF799CH   LINE      CODE     ---       #52
      00FF79B6H   LINE      CODE     ---       #53
      00FF79D2H   LINE      CODE     ---       #54
      00FF79E3H   LINE      CODE     ---       #55
      00FF79F4H   LINE      CODE     ---       #57
      00FF7A01H   LINE      CODE     ---       #58
      ---         BLOCKEND  ---      ---       LVL=0

      00FF8194H   BLOCK     CODE     ---       LVL=0
      00010A22H   SYMBOL    XDATA    ---       inductance_data
      00FF819EH   BLOCK     CODE     NEAR LAB  LVL=1
      00010A26H   SYMBOL    XDATA    ---       send_buf
      ---         BLOCKEND  ---      ---       LVL=1
      00FF8194H   LINE      CODE     ---       #61
      00FF819EH   LINE      CODE     ---       #62
      00FF819EH   LINE      CODE     ---       #68
      00FF8245H   LINE      CODE     ---       #79
      00FF8250H   LINE      CODE     ---       #80
      ---         BLOCKEND  ---      ---       LVL=0

      ---         MODULE    ---      ---       encoder
L251 LINKER/LOCATER V4.66.93.0                                                        03/26/2026  19:04:27  PAGE 138


      0001173DH   PUBLIC    XDATA    INT       speed_right
      0001173FH   PUBLIC    XDATA    INT       speed_left
      00011741H   PUBLIC    XDATA    INT       real_right
      00011743H   PUBLIC    XDATA    INT       last_speed_right
      00011745H   PUBLIC    XDATA    INT       real_left
      00011747H   PUBLIC    XDATA    INT       last_speed_left
      00011749H   PUBLIC    XDATA    BYTE      imu_cnt
      000000D0H   SFRSYM    DATA     BYTE      PSW
      0000009DH   SFRSYM    DATA     BYTE      IRCBAND
      00000097H   SFRSYM    DATA     BYTE      AUXR2
      000000EFH   SFRSYM    DATA     BYTE      AUXINTIF
      000000FDH   SFRSYM    DATA     BYTE      S4CON
      000000ACH   SFRSYM    DATA     BYTE      S3CON
      0000009AH   SFRSYM    DATA     BYTE      S2CON
      000000B7H   SFRSYM    DATA     BYTE      IPH
      000000CDH   SFRSYM    DATA     BYTE      SPSTAT
      000000DDH   SFRSYM    DATA     BYTE      T4T3M
      000000C1H   SFRSYM    DATA     BYTE      WDT_CONTR
      000000DFH   SFRSYM    DATA     BYTE      IP3
      000000F4H   SFRSYM    DATA     BYTE      USBCON
      000000B5H   SFRSYM    DATA     BYTE      IP2
      000000FFH   SFRSYM    DATA     BYTE      RSTCFG
      000000C7H   SFRSYM    DATA     BYTE      IAP_CONTR
      000000F9H   SFRSYM    DATA     BYTE      LINICR
      0000008EH   SFRSYM    DATA     BYTE      AUXR
      000000AFH   SFRSYM    DATA     BYTE      IE2
      00000088H   SFRSYM    DATA     BYTE      TCON
      00000089H   SFRSYM    DATA     BYTE      TMOD
      00000098H   SFRSYM    DATA     BYTE      SCON
      000000F1H   SFRSYM    DATA     BYTE      CANICR
      00000087H   SFRSYM    DATA     BYTE      PCON
      000000BCH   SFRSYM    DATA     BYTE      ADC_CONTR
      000000E7H   SFRSYM    DATA     BYTE      CMPCR2
      000000E6H   SFRSYM    DATA     BYTE      CMPCR1
      000000DEH   SFRSYM    DATA     BYTE      ADCCFG
      000000B8H   SFRSYM    DATA     BYTE      IP
      0000008FH   SFRSYM    DATA     BYTE      INTCLKO
      000000EEH   SFRSYM    DATA     BYTE      IP3H
      000000B6H   SFRSYM    DATA     BYTE      IP2H
      000000A8H   SFRSYM    DATA     BYTE      IE
      000000BBH   SFRSYM    DATA     BYTE      P_SW3
      000000BAH   SFRSYM    DATA     BYTE      P_SW2
      000000A2H   SFRSYM    DATA     BYTE      P_SW1
      000000CEH   SFRSYM    DATA     BYTE      SPCTL
      000000F8H   SFRSYM    DATA     BYTE      P7
      000000E8H   SFRSYM    DATA     BYTE      P6
      000000C8H   SFRSYM    DATA     BYTE      P5
      000000C0H   SFRSYM    DATA     BYTE      P4
      000000B0H   SFRSYM    DATA     BYTE      P3
      000000A0H   SFRSYM    DATA     BYTE      P2
      00000090H   SFRSYM    DATA     BYTE      P1
      00000080H   SFRSYM    DATA     BYTE      P0

      ---         MODULE    ---      ---       ?C?FPADD
      00FF21D4H   PUBLIC    CODE     ---       ?C?FPADD
      00FF21D1H   PUBLIC    CODE     ---       ?C?FPSUB

      ---         MODULE    ---      ---       ?C?FPMUL
      00FF228CH   PUBLIC    CODE     ---       ?C?FPMUL

      ---         MODULE    ---      ---       ?C?FPDIV
      00FF232CH   PUBLIC    CODE     ---       ?C?FPDIV

      ---         MODULE    ---      ---       ?C?FPCMP
      00FF23AFH   PUBLIC    CODE     ---       ?C?FPCMP
L251 LINKER/LOCATER V4.66.93.0                                                        03/26/2026  19:04:27  PAGE 139


      00FF23ADH   PUBLIC    CODE     ---       ?C?FPCMP3

      ---         MODULE    ---      ---       ?C?FPNEG
      00FF23F3H   PUBLIC    CODE     ---       ?C?FPNEG

      ---         MODULE    ---      ---       ?C?FCAST
      00FF240BH   PUBLIC    CODE     NEAR LAB  ?C?FCASTC
      00FF2406H   PUBLIC    CODE     NEAR LAB  ?C?FCASTI
      00FF2401H   PUBLIC    CODE     NEAR LAB  ?C?FCASTL

      ---         MODULE    ---      ---       ?C?CASTF
      00FF243EH   PUBLIC    CODE     NEAR LAB  ?C?CASTF

      ---         MODULE    ---      ---       PRINTF
      0001107FH   PUBLIC    XDATA    ---       ?PRINTF?BYTE
      00FF247BH   PUBLIC    CODE     NEAR LAB  PRINTF

      ---         MODULE    ---      ---       SPRINTF
      0001107FH   PUBLIC    XDATA    ---       ?SPRINTF?BYTE
      00FF24A7H   PUBLIC    CODE     NEAR LAB  SPRINTF

      ---         MODULE    ---      ---       SQRT?_
      00FF24C7H   PUBLIC    CODE     ---       SQRT?_

      ---         MODULE    ---      ---       pow

      ---         MODULE    ---      ---       SIN?_
      00FF259FH   PUBLIC    CODE     ---       COS?_
      00FF25BCH   PUBLIC    CODE     ---       SIN?_
      00FF25E9H   PUBLIC    CODE     ---       TAN?_

      ---         MODULE    ---      ---       ATAN?_
      00FF26AFH   PUBLIC    CODE     ---       ATAN?_

      ---         MODULE    ---      ---       ASIN?_
      00FF2781H   PUBLIC    CODE     ---       ASIN?_

      ---         MODULE    ---      ---       ?C?FPGETOPN
      00FF27A1H   PUBLIC    CODE     ---       ?C?FPGETOPN2
      00FF27DEH   PUBLIC    CODE     ---       ?C?FPNANRESULT
      00FF27E6H   PUBLIC    CODE     ---       ?C?FPOVERFLOW
      00FF27BAH   PUBLIC    CODE     ---       ?C?FPRESULT
      00FF27D0H   PUBLIC    CODE     ---       ?C?FPRESULT2
      00FF27E3H   PUBLIC    CODE     ---       ?C?FPUNDERFLOW

      ---         MODULE    ---      ---       _CHKFLOAT_?_
      00FF27F2H   PUBLIC    CODE     ---       _CHKFLOAT_?_

      ---         MODULE    ---      ---       ?C?PRNFMT
      00FF283CH   PUBLIC    CODE     ---       ?C?PRNFMT

      ---         MODULE    ---      ---       ?C?FPSERIES
      00FF2C4BH   PUBLIC    CODE     ---       ?C?FP2SERIES
      00FF2C54H   PUBLIC    CODE     ---       ?C?FPSERIES

      ---         MODULE    ---      ---       EXP?_
      00FF2CB1H   PUBLIC    CODE     ---       EXP?_

      ---         MODULE    ---      ---       LOG?_
      00FF2D40H   PUBLIC    CODE     NEAR LAB  LOG?_

      ---         MODULE    ---      ---       ?C?FPCONVERT
      00FF2E13H   PUBLIC    CODE     ---       ?C?FPCONVERT
      00FF2ECBH   PUBLIC    CODE     ---       ?C?FPROUND

L251 LINKER/LOCATER V4.66.93.0                                                        03/26/2026  19:04:27  PAGE 140


      ---         MODULE    ---      ---       ?C?FTNPWR
      00FF2F3EH   PUBLIC    CODE     ---       ?C?FTNPWR

      ---         MODULE    ---      ---       ?C?INITHDATA
      00FF8F17H   PUBLIC    CODE     ---       ?C?INITHDATA

      ---         MODULE    ---      ---       ?C?SIDIV
      00FF2F75H   PUBLIC    CODE     ---       ?C?SIDIV

      ---         MODULE    ---      ---       ?C?LMUL
      00FF2FA7H   PUBLIC    CODE     ---       ?C?LMUL

      ---         MODULE    ---      ---       ?C?LIMUL
      00FF2FB8H   PUBLIC    CODE     ---       ?C?LIMUL

      ---         MODULE    ---      ---       ?C?ULDIV
      00FF2FC3H   PUBLIC    CODE     NEAR LAB  ?C?ULDIV
      00FF2FC1H   PUBLIC    CODE     NEAR LAB  ?C?ULIDIV

      ---         MODULE    ---      ---       ?C?SLDIV
      00FF3014H   PUBLIC    CODE     NEAR LAB  ?C?SLDIV

      ---         MODULE    ---      ---       ?C?BMOVEPP
      00FF304AH   PUBLIC    CODE     ---       ?C?BMOVEPP
      00FF3048H   PUBLIC    CODE     ---       ?C?BMOVEPP8

      ---         MODULE    ---      ---       STRNCMP

      ---         MODULE    ---      ---       STRNCPY

      ---         MODULE    ---      ---       STRLEN
      00FF95AAH   PUBLIC    CODE     ---       strlen?_

      ---         MODULE    ---      ---       STRCHR

      ---         MODULE    ---      ---       memcpy
      00FF94C0H   PUBLIC    CODE     ---       memcpy?_

      ---         MODULE    ---      ---       memset

      ---         MODULE    ---      ---       ?C?INITHDATA_END
      00FF9AAAH   PUBLIC    HCONST   WORD      ?C?INITHDATA_END

Program Size: data=8.4 edata+hdata=2060 xdata=7697 const=4011 code=38228
L251 RUN COMPLETE.  0 WARNING(S),  0 ERROR(S)
