L251 LINKER/LOCATER V4.66.93.0                                                          04/22/2026  19:49:03  PAGE 1


L251 LINKER/LOCATER V4.66.93.0, INVOKED BY:
E:\KEIL_V5\C251\BIN\L251.EXE .\out_file\START251.obj, .\out_file\stc32g_isr.obj, .\out_file\zf_common_clock.obj, .\out_f
>> ile\zf_common_debug.obj, .\out_file\zf_common_fifo.obj, .\out_file\zf_common_font.obj, .\out_file\zf_common_function.
>> obj, .\out_file\zf_common_typedef.obj, .\out_file\zf_common_interrupt.obj, .\out_file\zf_driver_adc.obj, .\out_file\z
>> f_driver_delay.obj, .\out_file\zf_driver_eeprom.obj, .\out_file\zf_driver_encoder.obj, .\out_file\zf_driver_exti.obj,
>>  .\out_file\zf_driver_gpio.obj, .\out_file\zf_driver_pit.obj, .\out_file\zf_driver_pwm.obj, .\out_file\zf_driver_soft
>> _iic.obj, .\out_file\zf_driver_soft_spi.obj, .\out_file\zf_driver_spi.obj, .\out_file\zf_driver_timer.obj, .\out_file
>> \zf_driver_uart.obj, .\out_file\eeprom.obj, .\out_file\voltage_warning.obj, .\out_file\zf_device_ble6a20.obj, .\out_f
>> ile\zf_device_config.obj, .\out_file\zf_device_dl1a.obj, .\out_file\zf_device_dl1b.obj, .\out_file\zf_device_gps_tau1
>> 201.obj, .\out_file\zf_device_icm20602.obj, .\out_file\zf_device_imu660ra.obj, .\out_file\zf_device_imu660rb.obj, .\o
>> ut_file\zf_device_imu963ra.obj, .\out_file\zf_device_ips114.obj, .\out_file\zf_device_ips200.obj, .\out_file\zf_devic
>> e_ips200pro.obj, .\out_file\zf_device_tft180.obj, .\out_file\zf_device_tsl1401.obj, .\out_file\zf_device_type.obj, .\
>> out_file\zf_device_wireless_uart.obj, .\out_file\imu.obj, .\out_file\seekfree_assistant.obj, .\out_file\seekfree_assi
>> stant_interface.obj, .\out_file\isr.obj, .\out_file\main.obj, .\out_file\all_init.obj, .\out_file\encoder.obj, .\out_
>> file\moto.obj, .\out_file\led.obj, .\out_file\trank.obj, .\out_file\inductance.obj, .\out_file\menu.obj TO .\out_file
>> \SEEKFREE PRINT (.\out_file\SEEKFREE.map) CASE DISABLEWARNING (57, 16) REMOVEUNUSED CLASSES (EDATA (0X0-0XFFF), HDATA
>>  (0X0-0XFFF))


CPU MODE:     251 SOURCE MODE
INTR FRAME:   4 BYTES SAVED ON INTERRUPT
MEMORY MODEL: LARGE WITH FLOATING POINT ARITHMETIC


INPUT MODULES INCLUDED:
  .\out_file\START251.obj (?C_START)
         COMMENT TYPE 0: A251 V4.69.13.0
  .\out_file\stc32g_isr.obj (stc32g_isr)
         COMMENT TYPE 0: A251 V4.69.13.0
  .\out_file\zf_common_clock.obj (zf_common_clock)
         COMMENT TYPE 0: C251 V5.60.0
  .\out_file\zf_common_debug.obj (zf_common_debug)
         COMMENT TYPE 0: C251 V5.60.0
  .\out_file\zf_common_fifo.obj (zf_common_fifo)
         COMMENT TYPE 0: C251 V5.60.0
  .\out_file\zf_common_font.obj (zf_common_font)
         COMMENT TYPE 0: C251 V5.60.0
  .\out_file\zf_common_function.obj (zf_common_function)
         COMMENT TYPE 0: C251 V5.60.0
  .\out_file\zf_common_typedef.obj (zf_common_typedef)
         COMMENT TYPE 0: C251 V5.60.0
  .\out_file\zf_common_interrupt.obj (zf_common_interrupt)
         COMMENT TYPE 0: C251 V5.60.0
  .\out_file\zf_driver_adc.obj (zf_driver_adc)
         COMMENT TYPE 0: C251 V5.60.0
  .\out_file\zf_driver_delay.obj (zf_driver_delay)
         COMMENT TYPE 0: C251 V5.60.0
  .\out_file\zf_driver_eeprom.obj (zf_driver_eeprom)
         COMMENT TYPE 0: C251 V5.60.0
  .\out_file\zf_driver_encoder.obj (zf_driver_encoder)
         COMMENT TYPE 0: C251 V5.60.0
  .\out_file\zf_driver_exti.obj (zf_driver_exti)
         COMMENT TYPE 0: C251 V5.60.0
  .\out_file\zf_driver_gpio.obj (zf_driver_gpio)
         COMMENT TYPE 0: C251 V5.60.0
  .\out_file\zf_driver_pit.obj (zf_driver_pit)
         COMMENT TYPE 0: C251 V5.60.0
  .\out_file\zf_driver_pwm.obj (zf_driver_pwm)
         COMMENT TYPE 0: C251 V5.60.0
  .\out_file\zf_driver_soft_iic.obj (zf_driver_soft_iic)
         COMMENT TYPE 0: C251 V5.60.0
  .\out_file\zf_driver_soft_spi.obj (zf_driver_soft_spi)
         COMMENT TYPE 0: C251 V5.60.0
  .\out_file\zf_driver_spi.obj (zf_driver_spi)
         COMMENT TYPE 0: C251 V5.60.0
  .\out_file\zf_driver_timer.obj (zf_driver_timer)
L251 LINKER/LOCATER V4.66.93.0                                                        04/22/2026  19:49:03  PAGE 2


         COMMENT TYPE 0: C251 V5.60.0
  .\out_file\zf_driver_uart.obj (zf_driver_uart)
         COMMENT TYPE 0: C251 V5.60.0
  .\out_file\eeprom.obj (eeprom)
         COMMENT TYPE 0: C251 V5.60.0
  .\out_file\voltage_warning.obj (voltage_warning)
         COMMENT TYPE 0: C251 V5.60.0
  .\out_file\zf_device_ble6a20.obj (zf_device_ble6a20)
         COMMENT TYPE 0: C251 V5.60.0
  .\out_file\zf_device_config.obj (zf_device_config)
         COMMENT TYPE 0: C251 V5.60.0
  .\out_file\zf_device_dl1a.obj (zf_device_dl1a)
         COMMENT TYPE 0: C251 V5.60.0
  .\out_file\zf_device_dl1b.obj (zf_device_dl1b)
         COMMENT TYPE 0: C251 V5.60.0
  .\out_file\zf_device_gps_tau1201.obj (zf_device_gps_tau1201)
         COMMENT TYPE 0: C251 V5.60.0
  .\out_file\zf_device_icm20602.obj (zf_device_icm20602)
         COMMENT TYPE 0: C251 V5.60.0
  .\out_file\zf_device_imu660ra.obj (zf_device_imu660ra)
         COMMENT TYPE 0: C251 V5.60.0
  .\out_file\zf_device_imu660rb.obj (zf_device_imu660rb)
         COMMENT TYPE 0: C251 V5.60.0
  .\out_file\zf_device_imu963ra.obj (zf_device_imu963ra)
         COMMENT TYPE 0: C251 V5.60.0
  .\out_file\zf_device_ips114.obj (zf_device_ips114)
         COMMENT TYPE 0: C251 V5.60.0
  .\out_file\zf_device_ips200.obj (zf_device_ips200)
         COMMENT TYPE 0: C251 V5.60.0
  .\out_file\zf_device_ips200pro.obj (zf_device_ips200pro)
         COMMENT TYPE 0: C251 V5.60.0
  .\out_file\zf_device_tft180.obj (zf_device_tft180)
         COMMENT TYPE 0: C251 V5.60.0
  .\out_file\zf_device_tsl1401.obj (zf_device_tsl1401)
         COMMENT TYPE 0: C251 V5.60.0
  .\out_file\zf_device_type.obj (zf_device_type)
         COMMENT TYPE 0: C251 V5.60.0
  .\out_file\zf_device_wireless_uart.obj (zf_device_wireless_uart)
         COMMENT TYPE 0: C251 V5.60.0
  .\out_file\imu.obj (imu)
         COMMENT TYPE 0: C251 V5.60.0
  .\out_file\seekfree_assistant.obj (seekfree_assistant)
         COMMENT TYPE 0: C251 V5.60.0
  .\out_file\seekfree_assistant_interface.obj (seekfree_assistant_interface)
         COMMENT TYPE 0: C251 V5.60.0
  .\out_file\isr.obj (isr)
         COMMENT TYPE 0: C251 V5.60.0
  .\out_file\main.obj (main)
         COMMENT TYPE 0: C251 V5.60.0
  .\out_file\all_init.obj (all_init)
         COMMENT TYPE 0: C251 V5.60.0
  .\out_file\encoder.obj (encoder)
         COMMENT TYPE 0: C251 V5.60.0
  .\out_file\moto.obj (moto)
         COMMENT TYPE 0: C251 V5.60.0
  .\out_file\led.obj (led)
         COMMENT TYPE 0: C251 V5.60.0
  .\out_file\trank.obj (trank)
         COMMENT TYPE 0: C251 V5.60.0
  .\out_file\inductance.obj (inductance)
         COMMENT TYPE 0: C251 V5.60.0
  .\out_file\menu.obj (menu)
         COMMENT TYPE 0: C251 V5.60.0
  E:\KEIL_V5\C251\LIB\C2SFPL.LIB (?C?FPADD)
         COMMENT TYPE 0: A251 V4.69.6.0
L251 LINKER/LOCATER V4.66.93.0                                                        04/22/2026  19:49:03  PAGE 3


  E:\KEIL_V5\C251\LIB\C2SFPL.LIB (?C?FPMUL)
         COMMENT TYPE 0: A251 V4.69.6.0
  E:\KEIL_V5\C251\LIB\C2SFPL.LIB (?C?FPDIV)
         COMMENT TYPE 0: A251 V4.69.6.0
  E:\KEIL_V5\C251\LIB\C2SFPL.LIB (?C?FPCMP)
         COMMENT TYPE 0: A251 V4.69.6.0
  E:\KEIL_V5\C251\LIB\C2SFPL.LIB (?C?FPNEG)
         COMMENT TYPE 0: A251 V4.69.6.0
  E:\KEIL_V5\C251\LIB\C2SFPL.LIB (?C?FCAST)
         COMMENT TYPE 0: A251 V4.69.6.0
  E:\KEIL_V5\C251\LIB\C2SFPL.LIB (?C?CASTF)
         COMMENT TYPE 0: A251 V4.69.6.0
  E:\KEIL_V5\C251\LIB\C2SFPL.LIB (PRINTF)
         COMMENT TYPE 0: A251 V4.69.6.0
  E:\KEIL_V5\C251\LIB\C2SFPL.LIB (SPRINTF)
         COMMENT TYPE 0: A251 V4.69.6.0
  E:\KEIL_V5\C251\LIB\C2SFPL.LIB (SQRT?_)
         COMMENT TYPE 0: A251 V4.69.6.0
  E:\KEIL_V5\C251\LIB\C2SFPL.LIB (pow)
         COMMENT TYPE 0: C251 V5.58.7
  E:\KEIL_V5\C251\LIB\C2SFPL.LIB (SIN?_)
         COMMENT TYPE 0: A251 V4.69.6.0
  E:\KEIL_V5\C251\LIB\C2SFPL.LIB (ATAN?_)
         COMMENT TYPE 0: A251 V4.69.6.0
  E:\KEIL_V5\C251\LIB\C2SFPL.LIB (ASIN?_)
         COMMENT TYPE 0: A251 V4.69.6.0
  E:\KEIL_V5\C251\LIB\C2SFPL.LIB (?C?FPGETOPN)
         COMMENT TYPE 0: A251 V4.69.6.0
  E:\KEIL_V5\C251\LIB\C2SFPL.LIB (_CHKFLOAT_?_)
         COMMENT TYPE 0: A251 V4.69.6.0
  E:\KEIL_V5\C251\LIB\C2SFPL.LIB (?C?PRNFMT)
         COMMENT TYPE 0: A251 V4.69.6.0
  E:\KEIL_V5\C251\LIB\C2SFPL.LIB (?C?FPSERIES)
         COMMENT TYPE 0: A251 V4.69.6.0
  E:\KEIL_V5\C251\LIB\C2SFPL.LIB (EXP?_)
         COMMENT TYPE 0: A251 V4.69.6.0
  E:\KEIL_V5\C251\LIB\C2SFPL.LIB (LOG?_)
         COMMENT TYPE 0: A251 V4.69.6.0
  E:\KEIL_V5\C251\LIB\C2SFPL.LIB (?C?FPCONVERT)
         COMMENT TYPE 0: A251 V4.69.6.0
  E:\KEIL_V5\C251\LIB\C2SFPL.LIB (?C?FTNPWR)
         COMMENT TYPE 0: A251 V4.69.6.0
  E:\KEIL_V5\C251\LIB\C2SL.LIB (?C?INITHDATA)
         COMMENT TYPE 0: A251 V4.69.6.0
  E:\KEIL_V5\C251\LIB\C2SL.LIB (?C?SIDIV)
         COMMENT TYPE 0: A251 V4.69.6.0
  E:\KEIL_V5\C251\LIB\C2SL.LIB (?C?LMUL)
         COMMENT TYPE 0: A251 V4.69.6.0
  E:\KEIL_V5\C251\LIB\C2SL.LIB (?C?LIMUL)
         COMMENT TYPE 0: A251 V4.69.6.0
  E:\KEIL_V5\C251\LIB\C2SL.LIB (?C?ULDIV)
         COMMENT TYPE 0: A251 V4.69.6.0
  E:\KEIL_V5\C251\LIB\C2SL.LIB (?C?SLDIV)
         COMMENT TYPE 0: A251 V4.69.6.0
  E:\KEIL_V5\C251\LIB\C2SL.LIB (?C?BMOVEPP)
         COMMENT TYPE 0: A251 V4.69.6.0
  E:\KEIL_V5\C251\LIB\C2SL.LIB (STRNCMP)
         COMMENT TYPE 0: C251 V5.58.7
  E:\KEIL_V5\C251\LIB\C2SL.LIB (STRNCPY)
         COMMENT TYPE 0: C251 V5.58.7
  E:\KEIL_V5\C251\LIB\C2SL.LIB (STRLEN)
         COMMENT TYPE 0: C251 V5.58.7
  E:\KEIL_V5\C251\LIB\C2SL.LIB (STRCHR)
         COMMENT TYPE 0: C251 V5.58.7
  E:\KEIL_V5\C251\LIB\C2SL.LIB (memcpy)
L251 LINKER/LOCATER V4.66.93.0                                                        04/22/2026  19:49:03  PAGE 4


         COMMENT TYPE 0: C251 V5.58.7
  E:\KEIL_V5\C251\LIB\C2SL.LIB (memset)
         COMMENT TYPE 0: C251 V5.58.7
  E:\KEIL_V5\C251\LIB\C2SL.LIB (?C?INITHDATA_END)
         COMMENT TYPE 0: A251 V4.69.6.0


ACTIVE MEMORY CLASSES OF MODULE:  .\out_file\SEEKFREE (?C_START)

BASE        START       END         USED      MEMORY CLASS
==========================================================
000000H     000000H     000FFFH     00080CH   EDATA
000000H     000000H     000FFFH               HDATA
FF0000H     FF0000H     FFFFFFH     00A426H   CODE
010000H     010000H     01FFFFH     001FDBH   XDATA
000000H     FF0000H     FFFFFFH     000FEBH   HCONST
000020H.0   000020H.0   00002FH.7   000000H.4 BIT
FF0000H     FF0000H     FFFFFFH     000004H   CONST
000000H     000000H     00007FH     000008H   DATA


MEMORY MAP OF MODULE:  .\out_file\SEEKFREE (?C_START)


START     STOP      LENGTH    ALIGN  RELOC    MEMORY CLASS   SEGMENT NAME
=========================================================================
000000H   000007H   000008H   ---    AT..     DATA           "REG BANK 0"
000008H   00000FH   000008H   BYTE   UNIT     EDATA          ?ED?DL1A_ENCODE_TIMEOUT?ZF_DEVICE_DL1A
000010H   000013H   000004H   BYTE   UNIT     EDATA          ?ED?ICM20602_SIMSPI_R_REG_BYTES?ZF_DEVICE_ICM20602
000014H.0 00001FH.7 00000CH.0 ---    ---      **GAP**
000020H.0 000020H.0 000000H.1 BIT    UNIT     BIT            ?BI?IAP_READ_BYTE?ZF_DRIVER_EEPROM
000020H.1 000020H.1 000000H.1 BIT    UNIT     BIT            ?BI?IAP_WRITE_BYTE?ZF_DRIVER_EEPROM
000020H.2 000020H.2 000000H.1 BIT    UNIT     BIT            ?BI?IAP_ERASE_PAGE?ZF_DRIVER_EEPROM
000020H.3 000020H.3 000000H.1 BIT    UNIT     BIT            ?BI?SEEKFREE_ASSISTANT_DATA_ANALYSIS?SEEKFREE_ASSISTANT
000020H.4 000020H   000000H.4 ---    ---      **GAP**
000021H   000820H   000800H   BYTE   UNIT     EDATA          ?STACK
000821H   00FFFFH   00F7DFH   ---    ---      **GAP**
010000H   010209H   00020AH   BYTE   UNIT     XDATA          ?XD?EXTERN_IAP_WRITE_BUFF?ZF_DRIVER_EEPROM
01020AH   01040BH   000202H   BYTE   INSEG    XDATA          ?XD?ZF_DEVICE_TSL1401
01040CH   0105D3H   0001C8H   BYTE   INSEG    XDATA          ?XD?ZF_DEVICE_GPS_TAU1201
0105D4H   010710H   00013DH   BYTE   INSEG    XDATA          ?XD?SEEKFREE_ASSISTANT
010711H   01082FH   00011FH   BYTE   INSEG    XDATA          ?XD?IMU
010830H   010945H   000116H   BYTE   INSEG    XDATA          ?XD?TRANK
010946H   010A13H   0000CEH   BYTE   UNIT     XDATA          ?XD?DL1A_INIT?ZF_DEVICE_DL1A
010A14H   010AB3H   0000A0H   BYTE   INSEG    XDATA          ?XD?MENU
010AB4H   010B48H   000095H   BYTE   UNIT     XDATA          ?XD?GPS_INIT?ZF_DEVICE_GPS_TAU1201
010B49H   010BD7H   00008FH   BYTE   UNIT     XDATA          ?XD?SEEKFREE_ASSISTANT_DATA_ANALYSIS?SEEKFREE_ASSISTANT
010BD8H   010C5BH   000084H   BYTE   UNIT     XDATA          ?XD?SEND_DATA_TO_PC?MENU
010C5CH   010CBAH   00005FH   BYTE   UNIT     XDATA          ?XD?ZF_SPRINTF?ZF_COMMON_FUNCTION
010CBBH   010D13H   000059H   BYTE   INSEG    XDATA          ?XD?ZF_COMMON_DEBUG
010D14H   010D6AH   000057H   BYTE   INSEG    XDATA          ?XD?ZF_DEVICE_BLE6A20
010D6BH   010DC1H   000057H   BYTE   INSEG    XDATA          ?XD?ZF_DEVICE_WIRELESS_UART
010DC2H   010E14H   000053H   BYTE   UNIT     XDATA          ?XD?VSNPRINTF?ZF_COMMON_FUNCTION
010E15H   010E61H   00004DH   BYTE   INSEG    XDATA          ?XD?ZF_DEVICE_IPS200PRO
010E62H   010EABH   00004AH   BYTE   UNIT     XDATA          ?XD?UART_WRITE_BUFFER?ZF_DRIVER_UART
010EACH   010EF0H   000045H   BYTE   UNIT     XDATA          ?XD?IPS200PRO_TABLE_CELL_PRINTF?ZF_DEVICE_IPS200PRO
010EF1H   010F31H   000041H   BYTE   UNIT     XDATA          ?XD?INDUCTANCE_READ?INDUCTANCE
010F32H   010F70H   00003FH   BYTE   UNIT     XDATA          ?XD?IPS200PRO_LABEL_PRINTF?ZF_DEVICE_IPS200PRO
010F71H   010FA8H   000038H   BYTE   UNIT     XDATA          ?XD?FUNC_DOUBLE_TO_STR?ZF_COMMON_FUNCTION
010FA9H   010FD8H   000030H   BYTE   UNIT     XDATA          ?XD?GET_TWO_POINTS_DISTANCE?ZF_DEVICE_GPS_TAU1201
010FD9H   011008H   000030H   BYTE   UNIT     XDATA          ?XD?IPS114_SHOW_FLOAT?ZF_DEVICE_IPS114
011009H   011038H   000030H   BYTE   UNIT     XDATA          ?XD?IPS200_SHOW_FLOAT?ZF_DEVICE_IPS200
011039H   011068H   000030H   BYTE   UNIT     XDATA          ?XD?TFT180_SHOW_FLOAT?ZF_DEVICE_TFT180
011069H   011097H   00002FH   BYTE   UNIT     XDATA          ?XD?DL1A_SET_MEASUREMENT_TIMING_BUDGET?ZF_DEVICE_DL1A
011098H   0110C3H   00002CH   BYTE   UNIT     XDATA          ?XD?IPS114_SHOW_INT32?ZF_DEVICE_IPS114
L251 LINKER/LOCATER V4.66.93.0                                                        04/22/2026  19:49:03  PAGE 5


0110C4H   0110EFH   00002CH   BYTE   UNIT     XDATA          ?XD?IPS200_SHOW_INT32?ZF_DEVICE_IPS200
0110F0H   01111BH   00002CH   BYTE   UNIT     XDATA          ?XD?TFT180_SHOW_INT32?ZF_DEVICE_TFT180
01111CH   011146H   00002BH   BYTE   UNIT     XDATA          ?XD?GPS_GNRMC_PARSE?ZF_DEVICE_GPS_TAU1201
011147H   011170H   00002AH   BYTE   UNIT     XDATA          ?XD?FUNC_FLOAT_TO_STR?ZF_COMMON_FUNCTION
011171H   01119AH   00002AH   BYTE   UNIT     XDATA          ?XD?SEEKFREE_ASSISTANT_OSCILLOSCOPE_SEND?SEEKFREE_ASSISTAN
                                                             -T
01119BH   0111C2H   000028H   BYTE   UNIT     XDATA          ?XD?IPS200PRO_IMAGE_DISPLAY?ZF_DEVICE_IPS200PRO
0111C3H   0111EAH   000028H   BYTE   UNIT     XDATA          _XDATA_GROUP_
0111EBH   01120FH   000025H   BYTE   UNIT     XDATA          ?XD?FUNC_HEX_TO_STR?ZF_COMMON_FUNCTION
011210H   011231H   000022H   BYTE   UNIT     XDATA          ?XD?IPS200PRO_IMAGE_DRAW_RECTANGLE?ZF_DEVICE_IPS200PRO
011232H   011251H   000020H   BYTE   UNIT     XDATA          ?XD?IPS114_SHOW_WAVE?ZF_DEVICE_IPS114
011252H   011271H   000020H   BYTE   UNIT     XDATA          ?XD?IPS200_SHOW_WAVE?ZF_DEVICE_IPS200
011272H   011291H   000020H   BYTE   UNIT     XDATA          ?XD?TFT180_SHOW_WAVE?ZF_DEVICE_TFT180
011292H   0112B1H   000020H   BYTE   UNIT     XDATA          ?XD?OSCILLOSCOPE_DISPLAY?MENU
0112B2H   0112D0H   00001FH   BYTE   UNIT     XDATA          ?XD?DL1A_GET_MEASUREMENT_TIMING_BUDGET?ZF_DEVICE_DL1A
0112D1H   0112EFH   00001FH   BYTE   UNIT     XDATA          ?XD?IPS200PRO_WRITE_PACKET?ZF_DEVICE_IPS200PRO
0112F0H   01130EH   00001FH   BYTE   UNIT     XDATA          ?XD?SEEKFREE_ASSISTANT_CAMERA_BOUNDARY_CONFIG?SEEKFREE_ASS
                                                             -ISTANT
01130FH   01132CH   00001EH   BYTE   INSEG    XDATA          ?XD?ZF_COMMON_TYPEDEF
01132DH   01134AH   00001EH   BYTE   INSEG    XDATA          ?XD?ZF_DEVICE_IMU963RA
01134BH   011367H   00001DH   BYTE   UNIT     XDATA          ?XD?FUNC_INT_TO_STR?ZF_COMMON_FUNCTION
011368H   011383H   00001CH   BYTE   UNIT     XDATA          ?XD?GET_TWO_POINTS_AZIMUTH?ZF_DEVICE_GPS_TAU1201
011384H   01139EH   00001BH   BYTE   UNIT     XDATA          ?XD?IPS200PRO_CREATE_WIDGETS?ZF_DEVICE_IPS200PRO
01139FH   0113B8H   00001AH   BYTE   UNIT     XDATA          ?XD?IPS200PRO_WAVEFORM_ADD_VALUE?ZF_DEVICE_IPS200PRO
0113B9H   0113D2H   00001AH   BYTE   UNIT     XDATA          ?XD?IPS200PRO_IMAGE_DRAW_LINE?ZF_DEVICE_IPS200PRO
0113D3H   0113EBH   000019H   BYTE   UNIT     XDATA          ?XD?FUNC_UINT_TO_STR?ZF_COMMON_FUNCTION
0113ECH   011404H   000019H   BYTE   UNIT     XDATA          ?XD?IPS114_SHOW_CHINESE?ZF_DEVICE_IPS114
011405H   01141DH   000019H   BYTE   UNIT     XDATA          ?XD?IPS200_SHOW_CHINESE?ZF_DEVICE_IPS200
01141EH   011436H   000019H   BYTE   UNIT     XDATA          ?XD?PARAMETER_DEBUG?MENU
011437H   01144EH   000018H   BYTE   UNIT     XDATA          ?XD?FIFO_READ_BUFFER?ZF_COMMON_FIFO
01144FH   011466H   000018H   BYTE   UNIT     XDATA          ?XD?GET_FLOAT_NUMBER?ZF_DEVICE_GPS_TAU1201
011467H   01147EH   000018H   BYTE   UNIT     XDATA          ?XD?GET_DOUBLE_NUMBER?ZF_DEVICE_GPS_TAU1201
01147FH   011496H   000018H   BYTE   UNIT     XDATA          ?XD?PID_INIT?TRANK
011497H   0114ABH   000015H   BYTE   UNIT     XDATA          ?XD?SOFT_SPI_INIT?ZF_DRIVER_SOFT_SPI
0114ACH   0114C0H   000015H   BYTE   UNIT     XDATA          ?XD?IPS200PRO_GET_INFORMATION?ZF_DEVICE_IPS200PRO
0114C1H   0114D4H   000014H   BYTE   UNIT     XDATA          ?XD?DEBUG_ASSERT_HANDLER?ZF_COMMON_DEBUG
0114D5H   0114E8H   000014H   BYTE   UNIT     XDATA          ?XD?NUMBER_CONVERSION_ASCII?ZF_COMMON_FUNCTION
0114E9H   0114FCH   000014H   BYTE   UNIT     XDATA          ?XD?PWM_SET_FREQ?ZF_DRIVER_PWM
0114FDH   011510H   000014H   BYTE   UNIT     XDATA          ?XD?SOFT_IIC_TRANSFER_8BIT_ARRAY?ZF_DRIVER_SOFT_IIC
011511H   011524H   000014H   BYTE   UNIT     XDATA          ?XD?SOFT_IIC_TRANSFER_16BIT_ARRAY?ZF_DRIVER_SOFT_IIC
011525H   011538H   000014H   BYTE   UNIT     XDATA          ?XD?SPI_INIT?ZF_DRIVER_SPI
011539H   01154CH   000014H   BYTE   INSEG    XDATA          ?XD?ZF_DEVICE_ICM20602
01154DH   011560H   000014H   BYTE   INSEG    XDATA          ?XD?ZF_DEVICE_IMU660RA
011561H   011574H   000014H   BYTE   UNIT     XDATA          ?XD?INDUCTANCE_COUNT_ERR?INDUCTANCE
011575H   011587H   000013H   BYTE   UNIT     XDATA          ?XD?IMU660RA_READ_REGISTERS?ZF_DEVICE_IMU660RA
011588H   01159AH   000013H   BYTE   UNIT     XDATA          ?XD?IPS200PRO_SET_COLOR?ZF_DEVICE_IPS200PRO
01159BH   0115ADH   000013H   BYTE   UNIT     XDATA          ?XD?IPS200PRO_SET_POSITION?ZF_DEVICE_IPS200PRO
0115AEH   0115C0H   000013H   BYTE   UNIT     XDATA          ?XD?IPS200PRO_WAVEFORM_LINE_STATE?ZF_DEVICE_IPS200PRO
0115C1H   0115D3H   000013H   BYTE   UNIT     XDATA          ?XD?IPS200PRO_CONTAINER_RADIUS?ZF_DEVICE_IPS200PRO
0115D4H   0115E5H   000012H   BYTE   UNIT     XDATA          ?XD?FIFO_WRITE_BUFFER?ZF_COMMON_FIFO
0115E6H   0115F7H   000012H   BYTE   UNIT     XDATA          ?XD?PWM_INIT?ZF_DRIVER_PWM
0115F8H   011609H   000012H   BYTE   UNIT     XDATA          ?XD?IPS200PRO_TABLE_SET_COL_WIDTH?ZF_DEVICE_IPS200PRO
01160AH   01161BH   000012H   BYTE   UNIT     XDATA          ?XD?IPS200PRO_CALENDAR_DISPLAY?ZF_DEVICE_IPS200PRO
01161CH   01162CH   000011H   BYTE   UNIT     XDATA          ?XD?FUNC_STR_TO_FLOAT?ZF_COMMON_FUNCTION
01162DH   01163DH   000011H   BYTE   UNIT     XDATA          ?XD?FUNC_STR_TO_DOUBLE?ZF_COMMON_FUNCTION
01163EH   01164EH   000011H   BYTE   UNIT     XDATA          ?XD?GET_INT_NUMBER?ZF_DEVICE_GPS_TAU1201
01164FH   01165FH   000011H   BYTE   UNIT     XDATA          ?XD?IPS200PRO_SET_DATE?ZF_DEVICE_IPS200PRO
011660H   011670H   000011H   BYTE   UNIT     XDATA          ?XD?IPS200PRO_SET_PARENT?ZF_DEVICE_IPS200PRO
011671H   011681H   000011H   BYTE   UNIT     XDATA          ?XD?IPS200PRO_GET_DATE?ZF_DEVICE_IPS200PRO
011682H   011692H   000011H   BYTE   UNIT     XDATA          ?XD?IPS200PRO_GET_TIME?ZF_DEVICE_IPS200PRO
011693H   0116A3H   000011H   BYTE   UNIT     XDATA          ?XD?IPS200PRO_GET_FREE_STACK_SIZE?ZF_DEVICE_IPS200PRO
0116A4H   0116B4H   000011H   BYTE   UNIT     XDATA          ?XD?IPS200PRO_TABLE_SELECT?ZF_DEVICE_IPS200PRO
0116B5H   0116C5H   000011H   BYTE   UNIT     XDATA          ?XD?IPS200PRO_PROGRESS_BAR_SET_VALUE?ZF_DEVICE_IPS200PRO
0116C6H   0116D5H   000010H   BYTE   UNIT     XDATA          ?XD?SOFT_SPI_TRANSFER_8BIT?ZF_DRIVER_SOFT_SPI
0116D6H   0116E5H   000010H   BYTE   UNIT     XDATA          ?XD?SOFT_SPI_TRANSFER_16BIT?ZF_DRIVER_SOFT_SPI
L251 LINKER/LOCATER V4.66.93.0                                                        04/22/2026  19:49:03  PAGE 6


0116E6H   0116F5H   000010H   BYTE   UNIT     XDATA          ?XD?IPS200PRO_SET_TIME?ZF_DEVICE_IPS200PRO
0116F6H   011705H   000010H   BYTE   UNIT     XDATA          ?XD?IPS200PRO_PAGE_SET_TITLE_POSITION_WIDTH?ZF_DEVICE_IPS2
                                                             -00PRO
011706H   011715H   000010H   BYTE   UNIT     XDATA          ?XD?FAST_SQRT?IMU
011716H   011724H   00000FH   BYTE   UNIT     XDATA          ?XD?IPS200PRO_SET_FONT?ZF_DEVICE_IPS200PRO
011725H   011733H   00000FH   BYTE   UNIT     XDATA          ?XD?IPS200PRO_PAGE_SWITCH?ZF_DEVICE_IPS200PRO
011734H   011742H   00000FH   BYTE   UNIT     XDATA          ?XD?IPS200PRO_PAGE_SET_TITLE_NAME?ZF_DEVICE_IPS200PRO
011743H   011751H   00000FH   BYTE   UNIT     XDATA          ?XD?IPS200PRO_LABEL_SHOW_STRING?ZF_DEVICE_IPS200PRO
011752H   011760H   00000FH   BYTE   UNIT     XDATA          ?XD?IPS200PRO_LABEL_MODE?ZF_DEVICE_IPS200PRO
011761H   01176FH   00000FH   BYTE   UNIT     XDATA          ?XD?IPS200PRO_METER_SET_VALUE?ZF_DEVICE_IPS200PRO
011770H   01177EH   00000FH   BYTE   UNIT     XDATA          ?XD?SEEKFREE_ASSISTANT_CAMERA_DATA_SEND?SEEKFREE_ASSISTANT
01177FH   01178CH   00000EH   BYTE   UNIT     XDATA          ?XD?FIFO_INIT?ZF_COMMON_FIFO
01178DH   01179AH   00000EH   BYTE   UNIT     XDATA          ?XD?FUNC_STR_TO_HEX?ZF_COMMON_FUNCTION
01179BH   0117A8H   00000EH   BYTE   UNIT     XDATA          ?XD?PWM_SET_DUTY?ZF_DRIVER_PWM
0117A9H   0117B6H   00000EH   BYTE   UNIT     XDATA          ?XD?SOFT_IIC_WRITE_16BIT_REGISTERS?ZF_DRIVER_SOFT_IIC
0117B7H   0117C4H   00000EH   BYTE   UNIT     XDATA          ?XD?SOFT_IIC_READ_16BIT_REGISTERS?ZF_DRIVER_SOFT_IIC
0117C5H   0117D2H   00000EH   BYTE   UNIT     XDATA          ?XD?SOFT_SPI_WRITE_16BIT_REGISTERS?ZF_DRIVER_SOFT_SPI
0117D3H   0117E0H   00000EH   BYTE   UNIT     XDATA          ?XD?SOFT_SPI_READ_16BIT_REGISTERS?ZF_DRIVER_SOFT_SPI
0117E1H   0117EEH   00000EH   BYTE   UNIT     XDATA          ?XD?SPI_TRANSFER_8BIT?ZF_DRIVER_SPI
0117EFH   0117FCH   00000EH   BYTE   UNIT     XDATA          ?XD?SPI_TRANSFER_16BIT?ZF_DRIVER_SPI
0117FDH   01180AH   00000EH   BYTE   UNIT     XDATA          ?XD?GPS_GNGGA_PARSE?ZF_DEVICE_GPS_TAU1201
01180BH   011818H   00000EH   BYTE   UNIT     XDATA          ?XD?IPS200PRO_SEND_BUFFER?ZF_DEVICE_IPS200PRO
011819H   011826H   00000EH   BYTE   UNIT     XDATA          ?XD?IPS200PRO_SET_HIDDEN?ZF_DEVICE_IPS200PRO
011827H   011834H   00000EH   BYTE   UNIT     XDATA          ?XD?IPS200PRO_WAVEFORM_LINE_TYPE?ZF_DEVICE_IPS200PRO
011835H   011842H   00000EH   BYTE   UNIT     XDATA          ?XD?MEDIAN_AVERAGE_FILTER?INDUCTANCE
011843H   01184FH   00000DH   BYTE   UNIT     XDATA          ?XD?PRINTF_REVERSE_ORDER?ZF_COMMON_FUNCTION
011850H   01185CH   00000DH   BYTE   UNIT     XDATA          ?XD?SOFT_IIC_WRITE_8BIT_REGISTERS?ZF_DRIVER_SOFT_IIC
01185DH   011869H   00000DH   BYTE   UNIT     XDATA          ?XD?SOFT_IIC_READ_8BIT_REGISTERS?ZF_DRIVER_SOFT_IIC
01186AH   011876H   00000DH   BYTE   UNIT     XDATA          ?XD?SOFT_IIC_INIT?ZF_DRIVER_SOFT_IIC
011877H   011883H   00000DH   BYTE   UNIT     XDATA          ?XD?SOFT_SPI_WRITE_8BIT_REGISTERS?ZF_DRIVER_SOFT_SPI
011884H   011890H   00000DH   BYTE   UNIT     XDATA          ?XD?SOFT_SPI_READ_8BIT_REGISTERS?ZF_DRIVER_SOFT_SPI
011891H   01189DH   00000DH   BYTE   INSEG    XDATA          ?XD?ZF_DEVICE_DL1A
01189EH   0118AAH   00000DH   BYTE   INSEG    XDATA          ?XD?ZF_DEVICE_DL1B
0118ABH   0118B7H   00000DH   BYTE   UNIT     XDATA          ?XD?GET_PARAMETER_INDEX?ZF_DEVICE_GPS_TAU1201
0118B8H   0118C4H   00000DH   BYTE   UNIT     XDATA          ?XD?IPS200PRO_RECEIVE_BUFFER?ZF_DEVICE_IPS200PRO
0118C5H   0118D1H   00000DH   BYTE   UNIT     XDATA          ?XD?IPS200PRO_SET_FORMAT?ZF_DEVICE_IPS200PRO
0118D2H   0118DEH   00000DH   BYTE   UNIT     XDATA          ?XD?IPS200PRO_SET_DIRECTION?ZF_DEVICE_IPS200PRO
0118DFH   0118EBH   00000DH   BYTE   UNIT     XDATA          ?XD?IPS200PRO_SET_DEFAULT_FONT?ZF_DEVICE_IPS200PRO
0118ECH   0118F7H   00000CH   BYTE   UNIT     XDATA          ?XD?SOFT_IIC_WRITE_8BIT_ARRAY?ZF_DRIVER_SOFT_IIC
0118F8H   011903H   00000CH   BYTE   UNIT     XDATA          ?XD?SOFT_IIC_WRITE_16BIT_ARRAY?ZF_DRIVER_SOFT_IIC
011904H   01190FH   00000CH   BYTE   UNIT     XDATA          ?XD?SOFT_IIC_READ_8BIT_ARRAY?ZF_DRIVER_SOFT_IIC
011910H   01191BH   00000CH   BYTE   UNIT     XDATA          ?XD?SOFT_IIC_READ_16BIT_ARRAY?ZF_DRIVER_SOFT_IIC
01191CH   011927H   00000CH   BYTE   UNIT     XDATA          ?XD?SOFT_SPI_WRITE_8BIT_ARRAY?ZF_DRIVER_SOFT_SPI
011928H   011933H   00000CH   BYTE   UNIT     XDATA          ?XD?SOFT_SPI_WRITE_16BIT_ARRAY?ZF_DRIVER_SOFT_SPI
011934H   01193FH   00000CH   BYTE   UNIT     XDATA          ?XD?SOFT_SPI_READ_8BIT_ARRAY?ZF_DRIVER_SOFT_SPI
011940H   01194BH   00000CH   BYTE   UNIT     XDATA          ?XD?SOFT_SPI_READ_16BIT_ARRAY?ZF_DRIVER_SOFT_SPI
01194CH   011957H   00000CH   BYTE   UNIT     XDATA          ?XD?SPI_WRITE_16BIT_REGISTERS?ZF_DRIVER_SPI
011958H   011963H   00000CH   BYTE   UNIT     XDATA          ?XD?SPI_READ_16BIT_REGISTERS?ZF_DRIVER_SPI
011964H   01196FH   00000CH   BYTE   INSEG    XDATA          ?XD?ZF_DRIVER_TIMER
011970H   01197BH   00000CH   BYTE   INSEG    XDATA          ?XD?ZF_DRIVER_UART
01197CH   011987H   00000CH   BYTE   UNIT     XDATA          ?XD?UART_INIT?ZF_DRIVER_UART
011988H   011993H   00000CH   BYTE   UNIT     XDATA          ?XD?EEPROM_READ_VALUE?EEPROM
011994H   01199FH   00000CH   BYTE   UNIT     XDATA          ?XD?BLE6A20_SEND_BUFFER?ZF_DEVICE_BLE6A20
0119A0H   0119ABH   00000CH   BYTE   UNIT     XDATA          ?XD?BLE6A20_READ_BUFFER?ZF_DEVICE_BLE6A20
0119ACH   0119B7H   00000CH   BYTE   UNIT     XDATA          ?XD?DL1A_GET_SPAD_INFO?ZF_DEVICE_DL1A
0119B8H   0119C3H   00000CH   BYTE   UNIT     XDATA          ?XD?DL1A_GET_SEQUENCE_STEP_TIMEOUTS?ZF_DEVICE_DL1A
0119C4H   0119CFH   00000CH   BYTE   UNIT     XDATA          ?XD?GPS_DATA_PARSE?ZF_DEVICE_GPS_TAU1201
0119D0H   0119DBH   00000CH   BYTE   INSEG    XDATA          ?XD?ZF_DEVICE_IMU660RB
0119DCH   0119E7H   00000CH   BYTE   UNIT     XDATA          ?XD?IPS114_SHOW_INT16?ZF_DEVICE_IPS114
0119E8H   0119F3H   00000CH   BYTE   UNIT     XDATA          ?XD?IPS114_SHOW_UINT16?ZF_DEVICE_IPS114
0119F4H   0119FFH   00000CH   BYTE   UNIT     XDATA          ?XD?IPS200_SHOW_INT16?ZF_DEVICE_IPS200
011A00H   011A0BH   00000CH   BYTE   UNIT     XDATA          ?XD?IPS200_SHOW_UINT16?ZF_DEVICE_IPS200
011A0CH   011A17H   00000CH   BYTE   UNIT     XDATA          ?XD?IPS200PRO_SET_BACKLIGHT?ZF_DEVICE_IPS200PRO
011A18H   011A23H   00000CH   BYTE   UNIT     XDATA          ?XD?IPS200PRO_SET_CRC_STATE?ZF_DEVICE_IPS200PRO
011A24H   011A2FH   00000CH   BYTE   UNIT     XDATA          ?XD?IPS200PRO_SET_OPTIMIZE?ZF_DEVICE_IPS200PRO
L251 LINKER/LOCATER V4.66.93.0                                                        04/22/2026  19:49:03  PAGE 7


011A30H   011A3BH   00000CH   BYTE   UNIT     XDATA          ?XD?TFT180_SHOW_INT16?ZF_DEVICE_TFT180
011A3CH   011A47H   00000CH   BYTE   UNIT     XDATA          ?XD?TFT180_SHOW_UINT16?ZF_DEVICE_TFT180
011A48H   011A53H   00000CH   BYTE   UNIT     XDATA          ?XD?WIRELESS_UART_SEND_BUFFER?ZF_DEVICE_WIRELESS_UART
011A54H   011A5FH   00000CH   BYTE   UNIT     XDATA          ?XD?WIRELESS_UART_READ_BUFFER?ZF_DEVICE_WIRELESS_UART
011A60H   011A6BH   00000CH   BYTE   UNIT     XDATA          ?XD?KALMANCREATE?IMU
011A6CH   011A77H   00000CH   BYTE   UNIT     XDATA          ?XD?PID_CALC?TRANK
011A78H   011A83H   00000CH   BYTE   UNIT     XDATA          ?XD?RANGE_PROTECT_FLOAT?INDUCTANCE
011A84H   011A8EH   00000BH   BYTE   INSEG    XDATA          ?XD?ZF_DRIVER_ADC
011A8FH   011A99H   00000BH   BYTE   UNIT     XDATA          ?XD?PIT_INIT?ZF_DRIVER_PIT
011A9AH   011AA4H   00000BH   BYTE   UNIT     XDATA          ?XD?SOFT_SPI_16BIT_DATA_HANDLER?ZF_DRIVER_SOFT_SPI
011AA5H   011AAFH   00000BH   BYTE   UNIT     XDATA          ?XD?SPI_WRITE_8BIT_REGISTERS?ZF_DRIVER_SPI
011AB0H   011ABAH   00000BH   BYTE   UNIT     XDATA          ?XD?SPI_READ_8BIT_REGISTERS?ZF_DRIVER_SPI
011ABBH   011AC5H   00000BH   BYTE   UNIT     XDATA          ?XD?GPS_UART_CALLBACK?ZF_DEVICE_GPS_TAU1201
011AC6H   011AD0H   00000BH   BYTE   UNIT     XDATA          ?XD?IPS200PRO_DELETE_WIDGETS?ZF_DEVICE_IPS200PRO
011AD1H   011ADBH   00000BH   BYTE   UNIT     XDATA          ?XD?IPS200PRO_WAVEFORM_CLEAR?ZF_DEVICE_IPS200PRO
011ADCH   011AE5H   00000AH   BYTE   UNIT     XDATA          ?XD?ADC_MEAN_FILTER_CONVERT?ZF_DRIVER_ADC
011AE6H   011AEFH   00000AH   BYTE   UNIT     XDATA          ?XD?IAP_READ_BUFF?ZF_DRIVER_EEPROM
011AF0H   011AF9H   00000AH   BYTE   UNIT     XDATA          ?XD?IAP_WRITE_BUFF?ZF_DRIVER_EEPROM
011AFAH   011B03H   00000AH   BYTE   UNIT     XDATA          ?XD?SPI_WRITE_8BIT_ARRAY?ZF_DRIVER_SPI
011B04H   011B0DH   00000AH   BYTE   UNIT     XDATA          ?XD?SPI_WRITE_16BIT_ARRAY?ZF_DRIVER_SPI
011B0EH   011B17H   00000AH   BYTE   UNIT     XDATA          ?XD?SPI_READ_8BIT_ARRAY?ZF_DRIVER_SPI
011B18H   011B21H   00000AH   BYTE   UNIT     XDATA          ?XD?SPI_READ_16BIT_ARRAY?ZF_DRIVER_SPI
011B22H   011B2BH   00000AH   BYTE   UNIT     XDATA          ?XD?EEPROM_READ?EEPROM
011B2CH   011B35H   00000AH   BYTE   UNIT     XDATA          ?XD?IPS114_SHOW_STRING?ZF_DEVICE_IPS114
011B36H   011B3FH   00000AH   BYTE   INSEG    XDATA          ?XD?ZF_DEVICE_IPS200
011B40H   011B49H   00000AH   BYTE   UNIT     XDATA          ?XD?IPS200_SHOW_STRING?ZF_DEVICE_IPS200
011B4AH   011B53H   00000AH   BYTE   UNIT     XDATA          ?XD?TFT180_SHOW_STRING?ZF_DEVICE_TFT180
011B54H   011B5DH   00000AH   BYTE   UNIT     XDATA          ?XD?SEEKFREE_ASSISTANT_CAMERA_INFORMATION_CONFIG?SEEKFREE_
                                                             -ASSISTANT
011B5EH   011B66H   000009H   BYTE   UNIT     XDATA          ?XD?FUNC_STR_TO_INT?ZF_COMMON_FUNCTION
011B67H   011B6FH   000009H   BYTE   UNIT     XDATA          ?XD?DL1A_TIMEOUT_MICROSECONDS_TO_MCLKS?ZF_DEVICE_DL1A
011B70H   011B78H   000009H   BYTE   UNIT     XDATA          ?XD?DL1A_SET_SIGNAL_RATE_LIMIT?ZF_DEVICE_DL1A
011B79H   011B81H   000009H   BYTE   UNIT     XDATA          ?XD?ICM20602_SIMSPI_R_REG_BYTES?ZF_DEVICE_ICM20602
011B82H   011B8AH   000009H   BYTE   UNIT     XDATA          ?XD?ICM20602_READ_REGISTERS?ZF_DEVICE_ICM20602
011B8BH   011B93H   000009H   BYTE   UNIT     XDATA          ?XD?IMU660RA_SIMSPI_W_REG_BYTES?ZF_DEVICE_IMU660RA
011B94H   011B9CH   000009H   BYTE   UNIT     XDATA          ?XD?IMU660RA_SIMSPI_R_REG_BYTES?ZF_DEVICE_IMU660RA
011B9DH   011BA5H   000009H   BYTE   UNIT     XDATA          ?XD?IMU660RA_WRITE_REGISTERS?ZF_DEVICE_IMU660RA
011BA6H   011BAEH   000009H   BYTE   UNIT     XDATA          ?XD?IMU660RB_SIMSPI_R_REG_BYTES?ZF_DEVICE_IMU660RB
011BAFH   011BB7H   000009H   BYTE   UNIT     XDATA          ?XD?IMU660RB_READ_REGISTERS?ZF_DEVICE_IMU660RB
011BB8H   011BC0H   000009H   BYTE   UNIT     XDATA          ?XD?IMU963RA_READ_ACC_GYRO_REGISTERS?ZF_DEVICE_IMU963RA
011BC1H   011BC9H   000009H   BYTE   UNIT     XDATA          ?XD?IPS114_SHOW_INT8?ZF_DEVICE_IPS114
011BCAH   011BD2H   000009H   BYTE   UNIT     XDATA          ?XD?IPS114_SHOW_UINT8?ZF_DEVICE_IPS114
011BD3H   011BDBH   000009H   BYTE   UNIT     XDATA          ?XD?IPS200_SHOW_INT8?ZF_DEVICE_IPS200
011BDCH   011BE4H   000009H   BYTE   UNIT     XDATA          ?XD?IPS200_SHOW_UINT8?ZF_DEVICE_IPS200
011BE5H   011BEDH   000009H   BYTE   UNIT     XDATA          ?XD?IPS200PRO_LABEL_CREATE?ZF_DEVICE_IPS200PRO
011BEEH   011BF6H   000009H   BYTE   UNIT     XDATA          ?XD?IPS200PRO_TABLE_CREATE?ZF_DEVICE_IPS200PRO
011BF7H   011BFFH   000009H   BYTE   UNIT     XDATA          ?XD?IPS200PRO_METER_CREATE?ZF_DEVICE_IPS200PRO
011C00H   011C08H   000009H   BYTE   UNIT     XDATA          ?XD?IPS200PRO_CLOCK_CREATE?ZF_DEVICE_IPS200PRO
011C09H   011C11H   000009H   BYTE   UNIT     XDATA          ?XD?IPS200PRO_PROGRESS_BAR_CREATE?ZF_DEVICE_IPS200PRO
011C12H   011C1AH   000009H   BYTE   UNIT     XDATA          ?XD?IPS200PRO_CALENDAR_CREATE?ZF_DEVICE_IPS200PRO
011C1BH   011C23H   000009H   BYTE   UNIT     XDATA          ?XD?IPS200PRO_WAVEFORM_CREATE?ZF_DEVICE_IPS200PRO
011C24H   011C2CH   000009H   BYTE   UNIT     XDATA          ?XD?IPS200PRO_IMAGE_CREATE?ZF_DEVICE_IPS200PRO
011C2DH   011C35H   000009H   BYTE   UNIT     XDATA          ?XD?IPS200PRO_CONTAINER_CREATE?ZF_DEVICE_IPS200PRO
011C36H   011C3EH   000009H   BYTE   UNIT     XDATA          ?XD?IPS200PRO_INIT?ZF_DEVICE_IPS200PRO
011C3FH   011C47H   000009H   BYTE   UNIT     XDATA          ?XD?TFT180_SHOW_INT8?ZF_DEVICE_TFT180
011C48H   011C50H   000009H   BYTE   UNIT     XDATA          ?XD?TFT180_SHOW_UINT8?ZF_DEVICE_TFT180
011C51H   011C59H   000009H   BYTE   UNIT     XDATA          ?XD?SEEKFREE_ASSISTANT_SUM?SEEKFREE_ASSISTANT
011C5AH   011C61H   000008H   BYTE   UNIT     XDATA          ?XD?DEBUG_SEND_BUFFER?ZF_COMMON_DEBUG
011C62H   011C69H   000008H   BYTE   UNIT     XDATA          ?XD?DEBUG_READ_BUFFER?ZF_COMMON_DEBUG
011C6AH   011C71H   000008H   BYTE   UNIT     XDATA          ?XD?FIFO_HEAD_OFFSET?ZF_COMMON_FIFO
011C72H   011C79H   000008H   BYTE   UNIT     XDATA          ?XD?FIFO_END_OFFSET?ZF_COMMON_FIFO
011C7AH   011C81H   000008H   BYTE   UNIT     XDATA          ?XD?FUNC_GET_GREATEST_COMMON_DIVISOR?ZF_COMMON_FUNCTION
011C82H   011C89H   000008H   BYTE   UNIT     XDATA          ?XD?FUNC_STR_TO_UINT?ZF_COMMON_FUNCTION
011C8AH   011C91H   000008H   BYTE   UNIT     XDATA          ?XD?SOFT_IIC_DELAY?ZF_DRIVER_SOFT_IIC
011C92H   011C99H   000008H   BYTE   UNIT     XDATA          ?XD?SOFT_IIC_WRITE_16BIT_REGISTER?ZF_DRIVER_SOFT_IIC
L251 LINKER/LOCATER V4.66.93.0                                                        04/22/2026  19:49:03  PAGE 8


011C9AH   011CA1H   000008H   BYTE   UNIT     XDATA          ?XD?SOFT_IIC_READ_16BIT_REGISTER?ZF_DRIVER_SOFT_IIC
011CA2H   011CA9H   000008H   BYTE   UNIT     XDATA          ?XD?SOFT_SPI_DELAY?ZF_DRIVER_SOFT_SPI
011CAAH   011CB1H   000008H   BYTE   UNIT     XDATA          ?XD?SOFT_SPI_8BIT_DATA_HANDLER?ZF_DRIVER_SOFT_SPI
011CB2H   011CB9H   000008H   BYTE   UNIT     XDATA          ?XD?SOFT_SPI_WRITE_16BIT_REGISTER?ZF_DRIVER_SOFT_SPI
011CBAH   011CC1H   000008H   BYTE   UNIT     XDATA          ?XD?SOFT_SPI_READ_16BIT_REGISTER?ZF_DRIVER_SOFT_SPI
011CC2H   011CC9H   000008H   BYTE   UNIT     XDATA          ?XD?UART_WRITE_STRING?ZF_DRIVER_UART
011CCAH   011CD1H   000008H   BYTE   UNIT     XDATA          ?XD?EEPROM_WRITE_VALUE?EEPROM
011CD2H   011CD9H   000008H   BYTE   UNIT     XDATA          ?XD?BLE6A20_SEND_STRING?ZF_DEVICE_BLE6A20
011CDAH   011CE1H   000008H   BYTE   INSEG    XDATA          ?XD?ZF_DEVICE_IPS114
011CE2H   011CE9H   000008H   BYTE   UNIT     XDATA          ?XD?IPS114_SET_REGION?ZF_DEVICE_IPS114
011CEAH   011CF1H   000008H   BYTE   UNIT     XDATA          ?XD?IPS114_SHOW_CHAR?ZF_DEVICE_IPS114
011CF2H   011CF9H   000008H   BYTE   UNIT     XDATA          ?XD?IPS200_SET_REGION?ZF_DEVICE_IPS200
011CFAH   011D01H   000008H   BYTE   UNIT     XDATA          ?XD?IPS200_SHOW_CHAR?ZF_DEVICE_IPS200
011D02H   011D09H   000008H   BYTE   UNIT     XDATA          ?XD?IPS200PRO_READ_PARAMETER?ZF_DEVICE_IPS200PRO
011D0AH   011D11H   000008H   BYTE   INSEG    XDATA          ?XD?ZF_DEVICE_TFT180
011D12H   011D19H   000008H   BYTE   UNIT     XDATA          ?XD?TFT180_SET_REGION?ZF_DEVICE_TFT180
011D1AH   011D21H   000008H   BYTE   UNIT     XDATA          ?XD?TFT180_SHOW_CHAR?ZF_DEVICE_TFT180
011D22H   011D29H   000008H   BYTE   INSEG    XDATA          ?XD?ZF_DEVICE_TYPE
011D2AH   011D31H   000008H   BYTE   UNIT     XDATA          ?XD?SET_WIRELESS_TYPE?ZF_DEVICE_TYPE
011D32H   011D39H   000008H   BYTE   UNIT     XDATA          ?XD?SET_GPS_TYPE?ZF_DEVICE_TYPE
011D3AH   011D41H   000008H   BYTE   UNIT     XDATA          ?XD?WIRELESS_UART_SEND_STRING?ZF_DEVICE_WIRELESS_UART
011D42H   011D49H   000008H   BYTE   UNIT     XDATA          ?XD?KALMANFILTER?IMU
011D4AH   011D51H   000008H   BYTE   UNIT     XDATA          ?XD?ADC_NORMALIZE_0_100?INDUCTANCE
011D52H   011D58H   000007H   BYTE   UNIT     XDATA          ?XD?GPIO_INIT?ZF_DRIVER_GPIO
011D59H   011D5FH   000007H   BYTE   UNIT     XDATA          ?XD?SOFT_IIC_READ_DATA?ZF_DRIVER_SOFT_IIC
011D60H   011D66H   000007H   BYTE   UNIT     XDATA          ?XD?UART_QUERY_BYTE?ZF_DRIVER_UART
011D67H   011D6DH   000007H   BYTE   UNIT     XDATA          ?XD?DL1A_TIMEOUT_MCLKS_TO_MICROSECONDS?ZF_DEVICE_DL1A
011D6EH   011D74H   000007H   BYTE   UNIT     XDATA          ?XD?IMU963RA_GET_MAG?ZF_DEVICE_IMU963RA
011D75H   011D7BH   000007H   BYTE   UNIT     XDATA          ?XD?SEEKFREE_ASSISTANT_CAMERA_DOT_SEND?SEEKFREE_ASSISTANT
011D7CH   011D81H   000006H   BYTE   UNIT     XDATA          ?XD?FIFO_CLEAR?ZF_COMMON_FIFO
011D82H   011D87H   000006H   BYTE   INSEG    XDATA          ?XD?ZF_DRIVER_ENCODER
011D88H   011D8DH   000006H   BYTE   UNIT     XDATA          ?XD?ENCODER_DIR_INIT?ZF_DRIVER_ENCODER
011D8EH   011D93H   000006H   BYTE   UNIT     XDATA          ?XD?GPIO_SET_LEVEL_SPEED?ZF_DRIVER_GPIO
011D94H   011D99H   000006H   BYTE   UNIT     XDATA          ?XD?SOFT_IIC_SEND_DATA?ZF_DRIVER_SOFT_IIC
011D9AH   011D9FH   000006H   BYTE   UNIT     XDATA          ?XD?SOFT_IIC_WRITE_16BIT?ZF_DRIVER_SOFT_IIC
011DA0H   011DA5H   000006H   BYTE   UNIT     XDATA          ?XD?SOFT_IIC_WRITE_8BIT_REGISTER?ZF_DRIVER_SOFT_IIC
011DA6H   011DABH   000006H   BYTE   UNIT     XDATA          ?XD?SOFT_IIC_READ_16BIT?ZF_DRIVER_SOFT_IIC
011DACH   011DB1H   000006H   BYTE   UNIT     XDATA          ?XD?SOFT_IIC_READ_8BIT_REGISTER?ZF_DRIVER_SOFT_IIC
011DB2H   011DB7H   000006H   BYTE   UNIT     XDATA          ?XD?SOFT_IIC_SCCB_WRITE_REGISTER?ZF_DRIVER_SOFT_IIC
011DB8H   011DBDH   000006H   BYTE   UNIT     XDATA          ?XD?SOFT_IIC_SCCB_READ_REGISTER?ZF_DRIVER_SOFT_IIC
011DBEH   011DC3H   000006H   BYTE   UNIT     XDATA          ?XD?SOFT_SPI_WRITE_16BIT?ZF_DRIVER_SOFT_SPI
011DC4H   011DC9H   000006H   BYTE   UNIT     XDATA          ?XD?SOFT_SPI_WRITE_8BIT_REGISTER?ZF_DRIVER_SOFT_SPI
011DCAH   011DCFH   000006H   BYTE   UNIT     XDATA          ?XD?SOFT_SPI_READ_8BIT_REGISTER?ZF_DRIVER_SOFT_SPI
011DD0H   011DD5H   000006H   BYTE   UNIT     XDATA          ?XD?SPI_WRITE_16BIT_REGISTER?ZF_DRIVER_SPI
011DD6H   011DDBH   000006H   BYTE   UNIT     XDATA          ?XD?SPI_READ_16BIT_REGISTER?ZF_DRIVER_SPI
011DDCH   011DE1H   000006H   BYTE   UNIT     XDATA          ?XD?ICM20602_GET_ACC?ZF_DEVICE_ICM20602
011DE2H   011DE7H   000006H   BYTE   UNIT     XDATA          ?XD?ICM20602_GET_GYRO?ZF_DEVICE_ICM20602
011DE8H   011DEDH   000006H   BYTE   UNIT     XDATA          ?XD?IMU660RA_GET_ACC?ZF_DEVICE_IMU660RA
011DEEH   011DF3H   000006H   BYTE   UNIT     XDATA          ?XD?IMU660RA_GET_GYRO?ZF_DEVICE_IMU660RA
011DF4H   011DF9H   000006H   BYTE   UNIT     XDATA          ?XD?IMU660RB_GET_ACC?ZF_DEVICE_IMU660RB
011DFAH   011DFFH   000006H   BYTE   UNIT     XDATA          ?XD?IMU660RB_GET_GYRO?ZF_DEVICE_IMU660RB
011E00H   011E05H   000006H   BYTE   UNIT     XDATA          ?XD?IMU660RB_ACC_TRANSITION?ZF_DEVICE_IMU660RB
011E06H   011E0BH   000006H   BYTE   UNIT     XDATA          ?XD?IMU660RB_GYRO_TRANSITION?ZF_DEVICE_IMU660RB
011E0CH   011E11H   000006H   BYTE   UNIT     XDATA          ?XD?IMU963RA_WRITE_MAG_REGISTER?ZF_DEVICE_IMU963RA
011E12H   011E17H   000006H   BYTE   UNIT     XDATA          ?XD?IMU963RA_GET_ACC?ZF_DEVICE_IMU963RA
011E18H   011E1DH   000006H   BYTE   UNIT     XDATA          ?XD?IMU963RA_GET_GYRO?ZF_DEVICE_IMU963RA
011E1EH   011E23H   000006H   BYTE   UNIT     XDATA          ?XD?IPS114_CLEAR?ZF_DEVICE_IPS114
011E24H   011E29H   000006H   BYTE   UNIT     XDATA          ?XD?IPS114_DRAW_POINT?ZF_DEVICE_IPS114
011E2AH   011E2FH   000006H   BYTE   UNIT     XDATA          ?XD?IPS200_CLEAR?ZF_DEVICE_IPS200
011E30H   011E35H   000006H   BYTE   UNIT     XDATA          ?XD?IPS200_DRAW_POINT?ZF_DEVICE_IPS200
011E36H   011E3BH   000006H   BYTE   UNIT     XDATA          ?XD?TFT180_CLEAR?ZF_DEVICE_TFT180
011E3CH   011E41H   000006H   BYTE   UNIT     XDATA          ?XD?TFT180_DRAW_POINT?ZF_DEVICE_TFT180
011E42H   011E47H   000006H   BYTE   UNIT     XDATA          ?XD?SET_TOF_TYPE?ZF_DEVICE_TYPE
011E48H   011E4DH   000006H   BYTE   UNIT     XDATA          ?XD?MOTOR_PROTECT?MOTO
011E4EH   011E53H   000006H   BYTE   UNIT     XDATA          ?XD?INCPID_CALC?TRANK
L251 LINKER/LOCATER V4.66.93.0                                                        04/22/2026  19:49:03  PAGE 9


011E54H   011E59H   000006H   BYTE   UNIT     XDATA          ?XD?RANGE_PROTECT_INT?INDUCTANCE
011E5AH   011E5EH   000005H   BYTE   UNIT     XDATA          ?XD?IAP_READ_BYTE?ZF_DRIVER_EEPROM
011E5FH   011E63H   000005H   BYTE   UNIT     XDATA          ?XD?IAP_WRITE_BYTE?ZF_DRIVER_EEPROM
011E64H   011E68H   000005H   BYTE   UNIT     XDATA          ?XD?GPIO_GET_LEVEL?ZF_DRIVER_GPIO
011E69H   011E6DH   000005H   BYTE   UNIT     XDATA          ?XD?GPIO_SET_LEVEL?ZF_DRIVER_GPIO
011E6EH   011E72H   000005H   BYTE   UNIT     XDATA          ?XD?SOFT_IIC_SEND_ACK?ZF_DRIVER_SOFT_IIC
011E73H   011E77H   000005H   BYTE   UNIT     XDATA          ?XD?SOFT_IIC_WAIT_ACK?ZF_DRIVER_SOFT_IIC
011E78H   011E7CH   000005H   BYTE   UNIT     XDATA          ?XD?SOFT_IIC_WRITE_8BIT?ZF_DRIVER_SOFT_IIC
011E7DH   011E81H   000005H   BYTE   UNIT     XDATA          ?XD?SOFT_IIC_READ_8BIT?ZF_DRIVER_SOFT_IIC
011E82H   011E86H   000005H   BYTE   UNIT     XDATA          ?XD?SOFT_SPI_WRITE_8BIT?ZF_DRIVER_SOFT_SPI
011E87H   011E8BH   000005H   BYTE   UNIT     XDATA          ?XD?SOFT_SPI_READ_8BIT?ZF_DRIVER_SOFT_SPI
011E8CH   011E90H   000005H   BYTE   UNIT     XDATA          ?XD?SOFT_SPI_READ_16BIT?ZF_DRIVER_SOFT_SPI
011E91H   011E95H   000005H   BYTE   UNIT     XDATA          ?XD?TIMER_FUNCITON_CHECK?ZF_DRIVER_TIMER
011E96H   011E9AH   000005H   BYTE   UNIT     XDATA          ?XD?UART_FUNCITON_CHECK?ZF_DRIVER_UART
011E9BH   011E9FH   000005H   BYTE   UNIT     XDATA          ?XD?DL1A_GET_SEQUENCE_STEP_ENABLES?ZF_DEVICE_DL1A
011EA0H   011EA4H   000005H   BYTE   UNIT     XDATA          ?XD?DL1A_PERFORM_SINGLE_REF_CALIBRATION?ZF_DEVICE_DL1A
011EA5H   011EA9H   000005H   BYTE   UNIT     XDATA          ?XD?DL1B_GET_DISTANCE?ZF_DEVICE_DL1B
011EAAH   011EAEH   000005H   BYTE   UNIT     XDATA          ?XD?UTC_TO_BTC?ZF_DEVICE_GPS_TAU1201
011EAFH   011EB3H   000005H   BYTE   UNIT     XDATA          ?XD?ICM20602_SIMSPI_R_REG_BYTE?ZF_DEVICE_ICM20602
011EB4H   011EB8H   000005H   BYTE   UNIT     XDATA          ?XD?IMU660RB_SIMSPI_R_REG_BYTE?ZF_DEVICE_IMU660RB
011EB9H   011EBDH   000005H   BYTE   UNIT     XDATA          ?XD?IPS200PRO_PAGE_CREATE?ZF_DEVICE_IPS200PRO
011EBEH   011EC1H   000004H   BYTE   INSEG    XDATA          ?XD?ZF_COMMON_CLOCK
011EC2H   011EC5H   000004H   BYTE   UNIT     XDATA          ?XD?SET_SYS_CLK?ZF_COMMON_CLOCK
011EC6H   011EC9H   000004H   BYTE   UNIT     XDATA          ?XD?CLOCK_INIT?ZF_COMMON_CLOCK
011ECAH   011ECDH   000004H   BYTE   UNIT     XDATA          ?XD?FIFO_USED?ZF_COMMON_FIFO
011ECEH   011ED1H   000004H   BYTE   UNIT     XDATA          ?XD?FUNC_SOFT_DELAY?ZF_COMMON_FUNCTION
011ED2H   011ED5H   000004H   BYTE   UNIT     XDATA          ?XD?ADC_CONVERT?ZF_DRIVER_ADC
011ED6H   011ED9H   000004H   BYTE   UNIT     XDATA          ?XD?ADC_INIT?ZF_DRIVER_ADC
011EDAH   011EDDH   000004H   BYTE   INSEG    XDATA          ?XD?ZF_DRIVER_DELAY
011EDEH   011EE1H   000004H   BYTE   UNIT     XDATA          ?XD?IAP_ERASE_PAGE?ZF_DRIVER_EEPROM
011EE2H   011EE5H   000004H   BYTE   UNIT     XDATA          ?XD?ENCODER_GET_COUNT?ZF_DRIVER_ENCODER
011EE6H   011EE9H   000004H   BYTE   UNIT     XDATA          ?XD?EXTI_INIT?ZF_DRIVER_EXTI
011EEAH   011EEDH   000004H   BYTE   UNIT     XDATA          ?XD?GPIO_SET_MODE?ZF_DRIVER_GPIO
011EEEH   011EF1H   000004H   BYTE   UNIT     XDATA          ?XD?GPIO_SET_DIR?ZF_DRIVER_GPIO
011EF2H   011EF5H   000004H   BYTE   UNIT     XDATA          ?XD?GPIO_SET_IMPEDANCE?ZF_DRIVER_GPIO
011EF6H   011EF9H   000004H   BYTE   UNIT     XDATA          ?XD?SOFT_IIC_START?ZF_DRIVER_SOFT_IIC
011EFAH   011EFDH   000004H   BYTE   UNIT     XDATA          ?XD?SOFT_IIC_STOP?ZF_DRIVER_SOFT_IIC
011EFEH   011F01H   000004H   BYTE   UNIT     XDATA          ?XD?SPI_READ_DAT?ZF_DRIVER_SPI
011F02H   011F05H   000004H   BYTE   UNIT     XDATA          ?XD?SPI_WRITE_16BIT?ZF_DRIVER_SPI
011F06H   011F09H   000004H   BYTE   UNIT     XDATA          ?XD?SPI_WRITE_8BIT_REGISTER?ZF_DRIVER_SPI
011F0AH   011F0DH   000004H   BYTE   UNIT     XDATA          ?XD?SPI_READ_16BIT?ZF_DRIVER_SPI
011F0EH   011F11H   000004H   BYTE   UNIT     XDATA          ?XD?VOLTAGE_WARNING_INIT?VOLTAGE_WARNING
011F12H   011F15H   000004H   BYTE   UNIT     XDATA          ?XD?ICM20602_SELF_CHECK?ZF_DEVICE_ICM20602
011F16H   011F19H   000004H   BYTE   UNIT     XDATA          ?XD?ICM20602_INIT?ZF_DEVICE_ICM20602
011F1AH   011F1DH   000004H   BYTE   UNIT     XDATA          ?XD?IMU660RA_SELF_CHECK?ZF_DEVICE_IMU660RA
011F1EH   011F21H   000004H   BYTE   UNIT     XDATA          ?XD?IMU660RB_SELF_CHECK?ZF_DEVICE_IMU660RB
011F22H   011F25H   000004H   BYTE   UNIT     XDATA          ?XD?IMU963RA_READ_MAG_REGISTER?ZF_DEVICE_IMU963RA
011F26H   011F29H   000004H   BYTE   UNIT     XDATA          ?XD?IMU963RA_ACC_GYRO_SELF_CHECK?ZF_DEVICE_IMU963RA
011F2AH   011F2DH   000004H   BYTE   UNIT     XDATA          ?XD?IMU963RA_MAG_SELF_CHECK?ZF_DEVICE_IMU963RA
011F2EH   011F31H   000004H   BYTE   UNIT     XDATA          ?XD?IPS114_SET_COLOR?ZF_DEVICE_IPS114
011F32H   011F35H   000004H   BYTE   UNIT     XDATA          ?XD?IPS200_SET_COLOR?ZF_DEVICE_IPS200
011F36H   011F39H   000004H   BYTE   UNIT     XDATA          ?XD?IPS200PRO_WAIT_IDLE?ZF_DEVICE_IPS200PRO
011F3AH   011F3DH   000004H   BYTE   UNIT     XDATA          ?XD?IPS200PRO_PAGE_HIDDEN?ZF_DEVICE_IPS200PRO
011F3EH   011F41H   000004H   BYTE   UNIT     XDATA          ?XD?TFT180_SET_COLOR?ZF_DEVICE_TFT180
011F42H   011F45H   000004H   BYTE   UNIT     XDATA          ?XD?TSL1401_SEND_DATA?ZF_DEVICE_TSL1401
011F46H   011F49H   000004H   BYTE   UNIT     XDATA          ?XD?FIRST_COMPLEMENT_INIT?IMU
011F4AH   011F4DH   000004H   BYTE   UNIT     XDATA          ?XD?MY_ABS?IMU
011F4EH   011F51H   000004H   BYTE   INSEG    XDATA          ?XD?SEEKFREE_ASSISTANT_INTERFACE
011F52H   011F55H   000004H   BYTE   UNIT     XDATA          ?XD?MOTOR_SETSPEED?MOTO
011F56H   011F59H   000004H   BYTE   UNIT     XDATA          ?XD?CALCULATE_DIFFERENTIAL_DRIVE?TRANK
011F5AH   011F5DH   000004H   BYTE   UNIT     XDATA          ?XD?MENU_DISPLAY?MENU
011F5EH   011F60H   000003H   BYTE   UNIT     XDATA          ?XD?INTERRUPT_SET_PRIORITY?ZF_COMMON_INTERRUPT
011F61H   011F63H   000003H   BYTE   UNIT     XDATA          ?XD?SPI_WRITE_DAT?ZF_DRIVER_SPI
011F64H   011F66H   000003H   BYTE   UNIT     XDATA          ?XD?SPI_WRITE_8BIT?ZF_DRIVER_SPI
011F67H   011F69H   000003H   BYTE   UNIT     XDATA          ?XD?SPI_READ_8BIT_REGISTER?ZF_DRIVER_SPI
L251 LINKER/LOCATER V4.66.93.0                                                        04/22/2026  19:49:03  PAGE 10


011F6AH   011F6CH   000003H   BYTE   UNIT     XDATA          ?XD?UART_WRITE_BYTE?ZF_DRIVER_UART
011F6DH   011F6FH   000003H   BYTE   UNIT     XDATA          ?XD?UART_RX_INTERRUPT?ZF_DRIVER_UART
011F70H   011F72H   000003H   BYTE   UNIT     XDATA          ?XD?UART_READ_BYTE?ZF_DRIVER_UART
011F73H   011F75H   000003H   BYTE   UNIT     XDATA          ?XD?BLE6A20_SEND_BYTE?ZF_DEVICE_BLE6A20
011F76H   011F78H   000003H   BYTE   UNIT     XDATA          ?XD?DL1A_GET_VCSEL_PULSE_PERIOD?ZF_DEVICE_DL1A
011F79H   011F7BH   000003H   BYTE   UNIT     XDATA          ?XD?DL1A_GET_DISTANCE?ZF_DEVICE_DL1A
011F7CH   011F7EH   000003H   BYTE   UNIT     XDATA          ?XD?IMU660RA_READ_REGISTER?ZF_DEVICE_IMU660RA
011F7FH   011F81H   000003H   BYTE   UNIT     XDATA          ?XD?WIRELESS_UART_SEND_BYTE?ZF_DEVICE_WIRELESS_UART
011F82H   011F83H   000002H   BYTE   UNIT     XDATA          ?XD?DELAY_CYCLES?ZF_DRIVER_DELAY
011F84H   011F85H   000002H   BYTE   UNIT     XDATA          ?XD?SYSTEM_DELAY_MS?ZF_DRIVER_DELAY
011F86H   011F87H   000002H   BYTE   UNIT     XDATA          ?XD?SYSTEM_DELAY_US?ZF_DRIVER_DELAY
011F88H   011F89H   000002H   BYTE   UNIT     XDATA          ?XD?ENCODER_CLEAR_COUNT?ZF_DRIVER_ENCODER
011F8AH   011F8BH   000002H   BYTE   UNIT     XDATA          ?XD?EXTI_ENABLE?ZF_DRIVER_EXTI
011F8CH   011F8DH   000002H   BYTE   UNIT     XDATA          ?XD?EXTI_DISABLE?ZF_DRIVER_EXTI
011F8EH   011F8FH   000002H   BYTE   UNIT     XDATA          ?XD?GPIO_TOGGLE_LEVEL?ZF_DRIVER_GPIO
011F90H   011F91H   000002H   BYTE   UNIT     XDATA          ?XD?SPI_READ_8BIT?ZF_DRIVER_SPI
011F92H   011F93H   000002H   BYTE   UNIT     XDATA          ?XD?UART_RX_START_BUFF?ZF_DRIVER_UART
011F94H   011F95H   000002H   BYTE   UNIT     XDATA          ?XD?UART_DMA_INIT?ZF_DRIVER_UART
011F96H   011F97H   000002H   BYTE   INSEG    XDATA          ?XD?EEPROM
011F98H   011F99H   000002H   BYTE   UNIT     XDATA          ?XD?DL1A_DECODE_TIMEOUT?ZF_DEVICE_DL1A
011F9AH   011F9BH   000002H   BYTE   UNIT     XDATA          ?XD?DL1A_ENCODE_TIMEOUT?ZF_DEVICE_DL1A
011F9CH   011F9DH   000002H   BYTE   UNIT     XDATA          ?XD?ICM20602_SIMSPI_WR_BYTE?ZF_DEVICE_ICM20602
011F9EH   011F9FH   000002H   BYTE   UNIT     XDATA          ?XD?ICM20602_SIMSPI_W_REG_BYTE?ZF_DEVICE_ICM20602
011FA0H   011FA1H   000002H   BYTE   UNIT     XDATA          ?XD?ICM20602_WRITE_REGISTER?ZF_DEVICE_ICM20602
011FA2H   011FA3H   000002H   BYTE   UNIT     XDATA          ?XD?ICM20602_READ_REGISTER?ZF_DEVICE_ICM20602
011FA4H   011FA5H   000002H   BYTE   UNIT     XDATA          ?XD?IMU660RA_SIMSPI_WR_BYTE?ZF_DEVICE_IMU660RA
011FA6H   011FA7H   000002H   BYTE   UNIT     XDATA          ?XD?IMU660RA_SIMSPI_W_REG_BYTE?ZF_DEVICE_IMU660RA
011FA8H   011FA9H   000002H   BYTE   UNIT     XDATA          ?XD?IMU660RA_WRITE_REGISTER?ZF_DEVICE_IMU660RA
011FAAH   011FABH   000002H   BYTE   UNIT     XDATA          ?XD?IMU660RB_SIMSPI_WR_BYTE?ZF_DEVICE_IMU660RB
011FACH   011FADH   000002H   BYTE   UNIT     XDATA          ?XD?IMU660RB_SIMSPI_W_REG_BYTE?ZF_DEVICE_IMU660RB
011FAEH   011FAFH   000002H   BYTE   UNIT     XDATA          ?XD?IMU660RB_WRITE_REGISTER?ZF_DEVICE_IMU660RB
011FB0H   011FB1H   000002H   BYTE   UNIT     XDATA          ?XD?IMU660RB_READ_REGISTER?ZF_DEVICE_IMU660RB
011FB2H   011FB3H   000002H   BYTE   UNIT     XDATA          ?XD?IMU963RA_WRITE_ACC_GYRO_REGISTER?ZF_DEVICE_IMU963RA
011FB4H   011FB5H   000002H   BYTE   UNIT     XDATA          ?XD?IMU963RA_READ_ACC_GYRO_REGISTER?ZF_DEVICE_IMU963RA
011FB6H   011FB7H   000002H   BYTE   UNIT     XDATA          ?XD?IMU963RA_CONNECT_MAG?ZF_DEVICE_IMU963RA
011FB8H   011FB9H   000002H   BYTE   UNIT     XDATA          ?XD?IPS114_SET_DIR?ZF_DEVICE_IPS114
011FBAH   011FBBH   000002H   BYTE   UNIT     XDATA          ?XD?IPS200_SET_DIR?ZF_DEVICE_IPS200
011FBCH   011FBDH   000002H   BYTE   UNIT     XDATA          ?XD?TFT180_SET_DIR?ZF_DEVICE_TFT180
011FBEH   011FBFH   000002H   BYTE   UNIT     XDATA          ?XD?IMU_GYRO_OFFSET_INIT?IMU
011FC0H   011FC1H   000002H   BYTE   UNIT     XDATA          ?XD?SEEKFREE_ASSISTANT_INTERFACE_INIT?SEEKFREE_ASSISTANT_I
                                                             -NTERFACE
011FC2H   011FC3H   000002H   BYTE   UNIT     XDATA          ?XD?ABS?MOTO
011FC4H   011FC5H   000002H   BYTE   UNIT     XDATA          ?XD?LED_ON?LED
011FC6H   011FC7H   000002H   BYTE   UNIT     XDATA          ?XD?LED_OFF?LED
011FC8H   011FC9H   000002H   BYTE   UNIT     XDATA          ?XD?LED_SWITCH?LED
011FCAH   011FCAH   000001H   BYTE   UNIT     XDATA          ?XD?DEBUG_INTERRUPR_HANDLER?ZF_COMMON_DEBUG
011FCBH   011FCBH   000001H   BYTE   UNIT     XDATA          ?XD?PUTCHAR?ZF_COMMON_DEBUG
011FCCH   011FCCH   000001H   BYTE   UNIT     XDATA          ?XD?DEBUG_INIT?ZF_COMMON_DEBUG
011FCDH   011FCDH   000001H   BYTE   UNIT     XDATA          ?XD?IAP_SET_TPS?ZF_DRIVER_EEPROM
011FCEH   011FCEH   000001H   BYTE   UNIT     XDATA          ?XD?BLE6A20_CALLBACK?ZF_DEVICE_BLE6A20
011FCFH   011FCFH   000001H   BYTE   UNIT     XDATA          ?XD?BLE6A20_INIT?ZF_DEVICE_BLE6A20
011FD0H   011FD0H   000001H   BYTE   UNIT     XDATA          ?XD?DL1B_INIT?ZF_DEVICE_DL1B
011FD1H   011FD1H   000001H   BYTE   UNIT     XDATA          ?XD?IMU660RA_INIT?ZF_DEVICE_IMU660RA
011FD2H   011FD2H   000001H   BYTE   UNIT     XDATA          ?XD?IMU660RB_INIT?ZF_DEVICE_IMU660RB
011FD3H   011FD3H   000001H   BYTE   UNIT     XDATA          ?XD?IMU963RA_INIT?ZF_DEVICE_IMU963RA
011FD4H   011FD4H   000001H   BYTE   UNIT     XDATA          ?XD?IPS114_WRITE_INDEX?ZF_DEVICE_IPS114
011FD5H   011FD5H   000001H   BYTE   UNIT     XDATA          ?XD?IPS200_WRITE_INDEX?ZF_DEVICE_IPS200
011FD6H   011FD6H   000001H   BYTE   UNIT     XDATA          ?XD?TFT180_WRITE_INDEX?ZF_DEVICE_TFT180
011FD7H   011FD7H   000001H   BYTE   UNIT     XDATA          ?XD?TSL1401_COLLECT_PIT_HANDLER?ZF_DEVICE_TSL1401
011FD8H   011FD8H   000001H   BYTE   UNIT     XDATA          ?XD?WIRELESS_UART_CALLBACK?ZF_DEVICE_WIRELESS_UART
011FD9H   011FD9H   000001H   BYTE   UNIT     XDATA          ?XD?WIRELESS_UART_INIT?ZF_DEVICE_WIRELESS_UART
011FDAH   011FDAH   000001H   BYTE   INSEG    XDATA          ?XD?ISR
011FDBH   FEFFFFH   FDE025H   ---    ---      **GAP**
FF0000H   FF0002H   000003H   ---    OFFS..   CODE           ?CO?START251?4
FF0003H   FF0005H   000003H   ---    OFFS..   CODE           ?PR?IV?0
L251 LINKER/LOCATER V4.66.93.0                                                        04/22/2026  19:49:03  PAGE 11


FF0006H   FF0009H   000004H   BYTE   INSEG    CODE           ?PR?INTERRUPT_GLOBAL_ENABLE?ZF_COMMON_INTERRUPT
FF000AH   FF000AH   000001H   ---    ---      **GAP**
FF000BH   FF000DH   000003H   ---    OFFS..   CODE           ?PR?IV?1
FF000EH   FF0011H   000004H   BYTE   UNIT     CONST          ?CO?PRINTF
FF0012H   FF0012H   000001H   ---    ---      **GAP**
FF0013H   FF0015H   000003H   ---    OFFS..   CODE           ?PR?IV?2
FF0016H   FF0017H   000002H   BYTE   UNIT     HCONST         ?HC?MAIN
FF0018H   FF001AH   000003H   ---    ---      **GAP**
FF001BH   FF001DH   000003H   ---    OFFS..   CODE           ?PR?IV?3
FF001EH   FF0022H   000005H   ---    ---      **GAP**
FF0023H   FF0025H   000003H   ---    OFFS..   CODE           ?PR?IV?4
FF0026H   FF0042H   00001DH   BYTE   INSEG    CODE           ?PR?IMU660RA_SIMSPI_W_REG_BYTE?ZF_DEVICE_IMU660RA
FF0043H   FF0045H   000003H   ---    OFFS..   CODE           ?PR?IV?8
FF0046H   FF0050H   00000BH   BYTE   INSEG    CODE           ?PR?OSCILLOSCOPE_INIT?MENU
FF0051H   FF0052H   000002H   ---    ---      **GAP**
FF0053H   FF0055H   000003H   ---    OFFS..   CODE           ?PR?IV?10
FF0056H   FF005AH   000005H   ---    ---      **GAP**
FF005BH   FF005DH   000003H   ---    OFFS..   CODE           ?PR?IV?11
FF005EH   FF0062H   000005H   ---    ---      **GAP**
FF0063H   FF0065H   000003H   ---    OFFS..   CODE           ?PR?IV?12
FF0066H   FF007DH   000018H   BYTE   INSEG    CODE           ?PR?SPI_WRITE_8BIT?ZF_DRIVER_SPI
FF007EH   FF0082H   000005H   ---    ---      **GAP**
FF0083H   FF0085H   000003H   ---    OFFS..   CODE           ?PR?IV?16
FF0086H   FF008AH   000005H   ---    ---      **GAP**
FF008BH   FF008DH   000003H   ---    OFFS..   CODE           ?PR?IV?17
FF008EH   FF0092H   000005H   ---    ---      **GAP**
FF0093H   FF0095H   000003H   ---    OFFS..   CODE           ?PR?IV?18
FF0096H   FF009AH   000005H   ---    ---      **GAP**
FF009BH   FF009DH   000003H   ---    OFFS..   CODE           ?PR?IV?19
FF009EH   FF00A2H   000005H   ---    ---      **GAP**
FF00A3H   FF00A5H   000003H   ---    OFFS..   CODE           ?PR?IV?20
FF00A6H   FF0199H   0000F4H   BYTE   INSEG    CODE           ?PR?SOFT_IIC_SEND_DATA?ZF_DRIVER_SOFT_IIC
FF019AH   FF019AH   000001H   ---    ---      **GAP**
FF019BH   FF019DH   000003H   ---    OFFS..   CODE           ?CO?stc32g_isr?1
FF019EH   FF01A7H   00000AH   BYTE   INSEG    CODE           ?PR?GYRO_PROC?IMU
FF01A8H   FF01AAH   000003H   ---    ---      **GAP**
FF01ABH   FF01ADH   000003H   ---    OFFS..   CODE           ?CO?stc32g_isr?2
FF01AEH   FF01B7H   00000AH   BYTE   INSEG    CODE           ?PR?PIT_HANDLER?ENCODER
FF01B8H   FF01BAH   000003H   ---    ---      **GAP**
FF01BBH   FF01BDH   000003H   ---    OFFS..   CODE           ?CO?stc32g_isr?3
FF01BEH   FF01CAH   00000DH   ---    ---      **GAP**
FF01CBH   FF01CDH   000003H   ---    OFFS..   CODE           ?CO?stc32g_isr?4
FF01CEH   FF21CDH   002000H   BYTE   UNIT     CODE           ?CO?ZF_DEVICE_CONFIG
FF21CEH   FF3070H   000EA3H   BYTE   UNIT     CODE           ?C?LIB_CODE
FF3071H   FF36B3H   000643H   BYTE   INSEG    CODE           ?PR?PWM_INIT?ZF_DRIVER_PWM
FF36B4H   FF3CA3H   0005F0H   BYTE   UNIT     CODE           ?CO?ZF_COMMON_FONT
FF3CA4H   FF4254H   0005B1H   BYTE   INSEG    CODE           ?PR?FIFO_READ_BUFFER?ZF_COMMON_FIFO
FF4255H   FF47FCH   0005A8H   BYTE   INSEG    CODE           ?PR?FIFO_WRITE_BUFFER?ZF_COMMON_FIFO
FF47FDH   FF4D80H   000584H   BYTE   INSEG    CODE           ?PR?GPIO_SET_DIR?ZF_DRIVER_GPIO
FF4D81H   FF5259H   0004D9H   BYTE   INSEG    CODE           ?PR?SPI_INIT?ZF_DRIVER_SPI
FF525AH   FF5631H   0003D8H   BYTE   INSEG    CODE           ?PR?FIRST_COMPLEMENT_INIT?IMU
FF5632H   FF5944H   000313H   BYTE   INSEG    CODE           ?PR?GPIO_SET_LEVEL_SPEED?ZF_DRIVER_GPIO
FF5945H   FF5C35H   0002F1H   BYTE   INSEG    CODE           ?PR?UART_INIT?ZF_DRIVER_UART
FF5C36H   FF5F1DH   0002E8H   BYTE   INSEG    CODE           ?PR?GPIO_SET_MODE?ZF_DRIVER_GPIO
FF5F1EH   FF61DFH   0002C2H   BYTE   INSEG    CODE           ?PR?IPS114_INIT?ZF_DEVICE_IPS114
FF61E0H   FF6462H   000283H   BYTE   INSEG    CODE           ?PR?PIT_INIT?ZF_DRIVER_PIT
FF6463H   FF66A7H   000245H   BYTE   INSEG    CODE           ?PR?IPS114_SET_REGION?ZF_DEVICE_IPS114
FF66A8H   FF68CFH   000228H   BYTE   INSEG    CODE           ?PR?KALMANFILTER?IMU
FF68D0H   FF6AE4H   000215H   BYTE   INSEG    CODE           ?PR?GPIO_SET_LEVEL?ZF_DRIVER_GPIO
FF6AE5H   FF6CF5H   000211H   BYTE   INSEG    CODE           ?PR?SET_SYS_CLK?ZF_COMMON_CLOCK
FF6CF6H   FF6EE9H   0001F4H   BYTE   INSEG    CODE           ?PR?IMU660RA_INIT?ZF_DEVICE_IMU660RA
FF6EEAH   FF70BFH   0001D6H   BYTE   INSEG    CODE           ?PR?UART_WRITE_BUFFER?ZF_DRIVER_UART
FF70C0H   FF7293H   0001D4H   BYTE   INSEG    CODE           ?PR?PWM_SET_DUTY?ZF_DRIVER_PWM
FF7294H   FF7451H   0001BEH   BYTE   INSEG    CODE           ?PR?_M?MAIN
FF7452H   FF7603H   0001B2H   BYTE   INSEG    CODE           ?PR?GPIO_SET_IMPEDANCE?ZF_DRIVER_GPIO
L251 LINKER/LOCATER V4.66.93.0                                                        04/22/2026  19:49:03  PAGE 12


FF7604H   FF77AEH   0001ABH   BYTE   INSEG    CODE           ?PR?IMU_HANDLE_360?IMU
FF77AFH   FF7951H   0001A3H   BYTE   INSEG    CODE           ?PR?UART_DMA_INIT?ZF_DRIVER_UART
FF7952H   FF7AF4H   0001A3H   BYTE   INSEG    CODE           ?PR?SEEKFREE_ASSISTANT_OSCILLOSCOPE_SEND?SEEKFREE_ASSISTAN
                                                             -T
FF7AF5H   FF7C86H   000192H   BYTE   INSEG    CODE           ?PR?PID_INIT?TRANK
FF7C87H   FF7E0AH   000184H   BYTE   INSEG    CODE           ?PR?IMU_GETVALUES?IMU
FF7E0BH   FF7F50H   000146H   BYTE   INSEG    CODE           ?PR?GPIO_GET_LEVEL?ZF_DRIVER_GPIO
FF7F51H   FF8092H   000142H   BYTE   INSEG    CODE           ?PR?SOFT_IIC_READ_DATA?ZF_DRIVER_SOFT_IIC
FF8093H   FF81B1H   00011FH   BYTE   INSEG    CODE           ?PR?IMU_GYRO_OFFSET_INIT?IMU
FF81B2H   FF82C4H   000113H   BYTE   INSEG    CODE           ?PR?IMU_HANDLE_180?IMU
FF82C5H   FF83D4H   000110H   BYTE   INSEG    CODE           ?PR?WIRELESS_UART_SEND_BUFFER?ZF_DEVICE_WIRELESS_UART
FF83D5H   FF84E3H   00010FH   BYTE   INSEG    CODE           ?PR?GPIO_INIT?ZF_DRIVER_GPIO
FF84E4H   FF85F0H   00010DH   BYTE   INSEG    CODE           ?PR?ENCODER_DIR_INIT?ZF_DRIVER_ENCODER
FF85F1H   FF86DEH   0000EEH   BYTE   INSEG    CODE           ?PR?KALMANCREATE?IMU
FF86DFH   FF87C1H   0000E3H   BYTE   INSEG    CODE           ?PR?FIFO_INIT?ZF_COMMON_FIFO
FF87C2H   FF88A4H   0000E3H   BYTE   INSEG    CODE           ?PR?SOFT_IIC_WAIT_ACK?ZF_DRIVER_SOFT_IIC
FF88A5H   FF897FH   0000DBH   BYTE   INSEG    CODE           ?PR?SOFT_IIC_SEND_ACK?ZF_DRIVER_SOFT_IIC
FF8980H   FF8A54H   0000D5H   BYTE   INSEG    CODE           ?PR?OSCILLOSCOPE_DISPLAY?MENU
FF8A55H   FF8B1DH   0000C9H   BYTE   INSEG    CODE           ?PR?IMU_YAW_INTEGRAL?IMU
FF8B1EH   FF8BE2H   0000C5H   BYTE   INSEG    CODE           ?PR?ADC_INIT?ZF_DRIVER_ADC
FF8BE3H   FF8CA4H   0000C2H   BYTE   INSEG    CODE           ?PR?UART_RX_START_BUFF?ZF_DRIVER_UART
FF8CA5H   FF8D63H   0000BFH   BYTE   INSEG    CODE           ?PR?SOFT_IIC_STOP?ZF_DRIVER_SOFT_IIC
FF8D64H   FF8E14H   0000B1H   BYTE   INSEG    CODE           ?PR?IMU660RA_READ_REGISTERS?ZF_DEVICE_IMU660RA
FF8E15H   FF8EC4H   0000B0H   BYTE   INSEG    CODE           ?PR?DMA_UART1_IRQHANDLER?ISR
FF8EC5H   FF8F6BH   0000A7H   BYTE   INSEG    CODE           ?PR?DEBUG_INIT?ZF_COMMON_DEBUG
FF8F6CH   FF9012H   0000A7H   BYTE   INSEG    CODE           ?PR?SOFT_IIC_START?ZF_DRIVER_SOFT_IIC
FF9013H   FF90B2H   0000A0H   BYTE   INSEG    CODE           ?PR?FIFO_HEAD_OFFSET?ZF_COMMON_FIFO
FF90B3H   FF9152H   0000A0H   BYTE   INSEG    CODE           ?PR?FIFO_END_OFFSET?ZF_COMMON_FIFO
FF9153H   FF91F1H   00009FH   BYTE   INSEG    CODE           ?PR?UART_QUERY_BYTE?ZF_DRIVER_UART
FF91F2H   FF9290H   00009FH   BYTE   INSEG    CODE           ?PR?SET_WIRELESS_TYPE?ZF_DEVICE_TYPE
FF9291H   FF931FH   00008FH   BYTE   INSEG    CODE           ?PR?DMA_UART2_IRQHANDLER?ISR
FF9320H   FF93AEH   00008FH   BYTE   INSEG    CODE           ?PR?DMA_UART3_IRQHANDLER?ISR
FF93AFH   FF943DH   00008FH   BYTE   INSEG    CODE           ?PR?DMA_UART4_IRQHANDLER?ISR
FF943EH   FF94C8H   00008BH   BYTE   INSEG    CODE           ?PR?MOTOR_SETSPEED?MOTO
FF94C9H   FF954DH   000085H   BYTE   INSEG    CODE           ?PR?IPS114_CLEAR?ZF_DEVICE_IPS114
FF954EH   FF95D1H   000084H   BYTE   INSEG    CODE           ?PR?WIRELESS_UART_READ_BUFFER?ZF_DEVICE_WIRELESS_UART
FF95D2H   FF9652H   000081H   BYTE   INSEG    CODE           ?PR?CLOCK_INIT?ZF_COMMON_CLOCK
FF9653H   FF96D3H   000081H   BYTE   INSEG    CODE           ?PR?TIMER_FUNCITON_CHECK?ZF_DRIVER_TIMER
FF96D4H   FF9754H   000081H   BYTE   INSEG    CODE           ?PR?UART_FUNCITON_CHECK?ZF_DRIVER_UART
FF9755H   FF97D5H   000081H   BYTE   INSEG    CODE           ?PR?WIRELESS_UART_INIT?ZF_DEVICE_WIRELESS_UART
FF97D6H   FF984EH   000079H   BYTE   INSEG    CODE           ?PR?DEBUG_ASSERT_HANDLER?ZF_COMMON_DEBUG
FF984FH   FF98C6H   000078H   BYTE   INSEG    CODE           ?PR?SPI_READ_DAT?ZF_DRIVER_SPI
FF98C7H   FF9936H   000070H   BYTE   INSEG    CODE           ?PR?IMU660RA_SIMSPI_R_REG_BYTES?ZF_DEVICE_IMU660RA
FF9937H   FF99A1H   00006BH   BYTE   INSEG    CODE           ?PR?ALL_INIT?ALL_INIT
FF99A2H   FF9A07H   000066H   BYTE   INSEG    CODE           ?PR?UART_RX_INTERRUPT?ZF_DRIVER_UART
FF9A08H   FF9A6CH   000065H   BYTE   INSEG    CODE           ?PR?IMU660RA_SELF_CHECK?ZF_DEVICE_IMU660RA
FF9A6DH   FF9AC8H   00005CH   BYTE   INSEG    CODE           ?PR?SPI_WRITE_DAT?ZF_DRIVER_SPI
FF9AC9H   FF9B24H   00005CH   BYTE   INSEG    CODE           ?PR?IMU660RA_SIMSPI_W_REG_BYTES?ZF_DEVICE_IMU660RA
FF9B25H   FF9B7EH   00005AH   BYTE   INSEG    CODE           ?PR?IMU660RA_GET_GYRO?ZF_DEVICE_IMU660RA
FF9B7FH   FF9BD8H   00005AH   BYTE   INSEG    CODE           ?PR?IMU660RA_GET_ACC?ZF_DEVICE_IMU660RA
FF9BD9H   FF9C32H   00005AH   BYTE   INSEG    CODE           ?PR?SEEKFREE_ASSISTANT_SUM?SEEKFREE_ASSISTANT
FF9C33H   FF9C8BH   000059H   BYTE   INSEG    CODE           ?PR?FIFO_USED?ZF_COMMON_FIFO
FF9C8CH   FF9CE3H   000058H   BYTE   INSEG    CODE           ?PR?SYSTEM_DELAY_INIT?ZF_DRIVER_DELAY
FF9CE4H   FF9D04H   000021H   BYTE   UNIT     CODE           ?C_C51STARTUP
FF9D05H   FF9D35H   000031H   BYTE   UNIT     CODE           ?C_C51STARTUP?2
FF9D36H   FF9D38H   000003H   BYTE   UNIT     CODE           ?C_C51STARTUP?3
FF9D39H   FF9D8BH   000053H   BYTE   INSEG    CODE           ?PR?IMU660RA_SIMSPI_WR_BYTE?ZF_DEVICE_IMU660RA
FF9D8CH   FF9DD9H   00004EH   BYTE   INSEG    CODE           ?PR?GYRO_INIT?IMU
FF9DDAH   FF9E19H   000040H   BYTE   INSEG    CODE           ?PR?INT0_IRQHANDLER?ISR
FF9E1AH   FF9E59H   000040H   BYTE   INSEG    CODE           ?PR?INT1_IRQHANDLER?ISR
FF9E5AH   FF9E99H   000040H   BYTE   INSEG    CODE           ?PR?INT2_IRQHANDLER?ISR
FF9E9AH   FF9ED9H   000040H   BYTE   INSEG    CODE           ?PR?INT3_IRQHANDLER?ISR
FF9EDAH   FF9F19H   000040H   BYTE   INSEG    CODE           ?PR?INT4_IRQHANDLER?ISR
FF9F1AH   FF9F59H   000040H   BYTE   INSEG    CODE           ?PR?TM0_IRQHANDLER?ISR
FF9F5AH   FF9F99H   000040H   BYTE   INSEG    CODE           ?PR?TM1_IRQHANDLER?ISR
L251 LINKER/LOCATER V4.66.93.0                                                        04/22/2026  19:49:03  PAGE 13


FF9F9AH   FF9FD9H   000040H   BYTE   INSEG    CODE           ?PR?TM2_IRQHANDLER?ISR
FF9FDAH   FFA019H   000040H   BYTE   INSEG    CODE           ?PR?TM3_IRQHANDLER?ISR
FFA01AH   FFA059H   000040H   BYTE   INSEG    CODE           ?PR?TM4_IRQHANDLER?ISR
FFA05AH   FFA095H   00003CH   BYTE   INSEG    CODE           ?PR?DEBUG_INTERRUPR_HANDLER?ZF_COMMON_DEBUG
FFA096H   FFA0D1H   00003CH   BYTE   INSEG    CODE           ?PR?SOFT_IIC_DELAY?ZF_DRIVER_SOFT_IIC
FFA0D2H   FFA10CH   00003BH   BYTE   INSEG    CODE           ?PR?SPI_WRITE_16BIT?ZF_DRIVER_SPI
FFA10DH   FFA147H   00003BH   BYTE   INSEG    CODE           ?PR?IPS114_SET_DIR?ZF_DEVICE_IPS114
FFA148H   FFA181H   00003AH   BYTE   INSEG    CODE           ?PR?IMU660RA_WRITE_REGISTERS?ZF_DEVICE_IMU660RA
FFA182H   FFA1B9H   000038H   BYTE   INSEG    CODE           ?PR?ENCODER_INIT?ENCODER
FFA1BAH   FFA1F0H   000037H   BYTE   INSEG    CODE           ?PR?IMU_HANDLE_0?IMU
FFA1F1H   FFA225H   000035H   BYTE   INSEG    CODE           ?PR?MY_ABS?IMU
FFA226H   FFA253H   00002EH   BYTE   INSEG    CODE           ?PR?SEEKFREE_ASSISTANT_INIT?SEEKFREE_ASSISTANT
FFA254H   FFA27FH   00002CH   BYTE   INSEG    CODE           ?PR?MAIN?MAIN
FFA280H   FFA2A7H   000028H   BYTE   INSEG    CODE           ?PR?IMU660RA_READ_REGISTER?ZF_DEVICE_IMU660RA
FFA2A8H   FFA2CEH   000027H   BYTE   INSEG    CODE           ?PR?ABS?MOTO
FFA2CFH   FFA2F4H   000026H   BYTE   INSEG    CODE           ?PR?WIRELESS_UART_CALLBACK?ZF_DEVICE_WIRELESS_UART
FFA2F5H   FFA319H   000025H   BYTE   INSEG    CODE           ?PR?SYSTEM_DELAY_MS?ZF_DRIVER_DELAY
FFA31AH   FFA33EH   000025H   BYTE   INSEG    CODE           ?PR?SYSTEM_DELAY_US?ZF_DRIVER_DELAY
FFA33FH   FFA363H   000025H   BYTE   INSEG    CODE           ?PR?IPS114_SET_COLOR?ZF_DEVICE_IPS114
FFA364H   FFA388H   000025H   BYTE   INSEG    CODE           ?PR?INDUCTANCE_INIT?INDUCTANCE
FFA389H   FFA3ADH   000025H   BYTE   INSEG    CODE           ?PR?MEMCPY?_?MEMCPY
FFA3AEH   FFA3D0H   000023H   BYTE   INSEG    CODE           ?PR?LED_INIT?LED
FFA3D1H   FFA3F2H   000022H   BYTE   INSEG    CODE           ?PR?IPS114_WRITE_INDEX?ZF_DEVICE_IPS114
FFA3F3H   FFA412H   000020H   BYTE   INSEG    CODE           ?PR?UART_WRITE_BYTE?ZF_DRIVER_UART
FFA413H   FFA430H   00001EH   BYTE   INSEG    CODE           ?PR?DELAY_CYCLES?ZF_DRIVER_DELAY
FFA431H   FFA44EH   00001EH   BYTE   INSEG    CODE           ?PR?IMU660RA_WRITE_REGISTER?ZF_DEVICE_IMU660RA
FFA44FH   FFA460H   000012H   BYTE   INSEG    CODE           ?PR?PUTCHAR?ZF_COMMON_DEBUG
FFA461H   FFA46EH   00000EH   BYTE   INSEG    CODE           ?PR?PARAMETER_DEBUG_INIT?MENU
FFA46FH   FFA9ABH   00053DH   BYTE   UNIT     HCONST         ?C_INITHDATA
FFA9ACH   FFABABH   000200H   BYTE   UNIT     HCONST         ?HC?ZF_DRIVER_EEPROM
FFABACH   FFACDAH   00012FH   BYTE   UNIT     HCONST         ?HC?ZF_DEVICE_DL1A
FFACDBH   FFADAAH   0000D0H   BYTE   UNIT     HCONST         ?HC?ZF_DEVICE_IMU963RA
FFADABH   FFAE51H   0000A7H   BYTE   UNIT     HCONST         ?HC?ZF_DEVICE_IMU660RA
FFAE52H   FFAEF5H   0000A4H   BYTE   UNIT     HCONST         ?HC?SEEKFREE_ASSISTANT
FFAEF6H   FFAF97H   0000A2H   BYTE   UNIT     HCONST         ?HC?ZF_DEVICE_GPS_TAU1201
FFAF98H   FFB021H   00008AH   BYTE   UNIT     HCONST         ?HC?ZF_DRIVER_PWM
FFB022H   FFB0A9H   000088H   BYTE   UNIT     HCONST         ?HC?ZF_DEVICE_ICM20602
FFB0AAH   FFB124H   00007BH   BYTE   UNIT     HCONST         ?HC?MENU
FFB125H   FFB18FH   00006BH   BYTE   UNIT     HCONST         ?HC?ZF_DRIVER_UART
FFB190H   FFB1E6H   000057H   BYTE   UNIT     HCONST         ?HC?ZF_COMMON_FUNCTION
FFB1E7H   FFB21AH   000034H   BYTE   UNIT     HCONST         ?HC?ZF_DEVICE_WIRELESS_UART
FFB21BH   FFB24DH   000033H   BYTE   UNIT     HCONST         ?HC?ZF_DEVICE_IPS114
FFB24EH   FFB280H   000033H   BYTE   UNIT     HCONST         ?HC?ZF_DEVICE_IPS200
FFB281H   FFB2B3H   000033H   BYTE   UNIT     HCONST         ?HC?ZF_DEVICE_TFT180
FFB2B4H   FFB2E2H   00002FH   BYTE   UNIT     HCONST         ?HC?ZF_DRIVER_SOFT_IIC
FFB2E3H   FFB311H   00002FH   BYTE   UNIT     HCONST         ?HC?ZF_DRIVER_SOFT_SPI
FFB312H   FFB33FH   00002EH   BYTE   UNIT     HCONST         ?HC?ZF_DRIVER_ENCODER
FFB340H   FFB36DH   00002EH   BYTE   UNIT     HCONST         ?HC?ZF_DEVICE_BLE6A20
FFB36EH   FFB398H   00002BH   BYTE   UNIT     HCONST         ?HC?ZF_COMMON_FIFO
FFB399H   FFB3C3H   00002BH   BYTE   UNIT     HCONST         ?HC?ZF_DRIVER_GPIO
FFB3C4H   FFB3EDH   00002AH   BYTE   UNIT     HCONST         ?HC?ZF_DRIVER_ADC
FFB3EEH   FFB417H   00002AH   BYTE   UNIT     HCONST         ?HC?ZF_DRIVER_SPI
FFB418H   FFB43CH   000025H   BYTE   UNIT     HCONST         ?HC?ZF_COMMON_DEBUG
FFB43DH   FFB457H   00001BH   BYTE   UNIT     HCONST         ?HC?ZF_DEVICE_IMU660RB

* * * * * * * * *   R E M O V E D     S E G M E N T S   * * * * * * * *
   *DEL*:           00004EH   BYTE   INSEG    CODE           ?PR?DEBUG_READ_BUFFER?ZF_COMMON_DEBUG
   *DEL*:           000067H   BYTE   INSEG    CODE           ?PR?DEBUG_SEND_BUFFER?ZF_COMMON_DEBUG
   *DEL*:           000186H   BYTE   INSEG    CODE           ?PR?FIFO_CLEAR?ZF_COMMON_FIFO
   *DEL*:           0003B0H   BYTE   INSEG    CODE           ?PR?FUNC_DOUBLE_TO_STR?ZF_COMMON_FUNCTION
   *DEL*:           000275H   BYTE   INSEG    CODE           ?PR?FUNC_STR_TO_DOUBLE?ZF_COMMON_FUNCTION
   *DEL*:           000197H   BYTE   INSEG    CODE           ?PR?NUMBER_CONVERSION_ASCII?ZF_COMMON_FUNCTION
   *DEL*:           0003B0H   BYTE   INSEG    CODE           ?PR?FUNC_FLOAT_TO_STR?ZF_COMMON_FUNCTION
   *DEL*:           000275H   BYTE   INSEG    CODE           ?PR?FUNC_STR_TO_FLOAT?ZF_COMMON_FUNCTION
   *DEL*:           000028H   BYTE   INSEG    CODE           ?PR?FUNC_SOFT_DELAY?ZF_COMMON_FUNCTION
L251 LINKER/LOCATER V4.66.93.0                                                        04/22/2026  19:49:03  PAGE 14


   *DEL*:           00091FH   BYTE   INSEG    CODE           ?PR?ZF_SPRINTF?ZF_COMMON_FUNCTION
   *DEL*:           00011BH   BYTE   INSEG    CODE           ?PR?FUNC_UINT_TO_STR?ZF_COMMON_FUNCTION
   *DEL*:           0000C0H   BYTE   INSEG    CODE           ?PR?FUNC_STR_TO_UINT?ZF_COMMON_FUNCTION
   *DEL*:           000184H   BYTE   INSEG    CODE           ?PR?FUNC_HEX_TO_STR?ZF_COMMON_FUNCTION
   *DEL*:           0001ECH   BYTE   INSEG    CODE           ?PR?FUNC_STR_TO_HEX?ZF_COMMON_FUNCTION
   *DEL*:           0001B5H   BYTE   INSEG    CODE           ?PR?FUNC_INT_TO_STR?ZF_COMMON_FUNCTION
   *DEL*:           000141H   BYTE   INSEG    CODE           ?PR?FUNC_STR_TO_INT?ZF_COMMON_FUNCTION
   *DEL*:           0000A6H   BYTE   INSEG    CODE           ?PR?FUNC_GET_GREATEST_COMMON_DIVISOR?ZF_COMMON_FUNCTION
   *DEL*:           0006E4H   BYTE   INSEG    CODE           ?PR?VSNPRINTF?ZF_COMMON_FUNCTION
   *DEL*:           0000F9H   BYTE   INSEG    CODE           ?PR?PRINTF_REVERSE_ORDER?ZF_COMMON_FUNCTION
   *DEL*:           000004H   BYTE   INSEG    CODE           ?PR?INTERRUPT_GLOBAL_DISABLE?ZF_COMMON_INTERRUPT
   *DEL*:           0000CDH   BYTE   INSEG    CODE           ?PR?INTERRUPT_SET_PRIORITY?ZF_COMMON_INTERRUPT
   *DEL*:           00015EH   BYTE   INSEG    CODE           ?PR?ADC_MEAN_FILTER_CONVERT?ZF_DRIVER_ADC
   *DEL*:           000065H   BYTE   INSEG    CODE           ?PR?ADC_CONVERT?ZF_DRIVER_ADC
   *DEL*:           000001H   BYTE   INSEG    CODE           ?PR?ADC_COLLECT?ZF_DRIVER_ADC
   *DEL*:           00002AH   BYTE   INSEG    CODE           ?PR?IAP_SET_TPS?ZF_DRIVER_EEPROM
   *DEL*:           00000DH   BYTE   INSEG    CODE           ?PR?EEPROM_TRIG?ZF_DRIVER_EEPROM
   *DEL*:           00004FH   BYTE   INSEG    CODE           ?PR?IAP_ERASE_PAGE?ZF_DRIVER_EEPROM
   *DEL*:           000004H   BYTE   INSEG    CODE           ?PR?IAP_IDLE?ZF_DRIVER_EEPROM
   *DEL*:           000075H   BYTE   INSEG    CODE           ?PR?IAP_READ_BUFF?ZF_DRIVER_EEPROM
   *DEL*:           000119H   BYTE   INSEG    CODE           ?PR?EXTERN_IAP_WRITE_BUFF?ZF_DRIVER_EEPROM
   *DEL*:           000072H   BYTE   INSEG    CODE           ?PR?IAP_WRITE_BUFF?ZF_DRIVER_EEPROM
   *DEL*:           000052H   BYTE   INSEG    CODE           ?PR?IAP_READ_BYTE?ZF_DRIVER_EEPROM
   *DEL*:           000008H   BYTE   INSEG    CODE           ?PR?IAP_INIT?ZF_DRIVER_EEPROM
   *DEL*:           000052H   BYTE   INSEG    CODE           ?PR?IAP_WRITE_BYTE?ZF_DRIVER_EEPROM
   *DEL*:           000012H   BYTE   INSEG    CODE           ?PR?IAP_GET_CMD_STATE?ZF_DRIVER_EEPROM
   *DEL*:           000109H   BYTE   INSEG    CODE           ?PR?ENCODER_GET_COUNT?ZF_DRIVER_ENCODER
   *DEL*:           000065H   BYTE   INSEG    CODE           ?PR?ENCODER_CLEAR_COUNT?ZF_DRIVER_ENCODER
   *DEL*:           000045H   BYTE   INSEG    CODE           ?PR?EXTI_ENABLE?ZF_DRIVER_EXTI
   *DEL*:           000013H   BYTE   INSEG    CODE           ?PR?EXTI_ALL_CLOSE?ZF_DRIVER_EXTI
   *DEL*:           00005BH   BYTE   INSEG    CODE           ?PR?EXTI_INIT?ZF_DRIVER_EXTI
   *DEL*:           000045H   BYTE   INSEG    CODE           ?PR?EXTI_DISABLE?ZF_DRIVER_EXTI
   *DEL*:           000023H   BYTE   INSEG    CODE           ?PR?GPIO_TOGGLE_LEVEL?ZF_DRIVER_GPIO
   *DEL*:           0002D5H   BYTE   INSEG    CODE           ?PR?PWM_SET_FREQ?ZF_DRIVER_PWM
   *DEL*:           000091H   BYTE   INSEG    CODE           ?PR?SOFT_IIC_WRITE_8BIT_REGISTER?ZF_DRIVER_SOFT_IIC
   *DEL*:           000186H   BYTE   INSEG    CODE           ?PR?SOFT_IIC_READ_16BIT_REGISTERS?ZF_DRIVER_SOFT_IIC
   *DEL*:           0000D2H   BYTE   INSEG    CODE           ?PR?SOFT_IIC_SCCB_READ_REGISTER?ZF_DRIVER_SOFT_IIC
   *DEL*:           000117H   BYTE   INSEG    CODE           ?PR?SOFT_IIC_READ_16BIT_REGISTER?ZF_DRIVER_SOFT_IIC
   *DEL*:           0001F3H   BYTE   INSEG    CODE           ?PR?SOFT_IIC_TRANSFER_16BIT_ARRAY?ZF_DRIVER_SOFT_IIC
   *DEL*:           00012FH   BYTE   INSEG    CODE           ?PR?SOFT_IIC_WRITE_16BIT_REGISTERS?ZF_DRIVER_SOFT_IIC
   *DEL*:           000091H   BYTE   INSEG    CODE           ?PR?SOFT_IIC_SCCB_WRITE_REGISTER?ZF_DRIVER_SOFT_IIC
   *DEL*:           000085H   BYTE   INSEG    CODE           ?PR?SOFT_IIC_READ_8BIT?ZF_DRIVER_SOFT_IIC
   *DEL*:           0000F7H   BYTE   INSEG    CODE           ?PR?SOFT_IIC_READ_8BIT_ARRAY?ZF_DRIVER_SOFT_IIC
   *DEL*:           0000DDH   BYTE   INSEG    CODE           ?PR?SOFT_IIC_WRITE_16BIT_REGISTER?ZF_DRIVER_SOFT_IIC
   *DEL*:           00007AH   BYTE   INSEG    CODE           ?PR?SOFT_IIC_WRITE_8BIT?ZF_DRIVER_SOFT_IIC
   *DEL*:           0000D3H   BYTE   INSEG    CODE           ?PR?SOFT_IIC_WRITE_8BIT_ARRAY?ZF_DRIVER_SOFT_IIC
   *DEL*:           0000B0H   BYTE   INSEG    CODE           ?PR?SOFT_IIC_READ_16BIT?ZF_DRIVER_SOFT_IIC
   *DEL*:           000129H   BYTE   INSEG    CODE           ?PR?SOFT_IIC_READ_16BIT_ARRAY?ZF_DRIVER_SOFT_IIC
   *DEL*:           0000DFH   BYTE   INSEG    CODE           ?PR?SOFT_IIC_INIT?ZF_DRIVER_SOFT_IIC
   *DEL*:           000137H   BYTE   INSEG    CODE           ?PR?SOFT_IIC_READ_8BIT_REGISTERS?ZF_DRIVER_SOFT_IIC
   *DEL*:           0000A1H   BYTE   INSEG    CODE           ?PR?SOFT_IIC_WRITE_16BIT?ZF_DRIVER_SOFT_IIC
   *DEL*:           0000FDH   BYTE   INSEG    CODE           ?PR?SOFT_IIC_WRITE_16BIT_ARRAY?ZF_DRIVER_SOFT_IIC
   *DEL*:           0000C5H   BYTE   INSEG    CODE           ?PR?SOFT_IIC_READ_8BIT_REGISTER?ZF_DRIVER_SOFT_IIC
   *DEL*:           000197H   BYTE   INSEG    CODE           ?PR?SOFT_IIC_TRANSFER_8BIT_ARRAY?ZF_DRIVER_SOFT_IIC
   *DEL*:           0000E8H   BYTE   INSEG    CODE           ?PR?SOFT_IIC_WRITE_8BIT_REGISTERS?ZF_DRIVER_SOFT_IIC
   *DEL*:           0002EFH   BYTE   INSEG    CODE           ?PR?SOFT_SPI_INIT?ZF_DRIVER_SOFT_SPI
   *DEL*:           000111H   BYTE   INSEG    CODE           ?PR?SOFT_SPI_READ_8BIT_REGISTERS?ZF_DRIVER_SOFT_SPI
   *DEL*:           000099H   BYTE   INSEG    CODE           ?PR?SOFT_SPI_WRITE_16BIT?ZF_DRIVER_SOFT_SPI
   *DEL*:           000216H   BYTE   INSEG    CODE           ?PR?SOFT_SPI_8BIT_DATA_HANDLER?ZF_DRIVER_SOFT_SPI
   *DEL*:           0000EEH   BYTE   INSEG    CODE           ?PR?SOFT_SPI_WRITE_16BIT_ARRAY?ZF_DRIVER_SOFT_SPI
   *DEL*:           0000B0H   BYTE   INSEG    CODE           ?PR?SOFT_SPI_READ_8BIT_REGISTER?ZF_DRIVER_SOFT_SPI
   *DEL*:           000159H   BYTE   INSEG    CODE           ?PR?SOFT_SPI_TRANSFER_8BIT?ZF_DRIVER_SOFT_SPI
   *DEL*:           000103H   BYTE   INSEG    CODE           ?PR?SOFT_SPI_WRITE_8BIT_REGISTERS?ZF_DRIVER_SOFT_SPI
   *DEL*:           0000ACH   BYTE   INSEG    CODE           ?PR?SOFT_SPI_WRITE_8BIT_REGISTER?ZF_DRIVER_SOFT_SPI
   *DEL*:           00010EH   BYTE   INSEG    CODE           ?PR?SOFT_SPI_READ_16BIT_REGISTERS?ZF_DRIVER_SOFT_SPI
L251 LINKER/LOCATER V4.66.93.0                                                        04/22/2026  19:49:03  PAGE 15


   *DEL*:           000250H   BYTE   INSEG    CODE           ?PR?SOFT_SPI_16BIT_DATA_HANDLER?ZF_DRIVER_SOFT_SPI
   *DEL*:           0000BCH   BYTE   INSEG    CODE           ?PR?SOFT_SPI_READ_16BIT_REGISTER?ZF_DRIVER_SOFT_SPI
   *DEL*:           00015BH   BYTE   INSEG    CODE           ?PR?SOFT_SPI_TRANSFER_16BIT?ZF_DRIVER_SOFT_SPI
   *DEL*:           0000FDH   BYTE   INSEG    CODE           ?PR?SOFT_SPI_WRITE_16BIT_REGISTERS?ZF_DRIVER_SOFT_SPI
   *DEL*:           00009BH   BYTE   INSEG    CODE           ?PR?SOFT_SPI_READ_8BIT?ZF_DRIVER_SOFT_SPI
   *DEL*:           0000FCH   BYTE   INSEG    CODE           ?PR?SOFT_SPI_READ_8BIT_ARRAY?ZF_DRIVER_SOFT_SPI
   *DEL*:           0000B2H   BYTE   INSEG    CODE           ?PR?SOFT_SPI_WRITE_16BIT_REGISTER?ZF_DRIVER_SOFT_SPI
   *DEL*:           000095H   BYTE   INSEG    CODE           ?PR?SOFT_SPI_WRITE_8BIT?ZF_DRIVER_SOFT_SPI
   *DEL*:           0000EEH   BYTE   INSEG    CODE           ?PR?SOFT_SPI_WRITE_8BIT_ARRAY?ZF_DRIVER_SOFT_SPI
   *DEL*:           00003CH   BYTE   INSEG    CODE           ?PR?SOFT_SPI_DELAY?ZF_DRIVER_SOFT_SPI
   *DEL*:           0000A0H   BYTE   INSEG    CODE           ?PR?SOFT_SPI_READ_16BIT?ZF_DRIVER_SOFT_SPI
   *DEL*:           0000FFH   BYTE   INSEG    CODE           ?PR?SOFT_SPI_READ_16BIT_ARRAY?ZF_DRIVER_SOFT_SPI
   *DEL*:           00002BH   BYTE   INSEG    CODE           ?PR?SPI_WRITE_8BIT_REGISTER?ZF_DRIVER_SPI
   *DEL*:           0000BCH   BYTE   INSEG    CODE           ?PR?SPI_READ_16BIT_REGISTERS?ZF_DRIVER_SPI
   *DEL*:           000079H   BYTE   INSEG    CODE           ?PR?SPI_READ_16BIT_REGISTER?ZF_DRIVER_SPI
   *DEL*:           00010DH   BYTE   INSEG    CODE           ?PR?SPI_TRANSFER_16BIT?ZF_DRIVER_SPI
   *DEL*:           00008AH   BYTE   INSEG    CODE           ?PR?SPI_WRITE_16BIT_REGISTERS?ZF_DRIVER_SPI
   *DEL*:           000011H   BYTE   INSEG    CODE           ?PR?SPI_READ_8BIT?ZF_DRIVER_SPI
   *DEL*:           00005DH   BYTE   INSEG    CODE           ?PR?SPI_READ_8BIT_ARRAY?ZF_DRIVER_SPI
   *DEL*:           00006FH   BYTE   INSEG    CODE           ?PR?SPI_WRITE_16BIT_REGISTER?ZF_DRIVER_SPI
   *DEL*:           00004FH   BYTE   INSEG    CODE           ?PR?SPI_WRITE_8BIT_ARRAY?ZF_DRIVER_SPI
   *DEL*:           000045H   BYTE   INSEG    CODE           ?PR?SPI_READ_16BIT?ZF_DRIVER_SPI
   *DEL*:           000088H   BYTE   INSEG    CODE           ?PR?SPI_READ_16BIT_ARRAY?ZF_DRIVER_SPI
   *DEL*:           00006EH   BYTE   INSEG    CODE           ?PR?SPI_READ_8BIT_REGISTERS?ZF_DRIVER_SPI
   *DEL*:           000075H   BYTE   INSEG    CODE           ?PR?SPI_WRITE_16BIT_ARRAY?ZF_DRIVER_SPI
   *DEL*:           000022H   BYTE   INSEG    CODE           ?PR?SPI_READ_8BIT_REGISTER?ZF_DRIVER_SPI
   *DEL*:           0000A4H   BYTE   INSEG    CODE           ?PR?SPI_TRANSFER_8BIT?ZF_DRIVER_SPI
   *DEL*:           000060H   BYTE   INSEG    CODE           ?PR?SPI_WRITE_8BIT_REGISTERS?ZF_DRIVER_SPI
   *DEL*:           00003DH   BYTE   INSEG    CODE           ?PR?UART_WRITE_STRING?ZF_DRIVER_UART
   *DEL*:           000072H   BYTE   INSEG    CODE           ?PR?UART_READ_BYTE?ZF_DRIVER_UART
   *DEL*:           000038H   BYTE   INSEG    CODE           ?PR?EEPROM_READ?EEPROM
   *DEL*:           000074H   BYTE   INSEG    CODE           ?PR?EEPROM_READ_VALUE?EEPROM
   *DEL*:           00007DH   BYTE   INSEG    CODE           ?PR?EEPROM_WRITE_VALUE?EEPROM
   *DEL*:           000032H   BYTE   INSEG    CODE           ?PR?EEPROM_INIT?EEPROM
   *DEL*:           000020H   BYTE   INSEG    CODE           ?PR?VOLTAGE_WARNING_INIT?VOLTAGE_WARNING
   *DEL*:           000084H   BYTE   INSEG    CODE           ?PR?BLE6A20_READ_BUFFER?ZF_DEVICE_BLE6A20
   *DEL*:           000110H   BYTE   INSEG    CODE           ?PR?BLE6A20_SEND_BUFFER?ZF_DEVICE_BLE6A20
   *DEL*:           00005DH   BYTE   INSEG    CODE           ?PR?BLE6A20_SEND_STRING?ZF_DEVICE_BLE6A20
   *DEL*:           000026H   BYTE   INSEG    CODE           ?PR?BLE6A20_CALLBACK?ZF_DEVICE_BLE6A20
   *DEL*:           000088H   BYTE   INSEG    CODE           ?PR?BLE6A20_INIT?ZF_DEVICE_BLE6A20
   *DEL*:           00006DH   BYTE   INSEG    CODE           ?PR?BLE6A20_SEND_BYTE?ZF_DEVICE_BLE6A20
   *DEL*:           00006FH   BYTE   INSEG    CODE           ?PR?DL1A_TIMEOUT_MICROSECONDS_TO_MCLKS?ZF_DEVICE_DL1A
   *DEL*:           000069H   BYTE   INSEG    CODE           ?PR?DL1A_TIMEOUT_MCLKS_TO_MICROSECONDS?ZF_DEVICE_DL1A
   *DEL*:           0000A2H   BYTE   INSEG    CODE           ?PR?DL1A_SET_SIGNAL_RATE_LIMIT?ZF_DEVICE_DL1A
   *DEL*:           000030H   BYTE   INSEG    CODE           ?PR?DL1A_DECODE_TIMEOUT?ZF_DEVICE_DL1A
   *DEL*:           000259H   BYTE   INSEG    CODE           ?PR?DL1A_GET_SPAD_INFO?ZF_DEVICE_DL1A
   *DEL*:           000085H   BYTE   INSEG    CODE           ?PR?DL1A_ENCODE_TIMEOUT?ZF_DEVICE_DL1A
   *DEL*:           0000CBH   BYTE   INSEG    CODE           ?PR?DL1A_GET_SEQUENCE_STEP_ENABLES?ZF_DEVICE_DL1A
   *DEL*:           0000D3H   BYTE   INSEG    CODE           ?PR?DL1A_GET_DISTANCE?ZF_DEVICE_DL1A
   *DEL*:           0000D6H   BYTE   INSEG    CODE           ?PR?DL1A_PERFORM_SINGLE_REF_CALIBRATION?ZF_DEVICE_DL1A
   *DEL*:           00021AH   BYTE   INSEG    CODE           ?PR?DL1A_GET_SEQUENCE_STEP_TIMEOUTS?ZF_DEVICE_DL1A
   *DEL*:           000001H   BYTE   INSEG    CODE           ?PR?DL1A_INT_HANDLER?ZF_DEVICE_DL1A
   *DEL*:           000119H   BYTE   INSEG    CODE           ?PR?DL1A_GET_MEASUREMENT_TIMING_BUDGET?ZF_DEVICE_DL1A
   *DEL*:           000210H   BYTE   INSEG    CODE           ?PR?DL1A_SET_MEASUREMENT_TIMING_BUDGET?ZF_DEVICE_DL1A
   *DEL*:           000602H   BYTE   INSEG    CODE           ?PR?DL1A_INIT?ZF_DEVICE_DL1A
   *DEL*:           00009EH   BYTE   INSEG    CODE           ?PR?DL1A_GET_VCSEL_PULSE_PERIOD?ZF_DEVICE_DL1A
   *DEL*:           0001E4H   BYTE   INSEG    CODE           ?PR?DL1B_GET_DISTANCE?ZF_DEVICE_DL1B
   *DEL*:           000001H   BYTE   INSEG    CODE           ?PR?DL1B_INT_HANDLER?ZF_DEVICE_DL1B
   *DEL*:           00000AH   BYTE   INSEG    CODE           ?PR?DL1B_INIT?ZF_DEVICE_DL1B
   *DEL*:           000094H   BYTE   INSEG    CODE           ?PR?GET_DOUBLE_NUMBER?ZF_DEVICE_GPS_TAU1201
   *DEL*:           000094H   BYTE   INSEG    CODE           ?PR?GET_FLOAT_NUMBER?ZF_DEVICE_GPS_TAU1201
   *DEL*:           0001CEH   BYTE   INSEG    CODE           ?PR?UTC_TO_BTC?ZF_DEVICE_GPS_TAU1201
   *DEL*:           000214H   BYTE   INSEG    CODE           ?PR?GET_TWO_POINTS_DISTANCE?ZF_DEVICE_GPS_TAU1201
   *DEL*:           000102H   BYTE   INSEG    CODE           ?PR?GPS_GNGGA_PARSE?ZF_DEVICE_GPS_TAU1201
   *DEL*:           000668H   BYTE   INSEG    CODE           ?PR?GPS_GNRMC_PARSE?ZF_DEVICE_GPS_TAU1201
L251 LINKER/LOCATER V4.66.93.0                                                        04/22/2026  19:49:03  PAGE 16


   *DEL*:           000212H   BYTE   INSEG    CODE           ?PR?GPS_DATA_PARSE?ZF_DEVICE_GPS_TAU1201
   *DEL*:           000088H   BYTE   INSEG    CODE           ?PR?GET_INT_NUMBER?ZF_DEVICE_GPS_TAU1201
   *DEL*:           0002B0H   BYTE   INSEG    CODE           ?PR?GPS_INIT?ZF_DEVICE_GPS_TAU1201
   *DEL*:           0000D3H   BYTE   INSEG    CODE           ?PR?GET_PARAMETER_INDEX?ZF_DEVICE_GPS_TAU1201
   *DEL*:           00033DH   BYTE   INSEG    CODE           ?PR?GET_TWO_POINTS_AZIMUTH?ZF_DEVICE_GPS_TAU1201
   *DEL*:           000191H   BYTE   INSEG    CODE           ?PR?GPS_UART_CALLBACK?ZF_DEVICE_GPS_TAU1201
   *DEL*:           000024H   BYTE   INSEG    CODE           ?PR?ICM20602_READ_REGISTER?ZF_DEVICE_ICM20602
   *DEL*:           00001EH   BYTE   INSEG    CODE           ?PR?ICM20602_WRITE_REGISTER?ZF_DEVICE_ICM20602
   *DEL*:           000050H   BYTE   INSEG    CODE           ?PR?ICM20602_SIMSPI_WR_BYTE?ZF_DEVICE_ICM20602
   *DEL*:           000051H   BYTE   INSEG    CODE           ?PR?ICM20602_SELF_CHECK?ZF_DEVICE_ICM20602
   *DEL*:           000076H   BYTE   INSEG    CODE           ?PR?ICM20602_SIMSPI_R_REG_BYTES?ZF_DEVICE_ICM20602
   *DEL*:           000031H   BYTE   INSEG    CODE           ?PR?ICM20602_SIMSPI_R_REG_BYTE?ZF_DEVICE_ICM20602
   *DEL*:           00001DH   BYTE   INSEG    CODE           ?PR?ICM20602_SIMSPI_W_REG_BYTE?ZF_DEVICE_ICM20602
   *DEL*:           0001F1H   BYTE   INSEG    CODE           ?PR?ICM20602_INIT?ZF_DEVICE_ICM20602
   *DEL*:           00005AH   BYTE   INSEG    CODE           ?PR?ICM20602_GET_ACC?ZF_DEVICE_ICM20602
   *DEL*:           000040H   BYTE   INSEG    CODE           ?PR?ICM20602_READ_REGISTERS?ZF_DEVICE_ICM20602
   *DEL*:           00005AH   BYTE   INSEG    CODE           ?PR?ICM20602_GET_GYRO?ZF_DEVICE_ICM20602
   *DEL*:           00005AH   BYTE   INSEG    CODE           ?PR?IMU660RB_GET_GYRO?ZF_DEVICE_IMU660RB
   *DEL*:           000024H   BYTE   INSEG    CODE           ?PR?IMU660RB_READ_REGISTER?ZF_DEVICE_IMU660RB
   *DEL*:           000114H   BYTE   INSEG    CODE           ?PR?IMU660RB_GYRO_TRANSITION?ZF_DEVICE_IMU660RB
   *DEL*:           00001EH   BYTE   INSEG    CODE           ?PR?IMU660RB_WRITE_REGISTER?ZF_DEVICE_IMU660RB
   *DEL*:           000053H   BYTE   INSEG    CODE           ?PR?IMU660RB_SIMSPI_WR_BYTE?ZF_DEVICE_IMU660RB
   *DEL*:           00004FH   BYTE   INSEG    CODE           ?PR?IMU660RB_SELF_CHECK?ZF_DEVICE_IMU660RB
   *DEL*:           000070H   BYTE   INSEG    CODE           ?PR?IMU660RB_SIMSPI_R_REG_BYTES?ZF_DEVICE_IMU660RB
   *DEL*:           000037H   BYTE   INSEG    CODE           ?PR?IMU660RB_SIMSPI_R_REG_BYTE?ZF_DEVICE_IMU660RB
   *DEL*:           00001DH   BYTE   INSEG    CODE           ?PR?IMU660RB_SIMSPI_W_REG_BYTE?ZF_DEVICE_IMU660RB
   *DEL*:           000071H   BYTE   INSEG    CODE           ?PR?IMU660RB_INIT?ZF_DEVICE_IMU660RB
   *DEL*:           00005AH   BYTE   INSEG    CODE           ?PR?IMU660RB_GET_ACC?ZF_DEVICE_IMU660RB
   *DEL*:           0000BEH   BYTE   INSEG    CODE           ?PR?IMU660RB_ACC_TRANSITION?ZF_DEVICE_IMU660RB
   *DEL*:           000040H   BYTE   INSEG    CODE           ?PR?IMU660RB_READ_REGISTERS?ZF_DEVICE_IMU660RB
   *DEL*:           00005AH   BYTE   INSEG    CODE           ?PR?IMU963RA_GET_GYRO?ZF_DEVICE_IMU963RA
   *DEL*:           000072H   BYTE   INSEG    CODE           ?PR?IMU963RA_READ_MAG_REGISTER?ZF_DEVICE_IMU963RA
   *DEL*:           00003DH   BYTE   INSEG    CODE           ?PR?IMU963RA_CONNECT_MAG?ZF_DEVICE_IMU963RA
   *DEL*:           00004CH   BYTE   INSEG    CODE           ?PR?IMU963RA_READ_ACC_GYRO_REGISTERS?ZF_DEVICE_IMU963RA
   *DEL*:           000089H   BYTE   INSEG    CODE           ?PR?IMU963RA_WRITE_MAG_REGISTER?ZF_DEVICE_IMU963RA
   *DEL*:           000027H   BYTE   INSEG    CODE           ?PR?IMU963RA_READ_ACC_GYRO_REGISTER?ZF_DEVICE_IMU963RA
   *DEL*:           000054H   BYTE   INSEG    CODE           ?PR?IMU963RA_MAG_SELF_CHECK?ZF_DEVICE_IMU963RA
   *DEL*:           000020H   BYTE   INSEG    CODE           ?PR?IMU963RA_WRITE_ACC_GYRO_REGISTER?ZF_DEVICE_IMU963RA
   *DEL*:           000345H   BYTE   INSEG    CODE           ?PR?IMU963RA_INIT?ZF_DEVICE_IMU963RA
   *DEL*:           000068H   BYTE   INSEG    CODE           ?PR?IMU963RA_ACC_GYRO_SELF_CHECK?ZF_DEVICE_IMU963RA
   *DEL*:           00005AH   BYTE   INSEG    CODE           ?PR?IMU963RA_GET_ACC?ZF_DEVICE_IMU963RA
   *DEL*:           000079H   BYTE   INSEG    CODE           ?PR?IMU963RA_GET_MAG?ZF_DEVICE_IMU963RA
   *DEL*:           0001EBH   BYTE   INSEG    CODE           ?PR?IPS114_SHOW_FLOAT?ZF_DEVICE_IPS114
   *DEL*:           000083H   BYTE   INSEG    CODE           ?PR?IPS114_DRAW_POINT?ZF_DEVICE_IPS114
   *DEL*:           0000C4H   BYTE   INSEG    CODE           ?PR?IPS114_SHOW_STRING?ZF_DEVICE_IPS114
   *DEL*:           00011CH   BYTE   INSEG    CODE           ?PR?IPS114_SHOW_CHAR?ZF_DEVICE_IPS114
   *DEL*:           000119H   BYTE   INSEG    CODE           ?PR?IPS114_SHOW_UINT16?ZF_DEVICE_IPS114
   *DEL*:           00015EH   BYTE   INSEG    CODE           ?PR?IPS114_SHOW_INT32?ZF_DEVICE_IPS114
   *DEL*:           00016DH   BYTE   INSEG    CODE           ?PR?IPS114_SHOW_INT16?ZF_DEVICE_IPS114
   *DEL*:           000214H   BYTE   INSEG    CODE           ?PR?IPS114_SHOW_WAVE?ZF_DEVICE_IPS114
   *DEL*:           000200H   BYTE   INSEG    CODE           ?PR?IPS114_SHOW_CHINESE?ZF_DEVICE_IPS114
   *DEL*:           0000E9H   BYTE   INSEG    CODE           ?PR?IPS114_SHOW_UINT8?ZF_DEVICE_IPS114
   *DEL*:           00012EH   BYTE   INSEG    CODE           ?PR?IPS114_SHOW_INT8?ZF_DEVICE_IPS114
   *DEL*:           0001EBH   BYTE   INSEG    CODE           ?PR?IPS200_SHOW_FLOAT?ZF_DEVICE_IPS200
   *DEL*:           000083H   BYTE   INSEG    CODE           ?PR?IPS200_DRAW_POINT?ZF_DEVICE_IPS200
   *DEL*:           0000C4H   BYTE   INSEG    CODE           ?PR?IPS200_SHOW_STRING?ZF_DEVICE_IPS200
   *DEL*:           00011CH   BYTE   INSEG    CODE           ?PR?IPS200_SHOW_CHAR?ZF_DEVICE_IPS200
   *DEL*:           000119H   BYTE   INSEG    CODE           ?PR?IPS200_SHOW_UINT16?ZF_DEVICE_IPS200
   *DEL*:           000025H   BYTE   INSEG    CODE           ?PR?IPS200_SET_COLOR?ZF_DEVICE_IPS200
   *DEL*:           00015EH   BYTE   INSEG    CODE           ?PR?IPS200_SHOW_INT32?ZF_DEVICE_IPS200
   *DEL*:           00016DH   BYTE   INSEG    CODE           ?PR?IPS200_SHOW_INT16?ZF_DEVICE_IPS200
   *DEL*:           000214H   BYTE   INSEG    CODE           ?PR?IPS200_SHOW_WAVE?ZF_DEVICE_IPS200
   *DEL*:           000013H   BYTE   INSEG    CODE           ?PR?IPS200_SET_DIR?ZF_DEVICE_IPS200
   *DEL*:           000200H   BYTE   INSEG    CODE           ?PR?IPS200_SHOW_CHINESE?ZF_DEVICE_IPS200
   *DEL*:           000085H   BYTE   INSEG    CODE           ?PR?IPS200_CLEAR?ZF_DEVICE_IPS200
L251 LINKER/LOCATER V4.66.93.0                                                        04/22/2026  19:49:03  PAGE 17


   *DEL*:           0000E9H   BYTE   INSEG    CODE           ?PR?IPS200_SHOW_UINT8?ZF_DEVICE_IPS200
   *DEL*:           00012EH   BYTE   INSEG    CODE           ?PR?IPS200_SHOW_INT8?ZF_DEVICE_IPS200
   *DEL*:           000022H   BYTE   INSEG    CODE           ?PR?IPS200_WRITE_INDEX?ZF_DEVICE_IPS200
   *DEL*:           0000ECH   BYTE   INSEG    CODE           ?PR?IPS200_SET_REGION?ZF_DEVICE_IPS200
   *DEL*:           0002C2H   BYTE   INSEG    CODE           ?PR?IPS200_INIT?ZF_DEVICE_IPS200
   *DEL*:           000095H   BYTE   INSEG    CODE           ?PR?IPS200PRO_PROGRESS_BAR_CREATE?ZF_DEVICE_IPS200PRO
   *DEL*:           000053H   BYTE   INSEG    CODE           ?PR?IPS200PRO_SET_CRC_STATE?ZF_DEVICE_IPS200PRO
   *DEL*:           000070H   BYTE   INSEG    CODE           ?PR?IPS200PRO_TABLE_SELECT?ZF_DEVICE_IPS200PRO
   *DEL*:           000036H   BYTE   INSEG    CODE           ?PR?IPS200PRO_PAGE_HIDDEN?ZF_DEVICE_IPS200PRO
   *DEL*:           000055H   BYTE   INSEG    CODE           ?PR?IPS200PRO_SET_DIRECTION?ZF_DEVICE_IPS200PRO
   *DEL*:           00009EH   BYTE   INSEG    CODE           ?PR?IPS200PRO_PAGE_CREATE?ZF_DEVICE_IPS200PRO
   *DEL*:           00010CH   BYTE   INSEG    CODE           ?PR?IPS200PRO_WAVEFORM_ADD_VALUE?ZF_DEVICE_IPS200PRO
   *DEL*:           000095H   BYTE   INSEG    CODE           ?PR?IPS200PRO_METER_CREATE?ZF_DEVICE_IPS200PRO
   *DEL*:           0000E3H   BYTE   INSEG    CODE           ?PR?IPS200PRO_LABEL_PRINTF?ZF_DEVICE_IPS200PRO
   *DEL*:           000072H   BYTE   INSEG    CODE           ?PR?IPS200PRO_WAVEFORM_LINE_STATE?ZF_DEVICE_IPS200PRO
   *DEL*:           000114H   BYTE   INSEG    CODE           ?PR?IPS200PRO_TABLE_CELL_PRINTF?ZF_DEVICE_IPS200PRO
   *DEL*:           000286H   BYTE   INSEG    CODE           ?PR?IPS200PRO_WRITE_PACKET?ZF_DEVICE_IPS200PRO
   *DEL*:           00009AH   BYTE   INSEG    CODE           ?PR?IPS200PRO_SEND_BUFFER?ZF_DEVICE_IPS200PRO
   *DEL*:           000060H   BYTE   INSEG    CODE           ?PR?IPS200PRO_LABEL_MODE?ZF_DEVICE_IPS200PRO
   *DEL*:           000060H   BYTE   INSEG    CODE           ?PR?IPS200PRO_PAGE_SWITCH?ZF_DEVICE_IPS200PRO
   *DEL*:           000053H   BYTE   INSEG    CODE           ?PR?IPS200PRO_CALENDAR_CREATE?ZF_DEVICE_IPS200PRO
   *DEL*:           000087H   BYTE   INSEG    CODE           ?PR?IPS200PRO_CALENDAR_DISPLAY?ZF_DEVICE_IPS200PRO
   *DEL*:           00005EH   BYTE   INSEG    CODE           ?PR?IPS200PRO_WAVEFORM_LINE_TYPE?ZF_DEVICE_IPS200PRO
   *DEL*:           000062H   BYTE   INSEG    CODE           ?PR?IPS200PRO_SET_HIDDEN?ZF_DEVICE_IPS200PRO
   *DEL*:           000095H   BYTE   INSEG    CODE           ?PR?IPS200PRO_CONTAINER_CREATE?ZF_DEVICE_IPS200PRO
   *DEL*:           0000E6H   BYTE   INSEG    CODE           ?PR?IPS200PRO_IMAGE_DRAW_LINE?ZF_DEVICE_IPS200PRO
   *DEL*:           000081H   BYTE   INSEG    CODE           ?PR?IPS200PRO_LABEL_SHOW_STRING?ZF_DEVICE_IPS200PRO
   *DEL*:           000053H   BYTE   INSEG    CODE           ?PR?IPS200PRO_SET_OPTIMIZE?ZF_DEVICE_IPS200PRO
   *DEL*:           000076H   BYTE   INSEG    CODE           ?PR?IPS200PRO_SET_POSITION?ZF_DEVICE_IPS200PRO
   *DEL*:           000055H   BYTE   INSEG    CODE           ?PR?IPS200PRO_SET_DEFAULT_FONT?ZF_DEVICE_IPS200PRO
   *DEL*:           000066H   BYTE   INSEG    CODE           ?PR?IPS200PRO_PAGE_SET_TITLE_POSITION_WIDTH?ZF_DEVICE_IPS2
                                                             -00PRO
   *DEL*:           0000C1H   BYTE   INSEG    CODE           ?PR?IPS200PRO_IMAGE_DRAW_RECTANGLE?ZF_DEVICE_IPS200PRO
   *DEL*:           0000EDH   BYTE   INSEG    CODE           ?PR?IPS200PRO_INIT?ZF_DEVICE_IPS200PRO
   *DEL*:           000072H   BYTE   INSEG    CODE           ?PR?IPS200PRO_CONTAINER_RADIUS?ZF_DEVICE_IPS200PRO
   *DEL*:           00006DH   BYTE   INSEG    CODE           ?PR?IPS200PRO_WAIT_IDLE?ZF_DEVICE_IPS200PRO
   *DEL*:           000055H   BYTE   INSEG    CODE           ?PR?IPS200PRO_SET_FORMAT?ZF_DEVICE_IPS200PRO
   *DEL*:           000067H   BYTE   INSEG    CODE           ?PR?IPS200PRO_SET_PARENT?ZF_DEVICE_IPS200PRO
   *DEL*:           000070H   BYTE   INSEG    CODE           ?PR?IPS200PRO_PROGRESS_BAR_SET_VALUE?ZF_DEVICE_IPS200PRO
   *DEL*:           00004AH   BYTE   INSEG    CODE           ?PR?IPS200PRO_GET_DATE?ZF_DEVICE_IPS200PRO
   *DEL*:           000095H   BYTE   INSEG    CODE           ?PR?IPS200PRO_WAVEFORM_CREATE?ZF_DEVICE_IPS200PRO
   *DEL*:           0000B6H   BYTE   INSEG    CODE           ?PR?IPS200PRO_READ_PARAMETER?ZF_DEVICE_IPS200PRO
   *DEL*:           0000A1H   BYTE   INSEG    CODE           ?PR?IPS200PRO_RECEIVE_BUFFER?ZF_DEVICE_IPS200PRO
   *DEL*:           000086H   BYTE   INSEG    CODE           ?PR?IPS200PRO_SET_DATE?ZF_DEVICE_IPS200PRO
   *DEL*:           000060H   BYTE   INSEG    CODE           ?PR?IPS200PRO_METER_SET_VALUE?ZF_DEVICE_IPS200PRO
   *DEL*:           000076H   BYTE   INSEG    CODE           ?PR?IPS200PRO_SET_COLOR?ZF_DEVICE_IPS200PRO
   *DEL*:           00005FH   BYTE   INSEG    CODE           ?PR?IPS200PRO_GET_INFORMATION?ZF_DEVICE_IPS200PRO
   *DEL*:           000052H   BYTE   INSEG    CODE           ?PR?IPS200PRO_DELETE_WIDGETS?ZF_DEVICE_IPS200PRO
   *DEL*:           00004CH   BYTE   INSEG    CODE           ?PR?IPS200PRO_GET_TIME?ZF_DEVICE_IPS200PRO
   *DEL*:           0000B5H   BYTE   INSEG    CODE           ?PR?IPS200PRO_CREATE_WIDGETS?ZF_DEVICE_IPS200PRO
   *DEL*:           00004EH   BYTE   INSEG    CODE           ?PR?IPS200PRO_WAVEFORM_CLEAR?ZF_DEVICE_IPS200PRO
   *DEL*:           00006FH   BYTE   INSEG    CODE           ?PR?IPS200PRO_PAGE_SET_TITLE_NAME?ZF_DEVICE_IPS200PRO
   *DEL*:           000095H   BYTE   INSEG    CODE           ?PR?IPS200PRO_LABEL_CREATE?ZF_DEVICE_IPS200PRO
   *DEL*:           000070H   BYTE   INSEG    CODE           ?PR?IPS200PRO_TABLE_SET_COL_WIDTH?ZF_DEVICE_IPS200PRO
   *DEL*:           000053H   BYTE   INSEG    CODE           ?PR?IPS200PRO_SET_BACKLIGHT?ZF_DEVICE_IPS200PRO
   *DEL*:           000095H   BYTE   INSEG    CODE           ?PR?IPS200PRO_IMAGE_CREATE?ZF_DEVICE_IPS200PRO
   *DEL*:           00004DH   BYTE   INSEG    CODE           ?PR?IPS200PRO_GET_FREE_STACK_SIZE?ZF_DEVICE_IPS200PRO
   *DEL*:           000091H   BYTE   INSEG    CODE           ?PR?IPS200PRO_SET_TIME?ZF_DEVICE_IPS200PRO
   *DEL*:           0001BFH   BYTE   INSEG    CODE           ?PR?IPS200PRO_IMAGE_DISPLAY?ZF_DEVICE_IPS200PRO
   *DEL*:           000095H   BYTE   INSEG    CODE           ?PR?IPS200PRO_TABLE_CREATE?ZF_DEVICE_IPS200PRO
   *DEL*:           000095H   BYTE   INSEG    CODE           ?PR?IPS200PRO_CLOCK_CREATE?ZF_DEVICE_IPS200PRO
   *DEL*:           000064H   BYTE   INSEG    CODE           ?PR?IPS200PRO_SET_FONT?ZF_DEVICE_IPS200PRO
   *DEL*:           000176H   BYTE   INSEG    CODE           ?PR?TFT180_SET_REGION?ZF_DEVICE_TFT180
   *DEL*:           00036EH   BYTE   INSEG    CODE           ?PR?TFT180_INIT?ZF_DEVICE_TFT180
   *DEL*:           0001EBH   BYTE   INSEG    CODE           ?PR?TFT180_SHOW_FLOAT?ZF_DEVICE_TFT180
L251 LINKER/LOCATER V4.66.93.0                                                        04/22/2026  19:49:03  PAGE 18


   *DEL*:           000083H   BYTE   INSEG    CODE           ?PR?TFT180_DRAW_POINT?ZF_DEVICE_TFT180
   *DEL*:           0000C4H   BYTE   INSEG    CODE           ?PR?TFT180_SHOW_STRING?ZF_DEVICE_TFT180
   *DEL*:           00011CH   BYTE   INSEG    CODE           ?PR?TFT180_SHOW_CHAR?ZF_DEVICE_TFT180
   *DEL*:           000119H   BYTE   INSEG    CODE           ?PR?TFT180_SHOW_UINT16?ZF_DEVICE_TFT180
   *DEL*:           000025H   BYTE   INSEG    CODE           ?PR?TFT180_SET_COLOR?ZF_DEVICE_TFT180
   *DEL*:           00015EH   BYTE   INSEG    CODE           ?PR?TFT180_SHOW_INT32?ZF_DEVICE_TFT180
   *DEL*:           00016DH   BYTE   INSEG    CODE           ?PR?TFT180_SHOW_INT16?ZF_DEVICE_TFT180
   *DEL*:           000214H   BYTE   INSEG    CODE           ?PR?TFT180_SHOW_WAVE?ZF_DEVICE_TFT180
   *DEL*:           00003BH   BYTE   INSEG    CODE           ?PR?TFT180_SET_DIR?ZF_DEVICE_TFT180
   *DEL*:           000079H   BYTE   INSEG    CODE           ?PR?TFT180_CLEAR?ZF_DEVICE_TFT180
   *DEL*:           0000E9H   BYTE   INSEG    CODE           ?PR?TFT180_SHOW_UINT8?ZF_DEVICE_TFT180
   *DEL*:           00012EH   BYTE   INSEG    CODE           ?PR?TFT180_SHOW_INT8?ZF_DEVICE_TFT180
   *DEL*:           000022H   BYTE   INSEG    CODE           ?PR?TFT180_WRITE_INDEX?ZF_DEVICE_TFT180
   *DEL*:           0000C0H   BYTE   INSEG    CODE           ?PR?TSL1401_SEND_DATA?ZF_DEVICE_TSL1401
   *DEL*:           00003DH   BYTE   INSEG    CODE           ?PR?TSL1401_INIT?ZF_DEVICE_TSL1401
   *DEL*:           0000BEH   BYTE   INSEG    CODE           ?PR?TSL1401_COLLECT_PIT_HANDLER?ZF_DEVICE_TSL1401
   *DEL*:           00002DH   BYTE   INSEG    CODE           ?PR?SET_TOF_TYPE?ZF_DEVICE_TYPE
   *DEL*:           00009FH   BYTE   INSEG    CODE           ?PR?SET_GPS_TYPE?ZF_DEVICE_TYPE
   *DEL*:           00005DH   BYTE   INSEG    CODE           ?PR?WIRELESS_UART_SEND_STRING?ZF_DEVICE_WIRELESS_UART
   *DEL*:           00006DH   BYTE   INSEG    CODE           ?PR?WIRELESS_UART_SEND_BYTE?ZF_DEVICE_WIRELESS_UART
   *DEL*:           000079H   BYTE   INSEG    CODE           ?PR?MAIN_LOOP?IMU
   *DEL*:           000131H   BYTE   INSEG    CODE           ?PR?FAST_SQRT?IMU
   *DEL*:           0004A1H   BYTE   INSEG    CODE           ?PR?SEEKFREE_ASSISTANT_CAMERA_BOUNDARY_CONFIG?SEEKFREE_ASS
                                                             -ISTANT
   *DEL*:           000142H   BYTE   INSEG    CODE           ?PR?SEEKFREE_ASSISTANT_CAMERA_DOT_SEND?SEEKFREE_ASSISTANT
   *DEL*:           000061H   BYTE   INSEG    CODE           ?PR?SEEKFREE_ASSISTANT_CAMERA_INFORMATION_CONFIG?SEEKFREE_
                                                             -ASSISTANT
   *DEL*:           0002B2H   BYTE   INSEG    CODE           ?PR?SEEKFREE_ASSISTANT_DATA_ANALYSIS?SEEKFREE_ASSISTANT
   *DEL*:           00015CH   BYTE   INSEG    CODE           ?PR?SEEKFREE_ASSISTANT_CAMERA_DATA_SEND?SEEKFREE_ASSISTANT
   *DEL*:           00004AH   BYTE   INSEG    CODE           ?PR?SEEKFREE_ASSISTANT_CAMERA_SEND?SEEKFREE_ASSISTANT
   *DEL*:           000059H   BYTE   INSEG    CODE           ?PR?SEEKFREE_ASSISTANT_INTERFACE_INIT?SEEKFREE_ASSISTANT_I
                                                             -NTERFACE
   *DEL*:           00006FH   BYTE   INSEG    CODE           ?PR?MOTOR_PROTECT?MOTO
   *DEL*:           000023H   BYTE   INSEG    CODE           ?PR?LED_SWITCH?LED
   *DEL*:           000012H   BYTE   INSEG    CODE           ?PR?LED_OFF?LED
   *DEL*:           000011H   BYTE   INSEG    CODE           ?PR?LED_ON?LED
   *DEL*:           00015BH   BYTE   INSEG    CODE           ?PR?CALCULATE_DIFFERENTIAL_DRIVE?TRANK
   *DEL*:           0001C2H   BYTE   INSEG    CODE           ?PR?PID_CALC?TRANK
   *DEL*:           0000C8H   BYTE   INSEG    CODE           ?PR?DUAL_LOOP_CONTROL?TRANK
   *DEL*:           000226H   BYTE   INSEG    CODE           ?PR?INCPID_CALC?TRANK
   *DEL*:           000074H   BYTE   INSEG    CODE           ?PR?DIR_CONTROL?TRANK
   *DEL*:           000049H   BYTE   INSEG    CODE           ?PR?RANGE_PROTECT_INT?INDUCTANCE
   *DEL*:           000137H   BYTE   INSEG    CODE           ?PR?MEDIAN_AVERAGE_FILTER?INDUCTANCE
   *DEL*:           000089H   BYTE   INSEG    CODE           ?PR?ADC_NORMALIZE_0_100?INDUCTANCE
   *DEL*:           00019AH   BYTE   INSEG    CODE           ?PR?INDUCTANCE_READ?INDUCTANCE
   *DEL*:           000069H   BYTE   INSEG    CODE           ?PR?RANGE_PROTECT_FLOAT?INDUCTANCE
   *DEL*:           0000DDH   BYTE   INSEG    CODE           ?PR?INDUCTANCE_COUNT_ERR?INDUCTANCE
   *DEL*:           0000A5H   BYTE   INSEG    CODE           ?PR?SEND_DATA_TO_PC?MENU
   *DEL*:           000095H   BYTE   INSEG    CODE           ?PR?MENU_INIT?MENU
   *DEL*:           0000FBH   BYTE   INSEG    CODE           ?PR?MENU_DISPLAY?MENU
   *DEL*:           000111H   BYTE   INSEG    CODE           ?PR?PARAMETER_DEBUG?MENU
   *DEL*:           0000F2H   BYTE   INSEG    CODE           ?PR?POW?_?POW
   *DEL*:           000037H   BYTE   INSEG    CODE           ?PR?STRNCMP?_?STRNCMP
   *DEL*:           000030H   BYTE   INSEG    CODE           ?PR?STRNCPY?_?STRNCPY
   *DEL*:           00000EH   BYTE   INSEG    CODE           ?PR?STRLEN?_?STRLEN
   *DEL*:           00001FH   BYTE   INSEG    CODE           ?PR?STRCHR?_?STRCHR
   *DEL*:           00001AH   BYTE   INSEG    CODE           ?PR?MEMSET?_?MEMSET



OVERLAY MAP OF MODULE:   .\out_file\SEEKFREE (?C_START)


FUNCTION/MODULE                               XDATA_GROUP
--> CALLED FUNCTION/MODULE                    START  STOP
L251 LINKER/LOCATER V4.66.93.0                                                        04/22/2026  19:49:03  PAGE 19


=========================================================
?C_C51STARTUP                                 ----- -----

*** NEW ROOT ********************************

?C_C51STARTUP?3                               ----- -----
  +--> main/main

main/main                                     ----- -----
  +--> _m/main
  +--> SPRINTF/SPRINTF

_m/main                                       ----- -----
  +--> clock_init/zf_common_clock
  +--> debug_init/zf_common_debug
  +--> ALL_init/all_init
  +--> PID_Init/trank
  +--> gpio_init/zf_driver_gpio
  +--> system_delay_ms/zf_driver_delay
  +--> system_delay_us/zf_driver_delay
  +--> Motor_SetSpeed/moto
  +--> Oscilloscope_Display/menu

clock_init/zf_common_clock                    ----- -----
  +--> set_sys_clk/zf_common_clock
  +--> system_delay_init/zf_driver_delay
  +--> interrupt_global_enable/zf_common_interrupt

set_sys_clk/zf_common_clock                   ----- -----

system_delay_init/zf_driver_delay             ----- -----
  +--> ?C?SLDIV/?C?SLDIV

?C?SLDIV/?C?SLDIV                             ----- -----
  +--> ?C?ULIDIV/?C?ULDIV

?C?ULIDIV/?C?ULDIV                            ----- -----

interrupt_global_enable/zf_common_interr+     ----- -----
... upt

debug_init/zf_common_debug                    ----- -----
  +--> uart_init/zf_driver_uart
  +--> fifo_init/zf_common_fifo
  +--> uart_rx_interrupt/zf_driver_uart
  +--> debug_interrupr_handler/zf_common_debug

uart_init/zf_driver_uart                      ----- -----
  +--> uart_funciton_check/zf_driver_uart
  +--> debug_assert_handler/zf_common_debug
  +--> timer_funciton_check/zf_driver_timer
  +--> gpio_init/zf_driver_gpio
  +--> ?C?ULIDIV/?C?ULDIV
  +--> uart_dma_init/zf_driver_uart

uart_funciton_check/zf_driver_uart            ----- -----

debug_assert_handler/zf_common_debug          ----- -----
  +--> PRINTF/PRINTF
  +--> system_delay_ms/zf_driver_delay

PRINTF/PRINTF                                 11C3H 11EAH
  +--> OUT/PRINTF

OUT/PRINTF                                    ----- -----
L251 LINKER/LOCATER V4.66.93.0                                                        04/22/2026  19:49:03  PAGE 20


  +--> PUTCH/PRINTF

PUTCH/PRINTF                                  ----- -----
  +--> putchar/zf_common_debug
  +--> OUT/PRINTF

putchar/zf_common_debug                       ----- -----
  +--> uart_write_byte/zf_driver_uart

uart_write_byte/zf_driver_uart                ----- -----
  +--> uart_write_buffer/zf_driver_uart

uart_write_buffer/zf_driver_uart              ----- -----
  +--> memcpy?_/memcpy

memcpy?_/memcpy                               ----- -----

system_delay_ms/zf_driver_delay               ----- -----
  +--> delay_cycles/zf_driver_delay

delay_cycles/zf_driver_delay                  ----- -----

timer_funciton_check/zf_driver_timer          ----- -----

gpio_init/zf_driver_gpio                      ----- -----
  +--> debug_assert_handler/zf_common_debug
  +--> gpio_set_dir/zf_driver_gpio
  +--> gpio_set_mode/zf_driver_gpio
  +--> gpio_set_impedance/zf_driver_gpio
  +--> gpio_set_level/zf_driver_gpio

gpio_set_dir/zf_driver_gpio                   ----- -----
  +--> debug_assert_handler/zf_common_debug

gpio_set_mode/zf_driver_gpio                  ----- -----

gpio_set_impedance/zf_driver_gpio             ----- -----

gpio_set_level/zf_driver_gpio                 ----- -----

uart_dma_init/zf_driver_uart                  ----- -----

fifo_init/zf_common_fifo                      ----- -----
  +--> debug_assert_handler/zf_common_debug

uart_rx_interrupt/zf_driver_uart              ----- -----

debug_interrupr_handler/zf_common_debug       ----- -----
  +--> uart_query_byte/zf_driver_uart
  +--> fifo_write_buffer/zf_common_fifo

uart_query_byte/zf_driver_uart                ----- -----
  +--> uart_rx_start_buff/zf_driver_uart

uart_rx_start_buff/zf_driver_uart             ----- -----

fifo_write_buffer/zf_common_fifo              ----- -----
  +--> debug_assert_handler/zf_common_debug
  +--> memcpy?_/memcpy
  +--> fifo_head_offset/zf_common_fifo

fifo_head_offset/zf_common_fifo               ----- -----

ALL_init/all_init                             ----- -----
  +--> imu660ra_init/zf_device_imu660ra
L251 LINKER/LOCATER V4.66.93.0                                                        04/22/2026  19:49:03  PAGE 21


  +--> gyro_init/imu
  +--> pwm_init/zf_driver_pwm
  +--> gpio_init/zf_driver_gpio
  +--> ips114_init/zf_device_ips114
  +--> wireless_uart_init/zf_device_wireless_uart
  +--> encoder_init/encoder
  +--> LED_Init/led
  +--> Oscilloscope_Init/menu
  +--> Parameter_Debug_Init/menu
  +--> Inductance_Init/inductance

imu660ra_init/zf_device_imu660ra              ----- -----
  +--> system_delay_ms/zf_driver_delay
  +--> imu660ra_read_register/zf_device_imu660ra
  +--> imu660ra_self_check/zf_device_imu660ra
  +--> PRINTF/PRINTF
  +--> imu660ra_write_register/zf_device_imu660ra
  +--> imu660ra_write_registers/zf_device_imu660ra

imu660ra_read_register/zf_device_imu660r+     ----- -----
... a
  +--> imu660ra_simspi_r_reg_bytes/zf_device_imu660ra

imu660ra_simspi_r_reg_bytes/zf_device_im+     ----- -----
... u660ra
  +--> imu660ra_simspi_wr_byte/zf_device_imu660ra

imu660ra_simspi_wr_byte/zf_device_imu660+     ----- -----
... ra

imu660ra_self_check/zf_device_imu660ra        ----- -----
  +--> imu660ra_read_register/zf_device_imu660ra
  +--> PRINTF/PRINTF
  +--> system_delay_ms/zf_driver_delay

imu660ra_write_register/zf_device_imu660+     ----- -----
... ra
  +--> imu660ra_simspi_w_reg_byte/zf_device_imu660ra

imu660ra_simspi_w_reg_byte/zf_device_imu+     ----- -----
... 660ra
  +--> imu660ra_simspi_wr_byte/zf_device_imu660ra

imu660ra_write_registers/zf_device_imu66+     ----- -----
... 0ra
  +--> imu660ra_simspi_w_reg_bytes/zf_device_imu660ra

imu660ra_simspi_w_reg_bytes/zf_device_im+     ----- -----
... u660ra
  +--> imu660ra_simspi_wr_byte/zf_device_imu660ra

gyro_init/imu                                 ----- -----
  +--> IMU_gyro_Offset_Init/imu
  +--> KalmanCreate/imu

IMU_gyro_Offset_Init/imu                      ----- -----
  +--> system_delay_ms/zf_driver_delay

KalmanCreate/imu                              ----- -----

pwm_init/zf_driver_pwm                        ----- -----
  +--> debug_assert_handler/zf_common_debug
  +--> gpio_init/zf_driver_gpio
  +--> ?C?ULIDIV/?C?ULDIV

L251 LINKER/LOCATER V4.66.93.0                                                        04/22/2026  19:49:03  PAGE 22


ips114_init/zf_device_ips114                  ----- -----
  +--> debug_assert_handler/zf_common_debug
  +--> spi_init/zf_driver_spi
  +--> ips114_set_dir/zf_device_ips114
  +--> ips114_set_color/zf_device_ips114
  +--> system_delay_ms/zf_driver_delay
  +--> ips114_write_index/zf_device_ips114
  +--> spi_write_8bit/zf_driver_spi
  +--> ips114_clear/zf_device_ips114

spi_init/zf_driver_spi                        ----- -----
  +--> debug_assert_handler/zf_common_debug
  +--> gpio_init/zf_driver_gpio
  +--> gpio_set_level_speed/zf_driver_gpio
  +--> ?C?ULIDIV/?C?ULDIV
  +--> uart_funciton_check/zf_driver_uart

gpio_set_level_speed/zf_driver_gpio           ----- -----

ips114_set_dir/zf_device_ips114               ----- -----

ips114_set_color/zf_device_ips114             ----- -----

ips114_write_index/zf_device_ips114           ----- -----
  +--> spi_write_8bit/zf_driver_spi

spi_write_8bit/zf_driver_spi                  ----- -----
  +--> spi_write_dat/zf_driver_spi

spi_write_dat/zf_driver_spi                   ----- -----
  +--> debug_assert_handler/zf_common_debug

ips114_clear/zf_device_ips114                 ----- -----
  +--> ips114_set_region/zf_device_ips114
  +--> spi_write_16bit/zf_driver_spi

ips114_set_region/zf_device_ips114            ----- -----
  +--> debug_assert_handler/zf_common_debug
  +--> ips114_write_index/zf_device_ips114
  +--> spi_write_16bit/zf_driver_spi

spi_write_16bit/zf_driver_spi                 ----- -----
  +--> spi_write_dat/zf_driver_spi

wireless_uart_init/zf_device_wireless_ua+     ----- -----
... rt
  +--> wireless_uart_callback/zf_device_wireless_uart
  +--> set_wireless_type/zf_device_type
  +--> fifo_init/zf_common_fifo
  +--> gpio_init/zf_driver_gpio
  +--> uart_init/zf_driver_uart
  +--> uart_rx_interrupt/zf_driver_uart

wireless_uart_callback/zf_device_wireles+     ----- -----
... s_uart
  +--> fifo_write_buffer/zf_common_fifo

set_wireless_type/zf_device_type              ----- -----

encoder_init/encoder                          ----- -----
  +--> pit_handler/encoder
  +--> ?C?SLDIV/?C?SLDIV
  +--> pit_init/zf_driver_pit
  +--> encoder_dir_init/zf_driver_encoder

L251 LINKER/LOCATER V4.66.93.0                                                        04/22/2026  19:49:03  PAGE 23


pit_handler/encoder                           ----- -----
  +--> imu660ra_get_acc/zf_device_imu660ra
  +--> imu660ra_get_gyro/zf_device_imu660ra
  +--> gyro_proc/imu

imu660ra_get_acc/zf_device_imu660ra           ----- -----
  +--> imu660ra_read_registers/zf_device_imu660ra

imu660ra_read_registers/zf_device_imu660+     ----- -----
... ra
  +--> imu660ra_simspi_r_reg_bytes/zf_device_imu660ra

imu660ra_get_gyro/zf_device_imu660ra          ----- -----
  +--> imu660ra_read_registers/zf_device_imu660ra

gyro_proc/imu                                 ----- -----
  +--> IMU_GetValues/imu
  +--> IMU_YAW_integral/imu
  +--> First_complement_Init/imu

IMU_GetValues/imu                             ----- -----
  +--> imu660ra_get_gyro/zf_device_imu660ra
  +--> imu660ra_get_acc/zf_device_imu660ra

IMU_YAW_integral/imu                          ----- -----
  +--> IMU_Handle_180/imu
  +--> IMU_Handle_360/imu
  +--> IMU_Handle_0/imu

IMU_Handle_180/imu                            ----- -----

IMU_Handle_360/imu                            ----- -----

IMU_Handle_0/imu                              ----- -----

First_complement_Init/imu                     ----- -----
  +--> KalmanFilter/imu
  +--> My_abs/imu

KalmanFilter/imu                              ----- -----

My_abs/imu                                    ----- -----

pit_init/zf_driver_pit                        ----- -----
  +--> ?C?ULIDIV/?C?ULDIV

encoder_dir_init/zf_driver_encoder            ----- -----
  +--> timer_funciton_check/zf_driver_timer
  +--> debug_assert_handler/zf_common_debug
  +--> gpio_init/zf_driver_gpio

LED_Init/led                                  ----- -----
  +--> gpio_init/zf_driver_gpio

Oscilloscope_Init/menu                        ----- -----
  +--> wireless_uart_send_buffer/zf_device_wireless_uart

wireless_uart_send_buffer/zf_device_wire+     ----- -----
... less_uart
  +--> debug_assert_handler/zf_common_debug
  +--> gpio_get_level/zf_driver_gpio
  +--> uart_write_buffer/zf_driver_uart
  +--> system_delay_ms/zf_driver_delay

gpio_get_level/zf_driver_gpio                 ----- -----
L251 LINKER/LOCATER V4.66.93.0                                                        04/22/2026  19:49:03  PAGE 24



Parameter_Debug_Init/menu                     ----- -----
  +--> wireless_uart_read_buffer/zf_device_wireless_uart
  +--> seekfree_assistant_init/seekfree_assistant

wireless_uart_read_buffer/zf_device_wire+     ----- -----
... less_uart
  +--> debug_assert_handler/zf_common_debug
  +--> fifo_read_buffer/zf_common_fifo

fifo_read_buffer/zf_common_fifo               ----- -----
  +--> debug_assert_handler/zf_common_debug
  +--> fifo_used/zf_common_fifo
  +--> memcpy?_/memcpy
  +--> fifo_end_offset/zf_common_fifo

fifo_used/zf_common_fifo                      ----- -----
  +--> debug_assert_handler/zf_common_debug

fifo_end_offset/zf_common_fifo                ----- -----

seekfree_assistant_init/seekfree_assista+     ----- -----
... nt
  +--> fifo_init/zf_common_fifo

Inductance_Init/inductance                    ----- -----
  +--> adc_init/zf_driver_adc

adc_init/zf_driver_adc                        ----- -----

PID_Init/trank                                ----- -----

system_delay_us/zf_driver_delay               ----- -----
  +--> delay_cycles/zf_driver_delay

Motor_SetSpeed/moto                           ----- -----
  +--> gpio_set_level/zf_driver_gpio
  +--> ABS/moto
  +--> pwm_set_duty/zf_driver_pwm

ABS/moto                                      ----- -----

pwm_set_duty/zf_driver_pwm                    ----- -----
  +--> debug_assert_handler/zf_common_debug

Oscilloscope_Display/menu                     ----- -----
  +--> seekfree_assistant_oscilloscope_send/seekfree_assistant

seekfree_assistant_oscilloscope_send/see+     ----- -----
... kfree_assistant
  +--> seekfree_assistant_sum/seekfree_assistant

seekfree_assistant_sum/seekfree_assistan+     ----- -----
... t

SPRINTF/SPRINTF                               11C3H 11EAH
  +--> OUT/SPRINTF

OUT/SPRINTF                                   ----- -----
  +--> PUTCH/SPRINTF

PUTCH/SPRINTF                                 ----- -----

*** NEW ROOT ********************************

L251 LINKER/LOCATER V4.66.93.0                                                        04/22/2026  19:49:03  PAGE 25


INT0_IRQHandler/isr                           ----- -----

*** NEW ROOT ********************************

INT1_IRQHandler/isr                           ----- -----

*** NEW ROOT ********************************

INT2_IRQHandler/isr                           ----- -----

*** NEW ROOT ********************************

INT3_IRQHandler/isr                           ----- -----

*** NEW ROOT ********************************

INT4_IRQHandler/isr                           ----- -----

*** NEW ROOT ********************************

DMA_UART1_IRQHandler/isr                      ----- -----
  +--> uart_rx_start_buff/zf_driver_uart

*** NEW ROOT ********************************

DMA_UART2_IRQHandler/isr                      ----- -----
  +--> uart_rx_start_buff/zf_driver_uart

*** NEW ROOT ********************************

DMA_UART3_IRQHandler/isr                      ----- -----
  +--> uart_rx_start_buff/zf_driver_uart

*** NEW ROOT ********************************

DMA_UART4_IRQHandler/isr                      ----- -----
  +--> uart_rx_start_buff/zf_driver_uart

*** NEW ROOT ********************************

TM0_IRQHandler/isr                            ----- -----

*** NEW ROOT ********************************

TM1_IRQHandler/isr                            ----- -----

*** NEW ROOT ********************************

TM2_IRQHandler/isr                            ----- -----

*** NEW ROOT ********************************

TM3_IRQHandler/isr                            ----- -----

*** NEW ROOT ********************************

TM4_IRQHandler/isr                            ----- -----

*** NEW ROOT ********************************

?C_C51STARTUP?2                               ----- -----



PUBLIC SYMBOLS OF MODULE:  .\out_file\SEEKFREE (?C_START)
L251 LINKER/LOCATER V4.66.93.0                                                        04/22/2026  19:49:03  PAGE 26




      VALUE       CLASS    TYPE      PUBLIC SYMBOL NAME
      =================================================
      00FF304AH   CODE     ---       ?C?BMOVEPP
      00FF3048H   CODE     ---       ?C?BMOVEPP8
      00FF243EH   CODE     NEAR LAB  ?C?CASTF
      000000FFH   NUMBER   ---       ?C?CODESEG
      00FF240BH   CODE     NEAR LAB  ?C?FCASTC
      00FF2406H   CODE     NEAR LAB  ?C?FCASTI
      00FF2401H   CODE     NEAR LAB  ?C?FCASTL
      00FF2C4BH   CODE     ---       ?C?FP2SERIES
      00FF21D4H   CODE     ---       ?C?FPADD
      00FF23AFH   CODE     ---       ?C?FPCMP
      00FF23ADH   CODE     ---       ?C?FPCMP3
      00FF2E13H   CODE     ---       ?C?FPCONVERT
      00FF232CH   CODE     ---       ?C?FPDIV
      00FF27A1H   CODE     ---       ?C?FPGETOPN2
      00FF228CH   CODE     ---       ?C?FPMUL
      00FF27DEH   CODE     ---       ?C?FPNANRESULT
      00FF23F3H   CODE     ---       ?C?FPNEG
      00FF27E6H   CODE     ---       ?C?FPOVERFLOW
      00FF27BAH   CODE     ---       ?C?FPRESULT
      00FF27D0H   CODE     ---       ?C?FPRESULT2
      00FF2ECBH   CODE     ---       ?C?FPROUND
      00FF2C54H   CODE     ---       ?C?FPSERIES
      00FF21D1H   CODE     ---       ?C?FPSUB
      00FF27E3H   CODE     ---       ?C?FPUNDERFLOW
      00FF2F3EH   CODE     ---       ?C?FTNPWR
      00FF9D05H   CODE     ---       ?C?INITHDATA
      00FFA9AAH   HCONST   WORD      ?C?INITHDATA_END
      00FF2FB8H   CODE     ---       ?C?LIMUL
      00FF2FA7H   CODE     ---       ?C?LMUL
      00FF283CH   CODE     ---       ?C?PRNFMT
      00FF2F75H   CODE     ---       ?C?SIDIV
      00FF3014H   CODE     NEAR LAB  ?C?SLDIV
      00FF0000H   CODE     ---       ?C?STARTUP
      00FF2FC3H   CODE     NEAR LAB  ?C?ULDIV
      00FF2FC1H   CODE     NEAR LAB  ?C?ULIDIV
      00000001H   NUMBER   ---       ?C?XDATASEG
      00FF0000H   CODE     ---       ?C_STARTUP
      00011F56H   XDATA    BYTE      ?Calculate_Differential_Drive?BYTE
      00011B22H   XDATA    BYTE      ?eeprom_read?BYTE
      0001177FH   XDATA    BYTE      ?fifo_init?BYTE
      00011437H   XDATA    BYTE      ?fifo_read_buffer?BYTE
      000115D4H   XDATA    BYTE      ?fifo_write_buffer?BYTE
      00011368H   XDATA    BYTE      ?get_two_points_azimuth?BYTE
      00010FA9H   XDATA    BYTE      ?get_two_points_distance?BYTE
      00011AE6H   XDATA    BYTE      ?iap_read_buff?BYTE
      00011AF0H   XDATA    BYTE      ?iap_write_buff?BYTE
      000113ECH   XDATA    BYTE      ?ips114_show_chinese?BYTE
      00010FD9H   XDATA    BYTE      ?ips114_show_float?BYTE
      00011232H   XDATA    BYTE      ?ips114_show_wave?BYTE
      00011405H   XDATA    BYTE      ?ips200_show_chinese?BYTE
      00011009H   XDATA    BYTE      ?ips200_show_float?BYTE
      00011252H   XDATA    BYTE      ?ips200_show_wave?BYTE
      00011384H   XDATA    BYTE      ?ips200pro_create_widgets?BYTE
      0001119BH   XDATA    BYTE      ?ips200pro_image_display?BYTE
      000113B9H   XDATA    BYTE      ?ips200pro_image_draw_line?BYTE
      00011210H   XDATA    BYTE      ?ips200pro_image_draw_rectangle?BYTE
      00010F5AH   XDATA    BYTE      ?ips200pro_label_printf?BYTE
      000118B8H   XDATA    BYTE      ?ips200pro_receive_buffer?BYTE
      0001180BH   XDATA    BYTE      ?ips200pro_send_buffer?BYTE
      00010ED4H   XDATA    BYTE      ?ips200pro_table_cell_printf?BYTE
      0001139FH   XDATA    BYTE      ?ips200pro_waveform_add_value?BYTE
L251 LINKER/LOCATER V4.66.93.0                                                        04/22/2026  19:49:03  PAGE 27


      000112D1H   XDATA    BYTE      ?ips200pro_write_packet?BYTE
      00011A60H   XDATA    BYTE      ?KalmanCreate?BYTE
      00011292H   XDATA    BYTE      ?Oscilloscope_Display?BYTE
      0001141EH   XDATA    BYTE      ?Parameter_Debug?BYTE
      00011A6CH   XDATA    BYTE      ?PID_Calc?BYTE
      0001147FH   XDATA    BYTE      ?PID_Init?BYTE
      000111EBH   XDATA    ---       ?printf?BYTE
      000115E6H   XDATA    BYTE      ?pwm_init?BYTE
      000114E9H   XDATA    BYTE      ?pwm_set_freq?BYTE
      00011A78H   XDATA    BYTE      ?range_protect_float?BYTE
      000112F0H   XDATA    BYTE      ?seekfree_assistant_camera_boundary_config?BYTE
      00011770H   XDATA    BYTE      ?seekfree_assistant_camera_data_send?BYTE
      00011B54H   XDATA    BYTE      ?seekfree_assistant_camera_information_config?BYTE
      0001186AH   XDATA    BYTE      ?soft_iic_init?BYTE
      00011910H   XDATA    BYTE      ?soft_iic_read_16bit_array?BYTE
      000117B7H   XDATA    BYTE      ?soft_iic_read_16bit_registers?BYTE
      00011904H   XDATA    BYTE      ?soft_iic_read_8bit_array?BYTE
      0001185DH   XDATA    BYTE      ?soft_iic_read_8bit_registers?BYTE
      00011511H   XDATA    BYTE      ?soft_iic_transfer_16bit_array?BYTE
      000114FDH   XDATA    BYTE      ?soft_iic_transfer_8bit_array?BYTE
      000118F8H   XDATA    BYTE      ?soft_iic_write_16bit_array?BYTE
      000117A9H   XDATA    BYTE      ?soft_iic_write_16bit_registers?BYTE
      000118ECH   XDATA    BYTE      ?soft_iic_write_8bit_array?BYTE
      00011850H   XDATA    BYTE      ?soft_iic_write_8bit_registers?BYTE
      00011497H   XDATA    BYTE      ?soft_spi_init?BYTE
      00011940H   XDATA    BYTE      ?soft_spi_read_16bit_array?BYTE
      000117D3H   XDATA    BYTE      ?soft_spi_read_16bit_registers?BYTE
      00011934H   XDATA    BYTE      ?soft_spi_read_8bit_array?BYTE
      00011884H   XDATA    BYTE      ?soft_spi_read_8bit_registers?BYTE
      000116D6H   XDATA    BYTE      ?soft_spi_transfer_16bit?BYTE
      000116C6H   XDATA    BYTE      ?soft_spi_transfer_8bit?BYTE
      00011928H   XDATA    BYTE      ?soft_spi_write_16bit_array?BYTE
      000117C5H   XDATA    BYTE      ?soft_spi_write_16bit_registers?BYTE
      0001191CH   XDATA    BYTE      ?soft_spi_write_8bit_array?BYTE
      00011877H   XDATA    BYTE      ?soft_spi_write_8bit_registers?BYTE
      00011525H   XDATA    BYTE      ?spi_init?BYTE
      00011B18H   XDATA    BYTE      ?spi_read_16bit_array?BYTE
      00011958H   XDATA    BYTE      ?spi_read_16bit_registers?BYTE
      00011B0EH   XDATA    BYTE      ?spi_read_8bit_array?BYTE
      00011AB0H   XDATA    BYTE      ?spi_read_8bit_registers?BYTE
      000117EFH   XDATA    BYTE      ?spi_transfer_16bit?BYTE
      000117E1H   XDATA    BYTE      ?spi_transfer_8bit?BYTE
      00011B04H   XDATA    BYTE      ?spi_write_16bit_array?BYTE
      0001194CH   XDATA    BYTE      ?spi_write_16bit_registers?BYTE
      00011AFAH   XDATA    BYTE      ?spi_write_8bit_array?BYTE
      00011AA5H   XDATA    BYTE      ?spi_write_8bit_registers?BYTE
      000111EBH   XDATA    ---       ?sprintf?BYTE
      00011039H   XDATA    BYTE      ?tft180_show_float?BYTE
      00011272H   XDATA    BYTE      ?tft180_show_wave?BYTE
      0001197CH   XDATA    BYTE      ?uart_init?BYTE
      00010DC2H   XDATA    BYTE      ?vsnprintf?BYTE
      00010C84H   XDATA    BYTE      ?zf_sprintf?BYTE
      00FF27F2H   CODE     ---       _chkfloat_?_
      00FF7294H   CODE     ---       _m
      00FFA2A8H   CODE     ---       ABS
*SFR* 000000D0H.6 DATA     BIT       AC
*SFR* 000000E0H   DATA     BYTE      ACC
      00011A85H   XDATA    ---       adc_average
*DEL*:00000000H   CODE     ---       ADC_Collect
*SFR* 000000BCH   DATA     BYTE      ADC_CONTR
*DEL*:00000000H   CODE     ---       adc_convert
      00010840H   XDATA    ---       adc_inductance
      00FF8B1EH   CODE     ---       adc_init
*DEL*:00000000H   CODE     ---       adc_mean_filter_convert
*DEL*:00000000H   CODE     ---       ADC_Normalize_0_100
L251 LINKER/LOCATER V4.66.93.0                                                        04/22/2026  19:49:03  PAGE 28


*SFR* 000000BDH   DATA     BYTE      ADC_RES
*SFR* 000000BEH   DATA     BYTE      ADC_RESL
*SFR* 000000DEH   DATA     BYTE      ADCCFG
      00FF9937H   CODE     ---       ALL_init
      00FF36B4H   CODE     ---       ascii_font_8x16
      00FF2781H   CODE     ---       asin?_
      00FF26AFH   CODE     ---       atan?_
*SFR* 000000EFH   DATA     BYTE      AUXINTIF
*SFR* 0000008EH   DATA     BYTE      AUXR
*SFR* 00000097H   DATA     BYTE      AUXR2
*SFR* 000000F0H   DATA     BYTE      B
*DEL*:00000000H   CODE     ---       ble6a20_callback
*DEL*:00000000H   CODE     ---       ble6a20_init
*DEL*:00000000H   CODE     ---       ble6a20_read_buffer
*DEL*:00000000H   CODE     ---       ble6a20_send_buffer
*DEL*:00000000H   CODE     ---       ble6a20_send_byte
*DEL*:00000000H   CODE     ---       ble6a20_send_string
*SFR* 000000C8H.1 DATA     BIT       C_T2
*DEL*:00000000H   CODE     ---       Calculate_Differential_Drive
*SFR* 000000F1H   DATA     BYTE      CANICR
*SFR* 000000FAH   DATA     BYTE      CCAP0H
*SFR* 000000EAH   DATA     BYTE      CCAP0L
*SFR* 000000FBH   DATA     BYTE      CCAP1H
*SFR* 000000EBH   DATA     BYTE      CCAP1L
*SFR* 000000FCH   DATA     BYTE      CCAP2H
*SFR* 000000ECH   DATA     BYTE      CCAP2L
*SFR* 000000FDH   DATA     BYTE      CCAP3H
*SFR* 000000EDH   DATA     BYTE      CCAP3L
*SFR* 000000FEH   DATA     BYTE      CCAP4H
*SFR* 000000EEH   DATA     BYTE      CCAP4L
*SFR* 000000DAH   DATA     BYTE      CCAPM0
*SFR* 000000DBH   DATA     BYTE      CCAPM1
*SFR* 000000DCH   DATA     BYTE      CCAPM2
*SFR* 000000DDH   DATA     BYTE      CCAPM3
*SFR* 000000DEH   DATA     BYTE      CCAPM4
*SFR* 000000D8H.0 DATA     BIT       CCF0
*SFR* 000000D8H.1 DATA     BIT       CCF1
*SFR* 000000D8H.2 DATA     BIT       CCF2
*SFR* 000000D8H.3 DATA     BIT       CCF3
*SFR* 000000D8H.4 DATA     BIT       CCF4
*SFR* 000000D8H   DATA     BYTE      CCON
*SFR* 00000090H.3 DATA     BIT       CEX0
*SFR* 00000090H.4 DATA     BIT       CEX1
*SFR* 00000090H.5 DATA     BIT       CEX2
*SFR* 00000090H.6 DATA     BIT       CEX3
*SFR* 00000090H.7 DATA     BIT       CEX4
*SFR* 000000D8H.7 DATA     BIT       CF
*SFR* 000000F9H   DATA     BYTE      CH
*SFR* 000000EAH   DATA     BYTE      CKCON
*SFR* 000000E9H   DATA     BYTE      CL
      00FF95D2H   CODE     ---       clock_init
*SFR* 000000D9H   DATA     BYTE      CMOD
*SFR* 000000E6H   DATA     BYTE      CMPCR1
*SFR* 000000E7H   DATA     BYTE      CMPCR2
      00FF259FH   CODE     ---       cos?_
*SFR* 000000C8H.0 DATA     BIT       CP_RL2
*SFR* 000000D8H.6 DATA     BIT       CR
*SFR* 000000D0H.7 DATA     BIT       CY
      00010A94H   XDATA    ---       data_buffer
      000107F6H   XDATA    FLOAT     Daty_X
      000107FAH   XDATA    FLOAT     Daty_Y
      000107FEH   XDATA    FLOAT     Daty_Z
      00FF97D6H   CODE     ---       debug_assert_handler
      00FF8EC5H   CODE     ---       debug_init
      00FFA05AH   CODE     ---       debug_interrupr_handler
L251 LINKER/LOCATER V4.66.93.0                                                        04/22/2026  19:49:03  PAGE 29


*DEL*:00000000H   CODE     ---       debug_read_buffer
*DEL*:00000000H   CODE     ---       debug_send_buffer
      00010CBBH   XDATA    ---       debug_uart_buffer
      00010CFCH   XDATA    ---       debug_uart_fifo
*DEL*:00000000H   CODE     ---       Dir_Control
      0001189AH   XDATA    WORD      dl1a_distance_mm
      0001189CH   XDATA    BYTE      dl1a_finsh_flag
*DEL*:00000000H   CODE     ---       dl1a_get_distance
*DEL*:00000000H   CODE     ---       dl1a_init
*DEL*:00000000H   CODE     ---       dl1a_int_handler
      000118A7H   XDATA    WORD      dl1b_distance_mm
      000118A9H   XDATA    BYTE      dl1b_finsh_flag
*DEL*:00000000H   CODE     ---       dl1b_get_distance
*DEL*:00000000H   CODE     ---       dl1b_init
*DEL*:00000000H   CODE     ---       dl1b_int_handler
      00FF8E15H   CODE     ---       DMA_UART1_IRQHandler
      00FF9291H   CODE     ---       DMA_UART2_IRQHandler
      00FF9320H   CODE     ---       DMA_UART3_IRQHandler
      00FF93AFH   CODE     ---       DMA_UART4_IRQHandler
*SFR* 00000083H   DATA     BYTE      DPH
*SFR* 00000082H   DATA     BYTE      DPL
*SFR* 00000084H   DATA     BYTE      DPXL
*DEL*:00000000H   CODE     ---       Dual_Loop_Control
*SFR* 000000A8H.7 DATA     BIT       EA
*SFR* 000000BAH.7 DATA     BIT       EAXFR
*SFR* 000000A8H.6 DATA     BIT       EC
*SFR* 00000090H.2 DATA     BIT       ECI
*DEL*:00000000H   CODE     ---       eeprom_init
*DEL*:00000000H   CODE     ---       eeprom_read
*DEL*:00000000H   CODE     ---       eeprom_read_value
*DEL*:00000000H   CODE     ---       eeprom_trig
*DEL*:00000000H   CODE     ---       eeprom_write_value
      00010940H   XDATA    FLOAT     elemid
      00010830H   XDATA    FLOAT     eleOut_0
      00010834H   XDATA    FLOAT     eleOut_1
      00010886H   XDATA    FLOAT     eleValue
*DEL*:00000000H   CODE     ---       encoder_clear_count
      00FF84E4H   CODE     ---       encoder_dir_init
*DEL*:00000000H   CODE     ---       encoder_get_count
      00FFA182H   CODE     ---       encoder_init
*SFR* 000000A8H.4 DATA     BIT       ES
*SFR* 000000A8H.1 DATA     BIT       ET0
*SFR* 000000A8H.3 DATA     BIT       ET1
*SFR* 000000A8H.5 DATA     BIT       ET2
*SFR* 000000A8H.0 DATA     BIT       EX0
*SFR* 000000A8H.2 DATA     BIT       EX1
*SFR* 0000008FH.4 DATA     BIT       EX2
*SFR* 0000008FH.5 DATA     BIT       EX3
*SFR* 0000008FH.6 DATA     BIT       EX4
*SFR* 000000C8H.3 DATA     BIT       EXEN2
*SFR* 000000C8H.6 DATA     BIT       EXF2
      00FF2CB1H   CODE     ---       exp?_
*DEL*:00000000H   CODE     ---       extern_iap_write_buff
*DEL*:00000000H   CODE     ---       exti_all_close
*DEL*:00000000H   CODE     ---       exti_disable
*DEL*:00000000H   CODE     ---       exti_enable
*DEL*:00000000H   CODE     ---       exti_init
*SFR* 000000D0H.5 DATA     BIT       F0
*DEL*:00000000H   CODE     ---       fast_sqrt
*SFR* 00000098H.7 DATA     BIT       FE
*DEL*:00000000H   CODE     ---       fifo_clear
      00FF86DFH   CODE     ---       fifo_init
      00FF3CA4H   CODE     ---       fifo_read_buffer
      00FF9C33H   CODE     ---       fifo_used
      00FF4255H   CODE     ---       fifo_write_buffer
L251 LINKER/LOCATER V4.66.93.0                                                        04/22/2026  19:49:03  PAGE 30


      000107CAH   XDATA    ---       first_complement
      00FF525AH   CODE     ---       First_complement_Init
*DEL*:00000000H   CODE     ---       func_double_to_str
*DEL*:00000000H   CODE     ---       func_float_to_str
*DEL*:00000000H   CODE     ---       func_get_greatest_common_divisor
*DEL*:00000000H   CODE     ---       func_hex_to_str
*DEL*:00000000H   CODE     ---       func_int_to_str
*DEL*:00000000H   CODE     ---       func_soft_delay
*DEL*:00000000H   CODE     ---       func_str_to_double
*DEL*:00000000H   CODE     ---       func_str_to_float
*DEL*:00000000H   CODE     ---       func_str_to_hex
*DEL*:00000000H   CODE     ---       func_str_to_int
*DEL*:00000000H   CODE     ---       func_str_to_uint
*DEL*:00000000H   CODE     ---       func_uint_to_str
*DEL*:00000000H   CODE     ---       get_two_points_azimuth
*DEL*:00000000H   CODE     ---       get_two_points_distance
      00FF7E0BH   CODE     ---       gpio_get_level
      00FF83D5H   CODE     ---       gpio_init
      00FF7452H   CODE     ---       gpio_set_impedance
      00FF68D0H   CODE     ---       gpio_set_level
      00FF5632H   CODE     ---       gpio_set_level_speed
*DEL*:00000000H   CODE     ---       gpio_toggle_level
*DEL*:00000000H   CODE     ---       gps_data_parse
      000105D0H   XDATA    INT       gps_gga_state
*DEL*:00000000H   CODE     ---       gps_init
      000105D2H   XDATA    INT       gps_rmc_state
      000104A4H   XDATA    ---       gps_tau1201
      00010423H   XDATA    BYTE      gps_tau1201_flag
      00011D28H   XDATA    INT       gps_type
*DEL*:00000000H   CODE     ---       gps_uart_callback
      00010A14H   XDATA    ---       gyro_buffer
      00FF9D8CH   CODE     ---       gyro_init
      00010812H   XDATA    ---       Gyro_Offset
      0001077AH   XDATA    FLOAT     gyro_Offset_flag
      000108C8H   XDATA    ---       Gyro_PID
      00FF019EH   CODE     ---       gyro_proc
      000108C6H   XDATA    INT       Gyro_Z
      000107BEH   XDATA    FLOAT     gyrox
      000107C2H   XDATA    FLOAT     gyroy
      000107C6H   XDATA    FLOAT     gyroz
*SFR* 000000F6H   DATA     BYTE      IAP_ADDRE
*SFR* 000000C3H   DATA     BYTE      IAP_ADDRH
*SFR* 000000C4H   DATA     BYTE      IAP_ADDRL
*SFR* 000000C5H   DATA     BYTE      IAP_CMD
*SFR* 000000C7H   DATA     BYTE      IAP_CONTR
*SFR* 000000C2H   DATA     BYTE      IAP_DATA
*DEL*:00000000H   CODE     ---       iap_erase_page
*DEL*:00000000H   CODE     ---       iap_get_cmd_state
*DEL*:00000000H   CODE     ---       iap_idle
*DEL*:00000000H   CODE     ---       iap_init
*DEL*:00000000H   CODE     ---       iap_read_buff
*DEL*:00000000H   CODE     ---       iap_read_byte
*DEL*:00000000H   CODE     ---       iap_set_tps
*SFR* 000000F5H   DATA     BYTE      IAP_TPS
*SFR* 000000C6H   DATA     BYTE      IAP_TRIG
*DEL*:00000000H   CODE     ---       iap_write_buff
*DEL*:00000000H   CODE     ---       iap_write_byte
      00011539H   XDATA    INT       icm20602_acc_x
      0001153BH   XDATA    INT       icm20602_acc_y
      0001153DH   XDATA    INT       icm20602_acc_z
*DEL*:00000000H   CODE     ---       icm20602_get_acc
*DEL*:00000000H   CODE     ---       icm20602_get_gyro
      0001153FH   XDATA    INT       icm20602_gyro_x
      00011541H   XDATA    INT       icm20602_gyro_y
      00011543H   XDATA    INT       icm20602_gyro_z
L251 LINKER/LOCATER V4.66.93.0                                                        04/22/2026  19:49:03  PAGE 31


*DEL*:00000000H   CODE     ---       icm20602_init
      00011545H   XDATA    ---       icm20602_transition_factor
*SFR* 000000A8H   DATA     BYTE      IE
*SFR* 000000A8H   DATA     BYTE      IE0
*SFR* 00000088H.1 DATA     BIT       IE0_
*SFR* 000000B1H   DATA     BYTE      IE1
*SFR* 00000088H.3 DATA     BIT       IE1_
*SFR* 000000AFH   DATA     BYTE      IE2
      0001154DH   XDATA    INT       imu660ra_acc_x
      0001154FH   XDATA    INT       imu660ra_acc_y
      00011551H   XDATA    INT       imu660ra_acc_z
      00FF01CEH   CODE     ---       imu660ra_config_file
      00FF9B7FH   CODE     ---       imu660ra_get_acc
      00FF9B25H   CODE     ---       imu660ra_get_gyro
      00011553H   XDATA    INT       imu660ra_gyro_x
      00011555H   XDATA    INT       imu660ra_gyro_y
      00011557H   XDATA    INT       imu660ra_gyro_z
      00FF6CF6H   CODE     ---       imu660ra_init
      00011559H   XDATA    ---       imu660ra_transition_factor
*DEL*:00000000H   CODE     ---       imu660rb_acc_transition
      000119D0H   XDATA    INT       imu660rb_acc_x
      000119D2H   XDATA    INT       imu660rb_acc_y
      000119D4H   XDATA    INT       imu660rb_acc_z
*DEL*:00000000H   CODE     ---       imu660rb_get_acc
*DEL*:00000000H   CODE     ---       imu660rb_get_gyro
*DEL*:00000000H   CODE     ---       imu660rb_gyro_transition
      000119D6H   XDATA    INT       imu660rb_gyro_x
      000119D8H   XDATA    INT       imu660rb_gyro_y
      000119DAH   XDATA    INT       imu660rb_gyro_z
*DEL*:00000000H   CODE     ---       imu660rb_init
      0001132DH   XDATA    INT       imu963ra_acc_x
      0001132FH   XDATA    INT       imu963ra_acc_y
      00011331H   XDATA    INT       imu963ra_acc_z
*DEL*:00000000H   CODE     ---       imu963ra_get_acc
*DEL*:00000000H   CODE     ---       imu963ra_get_gyro
*DEL*:00000000H   CODE     ---       imu963ra_get_mag
      00011339H   XDATA    INT       imu963ra_gyro_x
      0001133BH   XDATA    INT       imu963ra_gyro_y
      0001133DH   XDATA    INT       imu963ra_gyro_z
*DEL*:00000000H   CODE     ---       imu963ra_init
      00011333H   XDATA    INT       imu963ra_mag_x
      00011335H   XDATA    INT       imu963ra_mag_y
      00011337H   XDATA    INT       imu963ra_mag_z
      0001133FH   XDATA    ---       imu963ra_transition_factor
      000107DEH   XDATA    ---       IMU_Data
      00FF7C87H   CODE     ---       IMU_GetValues
      00FF8093H   CODE     ---       IMU_gyro_Offset_Init
      00FFA1BAH   CODE     ---       IMU_Handle_0
      00FF81B2H   CODE     ---       IMU_Handle_180
      00FF7604H   CODE     ---       IMU_Handle_360
      00FF8A55H   CODE     ---       IMU_YAW_integral
*DEL*:00000000H   CODE     ---       IncPID_Calc
*DEL*:00000000H   CODE     ---       Inductance_Count_Err
      00FFA364H   CODE     ---       Inductance_Init
*DEL*:00000000H   CODE     ---       Inductance_Read
      00011F96H   XDATA    ---       init_buff
*SFR* 000000B0H.2 DATA     BIT       INT0
      0001131BH   XDATA    ---       int0_irq_handler
      00FF9DDAH   CODE     ---       INT0_IRQHandler
*SFR* 000000B0H.3 DATA     BIT       INT1
      0001131FH   XDATA    ---       int1_irq_handler
      00FF9E1AH   CODE     ---       INT1_IRQHandler
      00011323H   XDATA    ---       int2_irq_handler
      00FF9E5AH   CODE     ---       INT2_IRQHandler
      00011327H   XDATA    ---       int3_irq_handler
L251 LINKER/LOCATER V4.66.93.0                                                        04/22/2026  19:49:03  PAGE 32


      00FF9E9AH   CODE     ---       INT3_IRQHandler
      0001132BH   XDATA    ---       int4_irq_handler
      00FF9EDAH   CODE     ---       INT4_IRQHandler
*SFR* 0000008FH   DATA     BYTE      INTCLKO
*DEL*:00000000H   CODE     ---       interrupt_global_disable
      00FF0006H   CODE     ---       interrupt_global_enable
*DEL*:00000000H   CODE     ---       interrupt_set_priority
*SFR* 000000B8H   DATA     BYTE      IP
*SFR* 000000B5H   DATA     BYTE      IP2
*SFR* 000000B6H   DATA     BYTE      IP2H
*SFR* 000000DFH   DATA     BYTE      IP3
*SFR* 000000EEH   DATA     BYTE      IP3H
*SFR* 000000B7H   DATA     BYTE      IPH
*SFR* 000000B7H   DATA     BYTE      IPH0
*SFR* 000000B8H   DATA     BYTE      IPL0
      00011CDCH   XDATA    WORD      ips114_bgcolor
      00FF94C9H   CODE     ---       ips114_clear
      00011CDEH   XDATA    INT       ips114_display_dir
*DEL*:00000000H   CODE     ---       ips114_draw_point
      00FF5F1EH   CODE     ---       ips114_init
      00011CDAH   XDATA    WORD      ips114_pencolor
      00FFA33FH   CODE     ---       ips114_set_color
      00FFA10DH   CODE     ---       ips114_set_dir
*DEL*:00000000H   CODE     ---       ips114_show_char
*DEL*:00000000H   CODE     ---       ips114_show_chinese
*DEL*:00000000H   CODE     ---       ips114_show_float
*DEL*:00000000H   CODE     ---       ips114_show_int16
*DEL*:00000000H   CODE     ---       ips114_show_int32
*DEL*:00000000H   CODE     ---       ips114_show_int8
*DEL*:00000000H   CODE     ---       ips114_show_string
*DEL*:00000000H   CODE     ---       ips114_show_uint16
*DEL*:00000000H   CODE     ---       ips114_show_uint8
*DEL*:00000000H   CODE     ---       ips114_show_wave
      00011CE0H   XDATA    BYTE      ips114_x_max
      00011CE1H   XDATA    BYTE      ips114_y_max
      00011B38H   XDATA    WORD      ips200_bgcolor
*DEL*:00000000H   CODE     ---       ips200_clear
      00011B3AH   XDATA    INT       ips200_display_dir
*DEL*:00000000H   CODE     ---       ips200_draw_point
*DEL*:00000000H   CODE     ---       ips200_init
      00011B36H   XDATA    WORD      ips200_pencolor
*DEL*:00000000H   CODE     ---       ips200_set_color
*DEL*:00000000H   CODE     ---       ips200_set_dir
*DEL*:00000000H   CODE     ---       ips200_show_char
*DEL*:00000000H   CODE     ---       ips200_show_chinese
*DEL*:00000000H   CODE     ---       ips200_show_float
*DEL*:00000000H   CODE     ---       ips200_show_int16
*DEL*:00000000H   CODE     ---       ips200_show_int32
*DEL*:00000000H   CODE     ---       ips200_show_int8
*DEL*:00000000H   CODE     ---       ips200_show_string
*DEL*:00000000H   CODE     ---       ips200_show_uint16
*DEL*:00000000H   CODE     ---       ips200_show_uint8
*DEL*:00000000H   CODE     ---       ips200_show_wave
      00011B3CH   XDATA    WORD      ips200_x_max
      00011B3EH   XDATA    WORD      ips200_y_max
*DEL*:00000000H   CODE     ---       ips200pro_calendar_create
*DEL*:00000000H   CODE     ---       ips200pro_calendar_display
*DEL*:00000000H   CODE     ---       ips200pro_clock_create
*DEL*:00000000H   CODE     ---       ips200pro_container_create
*DEL*:00000000H   CODE     ---       ips200pro_container_radius
*DEL*:00000000H   CODE     ---       ips200pro_create_widgets
*DEL*:00000000H   CODE     ---       ips200pro_delete_widgets
*DEL*:00000000H   CODE     ---       ips200pro_get_date
*DEL*:00000000H   CODE     ---       ips200pro_get_free_stack_size
*DEL*:00000000H   CODE     ---       ips200pro_get_information
L251 LINKER/LOCATER V4.66.93.0                                                        04/22/2026  19:49:03  PAGE 33


*DEL*:00000000H   CODE     ---       ips200pro_get_time
*DEL*:00000000H   CODE     ---       ips200pro_image_create
*DEL*:00000000H   CODE     ---       ips200pro_image_display
*DEL*:00000000H   CODE     ---       ips200pro_image_draw_line
*DEL*:00000000H   CODE     ---       ips200pro_image_draw_rectangle
      00010E48H   XDATA    ---       ips200pro_information
*DEL*:00000000H   CODE     ---       ips200pro_init
*DEL*:00000000H   CODE     ---       ips200pro_label_create
*DEL*:00000000H   CODE     ---       ips200pro_label_mode
*DEL*:00000000H   CODE     ---       ips200pro_label_printf
*DEL*:00000000H   CODE     ---       ips200pro_label_show_string
*DEL*:00000000H   CODE     ---       ips200pro_meter_create
*DEL*:00000000H   CODE     ---       ips200pro_meter_set_value
*DEL*:00000000H   CODE     ---       ips200pro_page_create
*DEL*:00000000H   CODE     ---       ips200pro_page_hidden
*DEL*:00000000H   CODE     ---       ips200pro_page_set_title_name
*DEL*:00000000H   CODE     ---       ips200pro_page_set_title_position_width
*DEL*:00000000H   CODE     ---       ips200pro_page_switch
*DEL*:00000000H   CODE     ---       ips200pro_progress_bar_create
*DEL*:00000000H   CODE     ---       ips200pro_progress_bar_set_value
*DEL*:00000000H   CODE     ---       ips200pro_read_parameter
*DEL*:00000000H   CODE     ---       ips200pro_receive_buffer
*DEL*:00000000H   CODE     ---       ips200pro_send_buffer
*DEL*:00000000H   CODE     ---       ips200pro_set_backlight
*DEL*:00000000H   CODE     ---       ips200pro_set_color
*DEL*:00000000H   CODE     ---       ips200pro_set_crc_state
*DEL*:00000000H   CODE     ---       ips200pro_set_date
*DEL*:00000000H   CODE     ---       ips200pro_set_default_font
*DEL*:00000000H   CODE     ---       ips200pro_set_direction
*DEL*:00000000H   CODE     ---       ips200pro_set_font
*DEL*:00000000H   CODE     ---       ips200pro_set_format
*DEL*:00000000H   CODE     ---       ips200pro_set_hidden
*DEL*:00000000H   CODE     ---       ips200pro_set_optimize
*DEL*:00000000H   CODE     ---       ips200pro_set_parent
*DEL*:00000000H   CODE     ---       ips200pro_set_position
*DEL*:00000000H   CODE     ---       ips200pro_set_time
*DEL*:00000000H   CODE     ---       ips200pro_table_cell_printf
*DEL*:00000000H   CODE     ---       ips200pro_table_create
*DEL*:00000000H   CODE     ---       ips200pro_table_select
*DEL*:00000000H   CODE     ---       ips200pro_table_set_col_width
      00010E51H   XDATA    ---       ips200pro_time
*DEL*:00000000H   CODE     ---       ips200pro_waveform_add_value
*DEL*:00000000H   CODE     ---       ips200pro_waveform_clear
*DEL*:00000000H   CODE     ---       ips200pro_waveform_create
*DEL*:00000000H   CODE     ---       ips200pro_waveform_line_state
*DEL*:00000000H   CODE     ---       ips200pro_waveform_line_type
*DEL*:00000000H   CODE     ---       ips200pro_write_packet
*SFR* 0000009DH   DATA     BYTE      IRCBAND
*SFR* 0000009FH   DATA     BYTE      IRTRIM
*SFR* 00000088H.0 DATA     BIT       IT0
*SFR* 00000088H.2 DATA     BIT       IT1
      00010719H   XDATA    ---       Kalman1
      00010749H   XDATA    ---       Kalman2
      00FF85F1H   CODE     ---       KalmanCreate
      00FF66A8H   CODE     ---       KalmanFilter
      00FFA3AEH   CODE     ---       LED_Init
*DEL*:00000000H   CODE     ---       LED_Off
*DEL*:00000000H   CODE     ---       LED_On
*DEL*:00000000H   CODE     ---       LED_Switch
      0001088AH   XDATA    ---       left_spid
*SFR* 000000F9H   DATA     BYTE      LINICR
      00FF2D40H   CODE     NEAR LAB  log?_
      00FFA254H   CODE     ---       MAIN
*DEL*:00000000H   CODE     ---       main_loop
      00010806H   XDATA    FLOAT     Max_Delta_Pitch
L251 LINKER/LOCATER V4.66.93.0                                                        04/22/2026  19:49:03  PAGE 34


      0001081EH   XDATA    FLOAT     Max_Delta_Roll
*DEL*:00000000H   CODE     ---       Median_Average_Filter
      00FFA389H   CODE     ---       memcpy?_
*DEL*:00000000H   CODE     ---       memset?_
*DEL*:00000000H   CODE     ---       Menu_Display
*DEL*:00000000H   CODE     ---       Menu_Init
*DEL*:00000000H   CODE     ---       Motor_Protect
      00FF943EH   CODE     ---       Motor_SetSpeed
      00FFA1F1H   CODE     ---       My_abs
      00FF8980H   CODE     ---       Oscilloscope_Display
      00FF0046H   CODE     ---       Oscilloscope_Init
*SFR* 000000D0H.2 DATA     BIT       OV
*SFR* 000000D0H.0 DATA     BIT       P
*SFR* 00000080H   DATA     BYTE      P0
*SFR* 00000094H   DATA     BYTE      P0M0
*SFR* 00000093H   DATA     BYTE      P0M1
*SFR* 00000090H   DATA     BYTE      P1
*SFR* 00000092H   DATA     BYTE      P1M0
*SFR* 00000091H   DATA     BYTE      P1M1
*SFR* 000000A0H   DATA     BYTE      P2
*SFR* 000000A0H.0 DATA     BIT       P20
*SFR* 000000A0H.1 DATA     BIT       P21
*SFR* 000000A0H.2 DATA     BIT       P22
*SFR* 00000096H   DATA     BYTE      P2M0
*SFR* 00000095H   DATA     BYTE      P2M1
*SFR* 000000B0H   DATA     BYTE      P3
*SFR* 000000B2H   DATA     BYTE      P3M0
*SFR* 000000B1H   DATA     BYTE      P3M1
*SFR* 000000C0H   DATA     BYTE      P4
*SFR* 000000C0H.0 DATA     BIT       P40
*SFR* 000000C0H.1 DATA     BIT       P41
*SFR* 000000C0H.2 DATA     BIT       P42
*SFR* 000000C0H.3 DATA     BIT       P43
*SFR* 000000B4H   DATA     BYTE      P4M0
*SFR* 000000B3H   DATA     BYTE      P4M1
*SFR* 000000C8H   DATA     BYTE      P5
*SFR* 000000CAH   DATA     BYTE      P5M0
*SFR* 000000C9H   DATA     BYTE      P5M1
*SFR* 000000E8H   DATA     BYTE      P6
*SFR* 000000CCH   DATA     BYTE      P6M0
*SFR* 000000CBH   DATA     BYTE      P6M1
*SFR* 000000F8H   DATA     BYTE      P7
*SFR* 000000F8H.7 DATA     BIT       P77
*SFR* 000000E2H   DATA     BYTE      P7M0
*SFR* 000000E1H   DATA     BYTE      P7M1
*SFR* 000000A2H   DATA     BYTE      P_SW1
*SFR* 000000BAH   DATA     BYTE      P_SW2
*SFR* 000000BBH   DATA     BYTE      P_SW3
*DEL*:00000000H   CODE     ---       Parameter_Debug
      00FFA461H   CODE     ---       Parameter_Debug_Init
*SFR* 00000087H   DATA     BYTE      PCON
*DEL*:00000000H   CODE     ---       PID_Calc
      00FF7AF5H   CODE     ---       PID_Init
      00FF01AEH   CODE     ---       pit_handler
      00FF61E0H   CODE     ---       pit_init
      0001077EH   XDATA    FLOAT     pitch
      00010715H   XDATA    FLOAT     Pitch_Max
      00010711H   XDATA    FLOAT     Pitch_Min
*DEL*:00000000H   CODE     ---       pow?_
*SFR* 000000B8H.6 DATA     BIT       PPC
      00FF247BH   CODE     NEAR LAB  printf
*SFR* 000000B8H.4 DATA     BIT       PS
*SFR* 000000D0H   DATA     BYTE      PSW
*SFR* 000000D1H   DATA     BYTE      PSW1
*SFR* 000000B8H.1 DATA     BIT       PT0
L251 LINKER/LOCATER V4.66.93.0                                                        04/22/2026  19:49:03  PAGE 35


*SFR* 000000B8H.3 DATA     BIT       PT1
*SFR* 000000B8H.5 DATA     BIT       PT2
      00FFA44FH   CODE     ---       putchar
      00FFAFEAH   HCONST   ---       PWM_ARR_ADDR
      00FFAFF2H   HCONST   ---       PWM_CCER_ADDR
      00FFB002H   HCONST   ---       PWM_CCMR_ADDR
      00FFAFCAH   HCONST   ---       PWM_CCR_ADDR
      00FF3071H   CODE     ---       pwm_init
      00FFAFC2H   HCONST   ---       PWM_PSCR_ADDR
      00FF70C0H   CODE     ---       pwm_set_duty
*DEL*:00000000H   CODE     ---       pwm_set_freq
*SFR* 000000B8H.0 DATA     BIT       PX0
*SFR* 000000B8H.2 DATA     BIT       PX1
*DEL*:00000000H   CODE     ---       range_protect_float
*DEL*:00000000H   CODE     ---       range_protect_int
*SFR* 00000098H.2 DATA     BIT       RB8
*SFR* 000000CBH   DATA     BYTE      RCAP2H
*SFR* 000000CAH   DATA     BYTE      RCAP2L
*SFR* 000000C8H.5 DATA     BIT       RCLK
*SFR* 000000B0H.7 DATA     BIT       RD
*SFR* 00000098H.4 DATA     BIT       REN
*SFR* 00000098H.0 DATA     BIT       RI
      0001084AH   XDATA    ---       right_spid
      000107BAH   XDATA    FLOAT     roll
      000107B6H   XDATA    FLOAT     Roll_Max
      00010782H   XDATA    FLOAT     Roll_Min
      00010779H   XDATA    CHAR      Round
*SFR* 000000D0H.3 DATA     BIT       RS0
*SFR* 000000D0H.4 DATA     BIT       RS1
*SFR* 000000FFH   DATA     BYTE      RSTCFG
*SFR* 000000B0H.0 DATA     BIT       RXD
*SFR* 0000009BH   DATA     BYTE      S2BUF
*SFR* 0000009AH   DATA     BYTE      S2CON
*SFR* 0000009AH.1 DATA     BIT       S2TI
*SFR* 000000ACH   DATA     BYTE      S3CON
*SFR* 000000FDH   DATA     BYTE      S4CON
*SFR* 000000A9H   DATA     BYTE      SADDR
*SFR* 000000B9H   DATA     BYTE      SADEN
*SFR* 00000099H   DATA     BYTE      SBUF
*SFR* 00000098H   DATA     BYTE      SCON
*DEL*:00000000H   CODE     ---       seekfree_assistant_camera_boundary_config
*DEL*:00000000H   CODE     ---       seekfree_assistant_camera_data_send
*DEL*:00000000H   CODE     ---       seekfree_assistant_camera_dot_send
*DEL*:00000000H   CODE     ---       seekfree_assistant_camera_information_config
*DEL*:00000000H   CODE     ---       seekfree_assistant_camera_send
*DEL*:00000000H   CODE     ---       seekfree_assistant_data_analysis
      00FFA226H   CODE     ---       seekfree_assistant_init
*DEL*:00000000H   CODE     ---       seekfree_assistant_interface_init
      000105DCH   XDATA    ---       seekfree_assistant_oscilloscope_data
      00FF7952H   CODE     ---       seekfree_assistant_oscilloscope_send
      0001061FH   XDATA    ---       seekfree_assistant_parameter
      00010617H   XDATA    ---       seekfree_assistant_parameter_update_flag
      00011F4EH   XDATA    ---       seekfree_assistant_receive_callback
      00011F50H   XDATA    ---       seekfree_assistant_transfer_callback
*DEL*:00000000H   CODE     ---       Send_Data_To_PC
      00010A74H   XDATA    ---       send_str
*DEL*:00000000H   CODE     ---       set_gps_type
      00FF6AE5H   CODE     ---       set_sys_clk
*DEL*:00000000H   CODE     ---       set_tof_type
      00FF91F2H   CODE     ---       set_wireless_type
      00FF25BCH   CODE     ---       sin?_
*SFR* 00000098H.7 DATA     BIT       SM0
*SFR* 00000098H.6 DATA     BIT       SM1
*SFR* 00000098H.5 DATA     BIT       SM2
      00FFA096H   CODE     ---       soft_iic_delay
L251 LINKER/LOCATER V4.66.93.0                                                        04/22/2026  19:49:03  PAGE 36


*DEL*:00000000H   CODE     ---       soft_iic_init
*DEL*:00000000H   CODE     ---       soft_iic_read_16bit
*DEL*:00000000H   CODE     ---       soft_iic_read_16bit_array
*DEL*:00000000H   CODE     ---       soft_iic_read_16bit_register
*DEL*:00000000H   CODE     ---       soft_iic_read_16bit_registers
*DEL*:00000000H   CODE     ---       soft_iic_read_8bit
*DEL*:00000000H   CODE     ---       soft_iic_read_8bit_array
*DEL*:00000000H   CODE     ---       soft_iic_read_8bit_register
*DEL*:00000000H   CODE     ---       soft_iic_read_8bit_registers
      00FF7F51H   CODE     ---       soft_iic_read_data
*DEL*:00000000H   CODE     ---       soft_iic_sccb_read_register
*DEL*:00000000H   CODE     ---       soft_iic_sccb_write_register
      00FF88A5H   CODE     ---       soft_iic_send_ack
      00FF00A6H   CODE     ---       soft_iic_send_data
      00FF8F6CH   CODE     ---       soft_iic_start
      00FF8CA5H   CODE     ---       soft_iic_stop
*DEL*:00000000H   CODE     ---       soft_iic_transfer_16bit_array
*DEL*:00000000H   CODE     ---       soft_iic_transfer_8bit_array
      00FF87C2H   CODE     ---       soft_iic_wait_ack
*DEL*:00000000H   CODE     ---       soft_iic_write_16bit
*DEL*:00000000H   CODE     ---       soft_iic_write_16bit_array
*DEL*:00000000H   CODE     ---       soft_iic_write_16bit_register
*DEL*:00000000H   CODE     ---       soft_iic_write_16bit_registers
*DEL*:00000000H   CODE     ---       soft_iic_write_8bit
*DEL*:00000000H   CODE     ---       soft_iic_write_8bit_array
*DEL*:00000000H   CODE     ---       soft_iic_write_8bit_register
*DEL*:00000000H   CODE     ---       soft_iic_write_8bit_registers
*DEL*:00000000H   CODE     ---       soft_spi_delay
*DEL*:00000000H   CODE     ---       soft_spi_init
*DEL*:00000000H   CODE     ---       soft_spi_read_16bit
*DEL*:00000000H   CODE     ---       soft_spi_read_16bit_array
*DEL*:00000000H   CODE     ---       soft_spi_read_16bit_register
*DEL*:00000000H   CODE     ---       soft_spi_read_16bit_registers
*DEL*:00000000H   CODE     ---       soft_spi_read_8bit
*DEL*:00000000H   CODE     ---       soft_spi_read_8bit_array
*DEL*:00000000H   CODE     ---       soft_spi_read_8bit_register
*DEL*:00000000H   CODE     ---       soft_spi_read_8bit_registers
*DEL*:00000000H   CODE     ---       soft_spi_transfer_16bit
*DEL*:00000000H   CODE     ---       soft_spi_transfer_8bit
*DEL*:00000000H   CODE     ---       soft_spi_write_16bit
*DEL*:00000000H   CODE     ---       soft_spi_write_16bit_array
*DEL*:00000000H   CODE     ---       soft_spi_write_16bit_register
*DEL*:00000000H   CODE     ---       soft_spi_write_16bit_registers
*DEL*:00000000H   CODE     ---       soft_spi_write_8bit
*DEL*:00000000H   CODE     ---       soft_spi_write_8bit_array
*DEL*:00000000H   CODE     ---       soft_spi_write_8bit_register
*DEL*:00000000H   CODE     ---       soft_spi_write_8bit_registers
*SFR* 00000081H   DATA     BYTE      SP
*SFR* 000000CEH   DATA     BYTE      SPCTL
*SFR* 000000CFH   DATA     BYTE      SPDAT
      0001083CH   XDATA    LONG      speed_left
      00010838H   XDATA    LONG      speed_right
*SFR* 000000BEH   DATA     BYTE      SPH
      00FF4D81H   CODE     ---       spi_init
*DEL*:00000000H   CODE     ---       spi_read_16bit
*DEL*:00000000H   CODE     ---       spi_read_16bit_array
*DEL*:00000000H   CODE     ---       spi_read_16bit_register
*DEL*:00000000H   CODE     ---       spi_read_16bit_registers
*DEL*:00000000H   CODE     ---       spi_read_8bit
*DEL*:00000000H   CODE     ---       spi_read_8bit_array
*DEL*:00000000H   CODE     ---       spi_read_8bit_register
*DEL*:00000000H   CODE     ---       spi_read_8bit_registers
      00FF984FH   CODE     ---       spi_read_dat
*DEL*:00000000H   CODE     ---       spi_transfer_16bit
*DEL*:00000000H   CODE     ---       spi_transfer_8bit
L251 LINKER/LOCATER V4.66.93.0                                                        04/22/2026  19:49:03  PAGE 37


      00FFA0D2H   CODE     ---       spi_write_16bit
*DEL*:00000000H   CODE     ---       spi_write_16bit_array
*DEL*:00000000H   CODE     ---       spi_write_16bit_register
*DEL*:00000000H   CODE     ---       spi_write_16bit_registers
      00FF0066H   CODE     ---       spi_write_8bit
*DEL*:00000000H   CODE     ---       spi_write_8bit_array
*DEL*:00000000H   CODE     ---       spi_write_8bit_register
*DEL*:00000000H   CODE     ---       spi_write_8bit_registers
      00FF9A6DH   CODE     ---       spi_write_dat
      00FF24A7H   CODE     NEAR LAB  sprintf
*SFR* 000000CDH   DATA     BYTE      SPSTAT
      00FF24C7H   CODE     ---       sqrt?_
*DEL*:00000000H   CODE     ---       strchr?_
*DEL*:00000000H   CODE     ---       strlen?_
*DEL*:00000000H   CODE     ---       strncmp?_
*DEL*:00000000H   CODE     ---       strncpy?_
      00011EBEH   XDATA    LONG      system_clock
      00FF9C8CH   CODE     ---       system_delay_init
      00FFA2F5H   CODE     ---       system_delay_ms
      00FFA31AH   CODE     ---       system_delay_us
*SFR* 000000B0H.4 DATA     BIT       T0
*SFR* 000000B0H.5 DATA     BIT       T1
*SFR* 00000090H.0 DATA     BIT       T2
*SFR* 000000C8H   DATA     BYTE      T2CON
*SFR* 00000090H.1 DATA     BIT       T2EX
*SFR* 000000D6H   DATA     BYTE      T2H
*SFR* 000000D7H   DATA     BYTE      T2L
*SFR* 000000C9H   DATA     BYTE      T2MOD
*SFR* 000000D4H   DATA     BYTE      T3H
*SFR* 000000D5H   DATA     BYTE      T3L
*SFR* 000000D2H   DATA     BYTE      T4H
*SFR* 000000D3H   DATA     BYTE      T4L
*SFR* 000000DDH   DATA     BYTE      T4T3M
      00FF25E9H   CODE     ---       TAN?_
*SFR* 00000098H.3 DATA     BIT       TB8
*SFR* 000000C8H.4 DATA     BIT       TCLK
*SFR* 00000088H   DATA     BYTE      TCON
*SFR* 00000088H.5 DATA     BIT       TF0
*SFR* 00000088H.7 DATA     BIT       TF1
*SFR* 000000C8H.7 DATA     BIT       TF2
      00011D0CH   XDATA    WORD      tft180_bgcolor
*DEL*:00000000H   CODE     ---       tft180_clear
      00011D0EH   XDATA    INT       tft180_display_dir
*DEL*:00000000H   CODE     ---       tft180_draw_point
*DEL*:00000000H   CODE     ---       tft180_init
      00011D0AH   XDATA    WORD      tft180_pencolor
*DEL*:00000000H   CODE     ---       tft180_set_color
*DEL*:00000000H   CODE     ---       tft180_set_dir
*DEL*:00000000H   CODE     ---       tft180_show_char
*DEL*:00000000H   CODE     ---       tft180_show_float
*DEL*:00000000H   CODE     ---       tft180_show_int16
*DEL*:00000000H   CODE     ---       tft180_show_int32
*DEL*:00000000H   CODE     ---       tft180_show_int8
*DEL*:00000000H   CODE     ---       tft180_show_string
*DEL*:00000000H   CODE     ---       tft180_show_uint16
*DEL*:00000000H   CODE     ---       tft180_show_uint8
*DEL*:00000000H   CODE     ---       tft180_show_wave
      00011D10H   XDATA    BYTE      tft180_x_max
      00011D11H   XDATA    BYTE      tft180_y_max
*SFR* 0000008CH   DATA     BYTE      TH0
*SFR* 0000008DH   DATA     BYTE      TH1
*SFR* 000000CDH   DATA     BYTE      TH2
*SFR* 00000098H.1 DATA     BIT       TI
      00011319H   XDATA    ---       tim0_irq_handler
      0001130FH   XDATA    ---       tim11_irq_handler
L251 LINKER/LOCATER V4.66.93.0                                                        04/22/2026  19:49:03  PAGE 38


      0001131DH   XDATA    ---       tim1_irq_handler
      00011321H   XDATA    ---       tim2_irq_handler
      00011325H   XDATA    ---       tim3_irq_handler
      00011329H   XDATA    ---       tim4_irq_handler
      00FF9653H   CODE     ---       timer_funciton_check
*SFR* 0000008AH   DATA     BYTE      TL0
*SFR* 0000008BH   DATA     BYTE      TL1
*SFR* 000000CCH   DATA     BYTE      TL2
      00FF9F1AH   CODE     ---       TM0_IRQHandler
      00FF9F5AH   CODE     ---       TM1_IRQHandler
      00FF9F9AH   CODE     ---       TM2_IRQHandler
      00FF9FDAH   CODE     ---       TM3_IRQHandler
      00FFA01AH   CODE     ---       TM4_IRQHandler
*SFR* 00000089H   DATA     BYTE      TMOD
      00011D22H   XDATA    ---       tof_module_exti_handler
      00011D26H   XDATA    INT       tof_type
*SFR* 00000088H.4 DATA     BIT       TR0
*SFR* 00000088H.6 DATA     BIT       TR1
*SFR* 000000C8H.2 DATA     BIT       TR2
*DEL*:00000000H   CODE     ---       tsl1401_collect_pit_handler
      0001020BH   XDATA    ---       tsl1401_data
      0001020AH   XDATA    BYTE      tsl1401_finish_flag
*DEL*:00000000H   CODE     ---       tsl1401_init
*DEL*:00000000H   CODE     ---       tsl1401_send_data
      00010904H   XDATA    ---       Turn_PID
*SFR* 000000B0H.1 DATA     BIT       TXD
      00011311H   XDATA    ---       uart1_irq_handler
      00011313H   XDATA    ---       uart2_irq_handler
      00011315H   XDATA    ---       uart3_irq_handler
      00011317H   XDATA    ---       uart4_irq_handler
      00FF77AFH   CODE     ---       uart_dma_init
      00FF96D4H   CODE     ---       uart_funciton_check
      00FF5945H   CODE     ---       uart_init
      00FF9153H   CODE     ---       uart_query_byte
*DEL*:00000000H   CODE     ---       uart_read_byte
      00011978H   XDATA    ---       uart_rx_buff
      00FF99A2H   CODE     ---       uart_rx_interrupt
      00FF8BE3H   CODE     ---       uart_rx_start_buff
      00FF6EEAH   CODE     ---       uart_write_buffer
      00FFA3F3H   CODE     ---       uart_write_byte
*DEL*:00000000H   CODE     ---       uart_write_string
*SFR* 000000F4H   DATA     BYTE      USBCON
*DEL*:00000000H   CODE     ---       voltage_warning_init
*SFR* 000000A6H   DATA     BYTE      VRTRIM
*DEL*:00000000H   CODE     ---       vsnprintf
*SFR* 000000C1H   DATA     BYTE      WDT_CONTR
*SFR* 000000A6H   DATA     BYTE      WDTRST
      00011D24H   XDATA    INT       wireless_type
      00FFA2CFH   CODE     ---       wireless_uart_callback
      00FF9755H   CODE     ---       wireless_uart_init
      00FF954EH   CODE     ---       wireless_uart_read_buffer
      00FF82C5H   CODE     ---       wireless_uart_send_buffer
*DEL*:00000000H   CODE     ---       wireless_uart_send_byte
*DEL*:00000000H   CODE     ---       wireless_uart_send_string
*SFR* 000000B0H.6 DATA     BIT       WR
*SFR* 000000E9H   DATA     BYTE      WTST
      0001080AH   XDATA    FLOAT     yaw
      00010802H   XDATA    FLOAT     yaw_limit_360
      0001080EH   XDATA    FLOAT     yaw_total
      00010786H   XDATA    ---       Zero
*DEL*:00000000H   CODE     ---       zf_sprintf



SYMBOL TABLE OF MODULE:  .\out_file\SEEKFREE (?C_START)
L251 LINKER/LOCATER V4.66.93.0                                                        04/22/2026  19:49:03  PAGE 39



      VALUE       REP       CLASS    TYPE      SYMBOL NAME
      ====================================================
      ---         MODULE    ---      ---       ?C_START
      00FF0000H   PUBLIC    CODE     ---       ?C?STARTUP
      00FF0000H   PUBLIC    CODE     ---       ?C_STARTUP
      000000D0H.6 SFRSYM    DATA     BIT       AC
      000000E0H   SFRSYM    DATA     BYTE      ACC
      000000F0H   SFRSYM    DATA     BYTE      B
      000000FAH   SFRSYM    DATA     BYTE      CCAP0H
      000000EAH   SFRSYM    DATA     BYTE      CCAP0L
      000000FBH   SFRSYM    DATA     BYTE      CCAP1H
      000000EBH   SFRSYM    DATA     BYTE      CCAP1L
      000000FCH   SFRSYM    DATA     BYTE      CCAP2H
      000000ECH   SFRSYM    DATA     BYTE      CCAP2L
      000000FDH   SFRSYM    DATA     BYTE      CCAP3H
      000000EDH   SFRSYM    DATA     BYTE      CCAP3L
      000000FEH   SFRSYM    DATA     BYTE      CCAP4H
      000000EEH   SFRSYM    DATA     BYTE      CCAP4L
      000000DAH   SFRSYM    DATA     BYTE      CCAPM0
      000000DBH   SFRSYM    DATA     BYTE      CCAPM1
      000000DCH   SFRSYM    DATA     BYTE      CCAPM2
      000000DDH   SFRSYM    DATA     BYTE      CCAPM3
      000000DEH   SFRSYM    DATA     BYTE      CCAPM4
      000000D8H.0 SFRSYM    DATA     BIT       CCF0
      000000D8H.1 SFRSYM    DATA     BIT       CCF1
      000000D8H.2 SFRSYM    DATA     BIT       CCF2
      000000D8H.3 SFRSYM    DATA     BIT       CCF3
      000000D8H.4 SFRSYM    DATA     BIT       CCF4
      000000D8H   SFRSYM    DATA     BYTE      CCON
      00000090H.3 SFRSYM    DATA     BIT       CEX0
      00000090H.4 SFRSYM    DATA     BIT       CEX1
      00000090H.5 SFRSYM    DATA     BIT       CEX2
      00000090H.6 SFRSYM    DATA     BIT       CEX3
      00000090H.7 SFRSYM    DATA     BIT       CEX4
      000000D8H.7 SFRSYM    DATA     BIT       CF
      000000F9H   SFRSYM    DATA     BYTE      CH
      000000E9H   SFRSYM    DATA     BYTE      CL
      000000D9H   SFRSYM    DATA     BYTE      CMOD
      000000C8H.0 SFRSYM    DATA     BIT       CP_RL2
      000000D8H.6 SFRSYM    DATA     BIT       CR
      000000D0H.7 SFRSYM    DATA     BIT       CY
      000000C8H.1 SFRSYM    DATA     BIT       C_T2
      00000083H   SFRSYM    DATA     BYTE      DPH
      00000082H   SFRSYM    DATA     BYTE      DPL
      00000084H   SFRSYM    DATA     BYTE      DPXL
      000000A8H.7 SFRSYM    DATA     BIT       EA
      000000A8H.6 SFRSYM    DATA     BIT       EC
      00000090H.2 SFRSYM    DATA     BIT       ECI
      000000A8H.4 SFRSYM    DATA     BIT       ES
      000000A8H.1 SFRSYM    DATA     BIT       ET0
      000000A8H.3 SFRSYM    DATA     BIT       ET1
      000000A8H.5 SFRSYM    DATA     BIT       ET2
      000000A8H.0 SFRSYM    DATA     BIT       EX0
      000000A8H.2 SFRSYM    DATA     BIT       EX1
      000000C8H.3 SFRSYM    DATA     BIT       EXEN2
      000000C8H.6 SFRSYM    DATA     BIT       EXF2
      000000D0H.5 SFRSYM    DATA     BIT       F0
      00000098H.7 SFRSYM    DATA     BIT       FE
      000000A8H   SFRSYM    DATA     BYTE      IE0
      00000088H.1 SFRSYM    DATA     BIT       IE0_
      000000B1H   SFRSYM    DATA     BYTE      IE1
      00000088H.3 SFRSYM    DATA     BIT       IE1_
      000000B0H.2 SFRSYM    DATA     BIT       INT0
      000000B0H.3 SFRSYM    DATA     BIT       INT1
L251 LINKER/LOCATER V4.66.93.0                                                        04/22/2026  19:49:03  PAGE 40


      000000B7H   SFRSYM    DATA     BYTE      IPH0
      000000B8H   SFRSYM    DATA     BYTE      IPL0
      00000088H.0 SFRSYM    DATA     BIT       IT0
      00000088H.2 SFRSYM    DATA     BIT       IT1
      000000D0H.2 SFRSYM    DATA     BIT       OV
      000000D0H.0 SFRSYM    DATA     BIT       P
      00000080H   SFRSYM    DATA     BYTE      P0
      00000090H   SFRSYM    DATA     BYTE      P1
      000000A0H   SFRSYM    DATA     BYTE      P2
      000000B0H   SFRSYM    DATA     BYTE      P3
      00000087H   SFRSYM    DATA     BYTE      PCON
      000000B8H.6 SFRSYM    DATA     BIT       PPC
      000000B8H.4 SFRSYM    DATA     BIT       PS
      000000D0H   SFRSYM    DATA     BYTE      PSW
      000000D1H   SFRSYM    DATA     BYTE      PSW1
      000000B8H.1 SFRSYM    DATA     BIT       PT0
      000000B8H.3 SFRSYM    DATA     BIT       PT1
      000000B8H.5 SFRSYM    DATA     BIT       PT2
      000000B8H.0 SFRSYM    DATA     BIT       PX0
      000000B8H.2 SFRSYM    DATA     BIT       PX1
      00000098H.2 SFRSYM    DATA     BIT       RB8
      000000CBH   SFRSYM    DATA     BYTE      RCAP2H
      000000CAH   SFRSYM    DATA     BYTE      RCAP2L
      000000C8H.5 SFRSYM    DATA     BIT       RCLK
      000000B0H.7 SFRSYM    DATA     BIT       RD
      00000098H.4 SFRSYM    DATA     BIT       REN
      00000098H.0 SFRSYM    DATA     BIT       RI
      000000D0H.3 SFRSYM    DATA     BIT       RS0
      000000D0H.4 SFRSYM    DATA     BIT       RS1
      000000B0H.0 SFRSYM    DATA     BIT       RXD
      000000A9H   SFRSYM    DATA     BYTE      SADDR
      000000B9H   SFRSYM    DATA     BYTE      SADEN
      00000099H   SFRSYM    DATA     BYTE      SBUF
      00000098H   SFRSYM    DATA     BYTE      SCON
      00000098H.7 SFRSYM    DATA     BIT       SM0
      00000098H.6 SFRSYM    DATA     BIT       SM1
      00000098H.5 SFRSYM    DATA     BIT       SM2
      00000081H   SFRSYM    DATA     BYTE      SP
      000000BEH   SFRSYM    DATA     BYTE      SPH
      000000B0H.4 SFRSYM    DATA     BIT       T0
      000000B0H.5 SFRSYM    DATA     BIT       T1
      00000090H.0 SFRSYM    DATA     BIT       T2
      000000C8H   SFRSYM    DATA     BYTE      T2CON
      00000090H.1 SFRSYM    DATA     BIT       T2EX
      000000C9H   SFRSYM    DATA     BYTE      T2MOD
      00000098H.3 SFRSYM    DATA     BIT       TB8
      000000C8H.4 SFRSYM    DATA     BIT       TCLK
      00000088H   SFRSYM    DATA     BYTE      TCON
      00000088H.5 SFRSYM    DATA     BIT       TF0
      00000088H.7 SFRSYM    DATA     BIT       TF1
      000000C8H.7 SFRSYM    DATA     BIT       TF2
      0000008CH   SFRSYM    DATA     BYTE      TH0
      0000008DH   SFRSYM    DATA     BYTE      TH1
      000000CDH   SFRSYM    DATA     BYTE      TH2
      00000098H.1 SFRSYM    DATA     BIT       TI
      0000008AH   SFRSYM    DATA     BYTE      TL0
      0000008BH   SFRSYM    DATA     BYTE      TL1
      000000CCH   SFRSYM    DATA     BYTE      TL2
      00000089H   SFRSYM    DATA     BYTE      TMOD
      00000088H.4 SFRSYM    DATA     BIT       TR0
      00000088H.6 SFRSYM    DATA     BIT       TR1
      000000C8H.2 SFRSYM    DATA     BIT       TR2
      000000B0H.1 SFRSYM    DATA     BIT       TXD
      000000A6H   SFRSYM    DATA     BYTE      WDTRST
      000000B0H.6 SFRSYM    DATA     BIT       WR
L251 LINKER/LOCATER V4.66.93.0                                                        04/22/2026  19:49:03  PAGE 41


      00000800H   SYMBOL    NUMBER   ---       EDATALEN
      00FF9CECH   SYMBOL    CODE     ---       EDATALOOP
      00000001H   SYMBOL    NUMBER   ---       EDF
      00000001H   SYMBOL    NUMBER   ---       EMAP
      00000000H   SYMBOL    NUMBER   ---       HDATALEN
      00010000H   SYMBOL    NUMBER   ---       HDATASTART
      00000000H   SYMBOL    NUMBER   ---       IBPSTACK
      00000100H   SYMBOL    NUMBER   ---       IBPSTACKTOP
      00000001H   SYMBOL    NUMBER   ---       INTR
      00000001H   SYMBOL    NUMBER   ---       PAGM
      00000003H   SYMBOL    NUMBER   ---       RDRG
      00000001H   SYMBOL    NUMBER   ---       SRCM
      00000800H   SYMBOL    NUMBER   ---       STACKSIZE
      00FF9CE4H   SYMBOL    CODE     ---       STARTUP1
      00000003H   SYMBOL    NUMBER   ---       WSA
      00000003H   SYMBOL    NUMBER   ---       WSB
      00000001H   SYMBOL    NUMBER   ---       XALE
      00000000H   SYMBOL    NUMBER   ---       XBPSTACK
      00010000H   SYMBOL    NUMBER   ---       XBPSTACKTOP
      00008000H   SYMBOL    NUMBER   ---       XDATALEN
      00FF9CFBH   SYMBOL    CODE     ---       XDATALOOP
      00010000H   SYMBOL    NUMBER   ---       XDATASTART

      00FF0000H   BLOCK     CODE     NEAR LAB  LVL=0
      00FF0000H   LINE      CODE     ---       #183
      ---         BLOCKEND  ---      ---       LVL=0

      00FF9CE4H   BLOCK     CODE     NEAR LAB  LVL=0
      00FF9CE4H   LINE      CODE     ---       #188
      00FF9CE7H   LINE      CODE     ---       #191
      00FF9CEBH   LINE      CODE     ---       #192
      00FF9CECH   LINE      CODE     ---       #193
      00FF9CEFH   LINE      CODE     ---       #194
      00FF9CF1H   LINE      CODE     ---       #195
      00FF9CF3H   LINE      CODE     ---       #199
      00FF9CF6H   LINE      CODE     ---       #200
      00FF9CFAH   LINE      CODE     ---       #201
      00FF9CFBH   LINE      CODE     ---       #202
      00FF9CFCH   LINE      CODE     ---       #203
      00FF9CFDH   LINE      CODE     ---       #204
      00FF9CFFH   LINE      CODE     ---       #205
      00FF9D01H   LINE      CODE     ---       #235
      ---         BLOCKEND  ---      ---       LVL=0

      00FF9D36H   BLOCK     CODE     NEAR LAB  LVL=0
      00FF9D36H   LINE      CODE     ---       #238
      ---         BLOCKEND  ---      ---       LVL=0

      ---         MODULE    ---      ---       stc32g_isr

      00FF019BH   BLOCK     CODE     NEAR LAB  LVL=0
      00FF019BH   LINE      CODE     ---       #3
      ---         BLOCKEND  ---      ---       LVL=0

      00FF01ABH   BLOCK     CODE     NEAR LAB  LVL=0
      00FF01ABH   LINE      CODE     ---       #6
      ---         BLOCKEND  ---      ---       LVL=0

      00FF01BBH   BLOCK     CODE     NEAR LAB  LVL=0
      00FF01BBH   LINE      CODE     ---       #9
      ---         BLOCKEND  ---      ---       LVL=0

      00FF01CBH   BLOCK     CODE     NEAR LAB  LVL=0
      00FF01CBH   LINE      CODE     ---       #12
      ---         BLOCKEND  ---      ---       LVL=0
L251 LINKER/LOCATER V4.66.93.0                                                        04/22/2026  19:49:03  PAGE 42



      ---         MODULE    ---      ---       zf_common_clock
      00FF95D2H   PUBLIC    CODE     ---       clock_init
      00FF6AE5H   PUBLIC    CODE     ---       set_sys_clk
      00011EBEH   PUBLIC    XDATA    LONG      system_clock
      00000094H   SFRSYM    DATA     BYTE      P0M0
      000000D0H   SFRSYM    DATA     BYTE      PSW
      000000BAH.7 SFRSYM    DATA     BIT       EAXFR
      0000009DH   SFRSYM    DATA     BYTE      IRCBAND
      00000097H   SFRSYM    DATA     BYTE      AUXR2
      000000EAH   SFRSYM    DATA     BYTE      CKCON
      000000EFH   SFRSYM    DATA     BYTE      AUXINTIF
      000000FDH   SFRSYM    DATA     BYTE      S4CON
      000000ACH   SFRSYM    DATA     BYTE      S3CON
      0000009AH   SFRSYM    DATA     BYTE      S2CON
      000000A6H   SFRSYM    DATA     BYTE      VRTRIM
      000000B7H   SFRSYM    DATA     BYTE      IPH
      000000CDH   SFRSYM    DATA     BYTE      SPSTAT
      000000DDH   SFRSYM    DATA     BYTE      T4T3M
      0000009FH   SFRSYM    DATA     BYTE      IRTRIM
      000000C1H   SFRSYM    DATA     BYTE      WDT_CONTR
      000000E9H   SFRSYM    DATA     BYTE      WTST
      000000DFH   SFRSYM    DATA     BYTE      IP3
      000000F4H   SFRSYM    DATA     BYTE      USBCON
      000000B5H   SFRSYM    DATA     BYTE      IP2
      000000FFH   SFRSYM    DATA     BYTE      RSTCFG
      000000C7H   SFRSYM    DATA     BYTE      IAP_CONTR
      000000F9H   SFRSYM    DATA     BYTE      LINICR
      0000008EH   SFRSYM    DATA     BYTE      AUXR
      000000AFH   SFRSYM    DATA     BYTE      IE2
      00000088H   SFRSYM    DATA     BYTE      TCON
      00000089H   SFRSYM    DATA     BYTE      TMOD
      00000098H   SFRSYM    DATA     BYTE      SCON
      000000F1H   SFRSYM    DATA     BYTE      CANICR
      00000087H   SFRSYM    DATA     BYTE      PCON
      000000BCH   SFRSYM    DATA     BYTE      ADC_CONTR
      000000E7H   SFRSYM    DATA     BYTE      CMPCR2
      000000E6H   SFRSYM    DATA     BYTE      CMPCR1
      000000DEH   SFRSYM    DATA     BYTE      ADCCFG
      000000B8H   SFRSYM    DATA     BYTE      IP
      0000008FH   SFRSYM    DATA     BYTE      INTCLKO
      000000EEH   SFRSYM    DATA     BYTE      IP3H
      000000B6H   SFRSYM    DATA     BYTE      IP2H
      000000A8H   SFRSYM    DATA     BYTE      IE
      000000BBH   SFRSYM    DATA     BYTE      P_SW3
      000000BAH   SFRSYM    DATA     BYTE      P_SW2
      000000A2H   SFRSYM    DATA     BYTE      P_SW1
      000000CEH   SFRSYM    DATA     BYTE      SPCTL
      000000F8H   SFRSYM    DATA     BYTE      P7
      000000E1H   SFRSYM    DATA     BYTE      P7M1
      000000E8H   SFRSYM    DATA     BYTE      P6
      000000C8H   SFRSYM    DATA     BYTE      P5
      000000CBH   SFRSYM    DATA     BYTE      P6M1
      000000E2H   SFRSYM    DATA     BYTE      P7M0
      000000C0H   SFRSYM    DATA     BYTE      P4
      000000C9H   SFRSYM    DATA     BYTE      P5M1
      000000CCH   SFRSYM    DATA     BYTE      P6M0
      000000B0H   SFRSYM    DATA     BYTE      P3
      000000B3H   SFRSYM    DATA     BYTE      P4M1
      000000CAH   SFRSYM    DATA     BYTE      P5M0
      000000A0H   SFRSYM    DATA     BYTE      P2
      000000B1H   SFRSYM    DATA     BYTE      P3M1
      000000B4H   SFRSYM    DATA     BYTE      P4M0
      00000090H   SFRSYM    DATA     BYTE      P1
      00000095H   SFRSYM    DATA     BYTE      P2M1
L251 LINKER/LOCATER V4.66.93.0                                                        04/22/2026  19:49:03  PAGE 43


      000000B2H   SFRSYM    DATA     BYTE      P3M0
      00000080H   SFRSYM    DATA     BYTE      P0
      00000091H   SFRSYM    DATA     BYTE      P1M1
      00000096H   SFRSYM    DATA     BYTE      P2M0
      00000092H   SFRSYM    DATA     BYTE      P1M0
      00000093H   SFRSYM    DATA     BYTE      P0M1

      00FF6AE5H   BLOCK     CODE     ---       LVL=0
      00011EC2H   SYMBOL    XDATA    DWORD     sys_clk
      00FF6AE5H   LINE      CODE     ---       #54
      00FF6AEFH   LINE      CODE     ---       #57
      00FF6AF2H   LINE      CODE     ---       #59
      00FF6B47H   LINE      CODE     ---       #61
      00FF6B47H   LINE      CODE     ---       #63
      00FF6B54H   LINE      CODE     ---       #64
      00FF6B61H   LINE      CODE     ---       #65
      00FF6B6EH   LINE      CODE     ---       #66
      00FF6B72H   LINE      CODE     ---       #67
      00FF6B7EH   LINE      CODE     ---       #68
      00FF6B81H   LINE      CODE     ---       #70
      00FF6B81H   LINE      CODE     ---       #72
      00FF6B8EH   LINE      CODE     ---       #73
      00FF6B9BH   LINE      CODE     ---       #74
      00FF6BA8H   LINE      CODE     ---       #75
      00FF6BACH   LINE      CODE     ---       #76
      00FF6BB8H   LINE      CODE     ---       #77
      00FF6BBBH   LINE      CODE     ---       #79
      00FF6BBBH   LINE      CODE     ---       #81
      00FF6BC8H   LINE      CODE     ---       #82
      00FF6BD5H   LINE      CODE     ---       #83
      00FF6BE2H   LINE      CODE     ---       #84
      00FF6BE6H   LINE      CODE     ---       #85
      00FF6BF2H   LINE      CODE     ---       #86
      00FF6BF5H   LINE      CODE     ---       #88
      00FF6BF5H   LINE      CODE     ---       #90
      00FF6C02H   LINE      CODE     ---       #91
      00FF6C0FH   LINE      CODE     ---       #92
      00FF6C1CH   LINE      CODE     ---       #93
      00FF6C20H   LINE      CODE     ---       #94
      00FF6C2CH   LINE      CODE     ---       #95
      00FF6C2FH   LINE      CODE     ---       #97
      00FF6C2FH   LINE      CODE     ---       #99
      00FF6C3CH   LINE      CODE     ---       #100
      00FF6C49H   LINE      CODE     ---       #101
      00FF6C56H   LINE      CODE     ---       #102
      00FF6C5AH   LINE      CODE     ---       #103
      00FF6C66H   LINE      CODE     ---       #104
      00FF6C69H   LINE      CODE     ---       #106
      00FF6C69H   LINE      CODE     ---       #108
      00FF6C76H   LINE      CODE     ---       #109
      00FF6C83H   LINE      CODE     ---       #110
      00FF6C90H   LINE      CODE     ---       #111
      00FF6C94H   LINE      CODE     ---       #112
      00FF6CA0H   LINE      CODE     ---       #113
      00FF6CA2H   LINE      CODE     ---       #115
      00FF6CA2H   LINE      CODE     ---       #116
      00FF6CB4H   LINE      CODE     ---       #118
      00FF6CC1H   LINE      CODE     ---       #119
      00FF6CCEH   LINE      CODE     ---       #120
      00FF6CDBH   LINE      CODE     ---       #121
      00FF6CDFH   LINE      CODE     ---       #122
      00FF6CEBH   LINE      CODE     ---       #123
      00FF6CEBH   LINE      CODE     ---       #124
      00FF6CEBH   LINE      CODE     ---       #126
      00FF6CF5H   LINE      CODE     ---       #127
L251 LINKER/LOCATER V4.66.93.0                                                        04/22/2026  19:49:03  PAGE 44


      ---         BLOCKEND  ---      ---       LVL=0

      00FF95D2H   BLOCK     CODE     ---       LVL=0
      00011EC6H   SYMBOL    XDATA    DWORD     clock
      00FF95D2H   LINE      CODE     ---       #132
      00FF95DCH   LINE      CODE     ---       #134
      00FF95E0H   LINE      CODE     ---       #135
      00FF95E4H   LINE      CODE     ---       #136
      00FF95E7H   LINE      CODE     ---       #137
      00FF95EAH   LINE      CODE     ---       #147
      00FF9601H   LINE      CODE     ---       #153
      00FF9604H   LINE      CODE     ---       #156
      00FF9607H   LINE      CODE     ---       #157
      00FF960AH   LINE      CODE     ---       #158
      00FF960DH   LINE      CODE     ---       #159
      00FF9610H   LINE      CODE     ---       #160
      00FF9613H   LINE      CODE     ---       #161
      00FF9616H   LINE      CODE     ---       #162
      00FF9619H   LINE      CODE     ---       #163
      00FF961CH   LINE      CODE     ---       #164
      00FF961FH   LINE      CODE     ---       #165
      00FF9622H   LINE      CODE     ---       #166
      00FF9625H   LINE      CODE     ---       #167
      00FF9628H   LINE      CODE     ---       #168
      00FF962BH   LINE      CODE     ---       #169
      00FF962EH   LINE      CODE     ---       #170
      00FF9631H   LINE      CODE     ---       #171
      00FF9634H   LINE      CODE     ---       #173
      00FF9637H   LINE      CODE     ---       #174
      00FF963AH   LINE      CODE     ---       #175
      00FF963DH   LINE      CODE     ---       #176
      00FF9640H   LINE      CODE     ---       #177
      00FF9643H   LINE      CODE     ---       #178
      00FF9646H   LINE      CODE     ---       #179
      00FF9649H   LINE      CODE     ---       #180
      00FF964CH   LINE      CODE     ---       #181
      00FF964FH   LINE      CODE     ---       #183
      00FF9652H   LINE      CODE     ---       #184
      ---         BLOCKEND  ---      ---       LVL=0

      ---         MODULE    ---      ---       zf_common_debug
      00FFA05AH   PUBLIC    CODE     ---       debug_interrupr_handler
      00FF8EC5H   PUBLIC    CODE     ---       debug_init
      00FF97D6H   PUBLIC    CODE     ---       debug_assert_handler
      00FFA44FH   PUBLIC    CODE     ---       putchar
      00010CBBH   PUBLIC    XDATA    ---       debug_uart_buffer
      00010CFCH   PUBLIC    XDATA    ---       debug_uart_fifo
      000000D0H   SFRSYM    DATA     BYTE      PSW
      0000009DH   SFRSYM    DATA     BYTE      IRCBAND
      00000097H   SFRSYM    DATA     BYTE      AUXR2
      000000EFH   SFRSYM    DATA     BYTE      AUXINTIF
      000000FDH   SFRSYM    DATA     BYTE      S4CON
      000000ACH   SFRSYM    DATA     BYTE      S3CON
      0000009AH   SFRSYM    DATA     BYTE      S2CON
      000000B7H   SFRSYM    DATA     BYTE      IPH
      000000CDH   SFRSYM    DATA     BYTE      SPSTAT
      000000DDH   SFRSYM    DATA     BYTE      T4T3M
      000000C1H   SFRSYM    DATA     BYTE      WDT_CONTR
      000000DFH   SFRSYM    DATA     BYTE      IP3
      000000F4H   SFRSYM    DATA     BYTE      USBCON
      000000B5H   SFRSYM    DATA     BYTE      IP2
      000000FFH   SFRSYM    DATA     BYTE      RSTCFG
      000000C7H   SFRSYM    DATA     BYTE      IAP_CONTR
      000000F9H   SFRSYM    DATA     BYTE      LINICR
      0000008EH   SFRSYM    DATA     BYTE      AUXR
L251 LINKER/LOCATER V4.66.93.0                                                        04/22/2026  19:49:03  PAGE 45


      000000AFH   SFRSYM    DATA     BYTE      IE2
      00000088H   SFRSYM    DATA     BYTE      TCON
      00000089H   SFRSYM    DATA     BYTE      TMOD
      00000098H   SFRSYM    DATA     BYTE      SCON
      000000F1H   SFRSYM    DATA     BYTE      CANICR
      00000087H   SFRSYM    DATA     BYTE      PCON
      000000BCH   SFRSYM    DATA     BYTE      ADC_CONTR
      000000E7H   SFRSYM    DATA     BYTE      CMPCR2
      000000E6H   SFRSYM    DATA     BYTE      CMPCR1
      000000DEH   SFRSYM    DATA     BYTE      ADCCFG
      000000B8H   SFRSYM    DATA     BYTE      IP
      0000008FH   SFRSYM    DATA     BYTE      INTCLKO
      000000EEH   SFRSYM    DATA     BYTE      IP3H
      000000B6H   SFRSYM    DATA     BYTE      IP2H
      000000A8H   SFRSYM    DATA     BYTE      IE
      000000BBH   SFRSYM    DATA     BYTE      P_SW3
      000000BAH   SFRSYM    DATA     BYTE      P_SW2
      000000A2H   SFRSYM    DATA     BYTE      P_SW1
      000000CEH   SFRSYM    DATA     BYTE      SPCTL
      000000F8H   SFRSYM    DATA     BYTE      P7
      000000E8H   SFRSYM    DATA     BYTE      P6
      000000C8H   SFRSYM    DATA     BYTE      P5
      000000C0H   SFRSYM    DATA     BYTE      P4
      000000B0H   SFRSYM    DATA     BYTE      P3
      000000A0H   SFRSYM    DATA     BYTE      P2
      00000090H   SFRSYM    DATA     BYTE      P1
      00000080H   SFRSYM    DATA     BYTE      P0
      00FFB430H   SYMBOL    HCONST   ---       ?tpl?0001
      00010CFBH   SYMBOL    XDATA    BYTE      zf_debug_assert_enable
      00010D13H   SYMBOL    XDATA    BYTE      zf_debug_init_flag
      00011C5AH   SYMBOL    XDATA    ---       buff
      00011C5EH   SYMBOL    XDATA    DWORD     len
      00011C62H   SYMBOL    XDATA    ---       buff
      00011C66H   SYMBOL    XDATA    DWORD     len

      00FFA05AH   BLOCK     CODE     ---       LVL=0
      00011FCAH   SYMBOL    XDATA    BYTE      dat
      00FFA05AH   LINE      CODE     ---       #285
      00FFA05EH   LINE      CODE     ---       #287
      00FFA067H   LINE      CODE     ---       #289
      00FFA074H   LINE      CODE     ---       #290
      00FFA095H   LINE      CODE     ---       #291
      ---         BLOCKEND  ---      ---       LVL=0

      00FFA44FH   BLOCK     CODE     ---       LVL=0
      00011FCBH   SYMBOL    XDATA    CHAR      c
      00FFA44FH   LINE      CODE     ---       #307
      00FFA453H   LINE      CODE     ---       #309
      00FFA45CH   LINE      CODE     ---       #311
      00FFA460H   LINE      CODE     ---       #312
      ---         BLOCKEND  ---      ---       LVL=0

      00FF97D6H   BLOCK     CODE     ---       LVL=0
      000114C1H   SYMBOL    XDATA    BYTE      pass
      000114C2H   SYMBOL    XDATA    ---       file
      000114C6H   SYMBOL    XDATA    INT       line
      00FF97EAH   BLOCK     CODE     NEAR LAB  LVL=1
      000114C8H   SYMBOL    XDATA    ---       log_str
      ---         BLOCKEND  ---      ---       LVL=1
      00FF97D6H   LINE      CODE     ---       #350
      00FF97EAH   LINE      CODE     ---       #351
      00FF97EAH   LINE      CODE     ---       #352
      00FF97FFH   LINE      CODE     ---       #354
      00FF9801H   LINE      CODE     ---       #370
      00FF983EH   LINE      CODE     ---       #373
L251 LINKER/LOCATER V4.66.93.0                                                        04/22/2026  19:49:03  PAGE 46


      00FF9845H   LINE      CODE     ---       #374
      00FF984EH   LINE      CODE     ---       #375
      ---         BLOCKEND  ---      ---       LVL=0

      00FF8EC5H   BLOCK     CODE     ---       LVL=0
      00011FCCH   SYMBOL    XDATA    BYTE      uartx
      00FF8EC5H   LINE      CODE     ---       #457
      00FF8EC5H   LINE      CODE     ---       #458
      00FF8EC5H   LINE      CODE     ---       #459
      00FF8ECAH   LINE      CODE     ---       #465
      00FF8EE5H   LINE      CODE     ---       #472
      00FF8F12H   LINE      CODE     ---       #473
      00FF8F19H   LINE      CODE     ---       #476
      00FF8F22H   LINE      CODE     ---       #478
      00FF8F2CH   LINE      CODE     ---       #479
      00FF8F2EH   LINE      CODE     ---       #480
      00FF8F37H   LINE      CODE     ---       #482
      00FF8F41H   LINE      CODE     ---       #483
      00FF8F43H   LINE      CODE     ---       #484
      00FF8F4CH   LINE      CODE     ---       #486
      00FF8F56H   LINE      CODE     ---       #487
      00FF8F58H   LINE      CODE     ---       #488
      00FF8F61H   LINE      CODE     ---       #490
      00FF8F6BH   LINE      CODE     ---       #491
      ---         BLOCKEND  ---      ---       LVL=0

      ---         MODULE    ---      ---       zf_common_fifo
      00FF3CA4H   PUBLIC    CODE     ---       fifo_read_buffer
      00FF4255H   PUBLIC    CODE     ---       fifo_write_buffer
      00FF9C33H   PUBLIC    CODE     ---       fifo_used
      00FF86DFH   PUBLIC    CODE     ---       fifo_init
      000115D4H   PUBLIC    XDATA    BYTE      ?fifo_write_buffer?BYTE
      00011437H   PUBLIC    XDATA    BYTE      ?fifo_read_buffer?BYTE
      0001177FH   PUBLIC    XDATA    BYTE      ?fifo_init?BYTE
      000000D0H   SFRSYM    DATA     BYTE      PSW
      0000009DH   SFRSYM    DATA     BYTE      IRCBAND
      00000097H   SFRSYM    DATA     BYTE      AUXR2
      000000EFH   SFRSYM    DATA     BYTE      AUXINTIF
      000000FDH   SFRSYM    DATA     BYTE      S4CON
      000000ACH   SFRSYM    DATA     BYTE      S3CON
      0000009AH   SFRSYM    DATA     BYTE      S2CON
      000000B7H   SFRSYM    DATA     BYTE      IPH
      000000CDH   SFRSYM    DATA     BYTE      SPSTAT
      000000DDH   SFRSYM    DATA     BYTE      T4T3M
      000000C1H   SFRSYM    DATA     BYTE      WDT_CONTR
      000000DFH   SFRSYM    DATA     BYTE      IP3
      000000F4H   SFRSYM    DATA     BYTE      USBCON
      000000B5H   SFRSYM    DATA     BYTE      IP2
      000000FFH   SFRSYM    DATA     BYTE      RSTCFG
      000000C7H   SFRSYM    DATA     BYTE      IAP_CONTR
      000000F9H   SFRSYM    DATA     BYTE      LINICR
      0000008EH   SFRSYM    DATA     BYTE      AUXR
      000000AFH   SFRSYM    DATA     BYTE      IE2
      00000088H   SFRSYM    DATA     BYTE      TCON
      00000089H   SFRSYM    DATA     BYTE      TMOD
      00000098H   SFRSYM    DATA     BYTE      SCON
      000000F1H   SFRSYM    DATA     BYTE      CANICR
      00000087H   SFRSYM    DATA     BYTE      PCON
      000000BCH   SFRSYM    DATA     BYTE      ADC_CONTR
      000000E7H   SFRSYM    DATA     BYTE      CMPCR2
      000000E6H   SFRSYM    DATA     BYTE      CMPCR1
      000000DEH   SFRSYM    DATA     BYTE      ADCCFG
      000000B8H   SFRSYM    DATA     BYTE      IP
      0000008FH   SFRSYM    DATA     BYTE      INTCLKO
      000000EEH   SFRSYM    DATA     BYTE      IP3H
L251 LINKER/LOCATER V4.66.93.0                                                        04/22/2026  19:49:03  PAGE 47


      000000B6H   SFRSYM    DATA     BYTE      IP2H
      000000A8H   SFRSYM    DATA     BYTE      IE
      000000BBH   SFRSYM    DATA     BYTE      P_SW3
      000000BAH   SFRSYM    DATA     BYTE      P_SW2
      000000A2H   SFRSYM    DATA     BYTE      P_SW1
      000000CEH   SFRSYM    DATA     BYTE      SPCTL
      000000F8H   SFRSYM    DATA     BYTE      P7
      000000E8H   SFRSYM    DATA     BYTE      P6
      000000C8H   SFRSYM    DATA     BYTE      P5
      000000C0H   SFRSYM    DATA     BYTE      P4
      000000B0H   SFRSYM    DATA     BYTE      P3
      000000A0H   SFRSYM    DATA     BYTE      P2
      00000090H   SFRSYM    DATA     BYTE      P1
      00000080H   SFRSYM    DATA     BYTE      P0
      00FF9013H   SYMBOL    CODE     ---       fifo_head_offset
      00FF90B3H   SYMBOL    CODE     ---       fifo_end_offset

      00FF9013H   BLOCK     CODE     ---       LVL=0
      00011C6AH   SYMBOL    XDATA    ---       fifo
      00011C6EH   SYMBOL    XDATA    DWORD     offset
      00FF9013H   LINE      CODE     ---       #51
      00FF9027H   LINE      CODE     ---       #53
      00FF904FH   LINE      CODE     ---       #55
      00FF9051H   LINE      CODE     ---       #57
      00FF9084H   LINE      CODE     ---       #58
      00FF90B2H   LINE      CODE     ---       #59
      ---         BLOCKEND  ---      ---       LVL=0

      00FF90B3H   BLOCK     CODE     ---       LVL=0
      00011C72H   SYMBOL    XDATA    ---       fifo
      00011C76H   SYMBOL    XDATA    DWORD     offset
      00FF90B3H   LINE      CODE     ---       #69
      00FF90C7H   LINE      CODE     ---       #71
      00FF90EFH   LINE      CODE     ---       #73
      00FF90F1H   LINE      CODE     ---       #75
      00FF9124H   LINE      CODE     ---       #76
      00FF9152H   LINE      CODE     ---       #77
      ---         BLOCKEND  ---      ---       LVL=0
      00011D7CH   SYMBOL    XDATA    ---       fifo
      00011D80H   SYMBOL    XDATA    INT       return_state

      00FF9C33H   BLOCK     CODE     ---       LVL=0
      00011ECAH   SYMBOL    XDATA    ---       fifo
      00FF9C33H   LINE      CODE     ---       #120
      00FF9C3DH   LINE      CODE     ---       #122
      00FF9C5FH   LINE      CODE     ---       #123
      00FF9C8BH   LINE      CODE     ---       #124
      ---         BLOCKEND  ---      ---       LVL=0

      00FF4255H   BLOCK     CODE     ---       LVL=0
      000115D4H   SYMBOL    XDATA    ---       fifo
      000115D8H   SYMBOL    XDATA    ---       dat
      000115DCH   SYMBOL    XDATA    DWORD     length
      00FF4269H   BLOCK     CODE     NEAR LAB  LVL=1
      000115E0H   SYMBOL    XDATA    INT       return_state
      000115E2H   SYMBOL    XDATA    DWORD     temp_length
      ---         BLOCKEND  ---      ---       LVL=1
      00FF4255H   LINE      CODE     ---       #178
      00FF4269H   LINE      CODE     ---       #179
      00FF4269H   LINE      CODE     ---       #180
      00FF4271H   LINE      CODE     ---       #181
      00FF427DH   LINE      CODE     ---       #182
      00FF429FH   LINE      CODE     ---       #184
      00FF429FH   LINE      CODE     ---       #186
      00FF42ADH   LINE      CODE     ---       #188
L251 LINKER/LOCATER V4.66.93.0                                                        04/22/2026  19:49:03  PAGE 48


      00FF42B7H   LINE      CODE     ---       #189
      00FF42BAH   LINE      CODE     ---       #190
      00FF42BAH   LINE      CODE     ---       #191
      00FF42D5H   LINE      CODE     ---       #193
      00FF42DFH   LINE      CODE     ---       #194
      00FF42E2H   LINE      CODE     ---       #195
      00FF42E2H   LINE      CODE     ---       #196
      00FF42F6H   LINE      CODE     ---       #198
      00FF431CH   LINE      CODE     ---       #200
      00FF4352H   LINE      CODE     ---       #202
      00FF436DH   LINE      CODE     ---       #204
      00FF4391H   LINE      CODE     ---       #206
      00FF4391H   LINE      CODE     ---       #208
      00FF43D8H   LINE      CODE     ---       #211
      00FF43EFH   LINE      CODE     ---       #212
      00FF4454H   LINE      CODE     ---       #216
      00FF4477H   LINE      CODE     ---       #217
      00FF447AH   LINE      CODE     ---       #218
      00FF447AH   LINE      CODE     ---       #220
      00FF44C5H   LINE      CODE     ---       #223
      00FF44DCH   LINE      CODE     ---       #224
      00FF4543H   LINE      CODE     ---       #228
      00FF4566H   LINE      CODE     ---       #229
      00FF4569H   LINE      CODE     ---       #230
      00FF4569H   LINE      CODE     ---       #232
      00FF45B8H   LINE      CODE     ---       #235
      00FF45CFH   LINE      CODE     ---       #236
      00FF463CH   LINE      CODE     ---       #240
      00FF465FH   LINE      CODE     ---       #241
      00FF465FH   LINE      CODE     ---       #242
      00FF465FH   LINE      CODE     ---       #243
      00FF4662H   LINE      CODE     ---       #246
      00FF4683H   LINE      CODE     ---       #248
      00FF4683H   LINE      CODE     ---       #250
      00FF46CAH   LINE      CODE     ---       #253
      00FF46E1H   LINE      CODE     ---       #254
      00FF46E4H   LINE      CODE     ---       #255
      00FF46E4H   LINE      CODE     ---       #257
      00FF472FH   LINE      CODE     ---       #260
      00FF4746H   LINE      CODE     ---       #261
      00FF4748H   LINE      CODE     ---       #262
      00FF4748H   LINE      CODE     ---       #264
      00FF4797H   LINE      CODE     ---       #267
      00FF47AEH   LINE      CODE     ---       #268
      00FF47AEH   LINE      CODE     ---       #269
      00FF47AEH   LINE      CODE     ---       #270
      00FF47AEH   LINE      CODE     ---       #272
      00FF47D6H   LINE      CODE     ---       #273
      00FF47D8H   LINE      CODE     ---       #276
      00FF47E2H   LINE      CODE     ---       #277
      00FF47E2H   LINE      CODE     ---       #278
      00FF47F6H   LINE      CODE     ---       #279
      00FF47F6H   LINE      CODE     ---       #281
      00FF47FCH   LINE      CODE     ---       #282
      ---         BLOCKEND  ---      ---       LVL=0

      00FF3CA4H   BLOCK     CODE     ---       LVL=0
      00011437H   SYMBOL    XDATA    ---       fifo
      0001143BH   SYMBOL    XDATA    ---       dat
      0001143FH   SYMBOL    XDATA    ---       length
      00011443H   SYMBOL    XDATA    INT       flag
      00FF3CB8H   BLOCK     CODE     NEAR LAB  LVL=1
      00011445H   SYMBOL    XDATA    INT       return_state
      00011447H   SYMBOL    XDATA    DWORD     temp_length
      0001144BH   SYMBOL    XDATA    DWORD     fifo_data_length
L251 LINKER/LOCATER V4.66.93.0                                                        04/22/2026  19:49:03  PAGE 49


      ---         BLOCKEND  ---      ---       LVL=1
      00FF3CA4H   LINE      CODE     ---       #355
      00FF3CB8H   LINE      CODE     ---       #356
      00FF3CB8H   LINE      CODE     ---       #357
      00FF3CC0H   LINE      CODE     ---       #358
      00FF3CCCH   LINE      CODE     ---       #359
      00FF3CD8H   LINE      CODE     ---       #361
      00FF3CFAH   LINE      CODE     ---       #362
      00FF3D1CH   LINE      CODE     ---       #364
      00FF3D1CH   LINE      CODE     ---       #366
      00FF3D2AH   LINE      CODE     ---       #368
      00FF3D34H   LINE      CODE     ---       #369
      00FF3D37H   LINE      CODE     ---       #372
      00FF3D52H   LINE      CODE     ---       #374
      00FF3D6DH   LINE      CODE     ---       #375
      00FF3D77H   LINE      CODE     ---       #376
      00FF3D7AH   LINE      CODE     ---       #377
      00FF3D7AH   LINE      CODE     ---       #379
      00FF3D91H   LINE      CODE     ---       #380
      00FF3DB0H   LINE      CODE     ---       #382
      00FF3DCBH   LINE      CODE     ---       #383
      00FF3DD5H   LINE      CODE     ---       #384
      00FF3DE3H   LINE      CODE     ---       #386
      00FF3DF7H   LINE      CODE     ---       #387
      00FF3DFAH   LINE      CODE     ---       #388
      00FF3DFAH   LINE      CODE     ---       #391
      00FF3E0EH   LINE      CODE     ---       #392
      00FF3E44H   LINE      CODE     ---       #393
      00FF3E66H   LINE      CODE     ---       #395
      00FF3E87H   LINE      CODE     ---       #397
      00FF3EDAH   LINE      CODE     ---       #398
      00FF3F31H   LINE      CODE     ---       #399
      00FF3F89H   LINE      CODE     ---       #400
      00FF3F89H   LINE      CODE     ---       #401
      00FF3F8CH   LINE      CODE     ---       #404
      00FF3FB0H   LINE      CODE     ---       #406
      00FF3FB0H   LINE      CODE     ---       #408
      00FF3FF9H   LINE      CODE     ---       #409
      00FF404AH   LINE      CODE     ---       #410
      00FF404DH   LINE      CODE     ---       #411
      00FF404DH   LINE      CODE     ---       #413
      00FF409AH   LINE      CODE     ---       #414
      00FF40EDH   LINE      CODE     ---       #415
      00FF40F0H   LINE      CODE     ---       #416
      00FF40F0H   LINE      CODE     ---       #418
      00FF4141H   LINE      CODE     ---       #419
      00FF4198H   LINE      CODE     ---       #420
      00FF4198H   LINE      CODE     ---       #421
      00FF4198H   LINE      CODE     ---       #422
      00FF4198H   LINE      CODE     ---       #423
      00FF41ACH   LINE      CODE     ---       #424
      00FF41ACH   LINE      CODE     ---       #426
      00FF41BBH   LINE      CODE     ---       #428
      00FF41CDH   LINE      CODE     ---       #430
      00FF41D7H   LINE      CODE     ---       #431
      00FF41D9H   LINE      CODE     ---       #432
      00FF41D9H   LINE      CODE     ---       #433
      00FF41EDH   LINE      CODE     ---       #434
      00FF420BH   LINE      CODE     ---       #435
      00FF423AH   LINE      CODE     ---       #436
      00FF424EH   LINE      CODE     ---       #437
      00FF424EH   LINE      CODE     ---       #440
      00FF4254H   LINE      CODE     ---       #441
      ---         BLOCKEND  ---      ---       LVL=0

L251 LINKER/LOCATER V4.66.93.0                                                        04/22/2026  19:49:03  PAGE 50


      00FF86DFH   BLOCK     CODE     ---       LVL=0
      0001177FH   SYMBOL    XDATA    ---       fifo
      00011783H   SYMBOL    XDATA    INT       type
      00011785H   SYMBOL    XDATA    ---       buffer_addr
      00011789H   SYMBOL    XDATA    DWORD     siz
      00FF86DFH   LINE      CODE     ---       #549
      00FF86EFH   LINE      CODE     ---       #551
      00FF8711H   LINE      CODE     ---       #552
      00FF8711H   LINE      CODE     ---       #554
      00FF8730H   LINE      CODE     ---       #555
      00FF873EH   LINE      CODE     ---       #556
      00FF8753H   LINE      CODE     ---       #557
      00FF876AH   LINE      CODE     ---       #558
      00FF8781H   LINE      CODE     ---       #559
      00FF87A0H   LINE      CODE     ---       #560
      00FF87BFH   LINE      CODE     ---       #561
      00FF87BFH   LINE      CODE     ---       #562
      00FF87C1H   LINE      CODE     ---       #563
      ---         BLOCKEND  ---      ---       LVL=0

      ---         MODULE    ---      ---       zf_common_font
      00FF36B4H   PUBLIC    CODE     ---       ascii_font_8x16
      000000D0H   SFRSYM    DATA     BYTE      PSW
      0000009DH   SFRSYM    DATA     BYTE      IRCBAND
      00000097H   SFRSYM    DATA     BYTE      AUXR2
      000000EFH   SFRSYM    DATA     BYTE      AUXINTIF
      000000FDH   SFRSYM    DATA     BYTE      S4CON
      000000ACH   SFRSYM    DATA     BYTE      S3CON
      0000009AH   SFRSYM    DATA     BYTE      S2CON
      000000B7H   SFRSYM    DATA     BYTE      IPH
      000000CDH   SFRSYM    DATA     BYTE      SPSTAT
      000000DDH   SFRSYM    DATA     BYTE      T4T3M
      000000C1H   SFRSYM    DATA     BYTE      WDT_CONTR
      000000DFH   SFRSYM    DATA     BYTE      IP3
      000000F4H   SFRSYM    DATA     BYTE      USBCON
      000000B5H   SFRSYM    DATA     BYTE      IP2
      000000FFH   SFRSYM    DATA     BYTE      RSTCFG
      000000C7H   SFRSYM    DATA     BYTE      IAP_CONTR
      000000F9H   SFRSYM    DATA     BYTE      LINICR
      0000008EH   SFRSYM    DATA     BYTE      AUXR
      000000AFH   SFRSYM    DATA     BYTE      IE2
      00000088H   SFRSYM    DATA     BYTE      TCON
      00000089H   SFRSYM    DATA     BYTE      TMOD
      00000098H   SFRSYM    DATA     BYTE      SCON
      000000F1H   SFRSYM    DATA     BYTE      CANICR
      00000087H   SFRSYM    DATA     BYTE      PCON
      000000BCH   SFRSYM    DATA     BYTE      ADC_CONTR
      000000E7H   SFRSYM    DATA     BYTE      CMPCR2
      000000E6H   SFRSYM    DATA     BYTE      CMPCR1
      000000DEH   SFRSYM    DATA     BYTE      ADCCFG
      000000B8H   SFRSYM    DATA     BYTE      IP
      0000008FH   SFRSYM    DATA     BYTE      INTCLKO
      000000EEH   SFRSYM    DATA     BYTE      IP3H
      000000B6H   SFRSYM    DATA     BYTE      IP2H
      000000A8H   SFRSYM    DATA     BYTE      IE
      000000BBH   SFRSYM    DATA     BYTE      P_SW3
      000000BAH   SFRSYM    DATA     BYTE      P_SW2
      000000A2H   SFRSYM    DATA     BYTE      P_SW1
      000000CEH   SFRSYM    DATA     BYTE      SPCTL
      000000F8H   SFRSYM    DATA     BYTE      P7
      000000E8H   SFRSYM    DATA     BYTE      P6
      000000C8H   SFRSYM    DATA     BYTE      P5
      000000C0H   SFRSYM    DATA     BYTE      P4
      000000B0H   SFRSYM    DATA     BYTE      P3
      000000A0H   SFRSYM    DATA     BYTE      P2
L251 LINKER/LOCATER V4.66.93.0                                                        04/22/2026  19:49:03  PAGE 51


      00000090H   SFRSYM    DATA     BYTE      P1
      00000080H   SFRSYM    DATA     BYTE      P0

      ---         MODULE    ---      ---       zf_common_function
      00010DC2H   PUBLIC    XDATA    BYTE      ?vsnprintf?BYTE
      00010C84H   PUBLIC    XDATA    BYTE      ?zf_sprintf?BYTE
      000000D0H   SFRSYM    DATA     BYTE      PSW
      0000009DH   SFRSYM    DATA     BYTE      IRCBAND
      00000097H   SFRSYM    DATA     BYTE      AUXR2
      000000EFH   SFRSYM    DATA     BYTE      AUXINTIF
      000000FDH   SFRSYM    DATA     BYTE      S4CON
      000000ACH   SFRSYM    DATA     BYTE      S3CON
      0000009AH   SFRSYM    DATA     BYTE      S2CON
      000000B7H   SFRSYM    DATA     BYTE      IPH
      000000CDH   SFRSYM    DATA     BYTE      SPSTAT
      000000DDH   SFRSYM    DATA     BYTE      T4T3M
      000000C1H   SFRSYM    DATA     BYTE      WDT_CONTR
      000000DFH   SFRSYM    DATA     BYTE      IP3
      000000F4H   SFRSYM    DATA     BYTE      USBCON
      000000B5H   SFRSYM    DATA     BYTE      IP2
      000000FFH   SFRSYM    DATA     BYTE      RSTCFG
      000000C7H   SFRSYM    DATA     BYTE      IAP_CONTR
      000000F9H   SFRSYM    DATA     BYTE      LINICR
      0000008EH   SFRSYM    DATA     BYTE      AUXR
      000000AFH   SFRSYM    DATA     BYTE      IE2
      00000088H   SFRSYM    DATA     BYTE      TCON
      00000089H   SFRSYM    DATA     BYTE      TMOD
      00000098H   SFRSYM    DATA     BYTE      SCON
      000000F1H   SFRSYM    DATA     BYTE      CANICR
      00000087H   SFRSYM    DATA     BYTE      PCON
      000000BCH   SFRSYM    DATA     BYTE      ADC_CONTR
      000000E7H   SFRSYM    DATA     BYTE      CMPCR2
      000000E6H   SFRSYM    DATA     BYTE      CMPCR1
      000000DEH   SFRSYM    DATA     BYTE      ADCCFG
      000000B8H   SFRSYM    DATA     BYTE      IP
      0000008FH   SFRSYM    DATA     BYTE      INTCLKO
      000000EEH   SFRSYM    DATA     BYTE      IP3H
      000000B6H   SFRSYM    DATA     BYTE      IP2H
      000000A8H   SFRSYM    DATA     BYTE      IE
      000000BBH   SFRSYM    DATA     BYTE      P_SW3
      000000BAH   SFRSYM    DATA     BYTE      P_SW2
      000000A2H   SFRSYM    DATA     BYTE      P_SW1
      000000CEH   SFRSYM    DATA     BYTE      SPCTL
      000000F8H   SFRSYM    DATA     BYTE      P7
      000000E8H   SFRSYM    DATA     BYTE      P6
      000000C8H   SFRSYM    DATA     BYTE      P5
      000000C0H   SFRSYM    DATA     BYTE      P4
      000000B0H   SFRSYM    DATA     BYTE      P3
      000000A0H   SFRSYM    DATA     BYTE      P2
      00000090H   SFRSYM    DATA     BYTE      P1
      00000080H   SFRSYM    DATA     BYTE      P0
      00FFB1C6H   SYMBOL    HCONST   ---       ?tpl?0001
      00FFB1D6H   SYMBOL    HCONST   ---       ?tpl?0002
      00011C7AH   SYMBOL    XDATA    DWORD     num1
      00011C7EH   SYMBOL    XDATA    DWORD     num2
      00011ECEH   SYMBOL    XDATA    LONG      t
      00011B5EH   SYMBOL    XDATA    ---       str
      00011B62H   SYMBOL    XDATA    BYTE      sign
      00011B63H   SYMBOL    XDATA    LONG      temp
      0001134BH   SYMBOL    XDATA    ---       str
      0001134FH   SYMBOL    XDATA    LONG      number
      00011353H   SYMBOL    XDATA    ---       data_temp
      00011363H   SYMBOL    XDATA    BYTE      temp_bit
      00011364H   SYMBOL    XDATA    LONG      number_temp
      00011C82H   SYMBOL    XDATA    ---       str
L251 LINKER/LOCATER V4.66.93.0                                                        04/22/2026  19:49:03  PAGE 52


      00011C86H   SYMBOL    XDATA    DWORD     temp
      000113D3H   SYMBOL    XDATA    ---       str
      000113D7H   SYMBOL    XDATA    DWORD     number
      000113DBH   SYMBOL    XDATA    ---       data_temp
      000113EBH   SYMBOL    XDATA    BYTE      temp_bit
      0001161CH   SYMBOL    XDATA    ---       str
      00011620H   SYMBOL    XDATA    BYTE      sign
      00011621H   SYMBOL    XDATA    FLOAT     temp
      00011625H   SYMBOL    XDATA    FLOAT     temp_point
      00011629H   SYMBOL    XDATA    FLOAT     point_bit
      00011147H   SYMBOL    XDATA    ---       str
      0001114BH   SYMBOL    XDATA    FLOAT     number
      0001114FH   SYMBOL    XDATA    BYTE      point_bit
      00011150H   SYMBOL    XDATA    INT       data_int
      00011152H   SYMBOL    XDATA    INT       data_float
      00011154H   SYMBOL    XDATA    ---       data_temp
      00011164H   SYMBOL    XDATA    ---       data_temp_point
      00011170H   SYMBOL    XDATA    BYTE      temp_bit
      0001162DH   SYMBOL    XDATA    ---       str
      00011631H   SYMBOL    XDATA    BYTE      sign
      00011632H   SYMBOL    XDATA    FLOAT     temp
      00011636H   SYMBOL    XDATA    FLOAT     temp_point
      0001163AH   SYMBOL    XDATA    FLOAT     point_bit
      00010F71H   SYMBOL    XDATA    ---       str
      00010F75H   SYMBOL    XDATA    FLOAT     number
      00010F79H   SYMBOL    XDATA    BYTE      point_bit
      00010F7AH   SYMBOL    XDATA    INT       data_int
      00010F7CH   SYMBOL    XDATA    INT       data_float
      00010F7EH   SYMBOL    XDATA    ---       data_temp
      00010F96H   SYMBOL    XDATA    ---       data_temp_point
      00010FA8H   SYMBOL    XDATA    BYTE      temp_bit
      0001178DH   SYMBOL    XDATA    ---       str
      00011791H   SYMBOL    XDATA    DWORD     str_len
      00011795H   SYMBOL    XDATA    DWORD     result_data
      00011799H   SYMBOL    XDATA    BYTE      temp
      0001179AH   SYMBOL    XDATA    BYTE      flag
      000111EBH   SYMBOL    XDATA    ---       str
      000111EFH   SYMBOL    XDATA    DWORD     number
      000111F3H   SYMBOL    XDATA    ---       hex_index
      00011203H   SYMBOL    XDATA    ---       data_temp
      0001120FH   SYMBOL    XDATA    BYTE      temp_bit
      000114D5H   SYMBOL    XDATA    DWORD     dat
      000114D9H   SYMBOL    XDATA    ---       p
      000114DDH   SYMBOL    XDATA    BYTE      neg_type
      000114DEH   SYMBOL    XDATA    BYTE      radix
      000114DFH   SYMBOL    XDATA    LONG      neg_dat
      000114E3H   SYMBOL    XDATA    DWORD     pos_dat
      000114E7H   SYMBOL    XDATA    BYTE      temp_data
      000114E8H   SYMBOL    XDATA    BYTE      valid_num
      00011843H   SYMBOL    XDATA    ---       d_buff
      00011847H   SYMBOL    XDATA    DWORD     len
      0001184BH   SYMBOL    XDATA    DWORD     i
      0001184FH   SYMBOL    XDATA    CHAR      temp_data
      00010DC2H   SYMBOL    XDATA    ---       buffer
      00010DC6H   SYMBOL    XDATA    DWORD     siz
      00010DCAH   SYMBOL    XDATA    ---       format
      00010DCEH   SYMBOL    XDATA    ---       args
      00010DD2H   SYMBOL    XDATA    DWORD     i
      00010DD6H   SYMBOL    XDATA    ---       ptr
      00010DDAH   SYMBOL    XDATA    INT       j
      00010DDCH   SYMBOL    XDATA    INT       num
      00010DDEH   SYMBOL    XDATA    ---       temp
      00010DEEH   SYMBOL    XDATA    INT       len
      00010DF0H   SYMBOL    XDATA    INT       is_negative
      00010DF2H   SYMBOL    XDATA    ---       str
L251 LINKER/LOCATER V4.66.93.0                                                        04/22/2026  19:49:03  PAGE 53


      00010DF6H   SYMBOL    XDATA    DWORD     num_x
      00010DFAH   SYMBOL    XDATA    ---       temp_x
      00010E03H   SYMBOL    XDATA    ---       hex_digits
      00010E14H   SYMBOL    XDATA    CHAR      t
      00010E14H   SYMBOL    XDATA    CHAR      t
      00010C84H   SYMBOL    XDATA    ---       buff
      00010C88H   SYMBOL    XDATA    ---       format
      00010C8CH   SYMBOL    XDATA    DWORD     buff_len
      00010C90H   SYMBOL    XDATA    ---       arg
      00010C94H   SYMBOL    XDATA    CHAR      ret
      00010C95H   SYMBOL    XDATA    CHAR      ch
      00010C95H   SYMBOL    XDATA    ---       vstr
      00010CB6H   SYMBOL    XDATA    LONG      ival
      00010CBAH   SYMBOL    XDATA    BYTE      vlen
      00010C95H   SYMBOL    XDATA    ---       vstr
      00010CB6H   SYMBOL    XDATA    FLOAT     ival
      00010CBAH   SYMBOL    XDATA    BYTE      vlen
      00010C95H   SYMBOL    XDATA    ---       vstr
      00010CB6H   SYMBOL    XDATA    DWORD     ival
      00010CBAH   SYMBOL    XDATA    BYTE      vlen
      00010C95H   SYMBOL    XDATA    ---       vstr
      00010CB6H   SYMBOL    XDATA    DWORD     ival
      00010CBAH   SYMBOL    XDATA    BYTE      vlen
      00010C95H   SYMBOL    XDATA    ---       vstr
      00010CB6H   SYMBOL    XDATA    DWORD     ival
      00010CBAH   SYMBOL    XDATA    BYTE      vlen
      00010C95H   SYMBOL    XDATA    ---       pc
      00010C95H   SYMBOL    XDATA    ---       vstr
      00010CB6H   SYMBOL    XDATA    DWORD     ival

      ---         MODULE    ---      ---       zf_common_typedef
      0001130FH   PUBLIC    XDATA    ---       tim11_irq_handler
      00011311H   PUBLIC    XDATA    ---       uart1_irq_handler
      00011313H   PUBLIC    XDATA    ---       uart2_irq_handler
      00011315H   PUBLIC    XDATA    ---       uart3_irq_handler
      00011317H   PUBLIC    XDATA    ---       uart4_irq_handler
      00011319H   PUBLIC    XDATA    ---       tim0_irq_handler
      0001131BH   PUBLIC    XDATA    ---       int0_irq_handler
      0001131DH   PUBLIC    XDATA    ---       tim1_irq_handler
      0001131FH   PUBLIC    XDATA    ---       int1_irq_handler
      00011321H   PUBLIC    XDATA    ---       tim2_irq_handler
      00011323H   PUBLIC    XDATA    ---       int2_irq_handler
      00011325H   PUBLIC    XDATA    ---       tim3_irq_handler
      00011327H   PUBLIC    XDATA    ---       int3_irq_handler
      00011329H   PUBLIC    XDATA    ---       tim4_irq_handler
      0001132BH   PUBLIC    XDATA    ---       int4_irq_handler
      000000D0H   SFRSYM    DATA     BYTE      PSW
      0000009DH   SFRSYM    DATA     BYTE      IRCBAND
      00000097H   SFRSYM    DATA     BYTE      AUXR2
      000000EFH   SFRSYM    DATA     BYTE      AUXINTIF
      000000FDH   SFRSYM    DATA     BYTE      S4CON
      000000ACH   SFRSYM    DATA     BYTE      S3CON
      0000009AH   SFRSYM    DATA     BYTE      S2CON
      000000B7H   SFRSYM    DATA     BYTE      IPH
      000000CDH   SFRSYM    DATA     BYTE      SPSTAT
      000000DDH   SFRSYM    DATA     BYTE      T4T3M
      000000C1H   SFRSYM    DATA     BYTE      WDT_CONTR
      000000DFH   SFRSYM    DATA     BYTE      IP3
      000000F4H   SFRSYM    DATA     BYTE      USBCON
      000000B5H   SFRSYM    DATA     BYTE      IP2
      000000FFH   SFRSYM    DATA     BYTE      RSTCFG
      000000C7H   SFRSYM    DATA     BYTE      IAP_CONTR
      000000F9H   SFRSYM    DATA     BYTE      LINICR
      0000008EH   SFRSYM    DATA     BYTE      AUXR
      000000AFH   SFRSYM    DATA     BYTE      IE2
L251 LINKER/LOCATER V4.66.93.0                                                        04/22/2026  19:49:03  PAGE 54


      00000088H   SFRSYM    DATA     BYTE      TCON
      00000089H   SFRSYM    DATA     BYTE      TMOD
      00000098H   SFRSYM    DATA     BYTE      SCON
      000000F1H   SFRSYM    DATA     BYTE      CANICR
      00000087H   SFRSYM    DATA     BYTE      PCON
      000000BCH   SFRSYM    DATA     BYTE      ADC_CONTR
      000000E7H   SFRSYM    DATA     BYTE      CMPCR2
      000000E6H   SFRSYM    DATA     BYTE      CMPCR1
      000000DEH   SFRSYM    DATA     BYTE      ADCCFG
      000000B8H   SFRSYM    DATA     BYTE      IP
      0000008FH   SFRSYM    DATA     BYTE      INTCLKO
      000000EEH   SFRSYM    DATA     BYTE      IP3H
      000000B6H   SFRSYM    DATA     BYTE      IP2H
      000000A8H   SFRSYM    DATA     BYTE      IE
      000000BBH   SFRSYM    DATA     BYTE      P_SW3
      000000BAH   SFRSYM    DATA     BYTE      P_SW2
      000000A2H   SFRSYM    DATA     BYTE      P_SW1
      000000CEH   SFRSYM    DATA     BYTE      SPCTL
      000000F8H   SFRSYM    DATA     BYTE      P7
      000000E8H   SFRSYM    DATA     BYTE      P6
      000000C8H   SFRSYM    DATA     BYTE      P5
      000000C0H   SFRSYM    DATA     BYTE      P4
      000000B0H   SFRSYM    DATA     BYTE      P3
      000000A0H   SFRSYM    DATA     BYTE      P2
      00000090H   SFRSYM    DATA     BYTE      P1
      00000080H   SFRSYM    DATA     BYTE      P0

      ---         MODULE    ---      ---       zf_common_interrupt
      00FF0006H   PUBLIC    CODE     ---       interrupt_global_enable
      000000D0H   SFRSYM    DATA     BYTE      PSW
      0000009DH   SFRSYM    DATA     BYTE      IRCBAND
      00000097H   SFRSYM    DATA     BYTE      AUXR2
      000000EFH   SFRSYM    DATA     BYTE      AUXINTIF
      000000FDH   SFRSYM    DATA     BYTE      S4CON
      000000ACH   SFRSYM    DATA     BYTE      S3CON
      0000009AH   SFRSYM    DATA     BYTE      S2CON
      000000B7H   SFRSYM    DATA     BYTE      IPH
      000000CDH   SFRSYM    DATA     BYTE      SPSTAT
      000000DDH   SFRSYM    DATA     BYTE      T4T3M
      000000C1H   SFRSYM    DATA     BYTE      WDT_CONTR
      000000DFH   SFRSYM    DATA     BYTE      IP3
      000000F4H   SFRSYM    DATA     BYTE      USBCON
      000000B5H   SFRSYM    DATA     BYTE      IP2
      000000FFH   SFRSYM    DATA     BYTE      RSTCFG
      000000C7H   SFRSYM    DATA     BYTE      IAP_CONTR
      000000F9H   SFRSYM    DATA     BYTE      LINICR
      0000008EH   SFRSYM    DATA     BYTE      AUXR
      000000AFH   SFRSYM    DATA     BYTE      IE2
      00000088H   SFRSYM    DATA     BYTE      TCON
      00000089H   SFRSYM    DATA     BYTE      TMOD
      00000098H   SFRSYM    DATA     BYTE      SCON
      000000F1H   SFRSYM    DATA     BYTE      CANICR
      00000087H   SFRSYM    DATA     BYTE      PCON
      000000BCH   SFRSYM    DATA     BYTE      ADC_CONTR
      000000E7H   SFRSYM    DATA     BYTE      CMPCR2
      000000E6H   SFRSYM    DATA     BYTE      CMPCR1
      000000DEH   SFRSYM    DATA     BYTE      ADCCFG
      000000B8H   SFRSYM    DATA     BYTE      IP
      0000008FH   SFRSYM    DATA     BYTE      INTCLKO
      000000EEH   SFRSYM    DATA     BYTE      IP3H
      000000B6H   SFRSYM    DATA     BYTE      IP2H
      000000A8H   SFRSYM    DATA     BYTE      IE
      000000BBH   SFRSYM    DATA     BYTE      P_SW3
      000000BAH   SFRSYM    DATA     BYTE      P_SW2
      000000A2H   SFRSYM    DATA     BYTE      P_SW1
L251 LINKER/LOCATER V4.66.93.0                                                        04/22/2026  19:49:03  PAGE 55


      000000CEH   SFRSYM    DATA     BYTE      SPCTL
      000000F8H   SFRSYM    DATA     BYTE      P7
      000000A8H.7 SFRSYM    DATA     BIT       EA
      000000E8H   SFRSYM    DATA     BYTE      P6
      000000C8H   SFRSYM    DATA     BYTE      P5
      000000C0H   SFRSYM    DATA     BYTE      P4
      000000B0H   SFRSYM    DATA     BYTE      P3
      000000A0H   SFRSYM    DATA     BYTE      P2
      00000090H   SFRSYM    DATA     BYTE      P1
      00000080H   SFRSYM    DATA     BYTE      P0
      00011F5EH   SYMBOL    XDATA    INT       irqn
      00011F60H   SYMBOL    XDATA    BYTE      priority

      00FF0006H   BLOCK     CODE     ---       LVL=0
      00FF0006H   LINE      CODE     ---       #88
      00FF0006H   LINE      CODE     ---       #90
      00FF0009H   LINE      CODE     ---       #91
      ---         BLOCKEND  ---      ---       LVL=0

      ---         MODULE    ---      ---       zf_driver_adc
      00FF8B1EH   PUBLIC    CODE     ---       adc_init
      00011A85H   PUBLIC    XDATA    ---       adc_average
      00000094H   SFRSYM    DATA     BYTE      P0M0
      000000D0H   SFRSYM    DATA     BYTE      PSW
      0000009DH   SFRSYM    DATA     BYTE      IRCBAND
      00000097H   SFRSYM    DATA     BYTE      AUXR2
      000000EFH   SFRSYM    DATA     BYTE      AUXINTIF
      000000FDH   SFRSYM    DATA     BYTE      S4CON
      000000ACH   SFRSYM    DATA     BYTE      S3CON
      0000009AH   SFRSYM    DATA     BYTE      S2CON
      000000B7H   SFRSYM    DATA     BYTE      IPH
      000000CDH   SFRSYM    DATA     BYTE      SPSTAT
      000000BEH   SFRSYM    DATA     BYTE      ADC_RESL
      000000DDH   SFRSYM    DATA     BYTE      T4T3M
      000000C1H   SFRSYM    DATA     BYTE      WDT_CONTR
      000000DFH   SFRSYM    DATA     BYTE      IP3
      000000F4H   SFRSYM    DATA     BYTE      USBCON
      000000B5H   SFRSYM    DATA     BYTE      IP2
      000000FFH   SFRSYM    DATA     BYTE      RSTCFG
      000000C7H   SFRSYM    DATA     BYTE      IAP_CONTR
      000000F9H   SFRSYM    DATA     BYTE      LINICR
      0000008EH   SFRSYM    DATA     BYTE      AUXR
      000000AFH   SFRSYM    DATA     BYTE      IE2
      00000088H   SFRSYM    DATA     BYTE      TCON
      00000089H   SFRSYM    DATA     BYTE      TMOD
      00000098H   SFRSYM    DATA     BYTE      SCON
      000000F1H   SFRSYM    DATA     BYTE      CANICR
      00000087H   SFRSYM    DATA     BYTE      PCON
      000000BCH   SFRSYM    DATA     BYTE      ADC_CONTR
      000000E7H   SFRSYM    DATA     BYTE      CMPCR2
      000000E6H   SFRSYM    DATA     BYTE      CMPCR1
      000000DEH   SFRSYM    DATA     BYTE      ADCCFG
      000000B8H   SFRSYM    DATA     BYTE      IP
      0000008FH   SFRSYM    DATA     BYTE      INTCLKO
      000000EEH   SFRSYM    DATA     BYTE      IP3H
      000000B6H   SFRSYM    DATA     BYTE      IP2H
      000000BDH   SFRSYM    DATA     BYTE      ADC_RES
      000000A8H   SFRSYM    DATA     BYTE      IE
      000000BBH   SFRSYM    DATA     BYTE      P_SW3
      000000BAH   SFRSYM    DATA     BYTE      P_SW2
      000000A2H   SFRSYM    DATA     BYTE      P_SW1
      000000CEH   SFRSYM    DATA     BYTE      SPCTL
      000000F8H   SFRSYM    DATA     BYTE      P7
      000000E8H   SFRSYM    DATA     BYTE      P6
      000000C8H   SFRSYM    DATA     BYTE      P5
L251 LINKER/LOCATER V4.66.93.0                                                        04/22/2026  19:49:03  PAGE 56


      000000C0H   SFRSYM    DATA     BYTE      P4
      000000B0H   SFRSYM    DATA     BYTE      P3
      000000A0H   SFRSYM    DATA     BYTE      P2
      00000090H   SFRSYM    DATA     BYTE      P1
      00000080H   SFRSYM    DATA     BYTE      P0
      00000091H   SFRSYM    DATA     BYTE      P1M1
      00000092H   SFRSYM    DATA     BYTE      P1M0
      00000093H   SFRSYM    DATA     BYTE      P0M1
      00011A84H   SYMBOL    XDATA    BYTE      adc_resolution
      00011ADCH   SYMBOL    XDATA    INT       ch
      00011ADEH   SYMBOL    XDATA    BYTE      count
      00011ADFH   SYMBOL    XDATA    BYTE      i
      00011AE0H   SYMBOL    XDATA    WORD      sum
      00011AE2H   SYMBOL    XDATA    WORD      min
      00011AE4H   SYMBOL    XDATA    WORD      max
      00011ED2H   SYMBOL    XDATA    INT       ch
      00011ED4H   SYMBOL    XDATA    WORD      adc_value

      00FF8B1EH   BLOCK     CODE     ---       LVL=0
      00011ED6H   SYMBOL    XDATA    INT       ch
      00011ED8H   SYMBOL    XDATA    INT       resolution
      00FF8B1EH   LINE      CODE     ---       #114
      00FF8B2AH   LINE      CODE     ---       #116
      00FF8B2DH   LINE      CODE     ---       #118
      00FF8B30H   LINE      CODE     ---       #119
      00FF8B3AH   LINE      CODE     ---       #121
      00FF8B4EH   LINE      CODE     ---       #124
      00FF8B6BH   LINE      CODE     ---       #125
      00FF8B86H   LINE      CODE     ---       #126
      00FF8B88H   LINE      CODE     ---       #127
      00FF8B9AH   LINE      CODE     ---       #130
      00FF8BB7H   LINE      CODE     ---       #131
      00FF8BD2H   LINE      CODE     ---       #132
      00FF8BD2H   LINE      CODE     ---       #134
      00FF8BD5H   LINE      CODE     ---       #136
      00FF8BD8H   LINE      CODE     ---       #138
      00FF8BE2H   LINE      CODE     ---       #139
      ---         BLOCKEND  ---      ---       LVL=0

      ---         MODULE    ---      ---       zf_driver_delay
      00FF9C8CH   PUBLIC    CODE     ---       system_delay_init
      00FFA2F5H   PUBLIC    CODE     ---       system_delay_ms
      00FFA31AH   PUBLIC    CODE     ---       system_delay_us
      000000D0H   SFRSYM    DATA     BYTE      PSW
      0000009DH   SFRSYM    DATA     BYTE      IRCBAND
      00000097H   SFRSYM    DATA     BYTE      AUXR2
      000000EFH   SFRSYM    DATA     BYTE      AUXINTIF
      000000FDH   SFRSYM    DATA     BYTE      S4CON
      000000ACH   SFRSYM    DATA     BYTE      S3CON
      0000009AH   SFRSYM    DATA     BYTE      S2CON
      000000B7H   SFRSYM    DATA     BYTE      IPH
      000000CDH   SFRSYM    DATA     BYTE      SPSTAT
      000000DDH   SFRSYM    DATA     BYTE      T4T3M
      000000C1H   SFRSYM    DATA     BYTE      WDT_CONTR
      000000DFH   SFRSYM    DATA     BYTE      IP3
      000000F4H   SFRSYM    DATA     BYTE      USBCON
      000000B5H   SFRSYM    DATA     BYTE      IP2
      000000FFH   SFRSYM    DATA     BYTE      RSTCFG
      000000C7H   SFRSYM    DATA     BYTE      IAP_CONTR
      000000F9H   SFRSYM    DATA     BYTE      LINICR
      0000008EH   SFRSYM    DATA     BYTE      AUXR
      000000AFH   SFRSYM    DATA     BYTE      IE2
      00000088H   SFRSYM    DATA     BYTE      TCON
      00000089H   SFRSYM    DATA     BYTE      TMOD
      00000098H   SFRSYM    DATA     BYTE      SCON
L251 LINKER/LOCATER V4.66.93.0                                                        04/22/2026  19:49:03  PAGE 57


      000000F1H   SFRSYM    DATA     BYTE      CANICR
      00000087H   SFRSYM    DATA     BYTE      PCON
      000000BCH   SFRSYM    DATA     BYTE      ADC_CONTR
      000000E7H   SFRSYM    DATA     BYTE      CMPCR2
      000000E6H   SFRSYM    DATA     BYTE      CMPCR1
      000000DEH   SFRSYM    DATA     BYTE      ADCCFG
      000000B8H   SFRSYM    DATA     BYTE      IP
      0000008FH   SFRSYM    DATA     BYTE      INTCLKO
      000000EEH   SFRSYM    DATA     BYTE      IP3H
      000000B6H   SFRSYM    DATA     BYTE      IP2H
      000000A8H   SFRSYM    DATA     BYTE      IE
      000000BBH   SFRSYM    DATA     BYTE      P_SW3
      000000BAH   SFRSYM    DATA     BYTE      P_SW2
      000000A2H   SFRSYM    DATA     BYTE      P_SW1
      000000CEH   SFRSYM    DATA     BYTE      SPCTL
      000000F8H   SFRSYM    DATA     BYTE      P7
      000000E8H   SFRSYM    DATA     BYTE      P6
      000000C8H   SFRSYM    DATA     BYTE      P5
      000000C0H   SFRSYM    DATA     BYTE      P4
      000000B0H   SFRSYM    DATA     BYTE      P3
      000000A0H   SFRSYM    DATA     BYTE      P2
      00000090H   SFRSYM    DATA     BYTE      P1
      00000080H   SFRSYM    DATA     BYTE      P0
      00FFA413H   SYMBOL    CODE     ---       delay_cycles
      00011EDAH   SYMBOL    XDATA    WORD      zf_delay_1ms
      00011EDCH   SYMBOL    XDATA    WORD      zf_delay_1us

      00FFA413H   BLOCK     CODE     ---       LVL=0
      00011F82H   SYMBOL    XDATA    WORD      cycles
      00FFA413H   LINE      CODE     ---       #44
      00FFA419H   LINE      CODE     ---       #47
      00FFA419H   LINE      CODE     ---       #50
      00FFA430H   LINE      CODE     ---       #51
      ---         BLOCKEND  ---      ---       LVL=0

      00FF9C8CH   BLOCK     CODE     ---       LVL=0
      00FF9C8CH   LINE      CODE     ---       #59
      00FF9C8CH   LINE      CODE     ---       #61
      00FF9CA3H   LINE      CODE     ---       #62
      00FF9CBEH   LINE      CODE     ---       #63
      00FF9CE3H   LINE      CODE     ---       #64
      ---         BLOCKEND  ---      ---       LVL=0

      00FFA2F5H   BLOCK     CODE     ---       LVL=0
      00011F84H   SYMBOL    XDATA    WORD      ms
      00FFA2F5H   LINE      CODE     ---       #72
      00FFA2FBH   LINE      CODE     ---       #74
      00FFA2FBH   LINE      CODE     ---       #76
      00FFA304H   LINE      CODE     ---       #77
      00FFA319H   LINE      CODE     ---       #78
      ---         BLOCKEND  ---      ---       LVL=0

      00FFA31AH   BLOCK     CODE     ---       LVL=0
      00011F86H   SYMBOL    XDATA    WORD      us
      00FFA31AH   LINE      CODE     ---       #86
      00FFA320H   LINE      CODE     ---       #88
      00FFA320H   LINE      CODE     ---       #90
      00FFA329H   LINE      CODE     ---       #91
      00FFA33EH   LINE      CODE     ---       #92
      ---         BLOCKEND  ---      ---       LVL=0

      ---         MODULE    ---      ---       zf_driver_eeprom
      00011AE6H   PUBLIC    XDATA    BYTE      ?iap_read_buff?BYTE
      00011AF0H   PUBLIC    XDATA    BYTE      ?iap_write_buff?BYTE
      000000D0H   SFRSYM    DATA     BYTE      PSW
L251 LINKER/LOCATER V4.66.93.0                                                        04/22/2026  19:49:03  PAGE 58


      0000009DH   SFRSYM    DATA     BYTE      IRCBAND
      00000097H   SFRSYM    DATA     BYTE      AUXR2
      000000C6H   SFRSYM    DATA     BYTE      IAP_TRIG
      000000EFH   SFRSYM    DATA     BYTE      AUXINTIF
      000000FDH   SFRSYM    DATA     BYTE      S4CON
      000000ACH   SFRSYM    DATA     BYTE      S3CON
      0000009AH   SFRSYM    DATA     BYTE      S2CON
      000000B7H   SFRSYM    DATA     BYTE      IPH
      000000CDH   SFRSYM    DATA     BYTE      SPSTAT
      000000DDH   SFRSYM    DATA     BYTE      T4T3M
      000000C1H   SFRSYM    DATA     BYTE      WDT_CONTR
      000000C2H   SFRSYM    DATA     BYTE      IAP_DATA
      000000DFH   SFRSYM    DATA     BYTE      IP3
      000000F4H   SFRSYM    DATA     BYTE      USBCON
      000000B5H   SFRSYM    DATA     BYTE      IP2
      000000FFH   SFRSYM    DATA     BYTE      RSTCFG
      000000C7H   SFRSYM    DATA     BYTE      IAP_CONTR
      000000F9H   SFRSYM    DATA     BYTE      LINICR
      0000008EH   SFRSYM    DATA     BYTE      AUXR
      000000AFH   SFRSYM    DATA     BYTE      IE2
      00000088H   SFRSYM    DATA     BYTE      TCON
      00000089H   SFRSYM    DATA     BYTE      TMOD
      00000098H   SFRSYM    DATA     BYTE      SCON
      000000F5H   SFRSYM    DATA     BYTE      IAP_TPS
      000000F1H   SFRSYM    DATA     BYTE      CANICR
      00000087H   SFRSYM    DATA     BYTE      PCON
      000000BCH   SFRSYM    DATA     BYTE      ADC_CONTR
      000000E7H   SFRSYM    DATA     BYTE      CMPCR2
      000000E6H   SFRSYM    DATA     BYTE      CMPCR1
      000000C4H   SFRSYM    DATA     BYTE      IAP_ADDRL
      000000C3H   SFRSYM    DATA     BYTE      IAP_ADDRH
      000000F6H   SFRSYM    DATA     BYTE      IAP_ADDRE
      000000DEH   SFRSYM    DATA     BYTE      ADCCFG
      000000B8H   SFRSYM    DATA     BYTE      IP
      0000008FH   SFRSYM    DATA     BYTE      INTCLKO
      000000EEH   SFRSYM    DATA     BYTE      IP3H
      000000B6H   SFRSYM    DATA     BYTE      IP2H
      000000C5H   SFRSYM    DATA     BYTE      IAP_CMD
      000000A8H   SFRSYM    DATA     BYTE      IE
      000000BBH   SFRSYM    DATA     BYTE      P_SW3
      000000BAH   SFRSYM    DATA     BYTE      P_SW2
      000000A2H   SFRSYM    DATA     BYTE      P_SW1
      000000CEH   SFRSYM    DATA     BYTE      SPCTL
      000000F8H   SFRSYM    DATA     BYTE      P7
      000000A8H.7 SFRSYM    DATA     BIT       EA
      000000E8H   SFRSYM    DATA     BYTE      P6
      000000C8H   SFRSYM    DATA     BYTE      P5
      000000C0H   SFRSYM    DATA     BYTE      P4
      000000B0H   SFRSYM    DATA     BYTE      P3
      000000A0H   SFRSYM    DATA     BYTE      P2
      00000090H   SFRSYM    DATA     BYTE      P1
      00000080H   SFRSYM    DATA     BYTE      P0
      00FFA9ACH   SYMBOL    HCONST   ---       ?tpl?0001
      00011FCDH   SYMBOL    XDATA    BYTE      write_time
      00011E5AH   SYMBOL    XDATA    DWORD     addr
      00011E5EH   SYMBOL    XDATA    BYTE      temp
      00000020H.0 SYMBOL    BIT      BIT       flag
      00011E5FH   SYMBOL    XDATA    DWORD     addr
      00011E63H   SYMBOL    XDATA    BYTE      byte
      00000020H.1 SYMBOL    BIT      BIT       flag
      00011AE6H   SYMBOL    XDATA    DWORD     addr
      00011AEAH   SYMBOL    XDATA    ---       buf
      00011AEEH   SYMBOL    XDATA    WORD      len
      00011AF0H   SYMBOL    XDATA    DWORD     addr
      00011AF4H   SYMBOL    XDATA    ---       buf
L251 LINKER/LOCATER V4.66.93.0                                                        04/22/2026  19:49:03  PAGE 59


      00011AF8H   SYMBOL    XDATA    WORD      len
      00011EDEH   SYMBOL    XDATA    DWORD     addr
      00000020H.2 SYMBOL    BIT      BIT       flag
      00010000H   SYMBOL    XDATA    WORD      addr
      00010002H   SYMBOL    XDATA    ---       buf
      00010006H   SYMBOL    XDATA    WORD      len
      00010008H   SYMBOL    XDATA    ---       temp
      00010208H   SYMBOL    XDATA    WORD      i

      ---         MODULE    ---      ---       zf_driver_encoder
      00FF84E4H   PUBLIC    CODE     ---       encoder_dir_init
      000000D0H   SFRSYM    DATA     BYTE      PSW
      0000009DH   SFRSYM    DATA     BYTE      IRCBAND
      00000097H   SFRSYM    DATA     BYTE      AUXR2
      000000EFH   SFRSYM    DATA     BYTE      AUXINTIF
      000000FDH   SFRSYM    DATA     BYTE      S4CON
      000000ACH   SFRSYM    DATA     BYTE      S3CON
      0000009AH   SFRSYM    DATA     BYTE      S2CON
      000000B7H   SFRSYM    DATA     BYTE      IPH
      000000CDH   SFRSYM    DATA     BYTE      SPSTAT
      000000DDH   SFRSYM    DATA     BYTE      T4T3M
      000000C1H   SFRSYM    DATA     BYTE      WDT_CONTR
      00000088H.6 SFRSYM    DATA     BIT       TR1
      00000088H.4 SFRSYM    DATA     BIT       TR0
      000000D3H   SFRSYM    DATA     BYTE      T4L
      000000D5H   SFRSYM    DATA     BYTE      T3L
      000000D7H   SFRSYM    DATA     BYTE      T2L
      0000008BH   SFRSYM    DATA     BYTE      TL1
      0000008AH   SFRSYM    DATA     BYTE      TL0
      000000D2H   SFRSYM    DATA     BYTE      T4H
      000000D4H   SFRSYM    DATA     BYTE      T3H
      000000D6H   SFRSYM    DATA     BYTE      T2H
      0000008DH   SFRSYM    DATA     BYTE      TH1
      0000008CH   SFRSYM    DATA     BYTE      TH0
      000000DFH   SFRSYM    DATA     BYTE      IP3
      000000F4H   SFRSYM    DATA     BYTE      USBCON
      000000B5H   SFRSYM    DATA     BYTE      IP2
      000000FFH   SFRSYM    DATA     BYTE      RSTCFG
      000000C7H   SFRSYM    DATA     BYTE      IAP_CONTR
      000000F9H   SFRSYM    DATA     BYTE      LINICR
      0000008EH   SFRSYM    DATA     BYTE      AUXR
      000000AFH   SFRSYM    DATA     BYTE      IE2
      00000088H   SFRSYM    DATA     BYTE      TCON
      00000089H   SFRSYM    DATA     BYTE      TMOD
      00000098H   SFRSYM    DATA     BYTE      SCON
      000000F1H   SFRSYM    DATA     BYTE      CANICR
      00000087H   SFRSYM    DATA     BYTE      PCON
      000000BCH   SFRSYM    DATA     BYTE      ADC_CONTR
      000000E7H   SFRSYM    DATA     BYTE      CMPCR2
      000000E6H   SFRSYM    DATA     BYTE      CMPCR1
      000000DEH   SFRSYM    DATA     BYTE      ADCCFG
      000000B8H   SFRSYM    DATA     BYTE      IP
      0000008FH   SFRSYM    DATA     BYTE      INTCLKO
      000000EEH   SFRSYM    DATA     BYTE      IP3H
      000000B6H   SFRSYM    DATA     BYTE      IP2H
      000000A8H   SFRSYM    DATA     BYTE      IE
      000000BBH   SFRSYM    DATA     BYTE      P_SW3
      000000BAH   SFRSYM    DATA     BYTE      P_SW2
      000000A2H   SFRSYM    DATA     BYTE      P_SW1
      000000CEH   SFRSYM    DATA     BYTE      SPCTL
      000000F8H   SFRSYM    DATA     BYTE      P7
      000000E8H   SFRSYM    DATA     BYTE      P6
      000000C8H   SFRSYM    DATA     BYTE      P5
      000000C0H   SFRSYM    DATA     BYTE      P4
      000000B0H   SFRSYM    DATA     BYTE      P3
L251 LINKER/LOCATER V4.66.93.0                                                        04/22/2026  19:49:03  PAGE 60


      000000A0H   SFRSYM    DATA     BYTE      P2
      00000090H   SFRSYM    DATA     BYTE      P1
      00000080H   SFRSYM    DATA     BYTE      P0
      00011D82H   SYMBOL    XDATA    ---       encoder_dir_pin
      00011EE2H   SYMBOL    XDATA    INT       encoder_n
      00011EE4H   SYMBOL    XDATA    INT       dat
      00011F88H   SYMBOL    XDATA    INT       encoder_n

      00FF84E4H   BLOCK     CODE     ---       LVL=0
      00011D88H   SYMBOL    XDATA    INT       encoder_n
      00011D8AH   SYMBOL    XDATA    INT       dir_pin
      00011D8CH   SYMBOL    XDATA    INT       lsb_pin
      00FF84E4H   LINE      CODE     ---       #154
      00FF84F6H   LINE      CODE     ---       #160
      00FF8512H   LINE      CODE     ---       #161
      00FF8534H   LINE      CODE     ---       #162
      00FF855CH   LINE      CODE     ---       #164
      00FF856CH   LINE      CODE     ---       #165
      00FF8582H   LINE      CODE     ---       #166
      00FF859BH   LINE      CODE     ---       #167
      00FF85B5H   LINE      CODE     ---       #169
      00FF85B5H   LINE      CODE     ---       #171
      00FF85B8H   LINE      CODE     ---       #172
      00FF85BBH   LINE      CODE     ---       #173
      00FF85BEH   LINE      CODE     ---       #174
      00FF85C1H   LINE      CODE     ---       #175
      00FF85C3H   LINE      CODE     ---       #177
      00FF85C3H   LINE      CODE     ---       #179
      00FF85C6H   LINE      CODE     ---       #180
      00FF85C9H   LINE      CODE     ---       #181
      00FF85CCH   LINE      CODE     ---       #182
      00FF85CFH   LINE      CODE     ---       #183
      00FF85D1H   LINE      CODE     ---       #185
      00FF85D1H   LINE      CODE     ---       #187
      00FF85D4H   LINE      CODE     ---       #188
      00FF85D7H   LINE      CODE     ---       #189
      00FF85DAH   LINE      CODE     ---       #190
      00FF85DCH   LINE      CODE     ---       #192
      00FF85DCH   LINE      CODE     ---       #194
      00FF85DFH   LINE      CODE     ---       #195
      00FF85E2H   LINE      CODE     ---       #196
      00FF85E5H   LINE      CODE     ---       #197
      00FF85E7H   LINE      CODE     ---       #199
      00FF85E7H   LINE      CODE     ---       #201
      00FF85EAH   LINE      CODE     ---       #202
      00FF85EDH   LINE      CODE     ---       #203
      00FF85F0H   LINE      CODE     ---       #204
      00FF85F0H   LINE      CODE     ---       #206
      00FF85F0H   LINE      CODE     ---       #207
      ---         BLOCKEND  ---      ---       LVL=0

      ---         MODULE    ---      ---       zf_driver_exti
      000000D0H   SFRSYM    DATA     BYTE      PSW
      0000009DH   SFRSYM    DATA     BYTE      IRCBAND
      00000097H   SFRSYM    DATA     BYTE      AUXR2
      000000EFH   SFRSYM    DATA     BYTE      AUXINTIF
      000000FDH   SFRSYM    DATA     BYTE      S4CON
      000000ACH   SFRSYM    DATA     BYTE      S3CON
      0000009AH   SFRSYM    DATA     BYTE      S2CON
      000000B7H   SFRSYM    DATA     BYTE      IPH
      000000CDH   SFRSYM    DATA     BYTE      SPSTAT
      000000DDH   SFRSYM    DATA     BYTE      T4T3M
      000000C1H   SFRSYM    DATA     BYTE      WDT_CONTR
      0000008FH.6 SFRSYM    DATA     BIT       EX4
      0000008FH.5 SFRSYM    DATA     BIT       EX3
L251 LINKER/LOCATER V4.66.93.0                                                        04/22/2026  19:49:03  PAGE 61


      0000008FH.4 SFRSYM    DATA     BIT       EX2
      00000088H.2 SFRSYM    DATA     BIT       IT1
      000000A8H.2 SFRSYM    DATA     BIT       EX1
      00000088H.0 SFRSYM    DATA     BIT       IT0
      000000A8H.0 SFRSYM    DATA     BIT       EX0
      000000DFH   SFRSYM    DATA     BYTE      IP3
      000000F4H   SFRSYM    DATA     BYTE      USBCON
      000000B5H   SFRSYM    DATA     BYTE      IP2
      000000FFH   SFRSYM    DATA     BYTE      RSTCFG
      000000C7H   SFRSYM    DATA     BYTE      IAP_CONTR
      000000F9H   SFRSYM    DATA     BYTE      LINICR
      0000008EH   SFRSYM    DATA     BYTE      AUXR
      000000AFH   SFRSYM    DATA     BYTE      IE2
      00000088H   SFRSYM    DATA     BYTE      TCON
      00000089H   SFRSYM    DATA     BYTE      TMOD
      00000098H   SFRSYM    DATA     BYTE      SCON
      000000F1H   SFRSYM    DATA     BYTE      CANICR
      00000087H   SFRSYM    DATA     BYTE      PCON
      000000BCH   SFRSYM    DATA     BYTE      ADC_CONTR
      000000E7H   SFRSYM    DATA     BYTE      CMPCR2
      000000E6H   SFRSYM    DATA     BYTE      CMPCR1
      000000DEH   SFRSYM    DATA     BYTE      ADCCFG
      000000B8H   SFRSYM    DATA     BYTE      IP
      0000008FH   SFRSYM    DATA     BYTE      INTCLKO
      000000EEH   SFRSYM    DATA     BYTE      IP3H
      000000B6H   SFRSYM    DATA     BYTE      IP2H
      000000A8H   SFRSYM    DATA     BYTE      IE
      000000BBH   SFRSYM    DATA     BYTE      P_SW3
      000000BAH   SFRSYM    DATA     BYTE      P_SW2
      000000A2H   SFRSYM    DATA     BYTE      P_SW1
      000000CEH   SFRSYM    DATA     BYTE      SPCTL
      000000F8H   SFRSYM    DATA     BYTE      P7
      000000E8H   SFRSYM    DATA     BYTE      P6
      000000C8H   SFRSYM    DATA     BYTE      P5
      000000C0H   SFRSYM    DATA     BYTE      P4
      000000B0H   SFRSYM    DATA     BYTE      P3
      000000A0H   SFRSYM    DATA     BYTE      P2
      00000090H   SFRSYM    DATA     BYTE      P1
      00000080H   SFRSYM    DATA     BYTE      P0
      00011F8AH   SYMBOL    XDATA    INT       eru_pin
      00011F8CH   SYMBOL    XDATA    INT       eru_pin
      00011EE6H   SYMBOL    XDATA    INT       eru_pin
      00011EE8H   SYMBOL    XDATA    INT       trigger

      ---         MODULE    ---      ---       zf_driver_gpio
      00FF83D5H   PUBLIC    CODE     ---       gpio_init
      00FF7E0BH   PUBLIC    CODE     ---       gpio_get_level
      00FF5632H   PUBLIC    CODE     ---       gpio_set_level_speed
      00FF68D0H   PUBLIC    CODE     ---       gpio_set_level
      00FF7452H   PUBLIC    CODE     ---       gpio_set_impedance
      00000094H   SFRSYM    DATA     BYTE      P0M0
      000000D0H   SFRSYM    DATA     BYTE      PSW
      0000009DH   SFRSYM    DATA     BYTE      IRCBAND
      00000097H   SFRSYM    DATA     BYTE      AUXR2
      000000EFH   SFRSYM    DATA     BYTE      AUXINTIF
      000000FDH   SFRSYM    DATA     BYTE      S4CON
      000000ACH   SFRSYM    DATA     BYTE      S3CON
      0000009AH   SFRSYM    DATA     BYTE      S2CON
      000000B7H   SFRSYM    DATA     BYTE      IPH
      000000CDH   SFRSYM    DATA     BYTE      SPSTAT
      000000DDH   SFRSYM    DATA     BYTE      T4T3M
      000000C1H   SFRSYM    DATA     BYTE      WDT_CONTR
      000000DFH   SFRSYM    DATA     BYTE      IP3
      000000F4H   SFRSYM    DATA     BYTE      USBCON
      000000B5H   SFRSYM    DATA     BYTE      IP2
L251 LINKER/LOCATER V4.66.93.0                                                        04/22/2026  19:49:03  PAGE 62


      000000FFH   SFRSYM    DATA     BYTE      RSTCFG
      000000C7H   SFRSYM    DATA     BYTE      IAP_CONTR
      000000F9H   SFRSYM    DATA     BYTE      LINICR
      0000008EH   SFRSYM    DATA     BYTE      AUXR
      000000AFH   SFRSYM    DATA     BYTE      IE2
      00000088H   SFRSYM    DATA     BYTE      TCON
      00000089H   SFRSYM    DATA     BYTE      TMOD
      00000098H   SFRSYM    DATA     BYTE      SCON
      000000F1H   SFRSYM    DATA     BYTE      CANICR
      00000087H   SFRSYM    DATA     BYTE      PCON
      000000BCH   SFRSYM    DATA     BYTE      ADC_CONTR
      000000E7H   SFRSYM    DATA     BYTE      CMPCR2
      000000E6H   SFRSYM    DATA     BYTE      CMPCR1
      000000DEH   SFRSYM    DATA     BYTE      ADCCFG
      000000B8H   SFRSYM    DATA     BYTE      IP
      0000008FH   SFRSYM    DATA     BYTE      INTCLKO
      000000EEH   SFRSYM    DATA     BYTE      IP3H
      000000B6H   SFRSYM    DATA     BYTE      IP2H
      000000A8H   SFRSYM    DATA     BYTE      IE
      000000BBH   SFRSYM    DATA     BYTE      P_SW3
      000000BAH   SFRSYM    DATA     BYTE      P_SW2
      000000A2H   SFRSYM    DATA     BYTE      P_SW1
      000000CEH   SFRSYM    DATA     BYTE      SPCTL
      000000F8H   SFRSYM    DATA     BYTE      P7
      000000E1H   SFRSYM    DATA     BYTE      P7M1
      000000E8H   SFRSYM    DATA     BYTE      P6
      000000C8H   SFRSYM    DATA     BYTE      P5
      000000CBH   SFRSYM    DATA     BYTE      P6M1
      000000E2H   SFRSYM    DATA     BYTE      P7M0
      000000C0H   SFRSYM    DATA     BYTE      P4
      000000C9H   SFRSYM    DATA     BYTE      P5M1
      000000CCH   SFRSYM    DATA     BYTE      P6M0
      000000B0H   SFRSYM    DATA     BYTE      P3
      000000B3H   SFRSYM    DATA     BYTE      P4M1
      000000CAH   SFRSYM    DATA     BYTE      P5M0
      000000A0H   SFRSYM    DATA     BYTE      P2
      000000B1H   SFRSYM    DATA     BYTE      P3M1
      000000B4H   SFRSYM    DATA     BYTE      P4M0
      00000090H   SFRSYM    DATA     BYTE      P1
      00000095H   SFRSYM    DATA     BYTE      P2M1
      000000B2H   SFRSYM    DATA     BYTE      P3M0
      00000080H   SFRSYM    DATA     BYTE      P0
      00000091H   SFRSYM    DATA     BYTE      P1M1
      00000096H   SFRSYM    DATA     BYTE      P2M0
      00000092H   SFRSYM    DATA     BYTE      P1M0
      00000093H   SFRSYM    DATA     BYTE      P0M1
      00FF47FDH   SYMBOL    CODE     ---       gpio_set_dir
      00FF5C36H   SYMBOL    CODE     ---       gpio_set_mode

      00FF5C36H   BLOCK     CODE     ---       LVL=0
      00011EEAH   SYMBOL    XDATA    INT       pin
      00011EECH   SYMBOL    XDATA    INT       mode
      00FF5C36H   LINE      CODE     ---       #41
      00FF5C42H   LINE      CODE     ---       #46
      00FF5C5EH   LINE      CODE     ---       #48
      00FF5C9BH   LINE      CODE     ---       #50
      00FF5C9EH   LINE      CODE     ---       #55
      00FF5CBAH   LINE      CODE     ---       #57
      00FF5CF5H   LINE      CODE     ---       #58
      00FF5CF8H   LINE      CODE     ---       #59
      00FF5D09H   LINE      CODE     ---       #62
      00FF5D5AH   LINE      CODE     ---       #64
      00FF5D5AH   LINE      CODE     ---       #65
      00FF5D75H   LINE      CODE     ---       #66
      00FF5D90H   LINE      CODE     ---       #67
L251 LINKER/LOCATER V4.66.93.0                                                        04/22/2026  19:49:03  PAGE 63


      00FF5D93H   LINE      CODE     ---       #68
      00FF5D93H   LINE      CODE     ---       #69
      00FF5DAEH   LINE      CODE     ---       #70
      00FF5DC9H   LINE      CODE     ---       #71
      00FF5DCCH   LINE      CODE     ---       #72
      00FF5DCCH   LINE      CODE     ---       #73
      00FF5DE7H   LINE      CODE     ---       #74
      00FF5E02H   LINE      CODE     ---       #75
      00FF5E05H   LINE      CODE     ---       #76
      00FF5E05H   LINE      CODE     ---       #77
      00FF5E20H   LINE      CODE     ---       #78
      00FF5E3BH   LINE      CODE     ---       #79
      00FF5E3EH   LINE      CODE     ---       #80
      00FF5E3EH   LINE      CODE     ---       #81
      00FF5E59H   LINE      CODE     ---       #82
      00FF5E74H   LINE      CODE     ---       #83
      00FF5E77H   LINE      CODE     ---       #84
      00FF5E77H   LINE      CODE     ---       #85
      00FF5E92H   LINE      CODE     ---       #86
      00FF5EADH   LINE      CODE     ---       #87
      00FF5EAFH   LINE      CODE     ---       #88
      00FF5EAFH   LINE      CODE     ---       #89
      00FF5ECAH   LINE      CODE     ---       #90
      00FF5EE5H   LINE      CODE     ---       #91
      00FF5EE7H   LINE      CODE     ---       #92
      00FF5EE7H   LINE      CODE     ---       #93
      00FF5F02H   LINE      CODE     ---       #94
      00FF5F1DH   LINE      CODE     ---       #95
      00FF5F1DH   LINE      CODE     ---       #96
      00FF5F1DH   LINE      CODE     ---       #97
      00FF5F1DH   LINE      CODE     ---       #98
      00FF5F1DH   LINE      CODE     ---       #99
      00FF5F1DH   LINE      CODE     ---       #103
      00FF5F1DH   LINE      CODE     ---       #104
      ---         BLOCKEND  ---      ---       LVL=0

      00FF5632H   BLOCK     CODE     ---       LVL=0
      00011D8EH   SYMBOL    XDATA    INT       pin
      00011D90H   SYMBOL    XDATA    INT       speed
      00FF563EH   BLOCK     CODE     NEAR LAB  LVL=1
      00011D92H   SYMBOL    XDATA    BYTE      pin_bit
      00011D93H   SYMBOL    XDATA    BYTE      port_flag
      ---         BLOCKEND  ---      ---       LVL=1
      00FF5632H   LINE      CODE     ---       #107
      00FF563EH   LINE      CODE     ---       #108
      00FF563EH   LINE      CODE     ---       #110
      00FF564EH   LINE      CODE     ---       #111
      00FF565EH   LINE      CODE     ---       #114
      00FF569AH   LINE      CODE     ---       #116
      00FF569AH   LINE      CODE     ---       #118
      00FF56EDH   LINE      CODE     ---       #119
      00FF56F0H   LINE      CODE     ---       #120
      00FF56F0H   LINE      CODE     ---       #121
      00FF5743H   LINE      CODE     ---       #122
      00FF5746H   LINE      CODE     ---       #123
      00FF5746H   LINE      CODE     ---       #124
      00FF5799H   LINE      CODE     ---       #125
      00FF579CH   LINE      CODE     ---       #126
      00FF579CH   LINE      CODE     ---       #127
      00FF57EFH   LINE      CODE     ---       #128
      00FF57F2H   LINE      CODE     ---       #129
      00FF57F2H   LINE      CODE     ---       #130
      00FF5845H   LINE      CODE     ---       #131
      00FF5848H   LINE      CODE     ---       #132
      00FF5848H   LINE      CODE     ---       #133
L251 LINKER/LOCATER V4.66.93.0                                                        04/22/2026  19:49:03  PAGE 64


      00FF589BH   LINE      CODE     ---       #134
      00FF589EH   LINE      CODE     ---       #135
      00FF589EH   LINE      CODE     ---       #136
      00FF58F0H   LINE      CODE     ---       #137
      00FF58F2H   LINE      CODE     ---       #138
      00FF58F2H   LINE      CODE     ---       #139
      00FF5944H   LINE      CODE     ---       #140
      00FF5944H   LINE      CODE     ---       #141
      00FF5944H   LINE      CODE     ---       #143
      00FF5944H   LINE      CODE     ---       #144
      00FF5944H   LINE      CODE     ---       #145
      ---         BLOCKEND  ---      ---       LVL=0

      00FF47FDH   BLOCK     CODE     ---       LVL=0
      00011EEEH   SYMBOL    XDATA    INT       pin
      00011EF0H   SYMBOL    XDATA    INT       dir
      00FF47FDH   LINE      CODE     ---       #148
      00FF4809H   LINE      CODE     ---       #150
      00FF485DH   LINE      CODE     ---       #152
      00FF485DH   LINE      CODE     ---       #154
      00FF4877H   LINE      CODE     ---       #156
      00FF4894H   LINE      CODE     ---       #157
      00FF48B1H   LINE      CODE     ---       #158
      00FF48B4H   LINE      CODE     ---       #164
      00FF48C5H   LINE      CODE     ---       #166
      00FF48E2H   LINE      CODE     ---       #167
      00FF48FDH   LINE      CODE     ---       #168
      00FF48FDH   LINE      CODE     ---       #170
      00FF4900H   LINE      CODE     ---       #172
      00FF4900H   LINE      CODE     ---       #174
      00FF491AH   LINE      CODE     ---       #176
      00FF4937H   LINE      CODE     ---       #177
      00FF4954H   LINE      CODE     ---       #178
      00FF4957H   LINE      CODE     ---       #184
      00FF4968H   LINE      CODE     ---       #186
      00FF4985H   LINE      CODE     ---       #187
      00FF49A0H   LINE      CODE     ---       #188
      00FF49A0H   LINE      CODE     ---       #190
      00FF49A3H   LINE      CODE     ---       #192
      00FF49A3H   LINE      CODE     ---       #194
      00FF49BDH   LINE      CODE     ---       #196
      00FF49DAH   LINE      CODE     ---       #197
      00FF49F7H   LINE      CODE     ---       #198
      00FF49FAH   LINE      CODE     ---       #204
      00FF4A0BH   LINE      CODE     ---       #206
      00FF4A28H   LINE      CODE     ---       #207
      00FF4A43H   LINE      CODE     ---       #208
      00FF4A43H   LINE      CODE     ---       #210
      00FF4A46H   LINE      CODE     ---       #212
      00FF4A46H   LINE      CODE     ---       #214
      00FF4A60H   LINE      CODE     ---       #216
      00FF4A7DH   LINE      CODE     ---       #217
      00FF4A9AH   LINE      CODE     ---       #218
      00FF4A9DH   LINE      CODE     ---       #224
      00FF4AAEH   LINE      CODE     ---       #226
      00FF4ACBH   LINE      CODE     ---       #227
      00FF4AE6H   LINE      CODE     ---       #228
      00FF4AE6H   LINE      CODE     ---       #230
      00FF4AE9H   LINE      CODE     ---       #232
      00FF4AE9H   LINE      CODE     ---       #234
      00FF4B03H   LINE      CODE     ---       #236
      00FF4B20H   LINE      CODE     ---       #237
      00FF4B3DH   LINE      CODE     ---       #238
      00FF4B40H   LINE      CODE     ---       #244
      00FF4B51H   LINE      CODE     ---       #246
L251 LINKER/LOCATER V4.66.93.0                                                        04/22/2026  19:49:03  PAGE 65


      00FF4B6EH   LINE      CODE     ---       #247
      00FF4B89H   LINE      CODE     ---       #248
      00FF4B89H   LINE      CODE     ---       #250
      00FF4B8CH   LINE      CODE     ---       #252
      00FF4B8CH   LINE      CODE     ---       #254
      00FF4BA6H   LINE      CODE     ---       #256
      00FF4BC3H   LINE      CODE     ---       #257
      00FF4BE0H   LINE      CODE     ---       #258
      00FF4BE3H   LINE      CODE     ---       #264
      00FF4BF4H   LINE      CODE     ---       #266
      00FF4C11H   LINE      CODE     ---       #267
      00FF4C2CH   LINE      CODE     ---       #268
      00FF4C2CH   LINE      CODE     ---       #270
      00FF4C2FH   LINE      CODE     ---       #272
      00FF4C2FH   LINE      CODE     ---       #274
      00FF4C49H   LINE      CODE     ---       #276
      00FF4C66H   LINE      CODE     ---       #277
      00FF4C83H   LINE      CODE     ---       #278
      00FF4C86H   LINE      CODE     ---       #284
      00FF4C97H   LINE      CODE     ---       #286
      00FF4CB4H   LINE      CODE     ---       #287
      00FF4CCFH   LINE      CODE     ---       #288
      00FF4CCFH   LINE      CODE     ---       #290
      00FF4CD2H   LINE      CODE     ---       #292
      00FF4CD2H   LINE      CODE     ---       #294
      00FF4CECH   LINE      CODE     ---       #296
      00FF4D09H   LINE      CODE     ---       #297
      00FF4D26H   LINE      CODE     ---       #298
      00FF4D28H   LINE      CODE     ---       #304
      00FF4D36H   LINE      CODE     ---       #306
      00FF4D53H   LINE      CODE     ---       #307
      00FF4D6EH   LINE      CODE     ---       #308
      00FF4D6EH   LINE      CODE     ---       #310
      00FF4D70H   LINE      CODE     ---       #312
      00FF4D70H   LINE      CODE     ---       #314
      00FF4D80H   LINE      CODE     ---       #317
      00FF4D80H   LINE      CODE     ---       #318
      00FF4D80H   LINE      CODE     ---       #319
      ---         BLOCKEND  ---      ---       LVL=0

      00FF7E0BH   BLOCK     CODE     ---       LVL=0
      00011E64H   SYMBOL    XDATA    INT       pin
      00FF7E11H   BLOCK     CODE     NEAR LAB  LVL=1
      00011E66H   SYMBOL    XDATA    BYTE      pin_bit
      00011E67H   SYMBOL    XDATA    BYTE      port_flag
      00011E68H   SYMBOL    XDATA    BYTE      status
      ---         BLOCKEND  ---      ---       LVL=1
      00FF7E0BH   LINE      CODE     ---       #327
      00FF7E11H   LINE      CODE     ---       #328
      00FF7E11H   LINE      CODE     ---       #329
      00FF7E21H   LINE      CODE     ---       #330
      00FF7E31H   LINE      CODE     ---       #331
      00FF7E36H   LINE      CODE     ---       #334
      00FF7E69H   LINE      CODE     ---       #336
      00FF7E69H   LINE      CODE     ---       #337
      00FF7E82H   LINE      CODE     ---       #338
      00FF7E85H   LINE      CODE     ---       #339
      00FF7E85H   LINE      CODE     ---       #340
      00FF7E9EH   LINE      CODE     ---       #341
      00FF7EA1H   LINE      CODE     ---       #342
      00FF7EA1H   LINE      CODE     ---       #343
      00FF7EBAH   LINE      CODE     ---       #344
      00FF7EBDH   LINE      CODE     ---       #345
      00FF7EBDH   LINE      CODE     ---       #346
      00FF7ED6H   LINE      CODE     ---       #347
L251 LINKER/LOCATER V4.66.93.0                                                        04/22/2026  19:49:03  PAGE 66


      00FF7ED8H   LINE      CODE     ---       #348
      00FF7ED8H   LINE      CODE     ---       #349
      00FF7EF1H   LINE      CODE     ---       #350
      00FF7EF3H   LINE      CODE     ---       #351
      00FF7EF3H   LINE      CODE     ---       #352
      00FF7F0CH   LINE      CODE     ---       #353
      00FF7F0EH   LINE      CODE     ---       #354
      00FF7F0EH   LINE      CODE     ---       #355
      00FF7F27H   LINE      CODE     ---       #356
      00FF7F29H   LINE      CODE     ---       #357
      00FF7F29H   LINE      CODE     ---       #358
      00FF7F42H   LINE      CODE     ---       #359
      00FF7F42H   LINE      CODE     ---       #360
      00FF7F42H   LINE      CODE     ---       #361
      00FF7F42H   LINE      CODE     ---       #362
      00FF7F42H   LINE      CODE     ---       #364
      00FF7F50H   LINE      CODE     ---       #365
      ---         BLOCKEND  ---      ---       LVL=0

      00FF68D0H   BLOCK     CODE     ---       LVL=0
      00011E69H   SYMBOL    XDATA    INT       pin
      00011E6BH   SYMBOL    XDATA    BYTE      dat
      00FF68DAH   BLOCK     CODE     NEAR LAB  LVL=1
      00011E6CH   SYMBOL    XDATA    BYTE      pin_bit
      00011E6DH   SYMBOL    XDATA    BYTE      port_flag
      ---         BLOCKEND  ---      ---       LVL=1
      00FF68D0H   LINE      CODE     ---       #374
      00FF68DAH   LINE      CODE     ---       #375
      00FF68DAH   LINE      CODE     ---       #376
      00FF68EAH   LINE      CODE     ---       #377
      00FF68FAH   LINE      CODE     ---       #380
      00FF6933H   LINE      CODE     ---       #382
      00FF6933H   LINE      CODE     ---       #383
      00FF6967H   LINE      CODE     ---       #384
      00FF696AH   LINE      CODE     ---       #385
      00FF696AH   LINE      CODE     ---       #386
      00FF699EH   LINE      CODE     ---       #387
      00FF69A1H   LINE      CODE     ---       #388
      00FF69A1H   LINE      CODE     ---       #389
      00FF69D5H   LINE      CODE     ---       #390
      00FF69D8H   LINE      CODE     ---       #391
      00FF69D8H   LINE      CODE     ---       #392
      00FF6A0CH   LINE      CODE     ---       #393
      00FF6A0FH   LINE      CODE     ---       #394
      00FF6A0FH   LINE      CODE     ---       #395
      00FF6A43H   LINE      CODE     ---       #396
      00FF6A46H   LINE      CODE     ---       #397
      00FF6A46H   LINE      CODE     ---       #398
      00FF6A7AH   LINE      CODE     ---       #399
      00FF6A7CH   LINE      CODE     ---       #400
      00FF6A7CH   LINE      CODE     ---       #401
      00FF6AAFH   LINE      CODE     ---       #402
      00FF6AB1H   LINE      CODE     ---       #403
      00FF6AB1H   LINE      CODE     ---       #404
      00FF6AE4H   LINE      CODE     ---       #405
      00FF6AE4H   LINE      CODE     ---       #406
      00FF6AE4H   LINE      CODE     ---       #407
      00FF6AE4H   LINE      CODE     ---       #408
      00FF6AE4H   LINE      CODE     ---       #409
      ---         BLOCKEND  ---      ---       LVL=0
      00011F8EH   SYMBOL    XDATA    INT       pin

      00FF7452H   BLOCK     CODE     ---       LVL=0
      00011EF2H   SYMBOL    XDATA    INT       pin
      00FF7458H   BLOCK     CODE     NEAR LAB  LVL=1
L251 LINKER/LOCATER V4.66.93.0                                                        04/22/2026  19:49:03  PAGE 67


      00011EF4H   SYMBOL    XDATA    BYTE      pin_bit
      00011EF5H   SYMBOL    XDATA    BYTE      port_flag
      ---         BLOCKEND  ---      ---       LVL=1
      00FF7452H   LINE      CODE     ---       #429
      00FF7458H   LINE      CODE     ---       #430
      00FF7458H   LINE      CODE     ---       #431
      00FF7468H   LINE      CODE     ---       #432
      00FF7478H   LINE      CODE     ---       #435
      00FF74B1H   LINE      CODE     ---       #437
      00FF74B1H   LINE      CODE     ---       #438
      00FF74C4H   LINE      CODE     ---       #439
      00FF74D9H   LINE      CODE     ---       #440
      00FF74DCH   LINE      CODE     ---       #441
      00FF74DCH   LINE      CODE     ---       #442
      00FF74EFH   LINE      CODE     ---       #443
      00FF7504H   LINE      CODE     ---       #444
      00FF7507H   LINE      CODE     ---       #445
      00FF7507H   LINE      CODE     ---       #446
      00FF751AH   LINE      CODE     ---       #447
      00FF752FH   LINE      CODE     ---       #448
      00FF7532H   LINE      CODE     ---       #449
      00FF7532H   LINE      CODE     ---       #450
      00FF7545H   LINE      CODE     ---       #451
      00FF755AH   LINE      CODE     ---       #452
      00FF755DH   LINE      CODE     ---       #453
      00FF755DH   LINE      CODE     ---       #454
      00FF7570H   LINE      CODE     ---       #455
      00FF7585H   LINE      CODE     ---       #456
      00FF7587H   LINE      CODE     ---       #457
      00FF7587H   LINE      CODE     ---       #458
      00FF759AH   LINE      CODE     ---       #459
      00FF75AFH   LINE      CODE     ---       #460
      00FF75B1H   LINE      CODE     ---       #461
      00FF75B1H   LINE      CODE     ---       #462
      00FF75C4H   LINE      CODE     ---       #463
      00FF75D9H   LINE      CODE     ---       #464
      00FF75DBH   LINE      CODE     ---       #465
      00FF75DBH   LINE      CODE     ---       #466
      00FF75EEH   LINE      CODE     ---       #467
      00FF7603H   LINE      CODE     ---       #468
      00FF7603H   LINE      CODE     ---       #469
      00FF7603H   LINE      CODE     ---       #470
      00FF7603H   LINE      CODE     ---       #471
      00FF7603H   LINE      CODE     ---       #472
      ---         BLOCKEND  ---      ---       LVL=0

      00FF83D5H   BLOCK     CODE     ---       LVL=0
      00011D52H   SYMBOL    XDATA    INT       pin
      00011D54H   SYMBOL    XDATA    INT       dir
      00011D56H   SYMBOL    XDATA    BYTE      dat
      00011D57H   SYMBOL    XDATA    INT       mode
      00FF83D5H   LINE      CODE     ---       #483
      00FF83EBH   LINE      CODE     ---       #485
      00FF8417H   LINE      CODE     ---       #487
      00FF8425H   LINE      CODE     ---       #489
      00FF8432H   LINE      CODE     ---       #490
      00FF8441H   LINE      CODE     ---       #491
      00FF8444H   LINE      CODE     ---       #492
      00FF8450H   LINE      CODE     ---       #494
      00FF845CH   LINE      CODE     ---       #496
      00FF8465H   LINE      CODE     ---       #497
      00FF8467H   LINE      CODE     ---       #500
      00FF8472H   LINE      CODE     ---       #501
      00FF8481H   LINE      CODE     ---       #502
      00FF8481H   LINE      CODE     ---       #503
L251 LINKER/LOCATER V4.66.93.0                                                        04/22/2026  19:49:03  PAGE 68


      00FF8483H   LINE      CODE     ---       #504
      00FF8491H   LINE      CODE     ---       #506
      00FF849FH   LINE      CODE     ---       #508
      00FF84ACH   LINE      CODE     ---       #509
      00FF84B9H   LINE      CODE     ---       #510
      00FF84BBH   LINE      CODE     ---       #511
      00FF84C9H   LINE      CODE     ---       #513
      00FF84D6H   LINE      CODE     ---       #514
      00FF84D6H   LINE      CODE     ---       #516
      00FF84E3H   LINE      CODE     ---       #517
      ---         BLOCKEND  ---      ---       LVL=0

      ---         MODULE    ---      ---       zf_driver_pit
      00FF61E0H   PUBLIC    CODE     ---       pit_init
      000000D0H   SFRSYM    DATA     BYTE      PSW
      0000009DH   SFRSYM    DATA     BYTE      IRCBAND
      00000097H   SFRSYM    DATA     BYTE      AUXR2
      000000EFH   SFRSYM    DATA     BYTE      AUXINTIF
      000000FDH   SFRSYM    DATA     BYTE      S4CON
      000000ACH   SFRSYM    DATA     BYTE      S3CON
      0000009AH   SFRSYM    DATA     BYTE      S2CON
      000000B7H   SFRSYM    DATA     BYTE      IPH
      000000CDH   SFRSYM    DATA     BYTE      SPSTAT
      000000DDH   SFRSYM    DATA     BYTE      T4T3M
      000000C1H   SFRSYM    DATA     BYTE      WDT_CONTR
      00000088H.6 SFRSYM    DATA     BIT       TR1
      00000088H.4 SFRSYM    DATA     BIT       TR0
      000000D3H   SFRSYM    DATA     BYTE      T4L
      000000D5H   SFRSYM    DATA     BYTE      T3L
      000000D7H   SFRSYM    DATA     BYTE      T2L
      0000008BH   SFRSYM    DATA     BYTE      TL1
      0000008AH   SFRSYM    DATA     BYTE      TL0
      000000D2H   SFRSYM    DATA     BYTE      T4H
      000000D4H   SFRSYM    DATA     BYTE      T3H
      000000D6H   SFRSYM    DATA     BYTE      T2H
      0000008DH   SFRSYM    DATA     BYTE      TH1
      0000008CH   SFRSYM    DATA     BYTE      TH0
      000000DFH   SFRSYM    DATA     BYTE      IP3
      000000F4H   SFRSYM    DATA     BYTE      USBCON
      000000B5H   SFRSYM    DATA     BYTE      IP2
      000000FFH   SFRSYM    DATA     BYTE      RSTCFG
      000000A8H.3 SFRSYM    DATA     BIT       ET1
      000000A8H.1 SFRSYM    DATA     BIT       ET0
      000000C7H   SFRSYM    DATA     BYTE      IAP_CONTR
      000000F9H   SFRSYM    DATA     BYTE      LINICR
      0000008EH   SFRSYM    DATA     BYTE      AUXR
      000000AFH   SFRSYM    DATA     BYTE      IE2
      00000088H   SFRSYM    DATA     BYTE      TCON
      00000089H   SFRSYM    DATA     BYTE      TMOD
      00000098H   SFRSYM    DATA     BYTE      SCON
      000000F1H   SFRSYM    DATA     BYTE      CANICR
      00000087H   SFRSYM    DATA     BYTE      PCON
      000000BCH   SFRSYM    DATA     BYTE      ADC_CONTR
      000000E7H   SFRSYM    DATA     BYTE      CMPCR2
      000000E6H   SFRSYM    DATA     BYTE      CMPCR1
      000000DEH   SFRSYM    DATA     BYTE      ADCCFG
      000000B8H   SFRSYM    DATA     BYTE      IP
      0000008FH   SFRSYM    DATA     BYTE      INTCLKO
      000000EEH   SFRSYM    DATA     BYTE      IP3H
      000000B6H   SFRSYM    DATA     BYTE      IP2H
      000000A8H   SFRSYM    DATA     BYTE      IE
      000000BBH   SFRSYM    DATA     BYTE      P_SW3
      000000BAH   SFRSYM    DATA     BYTE      P_SW2
      000000A2H   SFRSYM    DATA     BYTE      P_SW1
      000000CEH   SFRSYM    DATA     BYTE      SPCTL
L251 LINKER/LOCATER V4.66.93.0                                                        04/22/2026  19:49:03  PAGE 69


      000000F8H   SFRSYM    DATA     BYTE      P7
      000000E8H   SFRSYM    DATA     BYTE      P6
      000000C8H   SFRSYM    DATA     BYTE      P5
      000000C0H   SFRSYM    DATA     BYTE      P4
      000000B0H   SFRSYM    DATA     BYTE      P3
      000000A0H   SFRSYM    DATA     BYTE      P2
      00000090H   SFRSYM    DATA     BYTE      P1
      00000080H   SFRSYM    DATA     BYTE      P0

      00FF61E0H   BLOCK     CODE     ---       LVL=0
      00011A8FH   SYMBOL    XDATA    INT       pit_n
      00011A91H   SYMBOL    XDATA    DWORD     period
      00FF61F0H   BLOCK     CODE     NEAR LAB  LVL=1
      00011A95H   SYMBOL    XDATA    BYTE      freq_div
      00011A96H   SYMBOL    XDATA    WORD      period_temp
      00011A98H   SYMBOL    XDATA    WORD      temp
      ---         BLOCKEND  ---      ---       LVL=1
      00FF61E0H   LINE      CODE     ---       #50
      00FF61F0H   LINE      CODE     ---       #51
      00FF61F0H   LINE      CODE     ---       #52
      00FF61F5H   LINE      CODE     ---       #53
      00FF61FDH   LINE      CODE     ---       #54
      00FF6205H   LINE      CODE     ---       #57
      00FF621BH   LINE      CODE     ---       #60
      00FF6233H   LINE      CODE     ---       #62
      00FF623FH   LINE      CODE     ---       #64
      00FF6242H   LINE      CODE     ---       #65
      00FF6245H   LINE      CODE     ---       #66
      00FF6253H   LINE      CODE     ---       #68
      00FF6256H   LINE      CODE     ---       #69
      00FF6259H   LINE      CODE     ---       #70
      00FF6267H   LINE      CODE     ---       #72
      00FF626AH   LINE      CODE     ---       #73
      00FF626DH   LINE      CODE     ---       #74
      00FF627BH   LINE      CODE     ---       #76
      00FF627EH   LINE      CODE     ---       #77
      00FF6280H   LINE      CODE     ---       #78
      00FF628EH   LINE      CODE     ---       #80
      00FF6291H   LINE      CODE     ---       #81
      00FF6293H   LINE      CODE     ---       #88
      00FF629FH   LINE      CODE     ---       #90
      00FF62A2H   LINE      CODE     ---       #91
      00FF62A4H   LINE      CODE     ---       #92
      00FF62B2H   LINE      CODE     ---       #94
      00FF62B5H   LINE      CODE     ---       #95
      00FF62B7H   LINE      CODE     ---       #96
      00FF62C5H   LINE      CODE     ---       #98
      00FF62C8H   LINE      CODE     ---       #99
      00FF62CAH   LINE      CODE     ---       #100
      00FF62D8H   LINE      CODE     ---       #102
      00FF62DBH   LINE      CODE     ---       #103
      00FF62DDH   LINE      CODE     ---       #104
      00FF62EBH   LINE      CODE     ---       #106
      00FF62EEH   LINE      CODE     ---       #107
      00FF62EEH   LINE      CODE     ---       #112
      00FF630CH   LINE      CODE     ---       #113
      00FF632DH   LINE      CODE     ---       #115
      00FF633FH   LINE      CODE     ---       #117
      00FF634BH   LINE      CODE     ---       #119
      00FF635AH   LINE      CODE     ---       #120
      00FF635EH   LINE      CODE     ---       #121
      00FF6366H   LINE      CODE     ---       #122
      00FF6372H   LINE      CODE     ---       #123
      00FF6375H   LINE      CODE     ---       #124
      00FF6378H   LINE      CODE     ---       #125
L251 LINKER/LOCATER V4.66.93.0                                                        04/22/2026  19:49:03  PAGE 70


      00FF637BH   LINE      CODE     ---       #126
      00FF6389H   LINE      CODE     ---       #128
      00FF6398H   LINE      CODE     ---       #129
      00FF639CH   LINE      CODE     ---       #130
      00FF63A4H   LINE      CODE     ---       #131
      00FF63B0H   LINE      CODE     ---       #132
      00FF63B3H   LINE      CODE     ---       #133
      00FF63B6H   LINE      CODE     ---       #134
      00FF63B9H   LINE      CODE     ---       #135
      00FF63C7H   LINE      CODE     ---       #137
      00FF63D6H   LINE      CODE     ---       #138
      00FF63DEH   LINE      CODE     ---       #139
      00FF63EAH   LINE      CODE     ---       #140
      00FF63EDH   LINE      CODE     ---       #141
      00FF63F0H   LINE      CODE     ---       #142
      00FF63F2H   LINE      CODE     ---       #143
      00FF6400H   LINE      CODE     ---       #145
      00FF640FH   LINE      CODE     ---       #146
      00FF6417H   LINE      CODE     ---       #147
      00FF6423H   LINE      CODE     ---       #148
      00FF6426H   LINE      CODE     ---       #149
      00FF6429H   LINE      CODE     ---       #150
      00FF642BH   LINE      CODE     ---       #151
      00FF6439H   LINE      CODE     ---       #153
      00FF6448H   LINE      CODE     ---       #154
      00FF6450H   LINE      CODE     ---       #155
      00FF645CH   LINE      CODE     ---       #156
      00FF645FH   LINE      CODE     ---       #157
      00FF6462H   LINE      CODE     ---       #158
      ---         BLOCKEND  ---      ---       LVL=0

      ---         MODULE    ---      ---       zf_driver_pwm
      00FFAFC2H   PUBLIC    HCONST   ---       PWM_PSCR_ADDR
      00FFAFCAH   PUBLIC    HCONST   ---       PWM_CCR_ADDR
      00FFAFEAH   PUBLIC    HCONST   ---       PWM_ARR_ADDR
      00FFAFF2H   PUBLIC    HCONST   ---       PWM_CCER_ADDR
      00FFB002H   PUBLIC    HCONST   ---       PWM_CCMR_ADDR
      00FF70C0H   PUBLIC    CODE     ---       pwm_set_duty
      00FF3071H   PUBLIC    CODE     ---       pwm_init
      000114E9H   PUBLIC    XDATA    BYTE      ?pwm_set_freq?BYTE
      000115E6H   PUBLIC    XDATA    BYTE      ?pwm_init?BYTE
      000000D0H   SFRSYM    DATA     BYTE      PSW
      0000009DH   SFRSYM    DATA     BYTE      IRCBAND
      00000097H   SFRSYM    DATA     BYTE      AUXR2
      000000EFH   SFRSYM    DATA     BYTE      AUXINTIF
      000000FDH   SFRSYM    DATA     BYTE      S4CON
      000000ACH   SFRSYM    DATA     BYTE      S3CON
      0000009AH   SFRSYM    DATA     BYTE      S2CON
      000000B7H   SFRSYM    DATA     BYTE      IPH
      000000CDH   SFRSYM    DATA     BYTE      SPSTAT
      000000DDH   SFRSYM    DATA     BYTE      T4T3M
      000000C1H   SFRSYM    DATA     BYTE      WDT_CONTR
      000000DFH   SFRSYM    DATA     BYTE      IP3
      000000F4H   SFRSYM    DATA     BYTE      USBCON
      000000B5H   SFRSYM    DATA     BYTE      IP2
      000000FFH   SFRSYM    DATA     BYTE      RSTCFG
      000000C7H   SFRSYM    DATA     BYTE      IAP_CONTR
      000000F9H   SFRSYM    DATA     BYTE      LINICR
      0000008EH   SFRSYM    DATA     BYTE      AUXR
      000000AFH   SFRSYM    DATA     BYTE      IE2
      00000088H   SFRSYM    DATA     BYTE      TCON
      00000089H   SFRSYM    DATA     BYTE      TMOD
      00000098H   SFRSYM    DATA     BYTE      SCON
      000000F1H   SFRSYM    DATA     BYTE      CANICR
      00000087H   SFRSYM    DATA     BYTE      PCON
L251 LINKER/LOCATER V4.66.93.0                                                        04/22/2026  19:49:03  PAGE 71


      000000BCH   SFRSYM    DATA     BYTE      ADC_CONTR
      000000E7H   SFRSYM    DATA     BYTE      CMPCR2
      000000E6H   SFRSYM    DATA     BYTE      CMPCR1
      000000DEH   SFRSYM    DATA     BYTE      ADCCFG
      000000B8H   SFRSYM    DATA     BYTE      IP
      0000008FH   SFRSYM    DATA     BYTE      INTCLKO
      000000EEH   SFRSYM    DATA     BYTE      IP3H
      000000B6H   SFRSYM    DATA     BYTE      IP2H
      000000A8H   SFRSYM    DATA     BYTE      IE
      000000BBH   SFRSYM    DATA     BYTE      P_SW3
      000000BAH   SFRSYM    DATA     BYTE      P_SW2
      000000A2H   SFRSYM    DATA     BYTE      P_SW1
      000000CEH   SFRSYM    DATA     BYTE      SPCTL
      000000F8H   SFRSYM    DATA     BYTE      P7
      000000E8H   SFRSYM    DATA     BYTE      P6
      000000C8H   SFRSYM    DATA     BYTE      P5
      000000C0H   SFRSYM    DATA     BYTE      P4
      000000B0H   SFRSYM    DATA     BYTE      P3
      000000A0H   SFRSYM    DATA     BYTE      P2
      00000090H   SFRSYM    DATA     BYTE      P1
      00000080H   SFRSYM    DATA     BYTE      P0
      000114E9H   SYMBOL    XDATA    INT       pin
      000114EBH   SYMBOL    XDATA    DWORD     freq
      000114EFH   SYMBOL    XDATA    DWORD     duty
      000114F3H   SYMBOL    XDATA    DWORD     match_temp
      000114F7H   SYMBOL    XDATA    DWORD     period_temp
      000114FBH   SYMBOL    XDATA    WORD      freq_div

      00FF70C0H   BLOCK     CODE     ---       LVL=0
      0001179BH   SYMBOL    XDATA    INT       pin
      0001179DH   SYMBOL    XDATA    DWORD     duty
      00FF70D0H   BLOCK     CODE     NEAR LAB  LVL=1
      000117A1H   SYMBOL    XDATA    DWORD     match_temp
      000117A5H   SYMBOL    XDATA    DWORD     arr
      ---         BLOCKEND  ---      ---       LVL=1
      00FF70C0H   LINE      CODE     ---       #133
      00FF70D0H   LINE      CODE     ---       #134
      00FF70D0H   LINE      CODE     ---       #136
      00FF7148H   LINE      CODE     ---       #139
      00FF716CH   LINE      CODE     ---       #141
      00FF717CH   LINE      CODE     ---       #143
      00FF71B5H   LINE      CODE     ---       #144
      00FF71B7H   LINE      CODE     ---       #147
      00FF71D1H   LINE      CODE     ---       #148
      00FF71D1H   LINE      CODE     ---       #151
      00FF722FH   LINE      CODE     ---       #152
      00FF7293H   LINE      CODE     ---       #154
      ---         BLOCKEND  ---      ---       LVL=0

      00FF3071H   BLOCK     CODE     ---       LVL=0
      000115E6H   SYMBOL    XDATA    INT       pin
      000115E8H   SYMBOL    XDATA    DWORD     freq
      000115ECH   SYMBOL    XDATA    DWORD     duty
      00FF3081H   BLOCK     CODE     NEAR LAB  LVL=1
      000115F0H   SYMBOL    XDATA    WORD      match_temp
      000115F2H   SYMBOL    XDATA    DWORD     period_temp
      000115F6H   SYMBOL    XDATA    WORD      freq_div
      ---         BLOCKEND  ---      ---       LVL=1
      00FF3071H   LINE      CODE     ---       #165
      00FF3081H   LINE      CODE     ---       #166
      00FF3081H   LINE      CODE     ---       #168
      00FF3089H   LINE      CODE     ---       #169
      00FF3095H   LINE      CODE     ---       #170
      00FF309DH   LINE      CODE     ---       #173
      00FF30C1H   LINE      CODE     ---       #175
L251 LINKER/LOCATER V4.66.93.0                                                        04/22/2026  19:49:03  PAGE 72


      00FF30DAH   LINE      CODE     ---       #179
      00FF30FBH   LINE      CODE     ---       #180
      00FF311CH   LINE      CODE     ---       #181
      00FF3145H   LINE      CODE     ---       #183
      00FF3155H   LINE      CODE     ---       #185
      00FF318AH   LINE      CODE     ---       #186
      00FF318CH   LINE      CODE     ---       #189
      00FF31A4H   LINE      CODE     ---       #190
      00FF31A4H   LINE      CODE     ---       #192
      00FF31DCH   LINE      CODE     ---       #193
      00FF3218H   LINE      CODE     ---       #195
      00FF3252H   LINE      CODE     ---       #196
      00FF3292H   LINE      CODE     ---       #198
      00FF32EEH   LINE      CODE     ---       #199
      00FF334EH   LINE      CODE     ---       #201
      00FF3369H   LINE      CODE     ---       #203
      00FF33B8H   LINE      CODE     ---       #204
      00FF33FDH   LINE      CODE     ---       #205
      00FF3497H   LINE      CODE     ---       #207
      00FF34A4H   LINE      CODE     ---       #208
      00FF34B1H   LINE      CODE     ---       #209
      00FF34B4H   LINE      CODE     ---       #210
      00FF34CFH   LINE      CODE     ---       #212
      00FF351EH   LINE      CODE     ---       #213
      00FF3563H   LINE      CODE     ---       #214
      00FF35E3H   LINE      CODE     ---       #216
      00FF35F0H   LINE      CODE     ---       #217
      00FF35FDH   LINE      CODE     ---       #218
      00FF35FDH   LINE      CODE     ---       #220
      00FF3658H   LINE      CODE     ---       #221
      00FF36B3H   LINE      CODE     ---       #222
      ---         BLOCKEND  ---      ---       LVL=0

      ---         MODULE    ---      ---       zf_driver_soft_iic
      00FF87C2H   PUBLIC    CODE     ---       soft_iic_wait_ack
      00FF8CA5H   PUBLIC    CODE     ---       soft_iic_stop
      00FFA096H   PUBLIC    CODE     ---       soft_iic_delay
      00FF7F51H   PUBLIC    CODE     ---       soft_iic_read_data
      00FF00A6H   PUBLIC    CODE     ---       soft_iic_send_data
      00FF8F6CH   PUBLIC    CODE     ---       soft_iic_start
      00FF88A5H   PUBLIC    CODE     ---       soft_iic_send_ack
      000118ECH   PUBLIC    XDATA    BYTE      ?soft_iic_write_8bit_array?BYTE
      000118F8H   PUBLIC    XDATA    BYTE      ?soft_iic_write_16bit_array?BYTE
      00011850H   PUBLIC    XDATA    BYTE      ?soft_iic_write_8bit_registers?BYTE
      000117A9H   PUBLIC    XDATA    BYTE      ?soft_iic_write_16bit_registers?BYTE
      00011904H   PUBLIC    XDATA    BYTE      ?soft_iic_read_8bit_array?BYTE
      00011910H   PUBLIC    XDATA    BYTE      ?soft_iic_read_16bit_array?BYTE
      0001185DH   PUBLIC    XDATA    BYTE      ?soft_iic_read_8bit_registers?BYTE
      000117B7H   PUBLIC    XDATA    BYTE      ?soft_iic_read_16bit_registers?BYTE
      000114FDH   PUBLIC    XDATA    BYTE      ?soft_iic_transfer_8bit_array?BYTE
      00011511H   PUBLIC    XDATA    BYTE      ?soft_iic_transfer_16bit_array?BYTE
      0001186AH   PUBLIC    XDATA    BYTE      ?soft_iic_init?BYTE
      000000D0H   SFRSYM    DATA     BYTE      PSW
      0000009DH   SFRSYM    DATA     BYTE      IRCBAND
      00000097H   SFRSYM    DATA     BYTE      AUXR2
      000000EFH   SFRSYM    DATA     BYTE      AUXINTIF
      000000FDH   SFRSYM    DATA     BYTE      S4CON
      000000ACH   SFRSYM    DATA     BYTE      S3CON
      0000009AH   SFRSYM    DATA     BYTE      S2CON
      000000B7H   SFRSYM    DATA     BYTE      IPH
      000000CDH   SFRSYM    DATA     BYTE      SPSTAT
      000000DDH   SFRSYM    DATA     BYTE      T4T3M
      000000C1H   SFRSYM    DATA     BYTE      WDT_CONTR
      000000DFH   SFRSYM    DATA     BYTE      IP3
      000000F4H   SFRSYM    DATA     BYTE      USBCON
L251 LINKER/LOCATER V4.66.93.0                                                        04/22/2026  19:49:03  PAGE 73


      000000B5H   SFRSYM    DATA     BYTE      IP2
      000000FFH   SFRSYM    DATA     BYTE      RSTCFG
      000000C7H   SFRSYM    DATA     BYTE      IAP_CONTR
      000000F9H   SFRSYM    DATA     BYTE      LINICR
      0000008EH   SFRSYM    DATA     BYTE      AUXR
      000000AFH   SFRSYM    DATA     BYTE      IE2
      00000088H   SFRSYM    DATA     BYTE      TCON
      00000089H   SFRSYM    DATA     BYTE      TMOD
      00000098H   SFRSYM    DATA     BYTE      SCON
      000000F1H   SFRSYM    DATA     BYTE      CANICR
      00000087H   SFRSYM    DATA     BYTE      PCON
      000000BCH   SFRSYM    DATA     BYTE      ADC_CONTR
      000000E7H   SFRSYM    DATA     BYTE      CMPCR2
      000000E6H   SFRSYM    DATA     BYTE      CMPCR1
      000000DEH   SFRSYM    DATA     BYTE      ADCCFG
      000000B8H   SFRSYM    DATA     BYTE      IP
      0000008FH   SFRSYM    DATA     BYTE      INTCLKO
      000000EEH   SFRSYM    DATA     BYTE      IP3H
      000000B6H   SFRSYM    DATA     BYTE      IP2H
      000000A8H   SFRSYM    DATA     BYTE      IE
      000000BBH   SFRSYM    DATA     BYTE      P_SW3
      000000BAH   SFRSYM    DATA     BYTE      P_SW2
      000000A2H   SFRSYM    DATA     BYTE      P_SW1
      000000CEH   SFRSYM    DATA     BYTE      SPCTL
      000000F8H   SFRSYM    DATA     BYTE      P7
      000000E8H   SFRSYM    DATA     BYTE      P6
      000000C8H   SFRSYM    DATA     BYTE      P5
      000000C0H   SFRSYM    DATA     BYTE      P4
      000000B0H   SFRSYM    DATA     BYTE      P3
      000000A0H   SFRSYM    DATA     BYTE      P2
      00000090H   SFRSYM    DATA     BYTE      P1
      00000080H   SFRSYM    DATA     BYTE      P0

      00FFA096H   BLOCK     CODE     ---       LVL=0
      00011C8AH   SYMBOL    XDATA    DWORD     delay
      00FFA0A0H   BLOCK     CODE     NEAR LAB  LVL=1
      00011C8EH   SYMBOL    XDATA    DWORD     count
      ---         BLOCKEND  ---      ---       LVL=1
      00FFA096H   LINE      CODE     ---       #53
      00FFA0A0H   LINE      CODE     ---       #54
      00FFA0A0H   LINE      CODE     ---       #55
      00FFA0B4H   LINE      CODE     ---       #56
      00FFA0D1H   LINE      CODE     ---       #57
      ---         BLOCKEND  ---      ---       LVL=0

      00FF8F6CH   BLOCK     CODE     ---       LVL=0
      00011EF6H   SYMBOL    XDATA    ---       soft_iic_obj
      00FF8F6CH   LINE      CODE     ---       #67
      00FF8F76H   LINE      CODE     ---       #69
      00FF8F98H   LINE      CODE     ---       #70
      00FF8FAAH   LINE      CODE     ---       #71
      00FF8FBEH   LINE      CODE     ---       #73
      00FF8FD6H   LINE      CODE     ---       #74
      00FF8FE9H   LINE      CODE     ---       #75
      00FF9001H   LINE      CODE     ---       #76
      00FF9012H   LINE      CODE     ---       #77
      ---         BLOCKEND  ---      ---       LVL=0

      00FF8CA5H   BLOCK     CODE     ---       LVL=0
      00011EFAH   SYMBOL    XDATA    ---       soft_iic_obj
      00FF8CA5H   LINE      CODE     ---       #86
      00FF8CAFH   LINE      CODE     ---       #88
      00FF8CD1H   LINE      CODE     ---       #89
      00FF8CE4H   LINE      CODE     ---       #90
      00FF8CF5H   LINE      CODE     ---       #92
L251 LINKER/LOCATER V4.66.93.0                                                        04/22/2026  19:49:03  PAGE 74


      00FF8D0DH   LINE      CODE     ---       #93
      00FF8D1FH   LINE      CODE     ---       #94
      00FF8D37H   LINE      CODE     ---       #95
      00FF8D4BH   LINE      CODE     ---       #96
      00FF8D63H   LINE      CODE     ---       #97
      ---         BLOCKEND  ---      ---       LVL=0

      00FF88A5H   BLOCK     CODE     ---       LVL=0
      00011E6EH   SYMBOL    XDATA    ---       soft_iic_obj
      00011E72H   SYMBOL    XDATA    BYTE      ack
      00FF88A5H   LINE      CODE     ---       #107
      00FF88B3H   LINE      CODE     ---       #109
      00FF88D5H   LINE      CODE     ---       #110
      00FF88E6H   LINE      CODE     ---       #112
      00FF88EFH   LINE      CODE     ---       #114
      00FF8903H   LINE      CODE     ---       #115
      00FF8905H   LINE      CODE     ---       #118
      00FF8918H   LINE      CODE     ---       #119
      00FF8918H   LINE      CODE     ---       #121
      00FF8930H   LINE      CODE     ---       #122
      00FF8942H   LINE      CODE     ---       #123
      00FF895AH   LINE      CODE     ---       #124
      00FF896BH   LINE      CODE     ---       #125
      00FF897FH   LINE      CODE     ---       #126
      ---         BLOCKEND  ---      ---       LVL=0

      00FF87C2H   BLOCK     CODE     ---       LVL=0
      00011E73H   SYMBOL    XDATA    ---       soft_iic_obj
      00FF87CCH   BLOCK     CODE     NEAR LAB  LVL=1
      00011E77H   SYMBOL    XDATA    BYTE      temp
      ---         BLOCKEND  ---      ---       LVL=1
      00FF87C2H   LINE      CODE     ---       #135
      00FF87CCH   LINE      CODE     ---       #136
      00FF87CCH   LINE      CODE     ---       #137
      00FF87D1H   LINE      CODE     ---       #138
      00FF87F3H   LINE      CODE     ---       #140
      00FF8804H   LINE      CODE     ---       #141
      00FF8818H   LINE      CODE     ---       #145
      00FF8830H   LINE      CODE     ---       #147
      00FF8842H   LINE      CODE     ---       #148
      00FF885AH   LINE      CODE     ---       #150
      00FF8871H   LINE      CODE     ---       #152
      00FF8877H   LINE      CODE     ---       #153
      00FF8877H   LINE      CODE     ---       #154
      00FF8888H   LINE      CODE     ---       #158
      00FF88A0H   LINE      CODE     ---       #160
      00FF88A4H   LINE      CODE     ---       #161
      ---         BLOCKEND  ---      ---       LVL=0

      00FF00A6H   BLOCK     CODE     ---       LVL=0
      00011D94H   SYMBOL    XDATA    ---       soft_iic_obj
      00011D98H   SYMBOL    XDATA    BYTE      dat
      00FF00B4H   BLOCK     CODE     NEAR LAB  LVL=1
      00011D99H   SYMBOL    XDATA    BYTE      temp
      ---         BLOCKEND  ---      ---       LVL=1
      00FF00A6H   LINE      CODE     ---       #170
      00FF00B4H   LINE      CODE     ---       #171
      00FF00B4H   LINE      CODE     ---       #172
      00FF00BAH   LINE      CODE     ---       #174
      00FF00DCH   LINE      CODE     ---       #176
      00FF00DFH   LINE      CODE     ---       #179
      00FF011CH   LINE      CODE     ---       #180
      00FF0123H   LINE      CODE     ---       #182
      00FF013BH   LINE      CODE     ---       #183
      00FF014DH   LINE      CODE     ---       #184
L251 LINKER/LOCATER V4.66.93.0                                                        04/22/2026  19:49:03  PAGE 75


      00FF0165H   LINE      CODE     ---       #185
      00FF0176H   LINE      CODE     ---       #186
      00FF0182H   LINE      CODE     ---       #187
      00FF0199H   LINE      CODE     ---       #188
      ---         BLOCKEND  ---      ---       LVL=0

      00FF7F51H   BLOCK     CODE     ---       LVL=0
      00011D59H   SYMBOL    XDATA    ---       soft_iic_obj
      00011D5DH   SYMBOL    XDATA    BYTE      ack
      00FF7F5FH   BLOCK     CODE     NEAR LAB  LVL=1
      00011D5EH   SYMBOL    XDATA    BYTE      dat
      00011D5FH   SYMBOL    XDATA    BYTE      temp
      ---         BLOCKEND  ---      ---       LVL=1
      00FF7F51H   LINE      CODE     ---       #197
      00FF7F5FH   LINE      CODE     ---       #198
      00FF7F5FH   LINE      CODE     ---       #199
      00FF7F64H   LINE      CODE     ---       #200
      00FF7F6AH   LINE      CODE     ---       #201
      00FF7F8CH   LINE      CODE     ---       #202
      00FF7F9DH   LINE      CODE     ---       #203
      00FF7FB5H   LINE      CODE     ---       #204
      00FF7FC9H   LINE      CODE     ---       #209
      00FF7FCBH   LINE      CODE     ---       #211
      00FF7FDCH   LINE      CODE     ---       #212
      00FF7FF4H   LINE      CODE     ---       #213
      00FF8006H   LINE      CODE     ---       #214
      00FF801EH   LINE      CODE     ---       #215
      00FF803EH   LINE      CODE     ---       #216
      00FF8054H   LINE      CODE     ---       #217
      00FF8065H   LINE      CODE     ---       #221
      00FF807DH   LINE      CODE     ---       #222
      00FF808EH   LINE      CODE     ---       #223
      00FF8092H   LINE      CODE     ---       #224
      ---         BLOCKEND  ---      ---       LVL=0
      00011E78H   SYMBOL    XDATA    ---       soft_iic_obj
      00011E7CH   SYMBOL    XDATA    BYTE      dat
      000118ECH   SYMBOL    XDATA    ---       soft_iic_obj
      000118F0H   SYMBOL    XDATA    ---       dat
      000118F4H   SYMBOL    XDATA    DWORD     len
      00011D9AH   SYMBOL    XDATA    ---       soft_iic_obj
      00011D9EH   SYMBOL    XDATA    WORD      dat
      000118F8H   SYMBOL    XDATA    ---       soft_iic_obj
      000118FCH   SYMBOL    XDATA    ---       dat
      00011900H   SYMBOL    XDATA    DWORD     len
      00011DA0H   SYMBOL    XDATA    ---       soft_iic_obj
      00011DA4H   SYMBOL    XDATA    BYTE      register_name
      00011DA5H   SYMBOL    XDATA    BYTE      dat
      00011850H   SYMBOL    XDATA    ---       soft_iic_obj
      00011854H   SYMBOL    XDATA    BYTE      register_name
      00011855H   SYMBOL    XDATA    ---       dat
      00011859H   SYMBOL    XDATA    DWORD     len
      00011C92H   SYMBOL    XDATA    ---       soft_iic_obj
      00011C96H   SYMBOL    XDATA    WORD      register_name
      00011C98H   SYMBOL    XDATA    WORD      dat
      000117A9H   SYMBOL    XDATA    ---       soft_iic_obj
      000117ADH   SYMBOL    XDATA    WORD      register_name
      000117AFH   SYMBOL    XDATA    ---       dat
      000117B3H   SYMBOL    XDATA    DWORD     len
      00011E7DH   SYMBOL    XDATA    ---       soft_iic_obj
      00011E81H   SYMBOL    XDATA    BYTE      temp
      00011904H   SYMBOL    XDATA    ---       soft_iic_obj
      00011908H   SYMBOL    XDATA    ---       dat
      0001190CH   SYMBOL    XDATA    DWORD     len
      00011DA6H   SYMBOL    XDATA    ---       soft_iic_obj
      00011DAAH   SYMBOL    XDATA    WORD      temp
L251 LINKER/LOCATER V4.66.93.0                                                        04/22/2026  19:49:03  PAGE 76


      00011910H   SYMBOL    XDATA    ---       soft_iic_obj
      00011914H   SYMBOL    XDATA    ---       dat
      00011918H   SYMBOL    XDATA    DWORD     len
      00011DACH   SYMBOL    XDATA    ---       soft_iic_obj
      00011DB0H   SYMBOL    XDATA    BYTE      register_name
      00011DB1H   SYMBOL    XDATA    BYTE      temp
      0001185DH   SYMBOL    XDATA    ---       soft_iic_obj
      00011861H   SYMBOL    XDATA    BYTE      register_name
      00011862H   SYMBOL    XDATA    ---       dat
      00011866H   SYMBOL    XDATA    DWORD     len
      00011C9AH   SYMBOL    XDATA    ---       soft_iic_obj
      00011C9EH   SYMBOL    XDATA    WORD      register_name
      00011CA0H   SYMBOL    XDATA    WORD      temp
      000117B7H   SYMBOL    XDATA    ---       soft_iic_obj
      000117BBH   SYMBOL    XDATA    WORD      register_name
      000117BDH   SYMBOL    XDATA    ---       dat
      000117C1H   SYMBOL    XDATA    DWORD     len
      000114FDH   SYMBOL    XDATA    ---       soft_iic_obj
      00011501H   SYMBOL    XDATA    ---       write_data
      00011505H   SYMBOL    XDATA    DWORD     write_len
      00011509H   SYMBOL    XDATA    ---       read_data
      0001150DH   SYMBOL    XDATA    DWORD     read_len
      00011511H   SYMBOL    XDATA    ---       soft_iic_obj
      00011515H   SYMBOL    XDATA    ---       write_data
      00011519H   SYMBOL    XDATA    DWORD     write_len
      0001151DH   SYMBOL    XDATA    ---       read_data
      00011521H   SYMBOL    XDATA    DWORD     read_len
      00011DB2H   SYMBOL    XDATA    ---       soft_iic_obj
      00011DB6H   SYMBOL    XDATA    BYTE      register_name
      00011DB7H   SYMBOL    XDATA    BYTE      dat
      00011DB8H   SYMBOL    XDATA    ---       soft_iic_obj
      00011DBCH   SYMBOL    XDATA    BYTE      register_name
      00011DBDH   SYMBOL    XDATA    BYTE      temp
      0001186AH   SYMBOL    XDATA    ---       soft_iic_obj
      0001186EH   SYMBOL    XDATA    BYTE      addr
      0001186FH   SYMBOL    XDATA    DWORD     delay
      00011873H   SYMBOL    XDATA    INT       scl_pin
      00011875H   SYMBOL    XDATA    INT       sda_pin

      ---         MODULE    ---      ---       zf_driver_soft_spi
      0001191CH   PUBLIC    XDATA    BYTE      ?soft_spi_write_8bit_array?BYTE
      00011928H   PUBLIC    XDATA    BYTE      ?soft_spi_write_16bit_array?BYTE
      00011877H   PUBLIC    XDATA    BYTE      ?soft_spi_write_8bit_registers?BYTE
      000117C5H   PUBLIC    XDATA    BYTE      ?soft_spi_write_16bit_registers?BYTE
      00011934H   PUBLIC    XDATA    BYTE      ?soft_spi_read_8bit_array?BYTE
      00011940H   PUBLIC    XDATA    BYTE      ?soft_spi_read_16bit_array?BYTE
      00011884H   PUBLIC    XDATA    BYTE      ?soft_spi_read_8bit_registers?BYTE
      000117D3H   PUBLIC    XDATA    BYTE      ?soft_spi_read_16bit_registers?BYTE
      000116C6H   PUBLIC    XDATA    BYTE      ?soft_spi_transfer_8bit?BYTE
      000116D6H   PUBLIC    XDATA    BYTE      ?soft_spi_transfer_16bit?BYTE
      00011497H   PUBLIC    XDATA    BYTE      ?soft_spi_init?BYTE
      000000D0H   SFRSYM    DATA     BYTE      PSW
      0000009DH   SFRSYM    DATA     BYTE      IRCBAND
      00000097H   SFRSYM    DATA     BYTE      AUXR2
      000000EFH   SFRSYM    DATA     BYTE      AUXINTIF
      000000FDH   SFRSYM    DATA     BYTE      S4CON
      000000ACH   SFRSYM    DATA     BYTE      S3CON
      0000009AH   SFRSYM    DATA     BYTE      S2CON
      000000B7H   SFRSYM    DATA     BYTE      IPH
      000000CDH   SFRSYM    DATA     BYTE      SPSTAT
      000000DDH   SFRSYM    DATA     BYTE      T4T3M
      000000C1H   SFRSYM    DATA     BYTE      WDT_CONTR
      000000DFH   SFRSYM    DATA     BYTE      IP3
      000000F4H   SFRSYM    DATA     BYTE      USBCON
      000000B5H   SFRSYM    DATA     BYTE      IP2
L251 LINKER/LOCATER V4.66.93.0                                                        04/22/2026  19:49:03  PAGE 77


      000000FFH   SFRSYM    DATA     BYTE      RSTCFG
      000000C7H   SFRSYM    DATA     BYTE      IAP_CONTR
      000000F9H   SFRSYM    DATA     BYTE      LINICR
      0000008EH   SFRSYM    DATA     BYTE      AUXR
      000000AFH   SFRSYM    DATA     BYTE      IE2
      00000088H   SFRSYM    DATA     BYTE      TCON
      00000089H   SFRSYM    DATA     BYTE      TMOD
      00000098H   SFRSYM    DATA     BYTE      SCON
      000000F1H   SFRSYM    DATA     BYTE      CANICR
      00000087H   SFRSYM    DATA     BYTE      PCON
      000000BCH   SFRSYM    DATA     BYTE      ADC_CONTR
      000000E7H   SFRSYM    DATA     BYTE      CMPCR2
      000000E6H   SFRSYM    DATA     BYTE      CMPCR1
      000000DEH   SFRSYM    DATA     BYTE      ADCCFG
      000000B8H   SFRSYM    DATA     BYTE      IP
      0000008FH   SFRSYM    DATA     BYTE      INTCLKO
      000000EEH   SFRSYM    DATA     BYTE      IP3H
      000000B6H   SFRSYM    DATA     BYTE      IP2H
      000000A8H   SFRSYM    DATA     BYTE      IE
      000000BBH   SFRSYM    DATA     BYTE      P_SW3
      000000BAH   SFRSYM    DATA     BYTE      P_SW2
      000000A2H   SFRSYM    DATA     BYTE      P_SW1
      000000CEH   SFRSYM    DATA     BYTE      SPCTL
      000000F8H   SFRSYM    DATA     BYTE      P7
      000000E8H   SFRSYM    DATA     BYTE      P6
      000000C8H   SFRSYM    DATA     BYTE      P5
      000000C0H   SFRSYM    DATA     BYTE      P4
      000000B0H   SFRSYM    DATA     BYTE      P3
      000000A0H   SFRSYM    DATA     BYTE      P2
      00000090H   SFRSYM    DATA     BYTE      P1
      00000080H   SFRSYM    DATA     BYTE      P0
      00011CA2H   SYMBOL    XDATA    DWORD     x
      00011CA6H   SYMBOL    XDATA    DWORD     i
      00011CAAH   SYMBOL    XDATA    ---       soft_spi_obj
      00011CAEH   SYMBOL    XDATA    BYTE      dat
      00011CAFH   SYMBOL    XDATA    BYTE      temp
      00011CB0H   SYMBOL    XDATA    BYTE      write_data
      00011CB1H   SYMBOL    XDATA    BYTE      read_data
      00011A9AH   SYMBOL    XDATA    ---       soft_spi_obj
      00011A9EH   SYMBOL    XDATA    WORD      dat
      00011AA0H   SYMBOL    XDATA    BYTE      temp
      00011AA1H   SYMBOL    XDATA    WORD      write_data
      00011AA3H   SYMBOL    XDATA    WORD      read_data
      00011E82H   SYMBOL    XDATA    ---       soft_spi_obj
      00011E86H   SYMBOL    XDATA    BYTE      dat
      0001191CH   SYMBOL    XDATA    ---       soft_spi_obj
      00011920H   SYMBOL    XDATA    ---       dat
      00011924H   SYMBOL    XDATA    DWORD     len
      00011DBEH   SYMBOL    XDATA    ---       soft_spi_obj
      00011DC2H   SYMBOL    XDATA    WORD      dat
      00011928H   SYMBOL    XDATA    ---       soft_spi_obj
      0001192CH   SYMBOL    XDATA    ---       dat
      00011930H   SYMBOL    XDATA    DWORD     len
      00011DC4H   SYMBOL    XDATA    ---       soft_spi_obj
      00011DC8H   SYMBOL    XDATA    BYTE      register_name
      00011DC9H   SYMBOL    XDATA    BYTE      dat
      00011877H   SYMBOL    XDATA    ---       soft_spi_obj
      0001187BH   SYMBOL    XDATA    BYTE      register_name
      0001187CH   SYMBOL    XDATA    ---       dat
      00011880H   SYMBOL    XDATA    DWORD     len
      00011CB2H   SYMBOL    XDATA    ---       soft_spi_obj
      00011CB6H   SYMBOL    XDATA    WORD      register_name
      00011CB8H   SYMBOL    XDATA    WORD      dat
      000117C5H   SYMBOL    XDATA    ---       soft_spi_obj
      000117C9H   SYMBOL    XDATA    WORD      register_name
L251 LINKER/LOCATER V4.66.93.0                                                        04/22/2026  19:49:03  PAGE 78


      000117CBH   SYMBOL    XDATA    ---       dat
      000117CFH   SYMBOL    XDATA    DWORD     len
      00011E87H   SYMBOL    XDATA    ---       soft_spi_obj
      00011E8BH   SYMBOL    XDATA    BYTE      dat
      00011934H   SYMBOL    XDATA    ---       soft_spi_obj
      00011938H   SYMBOL    XDATA    ---       dat
      0001193CH   SYMBOL    XDATA    DWORD     len
      00011E8CH   SYMBOL    XDATA    ---       soft_spi_obj
      00011E90H   SYMBOL    XDATA    BYTE      dat
      00011940H   SYMBOL    XDATA    ---       soft_spi_obj
      00011944H   SYMBOL    XDATA    ---       dat
      00011948H   SYMBOL    XDATA    DWORD     len
      00011DCAH   SYMBOL    XDATA    ---       soft_spi_obj
      00011DCEH   SYMBOL    XDATA    BYTE      register_name
      00011DCFH   SYMBOL    XDATA    BYTE      dat
      00011884H   SYMBOL    XDATA    ---       soft_spi_obj
      00011888H   SYMBOL    XDATA    BYTE      register_name
      00011889H   SYMBOL    XDATA    ---       dat
      0001188DH   SYMBOL    XDATA    DWORD     len
      00011CBAH   SYMBOL    XDATA    ---       soft_spi_obj
      00011CBEH   SYMBOL    XDATA    WORD      register_name
      00011CC0H   SYMBOL    XDATA    WORD      dat
      000117D3H   SYMBOL    XDATA    ---       soft_spi_obj
      000117D7H   SYMBOL    XDATA    WORD      register_name
      000117D9H   SYMBOL    XDATA    ---       dat
      000117DDH   SYMBOL    XDATA    DWORD     len
      000116C6H   SYMBOL    XDATA    ---       soft_spi_obj
      000116CAH   SYMBOL    XDATA    ---       write_buffer
      000116CEH   SYMBOL    XDATA    ---       read_buffer
      000116D2H   SYMBOL    XDATA    DWORD     len
      000116D6H   SYMBOL    XDATA    ---       soft_spi_obj
      000116DAH   SYMBOL    XDATA    ---       write_buffer
      000116DEH   SYMBOL    XDATA    ---       read_buffer
      000116E2H   SYMBOL    XDATA    DWORD     len
      00011497H   SYMBOL    XDATA    ---       soft_spi_obj
      0001149BH   SYMBOL    XDATA    BYTE      mode
      0001149CH   SYMBOL    XDATA    DWORD     delay
      000114A0H   SYMBOL    XDATA    INT       sck_pin
      000114A2H   SYMBOL    XDATA    INT       mosi_pin
      000114A4H   SYMBOL    XDATA    DWORD     miso_pin
      000114A8H   SYMBOL    XDATA    DWORD     cs_pin

      ---         MODULE    ---      ---       zf_driver_spi
      00FF0066H   PUBLIC    CODE     ---       spi_write_8bit
      00FF4D81H   PUBLIC    CODE     ---       spi_init
      00FFA0D2H   PUBLIC    CODE     ---       spi_write_16bit
      00FF984FH   PUBLIC    CODE     ---       spi_read_dat
      00FF9A6DH   PUBLIC    CODE     ---       spi_write_dat
      00011AFAH   PUBLIC    XDATA    BYTE      ?spi_write_8bit_array?BYTE
      00011B04H   PUBLIC    XDATA    BYTE      ?spi_write_16bit_array?BYTE
      00011AA5H   PUBLIC    XDATA    BYTE      ?spi_write_8bit_registers?BYTE
      0001194CH   PUBLIC    XDATA    BYTE      ?spi_write_16bit_registers?BYTE
      00011B0EH   PUBLIC    XDATA    BYTE      ?spi_read_8bit_array?BYTE
      00011B18H   PUBLIC    XDATA    BYTE      ?spi_read_16bit_array?BYTE
      00011AB0H   PUBLIC    XDATA    BYTE      ?spi_read_8bit_registers?BYTE
      00011958H   PUBLIC    XDATA    BYTE      ?spi_read_16bit_registers?BYTE
      000117E1H   PUBLIC    XDATA    BYTE      ?spi_transfer_8bit?BYTE
      000117EFH   PUBLIC    XDATA    BYTE      ?spi_transfer_16bit?BYTE
      00011525H   PUBLIC    XDATA    BYTE      ?spi_init?BYTE
      000000CFH   SFRSYM    DATA     BYTE      SPDAT
      000000D0H   SFRSYM    DATA     BYTE      PSW
      0000009DH   SFRSYM    DATA     BYTE      IRCBAND
      00000097H   SFRSYM    DATA     BYTE      AUXR2
      000000EFH   SFRSYM    DATA     BYTE      AUXINTIF
      000000FDH   SFRSYM    DATA     BYTE      S4CON
L251 LINKER/LOCATER V4.66.93.0                                                        04/22/2026  19:49:03  PAGE 79


      000000ACH   SFRSYM    DATA     BYTE      S3CON
      0000009AH   SFRSYM    DATA     BYTE      S2CON
      0000009BH   SFRSYM    DATA     BYTE      S2BUF
      000000B7H   SFRSYM    DATA     BYTE      IPH
      000000CDH   SFRSYM    DATA     BYTE      SPSTAT
      000000DDH   SFRSYM    DATA     BYTE      T4T3M
      000000C1H   SFRSYM    DATA     BYTE      WDT_CONTR
      000000DFH   SFRSYM    DATA     BYTE      IP3
      000000F4H   SFRSYM    DATA     BYTE      USBCON
      000000B5H   SFRSYM    DATA     BYTE      IP2
      000000FFH   SFRSYM    DATA     BYTE      RSTCFG
      000000C7H   SFRSYM    DATA     BYTE      IAP_CONTR
      000000F9H   SFRSYM    DATA     BYTE      LINICR
      0000008EH   SFRSYM    DATA     BYTE      AUXR
      000000AFH   SFRSYM    DATA     BYTE      IE2
      00000088H   SFRSYM    DATA     BYTE      TCON
      00000089H   SFRSYM    DATA     BYTE      TMOD
      00000098H   SFRSYM    DATA     BYTE      SCON
      000000F1H   SFRSYM    DATA     BYTE      CANICR
      00000087H   SFRSYM    DATA     BYTE      PCON
      00000099H   SFRSYM    DATA     BYTE      SBUF
      000000BCH   SFRSYM    DATA     BYTE      ADC_CONTR
      000000E7H   SFRSYM    DATA     BYTE      CMPCR2
      000000E6H   SFRSYM    DATA     BYTE      CMPCR1
      0000009AH.1 SFRSYM    DATA     BIT       S2TI
      00000098H.1 SFRSYM    DATA     BIT       TI
      000000DEH   SFRSYM    DATA     BYTE      ADCCFG
      000000B8H   SFRSYM    DATA     BYTE      IP
      0000008FH   SFRSYM    DATA     BYTE      INTCLKO
      000000EEH   SFRSYM    DATA     BYTE      IP3H
      000000B6H   SFRSYM    DATA     BYTE      IP2H
      000000A8H   SFRSYM    DATA     BYTE      IE
      000000BBH   SFRSYM    DATA     BYTE      P_SW3
      000000BAH   SFRSYM    DATA     BYTE      P_SW2
      000000A2H   SFRSYM    DATA     BYTE      P_SW1
      000000CEH   SFRSYM    DATA     BYTE      SPCTL
      000000F8H   SFRSYM    DATA     BYTE      P7
      000000E8H   SFRSYM    DATA     BYTE      P6
      000000C8H   SFRSYM    DATA     BYTE      P5
      000000C0H   SFRSYM    DATA     BYTE      P4
      000000B0H   SFRSYM    DATA     BYTE      P3
      000000A0H   SFRSYM    DATA     BYTE      P2
      00000090H   SFRSYM    DATA     BYTE      P1
      00000080H   SFRSYM    DATA     BYTE      P0

      00FF9A6DH   BLOCK     CODE     ---       LVL=0
      00011F61H   SYMBOL    XDATA    INT       spi_n
      00011F63H   SYMBOL    XDATA    BYTE      dat
      00FF9A6DH   LINE      CODE     ---       #81
      00FF9A77H   LINE      CODE     ---       #83
      00FF9A89H   LINE      CODE     ---       #85
      00FF9A89H   LINE      CODE     ---       #86
      00FF9A8DH   LINE      CODE     ---       #87
      00FF9A93H   LINE      CODE     ---       #88
      00FF9A98H   LINE      CODE     ---       #89
      00FF9A9AH   LINE      CODE     ---       #90
      00FF9A9AH   LINE      CODE     ---       #91
      00FF9A9DH   LINE      CODE     ---       #92
      00FF9AA3H   LINE      CODE     ---       #93
      00FF9AA6H   LINE      CODE     ---       #94
      00FF9AA8H   LINE      CODE     ---       #95
      00FF9AA8H   LINE      CODE     ---       #96
      00FF9AACH   LINE      CODE     ---       #97
      00FF9AB2H   LINE      CODE     ---       #98
      00FF9AB6H   LINE      CODE     ---       #99
L251 LINKER/LOCATER V4.66.93.0                                                        04/22/2026  19:49:03  PAGE 80


      00FF9AB8H   LINE      CODE     ---       #100
      00FF9AB8H   LINE      CODE     ---       #101
      00FF9AC8H   LINE      CODE     ---       #102
      00FF9AC8H   LINE      CODE     ---       #103
      00FF9AC8H   LINE      CODE     ---       #104
      ---         BLOCKEND  ---      ---       LVL=0

      00FF984FH   BLOCK     CODE     ---       LVL=0
      00011EFEH   SYMBOL    XDATA    INT       spi_n
      00011F00H   SYMBOL    XDATA    BYTE      dat
      00FF9859H   BLOCK     CODE     NEAR LAB  LVL=1
      00011F01H   SYMBOL    XDATA    BYTE      ret
      ---         BLOCKEND  ---      ---       LVL=1
      00FF984FH   LINE      CODE     ---       #107
      00FF9859H   LINE      CODE     ---       #108
      00FF9859H   LINE      CODE     ---       #109
      00FF985FH   LINE      CODE     ---       #110
      00FF9871H   LINE      CODE     ---       #112
      00FF9871H   LINE      CODE     ---       #113
      00FF9875H   LINE      CODE     ---       #114
      00FF987BH   LINE      CODE     ---       #115
      00FF9880H   LINE      CODE     ---       #116
      00FF9886H   LINE      CODE     ---       #117
      00FF9888H   LINE      CODE     ---       #118
      00FF9888H   LINE      CODE     ---       #119
      00FF988BH   LINE      CODE     ---       #120
      00FF9891H   LINE      CODE     ---       #121
      00FF9894H   LINE      CODE     ---       #122
      00FF989AH   LINE      CODE     ---       #123
      00FF989CH   LINE      CODE     ---       #124
      00FF989CH   LINE      CODE     ---       #125
      00FF98A0H   LINE      CODE     ---       #126
      00FF98A6H   LINE      CODE     ---       #127
      00FF98AAH   LINE      CODE     ---       #128
      00FF98B0H   LINE      CODE     ---       #129
      00FF98B2H   LINE      CODE     ---       #130
      00FF98B2H   LINE      CODE     ---       #131
      00FF98C2H   LINE      CODE     ---       #132
      00FF98C2H   LINE      CODE     ---       #133
      00FF98C2H   LINE      CODE     ---       #135
      00FF98C6H   LINE      CODE     ---       #136
      ---         BLOCKEND  ---      ---       LVL=0

      00FF0066H   BLOCK     CODE     ---       LVL=0
      00011F64H   SYMBOL    XDATA    INT       spi_n
      00011F66H   SYMBOL    XDATA    BYTE      dat
      00FF0066H   LINE      CODE     ---       #147
      00FF0070H   LINE      CODE     ---       #149
      00FF007DH   LINE      CODE     ---       #150
      ---         BLOCKEND  ---      ---       LVL=0
      00011AFAH   SYMBOL    XDATA    INT       spi_n
      00011AFCH   SYMBOL    XDATA    ---       dat
      00011B00H   SYMBOL    XDATA    DWORD     len

      00FFA0D2H   BLOCK     CODE     ---       LVL=0
      00011F02H   SYMBOL    XDATA    INT       spi_n
      00011F04H   SYMBOL    XDATA    WORD      dat
      00FFA0D2H   LINE      CODE     ---       #175
      00FFA0DEH   LINE      CODE     ---       #177
      00FFA0F7H   LINE      CODE     ---       #178
      00FFA10CH   LINE      CODE     ---       #179
      ---         BLOCKEND  ---      ---       LVL=0
      00011B04H   SYMBOL    XDATA    INT       spi_n
      00011B06H   SYMBOL    XDATA    ---       dat
      00011B0AH   SYMBOL    XDATA    DWORD     len
L251 LINKER/LOCATER V4.66.93.0                                                        04/22/2026  19:49:03  PAGE 81


      00011F06H   SYMBOL    XDATA    INT       spi_n
      00011F08H   SYMBOL    XDATA    BYTE      register_name
      00011F09H   SYMBOL    XDATA    BYTE      dat
      00011AA5H   SYMBOL    XDATA    INT       spi_n
      00011AA7H   SYMBOL    XDATA    BYTE      register_name
      00011AA8H   SYMBOL    XDATA    ---       dat
      00011AACH   SYMBOL    XDATA    DWORD     len
      00011DD0H   SYMBOL    XDATA    INT       spi_n
      00011DD2H   SYMBOL    XDATA    WORD      register_name
      00011DD4H   SYMBOL    XDATA    WORD      dat
      0001194CH   SYMBOL    XDATA    INT       spi_n
      0001194EH   SYMBOL    XDATA    WORD      register_name
      00011950H   SYMBOL    XDATA    ---       dat
      00011F90H   SYMBOL    XDATA    INT       spi_n
      00011B0EH   SYMBOL    XDATA    INT       spi_n
      00011B10H   SYMBOL    XDATA    ---       dat
      00011B14H   SYMBOL    XDATA    DWORD     len
      00011F0AH   SYMBOL    XDATA    INT       spi_n
      00011F0CH   SYMBOL    XDATA    WORD      dat
      00011B18H   SYMBOL    XDATA    INT       spi_n
      00011B1AH   SYMBOL    XDATA    ---       dat
      00011B1EH   SYMBOL    XDATA    DWORD     len
      00011F67H   SYMBOL    XDATA    INT       spi_n
      00011F69H   SYMBOL    XDATA    BYTE      register_name
      00011AB0H   SYMBOL    XDATA    INT       spi_n
      00011AB2H   SYMBOL    XDATA    BYTE      register_name
      00011AB3H   SYMBOL    XDATA    ---       dat
      00011AB7H   SYMBOL    XDATA    DWORD     len
      00011DD6H   SYMBOL    XDATA    INT       spi_n
      00011DD8H   SYMBOL    XDATA    WORD      register_name
      00011DDAH   SYMBOL    XDATA    WORD      dat
      00011958H   SYMBOL    XDATA    INT       spi_n
      0001195AH   SYMBOL    XDATA    WORD      register_name
      0001195CH   SYMBOL    XDATA    ---       dat
      00011960H   SYMBOL    XDATA    DWORD     len
      000117E1H   SYMBOL    XDATA    INT       spi_n
      000117E3H   SYMBOL    XDATA    ---       write_buffer
      000117E7H   SYMBOL    XDATA    ---       read_buffer
      000117EBH   SYMBOL    XDATA    DWORD     len
      000117EFH   SYMBOL    XDATA    INT       spi_n
      000117F1H   SYMBOL    XDATA    ---       write_buffer
      000117F5H   SYMBOL    XDATA    ---       read_buffer
      000117F9H   SYMBOL    XDATA    DWORD     len

      00FF4D81H   BLOCK     CODE     ---       LVL=0
      00011525H   SYMBOL    XDATA    INT       spi_n
      00011527H   SYMBOL    XDATA    INT       mode
      00011529H   SYMBOL    XDATA    DWORD     baud
      0001152DH   SYMBOL    XDATA    INT       sck_pin
      0001152FH   SYMBOL    XDATA    INT       mosi_pin
      00011531H   SYMBOL    XDATA    INT       miso_pin
      00011533H   SYMBOL    XDATA    INT       cs_pin
      00FF4D97H   BLOCK     CODE     NEAR LAB  LVL=1
      00011535H   SYMBOL    XDATA    DWORD     spi_psc
      ---         BLOCKEND  ---      ---       LVL=1
      00FF4D81H   LINE      CODE     ---       #465
      00FF4D97H   LINE      CODE     ---       #466
      00FF4D97H   LINE      CODE     ---       #468
      00FF4DA3H   LINE      CODE     ---       #470
      00FF4DBFH   LINE      CODE     ---       #472
      00FF4DCFH   LINE      CODE     ---       #474
      00FF4DCFH   LINE      CODE     ---       #476
      00FF4DE8H   LINE      CODE     ---       #477
      00FF4E01H   LINE      CODE     ---       #479
      00FF4E0FH   LINE      CODE     ---       #481
L251 LINKER/LOCATER V4.66.93.0                                                        04/22/2026  19:49:03  PAGE 82


      00FF4E24H   LINE      CODE     ---       #482
      00FF4E24H   LINE      CODE     ---       #484
      00FF4E32H   LINE      CODE     ---       #486
      00FF4E4AH   LINE      CODE     ---       #487
      00FF4E4AH   LINE      CODE     ---       #490
      00FF4E5AH   LINE      CODE     ---       #492
      00FF4E6BH   LINE      CODE     ---       #493
      00FF4E7CH   LINE      CODE     ---       #494
      00FF4E8AH   LINE      CODE     ---       #496
      00FF4E9BH   LINE      CODE     ---       #497
      00FF4E9BH   LINE      CODE     ---       #498
      00FF4EA9H   LINE      CODE     ---       #500
      00FF4EBAH   LINE      CODE     ---       #501
      00FF4EBAH   LINE      CODE     ---       #504
      00FF4EC9H   LINE      CODE     ---       #506
      00FF4ECCH   LINE      CODE     ---       #508
      00FF4EEEH   LINE      CODE     ---       #510
      00FF4EEEH   LINE      CODE     ---       #511
      00FF4EF2H   LINE      CODE     ---       #512
      00FF4EF4H   LINE      CODE     ---       #514
      00FF4EF4H   LINE      CODE     ---       #515
      00FF4EF7H   LINE      CODE     ---       #516
      00FF4EF9H   LINE      CODE     ---       #518
      00FF4EF9H   LINE      CODE     ---       #519
      00FF4EFCH   LINE      CODE     ---       #520
      00FF4EFEH   LINE      CODE     ---       #522
      00FF4EFEH   LINE      CODE     ---       #523
      00FF4F01H   LINE      CODE     ---       #524
      00FF4F01H   LINE      CODE     ---       #525
      00FF4F01H   LINE      CODE     ---       #527
      00FF4F04H   LINE      CODE     ---       #528
      00FF4F07H   LINE      CODE     ---       #529
      00FF4F0AH   LINE      CODE     ---       #532
      00FF4F2BH   LINE      CODE     ---       #534
      00FF4F2EH   LINE      CODE     ---       #536
      00FF4F3EH   LINE      CODE     ---       #538
      00FF4F41H   LINE      CODE     ---       #539
      00FF4F43H   LINE      CODE     ---       #540
      00FF4F53H   LINE      CODE     ---       #542
      00FF4F56H   LINE      CODE     ---       #543
      00FF4F58H   LINE      CODE     ---       #544
      00FF4F68H   LINE      CODE     ---       #546
      00FF4F6CH   LINE      CODE     ---       #547
      00FF4F6EH   LINE      CODE     ---       #550
      00FF4F71H   LINE      CODE     ---       #551
      00FF4F71H   LINE      CODE     ---       #554
      00FF4F85H   LINE      CODE     ---       #556
      00FF4F85H   LINE      CODE     ---       #557
      00FF4F87H   LINE      CODE     ---       #559
      00FF4F87H   LINE      CODE     ---       #560
      00FF4F8AH   LINE      CODE     ---       #561
      00FF4F8CH   LINE      CODE     ---       #563
      00FF4F8CH   LINE      CODE     ---       #564
      00FF4F8FH   LINE      CODE     ---       #565
      00FF4F91H   LINE      CODE     ---       #567
      00FF4F91H   LINE      CODE     ---       #568
      00FF4F94H   LINE      CODE     ---       #569
      00FF4F94H   LINE      CODE     ---       #570
      00FF4F94H   LINE      CODE     ---       #572
      00FF4F97H   LINE      CODE     ---       #573
      00FF4F9AH   LINE      CODE     ---       #574
      00FF4FABH   LINE      CODE     ---       #583
      00FF4FC3H   LINE      CODE     ---       #586
      00FF4FC6H   LINE      CODE     ---       #588
      00FF4FE8H   LINE      CODE     ---       #590
L251 LINKER/LOCATER V4.66.93.0                                                        04/22/2026  19:49:03  PAGE 83


      00FF4FE8H   LINE      CODE     ---       #591
      00FF4FECH   LINE      CODE     ---       #592
      00FF4FEEH   LINE      CODE     ---       #594
      00FF4FEEH   LINE      CODE     ---       #595
      00FF4FF1H   LINE      CODE     ---       #596
      00FF4FF3H   LINE      CODE     ---       #598
      00FF4FF3H   LINE      CODE     ---       #599
      00FF4FF6H   LINE      CODE     ---       #600
      00FF4FF8H   LINE      CODE     ---       #602
      00FF4FF8H   LINE      CODE     ---       #603
      00FF4FFBH   LINE      CODE     ---       #604
      00FF4FFBH   LINE      CODE     ---       #605
      00FF4FFBH   LINE      CODE     ---       #607
      00FF4FFFH   LINE      CODE     ---       #608
      00FF500CH   LINE      CODE     ---       #612
      00FF502DH   LINE      CODE     ---       #616
      00FF503DH   LINE      CODE     ---       #618
      00FF504FH   LINE      CODE     ---       #619
      00FF5051H   LINE      CODE     ---       #620
      00FF5061H   LINE      CODE     ---       #622
      00FF5073H   LINE      CODE     ---       #623
      00FF5075H   LINE      CODE     ---       #626
      00FF5083H   LINE      CODE     ---       #627
      00FF5083H   LINE      CODE     ---       #635
      00FF509BH   LINE      CODE     ---       #637
      00FF509BH   LINE      CODE     ---       #638
      00FF50A9H   LINE      CODE     ---       #639
      00FF50ABH   LINE      CODE     ---       #641
      00FF50ABH   LINE      CODE     ---       #642
      00FF50BDH   LINE      CODE     ---       #643
      00FF50BFH   LINE      CODE     ---       #645
      00FF50BFH   LINE      CODE     ---       #646
      00FF50D1H   LINE      CODE     ---       #647
      00FF50D3H   LINE      CODE     ---       #649
      00FF50D3H   LINE      CODE     ---       #650
      00FF50E5H   LINE      CODE     ---       #651
      00FF50E5H   LINE      CODE     ---       #652
      00FF50E5H   LINE      CODE     ---       #654
      00FF50F7H   LINE      CODE     ---       #655
      00FF50FAH   LINE      CODE     ---       #656
      00FF510BH   LINE      CODE     ---       #665
      00FF5125H   LINE      CODE     ---       #667
      00FF5128H   LINE      CODE     ---       #669
      00FF514AH   LINE      CODE     ---       #671
      00FF514AH   LINE      CODE     ---       #672
      00FF514EH   LINE      CODE     ---       #673
      00FF5150H   LINE      CODE     ---       #675
      00FF5150H   LINE      CODE     ---       #676
      00FF5153H   LINE      CODE     ---       #677
      00FF5155H   LINE      CODE     ---       #679
      00FF5155H   LINE      CODE     ---       #680
      00FF5158H   LINE      CODE     ---       #681
      00FF515AH   LINE      CODE     ---       #683
      00FF515AH   LINE      CODE     ---       #684
      00FF515DH   LINE      CODE     ---       #685
      00FF515DH   LINE      CODE     ---       #686
      00FF515DH   LINE      CODE     ---       #688
      00FF5161H   LINE      CODE     ---       #689
      00FF516EH   LINE      CODE     ---       #693
      00FF518FH   LINE      CODE     ---       #695
      00FF519FH   LINE      CODE     ---       #697
      00FF51B1H   LINE      CODE     ---       #698
      00FF51B3H   LINE      CODE     ---       #699
      00FF51C3H   LINE      CODE     ---       #701
      00FF51D5H   LINE      CODE     ---       #702
L251 LINKER/LOCATER V4.66.93.0                                                        04/22/2026  19:49:03  PAGE 84


      00FF51D7H   LINE      CODE     ---       #705
      00FF51E5H   LINE      CODE     ---       #706
      00FF51E5H   LINE      CODE     ---       #714
      00FF51FDH   LINE      CODE     ---       #716
      00FF51FDH   LINE      CODE     ---       #717
      00FF520BH   LINE      CODE     ---       #718
      00FF520DH   LINE      CODE     ---       #720
      00FF520DH   LINE      CODE     ---       #721
      00FF521FH   LINE      CODE     ---       #722
      00FF5221H   LINE      CODE     ---       #724
      00FF5221H   LINE      CODE     ---       #725
      00FF5233H   LINE      CODE     ---       #726
      00FF5235H   LINE      CODE     ---       #728
      00FF5235H   LINE      CODE     ---       #729
      00FF5247H   LINE      CODE     ---       #730
      00FF5247H   LINE      CODE     ---       #731
      00FF5247H   LINE      CODE     ---       #733
      00FF5259H   LINE      CODE     ---       #734
      ---         BLOCKEND  ---      ---       LVL=0

      ---         MODULE    ---      ---       zf_driver_timer
      00FF9653H   PUBLIC    CODE     ---       timer_funciton_check
      000000D0H   SFRSYM    DATA     BYTE      PSW
      0000009DH   SFRSYM    DATA     BYTE      IRCBAND
      00000097H   SFRSYM    DATA     BYTE      AUXR2
      000000EFH   SFRSYM    DATA     BYTE      AUXINTIF
      000000FDH   SFRSYM    DATA     BYTE      S4CON
      000000ACH   SFRSYM    DATA     BYTE      S3CON
      0000009AH   SFRSYM    DATA     BYTE      S2CON
      000000B7H   SFRSYM    DATA     BYTE      IPH
      000000CDH   SFRSYM    DATA     BYTE      SPSTAT
      000000DDH   SFRSYM    DATA     BYTE      T4T3M
      000000C1H   SFRSYM    DATA     BYTE      WDT_CONTR
      000000DFH   SFRSYM    DATA     BYTE      IP3
      000000F4H   SFRSYM    DATA     BYTE      USBCON
      000000B5H   SFRSYM    DATA     BYTE      IP2
      000000FFH   SFRSYM    DATA     BYTE      RSTCFG
      000000C7H   SFRSYM    DATA     BYTE      IAP_CONTR
      000000F9H   SFRSYM    DATA     BYTE      LINICR
      0000008EH   SFRSYM    DATA     BYTE      AUXR
      000000AFH   SFRSYM    DATA     BYTE      IE2
      00000088H   SFRSYM    DATA     BYTE      TCON
      00000089H   SFRSYM    DATA     BYTE      TMOD
      00000098H   SFRSYM    DATA     BYTE      SCON
      000000F1H   SFRSYM    DATA     BYTE      CANICR
      00000087H   SFRSYM    DATA     BYTE      PCON
      000000BCH   SFRSYM    DATA     BYTE      ADC_CONTR
      000000E7H   SFRSYM    DATA     BYTE      CMPCR2
      000000E6H   SFRSYM    DATA     BYTE      CMPCR1
      000000DEH   SFRSYM    DATA     BYTE      ADCCFG
      000000B8H   SFRSYM    DATA     BYTE      IP
      0000008FH   SFRSYM    DATA     BYTE      INTCLKO
      000000EEH   SFRSYM    DATA     BYTE      IP3H
      000000B6H   SFRSYM    DATA     BYTE      IP2H
      000000A8H   SFRSYM    DATA     BYTE      IE
      000000BBH   SFRSYM    DATA     BYTE      P_SW3
      000000BAH   SFRSYM    DATA     BYTE      P_SW2
      000000A2H   SFRSYM    DATA     BYTE      P_SW1
      000000CEH   SFRSYM    DATA     BYTE      SPCTL
      000000F8H   SFRSYM    DATA     BYTE      P7
      000000E8H   SFRSYM    DATA     BYTE      P6
      000000C8H   SFRSYM    DATA     BYTE      P5
      000000C0H   SFRSYM    DATA     BYTE      P4
      000000B0H   SFRSYM    DATA     BYTE      P3
      000000A0H   SFRSYM    DATA     BYTE      P2
L251 LINKER/LOCATER V4.66.93.0                                                        04/22/2026  19:49:03  PAGE 85


      00000090H   SFRSYM    DATA     BYTE      P1
      00000080H   SFRSYM    DATA     BYTE      P0
      00011964H   SYMBOL    XDATA    ---       timer_function_state

      00FF9653H   BLOCK     CODE     ---       LVL=0
      00011E91H   SYMBOL    XDATA    INT       index
      00011E93H   SYMBOL    XDATA    INT       mode
      00FF965FH   BLOCK     CODE     NEAR LAB  LVL=1
      00011E95H   SYMBOL    XDATA    BYTE      return_state
      ---         BLOCKEND  ---      ---       LVL=1
      00FF9653H   LINE      CODE     ---       #58
      00FF965FH   LINE      CODE     ---       #59
      00FF965FH   LINE      CODE     ---       #60
      00FF9665H   LINE      CODE     ---       #61
      00FF9682H   LINE      CODE     ---       #63
      00FF969FH   LINE      CODE     ---       #64
      00FF96A1H   LINE      CODE     ---       #65
      00FF96C2H   LINE      CODE     ---       #67
      00FF96C8H   LINE      CODE     ---       #68
      00FF96CAH   LINE      CODE     ---       #71
      00FF96CFH   LINE      CODE     ---       #72
      00FF96CFH   LINE      CODE     ---       #73
      00FF96D3H   LINE      CODE     ---       #74
      ---         BLOCKEND  ---      ---       LVL=0

      ---         MODULE    ---      ---       zf_driver_uart
      00FF8BE3H   PUBLIC    CODE     ---       uart_rx_start_buff
      00FF6EEAH   PUBLIC    CODE     ---       uart_write_buffer
      00FF5945H   PUBLIC    CODE     ---       uart_init
      00FF99A2H   PUBLIC    CODE     ---       uart_rx_interrupt
      00FFA3F3H   PUBLIC    CODE     ---       uart_write_byte
      00FF77AFH   PUBLIC    CODE     ---       uart_dma_init
      00FF96D4H   PUBLIC    CODE     ---       uart_funciton_check
      00FF9153H   PUBLIC    CODE     ---       uart_query_byte
      00011978H   PUBLIC    XDATA    ---       uart_rx_buff
      0001197CH   PUBLIC    XDATA    BYTE      ?uart_init?BYTE
      000000D0H   SFRSYM    DATA     BYTE      PSW
      0000009DH   SFRSYM    DATA     BYTE      IRCBAND
      00000097H   SFRSYM    DATA     BYTE      AUXR2
      000000EFH   SFRSYM    DATA     BYTE      AUXINTIF
      000000FDH   SFRSYM    DATA     BYTE      S4CON
      000000ACH   SFRSYM    DATA     BYTE      S3CON
      0000009AH   SFRSYM    DATA     BYTE      S2CON
      000000B7H   SFRSYM    DATA     BYTE      IPH
      000000CDH   SFRSYM    DATA     BYTE      SPSTAT
      000000DDH   SFRSYM    DATA     BYTE      T4T3M
      000000C1H   SFRSYM    DATA     BYTE      WDT_CONTR
      00000088H.6 SFRSYM    DATA     BIT       TR1
      000000D7H   SFRSYM    DATA     BYTE      T2L
      000000D6H   SFRSYM    DATA     BYTE      T2H
      000000DFH   SFRSYM    DATA     BYTE      IP3
      000000F4H   SFRSYM    DATA     BYTE      USBCON
      000000B5H   SFRSYM    DATA     BYTE      IP2
      000000FFH   SFRSYM    DATA     BYTE      RSTCFG
      000000C7H   SFRSYM    DATA     BYTE      IAP_CONTR
      000000F9H   SFRSYM    DATA     BYTE      LINICR
      0000008EH   SFRSYM    DATA     BYTE      AUXR
      000000AFH   SFRSYM    DATA     BYTE      IE2
      00000088H   SFRSYM    DATA     BYTE      TCON
      00000089H   SFRSYM    DATA     BYTE      TMOD
      00000098H   SFRSYM    DATA     BYTE      SCON
      000000F1H   SFRSYM    DATA     BYTE      CANICR
      00000087H   SFRSYM    DATA     BYTE      PCON
      000000BCH   SFRSYM    DATA     BYTE      ADC_CONTR
      000000E7H   SFRSYM    DATA     BYTE      CMPCR2
L251 LINKER/LOCATER V4.66.93.0                                                        04/22/2026  19:49:03  PAGE 86


      000000E6H   SFRSYM    DATA     BYTE      CMPCR1
      000000DEH   SFRSYM    DATA     BYTE      ADCCFG
      000000B8H   SFRSYM    DATA     BYTE      IP
      0000008FH   SFRSYM    DATA     BYTE      INTCLKO
      000000EEH   SFRSYM    DATA     BYTE      IP3H
      000000B6H   SFRSYM    DATA     BYTE      IP2H
      000000A8H   SFRSYM    DATA     BYTE      IE
      000000BBH   SFRSYM    DATA     BYTE      P_SW3
      000000BAH   SFRSYM    DATA     BYTE      P_SW2
      000000A2H   SFRSYM    DATA     BYTE      P_SW1
      000000CEH   SFRSYM    DATA     BYTE      SPCTL
      000000F8H   SFRSYM    DATA     BYTE      P7
      000000E8H   SFRSYM    DATA     BYTE      P6
      000000C8H   SFRSYM    DATA     BYTE      P5
      000000C0H   SFRSYM    DATA     BYTE      P4
      000000B0H   SFRSYM    DATA     BYTE      P3
      000000A0H   SFRSYM    DATA     BYTE      P2
      00000090H   SFRSYM    DATA     BYTE      P1
      00000080H   SFRSYM    DATA     BYTE      P0
      00FFB150H   SYMBOL    HCONST   ---       ?tpl?0001
      00011970H   SYMBOL    XDATA    ---       uart_function_state

      00FF96D4H   BLOCK     CODE     ---       LVL=0
      00011E96H   SYMBOL    XDATA    INT       index
      00011E98H   SYMBOL    XDATA    INT       mode
      00FF96E0H   BLOCK     CODE     NEAR LAB  LVL=1
      00011E9AH   SYMBOL    XDATA    BYTE      return_state
      ---         BLOCKEND  ---      ---       LVL=1
      00FF96D4H   LINE      CODE     ---       #86
      00FF96E0H   LINE      CODE     ---       #87
      00FF96E0H   LINE      CODE     ---       #88
      00FF96E6H   LINE      CODE     ---       #89
      00FF9703H   LINE      CODE     ---       #91
      00FF9720H   LINE      CODE     ---       #92
      00FF9722H   LINE      CODE     ---       #93
      00FF9743H   LINE      CODE     ---       #95
      00FF9749H   LINE      CODE     ---       #96
      00FF974BH   LINE      CODE     ---       #99
      00FF9750H   LINE      CODE     ---       #100
      00FF9750H   LINE      CODE     ---       #101
      00FF9754H   LINE      CODE     ---       #102
      ---         BLOCKEND  ---      ---       LVL=0

      00FF6EEAH   BLOCK     CODE     ---       LVL=0
      00010E62H   SYMBOL    XDATA    INT       uart_n
      00010E64H   SYMBOL    XDATA    ---       buff
      00010E68H   SYMBOL    XDATA    WORD      len
      00FF6F00H   BLOCK     CODE     NEAR LAB  LVL=1
      00010E6AH   SYMBOL    XDATA    ---       tmp_buff
      00010EAAH   SYMBOL    XDATA    WORD      tmp_len
      ---         BLOCKEND  ---      ---       LVL=1
      00FF6EEAH   LINE      CODE     ---       #111
      00FF6F00H   LINE      CODE     ---       #112
      00FF6F00H   LINE      CODE     ---       #116
      00FF6F15H   LINE      CODE     ---       #117
      00FF6F1DH   LINE      CODE     ---       #118
      00FF6F20H   LINE      CODE     ---       #120
      00FF6F40H   LINE      CODE     ---       #121
      00FF6F5FH   LINE      CODE     ---       #122
      00FF6F70H   LINE      CODE     ---       #123
      00FF6F89H   LINE      CODE     ---       #126
      00FF6FA9H   LINE      CODE     ---       #128
      00FF6FD5H   LINE      CODE     ---       #129
      00FF7002H   LINE      CODE     ---       #130
      00FF702AH   LINE      CODE     ---       #131
L251 LINKER/LOCATER V4.66.93.0                                                        04/22/2026  19:49:03  PAGE 87


      00FF704EH   LINE      CODE     ---       #132
      00FF706FH   LINE      CODE     ---       #134
      00FF7090H   LINE      CODE     ---       #136
      00FF70B0H   LINE      CODE     ---       #137
      00FF70BFH   LINE      CODE     ---       #138
      ---         BLOCKEND  ---      ---       LVL=0
      00011CC2H   SYMBOL    XDATA    INT       uart_n
      00011CC4H   SYMBOL    XDATA    ---       str
      00011CC8H   SYMBOL    XDATA    WORD      len

      00FFA3F3H   BLOCK     CODE     ---       LVL=0
      00011F6AH   SYMBOL    XDATA    INT       uart_n
      00011F6CH   SYMBOL    XDATA    BYTE      dat
      00FFA3F3H   LINE      CODE     ---       #159
      00FFA3FDH   LINE      CODE     ---       #161
      00FFA412H   LINE      CODE     ---       #162
      ---         BLOCKEND  ---      ---       LVL=0

      00FF8BE3H   BLOCK     CODE     ---       LVL=0
      00011F92H   SYMBOL    XDATA    INT       uart_n
      00FF8BE3H   LINE      CODE     ---       #170
      00FF8BE9H   LINE      CODE     ---       #172
      00FF8C09H   LINE      CODE     ---       #173
      00FF8C27H   LINE      CODE     ---       #174
      00FF8C53H   LINE      CODE     ---       #175
      00FF8C83H   LINE      CODE     ---       #176
      00FF8CA4H   LINE      CODE     ---       #177
      ---         BLOCKEND  ---      ---       LVL=0

      00FF99A2H   BLOCK     CODE     ---       LVL=0
      00011F6DH   SYMBOL    XDATA    INT       uart_n
      00011F6FH   SYMBOL    XDATA    BYTE      status
      00FF99A2H   LINE      CODE     ---       #186
      00FF99ACH   LINE      CODE     ---       #188
      00FF99B5H   LINE      CODE     ---       #190
      00FF99DDH   LINE      CODE     ---       #191
      00FF99DFH   LINE      CODE     ---       #194
      00FF9A07H   LINE      CODE     ---       #195
      00FF9A07H   LINE      CODE     ---       #196
      ---         BLOCKEND  ---      ---       LVL=0
      00011F70H   SYMBOL    XDATA    INT       uart_n
      00011F72H   SYMBOL    XDATA    BYTE      dat

      00FF9153H   BLOCK     CODE     ---       LVL=0
      00011D60H   SYMBOL    XDATA    INT       uart_n
      00011D62H   SYMBOL    XDATA    ---       dat
      00FF9163H   BLOCK     CODE     NEAR LAB  LVL=1
      00011D66H   SYMBOL    XDATA    BYTE      ret
      ---         BLOCKEND  ---      ---       LVL=1
      00FF9153H   LINE      CODE     ---       #230
      00FF9163H   LINE      CODE     ---       #231
      00FF9163H   LINE      CODE     ---       #232
      00FF9168H   LINE      CODE     ---       #235
      00FF9188H   LINE      CODE     ---       #237
      00FF91AFH   LINE      CODE     ---       #239
      00FF91B5H   LINE      CODE     ---       #241
      00FF91DDH   LINE      CODE     ---       #242
      00FF91DFH   LINE      CODE     ---       #245
      00FF91E4H   LINE      CODE     ---       #246
      00FF91E4H   LINE      CODE     ---       #249
      00FF91EDH   LINE      CODE     ---       #251
      00FF91F1H   LINE      CODE     ---       #252
      ---         BLOCKEND  ---      ---       LVL=0

      00FF77AFH   BLOCK     CODE     ---       LVL=0
L251 LINKER/LOCATER V4.66.93.0                                                        04/22/2026  19:49:03  PAGE 88


      00011F94H   SYMBOL    XDATA    INT       uart_n
      00FF77AFH   LINE      CODE     ---       #260
      00FF77B5H   LINE      CODE     ---       #262
      00FF77D5H   LINE      CODE     ---       #263
      00FF77F5H   LINE      CODE     ---       #264
      00FF7815H   LINE      CODE     ---       #266
      00FF7835H   LINE      CODE     ---       #267
      00FF7855H   LINE      CODE     ---       #268
      00FF7875H   LINE      CODE     ---       #270
      00FF7895H   LINE      CODE     ---       #271
      00FF78B3H   LINE      CODE     ---       #272
      00FF78DFH   LINE      CODE     ---       #273
      00FF790FH   LINE      CODE     ---       #274
      00FF7930H   LINE      CODE     ---       #275
      00FF7951H   LINE      CODE     ---       #277
      ---         BLOCKEND  ---      ---       LVL=0

      00FF5945H   BLOCK     CODE     ---       LVL=0
      0001197CH   SYMBOL    XDATA    INT       uart_n
      0001197EH   SYMBOL    XDATA    DWORD     baud
      00011982H   SYMBOL    XDATA    INT       tx_pin
      00011984H   SYMBOL    XDATA    INT       rx_pin
      00FF595BH   BLOCK     CODE     NEAR LAB  LVL=1
      00011986H   SYMBOL    XDATA    WORD      brt
      ---         BLOCKEND  ---      ---       LVL=1
      00FF5945H   LINE      CODE     ---       #289
      00FF595BH   LINE      CODE     ---       #290
      00FF595BH   LINE      CODE     ---       #299
      00FF5977H   LINE      CODE     ---       #306
      00FF5991H   LINE      CODE     ---       #311
      00FF59C7H   LINE      CODE     ---       #314
      00FF59E0H   LINE      CODE     ---       #315
      00FF59F7H   LINE      CODE     ---       #317
      00FF5A32H   LINE      CODE     ---       #319
      00FF5A56H   LINE      CODE     ---       #321
      00FF5A56H   LINE      CODE     ---       #335
      00FF5A59H   LINE      CODE     ---       #336
      00FF5A61H   LINE      CODE     ---       #337
      00FF5A6DH   LINE      CODE     ---       #338
      00FF5A70H   LINE      CODE     ---       #339
      00FF5A73H   LINE      CODE     ---       #342
      00FF5A76H   LINE      CODE     ---       #344
      00FF5A92H   LINE      CODE     ---       #346
      00FF5A96H   LINE      CODE     ---       #347
      00FF5A99H   LINE      CODE     ---       #348
      00FF5AB5H   LINE      CODE     ---       #350
      00FF5AB8H   LINE      CODE     ---       #351
      00FF5ABBH   LINE      CODE     ---       #352
      00FF5AD7H   LINE      CODE     ---       #354
      00FF5ADAH   LINE      CODE     ---       #355
      00FF5ADDH   LINE      CODE     ---       #356
      00FF5AFFH   LINE      CODE     ---       #358
      00FF5B02H   LINE      CODE     ---       #359
      00FF5B02H   LINE      CODE     ---       #362
      00FF5B05H   LINE      CODE     ---       #365
      00FF5B05H   LINE      CODE     ---       #369
      00FF5B08H   LINE      CODE     ---       #370
      00FF5B10H   LINE      CODE     ---       #371
      00FF5B1CH   LINE      CODE     ---       #372
      00FF5B1FH   LINE      CODE     ---       #375
      00FF5B22H   LINE      CODE     ---       #377
      00FF5B3EH   LINE      CODE     ---       #379
      00FF5B42H   LINE      CODE     ---       #380
      00FF5B45H   LINE      CODE     ---       #381
      00FF5B67H   LINE      CODE     ---       #383
L251 LINKER/LOCATER V4.66.93.0                                                        04/22/2026  19:49:03  PAGE 89


      00FF5B6AH   LINE      CODE     ---       #384
      00FF5B6AH   LINE      CODE     ---       #388
      00FF5B6DH   LINE      CODE     ---       #391
      00FF5B6DH   LINE      CODE     ---       #395
      00FF5B70H   LINE      CODE     ---       #396
      00FF5B78H   LINE      CODE     ---       #397
      00FF5B84H   LINE      CODE     ---       #398
      00FF5B87H   LINE      CODE     ---       #408
      00FF5B8AH   LINE      CODE     ---       #410
      00FF5BA6H   LINE      CODE     ---       #412
      00FF5BAAH   LINE      CODE     ---       #413
      00FF5BADH   LINE      CODE     ---       #414
      00FF5BC9H   LINE      CODE     ---       #416
      00FF5BCCH   LINE      CODE     ---       #417
      00FF5BCCH   LINE      CODE     ---       #421
      00FF5BCEH   LINE      CODE     ---       #424
      00FF5BCEH   LINE      CODE     ---       #428
      00FF5BD1H   LINE      CODE     ---       #429
      00FF5BD9H   LINE      CODE     ---       #430
      00FF5BE5H   LINE      CODE     ---       #431
      00FF5BE8H   LINE      CODE     ---       #441
      00FF5BEBH   LINE      CODE     ---       #443
      00FF5C07H   LINE      CODE     ---       #445
      00FF5C0BH   LINE      CODE     ---       #446
      00FF5C0DH   LINE      CODE     ---       #447
      00FF5C29H   LINE      CODE     ---       #451
      00FF5C2CH   LINE      CODE     ---       #452
      00FF5C2CH   LINE      CODE     ---       #456
      00FF5C2CH   LINE      CODE     ---       #459
      00FF5C2CH   LINE      CODE     ---       #462
      00FF5C35H   LINE      CODE     ---       #464
      ---         BLOCKEND  ---      ---       LVL=0

      ---         MODULE    ---      ---       eeprom
      00011F96H   PUBLIC    XDATA    ---       init_buff
      00011B22H   PUBLIC    XDATA    BYTE      ?eeprom_read?BYTE
      000000D0H   SFRSYM    DATA     BYTE      PSW
      0000009DH   SFRSYM    DATA     BYTE      IRCBAND
      00000097H   SFRSYM    DATA     BYTE      AUXR2
      000000EFH   SFRSYM    DATA     BYTE      AUXINTIF
      000000FDH   SFRSYM    DATA     BYTE      S4CON
      000000ACH   SFRSYM    DATA     BYTE      S3CON
      0000009AH   SFRSYM    DATA     BYTE      S2CON
      000000B7H   SFRSYM    DATA     BYTE      IPH
      000000CDH   SFRSYM    DATA     BYTE      SPSTAT
      000000DDH   SFRSYM    DATA     BYTE      T4T3M
      000000C1H   SFRSYM    DATA     BYTE      WDT_CONTR
      000000DFH   SFRSYM    DATA     BYTE      IP3
      000000F4H   SFRSYM    DATA     BYTE      USBCON
      000000B5H   SFRSYM    DATA     BYTE      IP2
      000000FFH   SFRSYM    DATA     BYTE      RSTCFG
      000000C7H   SFRSYM    DATA     BYTE      IAP_CONTR
      000000F9H   SFRSYM    DATA     BYTE      LINICR
      0000008EH   SFRSYM    DATA     BYTE      AUXR
      000000AFH   SFRSYM    DATA     BYTE      IE2
      00000088H   SFRSYM    DATA     BYTE      TCON
      00000089H   SFRSYM    DATA     BYTE      TMOD
      00000098H   SFRSYM    DATA     BYTE      SCON
      000000F1H   SFRSYM    DATA     BYTE      CANICR
      00000087H   SFRSYM    DATA     BYTE      PCON
      000000BCH   SFRSYM    DATA     BYTE      ADC_CONTR
      000000E7H   SFRSYM    DATA     BYTE      CMPCR2
      000000E6H   SFRSYM    DATA     BYTE      CMPCR1
      000000DEH   SFRSYM    DATA     BYTE      ADCCFG
      000000B8H   SFRSYM    DATA     BYTE      IP
L251 LINKER/LOCATER V4.66.93.0                                                        04/22/2026  19:49:03  PAGE 90


      0000008FH   SFRSYM    DATA     BYTE      INTCLKO
      000000EEH   SFRSYM    DATA     BYTE      IP3H
      000000B6H   SFRSYM    DATA     BYTE      IP2H
      000000A8H   SFRSYM    DATA     BYTE      IE
      000000BBH   SFRSYM    DATA     BYTE      P_SW3
      000000BAH   SFRSYM    DATA     BYTE      P_SW2
      000000A2H   SFRSYM    DATA     BYTE      P_SW1
      000000CEH   SFRSYM    DATA     BYTE      SPCTL
      000000F8H   SFRSYM    DATA     BYTE      P7
      000000E8H   SFRSYM    DATA     BYTE      P6
      000000C8H   SFRSYM    DATA     BYTE      P5
      000000C0H   SFRSYM    DATA     BYTE      P4
      000000B0H   SFRSYM    DATA     BYTE      P3
      000000A0H   SFRSYM    DATA     BYTE      P2
      00000090H   SFRSYM    DATA     BYTE      P1
      00000080H   SFRSYM    DATA     BYTE      P0
      00011B22H   SYMBOL    XDATA    DWORD     addr
      00011B26H   SYMBOL    XDATA    ---       buf
      00011B2AH   SYMBOL    XDATA    WORD      len
      00011CCAH   SYMBOL    XDATA    DWORD     addr
      00011CCEH   SYMBOL    XDATA    WORD      max
      00011CD0H   SYMBOL    XDATA    WORD      min
      00011988H   SYMBOL    XDATA    DWORD     addr
      0001198CH   SYMBOL    XDATA    ---       buff
      00011990H   SYMBOL    XDATA    ---       buf

      ---         MODULE    ---      ---       voltage_warning
      000000D0H   SFRSYM    DATA     BYTE      PSW
      0000009DH   SFRSYM    DATA     BYTE      IRCBAND
      00000097H   SFRSYM    DATA     BYTE      AUXR2
      000000EFH   SFRSYM    DATA     BYTE      AUXINTIF
      000000FDH   SFRSYM    DATA     BYTE      S4CON
      000000ACH   SFRSYM    DATA     BYTE      S3CON
      0000009AH   SFRSYM    DATA     BYTE      S2CON
      000000B7H   SFRSYM    DATA     BYTE      IPH
      000000CDH   SFRSYM    DATA     BYTE      SPSTAT
      000000DDH   SFRSYM    DATA     BYTE      T4T3M
      000000C1H   SFRSYM    DATA     BYTE      WDT_CONTR
      000000DFH   SFRSYM    DATA     BYTE      IP3
      000000F4H   SFRSYM    DATA     BYTE      USBCON
      000000B5H   SFRSYM    DATA     BYTE      IP2
      000000FFH   SFRSYM    DATA     BYTE      RSTCFG
      000000C7H   SFRSYM    DATA     BYTE      IAP_CONTR
      000000F9H   SFRSYM    DATA     BYTE      LINICR
      0000008EH   SFRSYM    DATA     BYTE      AUXR
      000000AFH   SFRSYM    DATA     BYTE      IE2
      00000088H   SFRSYM    DATA     BYTE      TCON
      00000089H   SFRSYM    DATA     BYTE      TMOD
      00000098H   SFRSYM    DATA     BYTE      SCON
      000000F1H   SFRSYM    DATA     BYTE      CANICR
      00000087H   SFRSYM    DATA     BYTE      PCON
      000000BCH   SFRSYM    DATA     BYTE      ADC_CONTR
      000000E7H   SFRSYM    DATA     BYTE      CMPCR2
      000000E6H   SFRSYM    DATA     BYTE      CMPCR1
      000000DEH   SFRSYM    DATA     BYTE      ADCCFG
      000000B8H   SFRSYM    DATA     BYTE      IP
      0000008FH   SFRSYM    DATA     BYTE      INTCLKO
      000000EEH   SFRSYM    DATA     BYTE      IP3H
      000000B6H   SFRSYM    DATA     BYTE      IP2H
      000000A8H   SFRSYM    DATA     BYTE      IE
      000000BBH   SFRSYM    DATA     BYTE      P_SW3
      000000BAH   SFRSYM    DATA     BYTE      P_SW2
      000000A2H   SFRSYM    DATA     BYTE      P_SW1
      000000CEH   SFRSYM    DATA     BYTE      SPCTL
      000000F8H   SFRSYM    DATA     BYTE      P7
L251 LINKER/LOCATER V4.66.93.0                                                        04/22/2026  19:49:03  PAGE 91


      000000E8H   SFRSYM    DATA     BYTE      P6
      000000C8H   SFRSYM    DATA     BYTE      P5
      000000C0H   SFRSYM    DATA     BYTE      P4
      000000B0H   SFRSYM    DATA     BYTE      P3
      000000A0H   SFRSYM    DATA     BYTE      P2
      00000090H   SFRSYM    DATA     BYTE      P1
      00000080H   SFRSYM    DATA     BYTE      P0
      00011F0EH   SYMBOL    XDATA    INT       channel
      00011F10H   SYMBOL    XDATA    WORD      value

      ---         MODULE    ---      ---       zf_device_ble6a20
      000000D0H   SFRSYM    DATA     BYTE      PSW
      0000009DH   SFRSYM    DATA     BYTE      IRCBAND
      00000097H   SFRSYM    DATA     BYTE      AUXR2
      000000EFH   SFRSYM    DATA     BYTE      AUXINTIF
      000000FDH   SFRSYM    DATA     BYTE      S4CON
      000000ACH   SFRSYM    DATA     BYTE      S3CON
      0000009AH   SFRSYM    DATA     BYTE      S2CON
      000000B7H   SFRSYM    DATA     BYTE      IPH
      000000CDH   SFRSYM    DATA     BYTE      SPSTAT
      000000DDH   SFRSYM    DATA     BYTE      T4T3M
      000000C1H   SFRSYM    DATA     BYTE      WDT_CONTR
      000000DFH   SFRSYM    DATA     BYTE      IP3
      000000F4H   SFRSYM    DATA     BYTE      USBCON
      000000B5H   SFRSYM    DATA     BYTE      IP2
      000000FFH   SFRSYM    DATA     BYTE      RSTCFG
      000000C7H   SFRSYM    DATA     BYTE      IAP_CONTR
      000000F9H   SFRSYM    DATA     BYTE      LINICR
      0000008EH   SFRSYM    DATA     BYTE      AUXR
      000000AFH   SFRSYM    DATA     BYTE      IE2
      00000088H   SFRSYM    DATA     BYTE      TCON
      00000089H   SFRSYM    DATA     BYTE      TMOD
      00000098H   SFRSYM    DATA     BYTE      SCON
      000000F1H   SFRSYM    DATA     BYTE      CANICR
      00000087H   SFRSYM    DATA     BYTE      PCON
      000000BCH   SFRSYM    DATA     BYTE      ADC_CONTR
      000000E7H   SFRSYM    DATA     BYTE      CMPCR2
      000000E6H   SFRSYM    DATA     BYTE      CMPCR1
      000000DEH   SFRSYM    DATA     BYTE      ADCCFG
      000000B8H   SFRSYM    DATA     BYTE      IP
      0000008FH   SFRSYM    DATA     BYTE      INTCLKO
      000000EEH   SFRSYM    DATA     BYTE      IP3H
      000000B6H   SFRSYM    DATA     BYTE      IP2H
      000000A8H   SFRSYM    DATA     BYTE      IE
      000000BBH   SFRSYM    DATA     BYTE      P_SW3
      000000BAH   SFRSYM    DATA     BYTE      P_SW2
      000000A2H   SFRSYM    DATA     BYTE      P_SW1
      000000CEH   SFRSYM    DATA     BYTE      SPCTL
      000000F8H   SFRSYM    DATA     BYTE      P7
      000000E8H   SFRSYM    DATA     BYTE      P6
      000000C8H   SFRSYM    DATA     BYTE      P5
      000000C0H   SFRSYM    DATA     BYTE      P4
      000000B0H   SFRSYM    DATA     BYTE      P3
      000000A0H   SFRSYM    DATA     BYTE      P2
      00000090H   SFRSYM    DATA     BYTE      P1
      00000080H   SFRSYM    DATA     BYTE      P0
      00010D14H   SYMBOL    XDATA    ---       ble6a20_buffer
      00010D54H   SYMBOL    XDATA    ---       ble6a20_fifo
      00011F73H   SYMBOL    XDATA    BYTE      dat
      00011F74H   SYMBOL    XDATA    WORD      time_cnt
      00011994H   SYMBOL    XDATA    ---       buff
      00011998H   SYMBOL    XDATA    DWORD     len
      0001199CH   SYMBOL    XDATA    WORD      time_cnt
      0001199EH   SYMBOL    XDATA    WORD      send_len
      00011CD2H   SYMBOL    XDATA    ---       str
L251 LINKER/LOCATER V4.66.93.0                                                        04/22/2026  19:49:03  PAGE 92


      00011CD6H   SYMBOL    XDATA    DWORD     len
      000119A0H   SYMBOL    XDATA    ---       buff
      000119A4H   SYMBOL    XDATA    DWORD     len
      000119A8H   SYMBOL    XDATA    DWORD     data_len
      00011FCEH   SYMBOL    XDATA    BYTE      uart_dat
      00011FCFH   SYMBOL    XDATA    BYTE      return_state

      ---         MODULE    ---      ---       zf_device_config
      00FF01CEH   PUBLIC    CODE     ---       imu660ra_config_file

      ---         MODULE    ---      ---       zf_device_dl1a
      0001189AH   PUBLIC    XDATA    WORD      dl1a_distance_mm
      0001189CH   PUBLIC    XDATA    BYTE      dl1a_finsh_flag
      000000D0H   SFRSYM    DATA     BYTE      PSW
      0000009DH   SFRSYM    DATA     BYTE      IRCBAND
      00000097H   SFRSYM    DATA     BYTE      AUXR2
      000000EFH   SFRSYM    DATA     BYTE      AUXINTIF
      000000FDH   SFRSYM    DATA     BYTE      S4CON
      000000ACH   SFRSYM    DATA     BYTE      S3CON
      0000009AH   SFRSYM    DATA     BYTE      S2CON
      000000B7H   SFRSYM    DATA     BYTE      IPH
      000000CDH   SFRSYM    DATA     BYTE      SPSTAT
      000000DDH   SFRSYM    DATA     BYTE      T4T3M
      000000C1H   SFRSYM    DATA     BYTE      WDT_CONTR
      000000DFH   SFRSYM    DATA     BYTE      IP3
      000000F4H   SFRSYM    DATA     BYTE      USBCON
      000000B5H   SFRSYM    DATA     BYTE      IP2
      000000FFH   SFRSYM    DATA     BYTE      RSTCFG
      000000C7H   SFRSYM    DATA     BYTE      IAP_CONTR
      000000F9H   SFRSYM    DATA     BYTE      LINICR
      0000008EH   SFRSYM    DATA     BYTE      AUXR
      000000AFH   SFRSYM    DATA     BYTE      IE2
      00000088H   SFRSYM    DATA     BYTE      TCON
      00000089H   SFRSYM    DATA     BYTE      TMOD
      00000098H   SFRSYM    DATA     BYTE      SCON
      000000F1H   SFRSYM    DATA     BYTE      CANICR
      00000087H   SFRSYM    DATA     BYTE      PCON
      000000BCH   SFRSYM    DATA     BYTE      ADC_CONTR
      000000E7H   SFRSYM    DATA     BYTE      CMPCR2
      000000E6H   SFRSYM    DATA     BYTE      CMPCR1
      000000DEH   SFRSYM    DATA     BYTE      ADCCFG
      000000B8H   SFRSYM    DATA     BYTE      IP
      0000008FH   SFRSYM    DATA     BYTE      INTCLKO
      000000EEH   SFRSYM    DATA     BYTE      IP3H
      000000B6H   SFRSYM    DATA     BYTE      IP2H
      000000A8H   SFRSYM    DATA     BYTE      IE
      000000BBH   SFRSYM    DATA     BYTE      P_SW3
      000000BAH   SFRSYM    DATA     BYTE      P_SW2
      000000A2H   SFRSYM    DATA     BYTE      P_SW1
      000000CEH   SFRSYM    DATA     BYTE      SPCTL
      000000F8H   SFRSYM    DATA     BYTE      P7
      000000E8H   SFRSYM    DATA     BYTE      P6
      000000C8H   SFRSYM    DATA     BYTE      P5
      000000C0H   SFRSYM    DATA     BYTE      P4
      000000B0H   SFRSYM    DATA     BYTE      P3
      000000A0H   SFRSYM    DATA     BYTE      P2
      00000090H   SFRSYM    DATA     BYTE      P1
      00000080H   SFRSYM    DATA     BYTE      P0
      00FFAC23H   SYMBOL    HCONST   ---       ?tpl?0001
      00FFAC2BH   SYMBOL    HCONST   ---       ?tpl?0002
      00FFAC31H   SYMBOL    HCONST   ---       ?tpl?0003
      00FFAC3BH   SYMBOL    HCONST   ---       ?tpl?0004
      00011891H   SYMBOL    XDATA    ---       dl1a_iic_struct
      0001189DH   SYMBOL    XDATA    BYTE      dl1a_init_flag
      000119ACH   SYMBOL    XDATA    ---       index
L251 LINKER/LOCATER V4.66.93.0                                                        04/22/2026  19:49:03  PAGE 93


      000119B0H   SYMBOL    XDATA    ---       type_is_aperture
      000119B4H   SYMBOL    XDATA    BYTE      tmp
      000119B5H   SYMBOL    XDATA    BYTE      return_state
      000119B6H   SYMBOL    XDATA    WORD      loop_count
      00011D67H   SYMBOL    XDATA    WORD      timeout_period_mclks
      00011D69H   SYMBOL    XDATA    BYTE      vcsel_period_pclks
      00011D6AH   SYMBOL    XDATA    DWORD     macro_period_ns
      00011B67H   SYMBOL    XDATA    DWORD     timeout_period_us
      00011B6BH   SYMBOL    XDATA    BYTE      vcsel_period_pclks
      00011B6CH   SYMBOL    XDATA    DWORD     macro_period_ns
      00011F98H   SYMBOL    XDATA    WORD      reg_val
      00011F9AH   SYMBOL    XDATA    WORD      timeout_mclks
      00000008H   SYMBOL    EDATA    DWORD     ls_byte
      0000000CH   SYMBOL    EDATA    WORD      ms_byte
      0000000EH   SYMBOL    EDATA    WORD      return_data
      00011E9BH   SYMBOL    XDATA    ---       enables
      00011E9FH   SYMBOL    XDATA    BYTE      sequence_config
      00011F76H   SYMBOL    XDATA    INT       type
      00011F78H   SYMBOL    XDATA    BYTE      data_buffer
      000119B8H   SYMBOL    XDATA    ---       enables
      000119BCH   SYMBOL    XDATA    ---       timeouts
      000119C0H   SYMBOL    XDATA    ---       reg_buffer
      000119C2H   SYMBOL    XDATA    WORD      reg16_buffer
      00011EA0H   SYMBOL    XDATA    BYTE      vhv_init_byte
      00011EA1H   SYMBOL    XDATA    BYTE      return_state
      00011EA2H   SYMBOL    XDATA    BYTE      data_buffer
      00011EA3H   SYMBOL    XDATA    WORD      loop_count
      00011069H   SYMBOL    XDATA    DWORD     budget_us
      0001106DH   SYMBOL    XDATA    BYTE      return_state
      0001106EH   SYMBOL    XDATA    ---       data_buffer
      00011071H   SYMBOL    XDATA    WORD      dat
      00011073H   SYMBOL    XDATA    DWORD     final_range_timeout_us
      00011077H   SYMBOL    XDATA    WORD      final_range_timeout_mclks
      00011079H   SYMBOL    XDATA    ---       enables
      0001107EH   SYMBOL    XDATA    ---       timeouts
      00011094H   SYMBOL    XDATA    DWORD     used_budget_us
      000112B2H   SYMBOL    XDATA    ---       enables
      000112B7H   SYMBOL    XDATA    ---       timeouts
      000112CDH   SYMBOL    XDATA    DWORD     budget_us
      00011B70H   SYMBOL    XDATA    FLOAT     limit_mcps
      00011B74H   SYMBOL    XDATA    ---       data_buffer
      00011B77H   SYMBOL    XDATA    WORD      limit_mcps_16bit
      00011F79H   SYMBOL    XDATA    ---       reg_databuffer
      00010946H   SYMBOL    XDATA    DWORD     measurement_timing_budget_us
      0001094AH   SYMBOL    XDATA    BYTE      stop_variable
      0001094BH   SYMBOL    XDATA    BYTE      return_state
      0001094CH   SYMBOL    XDATA    BYTE      reg_data_buffer
      0001094DH   SYMBOL    XDATA    ---       ref_spad_map
      00010953H   SYMBOL    XDATA    ---       data_buffer
      0001095AH   SYMBOL    XDATA    WORD      i
      0001095CH   SYMBOL    XDATA    ---       temp_buff1
      00010964H   SYMBOL    XDATA    ---       temp_buff2
      0001096AH   SYMBOL    XDATA    ---       temp_buff3
      00010974H   SYMBOL    XDATA    ---       temp_buff4

      ---         MODULE    ---      ---       zf_device_dl1b
      000118A7H   PUBLIC    XDATA    WORD      dl1b_distance_mm
      000118A9H   PUBLIC    XDATA    BYTE      dl1b_finsh_flag
      000000D0H   SFRSYM    DATA     BYTE      PSW
      0000009DH   SFRSYM    DATA     BYTE      IRCBAND
      00000097H   SFRSYM    DATA     BYTE      AUXR2
      000000EFH   SFRSYM    DATA     BYTE      AUXINTIF
      000000FDH   SFRSYM    DATA     BYTE      S4CON
      000000ACH   SFRSYM    DATA     BYTE      S3CON
      0000009AH   SFRSYM    DATA     BYTE      S2CON
L251 LINKER/LOCATER V4.66.93.0                                                        04/22/2026  19:49:03  PAGE 94


      000000B7H   SFRSYM    DATA     BYTE      IPH
      000000CDH   SFRSYM    DATA     BYTE      SPSTAT
      000000DDH   SFRSYM    DATA     BYTE      T4T3M
      000000C1H   SFRSYM    DATA     BYTE      WDT_CONTR
      000000DFH   SFRSYM    DATA     BYTE      IP3
      000000F4H   SFRSYM    DATA     BYTE      USBCON
      000000B5H   SFRSYM    DATA     BYTE      IP2
      000000FFH   SFRSYM    DATA     BYTE      RSTCFG
      000000C7H   SFRSYM    DATA     BYTE      IAP_CONTR
      000000F9H   SFRSYM    DATA     BYTE      LINICR
      0000008EH   SFRSYM    DATA     BYTE      AUXR
      000000AFH   SFRSYM    DATA     BYTE      IE2
      00000088H   SFRSYM    DATA     BYTE      TCON
      00000089H   SFRSYM    DATA     BYTE      TMOD
      00000098H   SFRSYM    DATA     BYTE      SCON
      000000F1H   SFRSYM    DATA     BYTE      CANICR
      00000087H   SFRSYM    DATA     BYTE      PCON
      000000BCH   SFRSYM    DATA     BYTE      ADC_CONTR
      000000E7H   SFRSYM    DATA     BYTE      CMPCR2
      000000E6H   SFRSYM    DATA     BYTE      CMPCR1
      000000DEH   SFRSYM    DATA     BYTE      ADCCFG
      000000B8H   SFRSYM    DATA     BYTE      IP
      0000008FH   SFRSYM    DATA     BYTE      INTCLKO
      000000EEH   SFRSYM    DATA     BYTE      IP3H
      000000B6H   SFRSYM    DATA     BYTE      IP2H
      000000A8H   SFRSYM    DATA     BYTE      IE
      000000BBH   SFRSYM    DATA     BYTE      P_SW3
      000000BAH   SFRSYM    DATA     BYTE      P_SW2
      000000A2H   SFRSYM    DATA     BYTE      P_SW1
      000000CEH   SFRSYM    DATA     BYTE      SPCTL
      000000F8H   SFRSYM    DATA     BYTE      P7
      000000E8H   SFRSYM    DATA     BYTE      P6
      000000C8H   SFRSYM    DATA     BYTE      P5
      000000C0H   SFRSYM    DATA     BYTE      P4
      000000B0H   SFRSYM    DATA     BYTE      P3
      000000A0H   SFRSYM    DATA     BYTE      P2
      00000090H   SFRSYM    DATA     BYTE      P1
      00000080H   SFRSYM    DATA     BYTE      P0
      0001189EH   SYMBOL    XDATA    ---       dl1b_iic_struct
      000118AAH   SYMBOL    XDATA    BYTE      dl1b_init_flag
      00011EA5H   SYMBOL    XDATA    ---       data_buffer
      00011EA8H   SYMBOL    XDATA    INT       dl1b_distance_temp
      00011FD0H   SYMBOL    XDATA    BYTE      return_state

      ---         MODULE    ---      ---       zf_device_gps_tau1201
      00010423H   PUBLIC    XDATA    BYTE      gps_tau1201_flag
      000104A4H   PUBLIC    XDATA    ---       gps_tau1201
      000105D0H   PUBLIC    XDATA    INT       gps_gga_state
      000105D2H   PUBLIC    XDATA    INT       gps_rmc_state
      00010FA9H   PUBLIC    XDATA    BYTE      ?get_two_points_distance?BYTE
      00011368H   PUBLIC    XDATA    BYTE      ?get_two_points_azimuth?BYTE
      000000D0H   SFRSYM    DATA     BYTE      PSW
      0000009DH   SFRSYM    DATA     BYTE      IRCBAND
      00000097H   SFRSYM    DATA     BYTE      AUXR2
      000000EFH   SFRSYM    DATA     BYTE      AUXINTIF
      000000FDH   SFRSYM    DATA     BYTE      S4CON
      000000ACH   SFRSYM    DATA     BYTE      S3CON
      0000009AH   SFRSYM    DATA     BYTE      S2CON
      000000B7H   SFRSYM    DATA     BYTE      IPH
      000000CDH   SFRSYM    DATA     BYTE      SPSTAT
      000000DDH   SFRSYM    DATA     BYTE      T4T3M
      000000C1H   SFRSYM    DATA     BYTE      WDT_CONTR
      000000DFH   SFRSYM    DATA     BYTE      IP3
      000000F4H   SFRSYM    DATA     BYTE      USBCON
      000000B5H   SFRSYM    DATA     BYTE      IP2
L251 LINKER/LOCATER V4.66.93.0                                                        04/22/2026  19:49:03  PAGE 95


      000000FFH   SFRSYM    DATA     BYTE      RSTCFG
      000000C7H   SFRSYM    DATA     BYTE      IAP_CONTR
      000000F9H   SFRSYM    DATA     BYTE      LINICR
      0000008EH   SFRSYM    DATA     BYTE      AUXR
      000000AFH   SFRSYM    DATA     BYTE      IE2
      00000088H   SFRSYM    DATA     BYTE      TCON
      00000089H   SFRSYM    DATA     BYTE      TMOD
      00000098H   SFRSYM    DATA     BYTE      SCON
      000000F1H   SFRSYM    DATA     BYTE      CANICR
      00000087H   SFRSYM    DATA     BYTE      PCON
      000000BCH   SFRSYM    DATA     BYTE      ADC_CONTR
      000000E7H   SFRSYM    DATA     BYTE      CMPCR2
      000000E6H   SFRSYM    DATA     BYTE      CMPCR1
      000000DEH   SFRSYM    DATA     BYTE      ADCCFG
      000000B8H   SFRSYM    DATA     BYTE      IP
      0000008FH   SFRSYM    DATA     BYTE      INTCLKO
      000000EEH   SFRSYM    DATA     BYTE      IP3H
      000000B6H   SFRSYM    DATA     BYTE      IP2H
      000000A8H   SFRSYM    DATA     BYTE      IE
      000000BBH   SFRSYM    DATA     BYTE      P_SW3
      000000BAH   SFRSYM    DATA     BYTE      P_SW2
      000000A2H   SFRSYM    DATA     BYTE      P_SW1
      000000CEH   SFRSYM    DATA     BYTE      SPCTL
      000000F8H   SFRSYM    DATA     BYTE      P7
      000000E8H   SFRSYM    DATA     BYTE      P6
      000000C8H   SFRSYM    DATA     BYTE      P5
      000000C0H   SFRSYM    DATA     BYTE      P4
      000000B0H   SFRSYM    DATA     BYTE      P3
      000000A0H   SFRSYM    DATA     BYTE      P2
      00000090H   SFRSYM    DATA     BYTE      P1
      00000080H   SFRSYM    DATA     BYTE      P0
      00FFAEFEH   SYMBOL    HCONST   ---       ?tpl?0001
      00FFAF03H   SYMBOL    HCONST   ---       ?tpl?0002
      00FFAF1FH   SYMBOL    HCONST   ---       ?tpl?0003
      00FFAF2AH   SYMBOL    HCONST   ---       ?tpl?0004
      00FFAF35H   SYMBOL    HCONST   ---       ?tpl?0005
      00FFAF40H   SYMBOL    HCONST   ---       ?tpl?0006
      00FFAF4BH   SYMBOL    HCONST   ---       ?tpl?0007
      00FFAF56H   SYMBOL    HCONST   ---       ?tpl?0008
      00FFAF61H   SYMBOL    HCONST   ---       ?tpl?0009
      00FFAF6CH   SYMBOL    HCONST   ---       ?tpl?000A
      00FFAF77H   SYMBOL    HCONST   ---       ?tpl?000B
      00FFAF82H   SYMBOL    HCONST   ---       ?tpl?000C
      00FFAF8DH   SYMBOL    HCONST   ---       ?tpl?000D
      0001040CH   SYMBOL    XDATA    ---       gps_tau1201_receiver_fifo
      00010424H   SYMBOL    XDATA    ---       gps_gga_buffer
      000104CFH   SYMBOL    XDATA    BYTE      gps_tau1201_state
      000104D0H   SYMBOL    XDATA    ---       gps_rmc_buffer
      00010550H   SYMBOL    XDATA    ---       gps_tau1201_receiver_buffer
      000118ABH   SYMBOL    XDATA    BYTE      num
      000118ACH   SYMBOL    XDATA    ---       str
      000118B0H   SYMBOL    XDATA    BYTE      i
      000118B1H   SYMBOL    XDATA    BYTE      j
      000118B2H   SYMBOL    XDATA    ---       temp
      000118B6H   SYMBOL    XDATA    BYTE      len
      000118B7H   SYMBOL    XDATA    BYTE      len1
      0001163EH   SYMBOL    XDATA    ---       s
      00011642H   SYMBOL    XDATA    ---       buf
      0001164CH   SYMBOL    XDATA    BYTE      i
      0001164DH   SYMBOL    XDATA    INT       return_value
      0001144FH   SYMBOL    XDATA    ---       s
      00011453H   SYMBOL    XDATA    BYTE      i
      00011454H   SYMBOL    XDATA    ---       buf
      00011463H   SYMBOL    XDATA    FLOAT     return_value
      00011467H   SYMBOL    XDATA    ---       s
L251 LINKER/LOCATER V4.66.93.0                                                        04/22/2026  19:49:03  PAGE 96


      0001146BH   SYMBOL    XDATA    BYTE      i
      0001146CH   SYMBOL    XDATA    ---       buf
      0001147BH   SYMBOL    XDATA    FLOAT     return_value
      00011EAAH   SYMBOL    XDATA    ---       time
      00011EAEH   SYMBOL    XDATA    BYTE      day_num
      0001111CH   SYMBOL    XDATA    ---       line
      00011120H   SYMBOL    XDATA    ---       gps
      00011124H   SYMBOL    XDATA    BYTE      state
      00011125H   SYMBOL    XDATA    BYTE      temp
      00011126H   SYMBOL    XDATA    FLOAT     latitude
      0001112AH   SYMBOL    XDATA    FLOAT     longitude
      0001112EH   SYMBOL    XDATA    FLOAT     lati_cent_tmp
      00011132H   SYMBOL    XDATA    FLOAT     lati_second_tmp
      00011136H   SYMBOL    XDATA    FLOAT     long_cent_tmp
      0001113AH   SYMBOL    XDATA    FLOAT     long_second_tmp
      0001113EH   SYMBOL    XDATA    FLOAT     speed_tmp
      00011142H   SYMBOL    XDATA    ---       buf
      00011146H   SYMBOL    XDATA    BYTE      return_state
      000117FDH   SYMBOL    XDATA    ---       line
      00011801H   SYMBOL    XDATA    ---       gps
      00011805H   SYMBOL    XDATA    BYTE      state
      00011806H   SYMBOL    XDATA    ---       buf
      0001180AH   SYMBOL    XDATA    BYTE      return_state
      00010FA9H   SYMBOL    XDATA    FLOAT     latitude1
      00010FADH   SYMBOL    XDATA    FLOAT     longitude1
      00010FB1H   SYMBOL    XDATA    FLOAT     latitude2
      00010FB5H   SYMBOL    XDATA    FLOAT     longitude2
      00010FB9H   SYMBOL    XDATA    FLOAT     EARTH_RADIUS
      00010FBDH   SYMBOL    XDATA    FLOAT     rad_latitude1
      00010FC1H   SYMBOL    XDATA    FLOAT     rad_latitude2
      00010FC5H   SYMBOL    XDATA    FLOAT     rad_longitude1
      00010FC9H   SYMBOL    XDATA    FLOAT     rad_longitude2
      00010FCDH   SYMBOL    XDATA    FLOAT     distance
      00010FD1H   SYMBOL    XDATA    FLOAT     a
      00010FD5H   SYMBOL    XDATA    FLOAT     b
      00011368H   SYMBOL    XDATA    FLOAT     latitude1
      0001136CH   SYMBOL    XDATA    FLOAT     longitude1
      00011370H   SYMBOL    XDATA    FLOAT     latitude2
      00011374H   SYMBOL    XDATA    FLOAT     longitude2
      00011378H   SYMBOL    XDATA    FLOAT     x
      0001137CH   SYMBOL    XDATA    FLOAT     y
      00011380H   SYMBOL    XDATA    FLOAT     angle
      000119C4H   SYMBOL    XDATA    BYTE      return_state
      000119C5H   SYMBOL    XDATA    ---       check_buffer
      000119CAH   SYMBOL    XDATA    BYTE      bbc_xor_origin
      000119CBH   SYMBOL    XDATA    BYTE      bbc_xor_calculation
      000119CCH   SYMBOL    XDATA    DWORD     data_len
      00011ABBH   SYMBOL    XDATA    BYTE      uart_dat
      00011ABCH   SYMBOL    XDATA    ---       temp_gps
      00011AC2H   SYMBOL    XDATA    DWORD     temp_length
      00010AB4H   SYMBOL    XDATA    ---       set_rate
      00010AD0H   SYMBOL    XDATA    ---       open_gga
      00010ADBH   SYMBOL    XDATA    ---       open_rmc
      00010AE6H   SYMBOL    XDATA    ---       close_gll
      00010AF1H   SYMBOL    XDATA    ---       close_gsa
      00010AFCH   SYMBOL    XDATA    ---       close_grs
      00010B07H   SYMBOL    XDATA    ---       close_gsv
      00010B12H   SYMBOL    XDATA    ---       close_vtg
      00010B1DH   SYMBOL    XDATA    ---       close_zda
      00010B28H   SYMBOL    XDATA    ---       close_gst
      00010B33H   SYMBOL    XDATA    ---       close_txt
      00010B3EH   SYMBOL    XDATA    ---       close_txt_ant

      ---         MODULE    ---      ---       zf_device_icm20602
      00011539H   PUBLIC    XDATA    INT       icm20602_acc_x
L251 LINKER/LOCATER V4.66.93.0                                                        04/22/2026  19:49:03  PAGE 97


      0001153BH   PUBLIC    XDATA    INT       icm20602_acc_y
      0001153DH   PUBLIC    XDATA    INT       icm20602_acc_z
      0001153FH   PUBLIC    XDATA    INT       icm20602_gyro_x
      00011541H   PUBLIC    XDATA    INT       icm20602_gyro_y
      00011543H   PUBLIC    XDATA    INT       icm20602_gyro_z
      00011545H   PUBLIC    XDATA    ---       icm20602_transition_factor
      000000D0H   SFRSYM    DATA     BYTE      PSW
      0000009DH   SFRSYM    DATA     BYTE      IRCBAND
      00000097H   SFRSYM    DATA     BYTE      AUXR2
      000000EFH   SFRSYM    DATA     BYTE      AUXINTIF
      000000FDH   SFRSYM    DATA     BYTE      S4CON
      000000ACH   SFRSYM    DATA     BYTE      S3CON
      0000009AH   SFRSYM    DATA     BYTE      S2CON
      000000B7H   SFRSYM    DATA     BYTE      IPH
      000000CDH   SFRSYM    DATA     BYTE      SPSTAT
      000000DDH   SFRSYM    DATA     BYTE      T4T3M
      000000C1H   SFRSYM    DATA     BYTE      WDT_CONTR
      000000DFH   SFRSYM    DATA     BYTE      IP3
      000000F4H   SFRSYM    DATA     BYTE      USBCON
      000000B5H   SFRSYM    DATA     BYTE      IP2
      000000FFH   SFRSYM    DATA     BYTE      RSTCFG
      000000C7H   SFRSYM    DATA     BYTE      IAP_CONTR
      000000F9H   SFRSYM    DATA     BYTE      LINICR
      0000008EH   SFRSYM    DATA     BYTE      AUXR
      000000AFH   SFRSYM    DATA     BYTE      IE2
      000000C0H.3 SFRSYM    DATA     BIT       P43
      000000C0H.2 SFRSYM    DATA     BIT       P42
      00000088H   SFRSYM    DATA     BYTE      TCON
      00000089H   SFRSYM    DATA     BYTE      TMOD
      000000C0H.1 SFRSYM    DATA     BIT       P41
      00000098H   SFRSYM    DATA     BYTE      SCON
      000000C0H.0 SFRSYM    DATA     BIT       P40
      000000F1H   SFRSYM    DATA     BYTE      CANICR
      00000087H   SFRSYM    DATA     BYTE      PCON
      000000BCH   SFRSYM    DATA     BYTE      ADC_CONTR
      000000E7H   SFRSYM    DATA     BYTE      CMPCR2
      000000E6H   SFRSYM    DATA     BYTE      CMPCR1
      000000DEH   SFRSYM    DATA     BYTE      ADCCFG
      000000B8H   SFRSYM    DATA     BYTE      IP
      0000008FH   SFRSYM    DATA     BYTE      INTCLKO
      000000EEH   SFRSYM    DATA     BYTE      IP3H
      000000B6H   SFRSYM    DATA     BYTE      IP2H
      000000A8H   SFRSYM    DATA     BYTE      IE
      000000BBH   SFRSYM    DATA     BYTE      P_SW3
      000000BAH   SFRSYM    DATA     BYTE      P_SW2
      000000A2H   SFRSYM    DATA     BYTE      P_SW1
      000000CEH   SFRSYM    DATA     BYTE      SPCTL
      000000F8H   SFRSYM    DATA     BYTE      P7
      000000E8H   SFRSYM    DATA     BYTE      P6
      000000C8H   SFRSYM    DATA     BYTE      P5
      000000C0H   SFRSYM    DATA     BYTE      P4
      000000B0H   SFRSYM    DATA     BYTE      P3
      000000A0H   SFRSYM    DATA     BYTE      P2
      00000090H   SFRSYM    DATA     BYTE      P1
      00000080H   SFRSYM    DATA     BYTE      P0
      00011F9CH   SYMBOL    XDATA    BYTE      byte
      00011F9DH   SYMBOL    XDATA    BYTE      i
      00011F9EH   SYMBOL    XDATA    BYTE      cmd
      00011F9FH   SYMBOL    XDATA    BYTE      val
      00011EAFH   SYMBOL    XDATA    BYTE      cmd
      00011EB0H   SYMBOL    XDATA    ---       val
      00011B79H   SYMBOL    XDATA    BYTE      cmd
      00011B7AH   SYMBOL    XDATA    ---       val
      00011B7EH   SYMBOL    XDATA    DWORD     num
      00000010H   SYMBOL    EDATA    DWORD     i
L251 LINKER/LOCATER V4.66.93.0                                                        04/22/2026  19:49:03  PAGE 98


      00011FA0H   SYMBOL    XDATA    BYTE      reg
      00011FA1H   SYMBOL    XDATA    BYTE      dat
      00011FA2H   SYMBOL    XDATA    BYTE      reg
      00011FA3H   SYMBOL    XDATA    BYTE      dat
      00011B82H   SYMBOL    XDATA    BYTE      reg
      00011B83H   SYMBOL    XDATA    ---       dat
      00011B87H   SYMBOL    XDATA    DWORD     len
      00011F12H   SYMBOL    XDATA    BYTE      dat
      00011F13H   SYMBOL    XDATA    BYTE      return_state
      00011F14H   SYMBOL    XDATA    WORD      timeout_count
      00011DDCH   SYMBOL    XDATA    ---       dat
      00011DE2H   SYMBOL    XDATA    ---       dat
      00011F16H   SYMBOL    XDATA    BYTE      val
      00011F17H   SYMBOL    XDATA    BYTE      return_state
      00011F18H   SYMBOL    XDATA    WORD      timeout_count

      ---         MODULE    ---      ---       zf_device_imu660ra
      00FF9B25H   PUBLIC    CODE     ---       imu660ra_get_gyro
      00FF6CF6H   PUBLIC    CODE     ---       imu660ra_init
      00FF9B7FH   PUBLIC    CODE     ---       imu660ra_get_acc
      0001154DH   PUBLIC    XDATA    INT       imu660ra_acc_x
      0001154FH   PUBLIC    XDATA    INT       imu660ra_acc_y
      00011551H   PUBLIC    XDATA    INT       imu660ra_acc_z
      00011553H   PUBLIC    XDATA    INT       imu660ra_gyro_x
      00011555H   PUBLIC    XDATA    INT       imu660ra_gyro_y
      00011557H   PUBLIC    XDATA    INT       imu660ra_gyro_z
      00011559H   PUBLIC    XDATA    ---       imu660ra_transition_factor
      000000D0H   SFRSYM    DATA     BYTE      PSW
      0000009DH   SFRSYM    DATA     BYTE      IRCBAND
      00000097H   SFRSYM    DATA     BYTE      AUXR2
      000000EFH   SFRSYM    DATA     BYTE      AUXINTIF
      000000FDH   SFRSYM    DATA     BYTE      S4CON
      000000ACH   SFRSYM    DATA     BYTE      S3CON
      0000009AH   SFRSYM    DATA     BYTE      S2CON
      000000B7H   SFRSYM    DATA     BYTE      IPH
      000000CDH   SFRSYM    DATA     BYTE      SPSTAT
      000000DDH   SFRSYM    DATA     BYTE      T4T3M
      000000C1H   SFRSYM    DATA     BYTE      WDT_CONTR
      000000DFH   SFRSYM    DATA     BYTE      IP3
      000000F4H   SFRSYM    DATA     BYTE      USBCON
      000000B5H   SFRSYM    DATA     BYTE      IP2
      000000FFH   SFRSYM    DATA     BYTE      RSTCFG
      000000C7H   SFRSYM    DATA     BYTE      IAP_CONTR
      000000F9H   SFRSYM    DATA     BYTE      LINICR
      0000008EH   SFRSYM    DATA     BYTE      AUXR
      000000AFH   SFRSYM    DATA     BYTE      IE2
      000000C0H.3 SFRSYM    DATA     BIT       P43
      000000C0H.2 SFRSYM    DATA     BIT       P42
      00000088H   SFRSYM    DATA     BYTE      TCON
      00000089H   SFRSYM    DATA     BYTE      TMOD
      000000C0H.1 SFRSYM    DATA     BIT       P41
      00000098H   SFRSYM    DATA     BYTE      SCON
      000000C0H.0 SFRSYM    DATA     BIT       P40
      000000F1H   SFRSYM    DATA     BYTE      CANICR
      00000087H   SFRSYM    DATA     BYTE      PCON
      000000BCH   SFRSYM    DATA     BYTE      ADC_CONTR
      000000E7H   SFRSYM    DATA     BYTE      CMPCR2
      000000E6H   SFRSYM    DATA     BYTE      CMPCR1
      000000DEH   SFRSYM    DATA     BYTE      ADCCFG
      000000B8H   SFRSYM    DATA     BYTE      IP
      0000008FH   SFRSYM    DATA     BYTE      INTCLKO
      000000EEH   SFRSYM    DATA     BYTE      IP3H
      000000B6H   SFRSYM    DATA     BYTE      IP2H
      000000A8H   SFRSYM    DATA     BYTE      IE
      000000BBH   SFRSYM    DATA     BYTE      P_SW3
L251 LINKER/LOCATER V4.66.93.0                                                        04/22/2026  19:49:03  PAGE 99


      000000BAH   SFRSYM    DATA     BYTE      P_SW2
      000000A2H   SFRSYM    DATA     BYTE      P_SW1
      000000CEH   SFRSYM    DATA     BYTE      SPCTL
      000000F8H   SFRSYM    DATA     BYTE      P7
      000000E8H   SFRSYM    DATA     BYTE      P6
      000000C8H   SFRSYM    DATA     BYTE      P5
      000000C0H   SFRSYM    DATA     BYTE      P4
      000000B0H   SFRSYM    DATA     BYTE      P3
      000000A0H   SFRSYM    DATA     BYTE      P2
      00000090H   SFRSYM    DATA     BYTE      P1
      00000080H   SFRSYM    DATA     BYTE      P0
      00FFA280H   SYMBOL    CODE     ---       imu660ra_read_register
      00FFA148H   SYMBOL    CODE     ---       imu660ra_write_registers
      00FFA431H   SYMBOL    CODE     ---       imu660ra_write_register
      00FF9D39H   SYMBOL    CODE     ---       imu660ra_simspi_wr_byte
      00FF9A08H   SYMBOL    CODE     ---       imu660ra_self_check
      00FF98C7H   SYMBOL    CODE     ---       imu660ra_simspi_r_reg_bytes
      00FF9AC9H   SYMBOL    CODE     ---       imu660ra_simspi_w_reg_bytes
      00FF0026H   SYMBOL    CODE     ---       imu660ra_simspi_w_reg_byte
      00FF8D64H   SYMBOL    CODE     ---       imu660ra_read_registers

      00FF9D39H   BLOCK     CODE     ---       LVL=0
      00011FA4H   SYMBOL    XDATA    BYTE      byte
      00FF9D3DH   BLOCK     CODE     NEAR LAB  LVL=1
      00011FA5H   SYMBOL    XDATA    BYTE      i
      ---         BLOCKEND  ---      ---       LVL=1
      00FF9D39H   LINE      CODE     ---       #160
      00FF9D3DH   LINE      CODE     ---       #161
      00FF9D3DH   LINE      CODE     ---       #163
      00FF9D44H   LINE      CODE     ---       #165
      00FF9D47H   LINE      CODE     ---       #166
      00FF9D56H   LINE      CODE     ---       #167
      00FF9D5DH   LINE      CODE     ---       #168
      00FF9D60H   LINE      CODE     ---       #169
      00FF9D6DH   LINE      CODE     ---       #170
      00FF9D84H   LINE      CODE     ---       #171
      00FF9D87H   LINE      CODE     ---       #172
      00FF9D8BH   LINE      CODE     ---       #173
      ---         BLOCKEND  ---      ---       LVL=0

      00FF0026H   BLOCK     CODE     ---       LVL=0
      00011FA6H   SYMBOL    XDATA    BYTE      cmd
      00011FA7H   SYMBOL    XDATA    BYTE      val
      00FF0026H   LINE      CODE     ---       #182
      00FF0030H   LINE      CODE     ---       #184
      00FF0034H   LINE      CODE     ---       #185
      00FF003BH   LINE      CODE     ---       #186
      00FF0042H   LINE      CODE     ---       #187
      ---         BLOCKEND  ---      ---       LVL=0

      00FF9AC9H   BLOCK     CODE     ---       LVL=0
      00011B8BH   SYMBOL    XDATA    BYTE      cmd
      00011B8CH   SYMBOL    XDATA    ---       dat_addr
      00011B90H   SYMBOL    XDATA    DWORD     len
      00FF9AC9H   LINE      CODE     ---       #197
      00FF9AE1H   LINE      CODE     ---       #199
      00FF9AE5H   LINE      CODE     ---       #200
      00FF9AECH   LINE      CODE     ---       #201
      00FF9AEEH   LINE      CODE     ---       #203
      00FF9B07H   LINE      CODE     ---       #204
      00FF9B24H   LINE      CODE     ---       #205
      ---         BLOCKEND  ---      ---       LVL=0

      00FF98C7H   BLOCK     CODE     ---       LVL=0
      00011B94H   SYMBOL    XDATA    BYTE      cmd
L251 LINKER/LOCATER V4.66.93.0                                                        04/22/2026  19:49:03  PAGE 100


      00011B95H   SYMBOL    XDATA    ---       val
      00011B99H   SYMBOL    XDATA    DWORD     num
      00FF98C7H   LINE      CODE     ---       #215
      00FF98DFH   LINE      CODE     ---       #217
      00FF98E9H   LINE      CODE     ---       #218
      00FF98F0H   LINE      CODE     ---       #219
      00FF98F2H   LINE      CODE     ---       #221
      00FF9919H   LINE      CODE     ---       #222
      00FF9936H   LINE      CODE     ---       #223
      ---         BLOCKEND  ---      ---       LVL=0

      00FFA431H   BLOCK     CODE     ---       LVL=0
      00011FA8H   SYMBOL    XDATA    BYTE      reg
      00011FA9H   SYMBOL    XDATA    BYTE      dat
      00FFA431H   LINE      CODE     ---       #234
      00FFA43BH   LINE      CODE     ---       #236
      00FFA43EH   LINE      CODE     ---       #237
      00FFA44BH   LINE      CODE     ---       #238
      00FFA44EH   LINE      CODE     ---       #239
      ---         BLOCKEND  ---      ---       LVL=0

      00FFA148H   BLOCK     CODE     ---       LVL=0
      00011B9DH   SYMBOL    XDATA    BYTE      reg
      00011B9EH   SYMBOL    XDATA    ---       dat
      00011BA2H   SYMBOL    XDATA    DWORD     len
      00FFA148H   LINE      CODE     ---       #249
      00FFA160H   LINE      CODE     ---       #251
      00FFA163H   LINE      CODE     ---       #252
      00FFA17EH   LINE      CODE     ---       #253
      00FFA181H   LINE      CODE     ---       #254
      ---         BLOCKEND  ---      ---       LVL=0

      00FFA280H   BLOCK     CODE     ---       LVL=0
      00011F7CH   SYMBOL    XDATA    BYTE      reg
      00FFA284H   BLOCK     CODE     NEAR LAB  LVL=1
      00011F7DH   SYMBOL    XDATA    ---       dat
      ---         BLOCKEND  ---      ---       LVL=1
      00FFA280H   LINE      CODE     ---       #263
      00FFA284H   LINE      CODE     ---       #264
      00FFA284H   LINE      CODE     ---       #266
      00FFA287H   LINE      CODE     ---       #267
      00FFA2A0H   LINE      CODE     ---       #268
      00FFA2A3H   LINE      CODE     ---       #269
      00FFA2A7H   LINE      CODE     ---       #270
      ---         BLOCKEND  ---      ---       LVL=0

      00FF8D64H   BLOCK     CODE     ---       LVL=0
      00011575H   SYMBOL    XDATA    BYTE      reg
      00011576H   SYMBOL    XDATA    ---       dat
      0001157AH   SYMBOL    XDATA    DWORD     len
      00FF8D7CH   BLOCK     CODE     NEAR LAB  LVL=1
      0001157EH   SYMBOL    XDATA    WORD      i
      00011580H   SYMBOL    XDATA    ---       temp_data
      ---         BLOCKEND  ---      ---       LVL=1
      00FF8D64H   LINE      CODE     ---       #281
      00FF8D7CH   LINE      CODE     ---       #282
      00FF8D7CH   LINE      CODE     ---       #283
      00FF8D84H   LINE      CODE     ---       #285
      00FF8D87H   LINE      CODE     ---       #286
      00FF8DACH   LINE      CODE     ---       #287
      00FF8DAFH   LINE      CODE     ---       #289
      00FF8DB9H   LINE      CODE     ---       #291
      00FF8DEFH   LINE      CODE     ---       #292
      00FF8E14H   LINE      CODE     ---       #293
      ---         BLOCKEND  ---      ---       LVL=0
L251 LINKER/LOCATER V4.66.93.0                                                        04/22/2026  19:49:03  PAGE 101



      00FF9A08H   BLOCK     CODE     ---       LVL=0
      00011F1AH   SYMBOL    XDATA    BYTE      dat
      00011F1BH   SYMBOL    XDATA    BYTE      return_state
      00011F1CH   SYMBOL    XDATA    WORD      timeout_count
      00FF9A08H   LINE      CODE     ---       #312
      00FF9A08H   LINE      CODE     ---       #313
      00FF9A08H   LINE      CODE     ---       #314
      00FF9A12H   LINE      CODE     ---       #315
      00FF9A1AH   LINE      CODE     ---       #317
      00FF9A1AH   LINE      CODE     ---       #319
      00FF9A31H   LINE      CODE     ---       #321
      00FF9A37H   LINE      CODE     ---       #322
      00FF9A39H   LINE      CODE     ---       #323
      00FF9A39H   LINE      CODE     ---       #325
      00FF9A41H   LINE      CODE     ---       #326
      00FF9A58H   LINE      CODE     ---       #327
      00FF9A5FH   LINE      CODE     ---       #328
      00FF9A68H   LINE      CODE     ---       #331
      00FF9A6CH   LINE      CODE     ---       #332
      ---         BLOCKEND  ---      ---       LVL=0

      00FF9B7FH   BLOCK     CODE     ---       LVL=0
      00011DE8H   SYMBOL    XDATA    ---       dat
      00FF9B7FH   LINE      CODE     ---       #342
      00FF9B7FH   LINE      CODE     ---       #343
      00FF9B7FH   LINE      CODE     ---       #346
      00FF9B90H   LINE      CODE     ---       #347
      00FF9BA8H   LINE      CODE     ---       #348
      00FF9BC0H   LINE      CODE     ---       #349
      00FF9BD8H   LINE      CODE     ---       #350
      ---         BLOCKEND  ---      ---       LVL=0

      00FF9B25H   BLOCK     CODE     ---       LVL=0
      00011DEEH   SYMBOL    XDATA    ---       dat
      00FF9B25H   LINE      CODE     ---       #359
      00FF9B25H   LINE      CODE     ---       #360
      00FF9B25H   LINE      CODE     ---       #363
      00FF9B36H   LINE      CODE     ---       #364
      00FF9B4EH   LINE      CODE     ---       #365
      00FF9B66H   LINE      CODE     ---       #366
      00FF9B7EH   LINE      CODE     ---       #367
      ---         BLOCKEND  ---      ---       LVL=0

      00FF6CF6H   BLOCK     CODE     ---       LVL=0
      00011FD1H   SYMBOL    XDATA    BYTE      return_state
      00FF6CF6H   LINE      CODE     ---       #376
      00FF6CF6H   LINE      CODE     ---       #377
      00FF6CF6H   LINE      CODE     ---       #378
      00FF6CFBH   LINE      CODE     ---       #379
      00FF6D02H   LINE      CODE     ---       #389
      00FF6D06H   LINE      CODE     ---       #395
      00FF6D06H   LINE      CODE     ---       #397
      00FF6D0EH   LINE      CODE     ---       #402
      00FF6D19H   LINE      CODE     ---       #403
      00FF6D1FH   LINE      CODE     ---       #404
      00FF6D22H   LINE      CODE     ---       #405
      00FF6D22H   LINE      CODE     ---       #407
      00FF6D29H   LINE      CODE     ---       #408
      00FF6D30H   LINE      CODE     ---       #409
      00FF6D37H   LINE      CODE     ---       #410
      00FF6D48H   LINE      CODE     ---       #411
      00FF6D50H   LINE      CODE     ---       #412
      00FF6D57H   LINE      CODE     ---       #414
      00FF6D61H   LINE      CODE     ---       #419
L251 LINKER/LOCATER V4.66.93.0                                                        04/22/2026  19:49:03  PAGE 102


      00FF6D6CH   LINE      CODE     ---       #420
      00FF6D72H   LINE      CODE     ---       #421
      00FF6D75H   LINE      CODE     ---       #422
      00FF6D75H   LINE      CODE     ---       #424
      00FF6D7DH   LINE      CODE     ---       #425
      00FF6D85H   LINE      CODE     ---       #426
      00FF6D8DH   LINE      CODE     ---       #433
      00FF6DA5H   LINE      CODE     ---       #435
      00FF6DA5H   LINE      CODE     ---       #437
      00FF6DB0H   LINE      CODE     ---       #438
      00FF6DB6H   LINE      CODE     ---       #440
      00FF6DB8H   LINE      CODE     ---       #442
      00FF6DB8H   LINE      CODE     ---       #444
      00FF6DBFH   LINE      CODE     ---       #445
      00FF6DCFH   LINE      CODE     ---       #447
      00FF6DD1H   LINE      CODE     ---       #449
      00FF6DD1H   LINE      CODE     ---       #451
      00FF6DD9H   LINE      CODE     ---       #452
      00FF6DE9H   LINE      CODE     ---       #454
      00FF6DEBH   LINE      CODE     ---       #456
      00FF6DEBH   LINE      CODE     ---       #458
      00FF6DF3H   LINE      CODE     ---       #459
      00FF6E03H   LINE      CODE     ---       #461
      00FF6E05H   LINE      CODE     ---       #463
      00FF6E05H   LINE      CODE     ---       #465
      00FF6E0DH   LINE      CODE     ---       #466
      00FF6E1DH   LINE      CODE     ---       #468
      00FF6E1DH   LINE      CODE     ---       #469
      00FF6E1DH   LINE      CODE     ---       #471
      00FF6E29H   LINE      CODE     ---       #473
      00FF6E29H   LINE      CODE     ---       #474
      00FF6E29H   LINE      CODE     ---       #482
      00FF6E48H   LINE      CODE     ---       #484
      00FF6E48H   LINE      CODE     ---       #486
      00FF6E53H   LINE      CODE     ---       #487
      00FF6E59H   LINE      CODE     ---       #489
      00FF6E5CH   LINE      CODE     ---       #491
      00FF6E5CH   LINE      CODE     ---       #493
      00FF6E64H   LINE      CODE     ---       #494
      00FF6E76H   LINE      CODE     ---       #496
      00FF6E78H   LINE      CODE     ---       #498
      00FF6E78H   LINE      CODE     ---       #500
      00FF6E80H   LINE      CODE     ---       #501
      00FF6E92H   LINE      CODE     ---       #503
      00FF6E94H   LINE      CODE     ---       #505
      00FF6E94H   LINE      CODE     ---       #507
      00FF6E9CH   LINE      CODE     ---       #508
      00FF6EAEH   LINE      CODE     ---       #510
      00FF6EB0H   LINE      CODE     ---       #512
      00FF6EB0H   LINE      CODE     ---       #514
      00FF6EB8H   LINE      CODE     ---       #515
      00FF6ECAH   LINE      CODE     ---       #517
      00FF6ECCH   LINE      CODE     ---       #519
      00FF6ECCH   LINE      CODE     ---       #521
      00FF6ED3H   LINE      CODE     ---       #522
      00FF6EE5H   LINE      CODE     ---       #524
      00FF6EE5H   LINE      CODE     ---       #525
      00FF6EE5H   LINE      CODE     ---       #527
      00FF6EE5H   LINE      CODE     ---       #529
      00FF6EE5H   LINE      CODE     ---       #530
      00FF6EE5H   LINE      CODE     ---       #534
      00FF6EE9H   LINE      CODE     ---       #535
      ---         BLOCKEND  ---      ---       LVL=0

      ---         MODULE    ---      ---       zf_device_imu660rb
L251 LINKER/LOCATER V4.66.93.0                                                        04/22/2026  19:49:03  PAGE 103


      000119D0H   PUBLIC    XDATA    INT       imu660rb_acc_x
      000119D2H   PUBLIC    XDATA    INT       imu660rb_acc_y
      000119D4H   PUBLIC    XDATA    INT       imu660rb_acc_z
      000119D6H   PUBLIC    XDATA    INT       imu660rb_gyro_x
      000119D8H   PUBLIC    XDATA    INT       imu660rb_gyro_y
      000119DAH   PUBLIC    XDATA    INT       imu660rb_gyro_z
      000000D0H   SFRSYM    DATA     BYTE      PSW
      0000009DH   SFRSYM    DATA     BYTE      IRCBAND
      00000097H   SFRSYM    DATA     BYTE      AUXR2
      000000EFH   SFRSYM    DATA     BYTE      AUXINTIF
      000000FDH   SFRSYM    DATA     BYTE      S4CON
      000000ACH   SFRSYM    DATA     BYTE      S3CON
      0000009AH   SFRSYM    DATA     BYTE      S2CON
      000000B7H   SFRSYM    DATA     BYTE      IPH
      000000CDH   SFRSYM    DATA     BYTE      SPSTAT
      000000DDH   SFRSYM    DATA     BYTE      T4T3M
      000000C1H   SFRSYM    DATA     BYTE      WDT_CONTR
      000000DFH   SFRSYM    DATA     BYTE      IP3
      000000F4H   SFRSYM    DATA     BYTE      USBCON
      000000B5H   SFRSYM    DATA     BYTE      IP2
      000000FFH   SFRSYM    DATA     BYTE      RSTCFG
      000000C7H   SFRSYM    DATA     BYTE      IAP_CONTR
      000000F9H   SFRSYM    DATA     BYTE      LINICR
      0000008EH   SFRSYM    DATA     BYTE      AUXR
      000000AFH   SFRSYM    DATA     BYTE      IE2
      000000C0H.3 SFRSYM    DATA     BIT       P43
      000000C0H.2 SFRSYM    DATA     BIT       P42
      00000088H   SFRSYM    DATA     BYTE      TCON
      00000089H   SFRSYM    DATA     BYTE      TMOD
      000000C0H.1 SFRSYM    DATA     BIT       P41
      00000098H   SFRSYM    DATA     BYTE      SCON
      000000C0H.0 SFRSYM    DATA     BIT       P40
      000000F1H   SFRSYM    DATA     BYTE      CANICR
      00000087H   SFRSYM    DATA     BYTE      PCON
      000000BCH   SFRSYM    DATA     BYTE      ADC_CONTR
      000000E7H   SFRSYM    DATA     BYTE      CMPCR2
      000000E6H   SFRSYM    DATA     BYTE      CMPCR1
      000000DEH   SFRSYM    DATA     BYTE      ADCCFG
      000000B8H   SFRSYM    DATA     BYTE      IP
      0000008FH   SFRSYM    DATA     BYTE      INTCLKO
      000000EEH   SFRSYM    DATA     BYTE      IP3H
      000000B6H   SFRSYM    DATA     BYTE      IP2H
      000000A8H   SFRSYM    DATA     BYTE      IE
      000000BBH   SFRSYM    DATA     BYTE      P_SW3
      000000BAH   SFRSYM    DATA     BYTE      P_SW2
      000000A2H   SFRSYM    DATA     BYTE      P_SW1
      000000CEH   SFRSYM    DATA     BYTE      SPCTL
      000000F8H   SFRSYM    DATA     BYTE      P7
      000000E8H   SFRSYM    DATA     BYTE      P6
      000000C8H   SFRSYM    DATA     BYTE      P5
      000000C0H   SFRSYM    DATA     BYTE      P4
      000000B0H   SFRSYM    DATA     BYTE      P3
      000000A0H   SFRSYM    DATA     BYTE      P2
      00000090H   SFRSYM    DATA     BYTE      P1
      00000080H   SFRSYM    DATA     BYTE      P0
      00011FAAH   SYMBOL    XDATA    BYTE      byte
      00011FABH   SYMBOL    XDATA    BYTE      i
      00011FACH   SYMBOL    XDATA    BYTE      cmd
      00011FADH   SYMBOL    XDATA    BYTE      val
      00011EB4H   SYMBOL    XDATA    BYTE      cmd
      00011EB5H   SYMBOL    XDATA    ---       val
      00011BA6H   SYMBOL    XDATA    BYTE      cmd
      00011BA7H   SYMBOL    XDATA    ---       val
      00011BABH   SYMBOL    XDATA    DWORD     num
      00011FAEH   SYMBOL    XDATA    BYTE      reg
L251 LINKER/LOCATER V4.66.93.0                                                        04/22/2026  19:49:03  PAGE 104


      00011FAFH   SYMBOL    XDATA    BYTE      dat
      00011FB0H   SYMBOL    XDATA    BYTE      reg
      00011FB1H   SYMBOL    XDATA    BYTE      dat
      00011BAFH   SYMBOL    XDATA    BYTE      reg
      00011BB0H   SYMBOL    XDATA    ---       dat
      00011BB4H   SYMBOL    XDATA    DWORD     len
      00011F1EH   SYMBOL    XDATA    BYTE      dat
      00011F1FH   SYMBOL    XDATA    BYTE      return_state
      00011F20H   SYMBOL    XDATA    WORD      timeout_count
      00011DF4H   SYMBOL    XDATA    ---       dat
      00011DFAH   SYMBOL    XDATA    ---       dat
      00011E00H   SYMBOL    XDATA    INT       acc_value
      00011E02H   SYMBOL    XDATA    FLOAT     acc_data
      00011E06H   SYMBOL    XDATA    INT       gyro_value
      00011E08H   SYMBOL    XDATA    FLOAT     gyro_data
      00011FD2H   SYMBOL    XDATA    BYTE      return_state

      ---         MODULE    ---      ---       zf_device_imu963ra
      0001132DH   PUBLIC    XDATA    INT       imu963ra_acc_x
      0001132FH   PUBLIC    XDATA    INT       imu963ra_acc_y
      00011331H   PUBLIC    XDATA    INT       imu963ra_acc_z
      00011333H   PUBLIC    XDATA    INT       imu963ra_mag_x
      00011335H   PUBLIC    XDATA    INT       imu963ra_mag_y
      00011337H   PUBLIC    XDATA    INT       imu963ra_mag_z
      00011339H   PUBLIC    XDATA    INT       imu963ra_gyro_x
      0001133BH   PUBLIC    XDATA    INT       imu963ra_gyro_y
      0001133DH   PUBLIC    XDATA    INT       imu963ra_gyro_z
      0001133FH   PUBLIC    XDATA    ---       imu963ra_transition_factor
      000000D0H   SFRSYM    DATA     BYTE      PSW
      0000009DH   SFRSYM    DATA     BYTE      IRCBAND
      00000097H   SFRSYM    DATA     BYTE      AUXR2
      000000EFH   SFRSYM    DATA     BYTE      AUXINTIF
      000000FDH   SFRSYM    DATA     BYTE      S4CON
      000000ACH   SFRSYM    DATA     BYTE      S3CON
      0000009AH   SFRSYM    DATA     BYTE      S2CON
      000000B7H   SFRSYM    DATA     BYTE      IPH
      000000CDH   SFRSYM    DATA     BYTE      SPSTAT
      000000DDH   SFRSYM    DATA     BYTE      T4T3M
      000000C1H   SFRSYM    DATA     BYTE      WDT_CONTR
      000000DFH   SFRSYM    DATA     BYTE      IP3
      000000F4H   SFRSYM    DATA     BYTE      USBCON
      000000B5H   SFRSYM    DATA     BYTE      IP2
      000000FFH   SFRSYM    DATA     BYTE      RSTCFG
      000000C7H   SFRSYM    DATA     BYTE      IAP_CONTR
      000000F9H   SFRSYM    DATA     BYTE      LINICR
      0000008EH   SFRSYM    DATA     BYTE      AUXR
      000000AFH   SFRSYM    DATA     BYTE      IE2
      000000C0H.2 SFRSYM    DATA     BIT       P42
      00000088H   SFRSYM    DATA     BYTE      TCON
      00000089H   SFRSYM    DATA     BYTE      TMOD
      00000098H   SFRSYM    DATA     BYTE      SCON
      000000F1H   SFRSYM    DATA     BYTE      CANICR
      00000087H   SFRSYM    DATA     BYTE      PCON
      000000BCH   SFRSYM    DATA     BYTE      ADC_CONTR
      000000E7H   SFRSYM    DATA     BYTE      CMPCR2
      000000E6H   SFRSYM    DATA     BYTE      CMPCR1
      000000DEH   SFRSYM    DATA     BYTE      ADCCFG
      000000B8H   SFRSYM    DATA     BYTE      IP
      0000008FH   SFRSYM    DATA     BYTE      INTCLKO
      000000EEH   SFRSYM    DATA     BYTE      IP3H
      000000B6H   SFRSYM    DATA     BYTE      IP2H
      000000A8H   SFRSYM    DATA     BYTE      IE
      000000BBH   SFRSYM    DATA     BYTE      P_SW3
      000000BAH   SFRSYM    DATA     BYTE      P_SW2
      000000A2H   SFRSYM    DATA     BYTE      P_SW1
L251 LINKER/LOCATER V4.66.93.0                                                        04/22/2026  19:49:03  PAGE 105


      000000CEH   SFRSYM    DATA     BYTE      SPCTL
      000000F8H   SFRSYM    DATA     BYTE      P7
      000000E8H   SFRSYM    DATA     BYTE      P6
      000000C8H   SFRSYM    DATA     BYTE      P5
      000000C0H   SFRSYM    DATA     BYTE      P4
      000000B0H   SFRSYM    DATA     BYTE      P3
      000000A0H   SFRSYM    DATA     BYTE      P2
      00000090H   SFRSYM    DATA     BYTE      P1
      00000080H   SFRSYM    DATA     BYTE      P0
      00011FB2H   SYMBOL    XDATA    BYTE      reg
      00011FB3H   SYMBOL    XDATA    BYTE      dat
      00011FB4H   SYMBOL    XDATA    BYTE      reg
      00011FB5H   SYMBOL    XDATA    BYTE      dat
      00011BB8H   SYMBOL    XDATA    BYTE      reg
      00011BB9H   SYMBOL    XDATA    ---       dat
      00011BBDH   SYMBOL    XDATA    DWORD     len
      00011E0CH   SYMBOL    XDATA    BYTE      addr
      00011E0DH   SYMBOL    XDATA    BYTE      reg
      00011E0EH   SYMBOL    XDATA    BYTE      dat
      00011E0FH   SYMBOL    XDATA    BYTE      return_state
      00011E10H   SYMBOL    XDATA    WORD      timeout_count
      00011F22H   SYMBOL    XDATA    BYTE      addr
      00011F23H   SYMBOL    XDATA    BYTE      reg
      00011F24H   SYMBOL    XDATA    WORD      timeout_count
      00011FB6H   SYMBOL    XDATA    BYTE      addr
      00011FB7H   SYMBOL    XDATA    BYTE      reg
      00011F26H   SYMBOL    XDATA    BYTE      return_state
      00011F27H   SYMBOL    XDATA    BYTE      dat
      00011F28H   SYMBOL    XDATA    WORD      timeout_count
      00011F2AH   SYMBOL    XDATA    BYTE      return_state
      00011F2BH   SYMBOL    XDATA    BYTE      dat
      00011F2CH   SYMBOL    XDATA    WORD      timeout_count
      00011E12H   SYMBOL    XDATA    ---       dat
      00011E18H   SYMBOL    XDATA    ---       dat
      00011D6EH   SYMBOL    XDATA    BYTE      temp_status
      00011D6FH   SYMBOL    XDATA    ---       dat
      00011FD3H   SYMBOL    XDATA    BYTE      return_state

      ---         MODULE    ---      ---       zf_device_ips114
      00FFA33FH   PUBLIC    CODE     ---       ips114_set_color
      00FFA10DH   PUBLIC    CODE     ---       ips114_set_dir
      00FF94C9H   PUBLIC    CODE     ---       ips114_clear
      00FF5F1EH   PUBLIC    CODE     ---       ips114_init
      00011CDAH   PUBLIC    XDATA    WORD      ips114_pencolor
      00011CDCH   PUBLIC    XDATA    WORD      ips114_bgcolor
      00011CDEH   PUBLIC    XDATA    INT       ips114_display_dir
      00011CE0H   PUBLIC    XDATA    BYTE      ips114_x_max
      00011CE1H   PUBLIC    XDATA    BYTE      ips114_y_max
      00010FD9H   PUBLIC    XDATA    BYTE      ?ips114_show_float?BYTE
      00011232H   PUBLIC    XDATA    BYTE      ?ips114_show_wave?BYTE
      000113ECH   PUBLIC    XDATA    BYTE      ?ips114_show_chinese?BYTE
      000000D0H   SFRSYM    DATA     BYTE      PSW
      0000009DH   SFRSYM    DATA     BYTE      IRCBAND
      00000097H   SFRSYM    DATA     BYTE      AUXR2
      000000EFH   SFRSYM    DATA     BYTE      AUXINTIF
      000000FDH   SFRSYM    DATA     BYTE      S4CON
      000000ACH   SFRSYM    DATA     BYTE      S3CON
      0000009AH   SFRSYM    DATA     BYTE      S2CON
      000000B7H   SFRSYM    DATA     BYTE      IPH
      000000CDH   SFRSYM    DATA     BYTE      SPSTAT
      000000DDH   SFRSYM    DATA     BYTE      T4T3M
      000000C1H   SFRSYM    DATA     BYTE      WDT_CONTR
      000000DFH   SFRSYM    DATA     BYTE      IP3
      000000F4H   SFRSYM    DATA     BYTE      USBCON
      000000B5H   SFRSYM    DATA     BYTE      IP2
L251 LINKER/LOCATER V4.66.93.0                                                        04/22/2026  19:49:03  PAGE 106


      000000FFH   SFRSYM    DATA     BYTE      RSTCFG
      000000C7H   SFRSYM    DATA     BYTE      IAP_CONTR
      000000F9H   SFRSYM    DATA     BYTE      LINICR
      0000008EH   SFRSYM    DATA     BYTE      AUXR
      000000AFH   SFRSYM    DATA     BYTE      IE2
      00000088H   SFRSYM    DATA     BYTE      TCON
      00000089H   SFRSYM    DATA     BYTE      TMOD
      00000098H   SFRSYM    DATA     BYTE      SCON
      000000A0H.2 SFRSYM    DATA     BIT       P22
      000000A0H.1 SFRSYM    DATA     BIT       P21
      000000A0H.0 SFRSYM    DATA     BIT       P20
      000000F1H   SFRSYM    DATA     BYTE      CANICR
      00000087H   SFRSYM    DATA     BYTE      PCON
      000000BCH   SFRSYM    DATA     BYTE      ADC_CONTR
      000000E7H   SFRSYM    DATA     BYTE      CMPCR2
      000000E6H   SFRSYM    DATA     BYTE      CMPCR1
      000000DEH   SFRSYM    DATA     BYTE      ADCCFG
      000000B8H   SFRSYM    DATA     BYTE      IP
      0000008FH   SFRSYM    DATA     BYTE      INTCLKO
      000000EEH   SFRSYM    DATA     BYTE      IP3H
      000000B6H   SFRSYM    DATA     BYTE      IP2H
      000000A8H   SFRSYM    DATA     BYTE      IE
      000000BBH   SFRSYM    DATA     BYTE      P_SW3
      000000BAH   SFRSYM    DATA     BYTE      P_SW2
      000000A2H   SFRSYM    DATA     BYTE      P_SW1
      000000CEH   SFRSYM    DATA     BYTE      SPCTL
      000000F8H   SFRSYM    DATA     BYTE      P7
      000000E8H   SFRSYM    DATA     BYTE      P6
      000000C8H   SFRSYM    DATA     BYTE      P5
      000000C0H   SFRSYM    DATA     BYTE      P4
      000000B0H   SFRSYM    DATA     BYTE      P3
      000000A0H   SFRSYM    DATA     BYTE      P2
      00000090H   SFRSYM    DATA     BYTE      P1
      00000080H   SFRSYM    DATA     BYTE      P0
      00FFA3D1H   SYMBOL    CODE     ---       ips114_write_index
      00FF6463H   SYMBOL    CODE     ---       ips114_set_region

      00FFA3D1H   BLOCK     CODE     ---       LVL=0
      00011FD4H   SYMBOL    XDATA    BYTE      dat
      00FFA3D1H   LINE      CODE     ---       #83
      00FFA3D5H   LINE      CODE     ---       #85
      00FFA3D8H   LINE      CODE     ---       #86
      00FFA3DBH   LINE      CODE     ---       #87
      00FFA3DEH   LINE      CODE     ---       #88
      00FFA3E9H   LINE      CODE     ---       #89
      00FFA3ECH   LINE      CODE     ---       #90
      00FFA3EFH   LINE      CODE     ---       #91
      00FFA3F2H   LINE      CODE     ---       #92
      ---         BLOCKEND  ---      ---       LVL=0

      00FF6463H   BLOCK     CODE     ---       LVL=0
      00011CE2H   SYMBOL    XDATA    WORD      x1
      00011CE4H   SYMBOL    XDATA    WORD      y1
      00011CE6H   SYMBOL    XDATA    WORD      x2
      00011CE8H   SYMBOL    XDATA    WORD      y2
      00FF6463H   LINE      CODE     ---       #103
      00FF647BH   LINE      CODE     ---       #105
      00FF649FH   LINE      CODE     ---       #106
      00FF64C3H   LINE      CODE     ---       #107
      00FF64E7H   LINE      CODE     ---       #108
      00FF650BH   LINE      CODE     ---       #110
      00FF6517H   LINE      CODE     ---       #112
      00FF651CH   LINE      CODE     ---       #113
      00FF652FH   LINE      CODE     ---       #114
      00FF6542H   LINE      CODE     ---       #115
L251 LINKER/LOCATER V4.66.93.0                                                        04/22/2026  19:49:03  PAGE 107


      00FF6547H   LINE      CODE     ---       #116
      00FF655AH   LINE      CODE     ---       #117
      00FF656DH   LINE      CODE     ---       #118
      00FF6572H   LINE      CODE     ---       #119
      00FF6575H   LINE      CODE     ---       #120
      00FF6583H   LINE      CODE     ---       #122
      00FF6588H   LINE      CODE     ---       #123
      00FF659BH   LINE      CODE     ---       #124
      00FF65AEH   LINE      CODE     ---       #125
      00FF65B3H   LINE      CODE     ---       #126
      00FF65C6H   LINE      CODE     ---       #127
      00FF65D9H   LINE      CODE     ---       #128
      00FF65DEH   LINE      CODE     ---       #129
      00FF65E1H   LINE      CODE     ---       #130
      00FF65EFH   LINE      CODE     ---       #132
      00FF65F4H   LINE      CODE     ---       #133
      00FF6607H   LINE      CODE     ---       #134
      00FF661AH   LINE      CODE     ---       #135
      00FF661FH   LINE      CODE     ---       #136
      00FF6632H   LINE      CODE     ---       #137
      00FF6645H   LINE      CODE     ---       #138
      00FF664AH   LINE      CODE     ---       #139
      00FF664CH   LINE      CODE     ---       #142
      00FF6651H   LINE      CODE     ---       #143
      00FF6664H   LINE      CODE     ---       #144
      00FF6677H   LINE      CODE     ---       #145
      00FF667CH   LINE      CODE     ---       #146
      00FF668FH   LINE      CODE     ---       #147
      00FF66A2H   LINE      CODE     ---       #148
      00FF66A7H   LINE      CODE     ---       #149
      00FF66A7H   LINE      CODE     ---       #150
      ---         BLOCKEND  ---      ---       LVL=0

      00FF94C9H   BLOCK     CODE     ---       LVL=0
      00011E1EH   SYMBOL    XDATA    WORD      color
      00FF94CFH   BLOCK     CODE     NEAR LAB  LVL=1
      00011E20H   SYMBOL    XDATA    WORD      i
      00011E22H   SYMBOL    XDATA    WORD      j
      ---         BLOCKEND  ---      ---       LVL=1
      00FF94C9H   LINE      CODE     ---       #158
      00FF94CFH   LINE      CODE     ---       #159
      00FF94CFH   LINE      CODE     ---       #161
      00FF94EEH   LINE      CODE     ---       #163
      00FF94F8H   LINE      CODE     ---       #165
      00FF9502H   LINE      CODE     ---       #167
      00FF950FH   LINE      CODE     ---       #168
      00FF952EH   LINE      CODE     ---       #169
      00FF954DH   LINE      CODE     ---       #170
      ---         BLOCKEND  ---      ---       LVL=0

      00FFA10DH   BLOCK     CODE     ---       LVL=0
      00011FB8H   SYMBOL    XDATA    INT       dir
      00FFA10DH   LINE      CODE     ---       #178
      00FFA113H   LINE      CODE     ---       #180
      00FFA11FH   LINE      CODE     ---       #181
      00FFA12DH   LINE      CODE     ---       #183
      00FFA133H   LINE      CODE     ---       #184
      00FFA139H   LINE      CODE     ---       #185
      00FFA13BH   LINE      CODE     ---       #188
      00FFA141H   LINE      CODE     ---       #189
      00FFA147H   LINE      CODE     ---       #190
      00FFA147H   LINE      CODE     ---       #191
      ---         BLOCKEND  ---      ---       LVL=0

      00FFA33FH   BLOCK     CODE     ---       LVL=0
L251 LINKER/LOCATER V4.66.93.0                                                        04/22/2026  19:49:03  PAGE 108


      00011F2EH   SYMBOL    XDATA    WORD      pen
      00011F30H   SYMBOL    XDATA    WORD      bgcolor
      00FFA33FH   LINE      CODE     ---       #200
      00FFA34BH   LINE      CODE     ---       #202
      00FFA357H   LINE      CODE     ---       #203
      00FFA363H   LINE      CODE     ---       #204
      ---         BLOCKEND  ---      ---       LVL=0
      00011E24H   SYMBOL    XDATA    WORD      x
      00011E26H   SYMBOL    XDATA    WORD      y
      00011E28H   SYMBOL    XDATA    WORD      color
      00011CEAH   SYMBOL    XDATA    WORD      x
      00011CECH   SYMBOL    XDATA    WORD      y
      00011CEEH   SYMBOL    XDATA    CHAR      dat
      00011CEFH   SYMBOL    XDATA    BYTE      i
      00011CF0H   SYMBOL    XDATA    BYTE      j
      00011CF1H   SYMBOL    XDATA    BYTE      temp
      00011B2CH   SYMBOL    XDATA    WORD      x
      00011B2EH   SYMBOL    XDATA    WORD      y
      00011B30H   SYMBOL    XDATA    ---       dat
      00011B34H   SYMBOL    XDATA    WORD      j
      00011BC1H   SYMBOL    XDATA    WORD      x
      00011BC3H   SYMBOL    XDATA    WORD      y
      00011BC5H   SYMBOL    XDATA    CHAR      dat
      00011BC6H   SYMBOL    XDATA    ---       a
      00011BC9H   SYMBOL    XDATA    BYTE      i
      00011BCAH   SYMBOL    XDATA    WORD      x
      00011BCCH   SYMBOL    XDATA    WORD      y
      00011BCEH   SYMBOL    XDATA    BYTE      dat
      00011BCFH   SYMBOL    XDATA    ---       a
      00011BD2H   SYMBOL    XDATA    BYTE      i
      000119DCH   SYMBOL    XDATA    WORD      x
      000119DEH   SYMBOL    XDATA    WORD      y
      000119E0H   SYMBOL    XDATA    INT       dat
      000119E2H   SYMBOL    XDATA    ---       a
      000119E7H   SYMBOL    XDATA    BYTE      i
      000119E8H   SYMBOL    XDATA    WORD      x
      000119EAH   SYMBOL    XDATA    WORD      y
      000119ECH   SYMBOL    XDATA    WORD      dat
      000119EEH   SYMBOL    XDATA    ---       a
      000119F3H   SYMBOL    XDATA    BYTE      i
      00011098H   SYMBOL    XDATA    WORD      x
      0001109AH   SYMBOL    XDATA    WORD      y
      0001109CH   SYMBOL    XDATA    LONG      dat
      000110A0H   SYMBOL    XDATA    BYTE      num
      000110A1H   SYMBOL    XDATA    ---       buff
      000110C3H   SYMBOL    XDATA    BYTE      length
      00010FD9H   SYMBOL    XDATA    WORD      x
      00010FDBH   SYMBOL    XDATA    WORD      y
      00010FDDH   SYMBOL    XDATA    FLOAT     dat
      00010FE1H   SYMBOL    XDATA    BYTE      num
      00010FE2H   SYMBOL    XDATA    BYTE      pointnum
      00010FE3H   SYMBOL    XDATA    BYTE      length
      00010FE4H   SYMBOL    XDATA    ---       buff
      00011006H   SYMBOL    XDATA    CHAR      start
      00011007H   SYMBOL    XDATA    CHAR      end
      00011008H   SYMBOL    XDATA    CHAR      point
      00011232H   SYMBOL    XDATA    WORD      x
      00011234H   SYMBOL    XDATA    WORD      y
      00011236H   SYMBOL    XDATA    ---       p
      0001123AH   SYMBOL    XDATA    WORD      width
      0001123CH   SYMBOL    XDATA    WORD      value_max
      0001123EH   SYMBOL    XDATA    WORD      dis_width
      00011240H   SYMBOL    XDATA    WORD      dis_value_max
      00011242H   SYMBOL    XDATA    DWORD     i
      00011246H   SYMBOL    XDATA    DWORD     j
L251 LINKER/LOCATER V4.66.93.0                                                        04/22/2026  19:49:03  PAGE 109


      0001124AH   SYMBOL    XDATA    DWORD     width_index
      0001124EH   SYMBOL    XDATA    DWORD     value_max_index
      000113ECH   SYMBOL    XDATA    WORD      x
      000113EEH   SYMBOL    XDATA    WORD      y
      000113F0H   SYMBOL    XDATA    BYTE      siz
      000113F1H   SYMBOL    XDATA    ---       p
      000113F5H   SYMBOL    XDATA    BYTE      number
      000113F6H   SYMBOL    XDATA    WORD      color
      000113F8H   SYMBOL    XDATA    INT       i
      000113FAH   SYMBOL    XDATA    INT       j
      000113FCH   SYMBOL    XDATA    INT       k
      000113FEH   SYMBOL    XDATA    BYTE      temp
      000113FFH   SYMBOL    XDATA    BYTE      temp1
      00011400H   SYMBOL    XDATA    BYTE      temp2
      00011401H   SYMBOL    XDATA    ---       p_data

      00FF5F1EH   BLOCK     CODE     ---       LVL=0
      00FF5F1EH   LINE      CODE     ---       #585
      00FF5F1EH   LINE      CODE     ---       #590
      00FF5F2FH   LINE      CODE     ---       #591
      00FF5F40H   LINE      CODE     ---       #592
      00FF5F79H   LINE      CODE     ---       #600
      00FF5F82H   LINE      CODE     ---       #601
      00FF5F91H   LINE      CODE     ---       #603
      00FF5F94H   LINE      CODE     ---       #604
      00FF5F9BH   LINE      CODE     ---       #606
      00FF5F9EH   LINE      CODE     ---       #607
      00FF5FA5H   LINE      CODE     ---       #609
      00FF5FAAH   LINE      CODE     ---       #610
      00FF5FB1H   LINE      CODE     ---       #611
      00FF5FC7H   LINE      CODE     ---       #612
      00FF5FE0H   LINE      CODE     ---       #613
      00FF5FF9H   LINE      CODE     ---       #614
      00FF6002H   LINE      CODE     ---       #616
      00FF6007H   LINE      CODE     ---       #617
      00FF6010H   LINE      CODE     ---       #619
      00FF6015H   LINE      CODE     ---       #620
      00FF601EH   LINE      CODE     ---       #621
      00FF6027H   LINE      CODE     ---       #622
      00FF602FH   LINE      CODE     ---       #623
      00FF6038H   LINE      CODE     ---       #624
      00FF6041H   LINE      CODE     ---       #626
      00FF6046H   LINE      CODE     ---       #627
      00FF604FH   LINE      CODE     ---       #629
      00FF6054H   LINE      CODE     ---       #630
      00FF605DH   LINE      CODE     ---       #632
      00FF6062H   LINE      CODE     ---       #633
      00FF606BH   LINE      CODE     ---       #635
      00FF6070H   LINE      CODE     ---       #636
      00FF6079H   LINE      CODE     ---       #638
      00FF607EH   LINE      CODE     ---       #639
      00FF6087H   LINE      CODE     ---       #641
      00FF608CH   LINE      CODE     ---       #642
      00FF6095H   LINE      CODE     ---       #644
      00FF609AH   LINE      CODE     ---       #645
      00FF60A3H   LINE      CODE     ---       #647
      00FF60A8H   LINE      CODE     ---       #648
      00FF60B1H   LINE      CODE     ---       #649
      00FF60BAH   LINE      CODE     ---       #651
      00FF60BFH   LINE      CODE     ---       #652
      00FF60C8H   LINE      CODE     ---       #653
      00FF60D1H   LINE      CODE     ---       #654
      00FF60DAH   LINE      CODE     ---       #655
      00FF60E3H   LINE      CODE     ---       #656
      00FF60ECH   LINE      CODE     ---       #657
L251 LINKER/LOCATER V4.66.93.0                                                        04/22/2026  19:49:03  PAGE 110


      00FF60F5H   LINE      CODE     ---       #658
      00FF60FEH   LINE      CODE     ---       #659
      00FF6107H   LINE      CODE     ---       #660
      00FF6110H   LINE      CODE     ---       #661
      00FF6119H   LINE      CODE     ---       #662
      00FF6122H   LINE      CODE     ---       #663
      00FF612BH   LINE      CODE     ---       #664
      00FF6134H   LINE      CODE     ---       #665
      00FF613DH   LINE      CODE     ---       #667
      00FF6142H   LINE      CODE     ---       #668
      00FF614BH   LINE      CODE     ---       #669
      00FF6154H   LINE      CODE     ---       #670
      00FF615DH   LINE      CODE     ---       #671
      00FF6166H   LINE      CODE     ---       #672
      00FF616FH   LINE      CODE     ---       #673
      00FF6178H   LINE      CODE     ---       #674
      00FF6181H   LINE      CODE     ---       #675
      00FF618AH   LINE      CODE     ---       #676
      00FF6193H   LINE      CODE     ---       #677
      00FF619CH   LINE      CODE     ---       #678
      00FF61A5H   LINE      CODE     ---       #679
      00FF61AEH   LINE      CODE     ---       #680
      00FF61B7H   LINE      CODE     ---       #681
      00FF61C0H   LINE      CODE     ---       #683
      00FF61C5H   LINE      CODE     ---       #685
      00FF61CAH   LINE      CODE     ---       #686
      00FF61D1H   LINE      CODE     ---       #688
      00FF61D6H   LINE      CODE     ---       #690
      00FF61DFH   LINE      CODE     ---       #691
      ---         BLOCKEND  ---      ---       LVL=0

      ---         MODULE    ---      ---       zf_device_ips200
      00011B36H   PUBLIC    XDATA    WORD      ips200_pencolor
      00011B38H   PUBLIC    XDATA    WORD      ips200_bgcolor
      00011B3AH   PUBLIC    XDATA    INT       ips200_display_dir
      00011B3CH   PUBLIC    XDATA    WORD      ips200_x_max
      00011B3EH   PUBLIC    XDATA    WORD      ips200_y_max
      00011009H   PUBLIC    XDATA    BYTE      ?ips200_show_float?BYTE
      00011252H   PUBLIC    XDATA    BYTE      ?ips200_show_wave?BYTE
      00011405H   PUBLIC    XDATA    BYTE      ?ips200_show_chinese?BYTE
      000000D0H   SFRSYM    DATA     BYTE      PSW
      0000009DH   SFRSYM    DATA     BYTE      IRCBAND
      00000097H   SFRSYM    DATA     BYTE      AUXR2
      000000EFH   SFRSYM    DATA     BYTE      AUXINTIF
      000000FDH   SFRSYM    DATA     BYTE      S4CON
      000000ACH   SFRSYM    DATA     BYTE      S3CON
      0000009AH   SFRSYM    DATA     BYTE      S2CON
      000000B7H   SFRSYM    DATA     BYTE      IPH
      000000CDH   SFRSYM    DATA     BYTE      SPSTAT
      000000DDH   SFRSYM    DATA     BYTE      T4T3M
      000000C1H   SFRSYM    DATA     BYTE      WDT_CONTR
      000000DFH   SFRSYM    DATA     BYTE      IP3
      000000F4H   SFRSYM    DATA     BYTE      USBCON
      000000B5H   SFRSYM    DATA     BYTE      IP2
      000000FFH   SFRSYM    DATA     BYTE      RSTCFG
      000000C7H   SFRSYM    DATA     BYTE      IAP_CONTR
      000000F9H   SFRSYM    DATA     BYTE      LINICR
      0000008EH   SFRSYM    DATA     BYTE      AUXR
      000000AFH   SFRSYM    DATA     BYTE      IE2
      00000088H   SFRSYM    DATA     BYTE      TCON
      00000089H   SFRSYM    DATA     BYTE      TMOD
      00000098H   SFRSYM    DATA     BYTE      SCON
      000000A0H.2 SFRSYM    DATA     BIT       P22
      000000A0H.1 SFRSYM    DATA     BIT       P21
      000000A0H.0 SFRSYM    DATA     BIT       P20
L251 LINKER/LOCATER V4.66.93.0                                                        04/22/2026  19:49:03  PAGE 111


      000000F1H   SFRSYM    DATA     BYTE      CANICR
      00000087H   SFRSYM    DATA     BYTE      PCON
      000000BCH   SFRSYM    DATA     BYTE      ADC_CONTR
      000000E7H   SFRSYM    DATA     BYTE      CMPCR2
      000000E6H   SFRSYM    DATA     BYTE      CMPCR1
      000000DEH   SFRSYM    DATA     BYTE      ADCCFG
      000000B8H   SFRSYM    DATA     BYTE      IP
      0000008FH   SFRSYM    DATA     BYTE      INTCLKO
      000000EEH   SFRSYM    DATA     BYTE      IP3H
      000000B6H   SFRSYM    DATA     BYTE      IP2H
      000000A8H   SFRSYM    DATA     BYTE      IE
      000000BBH   SFRSYM    DATA     BYTE      P_SW3
      000000BAH   SFRSYM    DATA     BYTE      P_SW2
      000000A2H   SFRSYM    DATA     BYTE      P_SW1
      000000CEH   SFRSYM    DATA     BYTE      SPCTL
      000000F8H   SFRSYM    DATA     BYTE      P7
      000000E8H   SFRSYM    DATA     BYTE      P6
      000000C8H   SFRSYM    DATA     BYTE      P5
      000000C0H   SFRSYM    DATA     BYTE      P4
      000000B0H   SFRSYM    DATA     BYTE      P3
      000000A0H   SFRSYM    DATA     BYTE      P2
      00000090H   SFRSYM    DATA     BYTE      P1
      00000080H   SFRSYM    DATA     BYTE      P0
      00011FD5H   SYMBOL    XDATA    BYTE      dat
      00011CF2H   SYMBOL    XDATA    WORD      x1
      00011CF4H   SYMBOL    XDATA    WORD      y1
      00011CF6H   SYMBOL    XDATA    WORD      x2
      00011CF8H   SYMBOL    XDATA    WORD      y2
      00011E2AH   SYMBOL    XDATA    WORD      color
      00011E2CH   SYMBOL    XDATA    WORD      i
      00011E2EH   SYMBOL    XDATA    WORD      j
      00011FBAH   SYMBOL    XDATA    INT       dir
      00011F32H   SYMBOL    XDATA    WORD      pen
      00011F34H   SYMBOL    XDATA    WORD      bgcolor
      00011E30H   SYMBOL    XDATA    WORD      x
      00011E32H   SYMBOL    XDATA    WORD      y
      00011E34H   SYMBOL    XDATA    WORD      color
      00011CFAH   SYMBOL    XDATA    WORD      x
      00011CFCH   SYMBOL    XDATA    WORD      y
      00011CFEH   SYMBOL    XDATA    CHAR      dat
      00011CFFH   SYMBOL    XDATA    BYTE      i
      00011D00H   SYMBOL    XDATA    BYTE      j
      00011D01H   SYMBOL    XDATA    BYTE      temp
      00011B40H   SYMBOL    XDATA    WORD      x
      00011B42H   SYMBOL    XDATA    WORD      y
      00011B44H   SYMBOL    XDATA    ---       dat
      00011B48H   SYMBOL    XDATA    WORD      j
      00011BD3H   SYMBOL    XDATA    WORD      x
      00011BD5H   SYMBOL    XDATA    WORD      y
      00011BD7H   SYMBOL    XDATA    CHAR      dat
      00011BD8H   SYMBOL    XDATA    ---       a
      00011BDBH   SYMBOL    XDATA    BYTE      i
      00011BDCH   SYMBOL    XDATA    WORD      x
      00011BDEH   SYMBOL    XDATA    WORD      y
      00011BE0H   SYMBOL    XDATA    BYTE      dat
      00011BE1H   SYMBOL    XDATA    ---       a
      00011BE4H   SYMBOL    XDATA    BYTE      i
      000119F4H   SYMBOL    XDATA    WORD      x
      000119F6H   SYMBOL    XDATA    WORD      y
      000119F8H   SYMBOL    XDATA    INT       dat
      000119FAH   SYMBOL    XDATA    ---       a
      000119FFH   SYMBOL    XDATA    BYTE      i
      00011A00H   SYMBOL    XDATA    WORD      x
      00011A02H   SYMBOL    XDATA    WORD      y
      00011A04H   SYMBOL    XDATA    WORD      dat
L251 LINKER/LOCATER V4.66.93.0                                                        04/22/2026  19:49:03  PAGE 112


      00011A06H   SYMBOL    XDATA    ---       a
      00011A0BH   SYMBOL    XDATA    BYTE      i
      000110C4H   SYMBOL    XDATA    WORD      x
      000110C6H   SYMBOL    XDATA    WORD      y
      000110C8H   SYMBOL    XDATA    LONG      dat
      000110CCH   SYMBOL    XDATA    BYTE      num
      000110CDH   SYMBOL    XDATA    ---       buff
      000110EFH   SYMBOL    XDATA    BYTE      length
      00011009H   SYMBOL    XDATA    WORD      x
      0001100BH   SYMBOL    XDATA    WORD      y
      0001100DH   SYMBOL    XDATA    FLOAT     dat
      00011011H   SYMBOL    XDATA    BYTE      num
      00011012H   SYMBOL    XDATA    BYTE      pointnum
      00011013H   SYMBOL    XDATA    BYTE      length
      00011014H   SYMBOL    XDATA    ---       buff
      00011036H   SYMBOL    XDATA    CHAR      start
      00011037H   SYMBOL    XDATA    CHAR      end
      00011038H   SYMBOL    XDATA    CHAR      point
      00011252H   SYMBOL    XDATA    WORD      x
      00011254H   SYMBOL    XDATA    WORD      y
      00011256H   SYMBOL    XDATA    ---       p
      0001125AH   SYMBOL    XDATA    WORD      width
      0001125CH   SYMBOL    XDATA    WORD      value_max
      0001125EH   SYMBOL    XDATA    WORD      dis_width
      00011260H   SYMBOL    XDATA    WORD      dis_value_max
      00011262H   SYMBOL    XDATA    DWORD     i
      00011266H   SYMBOL    XDATA    DWORD     j
      0001126AH   SYMBOL    XDATA    DWORD     width_index
      0001126EH   SYMBOL    XDATA    DWORD     value_max_index
      00011405H   SYMBOL    XDATA    WORD      x
      00011407H   SYMBOL    XDATA    WORD      y
      00011409H   SYMBOL    XDATA    BYTE      siz
      0001140AH   SYMBOL    XDATA    ---       p
      0001140EH   SYMBOL    XDATA    BYTE      number
      0001140FH   SYMBOL    XDATA    WORD      color
      00011411H   SYMBOL    XDATA    INT       i
      00011413H   SYMBOL    XDATA    INT       j
      00011415H   SYMBOL    XDATA    INT       k
      00011417H   SYMBOL    XDATA    BYTE      temp
      00011418H   SYMBOL    XDATA    BYTE      temp1
      00011419H   SYMBOL    XDATA    BYTE      temp2
      0001141AH   SYMBOL    XDATA    ---       p_data

      ---         MODULE    ---      ---       zf_device_ips200pro
      00010E48H   PUBLIC    XDATA    ---       ips200pro_information
      00010E51H   PUBLIC    XDATA    ---       ips200pro_time
      0001180BH   PUBLIC    XDATA    BYTE      ?ips200pro_send_buffer?BYTE
      000118B8H   PUBLIC    XDATA    BYTE      ?ips200pro_receive_buffer?BYTE
      000112D1H   PUBLIC    XDATA    BYTE      ?ips200pro_write_packet?BYTE
      00011384H   PUBLIC    XDATA    BYTE      ?ips200pro_create_widgets?BYTE
      00010F5AH   PUBLIC    XDATA    BYTE      ?ips200pro_label_printf?BYTE
      00010ED4H   PUBLIC    XDATA    BYTE      ?ips200pro_table_cell_printf?BYTE
      0001139FH   PUBLIC    XDATA    BYTE      ?ips200pro_waveform_add_value?BYTE
      0001119BH   PUBLIC    XDATA    BYTE      ?ips200pro_image_display?BYTE
      000113B9H   PUBLIC    XDATA    BYTE      ?ips200pro_image_draw_line?BYTE
      00011210H   PUBLIC    XDATA    BYTE      ?ips200pro_image_draw_rectangle?BYTE
      000000D0H   SFRSYM    DATA     BYTE      PSW
      0000009DH   SFRSYM    DATA     BYTE      IRCBAND
      00000097H   SFRSYM    DATA     BYTE      AUXR2
      000000EFH   SFRSYM    DATA     BYTE      AUXINTIF
      000000FDH   SFRSYM    DATA     BYTE      S4CON
      000000ACH   SFRSYM    DATA     BYTE      S3CON
      0000009AH   SFRSYM    DATA     BYTE      S2CON
      000000B7H   SFRSYM    DATA     BYTE      IPH
      000000CDH   SFRSYM    DATA     BYTE      SPSTAT
L251 LINKER/LOCATER V4.66.93.0                                                        04/22/2026  19:49:03  PAGE 113


      000000DDH   SFRSYM    DATA     BYTE      T4T3M
      000000C1H   SFRSYM    DATA     BYTE      WDT_CONTR
      000000DFH   SFRSYM    DATA     BYTE      IP3
      000000F4H   SFRSYM    DATA     BYTE      USBCON
      000000B5H   SFRSYM    DATA     BYTE      IP2
      000000FFH   SFRSYM    DATA     BYTE      RSTCFG
      000000C7H   SFRSYM    DATA     BYTE      IAP_CONTR
      000000F9H   SFRSYM    DATA     BYTE      LINICR
      0000008EH   SFRSYM    DATA     BYTE      AUXR
      000000AFH   SFRSYM    DATA     BYTE      IE2
      00000088H   SFRSYM    DATA     BYTE      TCON
      00000089H   SFRSYM    DATA     BYTE      TMOD
      00000098H   SFRSYM    DATA     BYTE      SCON
      000000A0H.2 SFRSYM    DATA     BIT       P22
      000000A0H.1 SFRSYM    DATA     BIT       P21
      000000F1H   SFRSYM    DATA     BYTE      CANICR
      00000087H   SFRSYM    DATA     BYTE      PCON
      000000BCH   SFRSYM    DATA     BYTE      ADC_CONTR
      000000E7H   SFRSYM    DATA     BYTE      CMPCR2
      000000E6H   SFRSYM    DATA     BYTE      CMPCR1
      000000DEH   SFRSYM    DATA     BYTE      ADCCFG
      000000B8H   SFRSYM    DATA     BYTE      IP
      0000008FH   SFRSYM    DATA     BYTE      INTCLKO
      000000EEH   SFRSYM    DATA     BYTE      IP3H
      000000B6H   SFRSYM    DATA     BYTE      IP2H
      000000A8H   SFRSYM    DATA     BYTE      IE
      000000BBH   SFRSYM    DATA     BYTE      P_SW3
      000000BAH   SFRSYM    DATA     BYTE      P_SW2
      000000A2H   SFRSYM    DATA     BYTE      P_SW1
      000000CEH   SFRSYM    DATA     BYTE      SPCTL
      000000F8H   SFRSYM    DATA     BYTE      P7
      000000E8H   SFRSYM    DATA     BYTE      P6
      000000C8H   SFRSYM    DATA     BYTE      P5
      000000C0H   SFRSYM    DATA     BYTE      P4
      000000B0H   SFRSYM    DATA     BYTE      P3
      000000A0H   SFRSYM    DATA     BYTE      P2
      00000090H   SFRSYM    DATA     BYTE      P1
      00000080H   SFRSYM    DATA     BYTE      P0
      00010E15H   SYMBOL    XDATA    ---       ips200pro_printf_buffer
      00010E59H   SYMBOL    XDATA    BYTE      ips200pro_page_num
      00011F36H   SYMBOL    XDATA    DWORD     wait_time
      0001180BH   SYMBOL    XDATA    ---       buffer
      0001180FH   SYMBOL    XDATA    DWORD     length
      00011813H   SYMBOL    XDATA    DWORD     time_out
      00011817H   SYMBOL    XDATA    BYTE      end_flag
      00011818H   SYMBOL    XDATA    BYTE      return_state
      000118B8H   SYMBOL    XDATA    ---       buffer
      000118BCH   SYMBOL    XDATA    DWORD     length
      000118C0H   SYMBOL    XDATA    DWORD     time_out
      000118C4H   SYMBOL    XDATA    BYTE      return_state
      000112D1H   SYMBOL    XDATA    INT       command1
      000112D3H   SYMBOL    XDATA    INT       command2
      000112D5H   SYMBOL    XDATA    BYTE      widgets_id
      000112D6H   SYMBOL    XDATA    ---       temp
      000112DAH   SYMBOL    XDATA    DWORD     length
      000112DEH   SYMBOL    XDATA    ---       buffer
      000112E2H   SYMBOL    XDATA    DWORD     buffer_length
      000112E6H   SYMBOL    XDATA    BYTE      return_state
      000112E7H   SYMBOL    XDATA    ---       p
      000112EBH   SYMBOL    XDATA    BYTE      tmp
      000112ECH   SYMBOL    XDATA    WORD      i
      000112EEH   SYMBOL    XDATA    WORD      struct_len
      00011D02H   SYMBOL    XDATA    INT       command2
      00011D04H   SYMBOL    XDATA    ---       temp
      00011D08H   SYMBOL    XDATA    BYTE      length
L251 LINKER/LOCATER V4.66.93.0                                                        04/22/2026  19:49:03  PAGE 114


      00011D09H   SYMBOL    XDATA    BYTE      return_state
      0001164FH   SYMBOL    XDATA    WORD      year
      00011651H   SYMBOL    XDATA    BYTE      month
      00011652H   SYMBOL    XDATA    BYTE      day
      00011653H   SYMBOL    XDATA    BYTE      return_state
      00011654H   SYMBOL    XDATA    ---       temp
      000116E6H   SYMBOL    XDATA    BYTE      hour
      000116E7H   SYMBOL    XDATA    BYTE      minute
      000116E8H   SYMBOL    XDATA    BYTE      second
      000116E9H   SYMBOL    XDATA    BYTE      return_state
      000116EAH   SYMBOL    XDATA    ---       temp
      00011660H   SYMBOL    XDATA    WORD      child_id
      00011662H   SYMBOL    XDATA    WORD      parent_id
      00011664H   SYMBOL    XDATA    BYTE      return_state
      00011665H   SYMBOL    XDATA    ---       temp
      000118C5H   SYMBOL    XDATA    INT       format
      000118C7H   SYMBOL    XDATA    BYTE      return_state
      000118C8H   SYMBOL    XDATA    ---       temp
      00011A0CH   SYMBOL    XDATA    BYTE      backlight
      00011A0DH   SYMBOL    XDATA    BYTE      return_state
      00011A0EH   SYMBOL    XDATA    ---       temp
      000118D2H   SYMBOL    XDATA    INT       dir
      000118D4H   SYMBOL    XDATA    BYTE      return_state
      000118D5H   SYMBOL    XDATA    ---       temp
      00011A18H   SYMBOL    XDATA    BYTE      crc_state
      00011A19H   SYMBOL    XDATA    BYTE      return_state
      00011A1AH   SYMBOL    XDATA    ---       temp
      000118DFH   SYMBOL    XDATA    INT       font
      000118E1H   SYMBOL    XDATA    BYTE      return_state
      000118E2H   SYMBOL    XDATA    ---       temp
      00011A24H   SYMBOL    XDATA    BYTE      state
      00011A25H   SYMBOL    XDATA    BYTE      return_state
      00011A26H   SYMBOL    XDATA    ---       temp
      00011671H   SYMBOL    XDATA    ---       time
      00011675H   SYMBOL    XDATA    BYTE      return_state
      00011676H   SYMBOL    XDATA    ---       temp
      00011682H   SYMBOL    XDATA    ---       time
      00011686H   SYMBOL    XDATA    BYTE      return_state
      00011687H   SYMBOL    XDATA    ---       temp
      000114ACH   SYMBOL    XDATA    ---       information
      000114B0H   SYMBOL    XDATA    BYTE      return_state
      000114B1H   SYMBOL    XDATA    ---       temp
      00011693H   SYMBOL    XDATA    ---       stack_size
      00011697H   SYMBOL    XDATA    BYTE      return_state
      00011698H   SYMBOL    XDATA    ---       temp
      00011384H   SYMBOL    XDATA    WORD      widgets_id
      00011386H   SYMBOL    XDATA    INT       x
      00011388H   SYMBOL    XDATA    INT       y
      0001138AH   SYMBOL    XDATA    WORD      width
      0001138CH   SYMBOL    XDATA    WORD      height
      0001138EH   SYMBOL    XDATA    BYTE      return_state
      0001138FH   SYMBOL    XDATA    ---       temp
      00011AC6H   SYMBOL    XDATA    WORD      widgets_id
      00011AC8H   SYMBOL    XDATA    BYTE      return_state
      00011AC9H   SYMBOL    XDATA    ---       temp
      00011716H   SYMBOL    XDATA    WORD      widgets_id
      00011718H   SYMBOL    XDATA    INT       font_size
      0001171AH   SYMBOL    XDATA    BYTE      return_state
      0001171BH   SYMBOL    XDATA    ---       temp
      00011588H   SYMBOL    XDATA    WORD      widgets_id
      0001158AH   SYMBOL    XDATA    INT       color_type
      0001158CH   SYMBOL    XDATA    WORD      color
      0001158EH   SYMBOL    XDATA    BYTE      return_state
      0001158FH   SYMBOL    XDATA    ---       temp
      0001159BH   SYMBOL    XDATA    WORD      widgets_id
L251 LINKER/LOCATER V4.66.93.0                                                        04/22/2026  19:49:03  PAGE 115


      0001159DH   SYMBOL    XDATA    INT       x
      0001159FH   SYMBOL    XDATA    INT       y
      000115A1H   SYMBOL    XDATA    BYTE      return_state
      000115A2H   SYMBOL    XDATA    ---       temp
      00011819H   SYMBOL    XDATA    WORD      widgets_id
      0001181BH   SYMBOL    XDATA    BYTE      state
      0001181CH   SYMBOL    XDATA    BYTE      return_state
      0001181DH   SYMBOL    XDATA    ---       temp
      00011EB9H   SYMBOL    XDATA    ---       str
      00011EBDH   SYMBOL    XDATA    BYTE      return_state
      00011725H   SYMBOL    XDATA    WORD      page_id
      00011727H   SYMBOL    XDATA    INT       anim_en
      00011729H   SYMBOL    XDATA    BYTE      return_state
      0001172AH   SYMBOL    XDATA    ---       temp
      00011F3AH   SYMBOL    XDATA    WORD      page_id
      00011F3CH   SYMBOL    XDATA    BYTE      state
      00011F3DH   SYMBOL    XDATA    BYTE      return_state
      00011734H   SYMBOL    XDATA    WORD      page_id
      00011736H   SYMBOL    XDATA    ---       str
      0001173AH   SYMBOL    XDATA    BYTE      return_state
      0001173BH   SYMBOL    XDATA    ---       temp
      000116F6H   SYMBOL    XDATA    INT       title_position
      000116F8H   SYMBOL    XDATA    BYTE      title_width
      000116F9H   SYMBOL    XDATA    BYTE      return_state
      000116FAH   SYMBOL    XDATA    ---       temp
      00011BE5H   SYMBOL    XDATA    INT       x
      00011BE7H   SYMBOL    XDATA    INT       y
      00011BE9H   SYMBOL    XDATA    WORD      width
      00011BEBH   SYMBOL    XDATA    WORD      height
      00011BEDH   SYMBOL    XDATA    BYTE      return_state
      00010E5AH   SYMBOL    XDATA    BYTE      lebel_num
      00010F5AH   SYMBOL    XDATA    WORD      label_id
      00010F5CH   SYMBOL    XDATA    ---       format
      00010F60H   SYMBOL    XDATA    LONG      str_length
      00010F64H   SYMBOL    XDATA    BYTE      return_state
      00010F65H   SYMBOL    XDATA    ---       temp
      00010F6DH   SYMBOL    XDATA    ---       arg
      00011743H   SYMBOL    XDATA    WORD      label_id
      00011745H   SYMBOL    XDATA    ---       str
      00011749H   SYMBOL    XDATA    BYTE      return_state
      0001174AH   SYMBOL    XDATA    ---       temp
      00011752H   SYMBOL    XDATA    WORD      label_id
      00011754H   SYMBOL    XDATA    INT       mode
      00011756H   SYMBOL    XDATA    BYTE      return_state
      00011757H   SYMBOL    XDATA    ---       temp
      00011BEEH   SYMBOL    XDATA    INT       x
      00011BF0H   SYMBOL    XDATA    INT       y
      00011BF2H   SYMBOL    XDATA    WORD      row_num
      00011BF4H   SYMBOL    XDATA    WORD      col_num
      00011BF6H   SYMBOL    XDATA    BYTE      return_state
      00010E5BH   SYMBOL    XDATA    BYTE      table_num
      00010ED4H   SYMBOL    XDATA    WORD      table_id
      00010ED6H   SYMBOL    XDATA    BYTE      row
      00010ED7H   SYMBOL    XDATA    BYTE      col
      00010ED8H   SYMBOL    XDATA    ---       format
      00010EDCH   SYMBOL    XDATA    LONG      str_length
      00010EE0H   SYMBOL    XDATA    BYTE      return_state
      00010EE1H   SYMBOL    XDATA    ---       arg
      00010EE5H   SYMBOL    XDATA    ---       temp
      000115F8H   SYMBOL    XDATA    WORD      table_id
      000115FAH   SYMBOL    XDATA    BYTE      col
      000115FBH   SYMBOL    XDATA    WORD      width
      000115FDH   SYMBOL    XDATA    BYTE      return_state
      000115FEH   SYMBOL    XDATA    ---       temp
      000116A4H   SYMBOL    XDATA    WORD      table_id
L251 LINKER/LOCATER V4.66.93.0                                                        04/22/2026  19:49:03  PAGE 116


      000116A6H   SYMBOL    XDATA    BYTE      row
      000116A7H   SYMBOL    XDATA    BYTE      col
      000116A8H   SYMBOL    XDATA    BYTE      return_state
      000116A9H   SYMBOL    XDATA    ---       temp
      00011BF7H   SYMBOL    XDATA    INT       x
      00011BF9H   SYMBOL    XDATA    INT       y
      00011BFBH   SYMBOL    XDATA    WORD      siz
      00011BFDH   SYMBOL    XDATA    INT       style
      00011BFFH   SYMBOL    XDATA    BYTE      return_state
      00010E5CH   SYMBOL    XDATA    BYTE      meter_num
      00011761H   SYMBOL    XDATA    WORD      meter_id
      00011763H   SYMBOL    XDATA    INT       value
      00011765H   SYMBOL    XDATA    BYTE      return_state
      00011766H   SYMBOL    XDATA    ---       temp
      00011C00H   SYMBOL    XDATA    INT       x
      00011C02H   SYMBOL    XDATA    INT       y
      00011C04H   SYMBOL    XDATA    WORD      clock_size
      00011C06H   SYMBOL    XDATA    INT       clock_type
      00011C08H   SYMBOL    XDATA    BYTE      return_state
      00010E5DH   SYMBOL    XDATA    BYTE      clock_num
      00011C09H   SYMBOL    XDATA    INT       x
      00011C0BH   SYMBOL    XDATA    INT       y
      00011C0DH   SYMBOL    XDATA    WORD      width
      00011C0FH   SYMBOL    XDATA    WORD      height
      00011C11H   SYMBOL    XDATA    BYTE      return_state
      00010E5EH   SYMBOL    XDATA    BYTE      progress_bar_num
      000116B5H   SYMBOL    XDATA    WORD      progress_bar_id
      000116B7H   SYMBOL    XDATA    BYTE      start_value
      000116B8H   SYMBOL    XDATA    BYTE      end_value
      000116B9H   SYMBOL    XDATA    BYTE      return_state
      000116BAH   SYMBOL    XDATA    ---       temp
      00011C12H   SYMBOL    XDATA    INT       x
      00011C14H   SYMBOL    XDATA    INT       y
      00011C16H   SYMBOL    XDATA    WORD      width
      00011C18H   SYMBOL    XDATA    WORD      height
      00011C1AH   SYMBOL    XDATA    BYTE      return_state
      0001160AH   SYMBOL    XDATA    WORD      year
      0001160CH   SYMBOL    XDATA    BYTE      month
      0001160DH   SYMBOL    XDATA    INT       mode
      0001160FH   SYMBOL    XDATA    BYTE      return_state
      00011610H   SYMBOL    XDATA    ---       temp
      00011C1BH   SYMBOL    XDATA    INT       x
      00011C1DH   SYMBOL    XDATA    INT       y
      00011C1FH   SYMBOL    XDATA    WORD      width
      00011C21H   SYMBOL    XDATA    WORD      height
      00011C23H   SYMBOL    XDATA    BYTE      return_state
      00010E5FH   SYMBOL    XDATA    BYTE      waveform_num
      0001139FH   SYMBOL    XDATA    WORD      waveform_id
      000113A1H   SYMBOL    XDATA    BYTE      line_id
      000113A2H   SYMBOL    XDATA    ---       dat
      000113A6H   SYMBOL    XDATA    WORD      length
      000113A8H   SYMBOL    XDATA    WORD      color
      000113AAH   SYMBOL    XDATA    BYTE      return_state
      000113ABH   SYMBOL    XDATA    WORD      i
      000113ADH   SYMBOL    XDATA    ---       temp
      000115AEH   SYMBOL    XDATA    WORD      waveform_id
      000115B0H   SYMBOL    XDATA    WORD      line_id
      000115B2H   SYMBOL    XDATA    WORD      line_state
      000115B4H   SYMBOL    XDATA    BYTE      return_state
      000115B5H   SYMBOL    XDATA    ---       temp
      00011827H   SYMBOL    XDATA    WORD      waveform_id
      00011829H   SYMBOL    XDATA    BYTE      line_type
      0001182AH   SYMBOL    XDATA    BYTE      return_state
      0001182BH   SYMBOL    XDATA    ---       temp
      00011AD1H   SYMBOL    XDATA    WORD      waveform_id
L251 LINKER/LOCATER V4.66.93.0                                                        04/22/2026  19:49:03  PAGE 117


      00011AD3H   SYMBOL    XDATA    BYTE      return_state
      00011AD4H   SYMBOL    XDATA    ---       temp
      00011C24H   SYMBOL    XDATA    INT       x
      00011C26H   SYMBOL    XDATA    INT       y
      00011C28H   SYMBOL    XDATA    WORD      width
      00011C2AH   SYMBOL    XDATA    WORD      height
      00011C2CH   SYMBOL    XDATA    BYTE      return_state
      00010E60H   SYMBOL    XDATA    BYTE      image_num
      0001119BH   SYMBOL    XDATA    WORD      image_id
      0001119DH   SYMBOL    XDATA    ---       image
      000111A1H   SYMBOL    XDATA    WORD      width
      000111A3H   SYMBOL    XDATA    WORD      height
      000111A5H   SYMBOL    XDATA    INT       image_type
      000111A7H   SYMBOL    XDATA    BYTE      threshold
      000111A8H   SYMBOL    XDATA    BYTE      return_state
      000111A9H   SYMBOL    XDATA    WORD      send_length
      000111ABH   SYMBOL    XDATA    DWORD     image_size
      000111AFH   SYMBOL    XDATA    ---       image_data
      000111B3H   SYMBOL    XDATA    ---       temp
      000113B9H   SYMBOL    XDATA    WORD      image_id
      000113BBH   SYMBOL    XDATA    BYTE      line_id
      000113BCH   SYMBOL    XDATA    ---       line_data
      000113C0H   SYMBOL    XDATA    WORD      line_length
      000113C2H   SYMBOL    XDATA    INT       data_type
      000113C4H   SYMBOL    XDATA    WORD      color
      000113C6H   SYMBOL    XDATA    BYTE      return_state
      000113C7H   SYMBOL    XDATA    ---       temp
      00011210H   SYMBOL    XDATA    WORD      image_id
      00011212H   SYMBOL    XDATA    BYTE      rectangle_id
      00011213H   SYMBOL    XDATA    INT       x
      00011215H   SYMBOL    XDATA    INT       y
      00011217H   SYMBOL    XDATA    WORD      rectangle_width
      00011219H   SYMBOL    XDATA    WORD      rectangle_height
      0001121BH   SYMBOL    XDATA    WORD      color
      0001121DH   SYMBOL    XDATA    BYTE      return_state
      0001121EH   SYMBOL    XDATA    ---       temp
      00011C2DH   SYMBOL    XDATA    INT       x
      00011C2FH   SYMBOL    XDATA    INT       y
      00011C31H   SYMBOL    XDATA    WORD      width
      00011C33H   SYMBOL    XDATA    WORD      height
      00011C35H   SYMBOL    XDATA    BYTE      return_state
      00010E61H   SYMBOL    XDATA    BYTE      container_num
      000115C1H   SYMBOL    XDATA    WORD      container_id
      000115C3H   SYMBOL    XDATA    WORD      border_width
      000115C5H   SYMBOL    XDATA    WORD      radius
      000115C7H   SYMBOL    XDATA    BYTE      return_state
      000115C8H   SYMBOL    XDATA    ---       temp
      00011C36H   SYMBOL    XDATA    ---       str
      00011C3AH   SYMBOL    XDATA    INT       title_position
      00011C3CH   SYMBOL    XDATA    BYTE      title_size
      00011C3DH   SYMBOL    XDATA    WORD      page_id

      ---         MODULE    ---      ---       zf_device_tft180
      00011D0AH   PUBLIC    XDATA    WORD      tft180_pencolor
      00011D0CH   PUBLIC    XDATA    WORD      tft180_bgcolor
      00011D0EH   PUBLIC    XDATA    INT       tft180_display_dir
      00011D10H   PUBLIC    XDATA    BYTE      tft180_x_max
      00011D11H   PUBLIC    XDATA    BYTE      tft180_y_max
      00011039H   PUBLIC    XDATA    BYTE      ?tft180_show_float?BYTE
      00011272H   PUBLIC    XDATA    BYTE      ?tft180_show_wave?BYTE
      000000D0H   SFRSYM    DATA     BYTE      PSW
      0000009DH   SFRSYM    DATA     BYTE      IRCBAND
      00000097H   SFRSYM    DATA     BYTE      AUXR2
      000000EFH   SFRSYM    DATA     BYTE      AUXINTIF
      000000FDH   SFRSYM    DATA     BYTE      S4CON
L251 LINKER/LOCATER V4.66.93.0                                                        04/22/2026  19:49:03  PAGE 118


      000000ACH   SFRSYM    DATA     BYTE      S3CON
      0000009AH   SFRSYM    DATA     BYTE      S2CON
      000000B7H   SFRSYM    DATA     BYTE      IPH
      000000CDH   SFRSYM    DATA     BYTE      SPSTAT
      000000DDH   SFRSYM    DATA     BYTE      T4T3M
      000000C1H   SFRSYM    DATA     BYTE      WDT_CONTR
      000000DFH   SFRSYM    DATA     BYTE      IP3
      000000F4H   SFRSYM    DATA     BYTE      USBCON
      000000B5H   SFRSYM    DATA     BYTE      IP2
      000000FFH   SFRSYM    DATA     BYTE      RSTCFG
      000000C7H   SFRSYM    DATA     BYTE      IAP_CONTR
      000000F9H   SFRSYM    DATA     BYTE      LINICR
      0000008EH   SFRSYM    DATA     BYTE      AUXR
      000000AFH   SFRSYM    DATA     BYTE      IE2
      00000088H   SFRSYM    DATA     BYTE      TCON
      00000089H   SFRSYM    DATA     BYTE      TMOD
      00000098H   SFRSYM    DATA     BYTE      SCON
      000000A0H.2 SFRSYM    DATA     BIT       P22
      000000A0H.1 SFRSYM    DATA     BIT       P21
      000000A0H.0 SFRSYM    DATA     BIT       P20
      000000F1H   SFRSYM    DATA     BYTE      CANICR
      00000087H   SFRSYM    DATA     BYTE      PCON
      000000BCH   SFRSYM    DATA     BYTE      ADC_CONTR
      000000E7H   SFRSYM    DATA     BYTE      CMPCR2
      000000E6H   SFRSYM    DATA     BYTE      CMPCR1
      000000DEH   SFRSYM    DATA     BYTE      ADCCFG
      000000B8H   SFRSYM    DATA     BYTE      IP
      0000008FH   SFRSYM    DATA     BYTE      INTCLKO
      000000EEH   SFRSYM    DATA     BYTE      IP3H
      000000B6H   SFRSYM    DATA     BYTE      IP2H
      000000A8H   SFRSYM    DATA     BYTE      IE
      000000BBH   SFRSYM    DATA     BYTE      P_SW3
      000000BAH   SFRSYM    DATA     BYTE      P_SW2
      000000A2H   SFRSYM    DATA     BYTE      P_SW1
      000000CEH   SFRSYM    DATA     BYTE      SPCTL
      000000F8H   SFRSYM    DATA     BYTE      P7
      000000E8H   SFRSYM    DATA     BYTE      P6
      000000C8H   SFRSYM    DATA     BYTE      P5
      000000C0H   SFRSYM    DATA     BYTE      P4
      000000B0H   SFRSYM    DATA     BYTE      P3
      000000A0H   SFRSYM    DATA     BYTE      P2
      00000090H   SFRSYM    DATA     BYTE      P1
      00000080H   SFRSYM    DATA     BYTE      P0
      00011FD6H   SYMBOL    XDATA    BYTE      dat
      00011D12H   SYMBOL    XDATA    WORD      x1
      00011D14H   SYMBOL    XDATA    WORD      y1
      00011D16H   SYMBOL    XDATA    WORD      x2
      00011D18H   SYMBOL    XDATA    WORD      y2
      00011E36H   SYMBOL    XDATA    WORD      color
      00011E38H   SYMBOL    XDATA    DWORD     i
      00011FBCH   SYMBOL    XDATA    INT       dir
      00011F3EH   SYMBOL    XDATA    WORD      pen
      00011F40H   SYMBOL    XDATA    WORD      bgcolor
      00011E3CH   SYMBOL    XDATA    WORD      x
      00011E3EH   SYMBOL    XDATA    WORD      y
      00011E40H   SYMBOL    XDATA    WORD      color
      00011D1AH   SYMBOL    XDATA    WORD      x
      00011D1CH   SYMBOL    XDATA    WORD      y
      00011D1EH   SYMBOL    XDATA    CHAR      dat
      00011D1FH   SYMBOL    XDATA    BYTE      i
      00011D20H   SYMBOL    XDATA    BYTE      j
      00011D21H   SYMBOL    XDATA    BYTE      temp
      00011B4AH   SYMBOL    XDATA    WORD      x
      00011B4CH   SYMBOL    XDATA    WORD      y
      00011B4EH   SYMBOL    XDATA    ---       dat
L251 LINKER/LOCATER V4.66.93.0                                                        04/22/2026  19:49:03  PAGE 119


      00011B52H   SYMBOL    XDATA    WORD      j
      00011C3FH   SYMBOL    XDATA    WORD      x
      00011C41H   SYMBOL    XDATA    WORD      y
      00011C43H   SYMBOL    XDATA    CHAR      dat
      00011C44H   SYMBOL    XDATA    ---       a
      00011C47H   SYMBOL    XDATA    BYTE      i
      00011C48H   SYMBOL    XDATA    WORD      x
      00011C4AH   SYMBOL    XDATA    WORD      y
      00011C4CH   SYMBOL    XDATA    BYTE      dat
      00011C4DH   SYMBOL    XDATA    ---       a
      00011C50H   SYMBOL    XDATA    BYTE      i
      00011A30H   SYMBOL    XDATA    WORD      x
      00011A32H   SYMBOL    XDATA    WORD      y
      00011A34H   SYMBOL    XDATA    INT       dat
      00011A36H   SYMBOL    XDATA    ---       a
      00011A3BH   SYMBOL    XDATA    BYTE      i
      00011A3CH   SYMBOL    XDATA    WORD      x
      00011A3EH   SYMBOL    XDATA    WORD      y
      00011A40H   SYMBOL    XDATA    WORD      dat
      00011A42H   SYMBOL    XDATA    ---       a
      00011A47H   SYMBOL    XDATA    BYTE      i
      000110F0H   SYMBOL    XDATA    WORD      x
      000110F2H   SYMBOL    XDATA    WORD      y
      000110F4H   SYMBOL    XDATA    LONG      dat
      000110F8H   SYMBOL    XDATA    BYTE      num
      000110F9H   SYMBOL    XDATA    ---       buff
      0001111BH   SYMBOL    XDATA    BYTE      length
      00011039H   SYMBOL    XDATA    WORD      x
      0001103BH   SYMBOL    XDATA    WORD      y
      0001103DH   SYMBOL    XDATA    FLOAT     dat
      00011041H   SYMBOL    XDATA    BYTE      num
      00011042H   SYMBOL    XDATA    BYTE      pointnum
      00011043H   SYMBOL    XDATA    BYTE      length
      00011044H   SYMBOL    XDATA    ---       buff
      00011066H   SYMBOL    XDATA    CHAR      start
      00011067H   SYMBOL    XDATA    CHAR      end
      00011068H   SYMBOL    XDATA    CHAR      point
      00011272H   SYMBOL    XDATA    WORD      x
      00011274H   SYMBOL    XDATA    WORD      y
      00011276H   SYMBOL    XDATA    ---       p
      0001127AH   SYMBOL    XDATA    WORD      width
      0001127CH   SYMBOL    XDATA    WORD      value_max
      0001127EH   SYMBOL    XDATA    WORD      dis_width
      00011280H   SYMBOL    XDATA    WORD      dis_value_max
      00011282H   SYMBOL    XDATA    DWORD     i
      00011286H   SYMBOL    XDATA    DWORD     j
      0001128AH   SYMBOL    XDATA    DWORD     width_index
      0001128EH   SYMBOL    XDATA    DWORD     value_max_index

      ---         MODULE    ---      ---       zf_device_tsl1401
      0001020AH   PUBLIC    XDATA    BYTE      tsl1401_finish_flag
      0001020BH   PUBLIC    XDATA    ---       tsl1401_data
      000000D0H   SFRSYM    DATA     BYTE      PSW
      0000009DH   SFRSYM    DATA     BYTE      IRCBAND
      00000097H   SFRSYM    DATA     BYTE      AUXR2
      000000EFH   SFRSYM    DATA     BYTE      AUXINTIF
      000000FDH   SFRSYM    DATA     BYTE      S4CON
      000000ACH   SFRSYM    DATA     BYTE      S3CON
      0000009AH   SFRSYM    DATA     BYTE      S2CON
      000000B7H   SFRSYM    DATA     BYTE      IPH
      000000CDH   SFRSYM    DATA     BYTE      SPSTAT
      000000DDH   SFRSYM    DATA     BYTE      T4T3M
      000000C1H   SFRSYM    DATA     BYTE      WDT_CONTR
      000000DFH   SFRSYM    DATA     BYTE      IP3
      000000F4H   SFRSYM    DATA     BYTE      USBCON
L251 LINKER/LOCATER V4.66.93.0                                                        04/22/2026  19:49:03  PAGE 120


      000000B5H   SFRSYM    DATA     BYTE      IP2
      000000FFH   SFRSYM    DATA     BYTE      RSTCFG
      000000C7H   SFRSYM    DATA     BYTE      IAP_CONTR
      000000F9H   SFRSYM    DATA     BYTE      LINICR
      0000008EH   SFRSYM    DATA     BYTE      AUXR
      000000AFH   SFRSYM    DATA     BYTE      IE2
      00000088H   SFRSYM    DATA     BYTE      TCON
      00000089H   SFRSYM    DATA     BYTE      TMOD
      00000098H   SFRSYM    DATA     BYTE      SCON
      000000F1H   SFRSYM    DATA     BYTE      CANICR
      00000087H   SFRSYM    DATA     BYTE      PCON
      000000BCH   SFRSYM    DATA     BYTE      ADC_CONTR
      000000E7H   SFRSYM    DATA     BYTE      CMPCR2
      000000E6H   SFRSYM    DATA     BYTE      CMPCR1
      000000DEH   SFRSYM    DATA     BYTE      ADCCFG
      000000B8H   SFRSYM    DATA     BYTE      IP
      0000008FH   SFRSYM    DATA     BYTE      INTCLKO
      000000EEH   SFRSYM    DATA     BYTE      IP3H
      000000B6H   SFRSYM    DATA     BYTE      IP2H
      000000A8H   SFRSYM    DATA     BYTE      IE
      000000BBH   SFRSYM    DATA     BYTE      P_SW3
      000000BAH   SFRSYM    DATA     BYTE      P_SW2
      000000A2H   SFRSYM    DATA     BYTE      P_SW1
      000000CEH   SFRSYM    DATA     BYTE      SPCTL
      000000F8H   SFRSYM    DATA     BYTE      P7
      000000E8H   SFRSYM    DATA     BYTE      P6
      000000C8H   SFRSYM    DATA     BYTE      P5
      000000C0H   SFRSYM    DATA     BYTE      P4
      000000B0H   SFRSYM    DATA     BYTE      P3
      000000A0H   SFRSYM    DATA     BYTE      P2
      00000090H   SFRSYM    DATA     BYTE      P1
      00000080H   SFRSYM    DATA     BYTE      P0
      0001040BH   SYMBOL    XDATA    BYTE      tsl1401_init_state
      00011FD7H   SYMBOL    XDATA    BYTE      i
      00011F42H   SYMBOL    XDATA    INT       uart_n
      00011F44H   SYMBOL    XDATA    BYTE      index
      00011F45H   SYMBOL    XDATA    BYTE      i

      ---         MODULE    ---      ---       zf_device_type
      00FF91F2H   PUBLIC    CODE     ---       set_wireless_type
      00011D22H   PUBLIC    XDATA    ---       tof_module_exti_handler
      00011D24H   PUBLIC    XDATA    INT       wireless_type
      00011D26H   PUBLIC    XDATA    INT       tof_type
      00011D28H   PUBLIC    XDATA    INT       gps_type
      000000D0H   SFRSYM    DATA     BYTE      PSW
      0000009DH   SFRSYM    DATA     BYTE      IRCBAND
      00000097H   SFRSYM    DATA     BYTE      AUXR2
      000000EFH   SFRSYM    DATA     BYTE      AUXINTIF
      000000FDH   SFRSYM    DATA     BYTE      S4CON
      000000ACH   SFRSYM    DATA     BYTE      S3CON
      0000009AH   SFRSYM    DATA     BYTE      S2CON
      000000B7H   SFRSYM    DATA     BYTE      IPH
      000000CDH   SFRSYM    DATA     BYTE      SPSTAT
      000000DDH   SFRSYM    DATA     BYTE      T4T3M
      000000C1H   SFRSYM    DATA     BYTE      WDT_CONTR
      000000DFH   SFRSYM    DATA     BYTE      IP3
      000000F4H   SFRSYM    DATA     BYTE      USBCON
      000000B5H   SFRSYM    DATA     BYTE      IP2
      000000FFH   SFRSYM    DATA     BYTE      RSTCFG
      000000C7H   SFRSYM    DATA     BYTE      IAP_CONTR
      000000F9H   SFRSYM    DATA     BYTE      LINICR
      0000008EH   SFRSYM    DATA     BYTE      AUXR
      000000AFH   SFRSYM    DATA     BYTE      IE2
      00000088H   SFRSYM    DATA     BYTE      TCON
      00000089H   SFRSYM    DATA     BYTE      TMOD
L251 LINKER/LOCATER V4.66.93.0                                                        04/22/2026  19:49:03  PAGE 121


      00000098H   SFRSYM    DATA     BYTE      SCON
      000000F1H   SFRSYM    DATA     BYTE      CANICR
      00000087H   SFRSYM    DATA     BYTE      PCON
      000000BCH   SFRSYM    DATA     BYTE      ADC_CONTR
      000000E7H   SFRSYM    DATA     BYTE      CMPCR2
      000000E6H   SFRSYM    DATA     BYTE      CMPCR1
      000000DEH   SFRSYM    DATA     BYTE      ADCCFG
      000000B8H   SFRSYM    DATA     BYTE      IP
      0000008FH   SFRSYM    DATA     BYTE      INTCLKO
      000000EEH   SFRSYM    DATA     BYTE      IP3H
      000000B6H   SFRSYM    DATA     BYTE      IP2H
      000000A8H   SFRSYM    DATA     BYTE      IE
      000000BBH   SFRSYM    DATA     BYTE      P_SW3
      000000BAH   SFRSYM    DATA     BYTE      P_SW2
      000000A2H   SFRSYM    DATA     BYTE      P_SW1
      000000CEH   SFRSYM    DATA     BYTE      SPCTL
      000000F8H   SFRSYM    DATA     BYTE      P7
      000000E8H   SFRSYM    DATA     BYTE      P6
      000000C8H   SFRSYM    DATA     BYTE      P5
      000000C0H   SFRSYM    DATA     BYTE      P4
      000000B0H   SFRSYM    DATA     BYTE      P3
      000000A0H   SFRSYM    DATA     BYTE      P2
      00000090H   SFRSYM    DATA     BYTE      P1
      00000080H   SFRSYM    DATA     BYTE      P0

      00FF91F2H   BLOCK     CODE     ---       LVL=0
      00011D2AH   SYMBOL    XDATA    INT       type_set
      00011D2CH   SYMBOL    XDATA    INT       uartx
      00011D2EH   SYMBOL    XDATA    ---       uart_callback
      00FF91F2H   LINE      CODE     ---       #52
      00FF9208H   LINE      CODE     ---       #54
      00FF9214H   LINE      CODE     ---       #56
      00FF9220H   LINE      CODE     ---       #58
      00FF9230H   LINE      CODE     ---       #59
      00FF9232H   LINE      CODE     ---       #60
      00FF9240H   LINE      CODE     ---       #62
      00FF9250H   LINE      CODE     ---       #63
      00FF9252H   LINE      CODE     ---       #64
      00FF9260H   LINE      CODE     ---       #66
      00FF9270H   LINE      CODE     ---       #67
      00FF9272H   LINE      CODE     ---       #68
      00FF9280H   LINE      CODE     ---       #70
      00FF9290H   LINE      CODE     ---       #71
      ---         BLOCKEND  ---      ---       LVL=0
      00011E42H   SYMBOL    XDATA    INT       type_set
      00011E44H   SYMBOL    XDATA    ---       exti_callback
      00011D32H   SYMBOL    XDATA    INT       type_set
      00011D34H   SYMBOL    XDATA    INT       uartx
      00011D36H   SYMBOL    XDATA    ---       uart_callback

      ---         MODULE    ---      ---       zf_device_wireless_uart
      00FF82C5H   PUBLIC    CODE     ---       wireless_uart_send_buffer
      00FFA2CFH   PUBLIC    CODE     ---       wireless_uart_callback
      00FF9755H   PUBLIC    CODE     ---       wireless_uart_init
      00FF954EH   PUBLIC    CODE     ---       wireless_uart_read_buffer
      000000D0H   SFRSYM    DATA     BYTE      PSW
      0000009DH   SFRSYM    DATA     BYTE      IRCBAND
      00000097H   SFRSYM    DATA     BYTE      AUXR2
      000000EFH   SFRSYM    DATA     BYTE      AUXINTIF
      000000FDH   SFRSYM    DATA     BYTE      S4CON
      000000ACH   SFRSYM    DATA     BYTE      S3CON
      0000009AH   SFRSYM    DATA     BYTE      S2CON
      000000B7H   SFRSYM    DATA     BYTE      IPH
      000000CDH   SFRSYM    DATA     BYTE      SPSTAT
      000000DDH   SFRSYM    DATA     BYTE      T4T3M
L251 LINKER/LOCATER V4.66.93.0                                                        04/22/2026  19:49:03  PAGE 122


      000000C1H   SFRSYM    DATA     BYTE      WDT_CONTR
      000000DFH   SFRSYM    DATA     BYTE      IP3
      000000F4H   SFRSYM    DATA     BYTE      USBCON
      000000B5H   SFRSYM    DATA     BYTE      IP2
      000000FFH   SFRSYM    DATA     BYTE      RSTCFG
      000000C7H   SFRSYM    DATA     BYTE      IAP_CONTR
      000000F9H   SFRSYM    DATA     BYTE      LINICR
      0000008EH   SFRSYM    DATA     BYTE      AUXR
      000000AFH   SFRSYM    DATA     BYTE      IE2
      00000088H   SFRSYM    DATA     BYTE      TCON
      00000089H   SFRSYM    DATA     BYTE      TMOD
      00000098H   SFRSYM    DATA     BYTE      SCON
      000000F1H   SFRSYM    DATA     BYTE      CANICR
      00000087H   SFRSYM    DATA     BYTE      PCON
      000000BCH   SFRSYM    DATA     BYTE      ADC_CONTR
      000000E7H   SFRSYM    DATA     BYTE      CMPCR2
      000000E6H   SFRSYM    DATA     BYTE      CMPCR1
      000000DEH   SFRSYM    DATA     BYTE      ADCCFG
      000000B8H   SFRSYM    DATA     BYTE      IP
      0000008FH   SFRSYM    DATA     BYTE      INTCLKO
      000000EEH   SFRSYM    DATA     BYTE      IP3H
      000000B6H   SFRSYM    DATA     BYTE      IP2H
      000000A8H   SFRSYM    DATA     BYTE      IE
      000000BBH   SFRSYM    DATA     BYTE      P_SW3
      000000BAH   SFRSYM    DATA     BYTE      P_SW2
      000000A2H   SFRSYM    DATA     BYTE      P_SW1
      000000CEH   SFRSYM    DATA     BYTE      SPCTL
      000000F8H   SFRSYM    DATA     BYTE      P7
      000000E8H   SFRSYM    DATA     BYTE      P6
      000000C8H   SFRSYM    DATA     BYTE      P5
      000000C0H   SFRSYM    DATA     BYTE      P4
      000000B0H   SFRSYM    DATA     BYTE      P3
      000000A0H   SFRSYM    DATA     BYTE      P2
      00000090H   SFRSYM    DATA     BYTE      P1
      00000080H   SFRSYM    DATA     BYTE      P0
      00010D6BH   SYMBOL    XDATA    ---       wireless_uart_fifo
      00010D82H   SYMBOL    XDATA    ---       wireless_uart_buffer
      00011F7FH   SYMBOL    XDATA    BYTE      dat
      00011F80H   SYMBOL    XDATA    WORD      time_cnt

      00FF82C5H   BLOCK     CODE     ---       LVL=0
      00011A48H   SYMBOL    XDATA    ---       buff
      00011A4CH   SYMBOL    XDATA    DWORD     len
      00FF82D9H   BLOCK     CODE     NEAR LAB  LVL=1
      00011A50H   SYMBOL    XDATA    WORD      time_cnt
      00011A52H   SYMBOL    XDATA    WORD      send_len
      ---         BLOCKEND  ---      ---       LVL=1
      00FF82C5H   LINE      CODE     ---       #103
      00FF82D9H   LINE      CODE     ---       #104
      00FF82D9H   LINE      CODE     ---       #108
      00FF82E1H   LINE      CODE     ---       #109
      00FF82E9H   LINE      CODE     ---       #110
      00FF830BH   LINE      CODE     ---       #112
      00FF830EH   LINE      CODE     ---       #114
      00FF831AH   LINE      CODE     ---       #116
      00FF8340H   LINE      CODE     ---       #117
      00FF8357H   LINE      CODE     ---       #118
      00FF8370H   LINE      CODE     ---       #119
      00FF838BH   LINE      CODE     ---       #120
      00FF8393H   LINE      CODE     ---       #121
      00FF8395H   LINE      CODE     ---       #124
      00FF839CH   LINE      CODE     ---       #125
      00FF83ABH   LINE      CODE     ---       #126
      00FF83ABH   LINE      CODE     ---       #127
      00FF83CAH   LINE      CODE     ---       #129
L251 LINKER/LOCATER V4.66.93.0                                                        04/22/2026  19:49:03  PAGE 123


      00FF83D4H   LINE      CODE     ---       #130
      ---         BLOCKEND  ---      ---       LVL=0
      00011D3AH   SYMBOL    XDATA    ---       str
      00011D3EH   SYMBOL    XDATA    DWORD     len

      00FF954EH   BLOCK     CODE     ---       LVL=0
      00011A54H   SYMBOL    XDATA    ---       buff
      00011A58H   SYMBOL    XDATA    DWORD     len
      00FF9562H   BLOCK     CODE     NEAR LAB  LVL=1
      00011A5CH   SYMBOL    XDATA    DWORD     data_len
      ---         BLOCKEND  ---      ---       LVL=1
      00FF954EH   LINE      CODE     ---       #156
      00FF9562H   LINE      CODE     ---       #157
      00FF9562H   LINE      CODE     ---       #158
      00FF9576H   LINE      CODE     ---       #159
      00FF9598H   LINE      CODE     ---       #160
      00FF95C7H   LINE      CODE     ---       #161
      00FF95D1H   LINE      CODE     ---       #162
      ---         BLOCKEND  ---      ---       LVL=0

      00FFA2CFH   BLOCK     CODE     ---       LVL=0
      00011FD8H   SYMBOL    XDATA    BYTE      uart_dat
      00FFA2CFH   LINE      CODE     ---       #173
      00FFA2D3H   LINE      CODE     ---       #176
      00FFA2F4H   LINE      CODE     ---       #187
      ---         BLOCKEND  ---      ---       LVL=0

      00FF9755H   BLOCK     CODE     ---       LVL=0
      00011FD9H   SYMBOL    XDATA    BYTE      return_state
      00FF9755H   LINE      CODE     ---       #196
      00FF9755H   LINE      CODE     ---       #197
      00FF9755H   LINE      CODE     ---       #198
      00FF975AH   LINE      CODE     ---       #199
      00FF976DH   LINE      CODE     ---       #201
      00FF979AH   LINE      CODE     ---       #202
      00FF97ABH   LINE      CODE     ---       #205
      00FF97C8H   LINE      CODE     ---       #206
      00FF97D1H   LINE      CODE     ---       #259
      00FF97D5H   LINE      CODE     ---       #260
      ---         BLOCKEND  ---      ---       LVL=0

      ---         MODULE    ---      ---       imu
      00FF7604H   PUBLIC    CODE     ---       IMU_Handle_360
      00FF81B2H   PUBLIC    CODE     ---       IMU_Handle_180
      00FF525AH   PUBLIC    CODE     ---       First_complement_Init
      00FFA1BAH   PUBLIC    CODE     ---       IMU_Handle_0
      00FF85F1H   PUBLIC    CODE     ---       KalmanCreate
      00FF66A8H   PUBLIC    CODE     ---       KalmanFilter
      00FF8093H   PUBLIC    CODE     ---       IMU_gyro_Offset_Init
      00FF019EH   PUBLIC    CODE     ---       gyro_proc
      00FF9D8CH   PUBLIC    CODE     ---       gyro_init
      00FFA1F1H   PUBLIC    CODE     ---       My_abs
      00FF7C87H   PUBLIC    CODE     ---       IMU_GetValues
      00FF8A55H   PUBLIC    CODE     ---       IMU_YAW_integral
      00010711H   PUBLIC    XDATA    FLOAT     Pitch_Min
      00010715H   PUBLIC    XDATA    FLOAT     Pitch_Max
      00010719H   PUBLIC    XDATA    ---       Kalman1
      00010749H   PUBLIC    XDATA    ---       Kalman2
      00010779H   PUBLIC    XDATA    CHAR      Round
      0001077AH   PUBLIC    XDATA    FLOAT     gyro_Offset_flag
      0001077EH   PUBLIC    XDATA    FLOAT     pitch
      00010782H   PUBLIC    XDATA    FLOAT     Roll_Min
      00010786H   PUBLIC    XDATA    ---       Zero
      000107B6H   PUBLIC    XDATA    FLOAT     Roll_Max
      000107BAH   PUBLIC    XDATA    FLOAT     roll
L251 LINKER/LOCATER V4.66.93.0                                                        04/22/2026  19:49:03  PAGE 124


      000107BEH   PUBLIC    XDATA    FLOAT     gyrox
      000107C2H   PUBLIC    XDATA    FLOAT     gyroy
      000107C6H   PUBLIC    XDATA    FLOAT     gyroz
      000107CAH   PUBLIC    XDATA    ---       first_complement
      000107DEH   PUBLIC    XDATA    ---       IMU_Data
      000107F6H   PUBLIC    XDATA    FLOAT     Daty_X
      000107FAH   PUBLIC    XDATA    FLOAT     Daty_Y
      000107FEH   PUBLIC    XDATA    FLOAT     Daty_Z
      00010802H   PUBLIC    XDATA    FLOAT     yaw_limit_360
      00010806H   PUBLIC    XDATA    FLOAT     Max_Delta_Pitch
      0001080AH   PUBLIC    XDATA    FLOAT     yaw
      0001080EH   PUBLIC    XDATA    FLOAT     yaw_total
      00010812H   PUBLIC    XDATA    ---       Gyro_Offset
      0001081EH   PUBLIC    XDATA    FLOAT     Max_Delta_Roll
      00011A60H   PUBLIC    XDATA    BYTE      ?KalmanCreate?BYTE
      000000D0H   SFRSYM    DATA     BYTE      PSW
      0000009DH   SFRSYM    DATA     BYTE      IRCBAND
      00000097H   SFRSYM    DATA     BYTE      AUXR2
      000000EFH   SFRSYM    DATA     BYTE      AUXINTIF
      000000FDH   SFRSYM    DATA     BYTE      S4CON
      000000ACH   SFRSYM    DATA     BYTE      S3CON
      0000009AH   SFRSYM    DATA     BYTE      S2CON
      000000B7H   SFRSYM    DATA     BYTE      IPH
      000000CDH   SFRSYM    DATA     BYTE      SPSTAT
      000000DDH   SFRSYM    DATA     BYTE      T4T3M
      000000C1H   SFRSYM    DATA     BYTE      WDT_CONTR
      000000DFH   SFRSYM    DATA     BYTE      IP3
      000000F4H   SFRSYM    DATA     BYTE      USBCON
      000000B5H   SFRSYM    DATA     BYTE      IP2
      000000FFH   SFRSYM    DATA     BYTE      RSTCFG
      000000C7H   SFRSYM    DATA     BYTE      IAP_CONTR
      000000F9H   SFRSYM    DATA     BYTE      LINICR
      0000008EH   SFRSYM    DATA     BYTE      AUXR
      000000AFH   SFRSYM    DATA     BYTE      IE2
      00000088H   SFRSYM    DATA     BYTE      TCON
      00000089H   SFRSYM    DATA     BYTE      TMOD
      00000098H   SFRSYM    DATA     BYTE      SCON
      000000F1H   SFRSYM    DATA     BYTE      CANICR
      00000087H   SFRSYM    DATA     BYTE      PCON
      000000BCH   SFRSYM    DATA     BYTE      ADC_CONTR
      000000E7H   SFRSYM    DATA     BYTE      CMPCR2
      000000E6H   SFRSYM    DATA     BYTE      CMPCR1
      000000DEH   SFRSYM    DATA     BYTE      ADCCFG
      000000B8H   SFRSYM    DATA     BYTE      IP
      0000008FH   SFRSYM    DATA     BYTE      INTCLKO
      000000EEH   SFRSYM    DATA     BYTE      IP3H
      000000B6H   SFRSYM    DATA     BYTE      IP2H
      000000A8H   SFRSYM    DATA     BYTE      IE
      000000BBH   SFRSYM    DATA     BYTE      P_SW3
      000000BAH   SFRSYM    DATA     BYTE      P_SW2
      000000A2H   SFRSYM    DATA     BYTE      P_SW1
      000000CEH   SFRSYM    DATA     BYTE      SPCTL
      000000F8H   SFRSYM    DATA     BYTE      P7
      000000E8H   SFRSYM    DATA     BYTE      P6
      000000C8H   SFRSYM    DATA     BYTE      P5
      000000C0H   SFRSYM    DATA     BYTE      P4
      000000B0H   SFRSYM    DATA     BYTE      P3
      000000A0H   SFRSYM    DATA     BYTE      P2
      00000090H   SFRSYM    DATA     BYTE      P1
      00000080H   SFRSYM    DATA     BYTE      P0

      00FF525AH   BLOCK     CODE     ---       LVL=0
      00FF525CH   BLOCK     CODE     NEAR LAB  LVL=1
      00011F46H   SYMBOL    XDATA    FLOAT     k
      00010822H   SYMBOL    XDATA    FLOAT     Pitch_Temp
L251 LINKER/LOCATER V4.66.93.0                                                        04/22/2026  19:49:03  PAGE 125


      00010826H   SYMBOL    XDATA    FLOAT     Roll_Temp
      0001082AH   SYMBOL    XDATA    FLOAT     Delta_Roll
      0001082EH   SYMBOL    XDATA    CHAR      Pitch_Flag
      0001082FH   SYMBOL    XDATA    CHAR      Roll_Flag
      ---         BLOCKEND  ---      ---       LVL=1
      00FF525AH   LINE      CODE     ---       #30
      00FF525CH   LINE      CODE     ---       #31
      00FF525CH   LINE      CODE     ---       #32
      00FF526EH   LINE      CODE     ---       #39
      00FF52A6H   LINE      CODE     ---       #40
      00FF52DEH   LINE      CODE     ---       #42
      00FF530CH   LINE      CODE     ---       #43
      00FF533AH   LINE      CODE     ---       #45
      00FF53A0H   LINE      CODE     ---       #46
      00FF5406H   LINE      CODE     ---       #48
      00FF5434H   LINE      CODE     ---       #50
      00FF5455H   LINE      CODE     ---       #51
      00FF5455H   LINE      CODE     ---       #53
      00FF5474H   LINE      CODE     ---       #54
      00FF5493H   LINE      CODE     ---       #57
      00FF549CH   LINE      CODE     ---       #59
      00FF54B0H   LINE      CODE     ---       #60
      00FF54C4H   LINE      CODE     ---       #61
      00FF54CAH   LINE      CODE     ---       #62
      00FF54CAH   LINE      CODE     ---       #64
      00FF54D3H   LINE      CODE     ---       #66
      00FF54E7H   LINE      CODE     ---       #67
      00FF54FBH   LINE      CODE     ---       #68
      00FF5501H   LINE      CODE     ---       #69
      00FF5501H   LINE      CODE     ---       #72
      00FF5524H   LINE      CODE     ---       #74
      00FF553BH   LINE      CODE     ---       #75
      00FF553DH   LINE      CODE     ---       #76
      00FF5560H   LINE      CODE     ---       #78
      00FF5577H   LINE      CODE     ---       #79
      00FF5577H   LINE      CODE     ---       #82
      00FF559AH   LINE      CODE     ---       #84
      00FF55B1H   LINE      CODE     ---       #85
      00FF55B3H   LINE      CODE     ---       #86
      00FF55D6H   LINE      CODE     ---       #88
      00FF55EDH   LINE      CODE     ---       #89
      00FF55EDH   LINE      CODE     ---       #90
      00FF560EH   LINE      CODE     ---       #91
      00FF562FH   LINE      CODE     ---       #92
      ---         BLOCKEND  ---      ---       LVL=0

      00FF8093H   BLOCK     CODE     ---       LVL=0
      00011FBEH   SYMBOL    XDATA    WORD      i
      00FF8093H   LINE      CODE     ---       #97
      00FF8093H   LINE      CODE     ---       #98
      00FF8093H   LINE      CODE     ---       #99
      00FF809BH   LINE      CODE     ---       #100
      00FF80A7H   LINE      CODE     ---       #101
      00FF80B3H   LINE      CODE     ---       #102
      00FF80BFH   LINE      CODE     ---       #103
      00FF80C9H   LINE      CODE     ---       #105
      00FF80EAH   LINE      CODE     ---       #106
      00FF810BH   LINE      CODE     ---       #107
      00FF812CH   LINE      CODE     ---       #108
      00FF8133H   LINE      CODE     ---       #109
      00FF8153H   LINE      CODE     ---       #111
      00FF816DH   LINE      CODE     ---       #112
      00FF8187H   LINE      CODE     ---       #113
      00FF81A1H   LINE      CODE     ---       #115
      00FF81B1H   LINE      CODE     ---       #116
L251 LINKER/LOCATER V4.66.93.0                                                        04/22/2026  19:49:03  PAGE 126


      ---         BLOCKEND  ---      ---       LVL=0

      00FF7C87H   BLOCK     CODE     ---       LVL=0
      00FF7C87H   LINE      CODE     ---       #118
      00FF7C87H   LINE      CODE     ---       #120
      00FF7C8AH   LINE      CODE     ---       #121
      00FF7C8DH   LINE      CODE     ---       #123
      00FF7CCEH   LINE      CODE     ---       #124
      00FF7D0FH   LINE      CODE     ---       #125
      00FF7D50H   LINE      CODE     ---       #127
      00FF7D8EH   LINE      CODE     ---       #128
      00FF7DCCH   LINE      CODE     ---       #129
      00FF7E0AH   LINE      CODE     ---       #130
      ---         BLOCKEND  ---      ---       LVL=0

      00FF8A55H   BLOCK     CODE     ---       LVL=0
      00FF8A55H   LINE      CODE     ---       #136
      00FF8A55H   LINE      CODE     ---       #138
      00FF8A83H   LINE      CODE     ---       #140
      00FF8A94H   LINE      CODE     ---       #141
      00FF8A96H   LINE      CODE     ---       #144
      00FF8A99H   LINE      CODE     ---       #145
      00FF8A9CH   LINE      CODE     ---       #146
      00FF8A9FH   LINE      CODE     ---       #147
      00FF8A9FH   LINE      CODE     ---       #149
      00FF8ACDH   LINE      CODE     ---       #151
      00FF8ADEH   LINE      CODE     ---       #152
      00FF8ADEH   LINE      CODE     ---       #153
      00FF8B0CH   LINE      CODE     ---       #155
      00FF8B1DH   LINE      CODE     ---       #156
      ---         BLOCKEND  ---      ---       LVL=0

      00FF81B2H   BLOCK     CODE     ---       LVL=0
      00FF81B2H   LINE      CODE     ---       #159
      00FF81B2H   LINE      CODE     ---       #161
      00FF81E8H   LINE      CODE     ---       #163
      00FF823AH   LINE      CODE     ---       #165
      00FF823AH   LINE      CODE     ---       #166
      00FF823AH   LINE      CODE     ---       #167
      00FF8264H   LINE      CODE     ---       #169
      00FF827EH   LINE      CODE     ---       #170
      00FF8280H   LINE      CODE     ---       #171
      00FF82AAH   LINE      CODE     ---       #173
      00FF82C4H   LINE      CODE     ---       #174
      ---         BLOCKEND  ---      ---       LVL=0

      00FF7604H   BLOCK     CODE     ---       LVL=0
      00FF7604H   LINE      CODE     ---       #180
      00FF7604H   LINE      CODE     ---       #182
      00FF7610H   LINE      CODE     ---       #184
      00FF7646H   LINE      CODE     ---       #185
      00FF765BH   LINE      CODE     ---       #187
      00FF766BH   LINE      CODE     ---       #188
      00FF7671H   LINE      CODE     ---       #189
      00FF7673H   LINE      CODE     ---       #190
      00FF7688H   LINE      CODE     ---       #192
      00FF7698H   LINE      CODE     ---       #193
      00FF769EH   LINE      CODE     ---       #194
      00FF769EH   LINE      CODE     ---       #196
      00FF76AAH   LINE      CODE     ---       #198
      00FF76D4H   LINE      CODE     ---       #200
      00FF770AH   LINE      CODE     ---       #201
      00FF7722H   LINE      CODE     ---       #203
      00FF7732H   LINE      CODE     ---       #204
      00FF7737H   LINE      CODE     ---       #205
L251 LINKER/LOCATER V4.66.93.0                                                        04/22/2026  19:49:03  PAGE 127


      00FF7739H   LINE      CODE     ---       #207
      00FF774EH   LINE      CODE     ---       #209
      00FF7784H   LINE      CODE     ---       #210
      00FF7799H   LINE      CODE     ---       #213
      00FF77A9H   LINE      CODE     ---       #214
      00FF77AEH   LINE      CODE     ---       #215
      00FF77AEH   LINE      CODE     ---       #217
      00FF77AEH   LINE      CODE     ---       #218
      ---         BLOCKEND  ---      ---       LVL=0

      00FFA1BAH   BLOCK     CODE     ---       LVL=0
      00FFA1BAH   LINE      CODE     ---       #222
      00FFA1BAH   LINE      CODE     ---       #224
      00FFA1F0H   LINE      CODE     ---       #225
      ---         BLOCKEND  ---      ---       LVL=0
      00011706H   SYMBOL    XDATA    FLOAT     num
      0001170AH   SYMBOL    XDATA    FLOAT     halfx
      0001170EH   SYMBOL    XDATA    FLOAT     y
      00011712H   SYMBOL    XDATA    LONG      i

      00FFA1F1H   BLOCK     CODE     ---       LVL=0
      00011F4AH   SYMBOL    XDATA    FLOAT     x
      00FFA1F1H   LINE      CODE     ---       #240
      00FFA1FBH   LINE      CODE     ---       #242
      00FFA225H   LINE      CODE     ---       #243
      ---         BLOCKEND  ---      ---       LVL=0

      00FF85F1H   BLOCK     CODE     ---       LVL=0
      00011A60H   SYMBOL    XDATA    ---       p
      00011A64H   SYMBOL    XDATA    FLOAT     T_Q
      00011A68H   SYMBOL    XDATA    FLOAT     T_R
      00FF85F1H   LINE      CODE     ---       #245
      00FF8605H   LINE      CODE     ---       #247
      00FF8618H   LINE      CODE     ---       #248
      00FF862FH   LINE      CODE     ---       #249
      00FF864EH   LINE      CODE     ---       #250
      00FF866DH   LINE      CODE     ---       #251
      00FF8688H   LINE      CODE     ---       #252
      00FF869FH   LINE      CODE     ---       #253
      00FF86BAH   LINE      CODE     ---       #254
      00FF86DEH   LINE      CODE     ---       #255
      ---         BLOCKEND  ---      ---       LVL=0

      00FF66A8H   BLOCK     CODE     ---       LVL=0
      00011D42H   SYMBOL    XDATA    ---       p
      00011D46H   SYMBOL    XDATA    FLOAT     dat
      00FF66A8H   LINE      CODE     ---       #257
      00FF66BCH   LINE      CODE     ---       #259
      00FF66FAH   LINE      CODE     ---       #260
      00FF6756H   LINE      CODE     ---       #261
      00FF67B4H   LINE      CODE     ---       #262
      00FF681DH   LINE      CODE     ---       #263
      00FF686AH   LINE      CODE     ---       #264
      00FF6894H   LINE      CODE     ---       #265
      00FF68BAH   LINE      CODE     ---       #266
      00FF68CFH   LINE      CODE     ---       #267
      ---         BLOCKEND  ---      ---       LVL=0

      00FF9D8CH   BLOCK     CODE     ---       LVL=0
      00FF9D8CH   LINE      CODE     ---       #269
      00FF9D8CH   LINE      CODE     ---       #272
      00FF9D8FH   LINE      CODE     ---       #273
      00FF9DB4H   LINE      CODE     ---       #274
      00FF9DD9H   LINE      CODE     ---       #275
      ---         BLOCKEND  ---      ---       LVL=0
L251 LINKER/LOCATER V4.66.93.0                                                        04/22/2026  19:49:03  PAGE 128



      00FF019EH   BLOCK     CODE     ---       LVL=0
      00FF019EH   LINE      CODE     ---       #277
      00FF019EH   LINE      CODE     ---       #279
      00FF01A1H   LINE      CODE     ---       #280
      00FF01A4H   LINE      CODE     ---       #281
      00FF01A7H   LINE      CODE     ---       #282
      ---         BLOCKEND  ---      ---       LVL=0

      ---         MODULE    ---      ---       seekfree_assistant
      00FF7952H   PUBLIC    CODE     ---       seekfree_assistant_oscilloscope_send
      00FFA226H   PUBLIC    CODE     ---       seekfree_assistant_init
      000105DCH   PUBLIC    XDATA    ---       seekfree_assistant_oscilloscope_data
      00010617H   PUBLIC    XDATA    ---       seekfree_assistant_parameter_update_flag
      0001061FH   PUBLIC    XDATA    ---       seekfree_assistant_parameter
      00011770H   PUBLIC    XDATA    BYTE      ?seekfree_assistant_camera_data_send?BYTE
      00011B54H   PUBLIC    XDATA    BYTE      ?seekfree_assistant_camera_information_config?BYTE
      000112F0H   PUBLIC    XDATA    BYTE      ?seekfree_assistant_camera_boundary_config?BYTE
      000000D0H   SFRSYM    DATA     BYTE      PSW
      0000009DH   SFRSYM    DATA     BYTE      IRCBAND
      00000097H   SFRSYM    DATA     BYTE      AUXR2
      000000EFH   SFRSYM    DATA     BYTE      AUXINTIF
      000000FDH   SFRSYM    DATA     BYTE      S4CON
      000000ACH   SFRSYM    DATA     BYTE      S3CON
      0000009AH   SFRSYM    DATA     BYTE      S2CON
      000000B7H   SFRSYM    DATA     BYTE      IPH
      000000CDH   SFRSYM    DATA     BYTE      SPSTAT
      000000DDH   SFRSYM    DATA     BYTE      T4T3M
      000000C1H   SFRSYM    DATA     BYTE      WDT_CONTR
      000000DFH   SFRSYM    DATA     BYTE      IP3
      000000F4H   SFRSYM    DATA     BYTE      USBCON
      000000B5H   SFRSYM    DATA     BYTE      IP2
      000000FFH   SFRSYM    DATA     BYTE      RSTCFG
      000000C7H   SFRSYM    DATA     BYTE      IAP_CONTR
      000000F9H   SFRSYM    DATA     BYTE      LINICR
      0000008EH   SFRSYM    DATA     BYTE      AUXR
      000000AFH   SFRSYM    DATA     BYTE      IE2
      00000088H   SFRSYM    DATA     BYTE      TCON
      00000089H   SFRSYM    DATA     BYTE      TMOD
      00000098H   SFRSYM    DATA     BYTE      SCON
      000000F1H   SFRSYM    DATA     BYTE      CANICR
      00000087H   SFRSYM    DATA     BYTE      PCON
      000000BCH   SFRSYM    DATA     BYTE      ADC_CONTR
      000000E7H   SFRSYM    DATA     BYTE      CMPCR2
      000000E6H   SFRSYM    DATA     BYTE      CMPCR1
      000000DEH   SFRSYM    DATA     BYTE      ADCCFG
      000000B8H   SFRSYM    DATA     BYTE      IP
      0000008FH   SFRSYM    DATA     BYTE      INTCLKO
      000000EEH   SFRSYM    DATA     BYTE      IP3H
      000000B6H   SFRSYM    DATA     BYTE      IP2H
      000000A8H   SFRSYM    DATA     BYTE      IE
      000000BBH   SFRSYM    DATA     BYTE      P_SW3
      000000BAH   SFRSYM    DATA     BYTE      P_SW2
      000000A2H   SFRSYM    DATA     BYTE      P_SW1
      000000CEH   SFRSYM    DATA     BYTE      SPCTL
      000000F8H   SFRSYM    DATA     BYTE      P7
      000000A8H.7 SFRSYM    DATA     BIT       EA
      000000E8H   SFRSYM    DATA     BYTE      P6
      000000C8H   SFRSYM    DATA     BYTE      P5
      000000C0H   SFRSYM    DATA     BYTE      P4
      000000B0H   SFRSYM    DATA     BYTE      P3
      000000A0H   SFRSYM    DATA     BYTE      P2
      00000090H   SFRSYM    DATA     BYTE      P1
      00000080H   SFRSYM    DATA     BYTE      P0
      00FF9BD9H   SYMBOL    CODE     ---       seekfree_assistant_sum
L251 LINKER/LOCATER V4.66.93.0                                                        04/22/2026  19:49:03  PAGE 129


      000105D4H   SYMBOL    XDATA    ---       seekfree_assistant_camera_dot_data
      00010600H   SYMBOL    XDATA    ---       seekfree_assistant_fifo
      0001063FH   SYMBOL    XDATA    ---       seekfree_assistant_camera_buffer
      00010689H   SYMBOL    XDATA    ---       seekfree_assistant_camera_data
      00010691H   SYMBOL    XDATA    ---       seekfree_assistant_buffer
      00FFAE52H   SYMBOL    HCONST   ---       ?tpl?0001
      00FFAE76H   SYMBOL    HCONST   ---       ?tpl?0002

      00FF9BD9H   BLOCK     CODE     ---       LVL=0
      00011C51H   SYMBOL    XDATA    ---       buffer
      00011C55H   SYMBOL    XDATA    DWORD     length
      00FF9BEDH   BLOCK     CODE     NEAR LAB  LVL=1
      00011C59H   SYMBOL    XDATA    BYTE      temp_sum
      ---         BLOCKEND  ---      ---       LVL=1
      00FF9BD9H   LINE      CODE     ---       #57
      00FF9BEDH   LINE      CODE     ---       #58
      00FF9BEDH   LINE      CODE     ---       #59
      00FF9BF2H   LINE      CODE     ---       #61
      00FF9BF4H   LINE      CODE     ---       #63
      00FF9C11H   LINE      CODE     ---       #64
      00FF9C2EH   LINE      CODE     ---       #66
      00FF9C32H   LINE      CODE     ---       #67
      ---         BLOCKEND  ---      ---       LVL=0
      00011770H   SYMBOL    XDATA    INT       camera_type
      00011772H   SYMBOL    XDATA    ---       image_addr
      00011776H   SYMBOL    XDATA    BYTE      boundary_num
      00011777H   SYMBOL    XDATA    WORD      width
      00011779H   SYMBOL    XDATA    WORD      height
      0001177BH   SYMBOL    XDATA    DWORD     image_size
      00011B54H   SYMBOL    XDATA    INT       camera_type
      00011B56H   SYMBOL    XDATA    ---       image_addr
      00011B5AH   SYMBOL    XDATA    WORD      width
      00011B5CH   SYMBOL    XDATA    WORD      height

      00FF7952H   BLOCK     CODE     ---       LVL=0
      00011171H   SYMBOL    XDATA    ---       seekfree_assistant_oscilloscope
      00FF795CH   BLOCK     CODE     NEAR LAB  LVL=1
      00011175H   SYMBOL    XDATA    BYTE      packet_size
      00011176H   SYMBOL    XDATA    BYTE      i
      00011177H   SYMBOL    XDATA    ---       temp_oscilloscope
      ---         BLOCKEND  ---      ---       LVL=1
      00FF7952H   LINE      CODE     ---       #149
      00FF795CH   LINE      CODE     ---       #150
      00FF795CH   LINE      CODE     ---       #151
      00FF7961H   LINE      CODE     ---       #152
      00FF7966H   LINE      CODE     ---       #153
      00FF797BH   LINE      CODE     ---       #155
      00FF7992H   LINE      CODE     ---       #158
      00FF799AH   LINE      CODE     ---       #160
      00FF79D0H   LINE      CODE     ---       #161
      00FF7A06H   LINE      CODE     ---       #162
      00FF7A3CH   LINE      CODE     ---       #163
      00FF7A72H   LINE      CODE     ---       #164
      00FF7A8EH   LINE      CODE     ---       #167
      00FF7A94H   LINE      CODE     ---       #170
      00FF7AAEH   LINE      CODE     ---       #171
      00FF7AB6H   LINE      CODE     ---       #174
      00FF7AC0H   LINE      CODE     ---       #177
      00FF7AC5H   LINE      CODE     ---       #178
      00FF7ADCH   LINE      CODE     ---       #182
      00FF7AF4H   LINE      CODE     ---       #183
      ---         BLOCKEND  ---      ---       LVL=0
      00011D75H   SYMBOL    XDATA    ---       buffer
      00011D79H   SYMBOL    XDATA    BYTE      i
      00011D7AH   SYMBOL    XDATA    WORD      dot_bytes
L251 LINKER/LOCATER V4.66.93.0                                                        04/22/2026  19:49:03  PAGE 130


      000112F0H   SYMBOL    XDATA    INT       boundary_type
      000112F2H   SYMBOL    XDATA    WORD      dot_num
      000112F4H   SYMBOL    XDATA    ---       dot_x1
      000112F8H   SYMBOL    XDATA    ---       dot_x2
      000112FCH   SYMBOL    XDATA    ---       dot_x3
      00011300H   SYMBOL    XDATA    ---       dot_y1
      00011304H   SYMBOL    XDATA    ---       dot_y2
      00011308H   SYMBOL    XDATA    ---       dot_y3
      0001130CH   SYMBOL    XDATA    BYTE      i
      0001130DH   SYMBOL    XDATA    BYTE      boundary_num
      0001130EH   SYMBOL    XDATA    BYTE      boundary_data_type
      00010B49H   SYMBOL    XDATA    BYTE      temp_sum
      00010B4AH   SYMBOL    XDATA    DWORD     read_length
      00010B4EH   SYMBOL    XDATA    WORD      struct_len
      00010B50H   SYMBOL    XDATA    ---       receive_packet
      00010B54H   SYMBOL    XDATA    ---       temp_buffer
      00010BD4H   SYMBOL    XDATA    DWORD     i
      00000020H.3 SYMBOL    BIT      BIT       flag

      00FFA226H   BLOCK     CODE     ---       LVL=0
      00FFA226H   LINE      CODE     ---       #436
      00FFA226H   LINE      CODE     ---       #438
      00FFA253H   LINE      CODE     ---       #439
      ---         BLOCKEND  ---      ---       LVL=0

      ---         MODULE    ---      ---       seekfree_assistant_interface
      00011F4EH   PUBLIC    XDATA    ---       seekfree_assistant_receive_callback
      00011F50H   PUBLIC    XDATA    ---       seekfree_assistant_transfer_callback
      000000D0H   SFRSYM    DATA     BYTE      PSW
      0000009DH   SFRSYM    DATA     BYTE      IRCBAND
      00000097H   SFRSYM    DATA     BYTE      AUXR2
      000000EFH   SFRSYM    DATA     BYTE      AUXINTIF
      000000FDH   SFRSYM    DATA     BYTE      S4CON
      000000ACH   SFRSYM    DATA     BYTE      S3CON
      0000009AH   SFRSYM    DATA     BYTE      S2CON
      000000B7H   SFRSYM    DATA     BYTE      IPH
      000000CDH   SFRSYM    DATA     BYTE      SPSTAT
      000000DDH   SFRSYM    DATA     BYTE      T4T3M
      000000C1H   SFRSYM    DATA     BYTE      WDT_CONTR
      000000DFH   SFRSYM    DATA     BYTE      IP3
      000000F4H   SFRSYM    DATA     BYTE      USBCON
      000000B5H   SFRSYM    DATA     BYTE      IP2
      000000FFH   SFRSYM    DATA     BYTE      RSTCFG
      000000C7H   SFRSYM    DATA     BYTE      IAP_CONTR
      000000F9H   SFRSYM    DATA     BYTE      LINICR
      0000008EH   SFRSYM    DATA     BYTE      AUXR
      000000AFH   SFRSYM    DATA     BYTE      IE2
      00000088H   SFRSYM    DATA     BYTE      TCON
      00000089H   SFRSYM    DATA     BYTE      TMOD
      00000098H   SFRSYM    DATA     BYTE      SCON
      000000F1H   SFRSYM    DATA     BYTE      CANICR
      00000087H   SFRSYM    DATA     BYTE      PCON
      000000BCH   SFRSYM    DATA     BYTE      ADC_CONTR
      000000E7H   SFRSYM    DATA     BYTE      CMPCR2
      000000E6H   SFRSYM    DATA     BYTE      CMPCR1
      000000DEH   SFRSYM    DATA     BYTE      ADCCFG
      000000B8H   SFRSYM    DATA     BYTE      IP
      0000008FH   SFRSYM    DATA     BYTE      INTCLKO
      000000EEH   SFRSYM    DATA     BYTE      IP3H
      000000B6H   SFRSYM    DATA     BYTE      IP2H
      000000A8H   SFRSYM    DATA     BYTE      IE
      000000BBH   SFRSYM    DATA     BYTE      P_SW3
      000000BAH   SFRSYM    DATA     BYTE      P_SW2
      000000A2H   SFRSYM    DATA     BYTE      P_SW1
      000000CEH   SFRSYM    DATA     BYTE      SPCTL
L251 LINKER/LOCATER V4.66.93.0                                                        04/22/2026  19:49:03  PAGE 131


      000000F8H   SFRSYM    DATA     BYTE      P7
      000000E8H   SFRSYM    DATA     BYTE      P6
      000000C8H   SFRSYM    DATA     BYTE      P5
      000000C0H   SFRSYM    DATA     BYTE      P4
      000000B0H   SFRSYM    DATA     BYTE      P3
      000000A0H   SFRSYM    DATA     BYTE      P2
      00000090H   SFRSYM    DATA     BYTE      P1
      00000080H   SFRSYM    DATA     BYTE      P0
      00011FC0H   SYMBOL    XDATA    INT       transfer_device

      ---         MODULE    ---      ---       isr
      00FF9DDAH   PUBLIC    CODE     ---       INT0_IRQHandler
      00FF9E1AH   PUBLIC    CODE     ---       INT1_IRQHandler
      00FF9E5AH   PUBLIC    CODE     ---       INT2_IRQHandler
      00FF9E9AH   PUBLIC    CODE     ---       INT3_IRQHandler
      00FF9EDAH   PUBLIC    CODE     ---       INT4_IRQHandler
      00FF8E15H   PUBLIC    CODE     ---       DMA_UART1_IRQHandler
      00FF9291H   PUBLIC    CODE     ---       DMA_UART2_IRQHandler
      00FF9320H   PUBLIC    CODE     ---       DMA_UART3_IRQHandler
      00FF93AFH   PUBLIC    CODE     ---       DMA_UART4_IRQHandler
      00FF9F1AH   PUBLIC    CODE     ---       TM0_IRQHandler
      00FF9F5AH   PUBLIC    CODE     ---       TM1_IRQHandler
      00FF9F9AH   PUBLIC    CODE     ---       TM2_IRQHandler
      00FF9FDAH   PUBLIC    CODE     ---       TM3_IRQHandler
      00FFA01AH   PUBLIC    CODE     ---       TM4_IRQHandler
      000000D0H   SFRSYM    DATA     BYTE      PSW
      0000009DH   SFRSYM    DATA     BYTE      IRCBAND
      00000097H   SFRSYM    DATA     BYTE      AUXR2
      000000EFH   SFRSYM    DATA     BYTE      AUXINTIF
      000000FDH   SFRSYM    DATA     BYTE      S4CON
      000000ACH   SFRSYM    DATA     BYTE      S3CON
      0000009AH   SFRSYM    DATA     BYTE      S2CON
      000000B7H   SFRSYM    DATA     BYTE      IPH
      000000CDH   SFRSYM    DATA     BYTE      SPSTAT
      000000DDH   SFRSYM    DATA     BYTE      T4T3M
      000000C1H   SFRSYM    DATA     BYTE      WDT_CONTR
      000000DFH   SFRSYM    DATA     BYTE      IP3
      000000F4H   SFRSYM    DATA     BYTE      USBCON
      000000B5H   SFRSYM    DATA     BYTE      IP2
      000000FFH   SFRSYM    DATA     BYTE      RSTCFG
      000000C7H   SFRSYM    DATA     BYTE      IAP_CONTR
      000000F9H   SFRSYM    DATA     BYTE      LINICR
      0000008EH   SFRSYM    DATA     BYTE      AUXR
      000000AFH   SFRSYM    DATA     BYTE      IE2
      00000088H   SFRSYM    DATA     BYTE      TCON
      00000089H   SFRSYM    DATA     BYTE      TMOD
      00000098H   SFRSYM    DATA     BYTE      SCON
      000000F1H   SFRSYM    DATA     BYTE      CANICR
      00000087H   SFRSYM    DATA     BYTE      PCON
      000000BCH   SFRSYM    DATA     BYTE      ADC_CONTR
      000000E7H   SFRSYM    DATA     BYTE      CMPCR2
      000000E6H   SFRSYM    DATA     BYTE      CMPCR1
      000000DEH   SFRSYM    DATA     BYTE      ADCCFG
      000000B8H   SFRSYM    DATA     BYTE      IP
      0000008FH   SFRSYM    DATA     BYTE      INTCLKO
      000000EEH   SFRSYM    DATA     BYTE      IP3H
      000000B6H   SFRSYM    DATA     BYTE      IP2H
      000000A8H   SFRSYM    DATA     BYTE      IE
      000000BBH   SFRSYM    DATA     BYTE      P_SW3
      000000BAH   SFRSYM    DATA     BYTE      P_SW2
      000000A2H   SFRSYM    DATA     BYTE      P_SW1
      000000CEH   SFRSYM    DATA     BYTE      SPCTL
      000000F8H   SFRSYM    DATA     BYTE      P7
      000000E8H   SFRSYM    DATA     BYTE      P6
      000000C8H   SFRSYM    DATA     BYTE      P5
L251 LINKER/LOCATER V4.66.93.0                                                        04/22/2026  19:49:03  PAGE 132


      000000C0H   SFRSYM    DATA     BYTE      P4
      000000B0H   SFRSYM    DATA     BYTE      P3
      000000A0H   SFRSYM    DATA     BYTE      P2
      00000090H   SFRSYM    DATA     BYTE      P1
      00000080H   SFRSYM    DATA     BYTE      P0

      00FF9DDAH   BLOCK     CODE     ---       LVL=0
      00FF9DDAH   LINE      CODE     ---       #39
      00FF9DEEH   LINE      CODE     ---       #41
      00FF9DF1H   LINE      CODE     ---       #42
      00FF9DFDH   LINE      CODE     ---       #44
      00FF9E05H   LINE      CODE     ---       #45
      ---         BLOCKEND  ---      ---       LVL=0

      00FF9E1AH   BLOCK     CODE     ---       LVL=0
      00FF9E1AH   LINE      CODE     ---       #49
      00FF9E2EH   LINE      CODE     ---       #51
      00FF9E31H   LINE      CODE     ---       #52
      00FF9E3DH   LINE      CODE     ---       #54
      00FF9E45H   LINE      CODE     ---       #55
      ---         BLOCKEND  ---      ---       LVL=0

      00FF9E5AH   BLOCK     CODE     ---       LVL=0
      00FF9E5AH   LINE      CODE     ---       #58
      00FF9E6EH   LINE      CODE     ---       #60
      00FF9E71H   LINE      CODE     ---       #61
      00FF9E7DH   LINE      CODE     ---       #63
      00FF9E85H   LINE      CODE     ---       #64
      ---         BLOCKEND  ---      ---       LVL=0

      00FF9E9AH   BLOCK     CODE     ---       LVL=0
      00FF9E9AH   LINE      CODE     ---       #66
      00FF9EAEH   LINE      CODE     ---       #68
      00FF9EB1H   LINE      CODE     ---       #69
      00FF9EBDH   LINE      CODE     ---       #71
      00FF9EC5H   LINE      CODE     ---       #72
      ---         BLOCKEND  ---      ---       LVL=0

      00FF9EDAH   BLOCK     CODE     ---       LVL=0
      00FF9EDAH   LINE      CODE     ---       #75
      00FF9EEEH   LINE      CODE     ---       #77
      00FF9EF1H   LINE      CODE     ---       #78
      00FF9EFDH   LINE      CODE     ---       #80
      00FF9F05H   LINE      CODE     ---       #81
      ---         BLOCKEND  ---      ---       LVL=0

      00FF8E15H   BLOCK     CODE     ---       LVL=0
      00FF8E29H   BLOCK     CODE     NEAR LAB  LVL=1
      00011FDAH   SYMBOL    XDATA    BYTE      dwon_count
      ---         BLOCKEND  ---      ---       LVL=1
      00FF8E15H   LINE      CODE     ---       #85
      00FF8E29H   LINE      CODE     ---       #86
      00FF8E29H   LINE      CODE     ---       #89
      00FF8E37H   LINE      CODE     ---       #91
      00FF8E49H   LINE      CODE     ---       #92
      00FF8E4EH   LINE      CODE     ---       #95
      00FF8E57H   LINE      CODE     ---       #97
      00FF8E68H   LINE      CODE     ---       #99
      00FF8E6CH   LINE      CODE     ---       #100
      00FF8E6EH   LINE      CODE     ---       #104
      00FF8E73H   LINE      CODE     ---       #105
      00FF8E73H   LINE      CODE     ---       #107
      00FF8E7FH   LINE      CODE     ---       #109
      00FF8E8BH   LINE      CODE     ---       #110
      00FF8E8BH   LINE      CODE     ---       #113
L251 LINKER/LOCATER V4.66.93.0                                                        04/22/2026  19:49:03  PAGE 133


      00FF8E99H   LINE      CODE     ---       #115
      00FF8EABH   LINE      CODE     ---       #116
      00FF8EB0H   LINE      CODE     ---       #120
      ---         BLOCKEND  ---      ---       LVL=0

      00FF9291H   BLOCK     CODE     ---       LVL=0
      00FF9291H   LINE      CODE     ---       #123
      00FF92A5H   LINE      CODE     ---       #125
      00FF92B3H   LINE      CODE     ---       #127
      00FF92C5H   LINE      CODE     ---       #128
      00FF92CCH   LINE      CODE     ---       #130
      00FF92D8H   LINE      CODE     ---       #132
      00FF92E4H   LINE      CODE     ---       #133
      00FF92E4H   LINE      CODE     ---       #136
      00FF92F2H   LINE      CODE     ---       #138
      00FF9304H   LINE      CODE     ---       #139
      00FF930BH   LINE      CODE     ---       #143
      ---         BLOCKEND  ---      ---       LVL=0

      00FF9320H   BLOCK     CODE     ---       LVL=0
      00FF9320H   LINE      CODE     ---       #146
      00FF9334H   LINE      CODE     ---       #148
      00FF9342H   LINE      CODE     ---       #150
      00FF9354H   LINE      CODE     ---       #151
      00FF935BH   LINE      CODE     ---       #153
      00FF9367H   LINE      CODE     ---       #155
      00FF9373H   LINE      CODE     ---       #156
      00FF9373H   LINE      CODE     ---       #159
      00FF9381H   LINE      CODE     ---       #161
      00FF9393H   LINE      CODE     ---       #162
      00FF939AH   LINE      CODE     ---       #166
      ---         BLOCKEND  ---      ---       LVL=0

      00FF93AFH   BLOCK     CODE     ---       LVL=0
      00FF93AFH   LINE      CODE     ---       #169
      00FF93C3H   LINE      CODE     ---       #171
      00FF93D1H   LINE      CODE     ---       #173
      00FF93E3H   LINE      CODE     ---       #174
      00FF93EAH   LINE      CODE     ---       #176
      00FF93F6H   LINE      CODE     ---       #178
      00FF9402H   LINE      CODE     ---       #179
      00FF9402H   LINE      CODE     ---       #182
      00FF9410H   LINE      CODE     ---       #184
      00FF9422H   LINE      CODE     ---       #185
      00FF9429H   LINE      CODE     ---       #189
      ---         BLOCKEND  ---      ---       LVL=0

      00FF9F1AH   BLOCK     CODE     ---       LVL=0
      00FF9F1AH   LINE      CODE     ---       #192
      00FF9F2EH   LINE      CODE     ---       #194
      00FF9F31H   LINE      CODE     ---       #196
      00FF9F3DH   LINE      CODE     ---       #198
      00FF9F45H   LINE      CODE     ---       #199
      ---         BLOCKEND  ---      ---       LVL=0

      00FF9F5AH   BLOCK     CODE     ---       LVL=0
      00FF9F5AH   LINE      CODE     ---       #202
      00FF9F6EH   LINE      CODE     ---       #204
      00FF9F71H   LINE      CODE     ---       #206
      00FF9F7DH   LINE      CODE     ---       #208
      00FF9F85H   LINE      CODE     ---       #209
      ---         BLOCKEND  ---      ---       LVL=0

      00FF9F9AH   BLOCK     CODE     ---       LVL=0
      00FF9F9AH   LINE      CODE     ---       #212
L251 LINKER/LOCATER V4.66.93.0                                                        04/22/2026  19:49:03  PAGE 134


      00FF9FAEH   LINE      CODE     ---       #214
      00FF9FB1H   LINE      CODE     ---       #216
      00FF9FBDH   LINE      CODE     ---       #218
      00FF9FC5H   LINE      CODE     ---       #219
      ---         BLOCKEND  ---      ---       LVL=0

      00FF9FDAH   BLOCK     CODE     ---       LVL=0
      00FF9FDAH   LINE      CODE     ---       #222
      00FF9FEEH   LINE      CODE     ---       #224
      00FF9FF1H   LINE      CODE     ---       #226
      00FF9FFDH   LINE      CODE     ---       #228
      00FFA005H   LINE      CODE     ---       #229
      ---         BLOCKEND  ---      ---       LVL=0

      00FFA01AH   BLOCK     CODE     ---       LVL=0
      00FFA01AH   LINE      CODE     ---       #232
      00FFA02EH   LINE      CODE     ---       #234
      00FFA031H   LINE      CODE     ---       #236
      00FFA03DH   LINE      CODE     ---       #238
      00FFA045H   LINE      CODE     ---       #239
      ---         BLOCKEND  ---      ---       LVL=0

      ---         MODULE    ---      ---       main
      00FFA254H   PUBLIC    CODE     ---       main
      00FF7294H   PUBLIC    CODE     ---       _m
      000000D0H   SFRSYM    DATA     BYTE      PSW
      0000009DH   SFRSYM    DATA     BYTE      IRCBAND
      00000097H   SFRSYM    DATA     BYTE      AUXR2
      000000EFH   SFRSYM    DATA     BYTE      AUXINTIF
      000000FDH   SFRSYM    DATA     BYTE      S4CON
      000000ACH   SFRSYM    DATA     BYTE      S3CON
      0000009AH   SFRSYM    DATA     BYTE      S2CON
      000000B7H   SFRSYM    DATA     BYTE      IPH
      000000CDH   SFRSYM    DATA     BYTE      SPSTAT
      000000DDH   SFRSYM    DATA     BYTE      T4T3M
      000000C1H   SFRSYM    DATA     BYTE      WDT_CONTR
      000000DFH   SFRSYM    DATA     BYTE      IP3
      000000F4H   SFRSYM    DATA     BYTE      USBCON
      000000B5H   SFRSYM    DATA     BYTE      IP2
      000000FFH   SFRSYM    DATA     BYTE      RSTCFG
      000000C7H   SFRSYM    DATA     BYTE      IAP_CONTR
      000000F9H   SFRSYM    DATA     BYTE      LINICR
      0000008EH   SFRSYM    DATA     BYTE      AUXR
      000000AFH   SFRSYM    DATA     BYTE      IE2
      000000F8H.7 SFRSYM    DATA     BIT       P77
      00000088H   SFRSYM    DATA     BYTE      TCON
      00000089H   SFRSYM    DATA     BYTE      TMOD
      00000098H   SFRSYM    DATA     BYTE      SCON
      000000F1H   SFRSYM    DATA     BYTE      CANICR
      00000087H   SFRSYM    DATA     BYTE      PCON
      000000BCH   SFRSYM    DATA     BYTE      ADC_CONTR
      000000E7H   SFRSYM    DATA     BYTE      CMPCR2
      000000E6H   SFRSYM    DATA     BYTE      CMPCR1
      000000DEH   SFRSYM    DATA     BYTE      ADCCFG
      000000B8H   SFRSYM    DATA     BYTE      IP
      0000008FH   SFRSYM    DATA     BYTE      INTCLKO
      000000EEH   SFRSYM    DATA     BYTE      IP3H
      000000B6H   SFRSYM    DATA     BYTE      IP2H
      000000A8H   SFRSYM    DATA     BYTE      IE
      000000BBH   SFRSYM    DATA     BYTE      P_SW3
      000000BAH   SFRSYM    DATA     BYTE      P_SW2
      000000A2H   SFRSYM    DATA     BYTE      P_SW1
      000000CEH   SFRSYM    DATA     BYTE      SPCTL
      000000F8H   SFRSYM    DATA     BYTE      P7
      000000E8H   SFRSYM    DATA     BYTE      P6
L251 LINKER/LOCATER V4.66.93.0                                                        04/22/2026  19:49:03  PAGE 135


      000000C8H   SFRSYM    DATA     BYTE      P5
      000000C0H   SFRSYM    DATA     BYTE      P4
      000000B0H   SFRSYM    DATA     BYTE      P3
      000000A0H   SFRSYM    DATA     BYTE      P2
      00000090H   SFRSYM    DATA     BYTE      P1
      00000080H   SFRSYM    DATA     BYTE      P0

      00FFA254H   BLOCK     CODE     ---       LVL=0
      00FFA254H   LINE      CODE     ---       #2
      ---         BLOCKEND  ---      ---       LVL=0

      00FF7294H   BLOCK     CODE     ---       LVL=0
      00FF7294H   LINE      CODE     ---       #2
      00FF7294H   LINE      CODE     ---       #4
      00FF729FH   LINE      CODE     ---       #5
      00FF72A2H   LINE      CODE     ---       #6
      00FF72A5H   LINE      CODE     ---       #7
      00FF72FAH   LINE      CODE     ---       #8
      00FF734DH   LINE      CODE     ---       #9
      00FF73A0H   LINE      CODE     ---       #10
      00FF73B0H   LINE      CODE     ---       #11
      00FF73B3H   LINE      CODE     ---       #12
      00FF73BAH   LINE      CODE     ---       #13
      00FF73BDH   LINE      CODE     ---       #14
      00FF73C4H   LINE      CODE     ---       #15
      00FF73C7H   LINE      CODE     ---       #16
      00FF73C7H   LINE      CODE     ---       #18
      00FF73D2H   LINE      CODE     ---       #19
      00FF744EH   LINE      CODE     ---       #20
      00FF7451H   LINE      CODE     ---       #23
      ---         BLOCKEND  ---      ---       LVL=0

      ---         MODULE    ---      ---       all_init
      00FF9937H   PUBLIC    CODE     ---       ALL_init
      000000D0H   SFRSYM    DATA     BYTE      PSW
      0000009DH   SFRSYM    DATA     BYTE      IRCBAND
      00000097H   SFRSYM    DATA     BYTE      AUXR2
      000000EFH   SFRSYM    DATA     BYTE      AUXINTIF
      000000FDH   SFRSYM    DATA     BYTE      S4CON
      000000ACH   SFRSYM    DATA     BYTE      S3CON
      0000009AH   SFRSYM    DATA     BYTE      S2CON
      000000B7H   SFRSYM    DATA     BYTE      IPH
      000000CDH   SFRSYM    DATA     BYTE      SPSTAT
      000000DDH   SFRSYM    DATA     BYTE      T4T3M
      000000C1H   SFRSYM    DATA     BYTE      WDT_CONTR
      000000DFH   SFRSYM    DATA     BYTE      IP3
      000000F4H   SFRSYM    DATA     BYTE      USBCON
      000000B5H   SFRSYM    DATA     BYTE      IP2
      000000FFH   SFRSYM    DATA     BYTE      RSTCFG
      000000C7H   SFRSYM    DATA     BYTE      IAP_CONTR
      000000F9H   SFRSYM    DATA     BYTE      LINICR
      0000008EH   SFRSYM    DATA     BYTE      AUXR
      000000AFH   SFRSYM    DATA     BYTE      IE2
      00000088H   SFRSYM    DATA     BYTE      TCON
      00000089H   SFRSYM    DATA     BYTE      TMOD
      00000098H   SFRSYM    DATA     BYTE      SCON
      000000F1H   SFRSYM    DATA     BYTE      CANICR
      00000087H   SFRSYM    DATA     BYTE      PCON
      000000BCH   SFRSYM    DATA     BYTE      ADC_CONTR
      000000E7H   SFRSYM    DATA     BYTE      CMPCR2
      000000E6H   SFRSYM    DATA     BYTE      CMPCR1
      000000DEH   SFRSYM    DATA     BYTE      ADCCFG
      000000B8H   SFRSYM    DATA     BYTE      IP
      0000008FH   SFRSYM    DATA     BYTE      INTCLKO
      000000EEH   SFRSYM    DATA     BYTE      IP3H
L251 LINKER/LOCATER V4.66.93.0                                                        04/22/2026  19:49:03  PAGE 136


      000000B6H   SFRSYM    DATA     BYTE      IP2H
      000000A8H   SFRSYM    DATA     BYTE      IE
      000000BBH   SFRSYM    DATA     BYTE      P_SW3
      000000BAH   SFRSYM    DATA     BYTE      P_SW2
      000000A2H   SFRSYM    DATA     BYTE      P_SW1
      000000CEH   SFRSYM    DATA     BYTE      SPCTL
      000000F8H   SFRSYM    DATA     BYTE      P7
      000000E8H   SFRSYM    DATA     BYTE      P6
      000000C8H   SFRSYM    DATA     BYTE      P5
      000000C0H   SFRSYM    DATA     BYTE      P4
      000000B0H   SFRSYM    DATA     BYTE      P3
      000000A0H   SFRSYM    DATA     BYTE      P2
      00000090H   SFRSYM    DATA     BYTE      P1
      00000080H   SFRSYM    DATA     BYTE      P0

      00FF9937H   BLOCK     CODE     ---       LVL=0
      00FF9937H   LINE      CODE     ---       #2
      00FF9937H   LINE      CODE     ---       #4
      00FF993AH   LINE      CODE     ---       #5
      00FF993DH   LINE      CODE     ---       #6
      00FF9954H   LINE      CODE     ---       #7
      00FF996BH   LINE      CODE     ---       #8
      00FF997BH   LINE      CODE     ---       #9
      00FF998CH   LINE      CODE     ---       #11
      00FF998FH   LINE      CODE     ---       #12
      00FF9992H   LINE      CODE     ---       #13
      00FF9995H   LINE      CODE     ---       #14
      00FF9998H   LINE      CODE     ---       #15
      00FF999BH   LINE      CODE     ---       #16
      00FF999EH   LINE      CODE     ---       #17
      00FF99A1H   LINE      CODE     ---       #21
      ---         BLOCKEND  ---      ---       LVL=0

      ---         MODULE    ---      ---       encoder
      00FF01AEH   PUBLIC    CODE     ---       pit_handler
      00FFA182H   PUBLIC    CODE     ---       encoder_init
      000000D0H   SFRSYM    DATA     BYTE      PSW
      0000009DH   SFRSYM    DATA     BYTE      IRCBAND
      00000097H   SFRSYM    DATA     BYTE      AUXR2
      000000EFH   SFRSYM    DATA     BYTE      AUXINTIF
      000000FDH   SFRSYM    DATA     BYTE      S4CON
      000000ACH   SFRSYM    DATA     BYTE      S3CON
      0000009AH   SFRSYM    DATA     BYTE      S2CON
      000000B7H   SFRSYM    DATA     BYTE      IPH
      000000CDH   SFRSYM    DATA     BYTE      SPSTAT
      000000DDH   SFRSYM    DATA     BYTE      T4T3M
      000000C1H   SFRSYM    DATA     BYTE      WDT_CONTR
      000000DFH   SFRSYM    DATA     BYTE      IP3
      000000F4H   SFRSYM    DATA     BYTE      USBCON
      000000B5H   SFRSYM    DATA     BYTE      IP2
      000000FFH   SFRSYM    DATA     BYTE      RSTCFG
      000000C7H   SFRSYM    DATA     BYTE      IAP_CONTR
      000000F9H   SFRSYM    DATA     BYTE      LINICR
      0000008EH   SFRSYM    DATA     BYTE      AUXR
      000000AFH   SFRSYM    DATA     BYTE      IE2
      00000088H   SFRSYM    DATA     BYTE      TCON
      00000089H   SFRSYM    DATA     BYTE      TMOD
      00000098H   SFRSYM    DATA     BYTE      SCON
      000000F1H   SFRSYM    DATA     BYTE      CANICR
      00000087H   SFRSYM    DATA     BYTE      PCON
      000000BCH   SFRSYM    DATA     BYTE      ADC_CONTR
      000000E7H   SFRSYM    DATA     BYTE      CMPCR2
      000000E6H   SFRSYM    DATA     BYTE      CMPCR1
      000000DEH   SFRSYM    DATA     BYTE      ADCCFG
      000000B8H   SFRSYM    DATA     BYTE      IP
L251 LINKER/LOCATER V4.66.93.0                                                        04/22/2026  19:49:03  PAGE 137


      0000008FH   SFRSYM    DATA     BYTE      INTCLKO
      000000EEH   SFRSYM    DATA     BYTE      IP3H
      000000B6H   SFRSYM    DATA     BYTE      IP2H
      000000A8H   SFRSYM    DATA     BYTE      IE
      000000BBH   SFRSYM    DATA     BYTE      P_SW3
      000000BAH   SFRSYM    DATA     BYTE      P_SW2
      000000A2H   SFRSYM    DATA     BYTE      P_SW1
      000000CEH   SFRSYM    DATA     BYTE      SPCTL
      000000F8H   SFRSYM    DATA     BYTE      P7
      000000E8H   SFRSYM    DATA     BYTE      P6
      000000C8H   SFRSYM    DATA     BYTE      P5
      000000C0H   SFRSYM    DATA     BYTE      P4
      000000B0H   SFRSYM    DATA     BYTE      P3
      000000A0H   SFRSYM    DATA     BYTE      P2
      00000090H   SFRSYM    DATA     BYTE      P1
      00000080H   SFRSYM    DATA     BYTE      P0

      00FFA182H   BLOCK     CODE     ---       LVL=0
      00FFA182H   LINE      CODE     ---       #14
      00FFA182H   LINE      CODE     ---       #16
      00FFA18CH   LINE      CODE     ---       #17
      00FFA1ACH   LINE      CODE     ---       #18
      00FFA1B9H   LINE      CODE     ---       #19
      ---         BLOCKEND  ---      ---       LVL=0

      00FF01AEH   BLOCK     CODE     ---       LVL=0
      00FF01AEH   LINE      CODE     ---       #21
      00FF01AEH   LINE      CODE     ---       #23
      00FF01B1H   LINE      CODE     ---       #24
      00FF01B4H   LINE      CODE     ---       #25
      00FF01B7H   LINE      CODE     ---       #27
      ---         BLOCKEND  ---      ---       LVL=0

      ---         MODULE    ---      ---       moto
      00FF943EH   PUBLIC    CODE     ---       Motor_SetSpeed
      00FFA2A8H   PUBLIC    CODE     ---       ABS
      000000D0H   SFRSYM    DATA     BYTE      PSW
      0000009DH   SFRSYM    DATA     BYTE      IRCBAND
      00000097H   SFRSYM    DATA     BYTE      AUXR2
      000000EFH   SFRSYM    DATA     BYTE      AUXINTIF
      000000FDH   SFRSYM    DATA     BYTE      S4CON
      000000ACH   SFRSYM    DATA     BYTE      S3CON
      0000009AH   SFRSYM    DATA     BYTE      S2CON
      000000B7H   SFRSYM    DATA     BYTE      IPH
      000000CDH   SFRSYM    DATA     BYTE      SPSTAT
      000000DDH   SFRSYM    DATA     BYTE      T4T3M
      000000C1H   SFRSYM    DATA     BYTE      WDT_CONTR
      000000DFH   SFRSYM    DATA     BYTE      IP3
      000000F4H   SFRSYM    DATA     BYTE      USBCON
      000000B5H   SFRSYM    DATA     BYTE      IP2
      000000FFH   SFRSYM    DATA     BYTE      RSTCFG
      000000C7H   SFRSYM    DATA     BYTE      IAP_CONTR
      000000F9H   SFRSYM    DATA     BYTE      LINICR
      0000008EH   SFRSYM    DATA     BYTE      AUXR
      000000AFH   SFRSYM    DATA     BYTE      IE2
      00000088H   SFRSYM    DATA     BYTE      TCON
      00000089H   SFRSYM    DATA     BYTE      TMOD
      00000098H   SFRSYM    DATA     BYTE      SCON
      000000F1H   SFRSYM    DATA     BYTE      CANICR
      00000087H   SFRSYM    DATA     BYTE      PCON
      000000BCH   SFRSYM    DATA     BYTE      ADC_CONTR
      000000E7H   SFRSYM    DATA     BYTE      CMPCR2
      000000E6H   SFRSYM    DATA     BYTE      CMPCR1
      000000DEH   SFRSYM    DATA     BYTE      ADCCFG
      000000B8H   SFRSYM    DATA     BYTE      IP
L251 LINKER/LOCATER V4.66.93.0                                                        04/22/2026  19:49:03  PAGE 138


      0000008FH   SFRSYM    DATA     BYTE      INTCLKO
      000000EEH   SFRSYM    DATA     BYTE      IP3H
      000000B6H   SFRSYM    DATA     BYTE      IP2H
      000000A8H   SFRSYM    DATA     BYTE      IE
      000000BBH   SFRSYM    DATA     BYTE      P_SW3
      000000BAH   SFRSYM    DATA     BYTE      P_SW2
      000000A2H   SFRSYM    DATA     BYTE      P_SW1
      000000CEH   SFRSYM    DATA     BYTE      SPCTL
      000000F8H   SFRSYM    DATA     BYTE      P7
      000000E8H   SFRSYM    DATA     BYTE      P6
      000000C8H   SFRSYM    DATA     BYTE      P5
      000000C0H   SFRSYM    DATA     BYTE      P4
      000000B0H   SFRSYM    DATA     BYTE      P3
      000000A0H   SFRSYM    DATA     BYTE      P2
      00000090H   SFRSYM    DATA     BYTE      P1
      00000080H   SFRSYM    DATA     BYTE      P0

      00FFA2A8H   BLOCK     CODE     ---       LVL=0
      00011FC2H   SYMBOL    XDATA    INT       P
      00FFA2A8H   LINE      CODE     ---       #2
      00FFA2AEH   LINE      CODE     ---       #4
      00FFA2BAH   LINE      CODE     ---       #5
      00FFA2C2H   LINE      CODE     ---       #7
      00FFA2CEH   LINE      CODE     ---       #8
      ---         BLOCKEND  ---      ---       LVL=0

      00FF943EH   BLOCK     CODE     ---       LVL=0
      00011F52H   SYMBOL    XDATA    INT       speed_left
      00011F54H   SYMBOL    XDATA    INT       speed_right
      00FF943EH   LINE      CODE     ---       #10
      00FF944AH   LINE      CODE     ---       #13
      00FF9456H   LINE      CODE     ---       #15
      00FF945EH   LINE      CODE     ---       #16
      00FF9460H   LINE      CODE     ---       #17
      00FF946CH   LINE      CODE     ---       #19
      00FF9475H   LINE      CODE     ---       #20
      00FF9475H   LINE      CODE     ---       #23
      00FF9481H   LINE      CODE     ---       #25
      00FF9489H   LINE      CODE     ---       #26
      00FF948BH   LINE      CODE     ---       #27
      00FF9497H   LINE      CODE     ---       #29
      00FF94A0H   LINE      CODE     ---       #30
      00FF94A0H   LINE      CODE     ---       #32
      00FF94B4H   LINE      CODE     ---       #34
      00FF94C8H   LINE      CODE     ---       #35
      ---         BLOCKEND  ---      ---       LVL=0
      00011E48H   SYMBOL    XDATA    ---       inductance_norm_data
      00011E4CH   SYMBOL    XDATA    WORD      sum

      ---         MODULE    ---      ---       led
      00FFA3AEH   PUBLIC    CODE     ---       LED_Init
      000000D0H   SFRSYM    DATA     BYTE      PSW
      0000009DH   SFRSYM    DATA     BYTE      IRCBAND
      00000097H   SFRSYM    DATA     BYTE      AUXR2
      000000EFH   SFRSYM    DATA     BYTE      AUXINTIF
      000000FDH   SFRSYM    DATA     BYTE      S4CON
      000000ACH   SFRSYM    DATA     BYTE      S3CON
      0000009AH   SFRSYM    DATA     BYTE      S2CON
      000000B7H   SFRSYM    DATA     BYTE      IPH
      000000CDH   SFRSYM    DATA     BYTE      SPSTAT
      000000DDH   SFRSYM    DATA     BYTE      T4T3M
      000000C1H   SFRSYM    DATA     BYTE      WDT_CONTR
      000000DFH   SFRSYM    DATA     BYTE      IP3
      000000F4H   SFRSYM    DATA     BYTE      USBCON
      000000B5H   SFRSYM    DATA     BYTE      IP2
L251 LINKER/LOCATER V4.66.93.0                                                        04/22/2026  19:49:03  PAGE 139


      000000FFH   SFRSYM    DATA     BYTE      RSTCFG
      000000C7H   SFRSYM    DATA     BYTE      IAP_CONTR
      000000F9H   SFRSYM    DATA     BYTE      LINICR
      0000008EH   SFRSYM    DATA     BYTE      AUXR
      000000AFH   SFRSYM    DATA     BYTE      IE2
      00000088H   SFRSYM    DATA     BYTE      TCON
      00000089H   SFRSYM    DATA     BYTE      TMOD
      00000098H   SFRSYM    DATA     BYTE      SCON
      000000F1H   SFRSYM    DATA     BYTE      CANICR
      00000087H   SFRSYM    DATA     BYTE      PCON
      000000BCH   SFRSYM    DATA     BYTE      ADC_CONTR
      000000E7H   SFRSYM    DATA     BYTE      CMPCR2
      000000E6H   SFRSYM    DATA     BYTE      CMPCR1
      000000DEH   SFRSYM    DATA     BYTE      ADCCFG
      000000B8H   SFRSYM    DATA     BYTE      IP
      0000008FH   SFRSYM    DATA     BYTE      INTCLKO
      000000EEH   SFRSYM    DATA     BYTE      IP3H
      000000B6H   SFRSYM    DATA     BYTE      IP2H
      000000A8H   SFRSYM    DATA     BYTE      IE
      000000BBH   SFRSYM    DATA     BYTE      P_SW3
      000000BAH   SFRSYM    DATA     BYTE      P_SW2
      000000A2H   SFRSYM    DATA     BYTE      P_SW1
      000000CEH   SFRSYM    DATA     BYTE      SPCTL
      000000F8H   SFRSYM    DATA     BYTE      P7
      000000E8H   SFRSYM    DATA     BYTE      P6
      000000C8H   SFRSYM    DATA     BYTE      P5
      000000C0H   SFRSYM    DATA     BYTE      P4
      000000B0H   SFRSYM    DATA     BYTE      P3
      000000A0H   SFRSYM    DATA     BYTE      P2
      00000090H   SFRSYM    DATA     BYTE      P1
      00000080H   SFRSYM    DATA     BYTE      P0

      00FFA3AEH   BLOCK     CODE     ---       LVL=0
      00FFA3AEH   LINE      CODE     ---       #19
      00FFA3AEH   LINE      CODE     ---       #21
      00FFA3BFH   LINE      CODE     ---       #22
      00FFA3D0H   LINE      CODE     ---       #23
      ---         BLOCKEND  ---      ---       LVL=0
      00011FC4H   SYMBOL    XDATA    INT       pin
      00011FC6H   SYMBOL    XDATA    INT       pin
      00011FC8H   SYMBOL    XDATA    INT       pin

      ---         MODULE    ---      ---       trank
      00FF7AF5H   PUBLIC    CODE     ---       PID_Init
      00010830H   PUBLIC    XDATA    FLOAT     eleOut_0
      00010834H   PUBLIC    XDATA    FLOAT     eleOut_1
      00010838H   PUBLIC    XDATA    LONG      speed_right
      0001083CH   PUBLIC    XDATA    LONG      speed_left
      00010840H   PUBLIC    XDATA    ---       adc_inductance
      0001084AH   PUBLIC    XDATA    ---       right_spid
      00010886H   PUBLIC    XDATA    FLOAT     eleValue
      0001088AH   PUBLIC    XDATA    ---       left_spid
      000108C6H   PUBLIC    XDATA    INT       Gyro_Z
      000108C8H   PUBLIC    XDATA    ---       Gyro_PID
      00010904H   PUBLIC    XDATA    ---       Turn_PID
      00010940H   PUBLIC    XDATA    FLOAT     elemid
      0001147FH   PUBLIC    XDATA    BYTE      ?PID_Init?BYTE
      00011A6CH   PUBLIC    XDATA    BYTE      ?PID_Calc?BYTE
      00011F56H   PUBLIC    XDATA    BYTE      ?Calculate_Differential_Drive?BYTE
      000000D0H   SFRSYM    DATA     BYTE      PSW
      0000009DH   SFRSYM    DATA     BYTE      IRCBAND
      00000097H   SFRSYM    DATA     BYTE      AUXR2
      000000EFH   SFRSYM    DATA     BYTE      AUXINTIF
      000000FDH   SFRSYM    DATA     BYTE      S4CON
      000000ACH   SFRSYM    DATA     BYTE      S3CON
L251 LINKER/LOCATER V4.66.93.0                                                        04/22/2026  19:49:03  PAGE 140


      0000009AH   SFRSYM    DATA     BYTE      S2CON
      000000B7H   SFRSYM    DATA     BYTE      IPH
      000000CDH   SFRSYM    DATA     BYTE      SPSTAT
      000000DDH   SFRSYM    DATA     BYTE      T4T3M
      000000C1H   SFRSYM    DATA     BYTE      WDT_CONTR
      000000DFH   SFRSYM    DATA     BYTE      IP3
      000000F4H   SFRSYM    DATA     BYTE      USBCON
      000000B5H   SFRSYM    DATA     BYTE      IP2
      000000FFH   SFRSYM    DATA     BYTE      RSTCFG
      000000C7H   SFRSYM    DATA     BYTE      IAP_CONTR
      000000F9H   SFRSYM    DATA     BYTE      LINICR
      0000008EH   SFRSYM    DATA     BYTE      AUXR
      000000AFH   SFRSYM    DATA     BYTE      IE2
      00000088H   SFRSYM    DATA     BYTE      TCON
      00000089H   SFRSYM    DATA     BYTE      TMOD
      00000098H   SFRSYM    DATA     BYTE      SCON
      000000F1H   SFRSYM    DATA     BYTE      CANICR
      00000087H   SFRSYM    DATA     BYTE      PCON
      000000BCH   SFRSYM    DATA     BYTE      ADC_CONTR
      000000E7H   SFRSYM    DATA     BYTE      CMPCR2
      000000E6H   SFRSYM    DATA     BYTE      CMPCR1
      000000DEH   SFRSYM    DATA     BYTE      ADCCFG
      000000B8H   SFRSYM    DATA     BYTE      IP
      0000008FH   SFRSYM    DATA     BYTE      INTCLKO
      000000EEH   SFRSYM    DATA     BYTE      IP3H
      000000B6H   SFRSYM    DATA     BYTE      IP2H
      000000A8H   SFRSYM    DATA     BYTE      IE
      000000BBH   SFRSYM    DATA     BYTE      P_SW3
      000000BAH   SFRSYM    DATA     BYTE      P_SW2
      000000A2H   SFRSYM    DATA     BYTE      P_SW1
      000000CEH   SFRSYM    DATA     BYTE      SPCTL
      000000F8H   SFRSYM    DATA     BYTE      P7
      000000E8H   SFRSYM    DATA     BYTE      P6
      000000C8H   SFRSYM    DATA     BYTE      P5
      000000C0H   SFRSYM    DATA     BYTE      P4
      000000B0H   SFRSYM    DATA     BYTE      P3
      000000A0H   SFRSYM    DATA     BYTE      P2
      00000090H   SFRSYM    DATA     BYTE      P1
      00000080H   SFRSYM    DATA     BYTE      P0

      00FF7AF5H   BLOCK     CODE     ---       LVL=0
      0001147FH   SYMBOL    XDATA    ---       pid
      00011483H   SYMBOL    XDATA    FLOAT     kp
      00011487H   SYMBOL    XDATA    FLOAT     ki
      0001148BH   SYMBOL    XDATA    FLOAT     kd
      0001148FH   SYMBOL    XDATA    FLOAT     max_out
      00011493H   SYMBOL    XDATA    FLOAT     max_i
      00FF7AF5H   LINE      CODE     ---       #30
      00FF7B09H   LINE      CODE     ---       #32
      00FF7B24H   LINE      CODE     ---       #33
      00FF7B41H   LINE      CODE     ---       #34
      00FF7B60H   LINE      CODE     ---       #35
      00FF7B80H   LINE      CODE     ---       #36
      00FF7BA0H   LINE      CODE     ---       #38
      00FF7BB7H   LINE      CODE     ---       #39
      00FF7BCEH   LINE      CODE     ---       #40
      00FF7BE5H   LINE      CODE     ---       #41
      00FF7BFCH   LINE      CODE     ---       #42
      00FF7C13H   LINE      CODE     ---       #43
      00FF7C2AH   LINE      CODE     ---       #44
      00FF7C41H   LINE      CODE     ---       #45
      00FF7C58H   LINE      CODE     ---       #46
      00FF7C6FH   LINE      CODE     ---       #47
      00FF7C86H   LINE      CODE     ---       #48
      ---         BLOCKEND  ---      ---       LVL=0
L251 LINKER/LOCATER V4.66.93.0                                                        04/22/2026  19:49:03  PAGE 141


      00011A6CH   SYMBOL    XDATA    ---       pid
      00011A70H   SYMBOL    XDATA    FLOAT     target
      00011A74H   SYMBOL    XDATA    FLOAT     measure
      00010944H   SYMBOL    XDATA    INT       t
      00011F56H   SYMBOL    XDATA    FLOAT     k
      00011E4EH   SYMBOL    XDATA    ---       pid
      00011E52H   SYMBOL    XDATA    INT       current_speed

      ---         MODULE    ---      ---       inductance
      00FFA364H   PUBLIC    CODE     ---       Inductance_Init
      00011A78H   PUBLIC    XDATA    BYTE      ?range_protect_float?BYTE
      000000D0H   SFRSYM    DATA     BYTE      PSW
      0000009DH   SFRSYM    DATA     BYTE      IRCBAND
      00000097H   SFRSYM    DATA     BYTE      AUXR2
      000000EFH   SFRSYM    DATA     BYTE      AUXINTIF
      000000FDH   SFRSYM    DATA     BYTE      S4CON
      000000ACH   SFRSYM    DATA     BYTE      S3CON
      0000009AH   SFRSYM    DATA     BYTE      S2CON
      000000B7H   SFRSYM    DATA     BYTE      IPH
      000000CDH   SFRSYM    DATA     BYTE      SPSTAT
      000000DDH   SFRSYM    DATA     BYTE      T4T3M
      000000C1H   SFRSYM    DATA     BYTE      WDT_CONTR
      000000DFH   SFRSYM    DATA     BYTE      IP3
      000000F4H   SFRSYM    DATA     BYTE      USBCON
      000000B5H   SFRSYM    DATA     BYTE      IP2
      000000FFH   SFRSYM    DATA     BYTE      RSTCFG
      000000C7H   SFRSYM    DATA     BYTE      IAP_CONTR
      000000F9H   SFRSYM    DATA     BYTE      LINICR
      0000008EH   SFRSYM    DATA     BYTE      AUXR
      000000AFH   SFRSYM    DATA     BYTE      IE2
      00000088H   SFRSYM    DATA     BYTE      TCON
      00000089H   SFRSYM    DATA     BYTE      TMOD
      00000098H   SFRSYM    DATA     BYTE      SCON
      000000F1H   SFRSYM    DATA     BYTE      CANICR
      00000087H   SFRSYM    DATA     BYTE      PCON
      000000BCH   SFRSYM    DATA     BYTE      ADC_CONTR
      000000E7H   SFRSYM    DATA     BYTE      CMPCR2
      000000E6H   SFRSYM    DATA     BYTE      CMPCR1
      000000DEH   SFRSYM    DATA     BYTE      ADCCFG
      000000B8H   SFRSYM    DATA     BYTE      IP
      0000008FH   SFRSYM    DATA     BYTE      INTCLKO
      000000EEH   SFRSYM    DATA     BYTE      IP3H
      000000B6H   SFRSYM    DATA     BYTE      IP2H
      000000A8H   SFRSYM    DATA     BYTE      IE
      000000BBH   SFRSYM    DATA     BYTE      P_SW3
      000000BAH   SFRSYM    DATA     BYTE      P_SW2
      000000A2H   SFRSYM    DATA     BYTE      P_SW1
      000000CEH   SFRSYM    DATA     BYTE      SPCTL
      000000F8H   SFRSYM    DATA     BYTE      P7
      000000E8H   SFRSYM    DATA     BYTE      P6
      000000C8H   SFRSYM    DATA     BYTE      P5
      000000C0H   SFRSYM    DATA     BYTE      P4
      000000B0H   SFRSYM    DATA     BYTE      P3
      000000A0H   SFRSYM    DATA     BYTE      P2
      00000090H   SFRSYM    DATA     BYTE      P1
      00000080H   SFRSYM    DATA     BYTE      P0
      00011E54H   SYMBOL    XDATA    INT       value
      00011E56H   SYMBOL    XDATA    INT       min_value
      00011E58H   SYMBOL    XDATA    INT       max_value
      00011A78H   SYMBOL    XDATA    FLOAT     value
      00011A7CH   SYMBOL    XDATA    FLOAT     min_value
      00011A80H   SYMBOL    XDATA    FLOAT     max_value

      00FFA364H   BLOCK     CODE     ---       LVL=0
      00FFA364H   LINE      CODE     ---       #40
L251 LINKER/LOCATER V4.66.93.0                                                        04/22/2026  19:49:03  PAGE 142


      00FFA364H   LINE      CODE     ---       #42
      00FFA36DH   LINE      CODE     ---       #43
      00FFA376H   LINE      CODE     ---       #44
      00FFA37FH   LINE      CODE     ---       #45
      00FFA388H   LINE      CODE     ---       #46
      ---         BLOCKEND  ---      ---       LVL=0
      00011835H   SYMBOL    XDATA    ---       arr
      00011839H   SYMBOL    XDATA    INT       times
      0001183BH   SYMBOL    XDATA    INT       min
      0001183DH   SYMBOL    XDATA    INT       max
      0001183FH   SYMBOL    XDATA    INT       sum
      00011841H   SYMBOL    XDATA    INT       i
      00011D4AH   SYMBOL    XDATA    WORD      adc_val
      00011D4CH   SYMBOL    XDATA    WORD      adc_max
      00011D4EH   SYMBOL    XDATA    FLOAT     temp
      00011561H   SYMBOL    XDATA    INT       L
      00011563H   SYMBOL    XDATA    INT       LM
      00011565H   SYMBOL    XDATA    INT       RM
      00011567H   SYMBOL    XDATA    INT       R
      00011569H   SYMBOL    XDATA    FLOAT     scaled_err
      0001156DH   SYMBOL    XDATA    FLOAT     numerator
      00011571H   SYMBOL    XDATA    FLOAT     denominator
      00010EF1H   SYMBOL    XDATA    ---       inductance_norm_data
      00010EF5H   SYMBOL    XDATA    BYTE      i
      00010EF6H   SYMBOL    XDATA    ---       inductance_init_data
      00010F28H   SYMBOL    XDATA    ---       inductance_filter_data

      ---         MODULE    ---      ---       menu
      00FF8980H   PUBLIC    CODE     ---       Oscilloscope_Display
      00FFA461H   PUBLIC    CODE     ---       Parameter_Debug_Init
      00FF0046H   PUBLIC    CODE     ---       Oscilloscope_Init
      00010A14H   PUBLIC    XDATA    ---       gyro_buffer
      00010A74H   PUBLIC    XDATA    ---       send_str
      00010A94H   PUBLIC    XDATA    ---       data_buffer
      0001141EH   PUBLIC    XDATA    BYTE      ?Parameter_Debug?BYTE
      00011292H   PUBLIC    XDATA    BYTE      ?Oscilloscope_Display?BYTE
      000000D0H   SFRSYM    DATA     BYTE      PSW
      0000009DH   SFRSYM    DATA     BYTE      IRCBAND
      00000097H   SFRSYM    DATA     BYTE      AUXR2
      000000EFH   SFRSYM    DATA     BYTE      AUXINTIF
      000000FDH   SFRSYM    DATA     BYTE      S4CON
      000000ACH   SFRSYM    DATA     BYTE      S3CON
      0000009AH   SFRSYM    DATA     BYTE      S2CON
      000000B7H   SFRSYM    DATA     BYTE      IPH
      000000CDH   SFRSYM    DATA     BYTE      SPSTAT
      000000DDH   SFRSYM    DATA     BYTE      T4T3M
      000000C1H   SFRSYM    DATA     BYTE      WDT_CONTR
      000000DFH   SFRSYM    DATA     BYTE      IP3
      000000F4H   SFRSYM    DATA     BYTE      USBCON
      000000B5H   SFRSYM    DATA     BYTE      IP2
      000000FFH   SFRSYM    DATA     BYTE      RSTCFG
      000000C7H   SFRSYM    DATA     BYTE      IAP_CONTR
      000000F9H   SFRSYM    DATA     BYTE      LINICR
      0000008EH   SFRSYM    DATA     BYTE      AUXR
      000000AFH   SFRSYM    DATA     BYTE      IE2
      00000088H   SFRSYM    DATA     BYTE      TCON
      00000089H   SFRSYM    DATA     BYTE      TMOD
      00000098H   SFRSYM    DATA     BYTE      SCON
      000000F1H   SFRSYM    DATA     BYTE      CANICR
      00000087H   SFRSYM    DATA     BYTE      PCON
      000000BCH   SFRSYM    DATA     BYTE      ADC_CONTR
      000000E7H   SFRSYM    DATA     BYTE      CMPCR2
      000000E6H   SFRSYM    DATA     BYTE      CMPCR1
      000000DEH   SFRSYM    DATA     BYTE      ADCCFG
      000000B8H   SFRSYM    DATA     BYTE      IP
L251 LINKER/LOCATER V4.66.93.0                                                        04/22/2026  19:49:03  PAGE 143


      0000008FH   SFRSYM    DATA     BYTE      INTCLKO
      000000EEH   SFRSYM    DATA     BYTE      IP3H
      000000B6H   SFRSYM    DATA     BYTE      IP2H
      000000A8H   SFRSYM    DATA     BYTE      IE
      000000BBH   SFRSYM    DATA     BYTE      P_SW3
      000000BAH   SFRSYM    DATA     BYTE      P_SW2
      000000A2H   SFRSYM    DATA     BYTE      P_SW1
      000000CEH   SFRSYM    DATA     BYTE      SPCTL
      000000F8H   SFRSYM    DATA     BYTE      P7
      000000E8H   SFRSYM    DATA     BYTE      P6
      000000C8H   SFRSYM    DATA     BYTE      P5
      000000C0H   SFRSYM    DATA     BYTE      P4
      000000B0H   SFRSYM    DATA     BYTE      P3
      000000A0H   SFRSYM    DATA     BYTE      P2
      00000090H   SFRSYM    DATA     BYTE      P1
      00000080H   SFRSYM    DATA     BYTE      P0
      00010A34H   SYMBOL    XDATA    ---       temp_uart_buffer
      00011F5AH   SYMBOL    XDATA    ---       inductance_data
      00010BD8H   SYMBOL    XDATA    ---       inductance_data
      00010BDCH   SYMBOL    XDATA    ---       send_buf

      00FFA461H   BLOCK     CODE     ---       LVL=0
      00FFA461H   LINE      CODE     ---       #93
      00FFA461H   LINE      CODE     ---       #95
      00FFA46BH   LINE      CODE     ---       #96
      00FFA46EH   LINE      CODE     ---       #97
      ---         BLOCKEND  ---      ---       LVL=0
      0001141EH   SYMBOL    XDATA    ---       param1
      00011422H   SYMBOL    XDATA    ---       param2
      00011426H   SYMBOL    XDATA    ---       param3
      0001142AH   SYMBOL    XDATA    ---       param4
      0001142EH   SYMBOL    XDATA    ---       target1
      00011432H   SYMBOL    XDATA    ---       target2
      00011436H   SYMBOL    XDATA    BYTE      i

      00FF0046H   BLOCK     CODE     ---       LVL=0
      00FF0046H   LINE      CODE     ---       #117
      00FF0046H   LINE      CODE     ---       #119
      00FF0050H   LINE      CODE     ---       #120
      ---         BLOCKEND  ---      ---       LVL=0

      00FF8980H   BLOCK     CODE     ---       LVL=0
      00011292H   SYMBOL    XDATA    FLOAT     num1
      00011296H   SYMBOL    XDATA    FLOAT     num2
      0001129AH   SYMBOL    XDATA    FLOAT     num3
      0001129EH   SYMBOL    XDATA    FLOAT     num4
      000112A2H   SYMBOL    XDATA    LONG      num5
      000112A6H   SYMBOL    XDATA    LONG      num6
      000112AAH   SYMBOL    XDATA    FLOAT     num7
      000112AEH   SYMBOL    XDATA    LONG      num8
      00FF8980H   LINE      CODE     ---       #124
      00FF8994H   LINE      CODE     ---       #126
      00FF89A8H   LINE      CODE     ---       #127
      00FF89BCH   LINE      CODE     ---       #128
      00FF89D0H   LINE      CODE     ---       #129
      00FF89E4H   LINE      CODE     ---       #130
      00FF89FDH   LINE      CODE     ---       #131
      00FF8A16H   LINE      CODE     ---       #132
      00FF8A2AH   LINE      CODE     ---       #133
      00FF8A43H   LINE      CODE     ---       #134
      00FF8A49H   LINE      CODE     ---       #135
      00FF8A54H   LINE      CODE     ---       #136
      ---         BLOCKEND  ---      ---       LVL=0

      ---         MODULE    ---      ---       ?C?FPADD
L251 LINKER/LOCATER V4.66.93.0                                                        04/22/2026  19:49:03  PAGE 144


      00FF21D4H   PUBLIC    CODE     ---       ?C?FPADD
      00FF21D1H   PUBLIC    CODE     ---       ?C?FPSUB

      ---         MODULE    ---      ---       ?C?FPMUL
      00FF228CH   PUBLIC    CODE     ---       ?C?FPMUL

      ---         MODULE    ---      ---       ?C?FPDIV
      00FF232CH   PUBLIC    CODE     ---       ?C?FPDIV

      ---         MODULE    ---      ---       ?C?FPCMP
      00FF23AFH   PUBLIC    CODE     ---       ?C?FPCMP
      00FF23ADH   PUBLIC    CODE     ---       ?C?FPCMP3

      ---         MODULE    ---      ---       ?C?FPNEG
      00FF23F3H   PUBLIC    CODE     ---       ?C?FPNEG

      ---         MODULE    ---      ---       ?C?FCAST
      00FF240BH   PUBLIC    CODE     NEAR LAB  ?C?FCASTC
      00FF2406H   PUBLIC    CODE     NEAR LAB  ?C?FCASTI
      00FF2401H   PUBLIC    CODE     NEAR LAB  ?C?FCASTL

      ---         MODULE    ---      ---       ?C?CASTF
      00FF243EH   PUBLIC    CODE     NEAR LAB  ?C?CASTF

      ---         MODULE    ---      ---       PRINTF
      000111EBH   PUBLIC    XDATA    ---       ?PRINTF?BYTE
      00FF247BH   PUBLIC    CODE     NEAR LAB  PRINTF

      ---         MODULE    ---      ---       SPRINTF
      000111EBH   PUBLIC    XDATA    ---       ?SPRINTF?BYTE
      00FF24A7H   PUBLIC    CODE     NEAR LAB  SPRINTF

      ---         MODULE    ---      ---       SQRT?_
      00FF24C7H   PUBLIC    CODE     ---       SQRT?_

      ---         MODULE    ---      ---       pow

      ---         MODULE    ---      ---       SIN?_
      00FF259FH   PUBLIC    CODE     ---       COS?_
      00FF25BCH   PUBLIC    CODE     ---       SIN?_
      00FF25E9H   PUBLIC    CODE     ---       TAN?_

      ---         MODULE    ---      ---       ATAN?_
      00FF26AFH   PUBLIC    CODE     ---       ATAN?_

      ---         MODULE    ---      ---       ASIN?_
      00FF2781H   PUBLIC    CODE     ---       ASIN?_

      ---         MODULE    ---      ---       ?C?FPGETOPN
      00FF27A1H   PUBLIC    CODE     ---       ?C?FPGETOPN2
      00FF27DEH   PUBLIC    CODE     ---       ?C?FPNANRESULT
      00FF27E6H   PUBLIC    CODE     ---       ?C?FPOVERFLOW
      00FF27BAH   PUBLIC    CODE     ---       ?C?FPRESULT
      00FF27D0H   PUBLIC    CODE     ---       ?C?FPRESULT2
      00FF27E3H   PUBLIC    CODE     ---       ?C?FPUNDERFLOW

      ---         MODULE    ---      ---       _CHKFLOAT_?_
      00FF27F2H   PUBLIC    CODE     ---       _CHKFLOAT_?_

      ---         MODULE    ---      ---       ?C?PRNFMT
      00FF283CH   PUBLIC    CODE     ---       ?C?PRNFMT

      ---         MODULE    ---      ---       ?C?FPSERIES
      00FF2C4BH   PUBLIC    CODE     ---       ?C?FP2SERIES
      00FF2C54H   PUBLIC    CODE     ---       ?C?FPSERIES
L251 LINKER/LOCATER V4.66.93.0                                                        04/22/2026  19:49:03  PAGE 145



      ---         MODULE    ---      ---       EXP?_
      00FF2CB1H   PUBLIC    CODE     ---       EXP?_

      ---         MODULE    ---      ---       LOG?_
      00FF2D40H   PUBLIC    CODE     NEAR LAB  LOG?_

      ---         MODULE    ---      ---       ?C?FPCONVERT
      00FF2E13H   PUBLIC    CODE     ---       ?C?FPCONVERT
      00FF2ECBH   PUBLIC    CODE     ---       ?C?FPROUND

      ---         MODULE    ---      ---       ?C?FTNPWR
      00FF2F3EH   PUBLIC    CODE     ---       ?C?FTNPWR

      ---         MODULE    ---      ---       ?C?INITHDATA
      00FF9D05H   PUBLIC    CODE     ---       ?C?INITHDATA

      ---         MODULE    ---      ---       ?C?SIDIV
      00FF2F75H   PUBLIC    CODE     ---       ?C?SIDIV

      ---         MODULE    ---      ---       ?C?LMUL
      00FF2FA7H   PUBLIC    CODE     ---       ?C?LMUL

      ---         MODULE    ---      ---       ?C?LIMUL
      00FF2FB8H   PUBLIC    CODE     ---       ?C?LIMUL

      ---         MODULE    ---      ---       ?C?ULDIV
      00FF2FC3H   PUBLIC    CODE     NEAR LAB  ?C?ULDIV
      00FF2FC1H   PUBLIC    CODE     NEAR LAB  ?C?ULIDIV

      ---         MODULE    ---      ---       ?C?SLDIV
      00FF3014H   PUBLIC    CODE     NEAR LAB  ?C?SLDIV

      ---         MODULE    ---      ---       ?C?BMOVEPP
      00FF304AH   PUBLIC    CODE     ---       ?C?BMOVEPP
      00FF3048H   PUBLIC    CODE     ---       ?C?BMOVEPP8

      ---         MODULE    ---      ---       STRNCMP

      ---         MODULE    ---      ---       STRNCPY

      ---         MODULE    ---      ---       STRLEN

      ---         MODULE    ---      ---       STRCHR

      ---         MODULE    ---      ---       memcpy
      00FFA389H   PUBLIC    CODE     ---       memcpy?_

      ---         MODULE    ---      ---       memset

      ---         MODULE    ---      ---       ?C?INITHDATA_END
      00FFA9AAH   PUBLIC    HCONST   WORD      ?C?INITHDATA_END

Program Size: data=8.4 edata+hdata=2060 xdata=8155 const=4079 code=42022
L251 RUN COMPLETE.  0 WARNING(S),  0 ERROR(S)
