L251 LINKER/LOCATER V4.66.93.0                                                          03/29/2026  20:20:13  PAGE 1


L251 LINKER/LOCATER V4.66.93.0, INVOKED BY:
D:\KEIL_V5\C251\BIN\L251.EXE .\out_file\START251.obj, .\out_file\stc32g_isr.obj, .\out_file\zf_common_clock.obj, .\out_f
>> ile\zf_common_debug.obj, .\out_file\zf_common_fifo.obj, .\out_file\zf_common_font.obj, .\out_file\zf_common_function.
>> obj, .\out_file\zf_common_typedef.obj, .\out_file\zf_common_interrupt.obj, .\out_file\zf_driver_adc.obj, .\out_file\z
>> f_driver_delay.obj, .\out_file\zf_driver_eeprom.obj, .\out_file\zf_driver_encoder.obj, .\out_file\zf_driver_exti.obj,
>>  .\out_file\zf_driver_gpio.obj, .\out_file\zf_driver_pit.obj, .\out_file\zf_driver_pwm.obj, .\out_file\zf_driver_soft
>> _iic.obj, .\out_file\zf_driver_soft_spi.obj, .\out_file\zf_driver_spi.obj, .\out_file\zf_driver_timer.obj, .\out_file
>> \zf_driver_uart.obj, .\out_file\eeprom.obj, .\out_file\voltage_warning.obj, .\out_file\zf_device_ble6a20.obj, .\out_f
>> ile\zf_device_config.obj, .\out_file\zf_device_dl1a.obj, .\out_file\zf_device_dl1b.obj, .\out_file\zf_device_gps_tau1
>> 201.obj, .\out_file\zf_device_icm20602.obj, .\out_file\zf_device_imu660ra.obj, .\out_file\zf_device_imu660rb.obj, .\o
>> ut_file\zf_device_imu963ra.obj, .\out_file\zf_device_ips114.obj, .\out_file\zf_device_ips200.obj, .\out_file\zf_devic
>> e_ips200pro.obj, .\out_file\zf_device_tft180.obj, .\out_file\zf_device_tsl1401.obj, .\out_file\zf_device_type.obj, .\
>> out_file\zf_device_wireless_uart.obj, .\out_file\imu.obj, .\out_file\seekfree_assistant.obj, .\out_file\seekfree_assi
>> stant_interface.obj, .\out_file\main.obj, .\out_file\isr.obj, .\out_file\all_init.obj, .\out_file\encoder.obj, .\out_
>> file\moto.obj, .\out_file\led.obj, .\out_file\trank.obj, .\out_file\inductance.obj, .\out_file\menu.obj TO .\out_file
>> \SEEKFREE PRINT (.\out_file\SEEKFREE.map) CASE DISABLEWARNING (57, 16) REMOVEUNUSED CLASSES (EDATA (0X0-0XFFF), HDATA
>>  (0X0-0XFFF))


CPU MODE:     251 SOURCE MODE
INTR FRAME:   4 BYTES SAVED ON INTERRUPT
MEMORY MODEL: LARGE WITH FLOATING POINT ARITHMETIC


INPUT MODULES INCLUDED:
  .\out_file\START251.obj (?C_START)
         COMMENT TYPE 0: A251 V4.69.13.0
  .\out_file\stc32g_isr.obj (stc32g_isr)
         COMMENT TYPE 0: A251 V4.69.13.0
  .\out_file\zf_common_clock.obj (zf_common_clock)
         COMMENT TYPE 0: C251 V5.60.0
  .\out_file\zf_common_debug.obj (zf_common_debug)
         COMMENT TYPE 0: C251 V5.60.0
  .\out_file\zf_common_fifo.obj (zf_common_fifo)
         COMMENT TYPE 0: C251 V5.60.0
  .\out_file\zf_common_font.obj (zf_common_font)
         COMMENT TYPE 0: C251 V5.60.0
  .\out_file\zf_common_function.obj (zf_common_function)
         COMMENT TYPE 0: C251 V5.60.0
  .\out_file\zf_common_typedef.obj (zf_common_typedef)
         COMMENT TYPE 0: C251 V5.60.0
  .\out_file\zf_common_interrupt.obj (zf_common_interrupt)
         COMMENT TYPE 0: C251 V5.60.0
  .\out_file\zf_driver_adc.obj (zf_driver_adc)
         COMMENT TYPE 0: C251 V5.60.0
  .\out_file\zf_driver_delay.obj (zf_driver_delay)
         COMMENT TYPE 0: C251 V5.60.0
  .\out_file\zf_driver_eeprom.obj (zf_driver_eeprom)
         COMMENT TYPE 0: C251 V5.60.0
  .\out_file\zf_driver_encoder.obj (zf_driver_encoder)
         COMMENT TYPE 0: C251 V5.60.0
  .\out_file\zf_driver_exti.obj (zf_driver_exti)
         COMMENT TYPE 0: C251 V5.60.0
  .\out_file\zf_driver_gpio.obj (zf_driver_gpio)
         COMMENT TYPE 0: C251 V5.60.0
  .\out_file\zf_driver_pit.obj (zf_driver_pit)
         COMMENT TYPE 0: C251 V5.60.0
  .\out_file\zf_driver_pwm.obj (zf_driver_pwm)
         COMMENT TYPE 0: C251 V5.60.0
  .\out_file\zf_driver_soft_iic.obj (zf_driver_soft_iic)
         COMMENT TYPE 0: C251 V5.60.0
  .\out_file\zf_driver_soft_spi.obj (zf_driver_soft_spi)
         COMMENT TYPE 0: C251 V5.60.0
  .\out_file\zf_driver_spi.obj (zf_driver_spi)
         COMMENT TYPE 0: C251 V5.60.0
  .\out_file\zf_driver_timer.obj (zf_driver_timer)
L251 LINKER/LOCATER V4.66.93.0                                                        03/29/2026  20:20:13  PAGE 2


         COMMENT TYPE 0: C251 V5.60.0
  .\out_file\zf_driver_uart.obj (zf_driver_uart)
         COMMENT TYPE 0: C251 V5.60.0
  .\out_file\eeprom.obj (eeprom)
         COMMENT TYPE 0: C251 V5.60.0
  .\out_file\voltage_warning.obj (voltage_warning)
         COMMENT TYPE 0: C251 V5.60.0
  .\out_file\zf_device_ble6a20.obj (zf_device_ble6a20)
         COMMENT TYPE 0: C251 V5.60.0
  .\out_file\zf_device_config.obj (zf_device_config)
         COMMENT TYPE 0: C251 V5.60.0
  .\out_file\zf_device_dl1a.obj (zf_device_dl1a)
         COMMENT TYPE 0: C251 V5.60.0
  .\out_file\zf_device_dl1b.obj (zf_device_dl1b)
         COMMENT TYPE 0: C251 V5.60.0
  .\out_file\zf_device_gps_tau1201.obj (zf_device_gps_tau1201)
         COMMENT TYPE 0: C251 V5.60.0
  .\out_file\zf_device_icm20602.obj (zf_device_icm20602)
         COMMENT TYPE 0: C251 V5.60.0
  .\out_file\zf_device_imu660ra.obj (zf_device_imu660ra)
         COMMENT TYPE 0: C251 V5.60.0
  .\out_file\zf_device_imu660rb.obj (zf_device_imu660rb)
         COMMENT TYPE 0: C251 V5.60.0
  .\out_file\zf_device_imu963ra.obj (zf_device_imu963ra)
         COMMENT TYPE 0: C251 V5.60.0
  .\out_file\zf_device_ips114.obj (zf_device_ips114)
         COMMENT TYPE 0: C251 V5.60.0
  .\out_file\zf_device_ips200.obj (zf_device_ips200)
         COMMENT TYPE 0: C251 V5.60.0
  .\out_file\zf_device_ips200pro.obj (zf_device_ips200pro)
         COMMENT TYPE 0: C251 V5.60.0
  .\out_file\zf_device_tft180.obj (zf_device_tft180)
         COMMENT TYPE 0: C251 V5.60.0
  .\out_file\zf_device_tsl1401.obj (zf_device_tsl1401)
         COMMENT TYPE 0: C251 V5.60.0
  .\out_file\zf_device_type.obj (zf_device_type)
         COMMENT TYPE 0: C251 V5.60.0
  .\out_file\zf_device_wireless_uart.obj (zf_device_wireless_uart)
         COMMENT TYPE 0: C251 V5.60.0
  .\out_file\imu.obj (imu)
         COMMENT TYPE 0: C251 V5.60.0
  .\out_file\seekfree_assistant.obj (seekfree_assistant)
         COMMENT TYPE 0: C251 V5.60.0
  .\out_file\seekfree_assistant_interface.obj (seekfree_assistant_interface)
         COMMENT TYPE 0: C251 V5.60.0
  .\out_file\main.obj (main)
         COMMENT TYPE 0: C251 V5.60.0
  .\out_file\isr.obj (isr)
         COMMENT TYPE 0: C251 V5.60.0
  .\out_file\all_init.obj (all_init)
         COMMENT TYPE 0: C251 V5.60.0
  .\out_file\encoder.obj (encoder)
         COMMENT TYPE 0: C251 V5.60.0
  .\out_file\moto.obj (moto)
         COMMENT TYPE 0: C251 V5.60.0
  .\out_file\led.obj (led)
         COMMENT TYPE 0: C251 V5.60.0
  .\out_file\trank.obj (trank)
         COMMENT TYPE 0: C251 V5.60.0
  .\out_file\inductance.obj (inductance)
         COMMENT TYPE 0: C251 V5.60.0
  .\out_file\menu.obj (menu)
         COMMENT TYPE 0: C251 V5.60.0
  D:\KEIL_V5\C251\LIB\C2SFPL.LIB (?C?FPADD)
         COMMENT TYPE 0: A251 V4.69.6.0
L251 LINKER/LOCATER V4.66.93.0                                                        03/29/2026  20:20:13  PAGE 3


  D:\KEIL_V5\C251\LIB\C2SFPL.LIB (?C?FPMUL)
         COMMENT TYPE 0: A251 V4.69.6.0
  D:\KEIL_V5\C251\LIB\C2SFPL.LIB (?C?FPDIV)
         COMMENT TYPE 0: A251 V4.69.6.0
  D:\KEIL_V5\C251\LIB\C2SFPL.LIB (?C?FPCMP)
         COMMENT TYPE 0: A251 V4.69.6.0
  D:\KEIL_V5\C251\LIB\C2SFPL.LIB (?C?FPNEG)
         COMMENT TYPE 0: A251 V4.69.6.0
  D:\KEIL_V5\C251\LIB\C2SFPL.LIB (?C?FCAST)
         COMMENT TYPE 0: A251 V4.69.6.0
  D:\KEIL_V5\C251\LIB\C2SFPL.LIB (?C?CASTF)
         COMMENT TYPE 0: A251 V4.69.6.0
  D:\KEIL_V5\C251\LIB\C2SFPL.LIB (PRINTF)
         COMMENT TYPE 0: A251 V4.69.6.0
  D:\KEIL_V5\C251\LIB\C2SFPL.LIB (SPRINTF)
         COMMENT TYPE 0: A251 V4.69.6.0
  D:\KEIL_V5\C251\LIB\C2SFPL.LIB (SQRT?_)
         COMMENT TYPE 0: A251 V4.69.6.0
  D:\KEIL_V5\C251\LIB\C2SFPL.LIB (pow)
         COMMENT TYPE 0: C251 V5.58.7
  D:\KEIL_V5\C251\LIB\C2SFPL.LIB (SIN?_)
         COMMENT TYPE 0: A251 V4.69.6.0
  D:\KEIL_V5\C251\LIB\C2SFPL.LIB (ATAN?_)
         COMMENT TYPE 0: A251 V4.69.6.0
  D:\KEIL_V5\C251\LIB\C2SFPL.LIB (ASIN?_)
         COMMENT TYPE 0: A251 V4.69.6.0
  D:\KEIL_V5\C251\LIB\C2SFPL.LIB (?C?FPGETOPN)
         COMMENT TYPE 0: A251 V4.69.6.0
  D:\KEIL_V5\C251\LIB\C2SFPL.LIB (_CHKFLOAT_?_)
         COMMENT TYPE 0: A251 V4.69.6.0
  D:\KEIL_V5\C251\LIB\C2SFPL.LIB (?C?PRNFMT)
         COMMENT TYPE 0: A251 V4.69.6.0
  D:\KEIL_V5\C251\LIB\C2SFPL.LIB (?C?FPSERIES)
         COMMENT TYPE 0: A251 V4.69.6.0
  D:\KEIL_V5\C251\LIB\C2SFPL.LIB (EXP?_)
         COMMENT TYPE 0: A251 V4.69.6.0
  D:\KEIL_V5\C251\LIB\C2SFPL.LIB (LOG?_)
         COMMENT TYPE 0: A251 V4.69.6.0
  D:\KEIL_V5\C251\LIB\C2SFPL.LIB (?C?FPCONVERT)
         COMMENT TYPE 0: A251 V4.69.6.0
  D:\KEIL_V5\C251\LIB\C2SFPL.LIB (?C?FTNPWR)
         COMMENT TYPE 0: A251 V4.69.6.0
  D:\KEIL_V5\C251\LIB\C2SL.LIB (?C?INITHDATA)
         COMMENT TYPE 0: A251 V4.69.6.0
  D:\KEIL_V5\C251\LIB\C2SL.LIB (?C?SIDIV)
         COMMENT TYPE 0: A251 V4.69.6.0
  D:\KEIL_V5\C251\LIB\C2SL.LIB (?C?LMUL)
         COMMENT TYPE 0: A251 V4.69.6.0
  D:\KEIL_V5\C251\LIB\C2SL.LIB (?C?LIMUL)
         COMMENT TYPE 0: A251 V4.69.6.0
  D:\KEIL_V5\C251\LIB\C2SL.LIB (?C?ULDIV)
         COMMENT TYPE 0: A251 V4.69.6.0
  D:\KEIL_V5\C251\LIB\C2SL.LIB (?C?SLDIV)
         COMMENT TYPE 0: A251 V4.69.6.0
  D:\KEIL_V5\C251\LIB\C2SL.LIB (?C?BMOVEPP)
         COMMENT TYPE 0: A251 V4.69.6.0
  D:\KEIL_V5\C251\LIB\C2SL.LIB (STRNCMP)
         COMMENT TYPE 0: C251 V5.58.7
  D:\KEIL_V5\C251\LIB\C2SL.LIB (STRNCPY)
         COMMENT TYPE 0: C251 V5.58.7
  D:\KEIL_V5\C251\LIB\C2SL.LIB (STRLEN)
         COMMENT TYPE 0: C251 V5.58.7
  D:\KEIL_V5\C251\LIB\C2SL.LIB (STRCHR)
         COMMENT TYPE 0: C251 V5.58.7
  D:\KEIL_V5\C251\LIB\C2SL.LIB (memcpy)
L251 LINKER/LOCATER V4.66.93.0                                                        03/29/2026  20:20:13  PAGE 4


         COMMENT TYPE 0: C251 V5.58.7
  D:\KEIL_V5\C251\LIB\C2SL.LIB (memset)
         COMMENT TYPE 0: C251 V5.58.7
  D:\KEIL_V5\C251\LIB\C2SL.LIB (?C?INITHDATA_END)
         COMMENT TYPE 0: A251 V4.69.6.0


ACTIVE MEMORY CLASSES OF MODULE:  .\out_file\SEEKFREE (?C_START)

BASE        START       END         USED      MEMORY CLASS
==========================================================
000000H     000000H     000FFFH     00080CH   EDATA
000000H     000000H     000FFFH               HDATA
FF0000H     FF0000H     FFFFFFH     0091C3H   CODE
010000H     010000H     01FFFFH     001F8BH   XDATA
000000H     FF0000H     FFFFFFH     000FE1H   HCONST
000020H.0   000020H.0   00002FH.7   000000H.4 BIT
FF0000H     FF0000H     FFFFFFH     000004H   CONST
000000H     000000H     00007FH     000008H   DATA


MEMORY MAP OF MODULE:  .\out_file\SEEKFREE (?C_START)


START     STOP      LENGTH    ALIGN  RELOC    MEMORY CLASS   SEGMENT NAME
=========================================================================
000000H   000007H   000008H   ---    AT..     DATA           "REG BANK 0"
000008H   00000FH   000008H   BYTE   UNIT     EDATA          ?ED?DL1A_ENCODE_TIMEOUT?ZF_DEVICE_DL1A
000010H   000013H   000004H   BYTE   UNIT     EDATA          ?ED?ICM20602_SIMSPI_R_REG_BYTES?ZF_DEVICE_ICM20602
000014H.0 00001FH.7 00000CH.0 ---    ---      **GAP**
000020H.0 000020H.0 000000H.1 BIT    UNIT     BIT            ?BI?IAP_READ_BYTE?ZF_DRIVER_EEPROM
000020H.1 000020H.1 000000H.1 BIT    UNIT     BIT            ?BI?IAP_WRITE_BYTE?ZF_DRIVER_EEPROM
000020H.2 000020H.2 000000H.1 BIT    UNIT     BIT            ?BI?IAP_ERASE_PAGE?ZF_DRIVER_EEPROM
000020H.3 000020H.3 000000H.1 BIT    UNIT     BIT            ?BI?SEEKFREE_ASSISTANT_DATA_ANALYSIS?SEEKFREE_ASSISTANT
000020H.4 000020H   000000H.4 ---    ---      **GAP**
000021H   000820H   000800H   BYTE   UNIT     EDATA          ?STACK
000821H   00FFFFH   00F7DFH   ---    ---      **GAP**
010000H   010209H   00020AH   BYTE   UNIT     XDATA          ?XD?EXTERN_IAP_WRITE_BUFF?ZF_DRIVER_EEPROM
01020AH   01040BH   000202H   BYTE   INSEG    XDATA          ?XD?ZF_DEVICE_TSL1401
01040CH   0105D3H   0001C8H   BYTE   INSEG    XDATA          ?XD?ZF_DEVICE_GPS_TAU1201
0105D4H   010710H   00013DH   BYTE   INSEG    XDATA          ?XD?SEEKFREE_ASSISTANT
010711H   01082FH   00011FH   BYTE   INSEG    XDATA          ?XD?IMU
010830H   0108FDH   0000CEH   BYTE   UNIT     XDATA          ?XD?DL1A_INIT?ZF_DEVICE_DL1A
0108FEH   0109A1H   0000A4H   BYTE   INSEG    XDATA          ?XD?TRANK
0109A2H   010A41H   0000A0H   BYTE   INSEG    XDATA          ?XD?MENU
010A42H   010AD6H   000095H   BYTE   UNIT     XDATA          ?XD?GPS_INIT?ZF_DEVICE_GPS_TAU1201
010AD7H   010B65H   00008FH   BYTE   UNIT     XDATA          ?XD?SEEKFREE_ASSISTANT_DATA_ANALYSIS?SEEKFREE_ASSISTANT
010B66H   010BE9H   000084H   BYTE   UNIT     XDATA          ?XD?SEND_DATA_TO_PC?MENU
010BEAH   010C48H   00005FH   BYTE   UNIT     XDATA          ?XD?ZF_SPRINTF?ZF_COMMON_FUNCTION
010C49H   010CA1H   000059H   BYTE   INSEG    XDATA          ?XD?ZF_COMMON_DEBUG
010CA2H   010CF8H   000057H   BYTE   INSEG    XDATA          ?XD?ZF_DEVICE_BLE6A20
010CF9H   010D4FH   000057H   BYTE   INSEG    XDATA          ?XD?ZF_DEVICE_WIRELESS_UART
010D50H   010DA2H   000053H   BYTE   UNIT     XDATA          ?XD?VSNPRINTF?ZF_COMMON_FUNCTION
010DA3H   010DEFH   00004DH   BYTE   INSEG    XDATA          ?XD?ZF_DEVICE_IPS200PRO
010DF0H   010E3BH   00004CH   BYTE   INSEG    XDATA          ?XD?MAIN
010E3CH   010E85H   00004AH   BYTE   UNIT     XDATA          ?XD?UART_WRITE_BUFFER?ZF_DRIVER_UART
010E86H   010ECAH   000045H   BYTE   UNIT     XDATA          ?XD?IPS200PRO_TABLE_CELL_PRINTF?ZF_DEVICE_IPS200PRO
010ECBH   010F0BH   000041H   BYTE   UNIT     XDATA          ?XD?INDUCTANCE_READ?INDUCTANCE
010F0CH   010F4AH   00003FH   BYTE   UNIT     XDATA          ?XD?IPS200PRO_LABEL_PRINTF?ZF_DEVICE_IPS200PRO
010F4BH   010F82H   000038H   BYTE   UNIT     XDATA          ?XD?FUNC_DOUBLE_TO_STR?ZF_COMMON_FUNCTION
010F83H   010FB2H   000030H   BYTE   UNIT     XDATA          ?XD?GET_TWO_POINTS_DISTANCE?ZF_DEVICE_GPS_TAU1201
010FB3H   010FE2H   000030H   BYTE   UNIT     XDATA          ?XD?IPS114_SHOW_FLOAT?ZF_DEVICE_IPS114
010FE3H   011012H   000030H   BYTE   UNIT     XDATA          ?XD?IPS200_SHOW_FLOAT?ZF_DEVICE_IPS200
011013H   011042H   000030H   BYTE   UNIT     XDATA          ?XD?TFT180_SHOW_FLOAT?ZF_DEVICE_TFT180
011043H   011071H   00002FH   BYTE   UNIT     XDATA          ?XD?DL1A_SET_MEASUREMENT_TIMING_BUDGET?ZF_DEVICE_DL1A
L251 LINKER/LOCATER V4.66.93.0                                                        03/29/2026  20:20:13  PAGE 5


011072H   01109DH   00002CH   BYTE   UNIT     XDATA          ?XD?IPS114_SHOW_INT32?ZF_DEVICE_IPS114
01109EH   0110C9H   00002CH   BYTE   UNIT     XDATA          ?XD?IPS200_SHOW_INT32?ZF_DEVICE_IPS200
0110CAH   0110F5H   00002CH   BYTE   UNIT     XDATA          ?XD?TFT180_SHOW_INT32?ZF_DEVICE_TFT180
0110F6H   011120H   00002BH   BYTE   UNIT     XDATA          ?XD?GPS_GNRMC_PARSE?ZF_DEVICE_GPS_TAU1201
011121H   01114AH   00002AH   BYTE   UNIT     XDATA          ?XD?FUNC_FLOAT_TO_STR?ZF_COMMON_FUNCTION
01114BH   011174H   00002AH   BYTE   UNIT     XDATA          ?XD?SEEKFREE_ASSISTANT_OSCILLOSCOPE_SEND?SEEKFREE_ASSISTAN
                                                             -T
011175H   01119CH   000028H   BYTE   UNIT     XDATA          ?XD?IPS200PRO_IMAGE_DISPLAY?ZF_DEVICE_IPS200PRO
01119DH   0111C4H   000028H   BYTE   UNIT     XDATA          _XDATA_GROUP_
0111C5H   0111E9H   000025H   BYTE   UNIT     XDATA          ?XD?FUNC_HEX_TO_STR?ZF_COMMON_FUNCTION
0111EAH   01120BH   000022H   BYTE   UNIT     XDATA          ?XD?IPS200PRO_IMAGE_DRAW_RECTANGLE?ZF_DEVICE_IPS200PRO
01120CH   01122BH   000020H   BYTE   UNIT     XDATA          ?XD?IPS114_SHOW_WAVE?ZF_DEVICE_IPS114
01122CH   01124BH   000020H   BYTE   UNIT     XDATA          ?XD?IPS200_SHOW_WAVE?ZF_DEVICE_IPS200
01124CH   01126BH   000020H   BYTE   UNIT     XDATA          ?XD?TFT180_SHOW_WAVE?ZF_DEVICE_TFT180
01126CH   01128AH   00001FH   BYTE   UNIT     XDATA          ?XD?DL1A_GET_MEASUREMENT_TIMING_BUDGET?ZF_DEVICE_DL1A
01128BH   0112A9H   00001FH   BYTE   UNIT     XDATA          ?XD?IPS200PRO_WRITE_PACKET?ZF_DEVICE_IPS200PRO
0112AAH   0112C8H   00001FH   BYTE   UNIT     XDATA          ?XD?SEEKFREE_ASSISTANT_CAMERA_BOUNDARY_CONFIG?SEEKFREE_ASS
                                                             -ISTANT
0112C9H   0112E6H   00001EH   BYTE   INSEG    XDATA          ?XD?ZF_COMMON_TYPEDEF
0112E7H   011304H   00001EH   BYTE   INSEG    XDATA          ?XD?ZF_DEVICE_IMU963RA
011305H   011321H   00001DH   BYTE   UNIT     XDATA          ?XD?FUNC_INT_TO_STR?ZF_COMMON_FUNCTION
011322H   01133DH   00001CH   BYTE   UNIT     XDATA          ?XD?GET_TWO_POINTS_AZIMUTH?ZF_DEVICE_GPS_TAU1201
01133EH   011359H   00001CH   BYTE   UNIT     XDATA          ?XD?DUAL_LOOP_CONTROL?TRANK
01135AH   011374H   00001BH   BYTE   UNIT     XDATA          ?XD?IPS200PRO_CREATE_WIDGETS?ZF_DEVICE_IPS200PRO
011375H   01138EH   00001AH   BYTE   UNIT     XDATA          ?XD?IPS200PRO_WAVEFORM_ADD_VALUE?ZF_DEVICE_IPS200PRO
01138FH   0113A8H   00001AH   BYTE   UNIT     XDATA          ?XD?IPS200PRO_IMAGE_DRAW_LINE?ZF_DEVICE_IPS200PRO
0113A9H   0113C1H   000019H   BYTE   UNIT     XDATA          ?XD?FUNC_UINT_TO_STR?ZF_COMMON_FUNCTION
0113C2H   0113DAH   000019H   BYTE   UNIT     XDATA          ?XD?IPS114_SHOW_CHINESE?ZF_DEVICE_IPS114
0113DBH   0113F3H   000019H   BYTE   UNIT     XDATA          ?XD?IPS200_SHOW_CHINESE?ZF_DEVICE_IPS200
0113F4H   01140CH   000019H   BYTE   UNIT     XDATA          ?XD?INDUCTANCE_COUNT_ERR?INDUCTANCE
01140DH   011424H   000018H   BYTE   UNIT     XDATA          ?XD?FIFO_READ_BUFFER?ZF_COMMON_FIFO
011425H   01143CH   000018H   BYTE   UNIT     XDATA          ?XD?GET_FLOAT_NUMBER?ZF_DEVICE_GPS_TAU1201
01143DH   011454H   000018H   BYTE   UNIT     XDATA          ?XD?GET_DOUBLE_NUMBER?ZF_DEVICE_GPS_TAU1201
011455H   01146CH   000018H   BYTE   UNIT     XDATA          ?XD?PID_INIT?TRANK
01146DH   011481H   000015H   BYTE   UNIT     XDATA          ?XD?SOFT_SPI_INIT?ZF_DRIVER_SOFT_SPI
011482H   011496H   000015H   BYTE   UNIT     XDATA          ?XD?IPS200PRO_GET_INFORMATION?ZF_DEVICE_IPS200PRO
011497H   0114AAH   000014H   BYTE   UNIT     XDATA          ?XD?DEBUG_ASSERT_HANDLER?ZF_COMMON_DEBUG
0114ABH   0114BEH   000014H   BYTE   UNIT     XDATA          ?XD?NUMBER_CONVERSION_ASCII?ZF_COMMON_FUNCTION
0114BFH   0114D2H   000014H   BYTE   UNIT     XDATA          ?XD?PWM_SET_FREQ?ZF_DRIVER_PWM
0114D3H   0114E6H   000014H   BYTE   UNIT     XDATA          ?XD?SOFT_IIC_TRANSFER_8BIT_ARRAY?ZF_DRIVER_SOFT_IIC
0114E7H   0114FAH   000014H   BYTE   UNIT     XDATA          ?XD?SOFT_IIC_TRANSFER_16BIT_ARRAY?ZF_DRIVER_SOFT_IIC
0114FBH   01150EH   000014H   BYTE   UNIT     XDATA          ?XD?SPI_INIT?ZF_DRIVER_SPI
01150FH   011522H   000014H   BYTE   INSEG    XDATA          ?XD?ZF_DEVICE_ICM20602
011523H   011536H   000014H   BYTE   INSEG    XDATA          ?XD?ZF_DEVICE_IMU660RA
011537H   011549H   000013H   BYTE   UNIT     XDATA          ?XD?IMU660RA_READ_REGISTERS?ZF_DEVICE_IMU660RA
01154AH   01155CH   000013H   BYTE   UNIT     XDATA          ?XD?IPS200PRO_SET_COLOR?ZF_DEVICE_IPS200PRO
01155DH   01156FH   000013H   BYTE   UNIT     XDATA          ?XD?IPS200PRO_SET_POSITION?ZF_DEVICE_IPS200PRO
011570H   011582H   000013H   BYTE   UNIT     XDATA          ?XD?IPS200PRO_WAVEFORM_LINE_STATE?ZF_DEVICE_IPS200PRO
011583H   011595H   000013H   BYTE   UNIT     XDATA          ?XD?IPS200PRO_CONTAINER_RADIUS?ZF_DEVICE_IPS200PRO
011596H   0115A7H   000012H   BYTE   UNIT     XDATA          ?XD?FIFO_WRITE_BUFFER?ZF_COMMON_FIFO
0115A8H   0115B9H   000012H   BYTE   UNIT     XDATA          ?XD?PWM_INIT?ZF_DRIVER_PWM
0115BAH   0115CBH   000012H   BYTE   UNIT     XDATA          ?XD?IPS200PRO_TABLE_SET_COL_WIDTH?ZF_DEVICE_IPS200PRO
0115CCH   0115DDH   000012H   BYTE   UNIT     XDATA          ?XD?IPS200PRO_CALENDAR_DISPLAY?ZF_DEVICE_IPS200PRO
0115DEH   0115EEH   000011H   BYTE   UNIT     XDATA          ?XD?FUNC_STR_TO_FLOAT?ZF_COMMON_FUNCTION
0115EFH   0115FFH   000011H   BYTE   UNIT     XDATA          ?XD?FUNC_STR_TO_DOUBLE?ZF_COMMON_FUNCTION
011600H   011610H   000011H   BYTE   UNIT     XDATA          ?XD?GET_INT_NUMBER?ZF_DEVICE_GPS_TAU1201
011611H   011621H   000011H   BYTE   UNIT     XDATA          ?XD?IPS200PRO_SET_DATE?ZF_DEVICE_IPS200PRO
011622H   011632H   000011H   BYTE   UNIT     XDATA          ?XD?IPS200PRO_SET_PARENT?ZF_DEVICE_IPS200PRO
011633H   011643H   000011H   BYTE   UNIT     XDATA          ?XD?IPS200PRO_GET_DATE?ZF_DEVICE_IPS200PRO
011644H   011654H   000011H   BYTE   UNIT     XDATA          ?XD?IPS200PRO_GET_TIME?ZF_DEVICE_IPS200PRO
011655H   011665H   000011H   BYTE   UNIT     XDATA          ?XD?IPS200PRO_GET_FREE_STACK_SIZE?ZF_DEVICE_IPS200PRO
011666H   011676H   000011H   BYTE   UNIT     XDATA          ?XD?IPS200PRO_TABLE_SELECT?ZF_DEVICE_IPS200PRO
011677H   011687H   000011H   BYTE   UNIT     XDATA          ?XD?IPS200PRO_PROGRESS_BAR_SET_VALUE?ZF_DEVICE_IPS200PRO
011688H   011697H   000010H   BYTE   UNIT     XDATA          ?XD?SOFT_SPI_TRANSFER_8BIT?ZF_DRIVER_SOFT_SPI
011698H   0116A7H   000010H   BYTE   UNIT     XDATA          ?XD?SOFT_SPI_TRANSFER_16BIT?ZF_DRIVER_SOFT_SPI
L251 LINKER/LOCATER V4.66.93.0                                                        03/29/2026  20:20:13  PAGE 6


0116A8H   0116B7H   000010H   BYTE   UNIT     XDATA          ?XD?IPS200PRO_SET_TIME?ZF_DEVICE_IPS200PRO
0116B8H   0116C7H   000010H   BYTE   UNIT     XDATA          ?XD?IPS200PRO_PAGE_SET_TITLE_POSITION_WIDTH?ZF_DEVICE_IPS2
                                                             -00PRO
0116C8H   0116D7H   000010H   BYTE   UNIT     XDATA          ?XD?FAST_SQRT?IMU
0116D8H   0116E6H   00000FH   BYTE   UNIT     XDATA          ?XD?IPS200PRO_SET_FONT?ZF_DEVICE_IPS200PRO
0116E7H   0116F5H   00000FH   BYTE   UNIT     XDATA          ?XD?IPS200PRO_PAGE_SWITCH?ZF_DEVICE_IPS200PRO
0116F6H   011704H   00000FH   BYTE   UNIT     XDATA          ?XD?IPS200PRO_PAGE_SET_TITLE_NAME?ZF_DEVICE_IPS200PRO
011705H   011713H   00000FH   BYTE   UNIT     XDATA          ?XD?IPS200PRO_LABEL_SHOW_STRING?ZF_DEVICE_IPS200PRO
011714H   011722H   00000FH   BYTE   UNIT     XDATA          ?XD?IPS200PRO_LABEL_MODE?ZF_DEVICE_IPS200PRO
011723H   011731H   00000FH   BYTE   UNIT     XDATA          ?XD?IPS200PRO_METER_SET_VALUE?ZF_DEVICE_IPS200PRO
011732H   011740H   00000FH   BYTE   UNIT     XDATA          ?XD?SEEKFREE_ASSISTANT_CAMERA_DATA_SEND?SEEKFREE_ASSISTANT
011741H   01174EH   00000EH   BYTE   UNIT     XDATA          ?XD?FIFO_INIT?ZF_COMMON_FIFO
01174FH   01175CH   00000EH   BYTE   UNIT     XDATA          ?XD?FUNC_STR_TO_HEX?ZF_COMMON_FUNCTION
01175DH   01176AH   00000EH   BYTE   UNIT     XDATA          ?XD?PWM_SET_DUTY?ZF_DRIVER_PWM
01176BH   011778H   00000EH   BYTE   UNIT     XDATA          ?XD?SOFT_IIC_WRITE_16BIT_REGISTERS?ZF_DRIVER_SOFT_IIC
011779H   011786H   00000EH   BYTE   UNIT     XDATA          ?XD?SOFT_IIC_READ_16BIT_REGISTERS?ZF_DRIVER_SOFT_IIC
011787H   011794H   00000EH   BYTE   UNIT     XDATA          ?XD?SOFT_SPI_WRITE_16BIT_REGISTERS?ZF_DRIVER_SOFT_SPI
011795H   0117A2H   00000EH   BYTE   UNIT     XDATA          ?XD?SOFT_SPI_READ_16BIT_REGISTERS?ZF_DRIVER_SOFT_SPI
0117A3H   0117B0H   00000EH   BYTE   UNIT     XDATA          ?XD?SPI_TRANSFER_8BIT?ZF_DRIVER_SPI
0117B1H   0117BEH   00000EH   BYTE   UNIT     XDATA          ?XD?SPI_TRANSFER_16BIT?ZF_DRIVER_SPI
0117BFH   0117CCH   00000EH   BYTE   UNIT     XDATA          ?XD?GPS_GNGGA_PARSE?ZF_DEVICE_GPS_TAU1201
0117CDH   0117DAH   00000EH   BYTE   UNIT     XDATA          ?XD?IPS200PRO_SEND_BUFFER?ZF_DEVICE_IPS200PRO
0117DBH   0117E8H   00000EH   BYTE   UNIT     XDATA          ?XD?IPS200PRO_SET_HIDDEN?ZF_DEVICE_IPS200PRO
0117E9H   0117F6H   00000EH   BYTE   UNIT     XDATA          ?XD?IPS200PRO_WAVEFORM_LINE_TYPE?ZF_DEVICE_IPS200PRO
0117F7H   011804H   00000EH   BYTE   UNIT     XDATA          ?XD?MEDIAN_AVERAGE_FILTER?INDUCTANCE
011805H   011811H   00000DH   BYTE   UNIT     XDATA          ?XD?PRINTF_REVERSE_ORDER?ZF_COMMON_FUNCTION
011812H   01181EH   00000DH   BYTE   UNIT     XDATA          ?XD?SOFT_IIC_WRITE_8BIT_REGISTERS?ZF_DRIVER_SOFT_IIC
01181FH   01182BH   00000DH   BYTE   UNIT     XDATA          ?XD?SOFT_IIC_READ_8BIT_REGISTERS?ZF_DRIVER_SOFT_IIC
01182CH   011838H   00000DH   BYTE   UNIT     XDATA          ?XD?SOFT_IIC_INIT?ZF_DRIVER_SOFT_IIC
011839H   011845H   00000DH   BYTE   UNIT     XDATA          ?XD?SOFT_SPI_WRITE_8BIT_REGISTERS?ZF_DRIVER_SOFT_SPI
011846H   011852H   00000DH   BYTE   UNIT     XDATA          ?XD?SOFT_SPI_READ_8BIT_REGISTERS?ZF_DRIVER_SOFT_SPI
011853H   01185FH   00000DH   BYTE   INSEG    XDATA          ?XD?ZF_DEVICE_DL1A
011860H   01186CH   00000DH   BYTE   INSEG    XDATA          ?XD?ZF_DEVICE_DL1B
01186DH   011879H   00000DH   BYTE   UNIT     XDATA          ?XD?GET_PARAMETER_INDEX?ZF_DEVICE_GPS_TAU1201
01187AH   011886H   00000DH   BYTE   UNIT     XDATA          ?XD?IPS200PRO_RECEIVE_BUFFER?ZF_DEVICE_IPS200PRO
011887H   011893H   00000DH   BYTE   UNIT     XDATA          ?XD?IPS200PRO_SET_FORMAT?ZF_DEVICE_IPS200PRO
011894H   0118A0H   00000DH   BYTE   UNIT     XDATA          ?XD?IPS200PRO_SET_DIRECTION?ZF_DEVICE_IPS200PRO
0118A1H   0118ADH   00000DH   BYTE   UNIT     XDATA          ?XD?IPS200PRO_SET_DEFAULT_FONT?ZF_DEVICE_IPS200PRO
0118AEH   0118BAH   00000DH   BYTE   UNIT     XDATA          ?XD?PARAMETER_DEBUG?MENU
0118BBH   0118C6H   00000CH   BYTE   UNIT     XDATA          ?XD?SOFT_IIC_WRITE_8BIT_ARRAY?ZF_DRIVER_SOFT_IIC
0118C7H   0118D2H   00000CH   BYTE   UNIT     XDATA          ?XD?SOFT_IIC_WRITE_16BIT_ARRAY?ZF_DRIVER_SOFT_IIC
0118D3H   0118DEH   00000CH   BYTE   UNIT     XDATA          ?XD?SOFT_IIC_READ_8BIT_ARRAY?ZF_DRIVER_SOFT_IIC
0118DFH   0118EAH   00000CH   BYTE   UNIT     XDATA          ?XD?SOFT_IIC_READ_16BIT_ARRAY?ZF_DRIVER_SOFT_IIC
0118EBH   0118F6H   00000CH   BYTE   UNIT     XDATA          ?XD?SOFT_SPI_WRITE_8BIT_ARRAY?ZF_DRIVER_SOFT_SPI
0118F7H   011902H   00000CH   BYTE   UNIT     XDATA          ?XD?SOFT_SPI_WRITE_16BIT_ARRAY?ZF_DRIVER_SOFT_SPI
011903H   01190EH   00000CH   BYTE   UNIT     XDATA          ?XD?SOFT_SPI_READ_8BIT_ARRAY?ZF_DRIVER_SOFT_SPI
01190FH   01191AH   00000CH   BYTE   UNIT     XDATA          ?XD?SOFT_SPI_READ_16BIT_ARRAY?ZF_DRIVER_SOFT_SPI
01191BH   011926H   00000CH   BYTE   UNIT     XDATA          ?XD?SPI_WRITE_16BIT_REGISTERS?ZF_DRIVER_SPI
011927H   011932H   00000CH   BYTE   UNIT     XDATA          ?XD?SPI_READ_16BIT_REGISTERS?ZF_DRIVER_SPI
011933H   01193EH   00000CH   BYTE   INSEG    XDATA          ?XD?ZF_DRIVER_TIMER
01193FH   01194AH   00000CH   BYTE   INSEG    XDATA          ?XD?ZF_DRIVER_UART
01194BH   011956H   00000CH   BYTE   UNIT     XDATA          ?XD?UART_INIT?ZF_DRIVER_UART
011957H   011962H   00000CH   BYTE   UNIT     XDATA          ?XD?EEPROM_READ_VALUE?EEPROM
011963H   01196EH   00000CH   BYTE   UNIT     XDATA          ?XD?BLE6A20_SEND_BUFFER?ZF_DEVICE_BLE6A20
01196FH   01197AH   00000CH   BYTE   UNIT     XDATA          ?XD?BLE6A20_READ_BUFFER?ZF_DEVICE_BLE6A20
01197BH   011986H   00000CH   BYTE   UNIT     XDATA          ?XD?DL1A_GET_SPAD_INFO?ZF_DEVICE_DL1A
011987H   011992H   00000CH   BYTE   UNIT     XDATA          ?XD?DL1A_GET_SEQUENCE_STEP_TIMEOUTS?ZF_DEVICE_DL1A
011993H   01199EH   00000CH   BYTE   UNIT     XDATA          ?XD?GPS_DATA_PARSE?ZF_DEVICE_GPS_TAU1201
01199FH   0119AAH   00000CH   BYTE   INSEG    XDATA          ?XD?ZF_DEVICE_IMU660RB
0119ABH   0119B6H   00000CH   BYTE   UNIT     XDATA          ?XD?IPS114_SHOW_INT16?ZF_DEVICE_IPS114
0119B7H   0119C2H   00000CH   BYTE   UNIT     XDATA          ?XD?IPS114_SHOW_UINT16?ZF_DEVICE_IPS114
0119C3H   0119CEH   00000CH   BYTE   UNIT     XDATA          ?XD?IPS200_SHOW_INT16?ZF_DEVICE_IPS200
0119CFH   0119DAH   00000CH   BYTE   UNIT     XDATA          ?XD?IPS200_SHOW_UINT16?ZF_DEVICE_IPS200
0119DBH   0119E6H   00000CH   BYTE   UNIT     XDATA          ?XD?IPS200PRO_SET_BACKLIGHT?ZF_DEVICE_IPS200PRO
0119E7H   0119F2H   00000CH   BYTE   UNIT     XDATA          ?XD?IPS200PRO_SET_CRC_STATE?ZF_DEVICE_IPS200PRO
L251 LINKER/LOCATER V4.66.93.0                                                        03/29/2026  20:20:13  PAGE 7


0119F3H   0119FEH   00000CH   BYTE   UNIT     XDATA          ?XD?IPS200PRO_SET_OPTIMIZE?ZF_DEVICE_IPS200PRO
0119FFH   011A0AH   00000CH   BYTE   UNIT     XDATA          ?XD?TFT180_SHOW_INT16?ZF_DEVICE_TFT180
011A0BH   011A16H   00000CH   BYTE   UNIT     XDATA          ?XD?TFT180_SHOW_UINT16?ZF_DEVICE_TFT180
011A17H   011A22H   00000CH   BYTE   UNIT     XDATA          ?XD?WIRELESS_UART_SEND_BUFFER?ZF_DEVICE_WIRELESS_UART
011A23H   011A2EH   00000CH   BYTE   UNIT     XDATA          ?XD?WIRELESS_UART_READ_BUFFER?ZF_DEVICE_WIRELESS_UART
011A2FH   011A3AH   00000CH   BYTE   UNIT     XDATA          ?XD?KALMANCREATE?IMU
011A3BH   011A46H   00000CH   BYTE   UNIT     XDATA          ?XD?PID_CALC?TRANK
011A47H   011A51H   00000BH   BYTE   INSEG    XDATA          ?XD?ZF_DRIVER_ADC
011A52H   011A5CH   00000BH   BYTE   UNIT     XDATA          ?XD?PIT_INIT?ZF_DRIVER_PIT
011A5DH   011A67H   00000BH   BYTE   UNIT     XDATA          ?XD?SOFT_SPI_16BIT_DATA_HANDLER?ZF_DRIVER_SOFT_SPI
011A68H   011A72H   00000BH   BYTE   UNIT     XDATA          ?XD?SPI_WRITE_8BIT_REGISTERS?ZF_DRIVER_SPI
011A73H   011A7DH   00000BH   BYTE   UNIT     XDATA          ?XD?SPI_READ_8BIT_REGISTERS?ZF_DRIVER_SPI
011A7EH   011A88H   00000BH   BYTE   UNIT     XDATA          ?XD?GPS_UART_CALLBACK?ZF_DEVICE_GPS_TAU1201
011A89H   011A93H   00000BH   BYTE   UNIT     XDATA          ?XD?IPS200PRO_DELETE_WIDGETS?ZF_DEVICE_IPS200PRO
011A94H   011A9EH   00000BH   BYTE   UNIT     XDATA          ?XD?IPS200PRO_WAVEFORM_CLEAR?ZF_DEVICE_IPS200PRO
011A9FH   011AA8H   00000AH   BYTE   UNIT     XDATA          ?XD?ADC_MEAN_FILTER_CONVERT?ZF_DRIVER_ADC
011AA9H   011AB2H   00000AH   BYTE   UNIT     XDATA          ?XD?IAP_READ_BUFF?ZF_DRIVER_EEPROM
011AB3H   011ABCH   00000AH   BYTE   UNIT     XDATA          ?XD?IAP_WRITE_BUFF?ZF_DRIVER_EEPROM
011ABDH   011AC6H   00000AH   BYTE   UNIT     XDATA          ?XD?SPI_WRITE_8BIT_ARRAY?ZF_DRIVER_SPI
011AC7H   011AD0H   00000AH   BYTE   UNIT     XDATA          ?XD?SPI_WRITE_16BIT_ARRAY?ZF_DRIVER_SPI
011AD1H   011ADAH   00000AH   BYTE   UNIT     XDATA          ?XD?SPI_READ_8BIT_ARRAY?ZF_DRIVER_SPI
011ADBH   011AE4H   00000AH   BYTE   UNIT     XDATA          ?XD?SPI_READ_16BIT_ARRAY?ZF_DRIVER_SPI
011AE5H   011AEEH   00000AH   BYTE   UNIT     XDATA          ?XD?EEPROM_READ?EEPROM
011AEFH   011AF8H   00000AH   BYTE   UNIT     XDATA          ?XD?IPS114_SHOW_STRING?ZF_DEVICE_IPS114
011AF9H   011B02H   00000AH   BYTE   INSEG    XDATA          ?XD?ZF_DEVICE_IPS200
011B03H   011B0CH   00000AH   BYTE   UNIT     XDATA          ?XD?IPS200_SHOW_STRING?ZF_DEVICE_IPS200
011B0DH   011B16H   00000AH   BYTE   UNIT     XDATA          ?XD?TFT180_SHOW_STRING?ZF_DEVICE_TFT180
011B17H   011B20H   00000AH   BYTE   UNIT     XDATA          ?XD?SEEKFREE_ASSISTANT_CAMERA_INFORMATION_CONFIG?SEEKFREE_
                                                             -ASSISTANT
011B21H   011B29H   000009H   BYTE   UNIT     XDATA          ?XD?FUNC_STR_TO_INT?ZF_COMMON_FUNCTION
011B2AH   011B32H   000009H   BYTE   UNIT     XDATA          ?XD?DL1A_TIMEOUT_MICROSECONDS_TO_MCLKS?ZF_DEVICE_DL1A
011B33H   011B3BH   000009H   BYTE   UNIT     XDATA          ?XD?DL1A_SET_SIGNAL_RATE_LIMIT?ZF_DEVICE_DL1A
011B3CH   011B44H   000009H   BYTE   UNIT     XDATA          ?XD?ICM20602_SIMSPI_R_REG_BYTES?ZF_DEVICE_ICM20602
011B45H   011B4DH   000009H   BYTE   UNIT     XDATA          ?XD?ICM20602_READ_REGISTERS?ZF_DEVICE_ICM20602
011B4EH   011B56H   000009H   BYTE   UNIT     XDATA          ?XD?IMU660RA_SIMSPI_W_REG_BYTES?ZF_DEVICE_IMU660RA
011B57H   011B5FH   000009H   BYTE   UNIT     XDATA          ?XD?IMU660RA_SIMSPI_R_REG_BYTES?ZF_DEVICE_IMU660RA
011B60H   011B68H   000009H   BYTE   UNIT     XDATA          ?XD?IMU660RA_WRITE_REGISTERS?ZF_DEVICE_IMU660RA
011B69H   011B71H   000009H   BYTE   UNIT     XDATA          ?XD?IMU660RB_SIMSPI_R_REG_BYTES?ZF_DEVICE_IMU660RB
011B72H   011B7AH   000009H   BYTE   UNIT     XDATA          ?XD?IMU660RB_READ_REGISTERS?ZF_DEVICE_IMU660RB
011B7BH   011B83H   000009H   BYTE   UNIT     XDATA          ?XD?IMU963RA_READ_ACC_GYRO_REGISTERS?ZF_DEVICE_IMU963RA
011B84H   011B8CH   000009H   BYTE   UNIT     XDATA          ?XD?IPS114_SHOW_INT8?ZF_DEVICE_IPS114
011B8DH   011B95H   000009H   BYTE   UNIT     XDATA          ?XD?IPS114_SHOW_UINT8?ZF_DEVICE_IPS114
011B96H   011B9EH   000009H   BYTE   UNIT     XDATA          ?XD?IPS200_SHOW_INT8?ZF_DEVICE_IPS200
011B9FH   011BA7H   000009H   BYTE   UNIT     XDATA          ?XD?IPS200_SHOW_UINT8?ZF_DEVICE_IPS200
011BA8H   011BB0H   000009H   BYTE   UNIT     XDATA          ?XD?IPS200PRO_LABEL_CREATE?ZF_DEVICE_IPS200PRO
011BB1H   011BB9H   000009H   BYTE   UNIT     XDATA          ?XD?IPS200PRO_TABLE_CREATE?ZF_DEVICE_IPS200PRO
011BBAH   011BC2H   000009H   BYTE   UNIT     XDATA          ?XD?IPS200PRO_METER_CREATE?ZF_DEVICE_IPS200PRO
011BC3H   011BCBH   000009H   BYTE   UNIT     XDATA          ?XD?IPS200PRO_CLOCK_CREATE?ZF_DEVICE_IPS200PRO
011BCCH   011BD4H   000009H   BYTE   UNIT     XDATA          ?XD?IPS200PRO_PROGRESS_BAR_CREATE?ZF_DEVICE_IPS200PRO
011BD5H   011BDDH   000009H   BYTE   UNIT     XDATA          ?XD?IPS200PRO_CALENDAR_CREATE?ZF_DEVICE_IPS200PRO
011BDEH   011BE6H   000009H   BYTE   UNIT     XDATA          ?XD?IPS200PRO_WAVEFORM_CREATE?ZF_DEVICE_IPS200PRO
011BE7H   011BEFH   000009H   BYTE   UNIT     XDATA          ?XD?IPS200PRO_IMAGE_CREATE?ZF_DEVICE_IPS200PRO
011BF0H   011BF8H   000009H   BYTE   UNIT     XDATA          ?XD?IPS200PRO_CONTAINER_CREATE?ZF_DEVICE_IPS200PRO
011BF9H   011C01H   000009H   BYTE   UNIT     XDATA          ?XD?IPS200PRO_INIT?ZF_DEVICE_IPS200PRO
011C02H   011C0AH   000009H   BYTE   UNIT     XDATA          ?XD?TFT180_SHOW_INT8?ZF_DEVICE_TFT180
011C0BH   011C13H   000009H   BYTE   UNIT     XDATA          ?XD?TFT180_SHOW_UINT8?ZF_DEVICE_TFT180
011C14H   011C1CH   000009H   BYTE   UNIT     XDATA          ?XD?SEEKFREE_ASSISTANT_SUM?SEEKFREE_ASSISTANT
011C1DH   011C24H   000008H   BYTE   UNIT     XDATA          ?XD?DEBUG_SEND_BUFFER?ZF_COMMON_DEBUG
011C25H   011C2CH   000008H   BYTE   UNIT     XDATA          ?XD?DEBUG_READ_BUFFER?ZF_COMMON_DEBUG
011C2DH   011C34H   000008H   BYTE   UNIT     XDATA          ?XD?FIFO_HEAD_OFFSET?ZF_COMMON_FIFO
011C35H   011C3CH   000008H   BYTE   UNIT     XDATA          ?XD?FIFO_END_OFFSET?ZF_COMMON_FIFO
011C3DH   011C44H   000008H   BYTE   UNIT     XDATA          ?XD?FUNC_GET_GREATEST_COMMON_DIVISOR?ZF_COMMON_FUNCTION
011C45H   011C4CH   000008H   BYTE   UNIT     XDATA          ?XD?FUNC_STR_TO_UINT?ZF_COMMON_FUNCTION
011C4DH   011C54H   000008H   BYTE   UNIT     XDATA          ?XD?SOFT_IIC_DELAY?ZF_DRIVER_SOFT_IIC
011C55H   011C5CH   000008H   BYTE   UNIT     XDATA          ?XD?SOFT_IIC_WRITE_16BIT_REGISTER?ZF_DRIVER_SOFT_IIC
L251 LINKER/LOCATER V4.66.93.0                                                        03/29/2026  20:20:13  PAGE 8


011C5DH   011C64H   000008H   BYTE   UNIT     XDATA          ?XD?SOFT_IIC_READ_16BIT_REGISTER?ZF_DRIVER_SOFT_IIC
011C65H   011C6CH   000008H   BYTE   UNIT     XDATA          ?XD?SOFT_SPI_DELAY?ZF_DRIVER_SOFT_SPI
011C6DH   011C74H   000008H   BYTE   UNIT     XDATA          ?XD?SOFT_SPI_8BIT_DATA_HANDLER?ZF_DRIVER_SOFT_SPI
011C75H   011C7CH   000008H   BYTE   UNIT     XDATA          ?XD?SOFT_SPI_WRITE_16BIT_REGISTER?ZF_DRIVER_SOFT_SPI
011C7DH   011C84H   000008H   BYTE   UNIT     XDATA          ?XD?SOFT_SPI_READ_16BIT_REGISTER?ZF_DRIVER_SOFT_SPI
011C85H   011C8CH   000008H   BYTE   UNIT     XDATA          ?XD?UART_WRITE_STRING?ZF_DRIVER_UART
011C8DH   011C94H   000008H   BYTE   UNIT     XDATA          ?XD?EEPROM_WRITE_VALUE?EEPROM
011C95H   011C9CH   000008H   BYTE   UNIT     XDATA          ?XD?BLE6A20_SEND_STRING?ZF_DEVICE_BLE6A20
011C9DH   011CA4H   000008H   BYTE   INSEG    XDATA          ?XD?ZF_DEVICE_IPS114
011CA5H   011CACH   000008H   BYTE   UNIT     XDATA          ?XD?IPS114_SET_REGION?ZF_DEVICE_IPS114
011CADH   011CB4H   000008H   BYTE   UNIT     XDATA          ?XD?IPS114_SHOW_CHAR?ZF_DEVICE_IPS114
011CB5H   011CBCH   000008H   BYTE   UNIT     XDATA          ?XD?IPS200_SET_REGION?ZF_DEVICE_IPS200
011CBDH   011CC4H   000008H   BYTE   UNIT     XDATA          ?XD?IPS200_SHOW_CHAR?ZF_DEVICE_IPS200
011CC5H   011CCCH   000008H   BYTE   UNIT     XDATA          ?XD?IPS200PRO_READ_PARAMETER?ZF_DEVICE_IPS200PRO
011CCDH   011CD4H   000008H   BYTE   INSEG    XDATA          ?XD?ZF_DEVICE_TFT180
011CD5H   011CDCH   000008H   BYTE   UNIT     XDATA          ?XD?TFT180_SET_REGION?ZF_DEVICE_TFT180
011CDDH   011CE4H   000008H   BYTE   UNIT     XDATA          ?XD?TFT180_SHOW_CHAR?ZF_DEVICE_TFT180
011CE5H   011CECH   000008H   BYTE   INSEG    XDATA          ?XD?ZF_DEVICE_TYPE
011CEDH   011CF4H   000008H   BYTE   UNIT     XDATA          ?XD?SET_WIRELESS_TYPE?ZF_DEVICE_TYPE
011CF5H   011CFCH   000008H   BYTE   UNIT     XDATA          ?XD?SET_GPS_TYPE?ZF_DEVICE_TYPE
011CFDH   011D04H   000008H   BYTE   UNIT     XDATA          ?XD?WIRELESS_UART_SEND_STRING?ZF_DEVICE_WIRELESS_UART
011D05H   011D0CH   000008H   BYTE   UNIT     XDATA          ?XD?KALMANFILTER?IMU
011D0DH   011D14H   000008H   BYTE   UNIT     XDATA          ?XD?ADC_NORMALIZE_0_100?INDUCTANCE
011D15H   011D1BH   000007H   BYTE   UNIT     XDATA          ?XD?GPIO_INIT?ZF_DRIVER_GPIO
011D1CH   011D22H   000007H   BYTE   UNIT     XDATA          ?XD?SOFT_IIC_READ_DATA?ZF_DRIVER_SOFT_IIC
011D23H   011D29H   000007H   BYTE   UNIT     XDATA          ?XD?UART_QUERY_BYTE?ZF_DRIVER_UART
011D2AH   011D30H   000007H   BYTE   UNIT     XDATA          ?XD?DL1A_TIMEOUT_MCLKS_TO_MICROSECONDS?ZF_DEVICE_DL1A
011D31H   011D37H   000007H   BYTE   UNIT     XDATA          ?XD?IMU963RA_GET_MAG?ZF_DEVICE_IMU963RA
011D38H   011D3EH   000007H   BYTE   UNIT     XDATA          ?XD?SEEKFREE_ASSISTANT_CAMERA_DOT_SEND?SEEKFREE_ASSISTANT
011D3FH   011D44H   000006H   BYTE   UNIT     XDATA          ?XD?FIFO_CLEAR?ZF_COMMON_FIFO
011D45H   011D4AH   000006H   BYTE   INSEG    XDATA          ?XD?ZF_DRIVER_ENCODER
011D4BH   011D50H   000006H   BYTE   UNIT     XDATA          ?XD?ENCODER_DIR_INIT?ZF_DRIVER_ENCODER
011D51H   011D56H   000006H   BYTE   UNIT     XDATA          ?XD?GPIO_SET_LEVEL_SPEED?ZF_DRIVER_GPIO
011D57H   011D5CH   000006H   BYTE   UNIT     XDATA          ?XD?SOFT_IIC_SEND_DATA?ZF_DRIVER_SOFT_IIC
011D5DH   011D62H   000006H   BYTE   UNIT     XDATA          ?XD?SOFT_IIC_WRITE_16BIT?ZF_DRIVER_SOFT_IIC
011D63H   011D68H   000006H   BYTE   UNIT     XDATA          ?XD?SOFT_IIC_WRITE_8BIT_REGISTER?ZF_DRIVER_SOFT_IIC
011D69H   011D6EH   000006H   BYTE   UNIT     XDATA          ?XD?SOFT_IIC_READ_16BIT?ZF_DRIVER_SOFT_IIC
011D6FH   011D74H   000006H   BYTE   UNIT     XDATA          ?XD?SOFT_IIC_READ_8BIT_REGISTER?ZF_DRIVER_SOFT_IIC
011D75H   011D7AH   000006H   BYTE   UNIT     XDATA          ?XD?SOFT_IIC_SCCB_WRITE_REGISTER?ZF_DRIVER_SOFT_IIC
011D7BH   011D80H   000006H   BYTE   UNIT     XDATA          ?XD?SOFT_IIC_SCCB_READ_REGISTER?ZF_DRIVER_SOFT_IIC
011D81H   011D86H   000006H   BYTE   UNIT     XDATA          ?XD?SOFT_SPI_WRITE_16BIT?ZF_DRIVER_SOFT_SPI
011D87H   011D8CH   000006H   BYTE   UNIT     XDATA          ?XD?SOFT_SPI_WRITE_8BIT_REGISTER?ZF_DRIVER_SOFT_SPI
011D8DH   011D92H   000006H   BYTE   UNIT     XDATA          ?XD?SOFT_SPI_READ_8BIT_REGISTER?ZF_DRIVER_SOFT_SPI
011D93H   011D98H   000006H   BYTE   UNIT     XDATA          ?XD?SPI_WRITE_16BIT_REGISTER?ZF_DRIVER_SPI
011D99H   011D9EH   000006H   BYTE   UNIT     XDATA          ?XD?SPI_READ_16BIT_REGISTER?ZF_DRIVER_SPI
011D9FH   011DA4H   000006H   BYTE   UNIT     XDATA          ?XD?ICM20602_GET_ACC?ZF_DEVICE_ICM20602
011DA5H   011DAAH   000006H   BYTE   UNIT     XDATA          ?XD?ICM20602_GET_GYRO?ZF_DEVICE_ICM20602
011DABH   011DB0H   000006H   BYTE   UNIT     XDATA          ?XD?IMU660RA_GET_ACC?ZF_DEVICE_IMU660RA
011DB1H   011DB6H   000006H   BYTE   UNIT     XDATA          ?XD?IMU660RA_GET_GYRO?ZF_DEVICE_IMU660RA
011DB7H   011DBCH   000006H   BYTE   UNIT     XDATA          ?XD?IMU660RB_GET_ACC?ZF_DEVICE_IMU660RB
011DBDH   011DC2H   000006H   BYTE   UNIT     XDATA          ?XD?IMU660RB_GET_GYRO?ZF_DEVICE_IMU660RB
011DC3H   011DC8H   000006H   BYTE   UNIT     XDATA          ?XD?IMU660RB_ACC_TRANSITION?ZF_DEVICE_IMU660RB
011DC9H   011DCEH   000006H   BYTE   UNIT     XDATA          ?XD?IMU660RB_GYRO_TRANSITION?ZF_DEVICE_IMU660RB
011DCFH   011DD4H   000006H   BYTE   UNIT     XDATA          ?XD?IMU963RA_WRITE_MAG_REGISTER?ZF_DEVICE_IMU963RA
011DD5H   011DDAH   000006H   BYTE   UNIT     XDATA          ?XD?IMU963RA_GET_ACC?ZF_DEVICE_IMU963RA
011DDBH   011DE0H   000006H   BYTE   UNIT     XDATA          ?XD?IMU963RA_GET_GYRO?ZF_DEVICE_IMU963RA
011DE1H   011DE6H   000006H   BYTE   UNIT     XDATA          ?XD?IPS114_CLEAR?ZF_DEVICE_IPS114
011DE7H   011DECH   000006H   BYTE   UNIT     XDATA          ?XD?IPS114_DRAW_POINT?ZF_DEVICE_IPS114
011DEDH   011DF2H   000006H   BYTE   UNIT     XDATA          ?XD?IPS200_CLEAR?ZF_DEVICE_IPS200
011DF3H   011DF8H   000006H   BYTE   UNIT     XDATA          ?XD?IPS200_DRAW_POINT?ZF_DEVICE_IPS200
011DF9H   011DFEH   000006H   BYTE   UNIT     XDATA          ?XD?TFT180_CLEAR?ZF_DEVICE_TFT180
011DFFH   011E04H   000006H   BYTE   UNIT     XDATA          ?XD?TFT180_DRAW_POINT?ZF_DEVICE_TFT180
011E05H   011E0AH   000006H   BYTE   UNIT     XDATA          ?XD?SET_TOF_TYPE?ZF_DEVICE_TYPE
011E0BH   011E0FH   000005H   BYTE   UNIT     XDATA          ?XD?IAP_READ_BYTE?ZF_DRIVER_EEPROM
011E10H   011E14H   000005H   BYTE   UNIT     XDATA          ?XD?IAP_WRITE_BYTE?ZF_DRIVER_EEPROM
L251 LINKER/LOCATER V4.66.93.0                                                        03/29/2026  20:20:13  PAGE 9


011E15H   011E19H   000005H   BYTE   UNIT     XDATA          ?XD?GPIO_GET_LEVEL?ZF_DRIVER_GPIO
011E1AH   011E1EH   000005H   BYTE   UNIT     XDATA          ?XD?GPIO_SET_LEVEL?ZF_DRIVER_GPIO
011E1FH   011E23H   000005H   BYTE   UNIT     XDATA          ?XD?SOFT_IIC_SEND_ACK?ZF_DRIVER_SOFT_IIC
011E24H   011E28H   000005H   BYTE   UNIT     XDATA          ?XD?SOFT_IIC_WAIT_ACK?ZF_DRIVER_SOFT_IIC
011E29H   011E2DH   000005H   BYTE   UNIT     XDATA          ?XD?SOFT_IIC_WRITE_8BIT?ZF_DRIVER_SOFT_IIC
011E2EH   011E32H   000005H   BYTE   UNIT     XDATA          ?XD?SOFT_IIC_READ_8BIT?ZF_DRIVER_SOFT_IIC
011E33H   011E37H   000005H   BYTE   UNIT     XDATA          ?XD?SOFT_SPI_WRITE_8BIT?ZF_DRIVER_SOFT_SPI
011E38H   011E3CH   000005H   BYTE   UNIT     XDATA          ?XD?SOFT_SPI_READ_8BIT?ZF_DRIVER_SOFT_SPI
011E3DH   011E41H   000005H   BYTE   UNIT     XDATA          ?XD?SOFT_SPI_READ_16BIT?ZF_DRIVER_SOFT_SPI
011E42H   011E46H   000005H   BYTE   UNIT     XDATA          ?XD?TIMER_FUNCITON_CHECK?ZF_DRIVER_TIMER
011E47H   011E4BH   000005H   BYTE   UNIT     XDATA          ?XD?UART_FUNCITON_CHECK?ZF_DRIVER_UART
011E4CH   011E50H   000005H   BYTE   UNIT     XDATA          ?XD?DL1A_GET_SEQUENCE_STEP_ENABLES?ZF_DEVICE_DL1A
011E51H   011E55H   000005H   BYTE   UNIT     XDATA          ?XD?DL1A_PERFORM_SINGLE_REF_CALIBRATION?ZF_DEVICE_DL1A
011E56H   011E5AH   000005H   BYTE   UNIT     XDATA          ?XD?DL1B_GET_DISTANCE?ZF_DEVICE_DL1B
011E5BH   011E5FH   000005H   BYTE   UNIT     XDATA          ?XD?UTC_TO_BTC?ZF_DEVICE_GPS_TAU1201
011E60H   011E64H   000005H   BYTE   UNIT     XDATA          ?XD?ICM20602_SIMSPI_R_REG_BYTE?ZF_DEVICE_ICM20602
011E65H   011E69H   000005H   BYTE   UNIT     XDATA          ?XD?IMU660RB_SIMSPI_R_REG_BYTE?ZF_DEVICE_IMU660RB
011E6AH   011E6EH   000005H   BYTE   UNIT     XDATA          ?XD?IPS200PRO_PAGE_CREATE?ZF_DEVICE_IPS200PRO
011E6FH   011E72H   000004H   BYTE   INSEG    XDATA          ?XD?ZF_COMMON_CLOCK
011E73H   011E76H   000004H   BYTE   UNIT     XDATA          ?XD?SET_SYS_CLK?ZF_COMMON_CLOCK
011E77H   011E7AH   000004H   BYTE   UNIT     XDATA          ?XD?CLOCK_INIT?ZF_COMMON_CLOCK
011E7BH   011E7EH   000004H   BYTE   UNIT     XDATA          ?XD?FIFO_USED?ZF_COMMON_FIFO
011E7FH   011E82H   000004H   BYTE   UNIT     XDATA          ?XD?FUNC_SOFT_DELAY?ZF_COMMON_FUNCTION
011E83H   011E86H   000004H   BYTE   UNIT     XDATA          ?XD?ADC_CONVERT?ZF_DRIVER_ADC
011E87H   011E8AH   000004H   BYTE   UNIT     XDATA          ?XD?ADC_INIT?ZF_DRIVER_ADC
011E8BH   011E8EH   000004H   BYTE   INSEG    XDATA          ?XD?ZF_DRIVER_DELAY
011E8FH   011E92H   000004H   BYTE   UNIT     XDATA          ?XD?IAP_ERASE_PAGE?ZF_DRIVER_EEPROM
011E93H   011E96H   000004H   BYTE   UNIT     XDATA          ?XD?ENCODER_GET_COUNT?ZF_DRIVER_ENCODER
011E97H   011E9AH   000004H   BYTE   UNIT     XDATA          ?XD?EXTI_INIT?ZF_DRIVER_EXTI
011E9BH   011E9EH   000004H   BYTE   UNIT     XDATA          ?XD?GPIO_SET_MODE?ZF_DRIVER_GPIO
011E9FH   011EA2H   000004H   BYTE   UNIT     XDATA          ?XD?GPIO_SET_DIR?ZF_DRIVER_GPIO
011EA3H   011EA6H   000004H   BYTE   UNIT     XDATA          ?XD?GPIO_SET_IMPEDANCE?ZF_DRIVER_GPIO
011EA7H   011EAAH   000004H   BYTE   UNIT     XDATA          ?XD?SOFT_IIC_START?ZF_DRIVER_SOFT_IIC
011EABH   011EAEH   000004H   BYTE   UNIT     XDATA          ?XD?SOFT_IIC_STOP?ZF_DRIVER_SOFT_IIC
011EAFH   011EB2H   000004H   BYTE   UNIT     XDATA          ?XD?SPI_READ_DAT?ZF_DRIVER_SPI
011EB3H   011EB6H   000004H   BYTE   UNIT     XDATA          ?XD?SPI_WRITE_16BIT?ZF_DRIVER_SPI
011EB7H   011EBAH   000004H   BYTE   UNIT     XDATA          ?XD?SPI_WRITE_8BIT_REGISTER?ZF_DRIVER_SPI
011EBBH   011EBEH   000004H   BYTE   UNIT     XDATA          ?XD?SPI_READ_16BIT?ZF_DRIVER_SPI
011EBFH   011EC2H   000004H   BYTE   UNIT     XDATA          ?XD?VOLTAGE_WARNING_INIT?VOLTAGE_WARNING
011EC3H   011EC6H   000004H   BYTE   UNIT     XDATA          ?XD?ICM20602_SELF_CHECK?ZF_DEVICE_ICM20602
011EC7H   011ECAH   000004H   BYTE   UNIT     XDATA          ?XD?ICM20602_INIT?ZF_DEVICE_ICM20602
011ECBH   011ECEH   000004H   BYTE   UNIT     XDATA          ?XD?IMU660RA_SELF_CHECK?ZF_DEVICE_IMU660RA
011ECFH   011ED2H   000004H   BYTE   UNIT     XDATA          ?XD?IMU660RB_SELF_CHECK?ZF_DEVICE_IMU660RB
011ED3H   011ED6H   000004H   BYTE   UNIT     XDATA          ?XD?IMU963RA_READ_MAG_REGISTER?ZF_DEVICE_IMU963RA
011ED7H   011EDAH   000004H   BYTE   UNIT     XDATA          ?XD?IMU963RA_ACC_GYRO_SELF_CHECK?ZF_DEVICE_IMU963RA
011EDBH   011EDEH   000004H   BYTE   UNIT     XDATA          ?XD?IMU963RA_MAG_SELF_CHECK?ZF_DEVICE_IMU963RA
011EDFH   011EE2H   000004H   BYTE   UNIT     XDATA          ?XD?IPS114_SET_COLOR?ZF_DEVICE_IPS114
011EE3H   011EE6H   000004H   BYTE   UNIT     XDATA          ?XD?IPS200_SET_COLOR?ZF_DEVICE_IPS200
011EE7H   011EEAH   000004H   BYTE   UNIT     XDATA          ?XD?IPS200PRO_WAIT_IDLE?ZF_DEVICE_IPS200PRO
011EEBH   011EEEH   000004H   BYTE   UNIT     XDATA          ?XD?IPS200PRO_PAGE_HIDDEN?ZF_DEVICE_IPS200PRO
011EEFH   011EF2H   000004H   BYTE   UNIT     XDATA          ?XD?TFT180_SET_COLOR?ZF_DEVICE_TFT180
011EF3H   011EF6H   000004H   BYTE   UNIT     XDATA          ?XD?TSL1401_SEND_DATA?ZF_DEVICE_TSL1401
011EF7H   011EFAH   000004H   BYTE   UNIT     XDATA          ?XD?FIRST_COMPLEMENT_INIT?IMU
011EFBH   011EFEH   000004H   BYTE   UNIT     XDATA          ?XD?MY_ABS?IMU
011EFFH   011F02H   000004H   BYTE   INSEG    XDATA          ?XD?SEEKFREE_ASSISTANT_INTERFACE
011F03H   011F06H   000004H   BYTE   UNIT     XDATA          ?XD?MOTOR_SETSPEED?MOTO
011F07H   011F0AH   000004H   BYTE   UNIT     XDATA          ?XD?MENU_DISPLAY?MENU
011F0BH   011F0DH   000003H   BYTE   UNIT     XDATA          ?XD?INTERRUPT_SET_PRIORITY?ZF_COMMON_INTERRUPT
011F0EH   011F10H   000003H   BYTE   UNIT     XDATA          ?XD?SPI_WRITE_DAT?ZF_DRIVER_SPI
011F11H   011F13H   000003H   BYTE   UNIT     XDATA          ?XD?SPI_WRITE_8BIT?ZF_DRIVER_SPI
011F14H   011F16H   000003H   BYTE   UNIT     XDATA          ?XD?SPI_READ_8BIT_REGISTER?ZF_DRIVER_SPI
011F17H   011F19H   000003H   BYTE   UNIT     XDATA          ?XD?UART_WRITE_BYTE?ZF_DRIVER_UART
011F1AH   011F1CH   000003H   BYTE   UNIT     XDATA          ?XD?UART_RX_INTERRUPT?ZF_DRIVER_UART
011F1DH   011F1FH   000003H   BYTE   UNIT     XDATA          ?XD?UART_READ_BYTE?ZF_DRIVER_UART
011F20H   011F22H   000003H   BYTE   UNIT     XDATA          ?XD?BLE6A20_SEND_BYTE?ZF_DEVICE_BLE6A20
L251 LINKER/LOCATER V4.66.93.0                                                        03/29/2026  20:20:13  PAGE 10


011F23H   011F25H   000003H   BYTE   UNIT     XDATA          ?XD?DL1A_GET_VCSEL_PULSE_PERIOD?ZF_DEVICE_DL1A
011F26H   011F28H   000003H   BYTE   UNIT     XDATA          ?XD?DL1A_GET_DISTANCE?ZF_DEVICE_DL1A
011F29H   011F2BH   000003H   BYTE   UNIT     XDATA          ?XD?IMU660RA_READ_REGISTER?ZF_DEVICE_IMU660RA
011F2CH   011F2EH   000003H   BYTE   UNIT     XDATA          ?XD?WIRELESS_UART_SEND_BYTE?ZF_DEVICE_WIRELESS_UART
011F2FH   011F31H   000003H   BYTE   UNIT     XDATA          ?XD?RANGE_PROTECT?INDUCTANCE
011F32H   011F33H   000002H   BYTE   UNIT     XDATA          ?XD?DELAY_CYCLES?ZF_DRIVER_DELAY
011F34H   011F35H   000002H   BYTE   UNIT     XDATA          ?XD?SYSTEM_DELAY_MS?ZF_DRIVER_DELAY
011F36H   011F37H   000002H   BYTE   UNIT     XDATA          ?XD?SYSTEM_DELAY_US?ZF_DRIVER_DELAY
011F38H   011F39H   000002H   BYTE   UNIT     XDATA          ?XD?ENCODER_CLEAR_COUNT?ZF_DRIVER_ENCODER
011F3AH   011F3BH   000002H   BYTE   UNIT     XDATA          ?XD?EXTI_ENABLE?ZF_DRIVER_EXTI
011F3CH   011F3DH   000002H   BYTE   UNIT     XDATA          ?XD?EXTI_DISABLE?ZF_DRIVER_EXTI
011F3EH   011F3FH   000002H   BYTE   UNIT     XDATA          ?XD?GPIO_TOGGLE_LEVEL?ZF_DRIVER_GPIO
011F40H   011F41H   000002H   BYTE   UNIT     XDATA          ?XD?SPI_READ_8BIT?ZF_DRIVER_SPI
011F42H   011F43H   000002H   BYTE   UNIT     XDATA          ?XD?UART_RX_START_BUFF?ZF_DRIVER_UART
011F44H   011F45H   000002H   BYTE   UNIT     XDATA          ?XD?UART_DMA_INIT?ZF_DRIVER_UART
011F46H   011F47H   000002H   BYTE   INSEG    XDATA          ?XD?EEPROM
011F48H   011F49H   000002H   BYTE   UNIT     XDATA          ?XD?DL1A_DECODE_TIMEOUT?ZF_DEVICE_DL1A
011F4AH   011F4BH   000002H   BYTE   UNIT     XDATA          ?XD?DL1A_ENCODE_TIMEOUT?ZF_DEVICE_DL1A
011F4CH   011F4DH   000002H   BYTE   UNIT     XDATA          ?XD?ICM20602_SIMSPI_WR_BYTE?ZF_DEVICE_ICM20602
011F4EH   011F4FH   000002H   BYTE   UNIT     XDATA          ?XD?ICM20602_SIMSPI_W_REG_BYTE?ZF_DEVICE_ICM20602
011F50H   011F51H   000002H   BYTE   UNIT     XDATA          ?XD?ICM20602_WRITE_REGISTER?ZF_DEVICE_ICM20602
011F52H   011F53H   000002H   BYTE   UNIT     XDATA          ?XD?ICM20602_READ_REGISTER?ZF_DEVICE_ICM20602
011F54H   011F55H   000002H   BYTE   UNIT     XDATA          ?XD?IMU660RA_SIMSPI_WR_BYTE?ZF_DEVICE_IMU660RA
011F56H   011F57H   000002H   BYTE   UNIT     XDATA          ?XD?IMU660RA_SIMSPI_W_REG_BYTE?ZF_DEVICE_IMU660RA
011F58H   011F59H   000002H   BYTE   UNIT     XDATA          ?XD?IMU660RA_WRITE_REGISTER?ZF_DEVICE_IMU660RA
011F5AH   011F5BH   000002H   BYTE   UNIT     XDATA          ?XD?IMU660RB_SIMSPI_WR_BYTE?ZF_DEVICE_IMU660RB
011F5CH   011F5DH   000002H   BYTE   UNIT     XDATA          ?XD?IMU660RB_SIMSPI_W_REG_BYTE?ZF_DEVICE_IMU660RB
011F5EH   011F5FH   000002H   BYTE   UNIT     XDATA          ?XD?IMU660RB_WRITE_REGISTER?ZF_DEVICE_IMU660RB
011F60H   011F61H   000002H   BYTE   UNIT     XDATA          ?XD?IMU660RB_READ_REGISTER?ZF_DEVICE_IMU660RB
011F62H   011F63H   000002H   BYTE   UNIT     XDATA          ?XD?IMU963RA_WRITE_ACC_GYRO_REGISTER?ZF_DEVICE_IMU963RA
011F64H   011F65H   000002H   BYTE   UNIT     XDATA          ?XD?IMU963RA_READ_ACC_GYRO_REGISTER?ZF_DEVICE_IMU963RA
011F66H   011F67H   000002H   BYTE   UNIT     XDATA          ?XD?IMU963RA_CONNECT_MAG?ZF_DEVICE_IMU963RA
011F68H   011F69H   000002H   BYTE   UNIT     XDATA          ?XD?IPS114_SET_DIR?ZF_DEVICE_IPS114
011F6AH   011F6BH   000002H   BYTE   UNIT     XDATA          ?XD?IPS200_SET_DIR?ZF_DEVICE_IPS200
011F6CH   011F6DH   000002H   BYTE   UNIT     XDATA          ?XD?TFT180_SET_DIR?ZF_DEVICE_TFT180
011F6EH   011F6FH   000002H   BYTE   UNIT     XDATA          ?XD?IMU_GYRO_OFFSET_INIT?IMU
011F70H   011F71H   000002H   BYTE   UNIT     XDATA          ?XD?SEEKFREE_ASSISTANT_INTERFACE_INIT?SEEKFREE_ASSISTANT_I
                                                             -NTERFACE
011F72H   011F73H   000002H   BYTE   UNIT     XDATA          ?XD?ABS?MOTO
011F74H   011F75H   000002H   BYTE   UNIT     XDATA          ?XD?LED_ON?LED
011F76H   011F77H   000002H   BYTE   UNIT     XDATA          ?XD?LED_OFF?LED
011F78H   011F79H   000002H   BYTE   UNIT     XDATA          ?XD?LED_SWITCH?LED
011F7AH   011F7AH   000001H   BYTE   UNIT     XDATA          ?XD?DEBUG_INTERRUPR_HANDLER?ZF_COMMON_DEBUG
011F7BH   011F7BH   000001H   BYTE   UNIT     XDATA          ?XD?PUTCHAR?ZF_COMMON_DEBUG
011F7CH   011F7CH   000001H   BYTE   UNIT     XDATA          ?XD?DEBUG_INIT?ZF_COMMON_DEBUG
011F7DH   011F7DH   000001H   BYTE   UNIT     XDATA          ?XD?IAP_SET_TPS?ZF_DRIVER_EEPROM
011F7EH   011F7EH   000001H   BYTE   UNIT     XDATA          ?XD?BLE6A20_CALLBACK?ZF_DEVICE_BLE6A20
011F7FH   011F7FH   000001H   BYTE   UNIT     XDATA          ?XD?BLE6A20_INIT?ZF_DEVICE_BLE6A20
011F80H   011F80H   000001H   BYTE   UNIT     XDATA          ?XD?DL1B_INIT?ZF_DEVICE_DL1B
011F81H   011F81H   000001H   BYTE   UNIT     XDATA          ?XD?IMU660RA_INIT?ZF_DEVICE_IMU660RA
011F82H   011F82H   000001H   BYTE   UNIT     XDATA          ?XD?IMU660RB_INIT?ZF_DEVICE_IMU660RB
011F83H   011F83H   000001H   BYTE   UNIT     XDATA          ?XD?IMU963RA_INIT?ZF_DEVICE_IMU963RA
011F84H   011F84H   000001H   BYTE   UNIT     XDATA          ?XD?IPS114_WRITE_INDEX?ZF_DEVICE_IPS114
011F85H   011F85H   000001H   BYTE   UNIT     XDATA          ?XD?IPS200_WRITE_INDEX?ZF_DEVICE_IPS200
011F86H   011F86H   000001H   BYTE   UNIT     XDATA          ?XD?TFT180_WRITE_INDEX?ZF_DEVICE_TFT180
011F87H   011F87H   000001H   BYTE   UNIT     XDATA          ?XD?TSL1401_COLLECT_PIT_HANDLER?ZF_DEVICE_TSL1401
011F88H   011F88H   000001H   BYTE   UNIT     XDATA          ?XD?WIRELESS_UART_CALLBACK?ZF_DEVICE_WIRELESS_UART
011F89H   011F89H   000001H   BYTE   UNIT     XDATA          ?XD?WIRELESS_UART_INIT?ZF_DEVICE_WIRELESS_UART
011F8AH   011F8AH   000001H   BYTE   INSEG    XDATA          ?XD?ISR
011F8BH   FEFFFFH   FDE075H   ---    ---      **GAP**
FF0000H   FF0002H   000003H   ---    OFFS..   CODE           ?CO?START251?4
FF0003H   FF0005H   000003H   ---    OFFS..   CODE           ?PR?IV?0
FF0006H   FF0009H   000004H   BYTE   INSEG    CODE           ?PR?INTERRUPT_GLOBAL_ENABLE?ZF_COMMON_INTERRUPT
FF000AH   FF000AH   000001H   ---    ---      **GAP**
FF000BH   FF000DH   000003H   ---    OFFS..   CODE           ?PR?IV?1
L251 LINKER/LOCATER V4.66.93.0                                                        03/29/2026  20:20:13  PAGE 11


FF000EH   FF0011H   000004H   BYTE   UNIT     CONST          ?CO?PRINTF
FF0012H   FF0012H   000001H   ---    ---      **GAP**
FF0013H   FF0015H   000003H   ---    OFFS..   CODE           ?PR?IV?2
FF0016H   FF0017H   000002H   BYTE   UNIT     HCONST         ?HC?MAIN
FF0018H   FF001AH   000003H   ---    ---      **GAP**
FF001BH   FF001DH   000003H   ---    OFFS..   CODE           ?PR?IV?3
FF001EH   FF0022H   000005H   ---    ---      **GAP**
FF0023H   FF0025H   000003H   ---    OFFS..   CODE           ?PR?IV?4
FF0026H   FF003DH   000018H   BYTE   INSEG    CODE           ?PR?SPI_WRITE_8BIT?ZF_DRIVER_SPI
FF003EH   FF0042H   000005H   ---    ---      **GAP**
FF0043H   FF0045H   000003H   ---    OFFS..   CODE           ?PR?IV?8
FF0046H   FF0052H   00000DH   ---    ---      **GAP**
FF0053H   FF0055H   000003H   ---    OFFS..   CODE           ?PR?IV?10
FF0056H   FF005AH   000005H   ---    ---      **GAP**
FF005BH   FF005DH   000003H   ---    OFFS..   CODE           ?PR?IV?11
FF005EH   FF0062H   000005H   ---    ---      **GAP**
FF0063H   FF0065H   000003H   ---    OFFS..   CODE           ?PR?IV?12
FF0066H   FF0077H   000012H   BYTE   INSEG    CODE           ?PR?PUTCHAR?ZF_COMMON_DEBUG
FF0078H   FF0082H   00000BH   ---    ---      **GAP**
FF0083H   FF0085H   000003H   ---    OFFS..   CODE           ?PR?IV?16
FF0086H   FF008AH   000005H   ---    ---      **GAP**
FF008BH   FF008DH   000003H   ---    OFFS..   CODE           ?PR?IV?17
FF008EH   FF0092H   000005H   ---    ---      **GAP**
FF0093H   FF0095H   000003H   ---    OFFS..   CODE           ?PR?IV?18
FF0096H   FF009AH   000005H   ---    ---      **GAP**
FF009BH   FF009DH   000003H   ---    OFFS..   CODE           ?PR?IV?19
FF009EH   FF00A2H   000005H   ---    ---      **GAP**
FF00A3H   FF00A5H   000003H   ---    OFFS..   CODE           ?PR?IV?20
FF00A6H   FF0199H   0000F4H   BYTE   INSEG    CODE           ?PR?SOFT_IIC_SEND_DATA?ZF_DRIVER_SOFT_IIC
FF019AH   FF019AH   000001H   ---    ---      **GAP**
FF019BH   FF019DH   000003H   ---    OFFS..   CODE           ?CO?stc32g_isr?1
FF019EH   FF01AAH   00000DH   ---    ---      **GAP**
FF01ABH   FF01ADH   000003H   ---    OFFS..   CODE           ?CO?stc32g_isr?2
FF01AEH   FF01BAH   00000DH   ---    ---      **GAP**
FF01BBH   FF01BDH   000003H   ---    OFFS..   CODE           ?CO?stc32g_isr?3
FF01BEH   FF01CAH   00000DH   ---    ---      **GAP**
FF01CBH   FF01CDH   000003H   ---    OFFS..   CODE           ?CO?stc32g_isr?4
FF01CEH   FF21CDH   002000H   BYTE   UNIT     CODE           ?CO?ZF_DEVICE_CONFIG
FF21CEH   FF3070H   000EA3H   BYTE   UNIT     CODE           ?C?LIB_CODE
FF3071H   FF398FH   00091FH   BYTE   INSEG    CODE           ?PR?ZF_SPRINTF?ZF_COMMON_FUNCTION
FF3990H   FF3F7FH   0005F0H   BYTE   UNIT     CODE           ?CO?ZF_COMMON_FONT
FF3F80H   FF4530H   0005B1H   BYTE   INSEG    CODE           ?PR?FIFO_READ_BUFFER?ZF_COMMON_FIFO
FF4531H   FF4AD8H   0005A8H   BYTE   INSEG    CODE           ?PR?FIFO_WRITE_BUFFER?ZF_COMMON_FIFO
FF4AD9H   FF505CH   000584H   BYTE   INSEG    CODE           ?PR?GPIO_SET_DIR?ZF_DRIVER_GPIO
FF505DH   FF5535H   0004D9H   BYTE   INSEG    CODE           ?PR?SPI_INIT?ZF_DRIVER_SPI
FF5536H   FF5848H   000313H   BYTE   INSEG    CODE           ?PR?GPIO_SET_LEVEL_SPEED?ZF_DRIVER_GPIO
FF5849H   FF5B39H   0002F1H   BYTE   INSEG    CODE           ?PR?UART_INIT?ZF_DRIVER_UART
FF5B3AH   FF5E21H   0002E8H   BYTE   INSEG    CODE           ?PR?GPIO_SET_MODE?ZF_DRIVER_GPIO
FF5E22H   FF60E3H   0002C2H   BYTE   INSEG    CODE           ?PR?IPS114_INIT?ZF_DEVICE_IPS114
FF60E4H   FF6395H   0002B2H   BYTE   INSEG    CODE           ?PR?SEEKFREE_ASSISTANT_DATA_ANALYSIS?SEEKFREE_ASSISTANT
FF6396H   FF65DAH   000245H   BYTE   INSEG    CODE           ?PR?IPS114_SET_REGION?ZF_DEVICE_IPS114
FF65DBH   FF67EFH   000215H   BYTE   INSEG    CODE           ?PR?GPIO_SET_LEVEL?ZF_DRIVER_GPIO
FF67F0H   FF6A00H   000211H   BYTE   INSEG    CODE           ?PR?SET_SYS_CLK?ZF_COMMON_CLOCK
FF6A01H   FF6BEBH   0001EBH   BYTE   INSEG    CODE           ?PR?IPS114_SHOW_FLOAT?ZF_DEVICE_IPS114
FF6BECH   FF6DC1H   0001D6H   BYTE   INSEG    CODE           ?PR?UART_WRITE_BUFFER?ZF_DRIVER_UART
FF6DC2H   FF6F73H   0001B2H   BYTE   INSEG    CODE           ?PR?GPIO_SET_IMPEDANCE?ZF_DRIVER_GPIO
FF6F74H   FF7116H   0001A3H   BYTE   INSEG    CODE           ?PR?UART_DMA_INIT?ZF_DRIVER_UART
FF7117H   FF72ADH   000197H   BYTE   INSEG    CODE           ?PR?NUMBER_CONVERSION_ASCII?ZF_COMMON_FUNCTION
FF72AEH   FF741AH   00016DH   BYTE   INSEG    CODE           ?PR?PARAMETER_DEBUG?MENU
FF741BH   FF7560H   000146H   BYTE   INSEG    CODE           ?PR?GPIO_GET_LEVEL?ZF_DRIVER_GPIO
FF7561H   FF76A2H   000142H   BYTE   INSEG    CODE           ?PR?SOFT_IIC_READ_DATA?ZF_DRIVER_SOFT_IIC
FF76A3H   FF77BEH   00011CH   BYTE   INSEG    CODE           ?PR?IPS114_SHOW_CHAR?ZF_DEVICE_IPS114
FF77BFH   FF78CEH   000110H   BYTE   INSEG    CODE           ?PR?WIRELESS_UART_SEND_BUFFER?ZF_DEVICE_WIRELESS_UART
FF78CFH   FF79DDH   00010FH   BYTE   INSEG    CODE           ?PR?GPIO_INIT?ZF_DRIVER_GPIO
FF79DEH   FF7AD6H   0000F9H   BYTE   INSEG    CODE           ?PR?PRINTF_REVERSE_ORDER?ZF_COMMON_FUNCTION
L251 LINKER/LOCATER V4.66.93.0                                                        03/29/2026  20:20:13  PAGE 12


FF7AD7H   FF7BB9H   0000E3H   BYTE   INSEG    CODE           ?PR?FIFO_INIT?ZF_COMMON_FIFO
FF7BBAH   FF7C9CH   0000E3H   BYTE   INSEG    CODE           ?PR?SOFT_IIC_WAIT_ACK?ZF_DRIVER_SOFT_IIC
FF7C9DH   FF7D77H   0000DBH   BYTE   INSEG    CODE           ?PR?SOFT_IIC_SEND_ACK?ZF_DRIVER_SOFT_IIC
FF7D78H   FF7E3BH   0000C4H   BYTE   INSEG    CODE           ?PR?IPS114_SHOW_STRING?ZF_DEVICE_IPS114
FF7E3CH   FF7EFDH   0000C2H   BYTE   INSEG    CODE           ?PR?UART_RX_START_BUFF?ZF_DRIVER_UART
FF7EFEH   FF7FBCH   0000BFH   BYTE   INSEG    CODE           ?PR?SOFT_IIC_STOP?ZF_DRIVER_SOFT_IIC
FF7FBDH   FF806CH   0000B0H   BYTE   INSEG    CODE           ?PR?DMA_UART1_IRQHANDLER?ISR
FF806DH   FF8113H   0000A7H   BYTE   INSEG    CODE           ?PR?DEBUG_INIT?ZF_COMMON_DEBUG
FF8114H   FF81BAH   0000A7H   BYTE   INSEG    CODE           ?PR?SOFT_IIC_START?ZF_DRIVER_SOFT_IIC
FF81BBH   FF825AH   0000A0H   BYTE   INSEG    CODE           ?PR?FIFO_HEAD_OFFSET?ZF_COMMON_FIFO
FF825BH   FF82FAH   0000A0H   BYTE   INSEG    CODE           ?PR?FIFO_END_OFFSET?ZF_COMMON_FIFO
FF82FBH   FF8399H   00009FH   BYTE   INSEG    CODE           ?PR?UART_QUERY_BYTE?ZF_DRIVER_UART
FF839AH   FF8438H   00009FH   BYTE   INSEG    CODE           ?PR?SET_WIRELESS_TYPE?ZF_DEVICE_TYPE
FF8439H   FF84CCH   000094H   BYTE   INSEG    CODE           ?PR?_M?MAIN
FF84CDH   FF855BH   00008FH   BYTE   INSEG    CODE           ?PR?DMA_UART2_IRQHANDLER?ISR
FF855CH   FF85EAH   00008FH   BYTE   INSEG    CODE           ?PR?DMA_UART3_IRQHANDLER?ISR
FF85EBH   FF8679H   00008FH   BYTE   INSEG    CODE           ?PR?DMA_UART4_IRQHANDLER?ISR
FF867AH   FF86FEH   000085H   BYTE   INSEG    CODE           ?PR?IPS114_CLEAR?ZF_DEVICE_IPS114
FF86FFH   FF8782H   000084H   BYTE   INSEG    CODE           ?PR?WIRELESS_UART_READ_BUFFER?ZF_DEVICE_WIRELESS_UART
FF8783H   FF8803H   000081H   BYTE   INSEG    CODE           ?PR?CLOCK_INIT?ZF_COMMON_CLOCK
FF8804H   FF8884H   000081H   BYTE   INSEG    CODE           ?PR?TIMER_FUNCITON_CHECK?ZF_DRIVER_TIMER
FF8885H   FF8905H   000081H   BYTE   INSEG    CODE           ?PR?UART_FUNCITON_CHECK?ZF_DRIVER_UART
FF8906H   FF8986H   000081H   BYTE   INSEG    CODE           ?PR?WIRELESS_UART_INIT?ZF_DEVICE_WIRELESS_UART
FF8987H   FF89FFH   000079H   BYTE   INSEG    CODE           ?PR?DEBUG_ASSERT_HANDLER?ZF_COMMON_DEBUG
FF8A00H   FF8A77H   000078H   BYTE   INSEG    CODE           ?PR?SPI_READ_DAT?ZF_DRIVER_SPI
FF8A78H   FF8AE7H   000070H   BYTE   INSEG    CODE           ?PR?IMU660RA_SIMSPI_R_REG_BYTES?ZF_DEVICE_IMU660RA
FF8AE8H   FF8B4DH   000066H   BYTE   INSEG    CODE           ?PR?UART_RX_INTERRUPT?ZF_DRIVER_UART
FF8B4EH   FF8BA9H   00005CH   BYTE   INSEG    CODE           ?PR?SPI_WRITE_DAT?ZF_DRIVER_SPI
FF8BAAH   FF8C03H   00005AH   BYTE   INSEG    CODE           ?PR?SEEKFREE_ASSISTANT_SUM?SEEKFREE_ASSISTANT
FF8C04H   FF8C5CH   000059H   BYTE   INSEG    CODE           ?PR?FIFO_USED?ZF_COMMON_FIFO
FF8C5DH   FF8CB4H   000058H   BYTE   INSEG    CODE           ?PR?SYSTEM_DELAY_INIT?ZF_DRIVER_DELAY
FF8CB5H   FF8CD5H   000021H   BYTE   UNIT     CODE           ?C_C51STARTUP
FF8CD6H   FF8D06H   000031H   BYTE   UNIT     CODE           ?C_C51STARTUP?2
FF8D07H   FF8D09H   000003H   BYTE   UNIT     CODE           ?C_C51STARTUP?3
FF8D0AH   FF8D5CH   000053H   BYTE   INSEG    CODE           ?PR?IMU660RA_SIMSPI_WR_BYTE?ZF_DEVICE_IMU660RA
FF8D5DH   FF8D9CH   000040H   BYTE   INSEG    CODE           ?PR?INT0_IRQHANDLER?ISR
FF8D9DH   FF8DDCH   000040H   BYTE   INSEG    CODE           ?PR?INT1_IRQHANDLER?ISR
FF8DDDH   FF8E1CH   000040H   BYTE   INSEG    CODE           ?PR?INT2_IRQHANDLER?ISR
FF8E1DH   FF8E5CH   000040H   BYTE   INSEG    CODE           ?PR?INT3_IRQHANDLER?ISR
FF8E5DH   FF8E9CH   000040H   BYTE   INSEG    CODE           ?PR?INT4_IRQHANDLER?ISR
FF8E9DH   FF8EDCH   000040H   BYTE   INSEG    CODE           ?PR?TM0_IRQHANDLER?ISR
FF8EDDH   FF8F1CH   000040H   BYTE   INSEG    CODE           ?PR?TM1_IRQHANDLER?ISR
FF8F1DH   FF8F5CH   000040H   BYTE   INSEG    CODE           ?PR?TM2_IRQHANDLER?ISR
FF8F5DH   FF8F9CH   000040H   BYTE   INSEG    CODE           ?PR?TM3_IRQHANDLER?ISR
FF8F9DH   FF8FDCH   000040H   BYTE   INSEG    CODE           ?PR?TM4_IRQHANDLER?ISR
FF8FDDH   FF9018H   00003CH   BYTE   INSEG    CODE           ?PR?DEBUG_INTERRUPR_HANDLER?ZF_COMMON_DEBUG
FF9019H   FF9054H   00003CH   BYTE   INSEG    CODE           ?PR?SOFT_IIC_DELAY?ZF_DRIVER_SOFT_IIC
FF9055H   FF908FH   00003BH   BYTE   INSEG    CODE           ?PR?SPI_WRITE_16BIT?ZF_DRIVER_SPI
FF9090H   FF90CAH   00003BH   BYTE   INSEG    CODE           ?PR?IPS114_SET_DIR?ZF_DEVICE_IPS114
FF90CBH   FF90F8H   00002EH   BYTE   INSEG    CODE           ?PR?SEEKFREE_ASSISTANT_INIT?SEEKFREE_ASSISTANT
FF90F9H   FF9124H   00002CH   BYTE   INSEG    CODE           ?PR?MAIN?MAIN
FF9125H   FF914AH   000026H   BYTE   INSEG    CODE           ?PR?WIRELESS_UART_CALLBACK?ZF_DEVICE_WIRELESS_UART
FF914BH   FF916FH   000025H   BYTE   INSEG    CODE           ?PR?SYSTEM_DELAY_MS?ZF_DRIVER_DELAY
FF9170H   FF9194H   000025H   BYTE   INSEG    CODE           ?PR?IPS114_SET_COLOR?ZF_DEVICE_IPS114
FF9195H   FF91B9H   000025H   BYTE   INSEG    CODE           ?PR?MEMCPY?_?MEMCPY
FF91BAH   FF91DBH   000022H   BYTE   INSEG    CODE           ?PR?IPS114_WRITE_INDEX?ZF_DEVICE_IPS114
FF91DCH   FF91FBH   000020H   BYTE   INSEG    CODE           ?PR?UART_WRITE_BYTE?ZF_DRIVER_UART
FF91FCH   FF9219H   00001EH   BYTE   INSEG    CODE           ?PR?DELAY_CYCLES?ZF_DRIVER_DELAY
FF921AH   FF9227H   00000EH   BYTE   INSEG    CODE           ?PR?PARAMETER_DEBUG_INIT?MENU
FF9228H   FF9235H   00000EH   BYTE   INSEG    CODE           ?PR?STRLEN?_?STRLEN
FF9236H   FF973BH   000506H   BYTE   UNIT     HCONST         ?C_INITHDATA
FF973CH   FF993BH   000200H   BYTE   UNIT     HCONST         ?HC?ZF_DRIVER_EEPROM
FF993CH   FF9A6AH   00012FH   BYTE   UNIT     HCONST         ?HC?ZF_DEVICE_DL1A
FF9A6BH   FF9B3AH   0000D0H   BYTE   UNIT     HCONST         ?HC?ZF_DEVICE_IMU963RA
FF9B3BH   FF9BE2H   0000A8H   BYTE   UNIT     HCONST         ?HC?MENU
L251 LINKER/LOCATER V4.66.93.0                                                        03/29/2026  20:20:13  PAGE 13


FF9BE3H   FF9C89H   0000A7H   BYTE   UNIT     HCONST         ?HC?ZF_DEVICE_IMU660RA
FF9C8AH   FF9D2DH   0000A4H   BYTE   UNIT     HCONST         ?HC?SEEKFREE_ASSISTANT
FF9D2EH   FF9DCFH   0000A2H   BYTE   UNIT     HCONST         ?HC?ZF_DEVICE_GPS_TAU1201
FF9DD0H   FF9E59H   00008AH   BYTE   UNIT     HCONST         ?HC?ZF_DRIVER_PWM
FF9E5AH   FF9EE1H   000088H   BYTE   UNIT     HCONST         ?HC?ZF_DEVICE_ICM20602
FF9EE2H   FF9F4CH   00006BH   BYTE   UNIT     HCONST         ?HC?ZF_DRIVER_UART
FF9F4DH   FF9FA3H   000057H   BYTE   UNIT     HCONST         ?HC?ZF_COMMON_FUNCTION
FF9FA4H   FF9FD7H   000034H   BYTE   UNIT     HCONST         ?HC?ZF_DEVICE_WIRELESS_UART
FF9FD8H   FFA00AH   000033H   BYTE   UNIT     HCONST         ?HC?ZF_DEVICE_IPS114
FFA00BH   FFA03DH   000033H   BYTE   UNIT     HCONST         ?HC?ZF_DEVICE_IPS200
FFA03EH   FFA070H   000033H   BYTE   UNIT     HCONST         ?HC?ZF_DEVICE_TFT180
FFA071H   FFA09FH   00002FH   BYTE   UNIT     HCONST         ?HC?ZF_DRIVER_SOFT_IIC
FFA0A0H   FFA0CEH   00002FH   BYTE   UNIT     HCONST         ?HC?ZF_DRIVER_SOFT_SPI
FFA0CFH   FFA0FCH   00002EH   BYTE   UNIT     HCONST         ?HC?ZF_DRIVER_ENCODER
FFA0FDH   FFA12AH   00002EH   BYTE   UNIT     HCONST         ?HC?ZF_DEVICE_BLE6A20
FFA12BH   FFA155H   00002BH   BYTE   UNIT     HCONST         ?HC?ZF_COMMON_FIFO
FFA156H   FFA180H   00002BH   BYTE   UNIT     HCONST         ?HC?ZF_DRIVER_GPIO
FFA181H   FFA1AAH   00002AH   BYTE   UNIT     HCONST         ?HC?ZF_DRIVER_ADC
FFA1ABH   FFA1D4H   00002AH   BYTE   UNIT     HCONST         ?HC?ZF_DRIVER_SPI
FFA1D5H   FFA1F9H   000025H   BYTE   UNIT     HCONST         ?HC?ZF_COMMON_DEBUG
FFA1FAH   FFA214H   00001BH   BYTE   UNIT     HCONST         ?HC?ZF_DEVICE_IMU660RB

* * * * * * * * *   R E M O V E D     S E G M E N T S   * * * * * * * *
   *DEL*:           00004EH   BYTE   INSEG    CODE           ?PR?DEBUG_READ_BUFFER?ZF_COMMON_DEBUG
   *DEL*:           000067H   BYTE   INSEG    CODE           ?PR?DEBUG_SEND_BUFFER?ZF_COMMON_DEBUG
   *DEL*:           000186H   BYTE   INSEG    CODE           ?PR?FIFO_CLEAR?ZF_COMMON_FIFO
   *DEL*:           0003B0H   BYTE   INSEG    CODE           ?PR?FUNC_DOUBLE_TO_STR?ZF_COMMON_FUNCTION
   *DEL*:           000275H   BYTE   INSEG    CODE           ?PR?FUNC_STR_TO_DOUBLE?ZF_COMMON_FUNCTION
   *DEL*:           0003B0H   BYTE   INSEG    CODE           ?PR?FUNC_FLOAT_TO_STR?ZF_COMMON_FUNCTION
   *DEL*:           000275H   BYTE   INSEG    CODE           ?PR?FUNC_STR_TO_FLOAT?ZF_COMMON_FUNCTION
   *DEL*:           000028H   BYTE   INSEG    CODE           ?PR?FUNC_SOFT_DELAY?ZF_COMMON_FUNCTION
   *DEL*:           00011BH   BYTE   INSEG    CODE           ?PR?FUNC_UINT_TO_STR?ZF_COMMON_FUNCTION
   *DEL*:           0000C0H   BYTE   INSEG    CODE           ?PR?FUNC_STR_TO_UINT?ZF_COMMON_FUNCTION
   *DEL*:           000184H   BYTE   INSEG    CODE           ?PR?FUNC_HEX_TO_STR?ZF_COMMON_FUNCTION
   *DEL*:           0001ECH   BYTE   INSEG    CODE           ?PR?FUNC_STR_TO_HEX?ZF_COMMON_FUNCTION
   *DEL*:           0001B5H   BYTE   INSEG    CODE           ?PR?FUNC_INT_TO_STR?ZF_COMMON_FUNCTION
   *DEL*:           000141H   BYTE   INSEG    CODE           ?PR?FUNC_STR_TO_INT?ZF_COMMON_FUNCTION
   *DEL*:           0000A6H   BYTE   INSEG    CODE           ?PR?FUNC_GET_GREATEST_COMMON_DIVISOR?ZF_COMMON_FUNCTION
   *DEL*:           0006E4H   BYTE   INSEG    CODE           ?PR?VSNPRINTF?ZF_COMMON_FUNCTION
   *DEL*:           000004H   BYTE   INSEG    CODE           ?PR?INTERRUPT_GLOBAL_DISABLE?ZF_COMMON_INTERRUPT
   *DEL*:           0000CDH   BYTE   INSEG    CODE           ?PR?INTERRUPT_SET_PRIORITY?ZF_COMMON_INTERRUPT
   *DEL*:           00015EH   BYTE   INSEG    CODE           ?PR?ADC_MEAN_FILTER_CONVERT?ZF_DRIVER_ADC
   *DEL*:           000065H   BYTE   INSEG    CODE           ?PR?ADC_CONVERT?ZF_DRIVER_ADC
   *DEL*:           0000C5H   BYTE   INSEG    CODE           ?PR?ADC_INIT?ZF_DRIVER_ADC
   *DEL*:           000001H   BYTE   INSEG    CODE           ?PR?ADC_COLLECT?ZF_DRIVER_ADC
   *DEL*:           000025H   BYTE   INSEG    CODE           ?PR?SYSTEM_DELAY_US?ZF_DRIVER_DELAY
   *DEL*:           00002AH   BYTE   INSEG    CODE           ?PR?IAP_SET_TPS?ZF_DRIVER_EEPROM
   *DEL*:           00000DH   BYTE   INSEG    CODE           ?PR?EEPROM_TRIG?ZF_DRIVER_EEPROM
   *DEL*:           00004FH   BYTE   INSEG    CODE           ?PR?IAP_ERASE_PAGE?ZF_DRIVER_EEPROM
   *DEL*:           000004H   BYTE   INSEG    CODE           ?PR?IAP_IDLE?ZF_DRIVER_EEPROM
   *DEL*:           000075H   BYTE   INSEG    CODE           ?PR?IAP_READ_BUFF?ZF_DRIVER_EEPROM
   *DEL*:           000119H   BYTE   INSEG    CODE           ?PR?EXTERN_IAP_WRITE_BUFF?ZF_DRIVER_EEPROM
   *DEL*:           000072H   BYTE   INSEG    CODE           ?PR?IAP_WRITE_BUFF?ZF_DRIVER_EEPROM
   *DEL*:           000052H   BYTE   INSEG    CODE           ?PR?IAP_READ_BYTE?ZF_DRIVER_EEPROM
   *DEL*:           000008H   BYTE   INSEG    CODE           ?PR?IAP_INIT?ZF_DRIVER_EEPROM
   *DEL*:           000052H   BYTE   INSEG    CODE           ?PR?IAP_WRITE_BYTE?ZF_DRIVER_EEPROM
   *DEL*:           000012H   BYTE   INSEG    CODE           ?PR?IAP_GET_CMD_STATE?ZF_DRIVER_EEPROM
   *DEL*:           000109H   BYTE   INSEG    CODE           ?PR?ENCODER_GET_COUNT?ZF_DRIVER_ENCODER
   *DEL*:           00010DH   BYTE   INSEG    CODE           ?PR?ENCODER_DIR_INIT?ZF_DRIVER_ENCODER
   *DEL*:           000065H   BYTE   INSEG    CODE           ?PR?ENCODER_CLEAR_COUNT?ZF_DRIVER_ENCODER
   *DEL*:           000045H   BYTE   INSEG    CODE           ?PR?EXTI_ENABLE?ZF_DRIVER_EXTI
   *DEL*:           000013H   BYTE   INSEG    CODE           ?PR?EXTI_ALL_CLOSE?ZF_DRIVER_EXTI
   *DEL*:           00005BH   BYTE   INSEG    CODE           ?PR?EXTI_INIT?ZF_DRIVER_EXTI
   *DEL*:           000045H   BYTE   INSEG    CODE           ?PR?EXTI_DISABLE?ZF_DRIVER_EXTI
   *DEL*:           000023H   BYTE   INSEG    CODE           ?PR?GPIO_TOGGLE_LEVEL?ZF_DRIVER_GPIO
L251 LINKER/LOCATER V4.66.93.0                                                        03/29/2026  20:20:13  PAGE 14


   *DEL*:           000283H   BYTE   INSEG    CODE           ?PR?PIT_INIT?ZF_DRIVER_PIT
   *DEL*:           0002D5H   BYTE   INSEG    CODE           ?PR?PWM_SET_FREQ?ZF_DRIVER_PWM
   *DEL*:           0001D4H   BYTE   INSEG    CODE           ?PR?PWM_SET_DUTY?ZF_DRIVER_PWM
   *DEL*:           000643H   BYTE   INSEG    CODE           ?PR?PWM_INIT?ZF_DRIVER_PWM
   *DEL*:           000091H   BYTE   INSEG    CODE           ?PR?SOFT_IIC_WRITE_8BIT_REGISTER?ZF_DRIVER_SOFT_IIC
   *DEL*:           000186H   BYTE   INSEG    CODE           ?PR?SOFT_IIC_READ_16BIT_REGISTERS?ZF_DRIVER_SOFT_IIC
   *DEL*:           0000D2H   BYTE   INSEG    CODE           ?PR?SOFT_IIC_SCCB_READ_REGISTER?ZF_DRIVER_SOFT_IIC
   *DEL*:           000117H   BYTE   INSEG    CODE           ?PR?SOFT_IIC_READ_16BIT_REGISTER?ZF_DRIVER_SOFT_IIC
   *DEL*:           0001F3H   BYTE   INSEG    CODE           ?PR?SOFT_IIC_TRANSFER_16BIT_ARRAY?ZF_DRIVER_SOFT_IIC
   *DEL*:           00012FH   BYTE   INSEG    CODE           ?PR?SOFT_IIC_WRITE_16BIT_REGISTERS?ZF_DRIVER_SOFT_IIC
   *DEL*:           000091H   BYTE   INSEG    CODE           ?PR?SOFT_IIC_SCCB_WRITE_REGISTER?ZF_DRIVER_SOFT_IIC
   *DEL*:           000085H   BYTE   INSEG    CODE           ?PR?SOFT_IIC_READ_8BIT?ZF_DRIVER_SOFT_IIC
   *DEL*:           0000F7H   BYTE   INSEG    CODE           ?PR?SOFT_IIC_READ_8BIT_ARRAY?ZF_DRIVER_SOFT_IIC
   *DEL*:           0000DDH   BYTE   INSEG    CODE           ?PR?SOFT_IIC_WRITE_16BIT_REGISTER?ZF_DRIVER_SOFT_IIC
   *DEL*:           00007AH   BYTE   INSEG    CODE           ?PR?SOFT_IIC_WRITE_8BIT?ZF_DRIVER_SOFT_IIC
   *DEL*:           0000D3H   BYTE   INSEG    CODE           ?PR?SOFT_IIC_WRITE_8BIT_ARRAY?ZF_DRIVER_SOFT_IIC
   *DEL*:           0000B0H   BYTE   INSEG    CODE           ?PR?SOFT_IIC_READ_16BIT?ZF_DRIVER_SOFT_IIC
   *DEL*:           000129H   BYTE   INSEG    CODE           ?PR?SOFT_IIC_READ_16BIT_ARRAY?ZF_DRIVER_SOFT_IIC
   *DEL*:           0000DFH   BYTE   INSEG    CODE           ?PR?SOFT_IIC_INIT?ZF_DRIVER_SOFT_IIC
   *DEL*:           000137H   BYTE   INSEG    CODE           ?PR?SOFT_IIC_READ_8BIT_REGISTERS?ZF_DRIVER_SOFT_IIC
   *DEL*:           0000A1H   BYTE   INSEG    CODE           ?PR?SOFT_IIC_WRITE_16BIT?ZF_DRIVER_SOFT_IIC
   *DEL*:           0000FDH   BYTE   INSEG    CODE           ?PR?SOFT_IIC_WRITE_16BIT_ARRAY?ZF_DRIVER_SOFT_IIC
   *DEL*:           0000C5H   BYTE   INSEG    CODE           ?PR?SOFT_IIC_READ_8BIT_REGISTER?ZF_DRIVER_SOFT_IIC
   *DEL*:           000197H   BYTE   INSEG    CODE           ?PR?SOFT_IIC_TRANSFER_8BIT_ARRAY?ZF_DRIVER_SOFT_IIC
   *DEL*:           0000E8H   BYTE   INSEG    CODE           ?PR?SOFT_IIC_WRITE_8BIT_REGISTERS?ZF_DRIVER_SOFT_IIC
   *DEL*:           0002EFH   BYTE   INSEG    CODE           ?PR?SOFT_SPI_INIT?ZF_DRIVER_SOFT_SPI
   *DEL*:           000111H   BYTE   INSEG    CODE           ?PR?SOFT_SPI_READ_8BIT_REGISTERS?ZF_DRIVER_SOFT_SPI
   *DEL*:           000099H   BYTE   INSEG    CODE           ?PR?SOFT_SPI_WRITE_16BIT?ZF_DRIVER_SOFT_SPI
   *DEL*:           000216H   BYTE   INSEG    CODE           ?PR?SOFT_SPI_8BIT_DATA_HANDLER?ZF_DRIVER_SOFT_SPI
   *DEL*:           0000EEH   BYTE   INSEG    CODE           ?PR?SOFT_SPI_WRITE_16BIT_ARRAY?ZF_DRIVER_SOFT_SPI
   *DEL*:           0000B0H   BYTE   INSEG    CODE           ?PR?SOFT_SPI_READ_8BIT_REGISTER?ZF_DRIVER_SOFT_SPI
   *DEL*:           000159H   BYTE   INSEG    CODE           ?PR?SOFT_SPI_TRANSFER_8BIT?ZF_DRIVER_SOFT_SPI
   *DEL*:           000103H   BYTE   INSEG    CODE           ?PR?SOFT_SPI_WRITE_8BIT_REGISTERS?ZF_DRIVER_SOFT_SPI
   *DEL*:           0000ACH   BYTE   INSEG    CODE           ?PR?SOFT_SPI_WRITE_8BIT_REGISTER?ZF_DRIVER_SOFT_SPI
   *DEL*:           00010EH   BYTE   INSEG    CODE           ?PR?SOFT_SPI_READ_16BIT_REGISTERS?ZF_DRIVER_SOFT_SPI
   *DEL*:           000250H   BYTE   INSEG    CODE           ?PR?SOFT_SPI_16BIT_DATA_HANDLER?ZF_DRIVER_SOFT_SPI
   *DEL*:           0000BCH   BYTE   INSEG    CODE           ?PR?SOFT_SPI_READ_16BIT_REGISTER?ZF_DRIVER_SOFT_SPI
   *DEL*:           00015BH   BYTE   INSEG    CODE           ?PR?SOFT_SPI_TRANSFER_16BIT?ZF_DRIVER_SOFT_SPI
   *DEL*:           0000FDH   BYTE   INSEG    CODE           ?PR?SOFT_SPI_WRITE_16BIT_REGISTERS?ZF_DRIVER_SOFT_SPI
   *DEL*:           00009BH   BYTE   INSEG    CODE           ?PR?SOFT_SPI_READ_8BIT?ZF_DRIVER_SOFT_SPI
   *DEL*:           0000FCH   BYTE   INSEG    CODE           ?PR?SOFT_SPI_READ_8BIT_ARRAY?ZF_DRIVER_SOFT_SPI
   *DEL*:           0000B2H   BYTE   INSEG    CODE           ?PR?SOFT_SPI_WRITE_16BIT_REGISTER?ZF_DRIVER_SOFT_SPI
   *DEL*:           000095H   BYTE   INSEG    CODE           ?PR?SOFT_SPI_WRITE_8BIT?ZF_DRIVER_SOFT_SPI
   *DEL*:           0000EEH   BYTE   INSEG    CODE           ?PR?SOFT_SPI_WRITE_8BIT_ARRAY?ZF_DRIVER_SOFT_SPI
   *DEL*:           00003CH   BYTE   INSEG    CODE           ?PR?SOFT_SPI_DELAY?ZF_DRIVER_SOFT_SPI
   *DEL*:           0000A0H   BYTE   INSEG    CODE           ?PR?SOFT_SPI_READ_16BIT?ZF_DRIVER_SOFT_SPI
   *DEL*:           0000FFH   BYTE   INSEG    CODE           ?PR?SOFT_SPI_READ_16BIT_ARRAY?ZF_DRIVER_SOFT_SPI
   *DEL*:           00002BH   BYTE   INSEG    CODE           ?PR?SPI_WRITE_8BIT_REGISTER?ZF_DRIVER_SPI
   *DEL*:           0000BCH   BYTE   INSEG    CODE           ?PR?SPI_READ_16BIT_REGISTERS?ZF_DRIVER_SPI
   *DEL*:           000079H   BYTE   INSEG    CODE           ?PR?SPI_READ_16BIT_REGISTER?ZF_DRIVER_SPI
   *DEL*:           00010DH   BYTE   INSEG    CODE           ?PR?SPI_TRANSFER_16BIT?ZF_DRIVER_SPI
   *DEL*:           00008AH   BYTE   INSEG    CODE           ?PR?SPI_WRITE_16BIT_REGISTERS?ZF_DRIVER_SPI
   *DEL*:           000011H   BYTE   INSEG    CODE           ?PR?SPI_READ_8BIT?ZF_DRIVER_SPI
   *DEL*:           00005DH   BYTE   INSEG    CODE           ?PR?SPI_READ_8BIT_ARRAY?ZF_DRIVER_SPI
   *DEL*:           00006FH   BYTE   INSEG    CODE           ?PR?SPI_WRITE_16BIT_REGISTER?ZF_DRIVER_SPI
   *DEL*:           00004FH   BYTE   INSEG    CODE           ?PR?SPI_WRITE_8BIT_ARRAY?ZF_DRIVER_SPI
   *DEL*:           000045H   BYTE   INSEG    CODE           ?PR?SPI_READ_16BIT?ZF_DRIVER_SPI
   *DEL*:           000088H   BYTE   INSEG    CODE           ?PR?SPI_READ_16BIT_ARRAY?ZF_DRIVER_SPI
   *DEL*:           00006EH   BYTE   INSEG    CODE           ?PR?SPI_READ_8BIT_REGISTERS?ZF_DRIVER_SPI
   *DEL*:           000075H   BYTE   INSEG    CODE           ?PR?SPI_WRITE_16BIT_ARRAY?ZF_DRIVER_SPI
   *DEL*:           000022H   BYTE   INSEG    CODE           ?PR?SPI_READ_8BIT_REGISTER?ZF_DRIVER_SPI
   *DEL*:           0000A4H   BYTE   INSEG    CODE           ?PR?SPI_TRANSFER_8BIT?ZF_DRIVER_SPI
   *DEL*:           000060H   BYTE   INSEG    CODE           ?PR?SPI_WRITE_8BIT_REGISTERS?ZF_DRIVER_SPI
   *DEL*:           00003DH   BYTE   INSEG    CODE           ?PR?UART_WRITE_STRING?ZF_DRIVER_UART
   *DEL*:           000072H   BYTE   INSEG    CODE           ?PR?UART_READ_BYTE?ZF_DRIVER_UART
L251 LINKER/LOCATER V4.66.93.0                                                        03/29/2026  20:20:13  PAGE 15


   *DEL*:           000038H   BYTE   INSEG    CODE           ?PR?EEPROM_READ?EEPROM
   *DEL*:           000074H   BYTE   INSEG    CODE           ?PR?EEPROM_READ_VALUE?EEPROM
   *DEL*:           00007DH   BYTE   INSEG    CODE           ?PR?EEPROM_WRITE_VALUE?EEPROM
   *DEL*:           000032H   BYTE   INSEG    CODE           ?PR?EEPROM_INIT?EEPROM
   *DEL*:           000020H   BYTE   INSEG    CODE           ?PR?VOLTAGE_WARNING_INIT?VOLTAGE_WARNING
   *DEL*:           000084H   BYTE   INSEG    CODE           ?PR?BLE6A20_READ_BUFFER?ZF_DEVICE_BLE6A20
   *DEL*:           000110H   BYTE   INSEG    CODE           ?PR?BLE6A20_SEND_BUFFER?ZF_DEVICE_BLE6A20
   *DEL*:           00005DH   BYTE   INSEG    CODE           ?PR?BLE6A20_SEND_STRING?ZF_DEVICE_BLE6A20
   *DEL*:           000026H   BYTE   INSEG    CODE           ?PR?BLE6A20_CALLBACK?ZF_DEVICE_BLE6A20
   *DEL*:           000088H   BYTE   INSEG    CODE           ?PR?BLE6A20_INIT?ZF_DEVICE_BLE6A20
   *DEL*:           00006DH   BYTE   INSEG    CODE           ?PR?BLE6A20_SEND_BYTE?ZF_DEVICE_BLE6A20
   *DEL*:           00006FH   BYTE   INSEG    CODE           ?PR?DL1A_TIMEOUT_MICROSECONDS_TO_MCLKS?ZF_DEVICE_DL1A
   *DEL*:           000069H   BYTE   INSEG    CODE           ?PR?DL1A_TIMEOUT_MCLKS_TO_MICROSECONDS?ZF_DEVICE_DL1A
   *DEL*:           0000A2H   BYTE   INSEG    CODE           ?PR?DL1A_SET_SIGNAL_RATE_LIMIT?ZF_DEVICE_DL1A
   *DEL*:           000030H   BYTE   INSEG    CODE           ?PR?DL1A_DECODE_TIMEOUT?ZF_DEVICE_DL1A
   *DEL*:           000259H   BYTE   INSEG    CODE           ?PR?DL1A_GET_SPAD_INFO?ZF_DEVICE_DL1A
   *DEL*:           000085H   BYTE   INSEG    CODE           ?PR?DL1A_ENCODE_TIMEOUT?ZF_DEVICE_DL1A
   *DEL*:           0000CBH   BYTE   INSEG    CODE           ?PR?DL1A_GET_SEQUENCE_STEP_ENABLES?ZF_DEVICE_DL1A
   *DEL*:           0000D3H   BYTE   INSEG    CODE           ?PR?DL1A_GET_DISTANCE?ZF_DEVICE_DL1A
   *DEL*:           0000D6H   BYTE   INSEG    CODE           ?PR?DL1A_PERFORM_SINGLE_REF_CALIBRATION?ZF_DEVICE_DL1A
   *DEL*:           00021AH   BYTE   INSEG    CODE           ?PR?DL1A_GET_SEQUENCE_STEP_TIMEOUTS?ZF_DEVICE_DL1A
   *DEL*:           000001H   BYTE   INSEG    CODE           ?PR?DL1A_INT_HANDLER?ZF_DEVICE_DL1A
   *DEL*:           000119H   BYTE   INSEG    CODE           ?PR?DL1A_GET_MEASUREMENT_TIMING_BUDGET?ZF_DEVICE_DL1A
   *DEL*:           000210H   BYTE   INSEG    CODE           ?PR?DL1A_SET_MEASUREMENT_TIMING_BUDGET?ZF_DEVICE_DL1A
   *DEL*:           000602H   BYTE   INSEG    CODE           ?PR?DL1A_INIT?ZF_DEVICE_DL1A
   *DEL*:           00009EH   BYTE   INSEG    CODE           ?PR?DL1A_GET_VCSEL_PULSE_PERIOD?ZF_DEVICE_DL1A
   *DEL*:           0001E4H   BYTE   INSEG    CODE           ?PR?DL1B_GET_DISTANCE?ZF_DEVICE_DL1B
   *DEL*:           000001H   BYTE   INSEG    CODE           ?PR?DL1B_INT_HANDLER?ZF_DEVICE_DL1B
   *DEL*:           00000AH   BYTE   INSEG    CODE           ?PR?DL1B_INIT?ZF_DEVICE_DL1B
   *DEL*:           000094H   BYTE   INSEG    CODE           ?PR?GET_DOUBLE_NUMBER?ZF_DEVICE_GPS_TAU1201
   *DEL*:           000094H   BYTE   INSEG    CODE           ?PR?GET_FLOAT_NUMBER?ZF_DEVICE_GPS_TAU1201
   *DEL*:           0001CEH   BYTE   INSEG    CODE           ?PR?UTC_TO_BTC?ZF_DEVICE_GPS_TAU1201
   *DEL*:           000214H   BYTE   INSEG    CODE           ?PR?GET_TWO_POINTS_DISTANCE?ZF_DEVICE_GPS_TAU1201
   *DEL*:           000102H   BYTE   INSEG    CODE           ?PR?GPS_GNGGA_PARSE?ZF_DEVICE_GPS_TAU1201
   *DEL*:           000668H   BYTE   INSEG    CODE           ?PR?GPS_GNRMC_PARSE?ZF_DEVICE_GPS_TAU1201
   *DEL*:           000212H   BYTE   INSEG    CODE           ?PR?GPS_DATA_PARSE?ZF_DEVICE_GPS_TAU1201
   *DEL*:           000088H   BYTE   INSEG    CODE           ?PR?GET_INT_NUMBER?ZF_DEVICE_GPS_TAU1201
   *DEL*:           0002B0H   BYTE   INSEG    CODE           ?PR?GPS_INIT?ZF_DEVICE_GPS_TAU1201
   *DEL*:           0000D3H   BYTE   INSEG    CODE           ?PR?GET_PARAMETER_INDEX?ZF_DEVICE_GPS_TAU1201
   *DEL*:           00033DH   BYTE   INSEG    CODE           ?PR?GET_TWO_POINTS_AZIMUTH?ZF_DEVICE_GPS_TAU1201
   *DEL*:           000191H   BYTE   INSEG    CODE           ?PR?GPS_UART_CALLBACK?ZF_DEVICE_GPS_TAU1201
   *DEL*:           000024H   BYTE   INSEG    CODE           ?PR?ICM20602_READ_REGISTER?ZF_DEVICE_ICM20602
   *DEL*:           00001EH   BYTE   INSEG    CODE           ?PR?ICM20602_WRITE_REGISTER?ZF_DEVICE_ICM20602
   *DEL*:           000050H   BYTE   INSEG    CODE           ?PR?ICM20602_SIMSPI_WR_BYTE?ZF_DEVICE_ICM20602
   *DEL*:           000051H   BYTE   INSEG    CODE           ?PR?ICM20602_SELF_CHECK?ZF_DEVICE_ICM20602
   *DEL*:           000076H   BYTE   INSEG    CODE           ?PR?ICM20602_SIMSPI_R_REG_BYTES?ZF_DEVICE_ICM20602
   *DEL*:           000031H   BYTE   INSEG    CODE           ?PR?ICM20602_SIMSPI_R_REG_BYTE?ZF_DEVICE_ICM20602
   *DEL*:           00001DH   BYTE   INSEG    CODE           ?PR?ICM20602_SIMSPI_W_REG_BYTE?ZF_DEVICE_ICM20602
   *DEL*:           0001F1H   BYTE   INSEG    CODE           ?PR?ICM20602_INIT?ZF_DEVICE_ICM20602
   *DEL*:           00005AH   BYTE   INSEG    CODE           ?PR?ICM20602_GET_ACC?ZF_DEVICE_ICM20602
   *DEL*:           000040H   BYTE   INSEG    CODE           ?PR?ICM20602_READ_REGISTERS?ZF_DEVICE_ICM20602
   *DEL*:           00005AH   BYTE   INSEG    CODE           ?PR?ICM20602_GET_GYRO?ZF_DEVICE_ICM20602
   *DEL*:           00005AH   BYTE   INSEG    CODE           ?PR?IMU660RA_GET_GYRO?ZF_DEVICE_IMU660RA
   *DEL*:           000028H   BYTE   INSEG    CODE           ?PR?IMU660RA_READ_REGISTER?ZF_DEVICE_IMU660RA
   *DEL*:           00003AH   BYTE   INSEG    CODE           ?PR?IMU660RA_WRITE_REGISTERS?ZF_DEVICE_IMU660RA
   *DEL*:           00001EH   BYTE   INSEG    CODE           ?PR?IMU660RA_WRITE_REGISTER?ZF_DEVICE_IMU660RA
   *DEL*:           000065H   BYTE   INSEG    CODE           ?PR?IMU660RA_SELF_CHECK?ZF_DEVICE_IMU660RA
   *DEL*:           00005CH   BYTE   INSEG    CODE           ?PR?IMU660RA_SIMSPI_W_REG_BYTES?ZF_DEVICE_IMU660RA
   *DEL*:           00001DH   BYTE   INSEG    CODE           ?PR?IMU660RA_SIMSPI_W_REG_BYTE?ZF_DEVICE_IMU660RA
   *DEL*:           0001F4H   BYTE   INSEG    CODE           ?PR?IMU660RA_INIT?ZF_DEVICE_IMU660RA
   *DEL*:           00005AH   BYTE   INSEG    CODE           ?PR?IMU660RA_GET_ACC?ZF_DEVICE_IMU660RA
   *DEL*:           0000B1H   BYTE   INSEG    CODE           ?PR?IMU660RA_READ_REGISTERS?ZF_DEVICE_IMU660RA
   *DEL*:           00005AH   BYTE   INSEG    CODE           ?PR?IMU660RB_GET_GYRO?ZF_DEVICE_IMU660RB
   *DEL*:           000024H   BYTE   INSEG    CODE           ?PR?IMU660RB_READ_REGISTER?ZF_DEVICE_IMU660RB
   *DEL*:           000114H   BYTE   INSEG    CODE           ?PR?IMU660RB_GYRO_TRANSITION?ZF_DEVICE_IMU660RB
L251 LINKER/LOCATER V4.66.93.0                                                        03/29/2026  20:20:13  PAGE 16


   *DEL*:           00001EH   BYTE   INSEG    CODE           ?PR?IMU660RB_WRITE_REGISTER?ZF_DEVICE_IMU660RB
   *DEL*:           000053H   BYTE   INSEG    CODE           ?PR?IMU660RB_SIMSPI_WR_BYTE?ZF_DEVICE_IMU660RB
   *DEL*:           00004FH   BYTE   INSEG    CODE           ?PR?IMU660RB_SELF_CHECK?ZF_DEVICE_IMU660RB
   *DEL*:           000070H   BYTE   INSEG    CODE           ?PR?IMU660RB_SIMSPI_R_REG_BYTES?ZF_DEVICE_IMU660RB
   *DEL*:           000037H   BYTE   INSEG    CODE           ?PR?IMU660RB_SIMSPI_R_REG_BYTE?ZF_DEVICE_IMU660RB
   *DEL*:           00001DH   BYTE   INSEG    CODE           ?PR?IMU660RB_SIMSPI_W_REG_BYTE?ZF_DEVICE_IMU660RB
   *DEL*:           000071H   BYTE   INSEG    CODE           ?PR?IMU660RB_INIT?ZF_DEVICE_IMU660RB
   *DEL*:           00005AH   BYTE   INSEG    CODE           ?PR?IMU660RB_GET_ACC?ZF_DEVICE_IMU660RB
   *DEL*:           0000BEH   BYTE   INSEG    CODE           ?PR?IMU660RB_ACC_TRANSITION?ZF_DEVICE_IMU660RB
   *DEL*:           000040H   BYTE   INSEG    CODE           ?PR?IMU660RB_READ_REGISTERS?ZF_DEVICE_IMU660RB
   *DEL*:           00005AH   BYTE   INSEG    CODE           ?PR?IMU963RA_GET_GYRO?ZF_DEVICE_IMU963RA
   *DEL*:           000072H   BYTE   INSEG    CODE           ?PR?IMU963RA_READ_MAG_REGISTER?ZF_DEVICE_IMU963RA
   *DEL*:           00003DH   BYTE   INSEG    CODE           ?PR?IMU963RA_CONNECT_MAG?ZF_DEVICE_IMU963RA
   *DEL*:           00004CH   BYTE   INSEG    CODE           ?PR?IMU963RA_READ_ACC_GYRO_REGISTERS?ZF_DEVICE_IMU963RA
   *DEL*:           000089H   BYTE   INSEG    CODE           ?PR?IMU963RA_WRITE_MAG_REGISTER?ZF_DEVICE_IMU963RA
   *DEL*:           000027H   BYTE   INSEG    CODE           ?PR?IMU963RA_READ_ACC_GYRO_REGISTER?ZF_DEVICE_IMU963RA
   *DEL*:           000054H   BYTE   INSEG    CODE           ?PR?IMU963RA_MAG_SELF_CHECK?ZF_DEVICE_IMU963RA
   *DEL*:           000020H   BYTE   INSEG    CODE           ?PR?IMU963RA_WRITE_ACC_GYRO_REGISTER?ZF_DEVICE_IMU963RA
   *DEL*:           000345H   BYTE   INSEG    CODE           ?PR?IMU963RA_INIT?ZF_DEVICE_IMU963RA
   *DEL*:           000068H   BYTE   INSEG    CODE           ?PR?IMU963RA_ACC_GYRO_SELF_CHECK?ZF_DEVICE_IMU963RA
   *DEL*:           00005AH   BYTE   INSEG    CODE           ?PR?IMU963RA_GET_ACC?ZF_DEVICE_IMU963RA
   *DEL*:           000079H   BYTE   INSEG    CODE           ?PR?IMU963RA_GET_MAG?ZF_DEVICE_IMU963RA
   *DEL*:           000083H   BYTE   INSEG    CODE           ?PR?IPS114_DRAW_POINT?ZF_DEVICE_IPS114
   *DEL*:           000119H   BYTE   INSEG    CODE           ?PR?IPS114_SHOW_UINT16?ZF_DEVICE_IPS114
   *DEL*:           00015EH   BYTE   INSEG    CODE           ?PR?IPS114_SHOW_INT32?ZF_DEVICE_IPS114
   *DEL*:           00016DH   BYTE   INSEG    CODE           ?PR?IPS114_SHOW_INT16?ZF_DEVICE_IPS114
   *DEL*:           000214H   BYTE   INSEG    CODE           ?PR?IPS114_SHOW_WAVE?ZF_DEVICE_IPS114
   *DEL*:           000200H   BYTE   INSEG    CODE           ?PR?IPS114_SHOW_CHINESE?ZF_DEVICE_IPS114
   *DEL*:           0000E9H   BYTE   INSEG    CODE           ?PR?IPS114_SHOW_UINT8?ZF_DEVICE_IPS114
   *DEL*:           00012EH   BYTE   INSEG    CODE           ?PR?IPS114_SHOW_INT8?ZF_DEVICE_IPS114
   *DEL*:           0001EBH   BYTE   INSEG    CODE           ?PR?IPS200_SHOW_FLOAT?ZF_DEVICE_IPS200
   *DEL*:           000083H   BYTE   INSEG    CODE           ?PR?IPS200_DRAW_POINT?ZF_DEVICE_IPS200
   *DEL*:           0000C4H   BYTE   INSEG    CODE           ?PR?IPS200_SHOW_STRING?ZF_DEVICE_IPS200
   *DEL*:           00011CH   BYTE   INSEG    CODE           ?PR?IPS200_SHOW_CHAR?ZF_DEVICE_IPS200
   *DEL*:           000119H   BYTE   INSEG    CODE           ?PR?IPS200_SHOW_UINT16?ZF_DEVICE_IPS200
   *DEL*:           000025H   BYTE   INSEG    CODE           ?PR?IPS200_SET_COLOR?ZF_DEVICE_IPS200
   *DEL*:           00015EH   BYTE   INSEG    CODE           ?PR?IPS200_SHOW_INT32?ZF_DEVICE_IPS200
   *DEL*:           00016DH   BYTE   INSEG    CODE           ?PR?IPS200_SHOW_INT16?ZF_DEVICE_IPS200
   *DEL*:           000214H   BYTE   INSEG    CODE           ?PR?IPS200_SHOW_WAVE?ZF_DEVICE_IPS200
   *DEL*:           000013H   BYTE   INSEG    CODE           ?PR?IPS200_SET_DIR?ZF_DEVICE_IPS200
   *DEL*:           000200H   BYTE   INSEG    CODE           ?PR?IPS200_SHOW_CHINESE?ZF_DEVICE_IPS200
   *DEL*:           000085H   BYTE   INSEG    CODE           ?PR?IPS200_CLEAR?ZF_DEVICE_IPS200
   *DEL*:           0000E9H   BYTE   INSEG    CODE           ?PR?IPS200_SHOW_UINT8?ZF_DEVICE_IPS200
   *DEL*:           00012EH   BYTE   INSEG    CODE           ?PR?IPS200_SHOW_INT8?ZF_DEVICE_IPS200
   *DEL*:           000022H   BYTE   INSEG    CODE           ?PR?IPS200_WRITE_INDEX?ZF_DEVICE_IPS200
   *DEL*:           0000ECH   BYTE   INSEG    CODE           ?PR?IPS200_SET_REGION?ZF_DEVICE_IPS200
   *DEL*:           0002C2H   BYTE   INSEG    CODE           ?PR?IPS200_INIT?ZF_DEVICE_IPS200
   *DEL*:           000095H   BYTE   INSEG    CODE           ?PR?IPS200PRO_PROGRESS_BAR_CREATE?ZF_DEVICE_IPS200PRO
   *DEL*:           000053H   BYTE   INSEG    CODE           ?PR?IPS200PRO_SET_CRC_STATE?ZF_DEVICE_IPS200PRO
   *DEL*:           000070H   BYTE   INSEG    CODE           ?PR?IPS200PRO_TABLE_SELECT?ZF_DEVICE_IPS200PRO
   *DEL*:           000036H   BYTE   INSEG    CODE           ?PR?IPS200PRO_PAGE_HIDDEN?ZF_DEVICE_IPS200PRO
   *DEL*:           000055H   BYTE   INSEG    CODE           ?PR?IPS200PRO_SET_DIRECTION?ZF_DEVICE_IPS200PRO
   *DEL*:           00009EH   BYTE   INSEG    CODE           ?PR?IPS200PRO_PAGE_CREATE?ZF_DEVICE_IPS200PRO
   *DEL*:           00010CH   BYTE   INSEG    CODE           ?PR?IPS200PRO_WAVEFORM_ADD_VALUE?ZF_DEVICE_IPS200PRO
   *DEL*:           000095H   BYTE   INSEG    CODE           ?PR?IPS200PRO_METER_CREATE?ZF_DEVICE_IPS200PRO
   *DEL*:           0000E3H   BYTE   INSEG    CODE           ?PR?IPS200PRO_LABEL_PRINTF?ZF_DEVICE_IPS200PRO
   *DEL*:           000072H   BYTE   INSEG    CODE           ?PR?IPS200PRO_WAVEFORM_LINE_STATE?ZF_DEVICE_IPS200PRO
   *DEL*:           000114H   BYTE   INSEG    CODE           ?PR?IPS200PRO_TABLE_CELL_PRINTF?ZF_DEVICE_IPS200PRO
   *DEL*:           000286H   BYTE   INSEG    CODE           ?PR?IPS200PRO_WRITE_PACKET?ZF_DEVICE_IPS200PRO
   *DEL*:           00009AH   BYTE   INSEG    CODE           ?PR?IPS200PRO_SEND_BUFFER?ZF_DEVICE_IPS200PRO
   *DEL*:           000060H   BYTE   INSEG    CODE           ?PR?IPS200PRO_LABEL_MODE?ZF_DEVICE_IPS200PRO
   *DEL*:           000060H   BYTE   INSEG    CODE           ?PR?IPS200PRO_PAGE_SWITCH?ZF_DEVICE_IPS200PRO
   *DEL*:           000053H   BYTE   INSEG    CODE           ?PR?IPS200PRO_CALENDAR_CREATE?ZF_DEVICE_IPS200PRO
   *DEL*:           000087H   BYTE   INSEG    CODE           ?PR?IPS200PRO_CALENDAR_DISPLAY?ZF_DEVICE_IPS200PRO
   *DEL*:           00005EH   BYTE   INSEG    CODE           ?PR?IPS200PRO_WAVEFORM_LINE_TYPE?ZF_DEVICE_IPS200PRO
L251 LINKER/LOCATER V4.66.93.0                                                        03/29/2026  20:20:13  PAGE 17


   *DEL*:           000062H   BYTE   INSEG    CODE           ?PR?IPS200PRO_SET_HIDDEN?ZF_DEVICE_IPS200PRO
   *DEL*:           000095H   BYTE   INSEG    CODE           ?PR?IPS200PRO_CONTAINER_CREATE?ZF_DEVICE_IPS200PRO
   *DEL*:           0000E6H   BYTE   INSEG    CODE           ?PR?IPS200PRO_IMAGE_DRAW_LINE?ZF_DEVICE_IPS200PRO
   *DEL*:           000081H   BYTE   INSEG    CODE           ?PR?IPS200PRO_LABEL_SHOW_STRING?ZF_DEVICE_IPS200PRO
   *DEL*:           000053H   BYTE   INSEG    CODE           ?PR?IPS200PRO_SET_OPTIMIZE?ZF_DEVICE_IPS200PRO
   *DEL*:           000076H   BYTE   INSEG    CODE           ?PR?IPS200PRO_SET_POSITION?ZF_DEVICE_IPS200PRO
   *DEL*:           000055H   BYTE   INSEG    CODE           ?PR?IPS200PRO_SET_DEFAULT_FONT?ZF_DEVICE_IPS200PRO
   *DEL*:           000066H   BYTE   INSEG    CODE           ?PR?IPS200PRO_PAGE_SET_TITLE_POSITION_WIDTH?ZF_DEVICE_IPS2
                                                             -00PRO
   *DEL*:           0000C1H   BYTE   INSEG    CODE           ?PR?IPS200PRO_IMAGE_DRAW_RECTANGLE?ZF_DEVICE_IPS200PRO
   *DEL*:           0000EDH   BYTE   INSEG    CODE           ?PR?IPS200PRO_INIT?ZF_DEVICE_IPS200PRO
   *DEL*:           000072H   BYTE   INSEG    CODE           ?PR?IPS200PRO_CONTAINER_RADIUS?ZF_DEVICE_IPS200PRO
   *DEL*:           00006DH   BYTE   INSEG    CODE           ?PR?IPS200PRO_WAIT_IDLE?ZF_DEVICE_IPS200PRO
   *DEL*:           000055H   BYTE   INSEG    CODE           ?PR?IPS200PRO_SET_FORMAT?ZF_DEVICE_IPS200PRO
   *DEL*:           000067H   BYTE   INSEG    CODE           ?PR?IPS200PRO_SET_PARENT?ZF_DEVICE_IPS200PRO
   *DEL*:           000070H   BYTE   INSEG    CODE           ?PR?IPS200PRO_PROGRESS_BAR_SET_VALUE?ZF_DEVICE_IPS200PRO
   *DEL*:           00004AH   BYTE   INSEG    CODE           ?PR?IPS200PRO_GET_DATE?ZF_DEVICE_IPS200PRO
   *DEL*:           000095H   BYTE   INSEG    CODE           ?PR?IPS200PRO_WAVEFORM_CREATE?ZF_DEVICE_IPS200PRO
   *DEL*:           0000B6H   BYTE   INSEG    CODE           ?PR?IPS200PRO_READ_PARAMETER?ZF_DEVICE_IPS200PRO
   *DEL*:           0000A1H   BYTE   INSEG    CODE           ?PR?IPS200PRO_RECEIVE_BUFFER?ZF_DEVICE_IPS200PRO
   *DEL*:           000086H   BYTE   INSEG    CODE           ?PR?IPS200PRO_SET_DATE?ZF_DEVICE_IPS200PRO
   *DEL*:           000060H   BYTE   INSEG    CODE           ?PR?IPS200PRO_METER_SET_VALUE?ZF_DEVICE_IPS200PRO
   *DEL*:           000076H   BYTE   INSEG    CODE           ?PR?IPS200PRO_SET_COLOR?ZF_DEVICE_IPS200PRO
   *DEL*:           00005FH   BYTE   INSEG    CODE           ?PR?IPS200PRO_GET_INFORMATION?ZF_DEVICE_IPS200PRO
   *DEL*:           000052H   BYTE   INSEG    CODE           ?PR?IPS200PRO_DELETE_WIDGETS?ZF_DEVICE_IPS200PRO
   *DEL*:           00004CH   BYTE   INSEG    CODE           ?PR?IPS200PRO_GET_TIME?ZF_DEVICE_IPS200PRO
   *DEL*:           0000B5H   BYTE   INSEG    CODE           ?PR?IPS200PRO_CREATE_WIDGETS?ZF_DEVICE_IPS200PRO
   *DEL*:           00004EH   BYTE   INSEG    CODE           ?PR?IPS200PRO_WAVEFORM_CLEAR?ZF_DEVICE_IPS200PRO
   *DEL*:           00006FH   BYTE   INSEG    CODE           ?PR?IPS200PRO_PAGE_SET_TITLE_NAME?ZF_DEVICE_IPS200PRO
   *DEL*:           000095H   BYTE   INSEG    CODE           ?PR?IPS200PRO_LABEL_CREATE?ZF_DEVICE_IPS200PRO
   *DEL*:           000070H   BYTE   INSEG    CODE           ?PR?IPS200PRO_TABLE_SET_COL_WIDTH?ZF_DEVICE_IPS200PRO
   *DEL*:           000053H   BYTE   INSEG    CODE           ?PR?IPS200PRO_SET_BACKLIGHT?ZF_DEVICE_IPS200PRO
   *DEL*:           000095H   BYTE   INSEG    CODE           ?PR?IPS200PRO_IMAGE_CREATE?ZF_DEVICE_IPS200PRO
   *DEL*:           00004DH   BYTE   INSEG    CODE           ?PR?IPS200PRO_GET_FREE_STACK_SIZE?ZF_DEVICE_IPS200PRO
   *DEL*:           000091H   BYTE   INSEG    CODE           ?PR?IPS200PRO_SET_TIME?ZF_DEVICE_IPS200PRO
   *DEL*:           0001BFH   BYTE   INSEG    CODE           ?PR?IPS200PRO_IMAGE_DISPLAY?ZF_DEVICE_IPS200PRO
   *DEL*:           000095H   BYTE   INSEG    CODE           ?PR?IPS200PRO_TABLE_CREATE?ZF_DEVICE_IPS200PRO
   *DEL*:           000095H   BYTE   INSEG    CODE           ?PR?IPS200PRO_CLOCK_CREATE?ZF_DEVICE_IPS200PRO
   *DEL*:           000064H   BYTE   INSEG    CODE           ?PR?IPS200PRO_SET_FONT?ZF_DEVICE_IPS200PRO
   *DEL*:           000176H   BYTE   INSEG    CODE           ?PR?TFT180_SET_REGION?ZF_DEVICE_TFT180
   *DEL*:           00036EH   BYTE   INSEG    CODE           ?PR?TFT180_INIT?ZF_DEVICE_TFT180
   *DEL*:           0001EBH   BYTE   INSEG    CODE           ?PR?TFT180_SHOW_FLOAT?ZF_DEVICE_TFT180
   *DEL*:           000083H   BYTE   INSEG    CODE           ?PR?TFT180_DRAW_POINT?ZF_DEVICE_TFT180
   *DEL*:           0000C4H   BYTE   INSEG    CODE           ?PR?TFT180_SHOW_STRING?ZF_DEVICE_TFT180
   *DEL*:           00011CH   BYTE   INSEG    CODE           ?PR?TFT180_SHOW_CHAR?ZF_DEVICE_TFT180
   *DEL*:           000119H   BYTE   INSEG    CODE           ?PR?TFT180_SHOW_UINT16?ZF_DEVICE_TFT180
   *DEL*:           000025H   BYTE   INSEG    CODE           ?PR?TFT180_SET_COLOR?ZF_DEVICE_TFT180
   *DEL*:           00015EH   BYTE   INSEG    CODE           ?PR?TFT180_SHOW_INT32?ZF_DEVICE_TFT180
   *DEL*:           00016DH   BYTE   INSEG    CODE           ?PR?TFT180_SHOW_INT16?ZF_DEVICE_TFT180
   *DEL*:           000214H   BYTE   INSEG    CODE           ?PR?TFT180_SHOW_WAVE?ZF_DEVICE_TFT180
   *DEL*:           00003BH   BYTE   INSEG    CODE           ?PR?TFT180_SET_DIR?ZF_DEVICE_TFT180
   *DEL*:           000079H   BYTE   INSEG    CODE           ?PR?TFT180_CLEAR?ZF_DEVICE_TFT180
   *DEL*:           0000E9H   BYTE   INSEG    CODE           ?PR?TFT180_SHOW_UINT8?ZF_DEVICE_TFT180
   *DEL*:           00012EH   BYTE   INSEG    CODE           ?PR?TFT180_SHOW_INT8?ZF_DEVICE_TFT180
   *DEL*:           000022H   BYTE   INSEG    CODE           ?PR?TFT180_WRITE_INDEX?ZF_DEVICE_TFT180
   *DEL*:           0000C0H   BYTE   INSEG    CODE           ?PR?TSL1401_SEND_DATA?ZF_DEVICE_TSL1401
   *DEL*:           00003DH   BYTE   INSEG    CODE           ?PR?TSL1401_INIT?ZF_DEVICE_TSL1401
   *DEL*:           0000BEH   BYTE   INSEG    CODE           ?PR?TSL1401_COLLECT_PIT_HANDLER?ZF_DEVICE_TSL1401
   *DEL*:           00002DH   BYTE   INSEG    CODE           ?PR?SET_TOF_TYPE?ZF_DEVICE_TYPE
   *DEL*:           00009FH   BYTE   INSEG    CODE           ?PR?SET_GPS_TYPE?ZF_DEVICE_TYPE
   *DEL*:           00005DH   BYTE   INSEG    CODE           ?PR?WIRELESS_UART_SEND_STRING?ZF_DEVICE_WIRELESS_UART
   *DEL*:           00006DH   BYTE   INSEG    CODE           ?PR?WIRELESS_UART_SEND_BYTE?ZF_DEVICE_WIRELESS_UART
   *DEL*:           0001ABH   BYTE   INSEG    CODE           ?PR?IMU_HANDLE_360?IMU
   *DEL*:           000113H   BYTE   INSEG    CODE           ?PR?IMU_HANDLE_180?IMU
   *DEL*:           0003D8H   BYTE   INSEG    CODE           ?PR?FIRST_COMPLEMENT_INIT?IMU
L251 LINKER/LOCATER V4.66.93.0                                                        03/29/2026  20:20:13  PAGE 18


   *DEL*:           000037H   BYTE   INSEG    CODE           ?PR?IMU_HANDLE_0?IMU
   *DEL*:           0000EEH   BYTE   INSEG    CODE           ?PR?KALMANCREATE?IMU
   *DEL*:           000228H   BYTE   INSEG    CODE           ?PR?KALMANFILTER?IMU
   *DEL*:           000079H   BYTE   INSEG    CODE           ?PR?MAIN_LOOP?IMU
   *DEL*:           00011FH   BYTE   INSEG    CODE           ?PR?IMU_GYRO_OFFSET_INIT?IMU
   *DEL*:           00000AH   BYTE   INSEG    CODE           ?PR?GYRO_PROC?IMU
   *DEL*:           00004EH   BYTE   INSEG    CODE           ?PR?GYRO_INIT?IMU
   *DEL*:           000131H   BYTE   INSEG    CODE           ?PR?FAST_SQRT?IMU
   *DEL*:           000035H   BYTE   INSEG    CODE           ?PR?MY_ABS?IMU
   *DEL*:           000184H   BYTE   INSEG    CODE           ?PR?IMU_GETVALUES?IMU
   *DEL*:           0000C9H   BYTE   INSEG    CODE           ?PR?IMU_YAW_INTEGRAL?IMU
   *DEL*:           0004A1H   BYTE   INSEG    CODE           ?PR?SEEKFREE_ASSISTANT_CAMERA_BOUNDARY_CONFIG?SEEKFREE_ASS
                                                             -ISTANT
   *DEL*:           000142H   BYTE   INSEG    CODE           ?PR?SEEKFREE_ASSISTANT_CAMERA_DOT_SEND?SEEKFREE_ASSISTANT
   *DEL*:           0001A3H   BYTE   INSEG    CODE           ?PR?SEEKFREE_ASSISTANT_OSCILLOSCOPE_SEND?SEEKFREE_ASSISTAN
                                                             -T
   *DEL*:           000061H   BYTE   INSEG    CODE           ?PR?SEEKFREE_ASSISTANT_CAMERA_INFORMATION_CONFIG?SEEKFREE_
                                                             -ASSISTANT
   *DEL*:           00015CH   BYTE   INSEG    CODE           ?PR?SEEKFREE_ASSISTANT_CAMERA_DATA_SEND?SEEKFREE_ASSISTANT
   *DEL*:           00004AH   BYTE   INSEG    CODE           ?PR?SEEKFREE_ASSISTANT_CAMERA_SEND?SEEKFREE_ASSISTANT
   *DEL*:           000059H   BYTE   INSEG    CODE           ?PR?SEEKFREE_ASSISTANT_INTERFACE_INIT?SEEKFREE_ASSISTANT_I
                                                             -NTERFACE
   *DEL*:           000041H   BYTE   INSEG    CODE           ?PR?ALL_INIT?ALL_INIT
   *DEL*:           00000DH   BYTE   INSEG    CODE           ?PR?PIT_HANDLER?ENCODER
   *DEL*:           00004CH   BYTE   INSEG    CODE           ?PR?ENCODER_INIT?ENCODER
   *DEL*:           00008BH   BYTE   INSEG    CODE           ?PR?MOTOR_SETSPEED?MOTO
   *DEL*:           000027H   BYTE   INSEG    CODE           ?PR?ABS?MOTO
   *DEL*:           000023H   BYTE   INSEG    CODE           ?PR?LED_SWITCH?LED
   *DEL*:           000023H   BYTE   INSEG    CODE           ?PR?LED_INIT?LED
   *DEL*:           000012H   BYTE   INSEG    CODE           ?PR?LED_OFF?LED
   *DEL*:           000011H   BYTE   INSEG    CODE           ?PR?LED_ON?LED
   *DEL*:           000394H   BYTE   INSEG    CODE           ?PR?PID_CALC?TRANK
   *DEL*:           0001A6H   BYTE   INSEG    CODE           ?PR?DUAL_LOOP_CONTROL?TRANK
   *DEL*:           000162H   BYTE   INSEG    CODE           ?PR?PID_INIT?TRANK
   *DEL*:           000137H   BYTE   INSEG    CODE           ?PR?MEDIAN_AVERAGE_FILTER?INDUCTANCE
   *DEL*:           00006FH   BYTE   INSEG    CODE           ?PR?ADC_NORMALIZE_0_100?INDUCTANCE
   *DEL*:           00018EH   BYTE   INSEG    CODE           ?PR?INDUCTANCE_READ?INDUCTANCE
   *DEL*:           00003DH   BYTE   INSEG    CODE           ?PR?RANGE_PROTECT?INDUCTANCE
   *DEL*:           000025H   BYTE   INSEG    CODE           ?PR?INDUCTANCE_INIT?INDUCTANCE
   *DEL*:           00013CH   BYTE   INSEG    CODE           ?PR?INDUCTANCE_COUNT_ERR?INDUCTANCE
   *DEL*:           0000A5H   BYTE   INSEG    CODE           ?PR?SEND_DATA_TO_PC?MENU
   *DEL*:           000095H   BYTE   INSEG    CODE           ?PR?MENU_INIT?MENU
   *DEL*:           0000F3H   BYTE   INSEG    CODE           ?PR?MENU_DISPLAY?MENU
   *DEL*:           0000F2H   BYTE   INSEG    CODE           ?PR?POW?_?POW
   *DEL*:           000037H   BYTE   INSEG    CODE           ?PR?STRNCMP?_?STRNCMP
   *DEL*:           000030H   BYTE   INSEG    CODE           ?PR?STRNCPY?_?STRNCPY
   *DEL*:           00001FH   BYTE   INSEG    CODE           ?PR?STRCHR?_?STRCHR
   *DEL*:           00001AH   BYTE   INSEG    CODE           ?PR?MEMSET?_?MEMSET



OVERLAY MAP OF MODULE:   .\out_file\SEEKFREE (?C_START)


FUNCTION/MODULE                               XDATA_GROUP
--> CALLED FUNCTION/MODULE                    START  STOP
=========================================================
?C_C51STARTUP                                 ----- -----

*** NEW ROOT ********************************

?C_C51STARTUP?3                               ----- -----
  +--> main/main

main/main                                     ----- -----
L251 LINKER/LOCATER V4.66.93.0                                                        03/29/2026  20:20:13  PAGE 19


  +--> _m/main
  +--> SPRINTF/SPRINTF

_m/main                                       ----- -----
  +--> clock_init/zf_common_clock
  +--> debug_init/zf_common_debug
  +--> ips114_init/zf_device_ips114
  +--> wireless_uart_init/zf_device_wireless_uart
  +--> Parameter_Debug_Init/menu
  +--> Parameter_Debug/menu
  +--> ips114_show_float/zf_device_ips114

clock_init/zf_common_clock                    ----- -----
  +--> set_sys_clk/zf_common_clock
  +--> system_delay_init/zf_driver_delay
  +--> interrupt_global_enable/zf_common_interrupt

set_sys_clk/zf_common_clock                   ----- -----

system_delay_init/zf_driver_delay             ----- -----
  +--> ?C?SLDIV/?C?SLDIV

?C?SLDIV/?C?SLDIV                             ----- -----
  +--> ?C?ULIDIV/?C?ULDIV

?C?ULIDIV/?C?ULDIV                            ----- -----

interrupt_global_enable/zf_common_interr+     ----- -----
... upt

debug_init/zf_common_debug                    ----- -----
  +--> uart_init/zf_driver_uart
  +--> fifo_init/zf_common_fifo
  +--> uart_rx_interrupt/zf_driver_uart
  +--> debug_interrupr_handler/zf_common_debug

uart_init/zf_driver_uart                      ----- -----
  +--> uart_funciton_check/zf_driver_uart
  +--> debug_assert_handler/zf_common_debug
  +--> timer_funciton_check/zf_driver_timer
  +--> gpio_init/zf_driver_gpio
  +--> ?C?ULIDIV/?C?ULDIV
  +--> uart_dma_init/zf_driver_uart

uart_funciton_check/zf_driver_uart            ----- -----

debug_assert_handler/zf_common_debug          ----- -----
  +--> PRINTF/PRINTF
  +--> system_delay_ms/zf_driver_delay

PRINTF/PRINTF                                 119DH 11C4H
  +--> OUT/PRINTF

OUT/PRINTF                                    ----- -----
  +--> PUTCH/PRINTF

PUTCH/PRINTF                                  ----- -----
  +--> putchar/zf_common_debug
  +--> OUT/PRINTF

putchar/zf_common_debug                       ----- -----
  +--> uart_write_byte/zf_driver_uart

uart_write_byte/zf_driver_uart                ----- -----
  +--> uart_write_buffer/zf_driver_uart
L251 LINKER/LOCATER V4.66.93.0                                                        03/29/2026  20:20:13  PAGE 20



uart_write_buffer/zf_driver_uart              ----- -----
  +--> memcpy?_/memcpy

memcpy?_/memcpy                               ----- -----

system_delay_ms/zf_driver_delay               ----- -----
  +--> delay_cycles/zf_driver_delay

delay_cycles/zf_driver_delay                  ----- -----

timer_funciton_check/zf_driver_timer          ----- -----

gpio_init/zf_driver_gpio                      ----- -----
  +--> debug_assert_handler/zf_common_debug
  +--> gpio_set_dir/zf_driver_gpio
  +--> gpio_set_mode/zf_driver_gpio
  +--> gpio_set_impedance/zf_driver_gpio
  +--> gpio_set_level/zf_driver_gpio

gpio_set_dir/zf_driver_gpio                   ----- -----
  +--> debug_assert_handler/zf_common_debug

gpio_set_mode/zf_driver_gpio                  ----- -----

gpio_set_impedance/zf_driver_gpio             ----- -----

gpio_set_level/zf_driver_gpio                 ----- -----

uart_dma_init/zf_driver_uart                  ----- -----

fifo_init/zf_common_fifo                      ----- -----
  +--> debug_assert_handler/zf_common_debug

uart_rx_interrupt/zf_driver_uart              ----- -----

debug_interrupr_handler/zf_common_debug       ----- -----
  +--> uart_query_byte/zf_driver_uart
  +--> fifo_write_buffer/zf_common_fifo

uart_query_byte/zf_driver_uart                ----- -----
  +--> uart_rx_start_buff/zf_driver_uart

uart_rx_start_buff/zf_driver_uart             ----- -----

fifo_write_buffer/zf_common_fifo              ----- -----
  +--> debug_assert_handler/zf_common_debug
  +--> memcpy?_/memcpy
  +--> fifo_head_offset/zf_common_fifo

fifo_head_offset/zf_common_fifo               ----- -----

ips114_init/zf_device_ips114                  ----- -----
  +--> debug_assert_handler/zf_common_debug
  +--> spi_init/zf_driver_spi
  +--> ips114_set_dir/zf_device_ips114
  +--> ips114_set_color/zf_device_ips114
  +--> system_delay_ms/zf_driver_delay
  +--> ips114_write_index/zf_device_ips114
  +--> spi_write_8bit/zf_driver_spi
  +--> ips114_clear/zf_device_ips114

spi_init/zf_driver_spi                        ----- -----
  +--> debug_assert_handler/zf_common_debug
  +--> gpio_init/zf_driver_gpio
L251 LINKER/LOCATER V4.66.93.0                                                        03/29/2026  20:20:13  PAGE 21


  +--> gpio_set_level_speed/zf_driver_gpio
  +--> ?C?ULIDIV/?C?ULDIV
  +--> uart_funciton_check/zf_driver_uart

gpio_set_level_speed/zf_driver_gpio           ----- -----

ips114_set_dir/zf_device_ips114               ----- -----

ips114_set_color/zf_device_ips114             ----- -----

ips114_write_index/zf_device_ips114           ----- -----
  +--> spi_write_8bit/zf_driver_spi

spi_write_8bit/zf_driver_spi                  ----- -----
  +--> spi_write_dat/zf_driver_spi

spi_write_dat/zf_driver_spi                   ----- -----
  +--> debug_assert_handler/zf_common_debug

ips114_clear/zf_device_ips114                 ----- -----
  +--> ips114_set_region/zf_device_ips114
  +--> spi_write_16bit/zf_driver_spi

ips114_set_region/zf_device_ips114            ----- -----
  +--> debug_assert_handler/zf_common_debug
  +--> ips114_write_index/zf_device_ips114
  +--> spi_write_16bit/zf_driver_spi

spi_write_16bit/zf_driver_spi                 ----- -----
  +--> spi_write_dat/zf_driver_spi

wireless_uart_init/zf_device_wireless_ua+     ----- -----
... rt
  +--> wireless_uart_callback/zf_device_wireless_uart
  +--> set_wireless_type/zf_device_type
  +--> fifo_init/zf_common_fifo
  +--> gpio_init/zf_driver_gpio
  +--> uart_init/zf_driver_uart
  +--> uart_rx_interrupt/zf_driver_uart

wireless_uart_callback/zf_device_wireles+     ----- -----
... s_uart
  +--> fifo_write_buffer/zf_common_fifo

set_wireless_type/zf_device_type              ----- -----

Parameter_Debug_Init/menu                     ----- -----
  +--> wireless_uart_read_buffer/zf_device_wireless_uart
  +--> seekfree_assistant_init/seekfree_assistant

wireless_uart_read_buffer/zf_device_wire+     ----- -----
... less_uart
  +--> debug_assert_handler/zf_common_debug
  +--> fifo_read_buffer/zf_common_fifo

fifo_read_buffer/zf_common_fifo               ----- -----
  +--> debug_assert_handler/zf_common_debug
  +--> fifo_used/zf_common_fifo
  +--> memcpy?_/memcpy
  +--> fifo_end_offset/zf_common_fifo

fifo_used/zf_common_fifo                      ----- -----
  +--> debug_assert_handler/zf_common_debug

fifo_end_offset/zf_common_fifo                ----- -----
L251 LINKER/LOCATER V4.66.93.0                                                        03/29/2026  20:20:13  PAGE 22



seekfree_assistant_init/seekfree_assista+     ----- -----
... nt
  +--> fifo_init/zf_common_fifo

Parameter_Debug/menu                          ----- -----
  +--> seekfree_assistant_data_analysis/seekfree_assistant
  +--> SPRINTF/SPRINTF
  +--> strlen?_/STRLEN
  +--> wireless_uart_send_buffer/zf_device_wireless_uart

seekfree_assistant_data_analysis/seekfre+     ----- -----
... e_assistant
  +--> fifo_write_buffer/zf_common_fifo
  +--> fifo_read_buffer/zf_common_fifo
  +--> seekfree_assistant_sum/seekfree_assistant
  +--> fifo_used/zf_common_fifo

seekfree_assistant_sum/seekfree_assistan+     ----- -----
... t

SPRINTF/SPRINTF                               119DH 11C4H
  +--> OUT/SPRINTF

OUT/SPRINTF                                   ----- -----
  +--> PUTCH/SPRINTF

PUTCH/SPRINTF                                 ----- -----

strlen?_/STRLEN                               ----- -----

wireless_uart_send_buffer/zf_device_wire+     ----- -----
... less_uart
  +--> debug_assert_handler/zf_common_debug
  +--> gpio_get_level/zf_driver_gpio
  +--> uart_write_buffer/zf_driver_uart
  +--> system_delay_ms/zf_driver_delay

gpio_get_level/zf_driver_gpio                 ----- -----

ips114_show_float/zf_device_ips114            ----- -----
  +--> debug_assert_handler/zf_common_debug
  +--> zf_sprintf/zf_common_function
  +--> ips114_show_string/zf_device_ips114

zf_sprintf/zf_common_function                 ----- -----
  +--> number_conversion_ascii/zf_common_function
  +--> printf_reverse_order/zf_common_function
  +--> memcpy?_/memcpy

number_conversion_ascii/zf_common_functi+     ----- -----
... on
  +--> ?C?SLDIV/?C?SLDIV
  +--> ?C?ULIDIV/?C?ULDIV

printf_reverse_order/zf_common_function       ----- -----

ips114_show_string/zf_device_ips114           ----- -----
  +--> debug_assert_handler/zf_common_debug
  +--> ips114_show_char/zf_device_ips114

ips114_show_char/zf_device_ips114             ----- -----
  +--> debug_assert_handler/zf_common_debug
  +--> ips114_set_region/zf_device_ips114
  +--> spi_write_16bit/zf_driver_spi
L251 LINKER/LOCATER V4.66.93.0                                                        03/29/2026  20:20:13  PAGE 23



*** NEW ROOT ********************************

INT0_IRQHandler/isr                           ----- -----

*** NEW ROOT ********************************

INT1_IRQHandler/isr                           ----- -----

*** NEW ROOT ********************************

INT2_IRQHandler/isr                           ----- -----

*** NEW ROOT ********************************

INT3_IRQHandler/isr                           ----- -----

*** NEW ROOT ********************************

INT4_IRQHandler/isr                           ----- -----

*** NEW ROOT ********************************

DMA_UART1_IRQHandler/isr                      ----- -----
  +--> uart_rx_start_buff/zf_driver_uart

*** NEW ROOT ********************************

DMA_UART2_IRQHandler/isr                      ----- -----
  +--> uart_rx_start_buff/zf_driver_uart

*** NEW ROOT ********************************

DMA_UART3_IRQHandler/isr                      ----- -----
  +--> uart_rx_start_buff/zf_driver_uart

*** NEW ROOT ********************************

DMA_UART4_IRQHandler/isr                      ----- -----
  +--> uart_rx_start_buff/zf_driver_uart

*** NEW ROOT ********************************

TM0_IRQHandler/isr                            ----- -----

*** NEW ROOT ********************************

TM1_IRQHandler/isr                            ----- -----

*** NEW ROOT ********************************

TM2_IRQHandler/isr                            ----- -----

*** NEW ROOT ********************************

TM3_IRQHandler/isr                            ----- -----

*** NEW ROOT ********************************

TM4_IRQHandler/isr                            ----- -----

*** NEW ROOT ********************************

?C_C51STARTUP?2                               ----- -----

L251 LINKER/LOCATER V4.66.93.0                                                        03/29/2026  20:20:13  PAGE 24




PUBLIC SYMBOLS OF MODULE:  .\out_file\SEEKFREE (?C_START)


      VALUE       CLASS    TYPE      PUBLIC SYMBOL NAME
      =================================================
      00FF304AH   CODE     ---       ?C?BMOVEPP
      00FF3048H   CODE     ---       ?C?BMOVEPP8
      00FF243EH   CODE     NEAR LAB  ?C?CASTF
      000000FFH   NUMBER   ---       ?C?CODESEG
      00FF240BH   CODE     NEAR LAB  ?C?FCASTC
      00FF2406H   CODE     NEAR LAB  ?C?FCASTI
      00FF2401H   CODE     NEAR LAB  ?C?FCASTL
      00FF2C4BH   CODE     ---       ?C?FP2SERIES
      00FF21D4H   CODE     ---       ?C?FPADD
      00FF23AFH   CODE     ---       ?C?FPCMP
      00FF23ADH   CODE     ---       ?C?FPCMP3
      00FF2E13H   CODE     ---       ?C?FPCONVERT
      00FF232CH   CODE     ---       ?C?FPDIV
      00FF27A1H   CODE     ---       ?C?FPGETOPN2
      00FF228CH   CODE     ---       ?C?FPMUL
      00FF27DEH   CODE     ---       ?C?FPNANRESULT
      00FF23F3H   CODE     ---       ?C?FPNEG
      00FF27E6H   CODE     ---       ?C?FPOVERFLOW
      00FF27BAH   CODE     ---       ?C?FPRESULT
      00FF27D0H   CODE     ---       ?C?FPRESULT2
      00FF2ECBH   CODE     ---       ?C?FPROUND
      00FF2C54H   CODE     ---       ?C?FPSERIES
      00FF21D1H   CODE     ---       ?C?FPSUB
      00FF27E3H   CODE     ---       ?C?FPUNDERFLOW
      00FF2F3EH   CODE     ---       ?C?FTNPWR
      00FF8CD6H   CODE     ---       ?C?INITHDATA
      00FF973AH   HCONST   WORD      ?C?INITHDATA_END
      00FF2FB8H   CODE     ---       ?C?LIMUL
      00FF2FA7H   CODE     ---       ?C?LMUL
      00FF283CH   CODE     ---       ?C?PRNFMT
      00FF2F75H   CODE     ---       ?C?SIDIV
      00FF3014H   CODE     NEAR LAB  ?C?SLDIV
      00FF0000H   CODE     ---       ?C?STARTUP
      00FF2FC3H   CODE     NEAR LAB  ?C?ULDIV
      00FF2FC1H   CODE     NEAR LAB  ?C?ULIDIV
      00000001H   NUMBER   ---       ?C?XDATASEG
      00FF0000H   CODE     ---       ?C_STARTUP
      00011AE5H   XDATA    BYTE      ?eeprom_read?BYTE
      00011741H   XDATA    BYTE      ?fifo_init?BYTE
      0001140DH   XDATA    BYTE      ?fifo_read_buffer?BYTE
      00011596H   XDATA    BYTE      ?fifo_write_buffer?BYTE
      00011322H   XDATA    BYTE      ?get_two_points_azimuth?BYTE
      00010F83H   XDATA    BYTE      ?get_two_points_distance?BYTE
      00011AA9H   XDATA    BYTE      ?iap_read_buff?BYTE
      00011AB3H   XDATA    BYTE      ?iap_write_buff?BYTE
      000113C2H   XDATA    BYTE      ?ips114_show_chinese?BYTE
      00010FB3H   XDATA    BYTE      ?ips114_show_float?BYTE
      0001120CH   XDATA    BYTE      ?ips114_show_wave?BYTE
      000113DBH   XDATA    BYTE      ?ips200_show_chinese?BYTE
      00010FE3H   XDATA    BYTE      ?ips200_show_float?BYTE
      0001122CH   XDATA    BYTE      ?ips200_show_wave?BYTE
      0001135AH   XDATA    BYTE      ?ips200pro_create_widgets?BYTE
      00011175H   XDATA    BYTE      ?ips200pro_image_display?BYTE
      0001138FH   XDATA    BYTE      ?ips200pro_image_draw_line?BYTE
      000111EAH   XDATA    BYTE      ?ips200pro_image_draw_rectangle?BYTE
      00010F34H   XDATA    BYTE      ?ips200pro_label_printf?BYTE
      0001187AH   XDATA    BYTE      ?ips200pro_receive_buffer?BYTE
      000117CDH   XDATA    BYTE      ?ips200pro_send_buffer?BYTE
L251 LINKER/LOCATER V4.66.93.0                                                        03/29/2026  20:20:13  PAGE 25


      00010EAEH   XDATA    BYTE      ?ips200pro_table_cell_printf?BYTE
      00011375H   XDATA    BYTE      ?ips200pro_waveform_add_value?BYTE
      0001128BH   XDATA    BYTE      ?ips200pro_write_packet?BYTE
      00011A2FH   XDATA    BYTE      ?KalmanCreate?BYTE
      000118AEH   XDATA    BYTE      ?Parameter_Debug?BYTE
      00011A3BH   XDATA    BYTE      ?PID_Calc?BYTE
      00011455H   XDATA    BYTE      ?PID_Init?BYTE
      000111C5H   XDATA    ---       ?printf?BYTE
      000115A8H   XDATA    BYTE      ?pwm_init?BYTE
      000114BFH   XDATA    BYTE      ?pwm_set_freq?BYTE
      000112AAH   XDATA    BYTE      ?seekfree_assistant_camera_boundary_config?BYTE
      00011732H   XDATA    BYTE      ?seekfree_assistant_camera_data_send?BYTE
      00011B17H   XDATA    BYTE      ?seekfree_assistant_camera_information_config?BYTE
      0001182CH   XDATA    BYTE      ?soft_iic_init?BYTE
      000118DFH   XDATA    BYTE      ?soft_iic_read_16bit_array?BYTE
      00011779H   XDATA    BYTE      ?soft_iic_read_16bit_registers?BYTE
      000118D3H   XDATA    BYTE      ?soft_iic_read_8bit_array?BYTE
      0001181FH   XDATA    BYTE      ?soft_iic_read_8bit_registers?BYTE
      000114E7H   XDATA    BYTE      ?soft_iic_transfer_16bit_array?BYTE
      000114D3H   XDATA    BYTE      ?soft_iic_transfer_8bit_array?BYTE
      000118C7H   XDATA    BYTE      ?soft_iic_write_16bit_array?BYTE
      0001176BH   XDATA    BYTE      ?soft_iic_write_16bit_registers?BYTE
      000118BBH   XDATA    BYTE      ?soft_iic_write_8bit_array?BYTE
      00011812H   XDATA    BYTE      ?soft_iic_write_8bit_registers?BYTE
      0001146DH   XDATA    BYTE      ?soft_spi_init?BYTE
      0001190FH   XDATA    BYTE      ?soft_spi_read_16bit_array?BYTE
      00011795H   XDATA    BYTE      ?soft_spi_read_16bit_registers?BYTE
      00011903H   XDATA    BYTE      ?soft_spi_read_8bit_array?BYTE
      00011846H   XDATA    BYTE      ?soft_spi_read_8bit_registers?BYTE
      00011698H   XDATA    BYTE      ?soft_spi_transfer_16bit?BYTE
      00011688H   XDATA    BYTE      ?soft_spi_transfer_8bit?BYTE
      000118F7H   XDATA    BYTE      ?soft_spi_write_16bit_array?BYTE
      00011787H   XDATA    BYTE      ?soft_spi_write_16bit_registers?BYTE
      000118EBH   XDATA    BYTE      ?soft_spi_write_8bit_array?BYTE
      00011839H   XDATA    BYTE      ?soft_spi_write_8bit_registers?BYTE
      000114FBH   XDATA    BYTE      ?spi_init?BYTE
      00011ADBH   XDATA    BYTE      ?spi_read_16bit_array?BYTE
      00011927H   XDATA    BYTE      ?spi_read_16bit_registers?BYTE
      00011AD1H   XDATA    BYTE      ?spi_read_8bit_array?BYTE
      00011A73H   XDATA    BYTE      ?spi_read_8bit_registers?BYTE
      000117B1H   XDATA    BYTE      ?spi_transfer_16bit?BYTE
      000117A3H   XDATA    BYTE      ?spi_transfer_8bit?BYTE
      00011AC7H   XDATA    BYTE      ?spi_write_16bit_array?BYTE
      0001191BH   XDATA    BYTE      ?spi_write_16bit_registers?BYTE
      00011ABDH   XDATA    BYTE      ?spi_write_8bit_array?BYTE
      00011A68H   XDATA    BYTE      ?spi_write_8bit_registers?BYTE
      000111C5H   XDATA    ---       ?sprintf?BYTE
      00011013H   XDATA    BYTE      ?tft180_show_float?BYTE
      0001124CH   XDATA    BYTE      ?tft180_show_wave?BYTE
      0001194BH   XDATA    BYTE      ?uart_init?BYTE
      00010D50H   XDATA    BYTE      ?vsnprintf?BYTE
      00010C12H   XDATA    BYTE      ?zf_sprintf?BYTE
      00FF27F2H   CODE     ---       _chkfloat_?_
      00FF8439H   CODE     ---       _m
*DEL*:00000000H   CODE     ---       ABS
*SFR* 000000D0H.6 DATA     BIT       AC
*SFR* 000000E0H   DATA     BYTE      ACC
      00011A48H   XDATA    ---       adc_average
*DEL*:00000000H   CODE     ---       ADC_Collect
*SFR* 000000BCH   DATA     BYTE      ADC_CONTR
*DEL*:00000000H   CODE     ---       adc_convert
*DEL*:00000000H   CODE     ---       adc_init
*DEL*:00000000H   CODE     ---       adc_mean_filter_convert
*DEL*:00000000H   CODE     ---       ADC_Normalize_0_100
*SFR* 000000BDH   DATA     BYTE      ADC_RES
L251 LINKER/LOCATER V4.66.93.0                                                        03/29/2026  20:20:13  PAGE 26


*SFR* 000000BEH   DATA     BYTE      ADC_RESL
*SFR* 000000DEH   DATA     BYTE      ADCCFG
*DEL*:00000000H   CODE     ---       ALL_init
      00FF3990H   CODE     ---       ascii_font_8x16
      00FF2781H   CODE     ---       asin?_
      00FF26AFH   CODE     ---       atan?_
*SFR* 000000EFH   DATA     BYTE      AUXINTIF
*SFR* 0000008EH   DATA     BYTE      AUXR
*SFR* 00000097H   DATA     BYTE      AUXR2
*SFR* 000000F0H   DATA     BYTE      B
*DEL*:00000000H   CODE     ---       ble6a20_callback
*DEL*:00000000H   CODE     ---       ble6a20_init
*DEL*:00000000H   CODE     ---       ble6a20_read_buffer
*DEL*:00000000H   CODE     ---       ble6a20_send_buffer
*DEL*:00000000H   CODE     ---       ble6a20_send_byte
*DEL*:00000000H   CODE     ---       ble6a20_send_string
*SFR* 000000C8H.1 DATA     BIT       C_T2
*SFR* 000000F1H   DATA     BYTE      CANICR
*SFR* 000000FAH   DATA     BYTE      CCAP0H
*SFR* 000000EAH   DATA     BYTE      CCAP0L
*SFR* 000000FBH   DATA     BYTE      CCAP1H
*SFR* 000000EBH   DATA     BYTE      CCAP1L
*SFR* 000000FCH   DATA     BYTE      CCAP2H
*SFR* 000000ECH   DATA     BYTE      CCAP2L
*SFR* 000000FDH   DATA     BYTE      CCAP3H
*SFR* 000000EDH   DATA     BYTE      CCAP3L
*SFR* 000000FEH   DATA     BYTE      CCAP4H
*SFR* 000000EEH   DATA     BYTE      CCAP4L
*SFR* 000000DAH   DATA     BYTE      CCAPM0
*SFR* 000000DBH   DATA     BYTE      CCAPM1
*SFR* 000000DCH   DATA     BYTE      CCAPM2
*SFR* 000000DDH   DATA     BYTE      CCAPM3
*SFR* 000000DEH   DATA     BYTE      CCAPM4
*SFR* 000000D8H.0 DATA     BIT       CCF0
*SFR* 000000D8H.1 DATA     BIT       CCF1
*SFR* 000000D8H.2 DATA     BIT       CCF2
*SFR* 000000D8H.3 DATA     BIT       CCF3
*SFR* 000000D8H.4 DATA     BIT       CCF4
*SFR* 000000D8H   DATA     BYTE      CCON
*SFR* 00000090H.3 DATA     BIT       CEX0
*SFR* 00000090H.4 DATA     BIT       CEX1
*SFR* 00000090H.5 DATA     BIT       CEX2
*SFR* 00000090H.6 DATA     BIT       CEX3
*SFR* 00000090H.7 DATA     BIT       CEX4
*SFR* 000000D8H.7 DATA     BIT       CF
*SFR* 000000F9H   DATA     BYTE      CH
*SFR* 000000EAH   DATA     BYTE      CKCON
*SFR* 000000E9H   DATA     BYTE      CL
      00FF8783H   CODE     ---       clock_init
*SFR* 000000D9H   DATA     BYTE      CMOD
*SFR* 000000E6H   DATA     BYTE      CMPCR1
*SFR* 000000E7H   DATA     BYTE      CMPCR2
      00FF259FH   CODE     ---       cos?_
*SFR* 000000C8H.0 DATA     BIT       CP_RL2
*SFR* 000000D8H.6 DATA     BIT       CR
*SFR* 000000D0H.7 DATA     BIT       CY
      00010A22H   XDATA    ---       data_buffer
      000107F6H   XDATA    FLOAT     Daty_X
      000107FAH   XDATA    FLOAT     Daty_Y
      000107FEH   XDATA    FLOAT     Daty_Z
      00FF8987H   CODE     ---       debug_assert_handler
      00FF806DH   CODE     ---       debug_init
      00FF8FDDH   CODE     ---       debug_interrupr_handler
*DEL*:00000000H   CODE     ---       debug_read_buffer
*DEL*:00000000H   CODE     ---       debug_send_buffer
L251 LINKER/LOCATER V4.66.93.0                                                        03/29/2026  20:20:13  PAGE 27


      00010C49H   XDATA    ---       debug_uart_buffer
      00010C8AH   XDATA    ---       debug_uart_fifo
      0001185CH   XDATA    WORD      dl1a_distance_mm
      0001185EH   XDATA    BYTE      dl1a_finsh_flag
*DEL*:00000000H   CODE     ---       dl1a_get_distance
*DEL*:00000000H   CODE     ---       dl1a_init
*DEL*:00000000H   CODE     ---       dl1a_int_handler
      00011869H   XDATA    WORD      dl1b_distance_mm
      0001186BH   XDATA    BYTE      dl1b_finsh_flag
*DEL*:00000000H   CODE     ---       dl1b_get_distance
*DEL*:00000000H   CODE     ---       dl1b_init
*DEL*:00000000H   CODE     ---       dl1b_int_handler
      00FF7FBDH   CODE     ---       DMA_UART1_IRQHandler
      00FF84CDH   CODE     ---       DMA_UART2_IRQHandler
      00FF855CH   CODE     ---       DMA_UART3_IRQHandler
      00FF85EBH   CODE     ---       DMA_UART4_IRQHandler
*SFR* 00000083H   DATA     BYTE      DPH
*SFR* 00000082H   DATA     BYTE      DPL
*SFR* 00000084H   DATA     BYTE      DPXL
*DEL*:00000000H   CODE     ---       Dual_Loop_Control
*SFR* 000000A8H.7 DATA     BIT       EA
*SFR* 000000BAH.7 DATA     BIT       EAXFR
*SFR* 000000A8H.6 DATA     BIT       EC
*SFR* 00000090H.2 DATA     BIT       ECI
*DEL*:00000000H   CODE     ---       eeprom_init
*DEL*:00000000H   CODE     ---       eeprom_read
*DEL*:00000000H   CODE     ---       eeprom_read_value
*DEL*:00000000H   CODE     ---       eeprom_trig
*DEL*:00000000H   CODE     ---       eeprom_write_value
*DEL*:00000000H   CODE     ---       encoder_clear_count
*DEL*:00000000H   CODE     ---       encoder_dir_init
*DEL*:00000000H   CODE     ---       encoder_get_count
*DEL*:00000000H   CODE     ---       encoder_init
*SFR* 000000A8H.4 DATA     BIT       ES
*SFR* 000000A8H.1 DATA     BIT       ET0
*SFR* 000000A8H.3 DATA     BIT       ET1
*SFR* 000000A8H.5 DATA     BIT       ET2
*SFR* 000000A8H.0 DATA     BIT       EX0
*SFR* 000000A8H.2 DATA     BIT       EX1
*SFR* 0000008FH.4 DATA     BIT       EX2
*SFR* 0000008FH.5 DATA     BIT       EX3
*SFR* 0000008FH.6 DATA     BIT       EX4
*SFR* 000000C8H.3 DATA     BIT       EXEN2
*SFR* 000000C8H.6 DATA     BIT       EXF2
      00FF2CB1H   CODE     ---       exp?_
*DEL*:00000000H   CODE     ---       extern_iap_write_buff
*DEL*:00000000H   CODE     ---       exti_all_close
*DEL*:00000000H   CODE     ---       exti_disable
*DEL*:00000000H   CODE     ---       exti_enable
*DEL*:00000000H   CODE     ---       exti_init
*SFR* 000000D0H.5 DATA     BIT       F0
*DEL*:00000000H   CODE     ---       fast_sqrt
*SFR* 00000098H.7 DATA     BIT       FE
*DEL*:00000000H   CODE     ---       fifo_clear
      00FF7AD7H   CODE     ---       fifo_init
      00FF3F80H   CODE     ---       fifo_read_buffer
      00FF8C04H   CODE     ---       fifo_used
      00FF4531H   CODE     ---       fifo_write_buffer
      000107CAH   XDATA    ---       first_complement
*DEL*:00000000H   CODE     ---       First_complement_Init
*DEL*:00000000H   CODE     ---       func_double_to_str
*DEL*:00000000H   CODE     ---       func_float_to_str
*DEL*:00000000H   CODE     ---       func_get_greatest_common_divisor
*DEL*:00000000H   CODE     ---       func_hex_to_str
*DEL*:00000000H   CODE     ---       func_int_to_str
L251 LINKER/LOCATER V4.66.93.0                                                        03/29/2026  20:20:13  PAGE 28


*DEL*:00000000H   CODE     ---       func_soft_delay
*DEL*:00000000H   CODE     ---       func_str_to_double
*DEL*:00000000H   CODE     ---       func_str_to_float
*DEL*:00000000H   CODE     ---       func_str_to_hex
*DEL*:00000000H   CODE     ---       func_str_to_int
*DEL*:00000000H   CODE     ---       func_str_to_uint
*DEL*:00000000H   CODE     ---       func_uint_to_str
*DEL*:00000000H   CODE     ---       get_two_points_azimuth
*DEL*:00000000H   CODE     ---       get_two_points_distance
      00FF741BH   CODE     ---       gpio_get_level
      00FF78CFH   CODE     ---       gpio_init
      00FF6DC2H   CODE     ---       gpio_set_impedance
      00FF65DBH   CODE     ---       gpio_set_level
      00FF5536H   CODE     ---       gpio_set_level_speed
*DEL*:00000000H   CODE     ---       gpio_toggle_level
*DEL*:00000000H   CODE     ---       gps_data_parse
      000105D0H   XDATA    INT       gps_gga_state
*DEL*:00000000H   CODE     ---       gps_init
      000105D2H   XDATA    INT       gps_rmc_state
      000104A4H   XDATA    ---       gps_tau1201
      00010423H   XDATA    BYTE      gps_tau1201_flag
      00011CEBH   XDATA    INT       gps_type
*DEL*:00000000H   CODE     ---       gps_uart_callback
      000109A2H   XDATA    ---       gyro_buffer
*DEL*:00000000H   CODE     ---       gyro_init
      00010812H   XDATA    ---       Gyro_Offset
      0001077AH   XDATA    FLOAT     gyro_Offset_flag
*DEL*:00000000H   CODE     ---       gyro_proc
      000107BEH   XDATA    FLOAT     gyrox
      000107C2H   XDATA    FLOAT     gyroy
      000107C6H   XDATA    FLOAT     gyroz
*SFR* 000000F6H   DATA     BYTE      IAP_ADDRE
*SFR* 000000C3H   DATA     BYTE      IAP_ADDRH
*SFR* 000000C4H   DATA     BYTE      IAP_ADDRL
*SFR* 000000C5H   DATA     BYTE      IAP_CMD
*SFR* 000000C7H   DATA     BYTE      IAP_CONTR
*SFR* 000000C2H   DATA     BYTE      IAP_DATA
*DEL*:00000000H   CODE     ---       iap_erase_page
*DEL*:00000000H   CODE     ---       iap_get_cmd_state
*DEL*:00000000H   CODE     ---       iap_idle
*DEL*:00000000H   CODE     ---       iap_init
*DEL*:00000000H   CODE     ---       iap_read_buff
*DEL*:00000000H   CODE     ---       iap_read_byte
*DEL*:00000000H   CODE     ---       iap_set_tps
*SFR* 000000F5H   DATA     BYTE      IAP_TPS
*SFR* 000000C6H   DATA     BYTE      IAP_TRIG
*DEL*:00000000H   CODE     ---       iap_write_buff
*DEL*:00000000H   CODE     ---       iap_write_byte
      0001150FH   XDATA    INT       icm20602_acc_x
      00011511H   XDATA    INT       icm20602_acc_y
      00011513H   XDATA    INT       icm20602_acc_z
*DEL*:00000000H   CODE     ---       icm20602_get_acc
*DEL*:00000000H   CODE     ---       icm20602_get_gyro
      00011515H   XDATA    INT       icm20602_gyro_x
      00011517H   XDATA    INT       icm20602_gyro_y
      00011519H   XDATA    INT       icm20602_gyro_z
*DEL*:00000000H   CODE     ---       icm20602_init
      0001151BH   XDATA    ---       icm20602_transition_factor
*SFR* 000000A8H   DATA     BYTE      IE
*SFR* 000000A8H   DATA     BYTE      IE0
*SFR* 00000088H.1 DATA     BIT       IE0_
*SFR* 000000B1H   DATA     BYTE      IE1
*SFR* 00000088H.3 DATA     BIT       IE1_
*SFR* 000000AFH   DATA     BYTE      IE2
      00011523H   XDATA    INT       imu660ra_acc_x
L251 LINKER/LOCATER V4.66.93.0                                                        03/29/2026  20:20:13  PAGE 29


      00011525H   XDATA    INT       imu660ra_acc_y
      00011527H   XDATA    INT       imu660ra_acc_z
      00FF01CEH   CODE     ---       imu660ra_config_file
*DEL*:00000000H   CODE     ---       imu660ra_get_acc
*DEL*:00000000H   CODE     ---       imu660ra_get_gyro
      00011529H   XDATA    INT       imu660ra_gyro_x
      0001152BH   XDATA    INT       imu660ra_gyro_y
      0001152DH   XDATA    INT       imu660ra_gyro_z
*DEL*:00000000H   CODE     ---       imu660ra_init
      0001152FH   XDATA    ---       imu660ra_transition_factor
*DEL*:00000000H   CODE     ---       imu660rb_acc_transition
      0001199FH   XDATA    INT       imu660rb_acc_x
      000119A1H   XDATA    INT       imu660rb_acc_y
      000119A3H   XDATA    INT       imu660rb_acc_z
*DEL*:00000000H   CODE     ---       imu660rb_get_acc
*DEL*:00000000H   CODE     ---       imu660rb_get_gyro
*DEL*:00000000H   CODE     ---       imu660rb_gyro_transition
      000119A5H   XDATA    INT       imu660rb_gyro_x
      000119A7H   XDATA    INT       imu660rb_gyro_y
      000119A9H   XDATA    INT       imu660rb_gyro_z
*DEL*:00000000H   CODE     ---       imu660rb_init
      000112E7H   XDATA    INT       imu963ra_acc_x
      000112E9H   XDATA    INT       imu963ra_acc_y
      000112EBH   XDATA    INT       imu963ra_acc_z
*DEL*:00000000H   CODE     ---       imu963ra_get_acc
*DEL*:00000000H   CODE     ---       imu963ra_get_gyro
*DEL*:00000000H   CODE     ---       imu963ra_get_mag
      000112F3H   XDATA    INT       imu963ra_gyro_x
      000112F5H   XDATA    INT       imu963ra_gyro_y
      000112F7H   XDATA    INT       imu963ra_gyro_z
*DEL*:00000000H   CODE     ---       imu963ra_init
      000112EDH   XDATA    INT       imu963ra_mag_x
      000112EFH   XDATA    INT       imu963ra_mag_y
      000112F1H   XDATA    INT       imu963ra_mag_z
      000112F9H   XDATA    ---       imu963ra_transition_factor
      000107DEH   XDATA    ---       IMU_Data
*DEL*:00000000H   CODE     ---       IMU_GetValues
*DEL*:00000000H   CODE     ---       IMU_gyro_Offset_Init
*DEL*:00000000H   CODE     ---       IMU_Handle_0
*DEL*:00000000H   CODE     ---       IMU_Handle_180
*DEL*:00000000H   CODE     ---       IMU_Handle_360
*DEL*:00000000H   CODE     ---       IMU_YAW_integral
*DEL*:00000000H   CODE     ---       Inductance_Count_Err
*DEL*:00000000H   CODE     ---       Inductance_Init
*DEL*:00000000H   CODE     ---       Inductance_Read
      00011F46H   XDATA    ---       init_buff
*SFR* 000000B0H.2 DATA     BIT       INT0
      000112D5H   XDATA    ---       int0_irq_handler
      00FF8D5DH   CODE     ---       INT0_IRQHandler
*SFR* 000000B0H.3 DATA     BIT       INT1
      000112D9H   XDATA    ---       int1_irq_handler
      00FF8D9DH   CODE     ---       INT1_IRQHandler
      000112DDH   XDATA    ---       int2_irq_handler
      00FF8DDDH   CODE     ---       INT2_IRQHandler
      000112E1H   XDATA    ---       int3_irq_handler
      00FF8E1DH   CODE     ---       INT3_IRQHandler
      000112E5H   XDATA    ---       int4_irq_handler
      00FF8E5DH   CODE     ---       INT4_IRQHandler
*SFR* 0000008FH   DATA     BYTE      INTCLKO
*DEL*:00000000H   CODE     ---       interrupt_global_disable
      00FF0006H   CODE     ---       interrupt_global_enable
*DEL*:00000000H   CODE     ---       interrupt_set_priority
*SFR* 000000B8H   DATA     BYTE      IP
*SFR* 000000B5H   DATA     BYTE      IP2
*SFR* 000000B6H   DATA     BYTE      IP2H
L251 LINKER/LOCATER V4.66.93.0                                                        03/29/2026  20:20:13  PAGE 30


*SFR* 000000DFH   DATA     BYTE      IP3
*SFR* 000000EEH   DATA     BYTE      IP3H
*SFR* 000000B7H   DATA     BYTE      IPH
*SFR* 000000B7H   DATA     BYTE      IPH0
*SFR* 000000B8H   DATA     BYTE      IPL0
      00011C9FH   XDATA    WORD      ips114_bgcolor
      00FF867AH   CODE     ---       ips114_clear
      00011CA1H   XDATA    INT       ips114_display_dir
*DEL*:00000000H   CODE     ---       ips114_draw_point
      00FF5E22H   CODE     ---       ips114_init
      00011C9DH   XDATA    WORD      ips114_pencolor
      00FF9170H   CODE     ---       ips114_set_color
      00FF9090H   CODE     ---       ips114_set_dir
      00FF76A3H   CODE     ---       ips114_show_char
*DEL*:00000000H   CODE     ---       ips114_show_chinese
      00FF6A01H   CODE     ---       ips114_show_float
*DEL*:00000000H   CODE     ---       ips114_show_int16
*DEL*:00000000H   CODE     ---       ips114_show_int32
*DEL*:00000000H   CODE     ---       ips114_show_int8
      00FF7D78H   CODE     ---       ips114_show_string
*DEL*:00000000H   CODE     ---       ips114_show_uint16
*DEL*:00000000H   CODE     ---       ips114_show_uint8
*DEL*:00000000H   CODE     ---       ips114_show_wave
      00011CA3H   XDATA    BYTE      ips114_x_max
      00011CA4H   XDATA    BYTE      ips114_y_max
      00011AFBH   XDATA    WORD      ips200_bgcolor
*DEL*:00000000H   CODE     ---       ips200_clear
      00011AFDH   XDATA    INT       ips200_display_dir
*DEL*:00000000H   CODE     ---       ips200_draw_point
*DEL*:00000000H   CODE     ---       ips200_init
      00011AF9H   XDATA    WORD      ips200_pencolor
*DEL*:00000000H   CODE     ---       ips200_set_color
*DEL*:00000000H   CODE     ---       ips200_set_dir
*DEL*:00000000H   CODE     ---       ips200_show_char
*DEL*:00000000H   CODE     ---       ips200_show_chinese
*DEL*:00000000H   CODE     ---       ips200_show_float
*DEL*:00000000H   CODE     ---       ips200_show_int16
*DEL*:00000000H   CODE     ---       ips200_show_int32
*DEL*:00000000H   CODE     ---       ips200_show_int8
*DEL*:00000000H   CODE     ---       ips200_show_string
*DEL*:00000000H   CODE     ---       ips200_show_uint16
*DEL*:00000000H   CODE     ---       ips200_show_uint8
*DEL*:00000000H   CODE     ---       ips200_show_wave
      00011AFFH   XDATA    WORD      ips200_x_max
      00011B01H   XDATA    WORD      ips200_y_max
*DEL*:00000000H   CODE     ---       ips200pro_calendar_create
*DEL*:00000000H   CODE     ---       ips200pro_calendar_display
*DEL*:00000000H   CODE     ---       ips200pro_clock_create
*DEL*:00000000H   CODE     ---       ips200pro_container_create
*DEL*:00000000H   CODE     ---       ips200pro_container_radius
*DEL*:00000000H   CODE     ---       ips200pro_create_widgets
*DEL*:00000000H   CODE     ---       ips200pro_delete_widgets
*DEL*:00000000H   CODE     ---       ips200pro_get_date
*DEL*:00000000H   CODE     ---       ips200pro_get_free_stack_size
*DEL*:00000000H   CODE     ---       ips200pro_get_information
*DEL*:00000000H   CODE     ---       ips200pro_get_time
*DEL*:00000000H   CODE     ---       ips200pro_image_create
*DEL*:00000000H   CODE     ---       ips200pro_image_display
*DEL*:00000000H   CODE     ---       ips200pro_image_draw_line
*DEL*:00000000H   CODE     ---       ips200pro_image_draw_rectangle
      00010DD6H   XDATA    ---       ips200pro_information
*DEL*:00000000H   CODE     ---       ips200pro_init
*DEL*:00000000H   CODE     ---       ips200pro_label_create
*DEL*:00000000H   CODE     ---       ips200pro_label_mode
*DEL*:00000000H   CODE     ---       ips200pro_label_printf
L251 LINKER/LOCATER V4.66.93.0                                                        03/29/2026  20:20:13  PAGE 31


*DEL*:00000000H   CODE     ---       ips200pro_label_show_string
*DEL*:00000000H   CODE     ---       ips200pro_meter_create
*DEL*:00000000H   CODE     ---       ips200pro_meter_set_value
*DEL*:00000000H   CODE     ---       ips200pro_page_create
*DEL*:00000000H   CODE     ---       ips200pro_page_hidden
*DEL*:00000000H   CODE     ---       ips200pro_page_set_title_name
*DEL*:00000000H   CODE     ---       ips200pro_page_set_title_position_width
*DEL*:00000000H   CODE     ---       ips200pro_page_switch
*DEL*:00000000H   CODE     ---       ips200pro_progress_bar_create
*DEL*:00000000H   CODE     ---       ips200pro_progress_bar_set_value
*DEL*:00000000H   CODE     ---       ips200pro_read_parameter
*DEL*:00000000H   CODE     ---       ips200pro_receive_buffer
*DEL*:00000000H   CODE     ---       ips200pro_send_buffer
*DEL*:00000000H   CODE     ---       ips200pro_set_backlight
*DEL*:00000000H   CODE     ---       ips200pro_set_color
*DEL*:00000000H   CODE     ---       ips200pro_set_crc_state
*DEL*:00000000H   CODE     ---       ips200pro_set_date
*DEL*:00000000H   CODE     ---       ips200pro_set_default_font
*DEL*:00000000H   CODE     ---       ips200pro_set_direction
*DEL*:00000000H   CODE     ---       ips200pro_set_font
*DEL*:00000000H   CODE     ---       ips200pro_set_format
*DEL*:00000000H   CODE     ---       ips200pro_set_hidden
*DEL*:00000000H   CODE     ---       ips200pro_set_optimize
*DEL*:00000000H   CODE     ---       ips200pro_set_parent
*DEL*:00000000H   CODE     ---       ips200pro_set_position
*DEL*:00000000H   CODE     ---       ips200pro_set_time
*DEL*:00000000H   CODE     ---       ips200pro_table_cell_printf
*DEL*:00000000H   CODE     ---       ips200pro_table_create
*DEL*:00000000H   CODE     ---       ips200pro_table_select
*DEL*:00000000H   CODE     ---       ips200pro_table_set_col_width
      00010DDFH   XDATA    ---       ips200pro_time
*DEL*:00000000H   CODE     ---       ips200pro_waveform_add_value
*DEL*:00000000H   CODE     ---       ips200pro_waveform_clear
*DEL*:00000000H   CODE     ---       ips200pro_waveform_create
*DEL*:00000000H   CODE     ---       ips200pro_waveform_line_state
*DEL*:00000000H   CODE     ---       ips200pro_waveform_line_type
*DEL*:00000000H   CODE     ---       ips200pro_write_packet
*SFR* 0000009DH   DATA     BYTE      IRCBAND
*SFR* 0000009FH   DATA     BYTE      IRTRIM
*SFR* 00000088H.0 DATA     BIT       IT0
*SFR* 00000088H.2 DATA     BIT       IT1
      00010719H   XDATA    ---       Kalman1
      00010749H   XDATA    ---       Kalman2
*DEL*:00000000H   CODE     ---       KalmanCreate
*DEL*:00000000H   CODE     ---       KalmanFilter
      00010E30H   XDATA    FLOAT     kd
      00010E34H   XDATA    FLOAT     ki
      00010E38H   XDATA    FLOAT     kp
*DEL*:00000000H   CODE     ---       LED_Init
*DEL*:00000000H   CODE     ---       LED_Off
*DEL*:00000000H   CODE     ---       LED_On
*DEL*:00000000H   CODE     ---       LED_Switch
      0001093AH   XDATA    ---       left_spid
*SFR* 000000F9H   DATA     BYTE      LINICR
      00FF2D40H   CODE     NEAR LAB  log?_
      00FF90F9H   CODE     ---       MAIN
*DEL*:00000000H   CODE     ---       main_loop
      00010806H   XDATA    FLOAT     Max_Delta_Pitch
      0001081EH   XDATA    FLOAT     Max_Delta_Roll
*DEL*:00000000H   CODE     ---       Median_Average_Filter
      00FF9195H   CODE     ---       memcpy?_
*DEL*:00000000H   CODE     ---       memset?_
*DEL*:00000000H   CODE     ---       Menu_Display
*DEL*:00000000H   CODE     ---       Menu_Init
*DEL*:00000000H   CODE     ---       Motor_SetSpeed
L251 LINKER/LOCATER V4.66.93.0                                                        03/29/2026  20:20:13  PAGE 32


*DEL*:00000000H   CODE     ---       My_abs
*SFR* 000000D0H.2 DATA     BIT       OV
*SFR* 000000D0H.0 DATA     BIT       P
*SFR* 00000080H   DATA     BYTE      P0
*SFR* 00000094H   DATA     BYTE      P0M0
*SFR* 00000093H   DATA     BYTE      P0M1
*SFR* 00000090H   DATA     BYTE      P1
*SFR* 00000092H   DATA     BYTE      P1M0
*SFR* 00000091H   DATA     BYTE      P1M1
*SFR* 000000A0H   DATA     BYTE      P2
*SFR* 000000A0H.0 DATA     BIT       P20
*SFR* 000000A0H.1 DATA     BIT       P21
*SFR* 000000A0H.2 DATA     BIT       P22
*SFR* 00000096H   DATA     BYTE      P2M0
*SFR* 00000095H   DATA     BYTE      P2M1
*SFR* 000000B0H   DATA     BYTE      P3
*SFR* 000000B2H   DATA     BYTE      P3M0
*SFR* 000000B1H   DATA     BYTE      P3M1
*SFR* 000000C0H   DATA     BYTE      P4
*SFR* 000000C0H.0 DATA     BIT       P40
*SFR* 000000C0H.1 DATA     BIT       P41
*SFR* 000000C0H.2 DATA     BIT       P42
*SFR* 000000C0H.3 DATA     BIT       P43
*SFR* 000000B4H   DATA     BYTE      P4M0
*SFR* 000000B3H   DATA     BYTE      P4M1
*SFR* 000000C8H   DATA     BYTE      P5
*SFR* 000000CAH   DATA     BYTE      P5M0
*SFR* 000000C9H   DATA     BYTE      P5M1
*SFR* 000000E8H   DATA     BYTE      P6
*SFR* 000000CCH   DATA     BYTE      P6M0
*SFR* 000000CBH   DATA     BYTE      P6M1
*SFR* 000000F8H   DATA     BYTE      P7
*SFR* 000000E2H   DATA     BYTE      P7M0
*SFR* 000000E1H   DATA     BYTE      P7M1
*SFR* 000000A2H   DATA     BYTE      P_SW1
*SFR* 000000BAH   DATA     BYTE      P_SW2
*SFR* 000000BBH   DATA     BYTE      P_SW3
      00FF72AEH   CODE     ---       Parameter_Debug
      00FF921AH   CODE     ---       Parameter_Debug_Init
*SFR* 00000087H   DATA     BYTE      PCON
*DEL*:00000000H   CODE     ---       PID_Calc
*DEL*:00000000H   CODE     ---       PID_Init
*DEL*:00000000H   CODE     ---       pit_handler
*DEL*:00000000H   CODE     ---       pit_init
      0001077EH   XDATA    FLOAT     pitch
      00010715H   XDATA    FLOAT     Pitch_Max
      00010711H   XDATA    FLOAT     Pitch_Min
      0001096EH   XDATA    ---       pos_pid
*DEL*:00000000H   CODE     ---       pow?_
*SFR* 000000B8H.6 DATA     BIT       PPC
      00FF247BH   CODE     NEAR LAB  printf
*SFR* 000000B8H.4 DATA     BIT       PS
*SFR* 000000D0H   DATA     BYTE      PSW
*SFR* 000000D1H   DATA     BYTE      PSW1
*SFR* 000000B8H.1 DATA     BIT       PT0
*SFR* 000000B8H.3 DATA     BIT       PT1
*SFR* 000000B8H.5 DATA     BIT       PT2
      00FF0066H   CODE     ---       putchar
      00FF9E22H   HCONST   ---       PWM_ARR_ADDR
      00FF9E2AH   HCONST   ---       PWM_CCER_ADDR
      00FF9E3AH   HCONST   ---       PWM_CCMR_ADDR
      00FF9E02H   HCONST   ---       PWM_CCR_ADDR
*DEL*:00000000H   CODE     ---       pwm_init
      00FF9DFAH   HCONST   ---       PWM_PSCR_ADDR
*DEL*:00000000H   CODE     ---       pwm_set_duty
L251 LINKER/LOCATER V4.66.93.0                                                        03/29/2026  20:20:13  PAGE 33


*DEL*:00000000H   CODE     ---       pwm_set_freq
*SFR* 000000B8H.0 DATA     BIT       PX0
*SFR* 000000B8H.2 DATA     BIT       PX1
*DEL*:00000000H   CODE     ---       range_protect
*SFR* 00000098H.2 DATA     BIT       RB8
*SFR* 000000CBH   DATA     BYTE      RCAP2H
*SFR* 000000CAH   DATA     BYTE      RCAP2L
*SFR* 000000C8H.5 DATA     BIT       RCLK
*SFR* 000000B0H.7 DATA     BIT       RD
      00010904H   XDATA    INT       real_left
      00010902H   XDATA    INT       real_right
*SFR* 00000098H.4 DATA     BIT       REN
*SFR* 00000098H.0 DATA     BIT       RI
      00010906H   XDATA    ---       right_spid
      000107BAH   XDATA    FLOAT     roll
      000107B6H   XDATA    FLOAT     Roll_Max
      00010782H   XDATA    FLOAT     Roll_Min
      00010779H   XDATA    CHAR      Round
*SFR* 000000D0H.3 DATA     BIT       RS0
*SFR* 000000D0H.4 DATA     BIT       RS1
*SFR* 000000FFH   DATA     BYTE      RSTCFG
*SFR* 000000B0H.0 DATA     BIT       RXD
*SFR* 0000009BH   DATA     BYTE      S2BUF
*SFR* 0000009AH   DATA     BYTE      S2CON
*SFR* 0000009AH.1 DATA     BIT       S2TI
*SFR* 000000ACH   DATA     BYTE      S3CON
*SFR* 000000FDH   DATA     BYTE      S4CON
*SFR* 000000A9H   DATA     BYTE      SADDR
*SFR* 000000B9H   DATA     BYTE      SADEN
*SFR* 00000099H   DATA     BYTE      SBUF
*SFR* 00000098H   DATA     BYTE      SCON
*DEL*:00000000H   CODE     ---       seekfree_assistant_camera_boundary_config
*DEL*:00000000H   CODE     ---       seekfree_assistant_camera_data_send
*DEL*:00000000H   CODE     ---       seekfree_assistant_camera_dot_send
*DEL*:00000000H   CODE     ---       seekfree_assistant_camera_information_config
*DEL*:00000000H   CODE     ---       seekfree_assistant_camera_send
      00FF60E4H   CODE     ---       seekfree_assistant_data_analysis
      00FF90CBH   CODE     ---       seekfree_assistant_init
*DEL*:00000000H   CODE     ---       seekfree_assistant_interface_init
      000105DCH   XDATA    ---       seekfree_assistant_oscilloscope_data
*DEL*:00000000H   CODE     ---       seekfree_assistant_oscilloscope_send
      0001061FH   XDATA    ---       seekfree_assistant_parameter
      00010617H   XDATA    ---       seekfree_assistant_parameter_update_flag
      00011EFFH   XDATA    ---       seekfree_assistant_receive_callback
      00011F01H   XDATA    ---       seekfree_assistant_transfer_callback
*DEL*:00000000H   CODE     ---       Send_Data_To_PC
      00010A02H   XDATA    ---       send_str
*DEL*:00000000H   CODE     ---       set_gps_type
      00FF67F0H   CODE     ---       set_sys_clk
*DEL*:00000000H   CODE     ---       set_tof_type
      00FF839AH   CODE     ---       set_wireless_type
      00FF25BCH   CODE     ---       sin?_
*SFR* 00000098H.7 DATA     BIT       SM0
*SFR* 00000098H.6 DATA     BIT       SM1
*SFR* 00000098H.5 DATA     BIT       SM2
      00FF9019H   CODE     ---       soft_iic_delay
*DEL*:00000000H   CODE     ---       soft_iic_init
*DEL*:00000000H   CODE     ---       soft_iic_read_16bit
*DEL*:00000000H   CODE     ---       soft_iic_read_16bit_array
*DEL*:00000000H   CODE     ---       soft_iic_read_16bit_register
*DEL*:00000000H   CODE     ---       soft_iic_read_16bit_registers
*DEL*:00000000H   CODE     ---       soft_iic_read_8bit
*DEL*:00000000H   CODE     ---       soft_iic_read_8bit_array
*DEL*:00000000H   CODE     ---       soft_iic_read_8bit_register
*DEL*:00000000H   CODE     ---       soft_iic_read_8bit_registers
L251 LINKER/LOCATER V4.66.93.0                                                        03/29/2026  20:20:13  PAGE 34


      00FF7561H   CODE     ---       soft_iic_read_data
*DEL*:00000000H   CODE     ---       soft_iic_sccb_read_register
*DEL*:00000000H   CODE     ---       soft_iic_sccb_write_register
      00FF7C9DH   CODE     ---       soft_iic_send_ack
      00FF00A6H   CODE     ---       soft_iic_send_data
      00FF8114H   CODE     ---       soft_iic_start
      00FF7EFEH   CODE     ---       soft_iic_stop
*DEL*:00000000H   CODE     ---       soft_iic_transfer_16bit_array
*DEL*:00000000H   CODE     ---       soft_iic_transfer_8bit_array
      00FF7BBAH   CODE     ---       soft_iic_wait_ack
*DEL*:00000000H   CODE     ---       soft_iic_write_16bit
*DEL*:00000000H   CODE     ---       soft_iic_write_16bit_array
*DEL*:00000000H   CODE     ---       soft_iic_write_16bit_register
*DEL*:00000000H   CODE     ---       soft_iic_write_16bit_registers
*DEL*:00000000H   CODE     ---       soft_iic_write_8bit
*DEL*:00000000H   CODE     ---       soft_iic_write_8bit_array
*DEL*:00000000H   CODE     ---       soft_iic_write_8bit_register
*DEL*:00000000H   CODE     ---       soft_iic_write_8bit_registers
*DEL*:00000000H   CODE     ---       soft_spi_delay
*DEL*:00000000H   CODE     ---       soft_spi_init
*DEL*:00000000H   CODE     ---       soft_spi_read_16bit
*DEL*:00000000H   CODE     ---       soft_spi_read_16bit_array
*DEL*:00000000H   CODE     ---       soft_spi_read_16bit_register
*DEL*:00000000H   CODE     ---       soft_spi_read_16bit_registers
*DEL*:00000000H   CODE     ---       soft_spi_read_8bit
*DEL*:00000000H   CODE     ---       soft_spi_read_8bit_array
*DEL*:00000000H   CODE     ---       soft_spi_read_8bit_register
*DEL*:00000000H   CODE     ---       soft_spi_read_8bit_registers
*DEL*:00000000H   CODE     ---       soft_spi_transfer_16bit
*DEL*:00000000H   CODE     ---       soft_spi_transfer_8bit
*DEL*:00000000H   CODE     ---       soft_spi_write_16bit
*DEL*:00000000H   CODE     ---       soft_spi_write_16bit_array
*DEL*:00000000H   CODE     ---       soft_spi_write_16bit_register
*DEL*:00000000H   CODE     ---       soft_spi_write_16bit_registers
*DEL*:00000000H   CODE     ---       soft_spi_write_8bit
*DEL*:00000000H   CODE     ---       soft_spi_write_8bit_array
*DEL*:00000000H   CODE     ---       soft_spi_write_8bit_register
*DEL*:00000000H   CODE     ---       soft_spi_write_8bit_registers
*SFR* 00000081H   DATA     BYTE      SP
*SFR* 000000CEH   DATA     BYTE      SPCTL
*SFR* 000000CFH   DATA     BYTE      SPDAT
      00010900H   XDATA    INT       speed_left
      000108FEH   XDATA    INT       speed_right
*SFR* 000000BEH   DATA     BYTE      SPH
      00FF505DH   CODE     ---       spi_init
*DEL*:00000000H   CODE     ---       spi_read_16bit
*DEL*:00000000H   CODE     ---       spi_read_16bit_array
*DEL*:00000000H   CODE     ---       spi_read_16bit_register
*DEL*:00000000H   CODE     ---       spi_read_16bit_registers
*DEL*:00000000H   CODE     ---       spi_read_8bit
*DEL*:00000000H   CODE     ---       spi_read_8bit_array
*DEL*:00000000H   CODE     ---       spi_read_8bit_register
*DEL*:00000000H   CODE     ---       spi_read_8bit_registers
      00FF8A00H   CODE     ---       spi_read_dat
*DEL*:00000000H   CODE     ---       spi_transfer_16bit
*DEL*:00000000H   CODE     ---       spi_transfer_8bit
      00FF9055H   CODE     ---       spi_write_16bit
*DEL*:00000000H   CODE     ---       spi_write_16bit_array
*DEL*:00000000H   CODE     ---       spi_write_16bit_register
*DEL*:00000000H   CODE     ---       spi_write_16bit_registers
      00FF0026H   CODE     ---       spi_write_8bit
*DEL*:00000000H   CODE     ---       spi_write_8bit_array
*DEL*:00000000H   CODE     ---       spi_write_8bit_register
*DEL*:00000000H   CODE     ---       spi_write_8bit_registers
      00FF8B4EH   CODE     ---       spi_write_dat
L251 LINKER/LOCATER V4.66.93.0                                                        03/29/2026  20:20:13  PAGE 35


      00FF24A7H   CODE     NEAR LAB  sprintf
*SFR* 000000CDH   DATA     BYTE      SPSTAT
      00FF24C7H   CODE     ---       sqrt?_
*DEL*:00000000H   CODE     ---       strchr?_
      00FF9228H   CODE     ---       strlen?_
*DEL*:00000000H   CODE     ---       strncmp?_
*DEL*:00000000H   CODE     ---       strncpy?_
      00011E6FH   XDATA    LONG      system_clock
      00FF8C5DH   CODE     ---       system_delay_init
      00FF914BH   CODE     ---       system_delay_ms
*DEL*:00000000H   CODE     ---       system_delay_us
*SFR* 000000B0H.4 DATA     BIT       T0
*SFR* 000000B0H.5 DATA     BIT       T1
*SFR* 00000090H.0 DATA     BIT       T2
*SFR* 000000C8H   DATA     BYTE      T2CON
*SFR* 00000090H.1 DATA     BIT       T2EX
*SFR* 000000D6H   DATA     BYTE      T2H
*SFR* 000000D7H   DATA     BYTE      T2L
*SFR* 000000C9H   DATA     BYTE      T2MOD
*SFR* 000000D4H   DATA     BYTE      T3H
*SFR* 000000D5H   DATA     BYTE      T3L
*SFR* 000000D2H   DATA     BYTE      T4H
*SFR* 000000D3H   DATA     BYTE      T4L
*SFR* 000000DDH   DATA     BYTE      T4T3M
      00FF25E9H   CODE     ---       TAN?_
*SFR* 00000098H.3 DATA     BIT       TB8
*SFR* 000000C8H.4 DATA     BIT       TCLK
*SFR* 00000088H   DATA     BYTE      TCON
*SFR* 00000088H.5 DATA     BIT       TF0
*SFR* 00000088H.7 DATA     BIT       TF1
*SFR* 000000C8H.7 DATA     BIT       TF2
      00011CCFH   XDATA    WORD      tft180_bgcolor
*DEL*:00000000H   CODE     ---       tft180_clear
      00011CD1H   XDATA    INT       tft180_display_dir
*DEL*:00000000H   CODE     ---       tft180_draw_point
*DEL*:00000000H   CODE     ---       tft180_init
      00011CCDH   XDATA    WORD      tft180_pencolor
*DEL*:00000000H   CODE     ---       tft180_set_color
*DEL*:00000000H   CODE     ---       tft180_set_dir
*DEL*:00000000H   CODE     ---       tft180_show_char
*DEL*:00000000H   CODE     ---       tft180_show_float
*DEL*:00000000H   CODE     ---       tft180_show_int16
*DEL*:00000000H   CODE     ---       tft180_show_int32
*DEL*:00000000H   CODE     ---       tft180_show_int8
*DEL*:00000000H   CODE     ---       tft180_show_string
*DEL*:00000000H   CODE     ---       tft180_show_uint16
*DEL*:00000000H   CODE     ---       tft180_show_uint8
*DEL*:00000000H   CODE     ---       tft180_show_wave
      00011CD3H   XDATA    BYTE      tft180_x_max
      00011CD4H   XDATA    BYTE      tft180_y_max
*SFR* 0000008CH   DATA     BYTE      TH0
*SFR* 0000008DH   DATA     BYTE      TH1
*SFR* 000000CDH   DATA     BYTE      TH2
*SFR* 00000098H.1 DATA     BIT       TI
      000112D3H   XDATA    ---       tim0_irq_handler
      000112C9H   XDATA    ---       tim11_irq_handler
      000112D7H   XDATA    ---       tim1_irq_handler
      000112DBH   XDATA    ---       tim2_irq_handler
      000112DFH   XDATA    ---       tim3_irq_handler
      000112E3H   XDATA    ---       tim4_irq_handler
      00FF8804H   CODE     ---       timer_funciton_check
*SFR* 0000008AH   DATA     BYTE      TL0
*SFR* 0000008BH   DATA     BYTE      TL1
*SFR* 000000CCH   DATA     BYTE      TL2
      00FF8E9DH   CODE     ---       TM0_IRQHandler
L251 LINKER/LOCATER V4.66.93.0                                                        03/29/2026  20:20:13  PAGE 36


      00FF8EDDH   CODE     ---       TM1_IRQHandler
      00FF8F1DH   CODE     ---       TM2_IRQHandler
      00FF8F5DH   CODE     ---       TM3_IRQHandler
      00FF8F9DH   CODE     ---       TM4_IRQHandler
*SFR* 00000089H   DATA     BYTE      TMOD
      00011CE5H   XDATA    ---       tof_module_exti_handler
      00011CE9H   XDATA    INT       tof_type
*SFR* 00000088H.4 DATA     BIT       TR0
*SFR* 00000088H.6 DATA     BIT       TR1
*SFR* 000000C8H.2 DATA     BIT       TR2
*DEL*:00000000H   CODE     ---       tsl1401_collect_pit_handler
      0001020BH   XDATA    ---       tsl1401_data
      0001020AH   XDATA    BYTE      tsl1401_finish_flag
*DEL*:00000000H   CODE     ---       tsl1401_init
*DEL*:00000000H   CODE     ---       tsl1401_send_data
*SFR* 000000B0H.1 DATA     BIT       TXD
      000112CBH   XDATA    ---       uart1_irq_handler
      000112CDH   XDATA    ---       uart2_irq_handler
      000112CFH   XDATA    ---       uart3_irq_handler
      000112D1H   XDATA    ---       uart4_irq_handler
      00FF6F74H   CODE     ---       uart_dma_init
      00FF8885H   CODE     ---       uart_funciton_check
      00FF5849H   CODE     ---       uart_init
      00FF82FBH   CODE     ---       uart_query_byte
*DEL*:00000000H   CODE     ---       uart_read_byte
      00011947H   XDATA    ---       uart_rx_buff
      00FF8AE8H   CODE     ---       uart_rx_interrupt
      00FF7E3CH   CODE     ---       uart_rx_start_buff
      00FF6BECH   CODE     ---       uart_write_buffer
      00FF91DCH   CODE     ---       uart_write_byte
*DEL*:00000000H   CODE     ---       uart_write_string
*SFR* 000000F4H   DATA     BYTE      USBCON
*DEL*:00000000H   CODE     ---       voltage_warning_init
*SFR* 000000A6H   DATA     BYTE      VRTRIM
*DEL*:00000000H   CODE     ---       vsnprintf
*SFR* 000000C1H   DATA     BYTE      WDT_CONTR
*SFR* 000000A6H   DATA     BYTE      WDTRST
      00011CE7H   XDATA    INT       wireless_type
      00FF9125H   CODE     ---       wireless_uart_callback
      00FF8906H   CODE     ---       wireless_uart_init
      00FF86FFH   CODE     ---       wireless_uart_read_buffer
      00FF77BFH   CODE     ---       wireless_uart_send_buffer
*DEL*:00000000H   CODE     ---       wireless_uart_send_byte
*DEL*:00000000H   CODE     ---       wireless_uart_send_string
*SFR* 000000B0H.6 DATA     BIT       WR
*SFR* 000000E9H   DATA     BYTE      WTST
      0001080AH   XDATA    FLOAT     yaw
      00010802H   XDATA    FLOAT     yaw_limit_360
      0001080EH   XDATA    FLOAT     yaw_total
      00010786H   XDATA    ---       Zero
      00FF3071H   CODE     ---       zf_sprintf



SYMBOL TABLE OF MODULE:  .\out_file\SEEKFREE (?C_START)

      VALUE       REP       CLASS    TYPE      SYMBOL NAME
      ====================================================
      ---         MODULE    ---      ---       ?C_START
      00FF0000H   PUBLIC    CODE     ---       ?C?STARTUP
      00FF0000H   PUBLIC    CODE     ---       ?C_STARTUP
      000000D0H.6 SFRSYM    DATA     BIT       AC
      000000E0H   SFRSYM    DATA     BYTE      ACC
      000000F0H   SFRSYM    DATA     BYTE      B
      000000FAH   SFRSYM    DATA     BYTE      CCAP0H
L251 LINKER/LOCATER V4.66.93.0                                                        03/29/2026  20:20:13  PAGE 37


      000000EAH   SFRSYM    DATA     BYTE      CCAP0L
      000000FBH   SFRSYM    DATA     BYTE      CCAP1H
      000000EBH   SFRSYM    DATA     BYTE      CCAP1L
      000000FCH   SFRSYM    DATA     BYTE      CCAP2H
      000000ECH   SFRSYM    DATA     BYTE      CCAP2L
      000000FDH   SFRSYM    DATA     BYTE      CCAP3H
      000000EDH   SFRSYM    DATA     BYTE      CCAP3L
      000000FEH   SFRSYM    DATA     BYTE      CCAP4H
      000000EEH   SFRSYM    DATA     BYTE      CCAP4L
      000000DAH   SFRSYM    DATA     BYTE      CCAPM0
      000000DBH   SFRSYM    DATA     BYTE      CCAPM1
      000000DCH   SFRSYM    DATA     BYTE      CCAPM2
      000000DDH   SFRSYM    DATA     BYTE      CCAPM3
      000000DEH   SFRSYM    DATA     BYTE      CCAPM4
      000000D8H.0 SFRSYM    DATA     BIT       CCF0
      000000D8H.1 SFRSYM    DATA     BIT       CCF1
      000000D8H.2 SFRSYM    DATA     BIT       CCF2
      000000D8H.3 SFRSYM    DATA     BIT       CCF3
      000000D8H.4 SFRSYM    DATA     BIT       CCF4
      000000D8H   SFRSYM    DATA     BYTE      CCON
      00000090H.3 SFRSYM    DATA     BIT       CEX0
      00000090H.4 SFRSYM    DATA     BIT       CEX1
      00000090H.5 SFRSYM    DATA     BIT       CEX2
      00000090H.6 SFRSYM    DATA     BIT       CEX3
      00000090H.7 SFRSYM    DATA     BIT       CEX4
      000000D8H.7 SFRSYM    DATA     BIT       CF
      000000F9H   SFRSYM    DATA     BYTE      CH
      000000E9H   SFRSYM    DATA     BYTE      CL
      000000D9H   SFRSYM    DATA     BYTE      CMOD
      000000C8H.0 SFRSYM    DATA     BIT       CP_RL2
      000000D8H.6 SFRSYM    DATA     BIT       CR
      000000D0H.7 SFRSYM    DATA     BIT       CY
      000000C8H.1 SFRSYM    DATA     BIT       C_T2
      00000083H   SFRSYM    DATA     BYTE      DPH
      00000082H   SFRSYM    DATA     BYTE      DPL
      00000084H   SFRSYM    DATA     BYTE      DPXL
      000000A8H.7 SFRSYM    DATA     BIT       EA
      000000A8H.6 SFRSYM    DATA     BIT       EC
      00000090H.2 SFRSYM    DATA     BIT       ECI
      000000A8H.4 SFRSYM    DATA     BIT       ES
      000000A8H.1 SFRSYM    DATA     BIT       ET0
      000000A8H.3 SFRSYM    DATA     BIT       ET1
      000000A8H.5 SFRSYM    DATA     BIT       ET2
      000000A8H.0 SFRSYM    DATA     BIT       EX0
      000000A8H.2 SFRSYM    DATA     BIT       EX1
      000000C8H.3 SFRSYM    DATA     BIT       EXEN2
      000000C8H.6 SFRSYM    DATA     BIT       EXF2
      000000D0H.5 SFRSYM    DATA     BIT       F0
      00000098H.7 SFRSYM    DATA     BIT       FE
      000000A8H   SFRSYM    DATA     BYTE      IE0
      00000088H.1 SFRSYM    DATA     BIT       IE0_
      000000B1H   SFRSYM    DATA     BYTE      IE1
      00000088H.3 SFRSYM    DATA     BIT       IE1_
      000000B0H.2 SFRSYM    DATA     BIT       INT0
      000000B0H.3 SFRSYM    DATA     BIT       INT1
      000000B7H   SFRSYM    DATA     BYTE      IPH0
      000000B8H   SFRSYM    DATA     BYTE      IPL0
      00000088H.0 SFRSYM    DATA     BIT       IT0
      00000088H.2 SFRSYM    DATA     BIT       IT1
      000000D0H.2 SFRSYM    DATA     BIT       OV
      000000D0H.0 SFRSYM    DATA     BIT       P
      00000080H   SFRSYM    DATA     BYTE      P0
      00000090H   SFRSYM    DATA     BYTE      P1
      000000A0H   SFRSYM    DATA     BYTE      P2
      000000B0H   SFRSYM    DATA     BYTE      P3
L251 LINKER/LOCATER V4.66.93.0                                                        03/29/2026  20:20:13  PAGE 38


      00000087H   SFRSYM    DATA     BYTE      PCON
      000000B8H.6 SFRSYM    DATA     BIT       PPC
      000000B8H.4 SFRSYM    DATA     BIT       PS
      000000D0H   SFRSYM    DATA     BYTE      PSW
      000000D1H   SFRSYM    DATA     BYTE      PSW1
      000000B8H.1 SFRSYM    DATA     BIT       PT0
      000000B8H.3 SFRSYM    DATA     BIT       PT1
      000000B8H.5 SFRSYM    DATA     BIT       PT2
      000000B8H.0 SFRSYM    DATA     BIT       PX0
      000000B8H.2 SFRSYM    DATA     BIT       PX1
      00000098H.2 SFRSYM    DATA     BIT       RB8
      000000CBH   SFRSYM    DATA     BYTE      RCAP2H
      000000CAH   SFRSYM    DATA     BYTE      RCAP2L
      000000C8H.5 SFRSYM    DATA     BIT       RCLK
      000000B0H.7 SFRSYM    DATA     BIT       RD
      00000098H.4 SFRSYM    DATA     BIT       REN
      00000098H.0 SFRSYM    DATA     BIT       RI
      000000D0H.3 SFRSYM    DATA     BIT       RS0
      000000D0H.4 SFRSYM    DATA     BIT       RS1
      000000B0H.0 SFRSYM    DATA     BIT       RXD
      000000A9H   SFRSYM    DATA     BYTE      SADDR
      000000B9H   SFRSYM    DATA     BYTE      SADEN
      00000099H   SFRSYM    DATA     BYTE      SBUF
      00000098H   SFRSYM    DATA     BYTE      SCON
      00000098H.7 SFRSYM    DATA     BIT       SM0
      00000098H.6 SFRSYM    DATA     BIT       SM1
      00000098H.5 SFRSYM    DATA     BIT       SM2
      00000081H   SFRSYM    DATA     BYTE      SP
      000000BEH   SFRSYM    DATA     BYTE      SPH
      000000B0H.4 SFRSYM    DATA     BIT       T0
      000000B0H.5 SFRSYM    DATA     BIT       T1
      00000090H.0 SFRSYM    DATA     BIT       T2
      000000C8H   SFRSYM    DATA     BYTE      T2CON
      00000090H.1 SFRSYM    DATA     BIT       T2EX
      000000C9H   SFRSYM    DATA     BYTE      T2MOD
      00000098H.3 SFRSYM    DATA     BIT       TB8
      000000C8H.4 SFRSYM    DATA     BIT       TCLK
      00000088H   SFRSYM    DATA     BYTE      TCON
      00000088H.5 SFRSYM    DATA     BIT       TF0
      00000088H.7 SFRSYM    DATA     BIT       TF1
      000000C8H.7 SFRSYM    DATA     BIT       TF2
      0000008CH   SFRSYM    DATA     BYTE      TH0
      0000008DH   SFRSYM    DATA     BYTE      TH1
      000000CDH   SFRSYM    DATA     BYTE      TH2
      00000098H.1 SFRSYM    DATA     BIT       TI
      0000008AH   SFRSYM    DATA     BYTE      TL0
      0000008BH   SFRSYM    DATA     BYTE      TL1
      000000CCH   SFRSYM    DATA     BYTE      TL2
      00000089H   SFRSYM    DATA     BYTE      TMOD
      00000088H.4 SFRSYM    DATA     BIT       TR0
      00000088H.6 SFRSYM    DATA     BIT       TR1
      000000C8H.2 SFRSYM    DATA     BIT       TR2
      000000B0H.1 SFRSYM    DATA     BIT       TXD
      000000A6H   SFRSYM    DATA     BYTE      WDTRST
      000000B0H.6 SFRSYM    DATA     BIT       WR
      00000800H   SYMBOL    NUMBER   ---       EDATALEN
      00FF8CBDH   SYMBOL    CODE     ---       EDATALOOP
      00000001H   SYMBOL    NUMBER   ---       EDF
      00000001H   SYMBOL    NUMBER   ---       EMAP
      00000000H   SYMBOL    NUMBER   ---       HDATALEN
      00010000H   SYMBOL    NUMBER   ---       HDATASTART
      00000000H   SYMBOL    NUMBER   ---       IBPSTACK
      00000100H   SYMBOL    NUMBER   ---       IBPSTACKTOP
      00000001H   SYMBOL    NUMBER   ---       INTR
      00000001H   SYMBOL    NUMBER   ---       PAGM
L251 LINKER/LOCATER V4.66.93.0                                                        03/29/2026  20:20:13  PAGE 39


      00000003H   SYMBOL    NUMBER   ---       RDRG
      00000001H   SYMBOL    NUMBER   ---       SRCM
      00000800H   SYMBOL    NUMBER   ---       STACKSIZE
      00FF8CB5H   SYMBOL    CODE     ---       STARTUP1
      00000003H   SYMBOL    NUMBER   ---       WSA
      00000003H   SYMBOL    NUMBER   ---       WSB
      00000001H   SYMBOL    NUMBER   ---       XALE
      00000000H   SYMBOL    NUMBER   ---       XBPSTACK
      00010000H   SYMBOL    NUMBER   ---       XBPSTACKTOP
      00008000H   SYMBOL    NUMBER   ---       XDATALEN
      00FF8CCCH   SYMBOL    CODE     ---       XDATALOOP
      00010000H   SYMBOL    NUMBER   ---       XDATASTART

      00FF0000H   BLOCK     CODE     NEAR LAB  LVL=0
      00FF0000H   LINE      CODE     ---       #183
      ---         BLOCKEND  ---      ---       LVL=0

      00FF8CB5H   BLOCK     CODE     NEAR LAB  LVL=0
      00FF8CB5H   LINE      CODE     ---       #188
      00FF8CB8H   LINE      CODE     ---       #191
      00FF8CBCH   LINE      CODE     ---       #192
      00FF8CBDH   LINE      CODE     ---       #193
      00FF8CC0H   LINE      CODE     ---       #194
      00FF8CC2H   LINE      CODE     ---       #195
      00FF8CC4H   LINE      CODE     ---       #199
      00FF8CC7H   LINE      CODE     ---       #200
      00FF8CCBH   LINE      CODE     ---       #201
      00FF8CCCH   LINE      CODE     ---       #202
      00FF8CCDH   LINE      CODE     ---       #203
      00FF8CCEH   LINE      CODE     ---       #204
      00FF8CD0H   LINE      CODE     ---       #205
      00FF8CD2H   LINE      CODE     ---       #235
      ---         BLOCKEND  ---      ---       LVL=0

      00FF8D07H   BLOCK     CODE     NEAR LAB  LVL=0
      00FF8D07H   LINE      CODE     ---       #238
      ---         BLOCKEND  ---      ---       LVL=0

      ---         MODULE    ---      ---       stc32g_isr

      00FF019BH   BLOCK     CODE     NEAR LAB  LVL=0
      00FF019BH   LINE      CODE     ---       #3
      ---         BLOCKEND  ---      ---       LVL=0

      00FF01ABH   BLOCK     CODE     NEAR LAB  LVL=0
      00FF01ABH   LINE      CODE     ---       #6
      ---         BLOCKEND  ---      ---       LVL=0

      00FF01BBH   BLOCK     CODE     NEAR LAB  LVL=0
      00FF01BBH   LINE      CODE     ---       #9
      ---         BLOCKEND  ---      ---       LVL=0

      00FF01CBH   BLOCK     CODE     NEAR LAB  LVL=0
      00FF01CBH   LINE      CODE     ---       #12
      ---         BLOCKEND  ---      ---       LVL=0

      ---         MODULE    ---      ---       zf_common_clock
      00FF8783H   PUBLIC    CODE     ---       clock_init
      00FF67F0H   PUBLIC    CODE     ---       set_sys_clk
      00011E6FH   PUBLIC    XDATA    LONG      system_clock
      00000094H   SFRSYM    DATA     BYTE      P0M0
      000000D0H   SFRSYM    DATA     BYTE      PSW
      000000BAH.7 SFRSYM    DATA     BIT       EAXFR
      0000009DH   SFRSYM    DATA     BYTE      IRCBAND
      00000097H   SFRSYM    DATA     BYTE      AUXR2
L251 LINKER/LOCATER V4.66.93.0                                                        03/29/2026  20:20:13  PAGE 40


      000000EAH   SFRSYM    DATA     BYTE      CKCON
      000000EFH   SFRSYM    DATA     BYTE      AUXINTIF
      000000FDH   SFRSYM    DATA     BYTE      S4CON
      000000ACH   SFRSYM    DATA     BYTE      S3CON
      0000009AH   SFRSYM    DATA     BYTE      S2CON
      000000A6H   SFRSYM    DATA     BYTE      VRTRIM
      000000B7H   SFRSYM    DATA     BYTE      IPH
      000000CDH   SFRSYM    DATA     BYTE      SPSTAT
      000000DDH   SFRSYM    DATA     BYTE      T4T3M
      0000009FH   SFRSYM    DATA     BYTE      IRTRIM
      000000C1H   SFRSYM    DATA     BYTE      WDT_CONTR
      000000E9H   SFRSYM    DATA     BYTE      WTST
      000000DFH   SFRSYM    DATA     BYTE      IP3
      000000F4H   SFRSYM    DATA     BYTE      USBCON
      000000B5H   SFRSYM    DATA     BYTE      IP2
      000000FFH   SFRSYM    DATA     BYTE      RSTCFG
      000000C7H   SFRSYM    DATA     BYTE      IAP_CONTR
      000000F9H   SFRSYM    DATA     BYTE      LINICR
      0000008EH   SFRSYM    DATA     BYTE      AUXR
      000000AFH   SFRSYM    DATA     BYTE      IE2
      00000088H   SFRSYM    DATA     BYTE      TCON
      00000089H   SFRSYM    DATA     BYTE      TMOD
      00000098H   SFRSYM    DATA     BYTE      SCON
      000000F1H   SFRSYM    DATA     BYTE      CANICR
      00000087H   SFRSYM    DATA     BYTE      PCON
      000000BCH   SFRSYM    DATA     BYTE      ADC_CONTR
      000000E7H   SFRSYM    DATA     BYTE      CMPCR2
      000000E6H   SFRSYM    DATA     BYTE      CMPCR1
      000000DEH   SFRSYM    DATA     BYTE      ADCCFG
      000000B8H   SFRSYM    DATA     BYTE      IP
      0000008FH   SFRSYM    DATA     BYTE      INTCLKO
      000000EEH   SFRSYM    DATA     BYTE      IP3H
      000000B6H   SFRSYM    DATA     BYTE      IP2H
      000000A8H   SFRSYM    DATA     BYTE      IE
      000000BBH   SFRSYM    DATA     BYTE      P_SW3
      000000BAH   SFRSYM    DATA     BYTE      P_SW2
      000000A2H   SFRSYM    DATA     BYTE      P_SW1
      000000CEH   SFRSYM    DATA     BYTE      SPCTL
      000000F8H   SFRSYM    DATA     BYTE      P7
      000000E1H   SFRSYM    DATA     BYTE      P7M1
      000000E8H   SFRSYM    DATA     BYTE      P6
      000000C8H   SFRSYM    DATA     BYTE      P5
      000000CBH   SFRSYM    DATA     BYTE      P6M1
      000000E2H   SFRSYM    DATA     BYTE      P7M0
      000000C0H   SFRSYM    DATA     BYTE      P4
      000000C9H   SFRSYM    DATA     BYTE      P5M1
      000000CCH   SFRSYM    DATA     BYTE      P6M0
      000000B0H   SFRSYM    DATA     BYTE      P3
      000000B3H   SFRSYM    DATA     BYTE      P4M1
      000000CAH   SFRSYM    DATA     BYTE      P5M0
      000000A0H   SFRSYM    DATA     BYTE      P2
      000000B1H   SFRSYM    DATA     BYTE      P3M1
      000000B4H   SFRSYM    DATA     BYTE      P4M0
      00000090H   SFRSYM    DATA     BYTE      P1
      00000095H   SFRSYM    DATA     BYTE      P2M1
      000000B2H   SFRSYM    DATA     BYTE      P3M0
      00000080H   SFRSYM    DATA     BYTE      P0
      00000091H   SFRSYM    DATA     BYTE      P1M1
      00000096H   SFRSYM    DATA     BYTE      P2M0
      00000092H   SFRSYM    DATA     BYTE      P1M0
      00000093H   SFRSYM    DATA     BYTE      P0M1

      00FF67F0H   BLOCK     CODE     ---       LVL=0
      00011E73H   SYMBOL    XDATA    DWORD     sys_clk
      00FF67F0H   LINE      CODE     ---       #54
L251 LINKER/LOCATER V4.66.93.0                                                        03/29/2026  20:20:13  PAGE 41


      00FF67FAH   LINE      CODE     ---       #57
      00FF67FDH   LINE      CODE     ---       #59
      00FF6852H   LINE      CODE     ---       #61
      00FF6852H   LINE      CODE     ---       #63
      00FF685FH   LINE      CODE     ---       #64
      00FF686CH   LINE      CODE     ---       #65
      00FF6879H   LINE      CODE     ---       #66
      00FF687DH   LINE      CODE     ---       #67
      00FF6889H   LINE      CODE     ---       #68
      00FF688CH   LINE      CODE     ---       #70
      00FF688CH   LINE      CODE     ---       #72
      00FF6899H   LINE      CODE     ---       #73
      00FF68A6H   LINE      CODE     ---       #74
      00FF68B3H   LINE      CODE     ---       #75
      00FF68B7H   LINE      CODE     ---       #76
      00FF68C3H   LINE      CODE     ---       #77
      00FF68C6H   LINE      CODE     ---       #79
      00FF68C6H   LINE      CODE     ---       #81
      00FF68D3H   LINE      CODE     ---       #82
      00FF68E0H   LINE      CODE     ---       #83
      00FF68EDH   LINE      CODE     ---       #84
      00FF68F1H   LINE      CODE     ---       #85
      00FF68FDH   LINE      CODE     ---       #86
      00FF6900H   LINE      CODE     ---       #88
      00FF6900H   LINE      CODE     ---       #90
      00FF690DH   LINE      CODE     ---       #91
      00FF691AH   LINE      CODE     ---       #92
      00FF6927H   LINE      CODE     ---       #93
      00FF692BH   LINE      CODE     ---       #94
      00FF6937H   LINE      CODE     ---       #95
      00FF693AH   LINE      CODE     ---       #97
      00FF693AH   LINE      CODE     ---       #99
      00FF6947H   LINE      CODE     ---       #100
      00FF6954H   LINE      CODE     ---       #101
      00FF6961H   LINE      CODE     ---       #102
      00FF6965H   LINE      CODE     ---       #103
      00FF6971H   LINE      CODE     ---       #104
      00FF6974H   LINE      CODE     ---       #106
      00FF6974H   LINE      CODE     ---       #108
      00FF6981H   LINE      CODE     ---       #109
      00FF698EH   LINE      CODE     ---       #110
      00FF699BH   LINE      CODE     ---       #111
      00FF699FH   LINE      CODE     ---       #112
      00FF69ABH   LINE      CODE     ---       #113
      00FF69ADH   LINE      CODE     ---       #115
      00FF69ADH   LINE      CODE     ---       #116
      00FF69BFH   LINE      CODE     ---       #118
      00FF69CCH   LINE      CODE     ---       #119
      00FF69D9H   LINE      CODE     ---       #120
      00FF69E6H   LINE      CODE     ---       #121
      00FF69EAH   LINE      CODE     ---       #122
      00FF69F6H   LINE      CODE     ---       #123
      00FF69F6H   LINE      CODE     ---       #124
      00FF69F6H   LINE      CODE     ---       #126
      00FF6A00H   LINE      CODE     ---       #127
      ---         BLOCKEND  ---      ---       LVL=0

      00FF8783H   BLOCK     CODE     ---       LVL=0
      00011E77H   SYMBOL    XDATA    DWORD     clock
      00FF8783H   LINE      CODE     ---       #132
      00FF878DH   LINE      CODE     ---       #134
      00FF8791H   LINE      CODE     ---       #135
      00FF8795H   LINE      CODE     ---       #136
      00FF8798H   LINE      CODE     ---       #137
      00FF879BH   LINE      CODE     ---       #147
L251 LINKER/LOCATER V4.66.93.0                                                        03/29/2026  20:20:13  PAGE 42


      00FF87B2H   LINE      CODE     ---       #153
      00FF87B5H   LINE      CODE     ---       #156
      00FF87B8H   LINE      CODE     ---       #157
      00FF87BBH   LINE      CODE     ---       #158
      00FF87BEH   LINE      CODE     ---       #159
      00FF87C1H   LINE      CODE     ---       #160
      00FF87C4H   LINE      CODE     ---       #161
      00FF87C7H   LINE      CODE     ---       #162
      00FF87CAH   LINE      CODE     ---       #163
      00FF87CDH   LINE      CODE     ---       #164
      00FF87D0H   LINE      CODE     ---       #165
      00FF87D3H   LINE      CODE     ---       #166
      00FF87D6H   LINE      CODE     ---       #167
      00FF87D9H   LINE      CODE     ---       #168
      00FF87DCH   LINE      CODE     ---       #169
      00FF87DFH   LINE      CODE     ---       #170
      00FF87E2H   LINE      CODE     ---       #171
      00FF87E5H   LINE      CODE     ---       #173
      00FF87E8H   LINE      CODE     ---       #174
      00FF87EBH   LINE      CODE     ---       #175
      00FF87EEH   LINE      CODE     ---       #176
      00FF87F1H   LINE      CODE     ---       #177
      00FF87F4H   LINE      CODE     ---       #178
      00FF87F7H   LINE      CODE     ---       #179
      00FF87FAH   LINE      CODE     ---       #180
      00FF87FDH   LINE      CODE     ---       #181
      00FF8800H   LINE      CODE     ---       #183
      00FF8803H   LINE      CODE     ---       #184
      ---         BLOCKEND  ---      ---       LVL=0

      ---         MODULE    ---      ---       zf_common_debug
      00FF8FDDH   PUBLIC    CODE     ---       debug_interrupr_handler
      00FF806DH   PUBLIC    CODE     ---       debug_init
      00FF8987H   PUBLIC    CODE     ---       debug_assert_handler
      00FF0066H   PUBLIC    CODE     ---       putchar
      00010C49H   PUBLIC    XDATA    ---       debug_uart_buffer
      00010C8AH   PUBLIC    XDATA    ---       debug_uart_fifo
      000000D0H   SFRSYM    DATA     BYTE      PSW
      0000009DH   SFRSYM    DATA     BYTE      IRCBAND
      00000097H   SFRSYM    DATA     BYTE      AUXR2
      000000EFH   SFRSYM    DATA     BYTE      AUXINTIF
      000000FDH   SFRSYM    DATA     BYTE      S4CON
      000000ACH   SFRSYM    DATA     BYTE      S3CON
      0000009AH   SFRSYM    DATA     BYTE      S2CON
      000000B7H   SFRSYM    DATA     BYTE      IPH
      000000CDH   SFRSYM    DATA     BYTE      SPSTAT
      000000DDH   SFRSYM    DATA     BYTE      T4T3M
      000000C1H   SFRSYM    DATA     BYTE      WDT_CONTR
      000000DFH   SFRSYM    DATA     BYTE      IP3
      000000F4H   SFRSYM    DATA     BYTE      USBCON
      000000B5H   SFRSYM    DATA     BYTE      IP2
      000000FFH   SFRSYM    DATA     BYTE      RSTCFG
      000000C7H   SFRSYM    DATA     BYTE      IAP_CONTR
      000000F9H   SFRSYM    DATA     BYTE      LINICR
      0000008EH   SFRSYM    DATA     BYTE      AUXR
      000000AFH   SFRSYM    DATA     BYTE      IE2
      00000088H   SFRSYM    DATA     BYTE      TCON
      00000089H   SFRSYM    DATA     BYTE      TMOD
      00000098H   SFRSYM    DATA     BYTE      SCON
      000000F1H   SFRSYM    DATA     BYTE      CANICR
      00000087H   SFRSYM    DATA     BYTE      PCON
      000000BCH   SFRSYM    DATA     BYTE      ADC_CONTR
      000000E7H   SFRSYM    DATA     BYTE      CMPCR2
      000000E6H   SFRSYM    DATA     BYTE      CMPCR1
      000000DEH   SFRSYM    DATA     BYTE      ADCCFG
L251 LINKER/LOCATER V4.66.93.0                                                        03/29/2026  20:20:13  PAGE 43


      000000B8H   SFRSYM    DATA     BYTE      IP
      0000008FH   SFRSYM    DATA     BYTE      INTCLKO
      000000EEH   SFRSYM    DATA     BYTE      IP3H
      000000B6H   SFRSYM    DATA     BYTE      IP2H
      000000A8H   SFRSYM    DATA     BYTE      IE
      000000BBH   SFRSYM    DATA     BYTE      P_SW3
      000000BAH   SFRSYM    DATA     BYTE      P_SW2
      000000A2H   SFRSYM    DATA     BYTE      P_SW1
      000000CEH   SFRSYM    DATA     BYTE      SPCTL
      000000F8H   SFRSYM    DATA     BYTE      P7
      000000E8H   SFRSYM    DATA     BYTE      P6
      000000C8H   SFRSYM    DATA     BYTE      P5
      000000C0H   SFRSYM    DATA     BYTE      P4
      000000B0H   SFRSYM    DATA     BYTE      P3
      000000A0H   SFRSYM    DATA     BYTE      P2
      00000090H   SFRSYM    DATA     BYTE      P1
      00000080H   SFRSYM    DATA     BYTE      P0
      00FFA1EDH   SYMBOL    HCONST   ---       ?tpl?0001
      00010C89H   SYMBOL    XDATA    BYTE      zf_debug_assert_enable
      00010CA1H   SYMBOL    XDATA    BYTE      zf_debug_init_flag
      00011C1DH   SYMBOL    XDATA    ---       buff
      00011C21H   SYMBOL    XDATA    DWORD     len
      00011C25H   SYMBOL    XDATA    ---       buff
      00011C29H   SYMBOL    XDATA    DWORD     len

      00FF8FDDH   BLOCK     CODE     ---       LVL=0
      00011F7AH   SYMBOL    XDATA    BYTE      dat
      00FF8FDDH   LINE      CODE     ---       #281
      00FF8FE1H   LINE      CODE     ---       #283
      00FF8FEAH   LINE      CODE     ---       #285
      00FF8FF7H   LINE      CODE     ---       #286
      00FF9018H   LINE      CODE     ---       #287
      ---         BLOCKEND  ---      ---       LVL=0

      00FF0066H   BLOCK     CODE     ---       LVL=0
      00011F7BH   SYMBOL    XDATA    CHAR      c
      00FF0066H   LINE      CODE     ---       #303
      00FF006AH   LINE      CODE     ---       #305
      00FF0073H   LINE      CODE     ---       #307
      00FF0077H   LINE      CODE     ---       #308
      ---         BLOCKEND  ---      ---       LVL=0

      00FF8987H   BLOCK     CODE     ---       LVL=0
      00011497H   SYMBOL    XDATA    BYTE      pass
      00011498H   SYMBOL    XDATA    ---       file
      0001149CH   SYMBOL    XDATA    INT       line
      00FF899BH   BLOCK     CODE     NEAR LAB  LVL=1
      0001149EH   SYMBOL    XDATA    ---       log_str
      ---         BLOCKEND  ---      ---       LVL=1
      00FF8987H   LINE      CODE     ---       #346
      00FF899BH   LINE      CODE     ---       #347
      00FF899BH   LINE      CODE     ---       #348
      00FF89B0H   LINE      CODE     ---       #350
      00FF89B2H   LINE      CODE     ---       #366
      00FF89EFH   LINE      CODE     ---       #369
      00FF89F6H   LINE      CODE     ---       #370
      00FF89FFH   LINE      CODE     ---       #371
      ---         BLOCKEND  ---      ---       LVL=0

      00FF806DH   BLOCK     CODE     ---       LVL=0
      00011F7CH   SYMBOL    XDATA    BYTE      uartx
      00FF806DH   LINE      CODE     ---       #453
      00FF806DH   LINE      CODE     ---       #454
      00FF806DH   LINE      CODE     ---       #455
      00FF8072H   LINE      CODE     ---       #461
L251 LINKER/LOCATER V4.66.93.0                                                        03/29/2026  20:20:13  PAGE 44


      00FF808DH   LINE      CODE     ---       #468
      00FF80BAH   LINE      CODE     ---       #469
      00FF80C1H   LINE      CODE     ---       #472
      00FF80CAH   LINE      CODE     ---       #474
      00FF80D4H   LINE      CODE     ---       #475
      00FF80D6H   LINE      CODE     ---       #476
      00FF80DFH   LINE      CODE     ---       #478
      00FF80E9H   LINE      CODE     ---       #479
      00FF80EBH   LINE      CODE     ---       #480
      00FF80F4H   LINE      CODE     ---       #482
      00FF80FEH   LINE      CODE     ---       #483
      00FF8100H   LINE      CODE     ---       #484
      00FF8109H   LINE      CODE     ---       #486
      00FF8113H   LINE      CODE     ---       #487
      ---         BLOCKEND  ---      ---       LVL=0

      ---         MODULE    ---      ---       zf_common_fifo
      00FF3F80H   PUBLIC    CODE     ---       fifo_read_buffer
      00FF4531H   PUBLIC    CODE     ---       fifo_write_buffer
      00FF8C04H   PUBLIC    CODE     ---       fifo_used
      00FF7AD7H   PUBLIC    CODE     ---       fifo_init
      00011596H   PUBLIC    XDATA    BYTE      ?fifo_write_buffer?BYTE
      0001140DH   PUBLIC    XDATA    BYTE      ?fifo_read_buffer?BYTE
      00011741H   PUBLIC    XDATA    BYTE      ?fifo_init?BYTE
      000000D0H   SFRSYM    DATA     BYTE      PSW
      0000009DH   SFRSYM    DATA     BYTE      IRCBAND
      00000097H   SFRSYM    DATA     BYTE      AUXR2
      000000EFH   SFRSYM    DATA     BYTE      AUXINTIF
      000000FDH   SFRSYM    DATA     BYTE      S4CON
      000000ACH   SFRSYM    DATA     BYTE      S3CON
      0000009AH   SFRSYM    DATA     BYTE      S2CON
      000000B7H   SFRSYM    DATA     BYTE      IPH
      000000CDH   SFRSYM    DATA     BYTE      SPSTAT
      000000DDH   SFRSYM    DATA     BYTE      T4T3M
      000000C1H   SFRSYM    DATA     BYTE      WDT_CONTR
      000000DFH   SFRSYM    DATA     BYTE      IP3
      000000F4H   SFRSYM    DATA     BYTE      USBCON
      000000B5H   SFRSYM    DATA     BYTE      IP2
      000000FFH   SFRSYM    DATA     BYTE      RSTCFG
      000000C7H   SFRSYM    DATA     BYTE      IAP_CONTR
      000000F9H   SFRSYM    DATA     BYTE      LINICR
      0000008EH   SFRSYM    DATA     BYTE      AUXR
      000000AFH   SFRSYM    DATA     BYTE      IE2
      00000088H   SFRSYM    DATA     BYTE      TCON
      00000089H   SFRSYM    DATA     BYTE      TMOD
      00000098H   SFRSYM    DATA     BYTE      SCON
      000000F1H   SFRSYM    DATA     BYTE      CANICR
      00000087H   SFRSYM    DATA     BYTE      PCON
      000000BCH   SFRSYM    DATA     BYTE      ADC_CONTR
      000000E7H   SFRSYM    DATA     BYTE      CMPCR2
      000000E6H   SFRSYM    DATA     BYTE      CMPCR1
      000000DEH   SFRSYM    DATA     BYTE      ADCCFG
      000000B8H   SFRSYM    DATA     BYTE      IP
      0000008FH   SFRSYM    DATA     BYTE      INTCLKO
      000000EEH   SFRSYM    DATA     BYTE      IP3H
      000000B6H   SFRSYM    DATA     BYTE      IP2H
      000000A8H   SFRSYM    DATA     BYTE      IE
      000000BBH   SFRSYM    DATA     BYTE      P_SW3
      000000BAH   SFRSYM    DATA     BYTE      P_SW2
      000000A2H   SFRSYM    DATA     BYTE      P_SW1
      000000CEH   SFRSYM    DATA     BYTE      SPCTL
      000000F8H   SFRSYM    DATA     BYTE      P7
      000000E8H   SFRSYM    DATA     BYTE      P6
      000000C8H   SFRSYM    DATA     BYTE      P5
      000000C0H   SFRSYM    DATA     BYTE      P4
L251 LINKER/LOCATER V4.66.93.0                                                        03/29/2026  20:20:13  PAGE 45


      000000B0H   SFRSYM    DATA     BYTE      P3
      000000A0H   SFRSYM    DATA     BYTE      P2
      00000090H   SFRSYM    DATA     BYTE      P1
      00000080H   SFRSYM    DATA     BYTE      P0
      00FF81BBH   SYMBOL    CODE     ---       fifo_head_offset
      00FF825BH   SYMBOL    CODE     ---       fifo_end_offset

      00FF81BBH   BLOCK     CODE     ---       LVL=0
      00011C2DH   SYMBOL    XDATA    ---       fifo
      00011C31H   SYMBOL    XDATA    DWORD     offset
      00FF81BBH   LINE      CODE     ---       #51
      00FF81CFH   LINE      CODE     ---       #53
      00FF81F7H   LINE      CODE     ---       #55
      00FF81F9H   LINE      CODE     ---       #57
      00FF822CH   LINE      CODE     ---       #58
      00FF825AH   LINE      CODE     ---       #59
      ---         BLOCKEND  ---      ---       LVL=0

      00FF825BH   BLOCK     CODE     ---       LVL=0
      00011C35H   SYMBOL    XDATA    ---       fifo
      00011C39H   SYMBOL    XDATA    DWORD     offset
      00FF825BH   LINE      CODE     ---       #69
      00FF826FH   LINE      CODE     ---       #71
      00FF8297H   LINE      CODE     ---       #73
      00FF8299H   LINE      CODE     ---       #75
      00FF82CCH   LINE      CODE     ---       #76
      00FF82FAH   LINE      CODE     ---       #77
      ---         BLOCKEND  ---      ---       LVL=0
      00011D3FH   SYMBOL    XDATA    ---       fifo
      00011D43H   SYMBOL    XDATA    INT       return_state

      00FF8C04H   BLOCK     CODE     ---       LVL=0
      00011E7BH   SYMBOL    XDATA    ---       fifo
      00FF8C04H   LINE      CODE     ---       #120
      00FF8C0EH   LINE      CODE     ---       #122
      00FF8C30H   LINE      CODE     ---       #123
      00FF8C5CH   LINE      CODE     ---       #124
      ---         BLOCKEND  ---      ---       LVL=0

      00FF4531H   BLOCK     CODE     ---       LVL=0
      00011596H   SYMBOL    XDATA    ---       fifo
      0001159AH   SYMBOL    XDATA    ---       dat
      0001159EH   SYMBOL    XDATA    DWORD     length
      00FF4545H   BLOCK     CODE     NEAR LAB  LVL=1
      000115A2H   SYMBOL    XDATA    INT       return_state
      000115A4H   SYMBOL    XDATA    DWORD     temp_length
      ---         BLOCKEND  ---      ---       LVL=1
      00FF4531H   LINE      CODE     ---       #178
      00FF4545H   LINE      CODE     ---       #179
      00FF4545H   LINE      CODE     ---       #180
      00FF454DH   LINE      CODE     ---       #181
      00FF4559H   LINE      CODE     ---       #182
      00FF457BH   LINE      CODE     ---       #184
      00FF457BH   LINE      CODE     ---       #186
      00FF4589H   LINE      CODE     ---       #188
      00FF4593H   LINE      CODE     ---       #189
      00FF4596H   LINE      CODE     ---       #190
      00FF4596H   LINE      CODE     ---       #191
      00FF45B1H   LINE      CODE     ---       #193
      00FF45BBH   LINE      CODE     ---       #194
      00FF45BEH   LINE      CODE     ---       #195
      00FF45BEH   LINE      CODE     ---       #196
      00FF45D2H   LINE      CODE     ---       #198
      00FF45F8H   LINE      CODE     ---       #200
      00FF462EH   LINE      CODE     ---       #202
L251 LINKER/LOCATER V4.66.93.0                                                        03/29/2026  20:20:13  PAGE 46


      00FF4649H   LINE      CODE     ---       #204
      00FF466DH   LINE      CODE     ---       #206
      00FF466DH   LINE      CODE     ---       #208
      00FF46B4H   LINE      CODE     ---       #211
      00FF46CBH   LINE      CODE     ---       #212
      00FF4730H   LINE      CODE     ---       #216
      00FF4753H   LINE      CODE     ---       #217
      00FF4756H   LINE      CODE     ---       #218
      00FF4756H   LINE      CODE     ---       #220
      00FF47A1H   LINE      CODE     ---       #223
      00FF47B8H   LINE      CODE     ---       #224
      00FF481FH   LINE      CODE     ---       #228
      00FF4842H   LINE      CODE     ---       #229
      00FF4845H   LINE      CODE     ---       #230
      00FF4845H   LINE      CODE     ---       #232
      00FF4894H   LINE      CODE     ---       #235
      00FF48ABH   LINE      CODE     ---       #236
      00FF4918H   LINE      CODE     ---       #240
      00FF493BH   LINE      CODE     ---       #241
      00FF493BH   LINE      CODE     ---       #242
      00FF493BH   LINE      CODE     ---       #243
      00FF493EH   LINE      CODE     ---       #246
      00FF495FH   LINE      CODE     ---       #248
      00FF495FH   LINE      CODE     ---       #250
      00FF49A6H   LINE      CODE     ---       #253
      00FF49BDH   LINE      CODE     ---       #254
      00FF49C0H   LINE      CODE     ---       #255
      00FF49C0H   LINE      CODE     ---       #257
      00FF4A0BH   LINE      CODE     ---       #260
      00FF4A22H   LINE      CODE     ---       #261
      00FF4A24H   LINE      CODE     ---       #262
      00FF4A24H   LINE      CODE     ---       #264
      00FF4A73H   LINE      CODE     ---       #267
      00FF4A8AH   LINE      CODE     ---       #268
      00FF4A8AH   LINE      CODE     ---       #269
      00FF4A8AH   LINE      CODE     ---       #270
      00FF4A8AH   LINE      CODE     ---       #272
      00FF4AB2H   LINE      CODE     ---       #273
      00FF4AB4H   LINE      CODE     ---       #276
      00FF4ABEH   LINE      CODE     ---       #277
      00FF4ABEH   LINE      CODE     ---       #278
      00FF4AD2H   LINE      CODE     ---       #279
      00FF4AD2H   LINE      CODE     ---       #281
      00FF4AD8H   LINE      CODE     ---       #282
      ---         BLOCKEND  ---      ---       LVL=0

      00FF3F80H   BLOCK     CODE     ---       LVL=0
      0001140DH   SYMBOL    XDATA    ---       fifo
      00011411H   SYMBOL    XDATA    ---       dat
      00011415H   SYMBOL    XDATA    ---       length
      00011419H   SYMBOL    XDATA    INT       flag
      00FF3F94H   BLOCK     CODE     NEAR LAB  LVL=1
      0001141BH   SYMBOL    XDATA    INT       return_state
      0001141DH   SYMBOL    XDATA    DWORD     temp_length
      00011421H   SYMBOL    XDATA    DWORD     fifo_data_length
      ---         BLOCKEND  ---      ---       LVL=1
      00FF3F80H   LINE      CODE     ---       #355
      00FF3F94H   LINE      CODE     ---       #356
      00FF3F94H   LINE      CODE     ---       #357
      00FF3F9CH   LINE      CODE     ---       #358
      00FF3FA8H   LINE      CODE     ---       #359
      00FF3FB4H   LINE      CODE     ---       #361
      00FF3FD6H   LINE      CODE     ---       #362
      00FF3FF8H   LINE      CODE     ---       #364
      00FF3FF8H   LINE      CODE     ---       #366
L251 LINKER/LOCATER V4.66.93.0                                                        03/29/2026  20:20:13  PAGE 47


      00FF4006H   LINE      CODE     ---       #368
      00FF4010H   LINE      CODE     ---       #369
      00FF4013H   LINE      CODE     ---       #372
      00FF402EH   LINE      CODE     ---       #374
      00FF4049H   LINE      CODE     ---       #375
      00FF4053H   LINE      CODE     ---       #376
      00FF4056H   LINE      CODE     ---       #377
      00FF4056H   LINE      CODE     ---       #379
      00FF406DH   LINE      CODE     ---       #380
      00FF408CH   LINE      CODE     ---       #382
      00FF40A7H   LINE      CODE     ---       #383
      00FF40B1H   LINE      CODE     ---       #384
      00FF40BFH   LINE      CODE     ---       #386
      00FF40D3H   LINE      CODE     ---       #387
      00FF40D6H   LINE      CODE     ---       #388
      00FF40D6H   LINE      CODE     ---       #391
      00FF40EAH   LINE      CODE     ---       #392
      00FF4120H   LINE      CODE     ---       #393
      00FF4142H   LINE      CODE     ---       #395
      00FF4163H   LINE      CODE     ---       #397
      00FF41B6H   LINE      CODE     ---       #398
      00FF420DH   LINE      CODE     ---       #399
      00FF4265H   LINE      CODE     ---       #400
      00FF4265H   LINE      CODE     ---       #401
      00FF4268H   LINE      CODE     ---       #404
      00FF428CH   LINE      CODE     ---       #406
      00FF428CH   LINE      CODE     ---       #408
      00FF42D5H   LINE      CODE     ---       #409
      00FF4326H   LINE      CODE     ---       #410
      00FF4329H   LINE      CODE     ---       #411
      00FF4329H   LINE      CODE     ---       #413
      00FF4376H   LINE      CODE     ---       #414
      00FF43C9H   LINE      CODE     ---       #415
      00FF43CCH   LINE      CODE     ---       #416
      00FF43CCH   LINE      CODE     ---       #418
      00FF441DH   LINE      CODE     ---       #419
      00FF4474H   LINE      CODE     ---       #420
      00FF4474H   LINE      CODE     ---       #421
      00FF4474H   LINE      CODE     ---       #422
      00FF4474H   LINE      CODE     ---       #423
      00FF4488H   LINE      CODE     ---       #424
      00FF4488H   LINE      CODE     ---       #426
      00FF4497H   LINE      CODE     ---       #428
      00FF44A9H   LINE      CODE     ---       #430
      00FF44B3H   LINE      CODE     ---       #431
      00FF44B5H   LINE      CODE     ---       #432
      00FF44B5H   LINE      CODE     ---       #433
      00FF44C9H   LINE      CODE     ---       #434
      00FF44E7H   LINE      CODE     ---       #435
      00FF4516H   LINE      CODE     ---       #436
      00FF452AH   LINE      CODE     ---       #437
      00FF452AH   LINE      CODE     ---       #440
      00FF4530H   LINE      CODE     ---       #441
      ---         BLOCKEND  ---      ---       LVL=0

      00FF7AD7H   BLOCK     CODE     ---       LVL=0
      00011741H   SYMBOL    XDATA    ---       fifo
      00011745H   SYMBOL    XDATA    INT       type
      00011747H   SYMBOL    XDATA    ---       buffer_addr
      0001174BH   SYMBOL    XDATA    DWORD     siz
      00FF7AD7H   LINE      CODE     ---       #549
      00FF7AE7H   LINE      CODE     ---       #551
      00FF7B09H   LINE      CODE     ---       #552
      00FF7B09H   LINE      CODE     ---       #554
      00FF7B28H   LINE      CODE     ---       #555
L251 LINKER/LOCATER V4.66.93.0                                                        03/29/2026  20:20:13  PAGE 48


      00FF7B36H   LINE      CODE     ---       #556
      00FF7B4BH   LINE      CODE     ---       #557
      00FF7B62H   LINE      CODE     ---       #558
      00FF7B79H   LINE      CODE     ---       #559
      00FF7B98H   LINE      CODE     ---       #560
      00FF7BB7H   LINE      CODE     ---       #561
      00FF7BB7H   LINE      CODE     ---       #562
      00FF7BB9H   LINE      CODE     ---       #563
      ---         BLOCKEND  ---      ---       LVL=0

      ---         MODULE    ---      ---       zf_common_font
      00FF3990H   PUBLIC    CODE     ---       ascii_font_8x16
      000000D0H   SFRSYM    DATA     BYTE      PSW
      0000009DH   SFRSYM    DATA     BYTE      IRCBAND
      00000097H   SFRSYM    DATA     BYTE      AUXR2
      000000EFH   SFRSYM    DATA     BYTE      AUXINTIF
      000000FDH   SFRSYM    DATA     BYTE      S4CON
      000000ACH   SFRSYM    DATA     BYTE      S3CON
      0000009AH   SFRSYM    DATA     BYTE      S2CON
      000000B7H   SFRSYM    DATA     BYTE      IPH
      000000CDH   SFRSYM    DATA     BYTE      SPSTAT
      000000DDH   SFRSYM    DATA     BYTE      T4T3M
      000000C1H   SFRSYM    DATA     BYTE      WDT_CONTR
      000000DFH   SFRSYM    DATA     BYTE      IP3
      000000F4H   SFRSYM    DATA     BYTE      USBCON
      000000B5H   SFRSYM    DATA     BYTE      IP2
      000000FFH   SFRSYM    DATA     BYTE      RSTCFG
      000000C7H   SFRSYM    DATA     BYTE      IAP_CONTR
      000000F9H   SFRSYM    DATA     BYTE      LINICR
      0000008EH   SFRSYM    DATA     BYTE      AUXR
      000000AFH   SFRSYM    DATA     BYTE      IE2
      00000088H   SFRSYM    DATA     BYTE      TCON
      00000089H   SFRSYM    DATA     BYTE      TMOD
      00000098H   SFRSYM    DATA     BYTE      SCON
      000000F1H   SFRSYM    DATA     BYTE      CANICR
      00000087H   SFRSYM    DATA     BYTE      PCON
      000000BCH   SFRSYM    DATA     BYTE      ADC_CONTR
      000000E7H   SFRSYM    DATA     BYTE      CMPCR2
      000000E6H   SFRSYM    DATA     BYTE      CMPCR1
      000000DEH   SFRSYM    DATA     BYTE      ADCCFG
      000000B8H   SFRSYM    DATA     BYTE      IP
      0000008FH   SFRSYM    DATA     BYTE      INTCLKO
      000000EEH   SFRSYM    DATA     BYTE      IP3H
      000000B6H   SFRSYM    DATA     BYTE      IP2H
      000000A8H   SFRSYM    DATA     BYTE      IE
      000000BBH   SFRSYM    DATA     BYTE      P_SW3
      000000BAH   SFRSYM    DATA     BYTE      P_SW2
      000000A2H   SFRSYM    DATA     BYTE      P_SW1
      000000CEH   SFRSYM    DATA     BYTE      SPCTL
      000000F8H   SFRSYM    DATA     BYTE      P7
      000000E8H   SFRSYM    DATA     BYTE      P6
      000000C8H   SFRSYM    DATA     BYTE      P5
      000000C0H   SFRSYM    DATA     BYTE      P4
      000000B0H   SFRSYM    DATA     BYTE      P3
      000000A0H   SFRSYM    DATA     BYTE      P2
      00000090H   SFRSYM    DATA     BYTE      P1
      00000080H   SFRSYM    DATA     BYTE      P0

      ---         MODULE    ---      ---       zf_common_function
      00FF3071H   PUBLIC    CODE     ---       zf_sprintf
      00010D50H   PUBLIC    XDATA    BYTE      ?vsnprintf?BYTE
      00010C12H   PUBLIC    XDATA    BYTE      ?zf_sprintf?BYTE
      000000D0H   SFRSYM    DATA     BYTE      PSW
      0000009DH   SFRSYM    DATA     BYTE      IRCBAND
      00000097H   SFRSYM    DATA     BYTE      AUXR2
L251 LINKER/LOCATER V4.66.93.0                                                        03/29/2026  20:20:13  PAGE 49


      000000EFH   SFRSYM    DATA     BYTE      AUXINTIF
      000000FDH   SFRSYM    DATA     BYTE      S4CON
      000000ACH   SFRSYM    DATA     BYTE      S3CON
      0000009AH   SFRSYM    DATA     BYTE      S2CON
      000000B7H   SFRSYM    DATA     BYTE      IPH
      000000CDH   SFRSYM    DATA     BYTE      SPSTAT
      000000DDH   SFRSYM    DATA     BYTE      T4T3M
      000000C1H   SFRSYM    DATA     BYTE      WDT_CONTR
      000000DFH   SFRSYM    DATA     BYTE      IP3
      000000F4H   SFRSYM    DATA     BYTE      USBCON
      000000B5H   SFRSYM    DATA     BYTE      IP2
      000000FFH   SFRSYM    DATA     BYTE      RSTCFG
      000000C7H   SFRSYM    DATA     BYTE      IAP_CONTR
      000000F9H   SFRSYM    DATA     BYTE      LINICR
      0000008EH   SFRSYM    DATA     BYTE      AUXR
      000000AFH   SFRSYM    DATA     BYTE      IE2
      00000088H   SFRSYM    DATA     BYTE      TCON
      00000089H   SFRSYM    DATA     BYTE      TMOD
      00000098H   SFRSYM    DATA     BYTE      SCON
      000000F1H   SFRSYM    DATA     BYTE      CANICR
      00000087H   SFRSYM    DATA     BYTE      PCON
      000000BCH   SFRSYM    DATA     BYTE      ADC_CONTR
      000000E7H   SFRSYM    DATA     BYTE      CMPCR2
      000000E6H   SFRSYM    DATA     BYTE      CMPCR1
      000000DEH   SFRSYM    DATA     BYTE      ADCCFG
      000000B8H   SFRSYM    DATA     BYTE      IP
      0000008FH   SFRSYM    DATA     BYTE      INTCLKO
      000000EEH   SFRSYM    DATA     BYTE      IP3H
      000000B6H   SFRSYM    DATA     BYTE      IP2H
      000000A8H   SFRSYM    DATA     BYTE      IE
      000000BBH   SFRSYM    DATA     BYTE      P_SW3
      000000BAH   SFRSYM    DATA     BYTE      P_SW2
      000000A2H   SFRSYM    DATA     BYTE      P_SW1
      000000CEH   SFRSYM    DATA     BYTE      SPCTL
      000000F8H   SFRSYM    DATA     BYTE      P7
      000000E8H   SFRSYM    DATA     BYTE      P6
      000000C8H   SFRSYM    DATA     BYTE      P5
      000000C0H   SFRSYM    DATA     BYTE      P4
      000000B0H   SFRSYM    DATA     BYTE      P3
      000000A0H   SFRSYM    DATA     BYTE      P2
      00000090H   SFRSYM    DATA     BYTE      P1
      00000080H   SFRSYM    DATA     BYTE      P0
      00FF9F83H   SYMBOL    HCONST   ---       ?tpl?0001
      00FF9F93H   SYMBOL    HCONST   ---       ?tpl?0002
      00FF7117H   SYMBOL    CODE     ---       number_conversion_ascii
      00FF79DEH   SYMBOL    CODE     ---       printf_reverse_order
      00011C3DH   SYMBOL    XDATA    DWORD     num1
      00011C41H   SYMBOL    XDATA    DWORD     num2
      00011E7FH   SYMBOL    XDATA    LONG      t
      00011B21H   SYMBOL    XDATA    ---       str
      00011B25H   SYMBOL    XDATA    BYTE      sign
      00011B26H   SYMBOL    XDATA    LONG      temp
      00011305H   SYMBOL    XDATA    ---       str
      00011309H   SYMBOL    XDATA    LONG      number
      0001130DH   SYMBOL    XDATA    ---       data_temp
      0001131DH   SYMBOL    XDATA    BYTE      temp_bit
      0001131EH   SYMBOL    XDATA    LONG      number_temp
      00011C45H   SYMBOL    XDATA    ---       str
      00011C49H   SYMBOL    XDATA    DWORD     temp
      000113A9H   SYMBOL    XDATA    ---       str
      000113ADH   SYMBOL    XDATA    DWORD     number
      000113B1H   SYMBOL    XDATA    ---       data_temp
      000113C1H   SYMBOL    XDATA    BYTE      temp_bit
      000115DEH   SYMBOL    XDATA    ---       str
      000115E2H   SYMBOL    XDATA    BYTE      sign
L251 LINKER/LOCATER V4.66.93.0                                                        03/29/2026  20:20:13  PAGE 50


      000115E3H   SYMBOL    XDATA    FLOAT     temp
      000115E7H   SYMBOL    XDATA    FLOAT     temp_point
      000115EBH   SYMBOL    XDATA    FLOAT     point_bit
      00011121H   SYMBOL    XDATA    ---       str
      00011125H   SYMBOL    XDATA    FLOAT     number
      00011129H   SYMBOL    XDATA    BYTE      point_bit
      0001112AH   SYMBOL    XDATA    INT       data_int
      0001112CH   SYMBOL    XDATA    INT       data_float
      0001112EH   SYMBOL    XDATA    ---       data_temp
      0001113EH   SYMBOL    XDATA    ---       data_temp_point
      0001114AH   SYMBOL    XDATA    BYTE      temp_bit
      000115EFH   SYMBOL    XDATA    ---       str
      000115F3H   SYMBOL    XDATA    BYTE      sign
      000115F4H   SYMBOL    XDATA    FLOAT     temp
      000115F8H   SYMBOL    XDATA    FLOAT     temp_point
      000115FCH   SYMBOL    XDATA    FLOAT     point_bit
      00010F4BH   SYMBOL    XDATA    ---       str
      00010F4FH   SYMBOL    XDATA    FLOAT     number
      00010F53H   SYMBOL    XDATA    BYTE      point_bit
      00010F54H   SYMBOL    XDATA    INT       data_int
      00010F56H   SYMBOL    XDATA    INT       data_float
      00010F58H   SYMBOL    XDATA    ---       data_temp
      00010F70H   SYMBOL    XDATA    ---       data_temp_point
      00010F82H   SYMBOL    XDATA    BYTE      temp_bit
      0001174FH   SYMBOL    XDATA    ---       str
      00011753H   SYMBOL    XDATA    DWORD     str_len
      00011757H   SYMBOL    XDATA    DWORD     result_data
      0001175BH   SYMBOL    XDATA    BYTE      temp
      0001175CH   SYMBOL    XDATA    BYTE      flag
      000111C5H   SYMBOL    XDATA    ---       str
      000111C9H   SYMBOL    XDATA    DWORD     number
      000111CDH   SYMBOL    XDATA    ---       hex_index
      000111DDH   SYMBOL    XDATA    ---       data_temp
      000111E9H   SYMBOL    XDATA    BYTE      temp_bit

      00FF7117H   BLOCK     CODE     ---       LVL=0
      000114ABH   SYMBOL    XDATA    DWORD     dat
      000114AFH   SYMBOL    XDATA    ---       p
      000114B3H   SYMBOL    XDATA    BYTE      neg_type
      000114B4H   SYMBOL    XDATA    BYTE      radix
      00FF712FH   BLOCK     CODE     NEAR LAB  LVL=1
      000114B5H   SYMBOL    XDATA    LONG      neg_dat
      000114B9H   SYMBOL    XDATA    DWORD     pos_dat
      000114BDH   SYMBOL    XDATA    BYTE      temp_data
      000114BEH   SYMBOL    XDATA    BYTE      valid_num
      ---         BLOCKEND  ---      ---       LVL=1
      00FF7117H   LINE      CODE     ---       #647
      00FF712FH   LINE      CODE     ---       #648
      00FF712FH   LINE      CODE     ---       #651
      00FF7134H   LINE      CODE     ---       #652
      00FF7139H   LINE      CODE     ---       #654
      00FF7145H   LINE      CODE     ---       #656
      00FF7159H   LINE      CODE     ---       #657
      00FF7169H   LINE      CODE     ---       #659
      00FF7187H   LINE      CODE     ---       #660
      00FF7187H   LINE      CODE     ---       #661
      00FF7187H   LINE      CODE     ---       #663
      00FF71AFH   LINE      CODE     ---       #664
      00FF71CBH   LINE      CODE     ---       #665
      00FF71D6H   LINE      CODE     ---       #667
      00FF71E4H   LINE      CODE     ---       #669
      00FF71E4H   LINE      CODE     ---       #670
      00FF71E4H   LINE      CODE     ---       #671
      00FF71F7H   LINE      CODE     ---       #672
      00FF71F9H   LINE      CODE     ---       #673
L251 LINKER/LOCATER V4.66.93.0                                                        03/29/2026  20:20:13  PAGE 51


      00FF71FCH   LINE      CODE     ---       #676
      00FF7210H   LINE      CODE     ---       #677
      00FF7210H   LINE      CODE     ---       #679
      00FF722BH   LINE      CODE     ---       #680
      00FF7237H   LINE      CODE     ---       #682
      00FF7241H   LINE      CODE     ---       #683
      00FF7243H   LINE      CODE     ---       #686
      00FF724DH   LINE      CODE     ---       #687
      00FF724DH   LINE      CODE     ---       #689
      00FF725EH   LINE      CODE     ---       #691
      00FF727AH   LINE      CODE     ---       #692
      00FF7285H   LINE      CODE     ---       #694
      00FF7293H   LINE      CODE     ---       #696
      00FF7293H   LINE      CODE     ---       #697
      00FF7293H   LINE      CODE     ---       #698
      00FF72A6H   LINE      CODE     ---       #699
      00FF72A9H   LINE      CODE     ---       #700
      00FF72A9H   LINE      CODE     ---       #701
      00FF72ADH   LINE      CODE     ---       #702
      ---         BLOCKEND  ---      ---       LVL=0

      00FF79DEH   BLOCK     CODE     ---       LVL=0
      00011805H   SYMBOL    XDATA    ---       d_buff
      00011809H   SYMBOL    XDATA    DWORD     len
      00FF79F2H   BLOCK     CODE     NEAR LAB  LVL=1
      0001180DH   SYMBOL    XDATA    DWORD     i
      00011811H   SYMBOL    XDATA    CHAR      temp_data
      ---         BLOCKEND  ---      ---       LVL=1
      00FF79DEH   LINE      CODE     ---       #712
      00FF79F2H   LINE      CODE     ---       #713
      00FF79F2H   LINE      CODE     ---       #716
      00FF7A01H   LINE      CODE     ---       #718
      00FF7A32H   LINE      CODE     ---       #719
      00FF7A7AH   LINE      CODE     ---       #720
      00FF7A99H   LINE      CODE     ---       #721
      00FF7AD6H   LINE      CODE     ---       #722
      ---         BLOCKEND  ---      ---       LVL=0
      00010D50H   SYMBOL    XDATA    ---       buffer
      00010D54H   SYMBOL    XDATA    DWORD     siz
      00010D58H   SYMBOL    XDATA    ---       format
      00010D5CH   SYMBOL    XDATA    ---       args
      00010D60H   SYMBOL    XDATA    DWORD     i
      00010D64H   SYMBOL    XDATA    ---       ptr
      00010D68H   SYMBOL    XDATA    INT       j
      00010D6AH   SYMBOL    XDATA    INT       num
      00010D6CH   SYMBOL    XDATA    ---       temp
      00010D7CH   SYMBOL    XDATA    INT       len
      00010D7EH   SYMBOL    XDATA    INT       is_negative
      00010D80H   SYMBOL    XDATA    ---       str
      00010D84H   SYMBOL    XDATA    DWORD     num_x
      00010D88H   SYMBOL    XDATA    ---       temp_x
      00010D91H   SYMBOL    XDATA    ---       hex_digits
      00010DA2H   SYMBOL    XDATA    CHAR      t
      00010DA2H   SYMBOL    XDATA    CHAR      t

      00FF3071H   BLOCK     CODE     ---       LVL=0
      00010C12H   SYMBOL    XDATA    ---       buff
      00010C16H   SYMBOL    XDATA    ---       format
      00FF3085H   BLOCK     CODE     NEAR LAB  LVL=1
      00010C1AH   SYMBOL    XDATA    DWORD     buff_len
      00010C1EH   SYMBOL    XDATA    ---       arg
      00FF30A6H   BLOCK     CODE     NEAR LAB  LVL=2
      00010C22H   SYMBOL    XDATA    CHAR      ret
      00FF31EAH   BLOCK     CODE     NEAR LAB  LVL=3
      00010C23H   SYMBOL    XDATA    CHAR      ch
L251 LINKER/LOCATER V4.66.93.0                                                        03/29/2026  20:20:13  PAGE 52


      ---         BLOCKEND  ---      ---       LVL=3
      00FF3250H   BLOCK     CODE     NEAR LAB  LVL=3
      00010C23H   SYMBOL    XDATA    ---       vstr
      00010C44H   SYMBOL    XDATA    LONG      ival
      00010C48H   SYMBOL    XDATA    BYTE      vlen
      ---         BLOCKEND  ---      ---       LVL=3
      00FF333BH   BLOCK     CODE     NEAR LAB  LVL=3
      00010C23H   SYMBOL    XDATA    ---       vstr
      00010C44H   SYMBOL    XDATA    FLOAT     ival
      00010C48H   SYMBOL    XDATA    BYTE      vlen
      ---         BLOCKEND  ---      ---       LVL=3
      00FF3578H   BLOCK     CODE     NEAR LAB  LVL=3
      00010C23H   SYMBOL    XDATA    ---       vstr
      00010C44H   SYMBOL    XDATA    DWORD     ival
      00010C48H   SYMBOL    XDATA    BYTE      vlen
      ---         BLOCKEND  ---      ---       LVL=3
      00FF362FH   BLOCK     CODE     NEAR LAB  LVL=3
      00010C23H   SYMBOL    XDATA    ---       vstr
      00010C44H   SYMBOL    XDATA    DWORD     ival
      00010C48H   SYMBOL    XDATA    BYTE      vlen
      ---         BLOCKEND  ---      ---       LVL=3
      00FF36E6H   BLOCK     CODE     NEAR LAB  LVL=3
      00010C23H   SYMBOL    XDATA    ---       vstr
      00010C44H   SYMBOL    XDATA    DWORD     ival
      00010C48H   SYMBOL    XDATA    BYTE      vlen
      ---         BLOCKEND  ---      ---       LVL=3
      00FF379DH   BLOCK     CODE     NEAR LAB  LVL=3
      00010C23H   SYMBOL    XDATA    ---       pc
      ---         BLOCKEND  ---      ---       LVL=3
      00FF3839H   BLOCK     CODE     NEAR LAB  LVL=3
      00010C23H   SYMBOL    XDATA    ---       vstr
      00010C44H   SYMBOL    XDATA    DWORD     ival
      ---         BLOCKEND  ---      ---       LVL=3
      ---         BLOCKEND  ---      ---       LVL=2
      ---         BLOCKEND  ---      ---       LVL=1
      00FF3071H   LINE      CODE     ---       #875
      00FF3085H   LINE      CODE     ---       #876
      00FF3085H   LINE      CODE     ---       #877
      00FF3091H   LINE      CODE     ---       #879
      00FF30A3H   LINE      CODE     ---       #881
      00FF30A6H   LINE      CODE     ---       #882
      00FF30A6H   LINE      CODE     ---       #883
      00FF30B7H   LINE      CODE     ---       #884
      00FF30C3H   LINE      CODE     ---       #886
      00FF31E7H   LINE      CODE     ---       #888
      00FF31E7H   LINE      CODE     ---       #891
      00FF31EAH   LINE      CODE     ---       #893
      00FF31EAH   LINE      CODE     ---       #894
      00FF31EAH   LINE      CODE     ---       #895
      00FF3212H   LINE      CODE     ---       #896
      00FF3223H   LINE      CODE     ---       #897
      00FF3236H   LINE      CODE     ---       #898
      00FF324DH   LINE      CODE     ---       #900
      00FF3250H   LINE      CODE     ---       #902
      00FF3250H   LINE      CODE     ---       #903
      00FF3250H   LINE      CODE     ---       #904
      00FF3250H   LINE      CODE     ---       #906
      00FF327EH   LINE      CODE     ---       #907
      00FF329FH   LINE      CODE     ---       #909
      00FF32AFH   LINE      CODE     ---       #911
      00FF32C7H   LINE      CODE     ---       #912
      00FF32D2H   LINE      CODE     ---       #913
      00FF32D2H   LINE      CODE     ---       #914
      00FF32E5H   LINE      CODE     ---       #915
      00FF3304H   LINE      CODE     ---       #916
L251 LINKER/LOCATER V4.66.93.0                                                        03/29/2026  20:20:13  PAGE 53


      00FF331DH   LINE      CODE     ---       #917
      00FF3338H   LINE      CODE     ---       #919
      00FF333BH   LINE      CODE     ---       #921
      00FF333BH   LINE      CODE     ---       #922
      00FF333BH   LINE      CODE     ---       #923
      00FF333BH   LINE      CODE     ---       #925
      00FF3369H   LINE      CODE     ---       #926
      00FF338DH   LINE      CODE     ---       #928
      00FF339EH   LINE      CODE     ---       #930
      00FF33B6H   LINE      CODE     ---       #931
      00FF33C1H   LINE      CODE     ---       #932
      00FF33C1H   LINE      CODE     ---       #933
      00FF33D4H   LINE      CODE     ---       #934
      00FF33F3H   LINE      CODE     ---       #935
      00FF340CH   LINE      CODE     ---       #936
      00FF3427H   LINE      CODE     ---       #938
      00FF345DH   LINE      CODE     ---       #939
      00FF346BH   LINE      CODE     ---       #941
      00FF348FH   LINE      CODE     ---       #942
      00FF3491H   LINE      CODE     ---       #945
      00FF34B5H   LINE      CODE     ---       #946
      00FF34BBH   LINE      CODE     ---       #947
      00FF34BBH   LINE      CODE     ---       #949
      00FF34BDH   LINE      CODE     ---       #951
      00FF34D5H   LINE      CODE     ---       #952
      00FF34E0H   LINE      CODE     ---       #953
      00FF34ECH   LINE      CODE     ---       #955
      00FF3504H   LINE      CODE     ---       #956
      00FF350FH   LINE      CODE     ---       #958
      00FF3522H   LINE      CODE     ---       #959
      00FF3541H   LINE      CODE     ---       #960
      00FF355AH   LINE      CODE     ---       #961
      00FF3575H   LINE      CODE     ---       #963
      00FF3578H   LINE      CODE     ---       #965
      00FF3578H   LINE      CODE     ---       #966
      00FF3578H   LINE      CODE     ---       #968
      00FF35A6H   LINE      CODE     ---       #969
      00FF35C6H   LINE      CODE     ---       #971
      00FF35D9H   LINE      CODE     ---       #972
      00FF35F8H   LINE      CODE     ---       #973
      00FF3611H   LINE      CODE     ---       #974
      00FF362CH   LINE      CODE     ---       #976
      00FF362FH   LINE      CODE     ---       #978
      00FF362FH   LINE      CODE     ---       #979
      00FF362FH   LINE      CODE     ---       #981
      00FF365DH   LINE      CODE     ---       #982
      00FF367DH   LINE      CODE     ---       #984
      00FF3690H   LINE      CODE     ---       #985
      00FF36AFH   LINE      CODE     ---       #986
      00FF36C8H   LINE      CODE     ---       #987
      00FF36E3H   LINE      CODE     ---       #990
      00FF36E6H   LINE      CODE     ---       #992
      00FF36E6H   LINE      CODE     ---       #993
      00FF36E6H   LINE      CODE     ---       #994
      00FF36E6H   LINE      CODE     ---       #996
      00FF3714H   LINE      CODE     ---       #997
      00FF3734H   LINE      CODE     ---       #999
      00FF3747H   LINE      CODE     ---       #1000
      00FF3766H   LINE      CODE     ---       #1001
      00FF377FH   LINE      CODE     ---       #1002
      00FF379AH   LINE      CODE     ---       #1004
      00FF379DH   LINE      CODE     ---       #1006
      00FF379DH   LINE      CODE     ---       #1007
      00FF379DH   LINE      CODE     ---       #1008
      00FF37CBH   LINE      CODE     ---       #1009
L251 LINKER/LOCATER V4.66.93.0                                                        03/29/2026  20:20:13  PAGE 54


      00FF37CDH   LINE      CODE     ---       #1011
      00FF37E7H   LINE      CODE     ---       #1012
      00FF37FAH   LINE      CODE     ---       #1013
      00FF3811H   LINE      CODE     ---       #1014
      00FF3824H   LINE      CODE     ---       #1015
      00FF3836H   LINE      CODE     ---       #1017
      00FF3839H   LINE      CODE     ---       #1019
      00FF3839H   LINE      CODE     ---       #1020
      00FF3839H   LINE      CODE     ---       #1022
      00FF3867H   LINE      CODE     ---       #1024
      00FF3883H   LINE      CODE     ---       #1025
      00FF3892H   LINE      CODE     ---       #1026
      00FF38AFH   LINE      CODE     ---       #1027
      00FF38C4H   LINE      CODE     ---       #1028
      00FF38DBH   LINE      CODE     ---       #1030
      00FF38DEH   LINE      CODE     ---       #1032
      00FF38DEH   LINE      CODE     ---       #1034
      00FF38EDH   LINE      CODE     ---       #1035
      00FF3900H   LINE      CODE     ---       #1036
      00FF3917H   LINE      CODE     ---       #1038
      00FF3919H   LINE      CODE     ---       #1040
      00FF3919H   LINE      CODE     ---       #1041
      00FF3919H   LINE      CODE     ---       #1042
      00FF3919H   LINE      CODE     ---       #1043
      00FF3919H   LINE      CODE     ---       #1046
      00FF3933H   LINE      CODE     ---       #1047
      00FF3946H   LINE      CODE     ---       #1048
      00FF395DH   LINE      CODE     ---       #1049
      00FF395DH   LINE      CODE     ---       #1050
      00FF3970H   LINE      CODE     ---       #1051
      00FF3985H   LINE      CODE     ---       #1054
      00FF398FH   LINE      CODE     ---       #1055
      ---         BLOCKEND  ---      ---       LVL=0

      ---         MODULE    ---      ---       zf_common_typedef
      000112C9H   PUBLIC    XDATA    ---       tim11_irq_handler
      000112CBH   PUBLIC    XDATA    ---       uart1_irq_handler
      000112CDH   PUBLIC    XDATA    ---       uart2_irq_handler
      000112CFH   PUBLIC    XDATA    ---       uart3_irq_handler
      000112D1H   PUBLIC    XDATA    ---       uart4_irq_handler
      000112D3H   PUBLIC    XDATA    ---       tim0_irq_handler
      000112D5H   PUBLIC    XDATA    ---       int0_irq_handler
      000112D7H   PUBLIC    XDATA    ---       tim1_irq_handler
      000112D9H   PUBLIC    XDATA    ---       int1_irq_handler
      000112DBH   PUBLIC    XDATA    ---       tim2_irq_handler
      000112DDH   PUBLIC    XDATA    ---       int2_irq_handler
      000112DFH   PUBLIC    XDATA    ---       tim3_irq_handler
      000112E1H   PUBLIC    XDATA    ---       int3_irq_handler
      000112E3H   PUBLIC    XDATA    ---       tim4_irq_handler
      000112E5H   PUBLIC    XDATA    ---       int4_irq_handler
      000000D0H   SFRSYM    DATA     BYTE      PSW
      0000009DH   SFRSYM    DATA     BYTE      IRCBAND
      00000097H   SFRSYM    DATA     BYTE      AUXR2
      000000EFH   SFRSYM    DATA     BYTE      AUXINTIF
      000000FDH   SFRSYM    DATA     BYTE      S4CON
      000000ACH   SFRSYM    DATA     BYTE      S3CON
      0000009AH   SFRSYM    DATA     BYTE      S2CON
      000000B7H   SFRSYM    DATA     BYTE      IPH
      000000CDH   SFRSYM    DATA     BYTE      SPSTAT
      000000DDH   SFRSYM    DATA     BYTE      T4T3M
      000000C1H   SFRSYM    DATA     BYTE      WDT_CONTR
      000000DFH   SFRSYM    DATA     BYTE      IP3
      000000F4H   SFRSYM    DATA     BYTE      USBCON
      000000B5H   SFRSYM    DATA     BYTE      IP2
      000000FFH   SFRSYM    DATA     BYTE      RSTCFG
L251 LINKER/LOCATER V4.66.93.0                                                        03/29/2026  20:20:13  PAGE 55


      000000C7H   SFRSYM    DATA     BYTE      IAP_CONTR
      000000F9H   SFRSYM    DATA     BYTE      LINICR
      0000008EH   SFRSYM    DATA     BYTE      AUXR
      000000AFH   SFRSYM    DATA     BYTE      IE2
      00000088H   SFRSYM    DATA     BYTE      TCON
      00000089H   SFRSYM    DATA     BYTE      TMOD
      00000098H   SFRSYM    DATA     BYTE      SCON
      000000F1H   SFRSYM    DATA     BYTE      CANICR
      00000087H   SFRSYM    DATA     BYTE      PCON
      000000BCH   SFRSYM    DATA     BYTE      ADC_CONTR
      000000E7H   SFRSYM    DATA     BYTE      CMPCR2
      000000E6H   SFRSYM    DATA     BYTE      CMPCR1
      000000DEH   SFRSYM    DATA     BYTE      ADCCFG
      000000B8H   SFRSYM    DATA     BYTE      IP
      0000008FH   SFRSYM    DATA     BYTE      INTCLKO
      000000EEH   SFRSYM    DATA     BYTE      IP3H
      000000B6H   SFRSYM    DATA     BYTE      IP2H
      000000A8H   SFRSYM    DATA     BYTE      IE
      000000BBH   SFRSYM    DATA     BYTE      P_SW3
      000000BAH   SFRSYM    DATA     BYTE      P_SW2
      000000A2H   SFRSYM    DATA     BYTE      P_SW1
      000000CEH   SFRSYM    DATA     BYTE      SPCTL
      000000F8H   SFRSYM    DATA     BYTE      P7
      000000E8H   SFRSYM    DATA     BYTE      P6
      000000C8H   SFRSYM    DATA     BYTE      P5
      000000C0H   SFRSYM    DATA     BYTE      P4
      000000B0H   SFRSYM    DATA     BYTE      P3
      000000A0H   SFRSYM    DATA     BYTE      P2
      00000090H   SFRSYM    DATA     BYTE      P1
      00000080H   SFRSYM    DATA     BYTE      P0

      ---         MODULE    ---      ---       zf_common_interrupt
      00FF0006H   PUBLIC    CODE     ---       interrupt_global_enable
      000000D0H   SFRSYM    DATA     BYTE      PSW
      0000009DH   SFRSYM    DATA     BYTE      IRCBAND
      00000097H   SFRSYM    DATA     BYTE      AUXR2
      000000EFH   SFRSYM    DATA     BYTE      AUXINTIF
      000000FDH   SFRSYM    DATA     BYTE      S4CON
      000000ACH   SFRSYM    DATA     BYTE      S3CON
      0000009AH   SFRSYM    DATA     BYTE      S2CON
      000000B7H   SFRSYM    DATA     BYTE      IPH
      000000CDH   SFRSYM    DATA     BYTE      SPSTAT
      000000DDH   SFRSYM    DATA     BYTE      T4T3M
      000000C1H   SFRSYM    DATA     BYTE      WDT_CONTR
      000000DFH   SFRSYM    DATA     BYTE      IP3
      000000F4H   SFRSYM    DATA     BYTE      USBCON
      000000B5H   SFRSYM    DATA     BYTE      IP2
      000000FFH   SFRSYM    DATA     BYTE      RSTCFG
      000000C7H   SFRSYM    DATA     BYTE      IAP_CONTR
      000000F9H   SFRSYM    DATA     BYTE      LINICR
      0000008EH   SFRSYM    DATA     BYTE      AUXR
      000000AFH   SFRSYM    DATA     BYTE      IE2
      00000088H   SFRSYM    DATA     BYTE      TCON
      00000089H   SFRSYM    DATA     BYTE      TMOD
      00000098H   SFRSYM    DATA     BYTE      SCON
      000000F1H   SFRSYM    DATA     BYTE      CANICR
      00000087H   SFRSYM    DATA     BYTE      PCON
      000000BCH   SFRSYM    DATA     BYTE      ADC_CONTR
      000000E7H   SFRSYM    DATA     BYTE      CMPCR2
      000000E6H   SFRSYM    DATA     BYTE      CMPCR1
      000000DEH   SFRSYM    DATA     BYTE      ADCCFG
      000000B8H   SFRSYM    DATA     BYTE      IP
      0000008FH   SFRSYM    DATA     BYTE      INTCLKO
      000000EEH   SFRSYM    DATA     BYTE      IP3H
      000000B6H   SFRSYM    DATA     BYTE      IP2H
L251 LINKER/LOCATER V4.66.93.0                                                        03/29/2026  20:20:13  PAGE 56


      000000A8H   SFRSYM    DATA     BYTE      IE
      000000BBH   SFRSYM    DATA     BYTE      P_SW3
      000000BAH   SFRSYM    DATA     BYTE      P_SW2
      000000A2H   SFRSYM    DATA     BYTE      P_SW1
      000000CEH   SFRSYM    DATA     BYTE      SPCTL
      000000F8H   SFRSYM    DATA     BYTE      P7
      000000A8H.7 SFRSYM    DATA     BIT       EA
      000000E8H   SFRSYM    DATA     BYTE      P6
      000000C8H   SFRSYM    DATA     BYTE      P5
      000000C0H   SFRSYM    DATA     BYTE      P4
      000000B0H   SFRSYM    DATA     BYTE      P3
      000000A0H   SFRSYM    DATA     BYTE      P2
      00000090H   SFRSYM    DATA     BYTE      P1
      00000080H   SFRSYM    DATA     BYTE      P0
      00011F0BH   SYMBOL    XDATA    INT       irqn
      00011F0DH   SYMBOL    XDATA    BYTE      priority

      00FF0006H   BLOCK     CODE     ---       LVL=0
      00FF0006H   LINE      CODE     ---       #88
      00FF0006H   LINE      CODE     ---       #90
      00FF0009H   LINE      CODE     ---       #91
      ---         BLOCKEND  ---      ---       LVL=0

      ---         MODULE    ---      ---       zf_driver_adc
      00011A48H   PUBLIC    XDATA    ---       adc_average
      00000094H   SFRSYM    DATA     BYTE      P0M0
      000000D0H   SFRSYM    DATA     BYTE      PSW
      0000009DH   SFRSYM    DATA     BYTE      IRCBAND
      00000097H   SFRSYM    DATA     BYTE      AUXR2
      000000EFH   SFRSYM    DATA     BYTE      AUXINTIF
      000000FDH   SFRSYM    DATA     BYTE      S4CON
      000000ACH   SFRSYM    DATA     BYTE      S3CON
      0000009AH   SFRSYM    DATA     BYTE      S2CON
      000000B7H   SFRSYM    DATA     BYTE      IPH
      000000CDH   SFRSYM    DATA     BYTE      SPSTAT
      000000BEH   SFRSYM    DATA     BYTE      ADC_RESL
      000000DDH   SFRSYM    DATA     BYTE      T4T3M
      000000C1H   SFRSYM    DATA     BYTE      WDT_CONTR
      000000DFH   SFRSYM    DATA     BYTE      IP3
      000000F4H   SFRSYM    DATA     BYTE      USBCON
      000000B5H   SFRSYM    DATA     BYTE      IP2
      000000FFH   SFRSYM    DATA     BYTE      RSTCFG
      000000C7H   SFRSYM    DATA     BYTE      IAP_CONTR
      000000F9H   SFRSYM    DATA     BYTE      LINICR
      0000008EH   SFRSYM    DATA     BYTE      AUXR
      000000AFH   SFRSYM    DATA     BYTE      IE2
      00000088H   SFRSYM    DATA     BYTE      TCON
      00000089H   SFRSYM    DATA     BYTE      TMOD
      00000098H   SFRSYM    DATA     BYTE      SCON
      000000F1H   SFRSYM    DATA     BYTE      CANICR
      00000087H   SFRSYM    DATA     BYTE      PCON
      000000BCH   SFRSYM    DATA     BYTE      ADC_CONTR
      000000E7H   SFRSYM    DATA     BYTE      CMPCR2
      000000E6H   SFRSYM    DATA     BYTE      CMPCR1
      000000DEH   SFRSYM    DATA     BYTE      ADCCFG
      000000B8H   SFRSYM    DATA     BYTE      IP
      0000008FH   SFRSYM    DATA     BYTE      INTCLKO
      000000EEH   SFRSYM    DATA     BYTE      IP3H
      000000B6H   SFRSYM    DATA     BYTE      IP2H
      000000BDH   SFRSYM    DATA     BYTE      ADC_RES
      000000A8H   SFRSYM    DATA     BYTE      IE
      000000BBH   SFRSYM    DATA     BYTE      P_SW3
      000000BAH   SFRSYM    DATA     BYTE      P_SW2
      000000A2H   SFRSYM    DATA     BYTE      P_SW1
      000000CEH   SFRSYM    DATA     BYTE      SPCTL
L251 LINKER/LOCATER V4.66.93.0                                                        03/29/2026  20:20:13  PAGE 57


      000000F8H   SFRSYM    DATA     BYTE      P7
      000000E8H   SFRSYM    DATA     BYTE      P6
      000000C8H   SFRSYM    DATA     BYTE      P5
      000000C0H   SFRSYM    DATA     BYTE      P4
      000000B0H   SFRSYM    DATA     BYTE      P3
      000000A0H   SFRSYM    DATA     BYTE      P2
      00000090H   SFRSYM    DATA     BYTE      P1
      00000080H   SFRSYM    DATA     BYTE      P0
      00000091H   SFRSYM    DATA     BYTE      P1M1
      00000092H   SFRSYM    DATA     BYTE      P1M0
      00000093H   SFRSYM    DATA     BYTE      P0M1
      00011A47H   SYMBOL    XDATA    BYTE      adc_resolution
      00011A9FH   SYMBOL    XDATA    INT       ch
      00011AA1H   SYMBOL    XDATA    BYTE      count
      00011AA2H   SYMBOL    XDATA    BYTE      i
      00011AA3H   SYMBOL    XDATA    WORD      sum
      00011AA5H   SYMBOL    XDATA    WORD      min
      00011AA7H   SYMBOL    XDATA    WORD      max
      00011E83H   SYMBOL    XDATA    INT       ch
      00011E85H   SYMBOL    XDATA    WORD      adc_value
      00011E87H   SYMBOL    XDATA    INT       ch
      00011E89H   SYMBOL    XDATA    INT       resolution

      ---         MODULE    ---      ---       zf_driver_delay
      00FF8C5DH   PUBLIC    CODE     ---       system_delay_init
      00FF914BH   PUBLIC    CODE     ---       system_delay_ms
      000000D0H   SFRSYM    DATA     BYTE      PSW
      0000009DH   SFRSYM    DATA     BYTE      IRCBAND
      00000097H   SFRSYM    DATA     BYTE      AUXR2
      000000EFH   SFRSYM    DATA     BYTE      AUXINTIF
      000000FDH   SFRSYM    DATA     BYTE      S4CON
      000000ACH   SFRSYM    DATA     BYTE      S3CON
      0000009AH   SFRSYM    DATA     BYTE      S2CON
      000000B7H   SFRSYM    DATA     BYTE      IPH
      000000CDH   SFRSYM    DATA     BYTE      SPSTAT
      000000DDH   SFRSYM    DATA     BYTE      T4T3M
      000000C1H   SFRSYM    DATA     BYTE      WDT_CONTR
      000000DFH   SFRSYM    DATA     BYTE      IP3
      000000F4H   SFRSYM    DATA     BYTE      USBCON
      000000B5H   SFRSYM    DATA     BYTE      IP2
      000000FFH   SFRSYM    DATA     BYTE      RSTCFG
      000000C7H   SFRSYM    DATA     BYTE      IAP_CONTR
      000000F9H   SFRSYM    DATA     BYTE      LINICR
      0000008EH   SFRSYM    DATA     BYTE      AUXR
      000000AFH   SFRSYM    DATA     BYTE      IE2
      00000088H   SFRSYM    DATA     BYTE      TCON
      00000089H   SFRSYM    DATA     BYTE      TMOD
      00000098H   SFRSYM    DATA     BYTE      SCON
      000000F1H   SFRSYM    DATA     BYTE      CANICR
      00000087H   SFRSYM    DATA     BYTE      PCON
      000000BCH   SFRSYM    DATA     BYTE      ADC_CONTR
      000000E7H   SFRSYM    DATA     BYTE      CMPCR2
      000000E6H   SFRSYM    DATA     BYTE      CMPCR1
      000000DEH   SFRSYM    DATA     BYTE      ADCCFG
      000000B8H   SFRSYM    DATA     BYTE      IP
      0000008FH   SFRSYM    DATA     BYTE      INTCLKO
      000000EEH   SFRSYM    DATA     BYTE      IP3H
      000000B6H   SFRSYM    DATA     BYTE      IP2H
      000000A8H   SFRSYM    DATA     BYTE      IE
      000000BBH   SFRSYM    DATA     BYTE      P_SW3
      000000BAH   SFRSYM    DATA     BYTE      P_SW2
      000000A2H   SFRSYM    DATA     BYTE      P_SW1
      000000CEH   SFRSYM    DATA     BYTE      SPCTL
      000000F8H   SFRSYM    DATA     BYTE      P7
      000000E8H   SFRSYM    DATA     BYTE      P6
L251 LINKER/LOCATER V4.66.93.0                                                        03/29/2026  20:20:13  PAGE 58


      000000C8H   SFRSYM    DATA     BYTE      P5
      000000C0H   SFRSYM    DATA     BYTE      P4
      000000B0H   SFRSYM    DATA     BYTE      P3
      000000A0H   SFRSYM    DATA     BYTE      P2
      00000090H   SFRSYM    DATA     BYTE      P1
      00000080H   SFRSYM    DATA     BYTE      P0
      00FF91FCH   SYMBOL    CODE     ---       delay_cycles
      00011E8BH   SYMBOL    XDATA    WORD      zf_delay_1ms
      00011E8DH   SYMBOL    XDATA    WORD      zf_delay_1us

      00FF91FCH   BLOCK     CODE     ---       LVL=0
      00011F32H   SYMBOL    XDATA    WORD      cycles
      00FF91FCH   LINE      CODE     ---       #44
      00FF9202H   LINE      CODE     ---       #47
      00FF9202H   LINE      CODE     ---       #50
      00FF9219H   LINE      CODE     ---       #51
      ---         BLOCKEND  ---      ---       LVL=0

      00FF8C5DH   BLOCK     CODE     ---       LVL=0
      00FF8C5DH   LINE      CODE     ---       #59
      00FF8C5DH   LINE      CODE     ---       #61
      00FF8C74H   LINE      CODE     ---       #62
      00FF8C8FH   LINE      CODE     ---       #63
      00FF8CB4H   LINE      CODE     ---       #64
      ---         BLOCKEND  ---      ---       LVL=0

      00FF914BH   BLOCK     CODE     ---       LVL=0
      00011F34H   SYMBOL    XDATA    WORD      ms
      00FF914BH   LINE      CODE     ---       #72
      00FF9151H   LINE      CODE     ---       #74
      00FF9151H   LINE      CODE     ---       #76
      00FF915AH   LINE      CODE     ---       #77
      00FF916FH   LINE      CODE     ---       #78
      ---         BLOCKEND  ---      ---       LVL=0
      00011F36H   SYMBOL    XDATA    WORD      us

      ---         MODULE    ---      ---       zf_driver_eeprom
      00011AA9H   PUBLIC    XDATA    BYTE      ?iap_read_buff?BYTE
      00011AB3H   PUBLIC    XDATA    BYTE      ?iap_write_buff?BYTE
      000000D0H   SFRSYM    DATA     BYTE      PSW
      0000009DH   SFRSYM    DATA     BYTE      IRCBAND
      00000097H   SFRSYM    DATA     BYTE      AUXR2
      000000C6H   SFRSYM    DATA     BYTE      IAP_TRIG
      000000EFH   SFRSYM    DATA     BYTE      AUXINTIF
      000000FDH   SFRSYM    DATA     BYTE      S4CON
      000000ACH   SFRSYM    DATA     BYTE      S3CON
      0000009AH   SFRSYM    DATA     BYTE      S2CON
      000000B7H   SFRSYM    DATA     BYTE      IPH
      000000CDH   SFRSYM    DATA     BYTE      SPSTAT
      000000DDH   SFRSYM    DATA     BYTE      T4T3M
      000000C1H   SFRSYM    DATA     BYTE      WDT_CONTR
      000000C2H   SFRSYM    DATA     BYTE      IAP_DATA
      000000DFH   SFRSYM    DATA     BYTE      IP3
      000000F4H   SFRSYM    DATA     BYTE      USBCON
      000000B5H   SFRSYM    DATA     BYTE      IP2
      000000FFH   SFRSYM    DATA     BYTE      RSTCFG
      000000C7H   SFRSYM    DATA     BYTE      IAP_CONTR
      000000F9H   SFRSYM    DATA     BYTE      LINICR
      0000008EH   SFRSYM    DATA     BYTE      AUXR
      000000AFH   SFRSYM    DATA     BYTE      IE2
      00000088H   SFRSYM    DATA     BYTE      TCON
      00000089H   SFRSYM    DATA     BYTE      TMOD
      00000098H   SFRSYM    DATA     BYTE      SCON
      000000F5H   SFRSYM    DATA     BYTE      IAP_TPS
      000000F1H   SFRSYM    DATA     BYTE      CANICR
L251 LINKER/LOCATER V4.66.93.0                                                        03/29/2026  20:20:13  PAGE 59


      00000087H   SFRSYM    DATA     BYTE      PCON
      000000BCH   SFRSYM    DATA     BYTE      ADC_CONTR
      000000E7H   SFRSYM    DATA     BYTE      CMPCR2
      000000E6H   SFRSYM    DATA     BYTE      CMPCR1
      000000C4H   SFRSYM    DATA     BYTE      IAP_ADDRL
      000000C3H   SFRSYM    DATA     BYTE      IAP_ADDRH
      000000F6H   SFRSYM    DATA     BYTE      IAP_ADDRE
      000000DEH   SFRSYM    DATA     BYTE      ADCCFG
      000000B8H   SFRSYM    DATA     BYTE      IP
      0000008FH   SFRSYM    DATA     BYTE      INTCLKO
      000000EEH   SFRSYM    DATA     BYTE      IP3H
      000000B6H   SFRSYM    DATA     BYTE      IP2H
      000000C5H   SFRSYM    DATA     BYTE      IAP_CMD
      000000A8H   SFRSYM    DATA     BYTE      IE
      000000BBH   SFRSYM    DATA     BYTE      P_SW3
      000000BAH   SFRSYM    DATA     BYTE      P_SW2
      000000A2H   SFRSYM    DATA     BYTE      P_SW1
      000000CEH   SFRSYM    DATA     BYTE      SPCTL
      000000F8H   SFRSYM    DATA     BYTE      P7
      000000A8H.7 SFRSYM    DATA     BIT       EA
      000000E8H   SFRSYM    DATA     BYTE      P6
      000000C8H   SFRSYM    DATA     BYTE      P5
      000000C0H   SFRSYM    DATA     BYTE      P4
      000000B0H   SFRSYM    DATA     BYTE      P3
      000000A0H   SFRSYM    DATA     BYTE      P2
      00000090H   SFRSYM    DATA     BYTE      P1
      00000080H   SFRSYM    DATA     BYTE      P0
      00FF973CH   SYMBOL    HCONST   ---       ?tpl?0001
      00011F7DH   SYMBOL    XDATA    BYTE      write_time
      00011E0BH   SYMBOL    XDATA    DWORD     addr
      00011E0FH   SYMBOL    XDATA    BYTE      temp
      00000020H.0 SYMBOL    BIT      BIT       flag
      00011E10H   SYMBOL    XDATA    DWORD     addr
      00011E14H   SYMBOL    XDATA    BYTE      byte
      00000020H.1 SYMBOL    BIT      BIT       flag
      00011AA9H   SYMBOL    XDATA    DWORD     addr
      00011AADH   SYMBOL    XDATA    ---       buf
      00011AB1H   SYMBOL    XDATA    WORD      len
      00011AB3H   SYMBOL    XDATA    DWORD     addr
      00011AB7H   SYMBOL    XDATA    ---       buf
      00011ABBH   SYMBOL    XDATA    WORD      len
      00011E8FH   SYMBOL    XDATA    DWORD     addr
      00000020H.2 SYMBOL    BIT      BIT       flag
      00010000H   SYMBOL    XDATA    WORD      addr
      00010002H   SYMBOL    XDATA    ---       buf
      00010006H   SYMBOL    XDATA    WORD      len
      00010008H   SYMBOL    XDATA    ---       temp
      00010208H   SYMBOL    XDATA    WORD      i

      ---         MODULE    ---      ---       zf_driver_encoder
      000000D0H   SFRSYM    DATA     BYTE      PSW
      0000009DH   SFRSYM    DATA     BYTE      IRCBAND
      00000097H   SFRSYM    DATA     BYTE      AUXR2
      000000EFH   SFRSYM    DATA     BYTE      AUXINTIF
      000000FDH   SFRSYM    DATA     BYTE      S4CON
      000000ACH   SFRSYM    DATA     BYTE      S3CON
      0000009AH   SFRSYM    DATA     BYTE      S2CON
      000000B7H   SFRSYM    DATA     BYTE      IPH
      000000CDH   SFRSYM    DATA     BYTE      SPSTAT
      000000DDH   SFRSYM    DATA     BYTE      T4T3M
      000000C1H   SFRSYM    DATA     BYTE      WDT_CONTR
      00000088H.6 SFRSYM    DATA     BIT       TR1
      00000088H.4 SFRSYM    DATA     BIT       TR0
      000000D3H   SFRSYM    DATA     BYTE      T4L
      000000D5H   SFRSYM    DATA     BYTE      T3L
L251 LINKER/LOCATER V4.66.93.0                                                        03/29/2026  20:20:13  PAGE 60


      000000D7H   SFRSYM    DATA     BYTE      T2L
      0000008BH   SFRSYM    DATA     BYTE      TL1
      0000008AH   SFRSYM    DATA     BYTE      TL0
      000000D2H   SFRSYM    DATA     BYTE      T4H
      000000D4H   SFRSYM    DATA     BYTE      T3H
      000000D6H   SFRSYM    DATA     BYTE      T2H
      0000008DH   SFRSYM    DATA     BYTE      TH1
      0000008CH   SFRSYM    DATA     BYTE      TH0
      000000DFH   SFRSYM    DATA     BYTE      IP3
      000000F4H   SFRSYM    DATA     BYTE      USBCON
      000000B5H   SFRSYM    DATA     BYTE      IP2
      000000FFH   SFRSYM    DATA     BYTE      RSTCFG
      000000C7H   SFRSYM    DATA     BYTE      IAP_CONTR
      000000F9H   SFRSYM    DATA     BYTE      LINICR
      0000008EH   SFRSYM    DATA     BYTE      AUXR
      000000AFH   SFRSYM    DATA     BYTE      IE2
      00000088H   SFRSYM    DATA     BYTE      TCON
      00000089H   SFRSYM    DATA     BYTE      TMOD
      00000098H   SFRSYM    DATA     BYTE      SCON
      000000F1H   SFRSYM    DATA     BYTE      CANICR
      00000087H   SFRSYM    DATA     BYTE      PCON
      000000BCH   SFRSYM    DATA     BYTE      ADC_CONTR
      000000E7H   SFRSYM    DATA     BYTE      CMPCR2
      000000E6H   SFRSYM    DATA     BYTE      CMPCR1
      000000DEH   SFRSYM    DATA     BYTE      ADCCFG
      000000B8H   SFRSYM    DATA     BYTE      IP
      0000008FH   SFRSYM    DATA     BYTE      INTCLKO
      000000EEH   SFRSYM    DATA     BYTE      IP3H
      000000B6H   SFRSYM    DATA     BYTE      IP2H
      000000A8H   SFRSYM    DATA     BYTE      IE
      000000BBH   SFRSYM    DATA     BYTE      P_SW3
      000000BAH   SFRSYM    DATA     BYTE      P_SW2
      000000A2H   SFRSYM    DATA     BYTE      P_SW1
      000000CEH   SFRSYM    DATA     BYTE      SPCTL
      000000F8H   SFRSYM    DATA     BYTE      P7
      000000E8H   SFRSYM    DATA     BYTE      P6
      000000C8H   SFRSYM    DATA     BYTE      P5
      000000C0H   SFRSYM    DATA     BYTE      P4
      000000B0H   SFRSYM    DATA     BYTE      P3
      000000A0H   SFRSYM    DATA     BYTE      P2
      00000090H   SFRSYM    DATA     BYTE      P1
      00000080H   SFRSYM    DATA     BYTE      P0
      00011D45H   SYMBOL    XDATA    ---       encoder_dir_pin
      00011E93H   SYMBOL    XDATA    INT       encoder_n
      00011E95H   SYMBOL    XDATA    INT       dat
      00011F38H   SYMBOL    XDATA    INT       encoder_n
      00011D4BH   SYMBOL    XDATA    INT       encoder_n
      00011D4DH   SYMBOL    XDATA    INT       dir_pin
      00011D4FH   SYMBOL    XDATA    INT       lsb_pin

      ---         MODULE    ---      ---       zf_driver_exti
      000000D0H   SFRSYM    DATA     BYTE      PSW
      0000009DH   SFRSYM    DATA     BYTE      IRCBAND
      00000097H   SFRSYM    DATA     BYTE      AUXR2
      000000EFH   SFRSYM    DATA     BYTE      AUXINTIF
      000000FDH   SFRSYM    DATA     BYTE      S4CON
      000000ACH   SFRSYM    DATA     BYTE      S3CON
      0000009AH   SFRSYM    DATA     BYTE      S2CON
      000000B7H   SFRSYM    DATA     BYTE      IPH
      000000CDH   SFRSYM    DATA     BYTE      SPSTAT
      000000DDH   SFRSYM    DATA     BYTE      T4T3M
      000000C1H   SFRSYM    DATA     BYTE      WDT_CONTR
      0000008FH.6 SFRSYM    DATA     BIT       EX4
      0000008FH.5 SFRSYM    DATA     BIT       EX3
      0000008FH.4 SFRSYM    DATA     BIT       EX2
L251 LINKER/LOCATER V4.66.93.0                                                        03/29/2026  20:20:13  PAGE 61


      00000088H.2 SFRSYM    DATA     BIT       IT1
      000000A8H.2 SFRSYM    DATA     BIT       EX1
      00000088H.0 SFRSYM    DATA     BIT       IT0
      000000A8H.0 SFRSYM    DATA     BIT       EX0
      000000DFH   SFRSYM    DATA     BYTE      IP3
      000000F4H   SFRSYM    DATA     BYTE      USBCON
      000000B5H   SFRSYM    DATA     BYTE      IP2
      000000FFH   SFRSYM    DATA     BYTE      RSTCFG
      000000C7H   SFRSYM    DATA     BYTE      IAP_CONTR
      000000F9H   SFRSYM    DATA     BYTE      LINICR
      0000008EH   SFRSYM    DATA     BYTE      AUXR
      000000AFH   SFRSYM    DATA     BYTE      IE2
      00000088H   SFRSYM    DATA     BYTE      TCON
      00000089H   SFRSYM    DATA     BYTE      TMOD
      00000098H   SFRSYM    DATA     BYTE      SCON
      000000F1H   SFRSYM    DATA     BYTE      CANICR
      00000087H   SFRSYM    DATA     BYTE      PCON
      000000BCH   SFRSYM    DATA     BYTE      ADC_CONTR
      000000E7H   SFRSYM    DATA     BYTE      CMPCR2
      000000E6H   SFRSYM    DATA     BYTE      CMPCR1
      000000DEH   SFRSYM    DATA     BYTE      ADCCFG
      000000B8H   SFRSYM    DATA     BYTE      IP
      0000008FH   SFRSYM    DATA     BYTE      INTCLKO
      000000EEH   SFRSYM    DATA     BYTE      IP3H
      000000B6H   SFRSYM    DATA     BYTE      IP2H
      000000A8H   SFRSYM    DATA     BYTE      IE
      000000BBH   SFRSYM    DATA     BYTE      P_SW3
      000000BAH   SFRSYM    DATA     BYTE      P_SW2
      000000A2H   SFRSYM    DATA     BYTE      P_SW1
      000000CEH   SFRSYM    DATA     BYTE      SPCTL
      000000F8H   SFRSYM    DATA     BYTE      P7
      000000E8H   SFRSYM    DATA     BYTE      P6
      000000C8H   SFRSYM    DATA     BYTE      P5
      000000C0H   SFRSYM    DATA     BYTE      P4
      000000B0H   SFRSYM    DATA     BYTE      P3
      000000A0H   SFRSYM    DATA     BYTE      P2
      00000090H   SFRSYM    DATA     BYTE      P1
      00000080H   SFRSYM    DATA     BYTE      P0
      00011F3AH   SYMBOL    XDATA    INT       eru_pin
      00011F3CH   SYMBOL    XDATA    INT       eru_pin
      00011E97H   SYMBOL    XDATA    INT       eru_pin
      00011E99H   SYMBOL    XDATA    INT       trigger

      ---         MODULE    ---      ---       zf_driver_gpio
      00FF78CFH   PUBLIC    CODE     ---       gpio_init
      00FF741BH   PUBLIC    CODE     ---       gpio_get_level
      00FF5536H   PUBLIC    CODE     ---       gpio_set_level_speed
      00FF65DBH   PUBLIC    CODE     ---       gpio_set_level
      00FF6DC2H   PUBLIC    CODE     ---       gpio_set_impedance
      00000094H   SFRSYM    DATA     BYTE      P0M0
      000000D0H   SFRSYM    DATA     BYTE      PSW
      0000009DH   SFRSYM    DATA     BYTE      IRCBAND
      00000097H   SFRSYM    DATA     BYTE      AUXR2
      000000EFH   SFRSYM    DATA     BYTE      AUXINTIF
      000000FDH   SFRSYM    DATA     BYTE      S4CON
      000000ACH   SFRSYM    DATA     BYTE      S3CON
      0000009AH   SFRSYM    DATA     BYTE      S2CON
      000000B7H   SFRSYM    DATA     BYTE      IPH
      000000CDH   SFRSYM    DATA     BYTE      SPSTAT
      000000DDH   SFRSYM    DATA     BYTE      T4T3M
      000000C1H   SFRSYM    DATA     BYTE      WDT_CONTR
      000000DFH   SFRSYM    DATA     BYTE      IP3
      000000F4H   SFRSYM    DATA     BYTE      USBCON
      000000B5H   SFRSYM    DATA     BYTE      IP2
      000000FFH   SFRSYM    DATA     BYTE      RSTCFG
L251 LINKER/LOCATER V4.66.93.0                                                        03/29/2026  20:20:13  PAGE 62


      000000C7H   SFRSYM    DATA     BYTE      IAP_CONTR
      000000F9H   SFRSYM    DATA     BYTE      LINICR
      0000008EH   SFRSYM    DATA     BYTE      AUXR
      000000AFH   SFRSYM    DATA     BYTE      IE2
      00000088H   SFRSYM    DATA     BYTE      TCON
      00000089H   SFRSYM    DATA     BYTE      TMOD
      00000098H   SFRSYM    DATA     BYTE      SCON
      000000F1H   SFRSYM    DATA     BYTE      CANICR
      00000087H   SFRSYM    DATA     BYTE      PCON
      000000BCH   SFRSYM    DATA     BYTE      ADC_CONTR
      000000E7H   SFRSYM    DATA     BYTE      CMPCR2
      000000E6H   SFRSYM    DATA     BYTE      CMPCR1
      000000DEH   SFRSYM    DATA     BYTE      ADCCFG
      000000B8H   SFRSYM    DATA     BYTE      IP
      0000008FH   SFRSYM    DATA     BYTE      INTCLKO
      000000EEH   SFRSYM    DATA     BYTE      IP3H
      000000B6H   SFRSYM    DATA     BYTE      IP2H
      000000A8H   SFRSYM    DATA     BYTE      IE
      000000BBH   SFRSYM    DATA     BYTE      P_SW3
      000000BAH   SFRSYM    DATA     BYTE      P_SW2
      000000A2H   SFRSYM    DATA     BYTE      P_SW1
      000000CEH   SFRSYM    DATA     BYTE      SPCTL
      000000F8H   SFRSYM    DATA     BYTE      P7
      000000E1H   SFRSYM    DATA     BYTE      P7M1
      000000E8H   SFRSYM    DATA     BYTE      P6
      000000C8H   SFRSYM    DATA     BYTE      P5
      000000CBH   SFRSYM    DATA     BYTE      P6M1
      000000E2H   SFRSYM    DATA     BYTE      P7M0
      000000C0H   SFRSYM    DATA     BYTE      P4
      000000C9H   SFRSYM    DATA     BYTE      P5M1
      000000CCH   SFRSYM    DATA     BYTE      P6M0
      000000B0H   SFRSYM    DATA     BYTE      P3
      000000B3H   SFRSYM    DATA     BYTE      P4M1
      000000CAH   SFRSYM    DATA     BYTE      P5M0
      000000A0H   SFRSYM    DATA     BYTE      P2
      000000B1H   SFRSYM    DATA     BYTE      P3M1
      000000B4H   SFRSYM    DATA     BYTE      P4M0
      00000090H   SFRSYM    DATA     BYTE      P1
      00000095H   SFRSYM    DATA     BYTE      P2M1
      000000B2H   SFRSYM    DATA     BYTE      P3M0
      00000080H   SFRSYM    DATA     BYTE      P0
      00000091H   SFRSYM    DATA     BYTE      P1M1
      00000096H   SFRSYM    DATA     BYTE      P2M0
      00000092H   SFRSYM    DATA     BYTE      P1M0
      00000093H   SFRSYM    DATA     BYTE      P0M1
      00FF4AD9H   SYMBOL    CODE     ---       gpio_set_dir
      00FF5B3AH   SYMBOL    CODE     ---       gpio_set_mode

      00FF5B3AH   BLOCK     CODE     ---       LVL=0
      00011E9BH   SYMBOL    XDATA    INT       pin
      00011E9DH   SYMBOL    XDATA    INT       mode
      00FF5B3AH   LINE      CODE     ---       #42
      00FF5B46H   LINE      CODE     ---       #47
      00FF5B62H   LINE      CODE     ---       #49
      00FF5B9FH   LINE      CODE     ---       #51
      00FF5BA2H   LINE      CODE     ---       #56
      00FF5BBEH   LINE      CODE     ---       #58
      00FF5BF9H   LINE      CODE     ---       #59
      00FF5BFCH   LINE      CODE     ---       #60
      00FF5C0DH   LINE      CODE     ---       #63
      00FF5C5EH   LINE      CODE     ---       #65
      00FF5C5EH   LINE      CODE     ---       #66
      00FF5C79H   LINE      CODE     ---       #67
      00FF5C94H   LINE      CODE     ---       #68
      00FF5C97H   LINE      CODE     ---       #69
L251 LINKER/LOCATER V4.66.93.0                                                        03/29/2026  20:20:13  PAGE 63


      00FF5C97H   LINE      CODE     ---       #70
      00FF5CB2H   LINE      CODE     ---       #71
      00FF5CCDH   LINE      CODE     ---       #72
      00FF5CD0H   LINE      CODE     ---       #73
      00FF5CD0H   LINE      CODE     ---       #74
      00FF5CEBH   LINE      CODE     ---       #75
      00FF5D06H   LINE      CODE     ---       #76
      00FF5D09H   LINE      CODE     ---       #77
      00FF5D09H   LINE      CODE     ---       #78
      00FF5D24H   LINE      CODE     ---       #79
      00FF5D3FH   LINE      CODE     ---       #80
      00FF5D42H   LINE      CODE     ---       #81
      00FF5D42H   LINE      CODE     ---       #82
      00FF5D5DH   LINE      CODE     ---       #83
      00FF5D78H   LINE      CODE     ---       #84
      00FF5D7BH   LINE      CODE     ---       #85
      00FF5D7BH   LINE      CODE     ---       #86
      00FF5D96H   LINE      CODE     ---       #87
      00FF5DB1H   LINE      CODE     ---       #88
      00FF5DB3H   LINE      CODE     ---       #89
      00FF5DB3H   LINE      CODE     ---       #90
      00FF5DCEH   LINE      CODE     ---       #91
      00FF5DE9H   LINE      CODE     ---       #92
      00FF5DEBH   LINE      CODE     ---       #93
      00FF5DEBH   LINE      CODE     ---       #94
      00FF5E06H   LINE      CODE     ---       #95
      00FF5E21H   LINE      CODE     ---       #96
      00FF5E21H   LINE      CODE     ---       #97
      00FF5E21H   LINE      CODE     ---       #98
      00FF5E21H   LINE      CODE     ---       #99
      00FF5E21H   LINE      CODE     ---       #100
      00FF5E21H   LINE      CODE     ---       #104
      00FF5E21H   LINE      CODE     ---       #105
      ---         BLOCKEND  ---      ---       LVL=0

      00FF5536H   BLOCK     CODE     ---       LVL=0
      00011D51H   SYMBOL    XDATA    INT       pin
      00011D53H   SYMBOL    XDATA    INT       speed
      00FF5542H   BLOCK     CODE     NEAR LAB  LVL=1
      00011D55H   SYMBOL    XDATA    BYTE      pin_bit
      00011D56H   SYMBOL    XDATA    BYTE      port_flag
      ---         BLOCKEND  ---      ---       LVL=1
      00FF5536H   LINE      CODE     ---       #108
      00FF5542H   LINE      CODE     ---       #109
      00FF5542H   LINE      CODE     ---       #111
      00FF5552H   LINE      CODE     ---       #112
      00FF5562H   LINE      CODE     ---       #115
      00FF559EH   LINE      CODE     ---       #117
      00FF559EH   LINE      CODE     ---       #119
      00FF55F1H   LINE      CODE     ---       #120
      00FF55F4H   LINE      CODE     ---       #121
      00FF55F4H   LINE      CODE     ---       #122
      00FF5647H   LINE      CODE     ---       #123
      00FF564AH   LINE      CODE     ---       #124
      00FF564AH   LINE      CODE     ---       #125
      00FF569DH   LINE      CODE     ---       #126
      00FF56A0H   LINE      CODE     ---       #127
      00FF56A0H   LINE      CODE     ---       #128
      00FF56F3H   LINE      CODE     ---       #129
      00FF56F6H   LINE      CODE     ---       #130
      00FF56F6H   LINE      CODE     ---       #131
      00FF5749H   LINE      CODE     ---       #132
      00FF574CH   LINE      CODE     ---       #133
      00FF574CH   LINE      CODE     ---       #134
      00FF579FH   LINE      CODE     ---       #135
L251 LINKER/LOCATER V4.66.93.0                                                        03/29/2026  20:20:13  PAGE 64


      00FF57A2H   LINE      CODE     ---       #136
      00FF57A2H   LINE      CODE     ---       #137
      00FF57F4H   LINE      CODE     ---       #138
      00FF57F6H   LINE      CODE     ---       #139
      00FF57F6H   LINE      CODE     ---       #140
      00FF5848H   LINE      CODE     ---       #141
      00FF5848H   LINE      CODE     ---       #142
      00FF5848H   LINE      CODE     ---       #144
      00FF5848H   LINE      CODE     ---       #145
      00FF5848H   LINE      CODE     ---       #146
      ---         BLOCKEND  ---      ---       LVL=0

      00FF4AD9H   BLOCK     CODE     ---       LVL=0
      00011E9FH   SYMBOL    XDATA    INT       pin
      00011EA1H   SYMBOL    XDATA    INT       dir
      00FF4AD9H   LINE      CODE     ---       #150
      00FF4AE5H   LINE      CODE     ---       #152
      00FF4B39H   LINE      CODE     ---       #154
      00FF4B39H   LINE      CODE     ---       #156
      00FF4B53H   LINE      CODE     ---       #158
      00FF4B70H   LINE      CODE     ---       #159
      00FF4B8DH   LINE      CODE     ---       #160
      00FF4B90H   LINE      CODE     ---       #166
      00FF4BA1H   LINE      CODE     ---       #168
      00FF4BBEH   LINE      CODE     ---       #169
      00FF4BD9H   LINE      CODE     ---       #170
      00FF4BD9H   LINE      CODE     ---       #172
      00FF4BDCH   LINE      CODE     ---       #174
      00FF4BDCH   LINE      CODE     ---       #176
      00FF4BF6H   LINE      CODE     ---       #178
      00FF4C13H   LINE      CODE     ---       #179
      00FF4C30H   LINE      CODE     ---       #180
      00FF4C33H   LINE      CODE     ---       #186
      00FF4C44H   LINE      CODE     ---       #188
      00FF4C61H   LINE      CODE     ---       #189
      00FF4C7CH   LINE      CODE     ---       #190
      00FF4C7CH   LINE      CODE     ---       #192
      00FF4C7FH   LINE      CODE     ---       #194
      00FF4C7FH   LINE      CODE     ---       #196
      00FF4C99H   LINE      CODE     ---       #198
      00FF4CB6H   LINE      CODE     ---       #199
      00FF4CD3H   LINE      CODE     ---       #200
      00FF4CD6H   LINE      CODE     ---       #206
      00FF4CE7H   LINE      CODE     ---       #208
      00FF4D04H   LINE      CODE     ---       #209
      00FF4D1FH   LINE      CODE     ---       #210
      00FF4D1FH   LINE      CODE     ---       #212
      00FF4D22H   LINE      CODE     ---       #214
      00FF4D22H   LINE      CODE     ---       #216
      00FF4D3CH   LINE      CODE     ---       #218
      00FF4D59H   LINE      CODE     ---       #219
      00FF4D76H   LINE      CODE     ---       #220
      00FF4D79H   LINE      CODE     ---       #226
      00FF4D8AH   LINE      CODE     ---       #228
      00FF4DA7H   LINE      CODE     ---       #229
      00FF4DC2H   LINE      CODE     ---       #230
      00FF4DC2H   LINE      CODE     ---       #232
      00FF4DC5H   LINE      CODE     ---       #234
      00FF4DC5H   LINE      CODE     ---       #236
      00FF4DDFH   LINE      CODE     ---       #238
      00FF4DFCH   LINE      CODE     ---       #239
      00FF4E19H   LINE      CODE     ---       #240
      00FF4E1CH   LINE      CODE     ---       #246
      00FF4E2DH   LINE      CODE     ---       #248
      00FF4E4AH   LINE      CODE     ---       #249
L251 LINKER/LOCATER V4.66.93.0                                                        03/29/2026  20:20:13  PAGE 65


      00FF4E65H   LINE      CODE     ---       #250
      00FF4E65H   LINE      CODE     ---       #252
      00FF4E68H   LINE      CODE     ---       #254
      00FF4E68H   LINE      CODE     ---       #256
      00FF4E82H   LINE      CODE     ---       #258
      00FF4E9FH   LINE      CODE     ---       #259
      00FF4EBCH   LINE      CODE     ---       #260
      00FF4EBFH   LINE      CODE     ---       #266
      00FF4ED0H   LINE      CODE     ---       #268
      00FF4EEDH   LINE      CODE     ---       #269
      00FF4F08H   LINE      CODE     ---       #270
      00FF4F08H   LINE      CODE     ---       #272
      00FF4F0BH   LINE      CODE     ---       #274
      00FF4F0BH   LINE      CODE     ---       #276
      00FF4F25H   LINE      CODE     ---       #278
      00FF4F42H   LINE      CODE     ---       #279
      00FF4F5FH   LINE      CODE     ---       #280
      00FF4F62H   LINE      CODE     ---       #286
      00FF4F73H   LINE      CODE     ---       #288
      00FF4F90H   LINE      CODE     ---       #289
      00FF4FABH   LINE      CODE     ---       #290
      00FF4FABH   LINE      CODE     ---       #292
      00FF4FAEH   LINE      CODE     ---       #294
      00FF4FAEH   LINE      CODE     ---       #296
      00FF4FC8H   LINE      CODE     ---       #298
      00FF4FE5H   LINE      CODE     ---       #299
      00FF5002H   LINE      CODE     ---       #300
      00FF5004H   LINE      CODE     ---       #306
      00FF5012H   LINE      CODE     ---       #308
      00FF502FH   LINE      CODE     ---       #309
      00FF504AH   LINE      CODE     ---       #310
      00FF504AH   LINE      CODE     ---       #313
      00FF504CH   LINE      CODE     ---       #315
      00FF504CH   LINE      CODE     ---       #317
      00FF505CH   LINE      CODE     ---       #319
      00FF505CH   LINE      CODE     ---       #320
      00FF505CH   LINE      CODE     ---       #321
      ---         BLOCKEND  ---      ---       LVL=0

      00FF741BH   BLOCK     CODE     ---       LVL=0
      00011E15H   SYMBOL    XDATA    INT       pin
      00FF7421H   BLOCK     CODE     NEAR LAB  LVL=1
      00011E17H   SYMBOL    XDATA    BYTE      pin_bit
      00011E18H   SYMBOL    XDATA    BYTE      port_flag
      00011E19H   SYMBOL    XDATA    BYTE      status
      ---         BLOCKEND  ---      ---       LVL=1
      00FF741BH   LINE      CODE     ---       #329
      00FF7421H   LINE      CODE     ---       #330
      00FF7421H   LINE      CODE     ---       #331
      00FF7431H   LINE      CODE     ---       #332
      00FF7441H   LINE      CODE     ---       #333
      00FF7446H   LINE      CODE     ---       #336
      00FF7479H   LINE      CODE     ---       #338
      00FF7495H   LINE      CODE     ---       #339
      00FF74B1H   LINE      CODE     ---       #340
      00FF74CDH   LINE      CODE     ---       #341
      00FF74E8H   LINE      CODE     ---       #342
      00FF7503H   LINE      CODE     ---       #343
      00FF751EH   LINE      CODE     ---       #344
      00FF7539H   LINE      CODE     ---       #345
      00FF7552H   LINE      CODE     ---       #346
      00FF7552H   LINE      CODE     ---       #347
      00FF7552H   LINE      CODE     ---       #349
      00FF7560H   LINE      CODE     ---       #350
      ---         BLOCKEND  ---      ---       LVL=0
L251 LINKER/LOCATER V4.66.93.0                                                        03/29/2026  20:20:13  PAGE 66



      00FF65DBH   BLOCK     CODE     ---       LVL=0
      00011E1AH   SYMBOL    XDATA    INT       pin
      00011E1CH   SYMBOL    XDATA    BYTE      dat
      00FF65E5H   BLOCK     CODE     NEAR LAB  LVL=1
      00011E1DH   SYMBOL    XDATA    BYTE      pin_bit
      00011E1EH   SYMBOL    XDATA    BYTE      port_flag
      ---         BLOCKEND  ---      ---       LVL=1
      00FF65DBH   LINE      CODE     ---       #359
      00FF65E5H   LINE      CODE     ---       #360
      00FF65E5H   LINE      CODE     ---       #361
      00FF65F5H   LINE      CODE     ---       #362
      00FF6605H   LINE      CODE     ---       #365
      00FF663EH   LINE      CODE     ---       #367
      00FF6675H   LINE      CODE     ---       #368
      00FF66ACH   LINE      CODE     ---       #369
      00FF66E3H   LINE      CODE     ---       #370
      00FF671AH   LINE      CODE     ---       #371
      00FF6751H   LINE      CODE     ---       #372
      00FF6787H   LINE      CODE     ---       #373
      00FF67BCH   LINE      CODE     ---       #374
      00FF67EFH   LINE      CODE     ---       #375
      00FF67EFH   LINE      CODE     ---       #376
      00FF67EFH   LINE      CODE     ---       #377
      ---         BLOCKEND  ---      ---       LVL=0
      00011F3EH   SYMBOL    XDATA    INT       pin

      00FF6DC2H   BLOCK     CODE     ---       LVL=0
      00011EA3H   SYMBOL    XDATA    INT       pin
      00FF6DC8H   BLOCK     CODE     NEAR LAB  LVL=1
      00011EA5H   SYMBOL    XDATA    BYTE      pin_bit
      00011EA6H   SYMBOL    XDATA    BYTE      port_flag
      ---         BLOCKEND  ---      ---       LVL=1
      00FF6DC2H   LINE      CODE     ---       #397
      00FF6DC8H   LINE      CODE     ---       #398
      00FF6DC8H   LINE      CODE     ---       #399
      00FF6DD8H   LINE      CODE     ---       #400
      00FF6DE8H   LINE      CODE     ---       #403
      00FF6E21H   LINE      CODE     ---       #405
      00FF6E4CH   LINE      CODE     ---       #406
      00FF6E77H   LINE      CODE     ---       #407
      00FF6EA2H   LINE      CODE     ---       #408
      00FF6ECDH   LINE      CODE     ---       #409
      00FF6EF7H   LINE      CODE     ---       #410
      00FF6F21H   LINE      CODE     ---       #411
      00FF6F4BH   LINE      CODE     ---       #412
      00FF6F73H   LINE      CODE     ---       #413
      00FF6F73H   LINE      CODE     ---       #414
      00FF6F73H   LINE      CODE     ---       #415
      ---         BLOCKEND  ---      ---       LVL=0

      00FF78CFH   BLOCK     CODE     ---       LVL=0
      00011D15H   SYMBOL    XDATA    INT       pin
      00011D17H   SYMBOL    XDATA    INT       dir
      00011D19H   SYMBOL    XDATA    BYTE      dat
      00011D1AH   SYMBOL    XDATA    INT       mode
      00FF78CFH   LINE      CODE     ---       #426
      00FF78E5H   LINE      CODE     ---       #428
      00FF7911H   LINE      CODE     ---       #430
      00FF791FH   LINE      CODE     ---       #432
      00FF792CH   LINE      CODE     ---       #433
      00FF793BH   LINE      CODE     ---       #434
      00FF793EH   LINE      CODE     ---       #435
      00FF794AH   LINE      CODE     ---       #437
      00FF7956H   LINE      CODE     ---       #439
L251 LINKER/LOCATER V4.66.93.0                                                        03/29/2026  20:20:13  PAGE 67


      00FF795FH   LINE      CODE     ---       #440
      00FF7961H   LINE      CODE     ---       #443
      00FF796CH   LINE      CODE     ---       #444
      00FF797BH   LINE      CODE     ---       #445
      00FF797BH   LINE      CODE     ---       #446
      00FF797DH   LINE      CODE     ---       #447
      00FF798BH   LINE      CODE     ---       #449
      00FF7999H   LINE      CODE     ---       #451
      00FF79A6H   LINE      CODE     ---       #452
      00FF79B3H   LINE      CODE     ---       #453
      00FF79B5H   LINE      CODE     ---       #454
      00FF79C3H   LINE      CODE     ---       #456
      00FF79D0H   LINE      CODE     ---       #457
      00FF79D0H   LINE      CODE     ---       #459
      00FF79DDH   LINE      CODE     ---       #460
      ---         BLOCKEND  ---      ---       LVL=0

      ---         MODULE    ---      ---       zf_driver_pit
      000000D0H   SFRSYM    DATA     BYTE      PSW
      0000009DH   SFRSYM    DATA     BYTE      IRCBAND
      00000097H   SFRSYM    DATA     BYTE      AUXR2
      000000EFH   SFRSYM    DATA     BYTE      AUXINTIF
      000000FDH   SFRSYM    DATA     BYTE      S4CON
      000000ACH   SFRSYM    DATA     BYTE      S3CON
      0000009AH   SFRSYM    DATA     BYTE      S2CON
      000000B7H   SFRSYM    DATA     BYTE      IPH
      000000CDH   SFRSYM    DATA     BYTE      SPSTAT
      000000DDH   SFRSYM    DATA     BYTE      T4T3M
      000000C1H   SFRSYM    DATA     BYTE      WDT_CONTR
      00000088H.6 SFRSYM    DATA     BIT       TR1
      00000088H.4 SFRSYM    DATA     BIT       TR0
      000000D3H   SFRSYM    DATA     BYTE      T4L
      000000D5H   SFRSYM    DATA     BYTE      T3L
      000000D7H   SFRSYM    DATA     BYTE      T2L
      0000008BH   SFRSYM    DATA     BYTE      TL1
      0000008AH   SFRSYM    DATA     BYTE      TL0
      000000D2H   SFRSYM    DATA     BYTE      T4H
      000000D4H   SFRSYM    DATA     BYTE      T3H
      000000D6H   SFRSYM    DATA     BYTE      T2H
      0000008DH   SFRSYM    DATA     BYTE      TH1
      0000008CH   SFRSYM    DATA     BYTE      TH0
      000000DFH   SFRSYM    DATA     BYTE      IP3
      000000F4H   SFRSYM    DATA     BYTE      USBCON
      000000B5H   SFRSYM    DATA     BYTE      IP2
      000000FFH   SFRSYM    DATA     BYTE      RSTCFG
      000000A8H.3 SFRSYM    DATA     BIT       ET1
      000000A8H.1 SFRSYM    DATA     BIT       ET0
      000000C7H   SFRSYM    DATA     BYTE      IAP_CONTR
      000000F9H   SFRSYM    DATA     BYTE      LINICR
      0000008EH   SFRSYM    DATA     BYTE      AUXR
      000000AFH   SFRSYM    DATA     BYTE      IE2
      00000088H   SFRSYM    DATA     BYTE      TCON
      00000089H   SFRSYM    DATA     BYTE      TMOD
      00000098H   SFRSYM    DATA     BYTE      SCON
      000000F1H   SFRSYM    DATA     BYTE      CANICR
      00000087H   SFRSYM    DATA     BYTE      PCON
      000000BCH   SFRSYM    DATA     BYTE      ADC_CONTR
      000000E7H   SFRSYM    DATA     BYTE      CMPCR2
      000000E6H   SFRSYM    DATA     BYTE      CMPCR1
      000000DEH   SFRSYM    DATA     BYTE      ADCCFG
      000000B8H   SFRSYM    DATA     BYTE      IP
      0000008FH   SFRSYM    DATA     BYTE      INTCLKO
      000000EEH   SFRSYM    DATA     BYTE      IP3H
      000000B6H   SFRSYM    DATA     BYTE      IP2H
      000000A8H   SFRSYM    DATA     BYTE      IE
L251 LINKER/LOCATER V4.66.93.0                                                        03/29/2026  20:20:13  PAGE 68


      000000BBH   SFRSYM    DATA     BYTE      P_SW3
      000000BAH   SFRSYM    DATA     BYTE      P_SW2
      000000A2H   SFRSYM    DATA     BYTE      P_SW1
      000000CEH   SFRSYM    DATA     BYTE      SPCTL
      000000F8H   SFRSYM    DATA     BYTE      P7
      000000E8H   SFRSYM    DATA     BYTE      P6
      000000C8H   SFRSYM    DATA     BYTE      P5
      000000C0H   SFRSYM    DATA     BYTE      P4
      000000B0H   SFRSYM    DATA     BYTE      P3
      000000A0H   SFRSYM    DATA     BYTE      P2
      00000090H   SFRSYM    DATA     BYTE      P1
      00000080H   SFRSYM    DATA     BYTE      P0
      00011A52H   SYMBOL    XDATA    INT       pit_n
      00011A54H   SYMBOL    XDATA    DWORD     period
      00011A58H   SYMBOL    XDATA    BYTE      freq_div
      00011A59H   SYMBOL    XDATA    WORD      period_temp
      00011A5BH   SYMBOL    XDATA    WORD      temp

      ---         MODULE    ---      ---       zf_driver_pwm
      00FF9DFAH   PUBLIC    HCONST   ---       PWM_PSCR_ADDR
      00FF9E02H   PUBLIC    HCONST   ---       PWM_CCR_ADDR
      00FF9E22H   PUBLIC    HCONST   ---       PWM_ARR_ADDR
      00FF9E2AH   PUBLIC    HCONST   ---       PWM_CCER_ADDR
      00FF9E3AH   PUBLIC    HCONST   ---       PWM_CCMR_ADDR
      000114BFH   PUBLIC    XDATA    BYTE      ?pwm_set_freq?BYTE
      000115A8H   PUBLIC    XDATA    BYTE      ?pwm_init?BYTE
      000000D0H   SFRSYM    DATA     BYTE      PSW
      0000009DH   SFRSYM    DATA     BYTE      IRCBAND
      00000097H   SFRSYM    DATA     BYTE      AUXR2
      000000EFH   SFRSYM    DATA     BYTE      AUXINTIF
      000000FDH   SFRSYM    DATA     BYTE      S4CON
      000000ACH   SFRSYM    DATA     BYTE      S3CON
      0000009AH   SFRSYM    DATA     BYTE      S2CON
      000000B7H   SFRSYM    DATA     BYTE      IPH
      000000CDH   SFRSYM    DATA     BYTE      SPSTAT
      000000DDH   SFRSYM    DATA     BYTE      T4T3M
      000000C1H   SFRSYM    DATA     BYTE      WDT_CONTR
      000000DFH   SFRSYM    DATA     BYTE      IP3
      000000F4H   SFRSYM    DATA     BYTE      USBCON
      000000B5H   SFRSYM    DATA     BYTE      IP2
      000000FFH   SFRSYM    DATA     BYTE      RSTCFG
      000000C7H   SFRSYM    DATA     BYTE      IAP_CONTR
      000000F9H   SFRSYM    DATA     BYTE      LINICR
      0000008EH   SFRSYM    DATA     BYTE      AUXR
      000000AFH   SFRSYM    DATA     BYTE      IE2
      00000088H   SFRSYM    DATA     BYTE      TCON
      00000089H   SFRSYM    DATA     BYTE      TMOD
      00000098H   SFRSYM    DATA     BYTE      SCON
      000000F1H   SFRSYM    DATA     BYTE      CANICR
      00000087H   SFRSYM    DATA     BYTE      PCON
      000000BCH   SFRSYM    DATA     BYTE      ADC_CONTR
      000000E7H   SFRSYM    DATA     BYTE      CMPCR2
      000000E6H   SFRSYM    DATA     BYTE      CMPCR1
      000000DEH   SFRSYM    DATA     BYTE      ADCCFG
      000000B8H   SFRSYM    DATA     BYTE      IP
      0000008FH   SFRSYM    DATA     BYTE      INTCLKO
      000000EEH   SFRSYM    DATA     BYTE      IP3H
      000000B6H   SFRSYM    DATA     BYTE      IP2H
      000000A8H   SFRSYM    DATA     BYTE      IE
      000000BBH   SFRSYM    DATA     BYTE      P_SW3
      000000BAH   SFRSYM    DATA     BYTE      P_SW2
      000000A2H   SFRSYM    DATA     BYTE      P_SW1
      000000CEH   SFRSYM    DATA     BYTE      SPCTL
      000000F8H   SFRSYM    DATA     BYTE      P7
      000000E8H   SFRSYM    DATA     BYTE      P6
L251 LINKER/LOCATER V4.66.93.0                                                        03/29/2026  20:20:13  PAGE 69


      000000C8H   SFRSYM    DATA     BYTE      P5
      000000C0H   SFRSYM    DATA     BYTE      P4
      000000B0H   SFRSYM    DATA     BYTE      P3
      000000A0H   SFRSYM    DATA     BYTE      P2
      00000090H   SFRSYM    DATA     BYTE      P1
      00000080H   SFRSYM    DATA     BYTE      P0
      000114BFH   SYMBOL    XDATA    INT       pin
      000114C1H   SYMBOL    XDATA    DWORD     freq
      000114C5H   SYMBOL    XDATA    DWORD     duty
      000114C9H   SYMBOL    XDATA    DWORD     match_temp
      000114CDH   SYMBOL    XDATA    DWORD     period_temp
      000114D1H   SYMBOL    XDATA    WORD      freq_div
      0001175DH   SYMBOL    XDATA    INT       pin
      0001175FH   SYMBOL    XDATA    DWORD     duty
      00011763H   SYMBOL    XDATA    DWORD     match_temp
      00011767H   SYMBOL    XDATA    DWORD     arr
      000115A8H   SYMBOL    XDATA    INT       pin
      000115AAH   SYMBOL    XDATA    DWORD     freq
      000115AEH   SYMBOL    XDATA    DWORD     duty
      000115B2H   SYMBOL    XDATA    WORD      match_temp
      000115B4H   SYMBOL    XDATA    DWORD     period_temp
      000115B8H   SYMBOL    XDATA    WORD      freq_div

      ---         MODULE    ---      ---       zf_driver_soft_iic
      00FF7BBAH   PUBLIC    CODE     ---       soft_iic_wait_ack
      00FF7EFEH   PUBLIC    CODE     ---       soft_iic_stop
      00FF9019H   PUBLIC    CODE     ---       soft_iic_delay
      00FF7561H   PUBLIC    CODE     ---       soft_iic_read_data
      00FF00A6H   PUBLIC    CODE     ---       soft_iic_send_data
      00FF8114H   PUBLIC    CODE     ---       soft_iic_start
      00FF7C9DH   PUBLIC    CODE     ---       soft_iic_send_ack
      000118BBH   PUBLIC    XDATA    BYTE      ?soft_iic_write_8bit_array?BYTE
      000118C7H   PUBLIC    XDATA    BYTE      ?soft_iic_write_16bit_array?BYTE
      00011812H   PUBLIC    XDATA    BYTE      ?soft_iic_write_8bit_registers?BYTE
      0001176BH   PUBLIC    XDATA    BYTE      ?soft_iic_write_16bit_registers?BYTE
      000118D3H   PUBLIC    XDATA    BYTE      ?soft_iic_read_8bit_array?BYTE
      000118DFH   PUBLIC    XDATA    BYTE      ?soft_iic_read_16bit_array?BYTE
      0001181FH   PUBLIC    XDATA    BYTE      ?soft_iic_read_8bit_registers?BYTE
      00011779H   PUBLIC    XDATA    BYTE      ?soft_iic_read_16bit_registers?BYTE
      000114D3H   PUBLIC    XDATA    BYTE      ?soft_iic_transfer_8bit_array?BYTE
      000114E7H   PUBLIC    XDATA    BYTE      ?soft_iic_transfer_16bit_array?BYTE
      0001182CH   PUBLIC    XDATA    BYTE      ?soft_iic_init?BYTE
      000000D0H   SFRSYM    DATA     BYTE      PSW
      0000009DH   SFRSYM    DATA     BYTE      IRCBAND
      00000097H   SFRSYM    DATA     BYTE      AUXR2
      000000EFH   SFRSYM    DATA     BYTE      AUXINTIF
      000000FDH   SFRSYM    DATA     BYTE      S4CON
      000000ACH   SFRSYM    DATA     BYTE      S3CON
      0000009AH   SFRSYM    DATA     BYTE      S2CON
      000000B7H   SFRSYM    DATA     BYTE      IPH
      000000CDH   SFRSYM    DATA     BYTE      SPSTAT
      000000DDH   SFRSYM    DATA     BYTE      T4T3M
      000000C1H   SFRSYM    DATA     BYTE      WDT_CONTR
      000000DFH   SFRSYM    DATA     BYTE      IP3
      000000F4H   SFRSYM    DATA     BYTE      USBCON
      000000B5H   SFRSYM    DATA     BYTE      IP2
      000000FFH   SFRSYM    DATA     BYTE      RSTCFG
      000000C7H   SFRSYM    DATA     BYTE      IAP_CONTR
      000000F9H   SFRSYM    DATA     BYTE      LINICR
      0000008EH   SFRSYM    DATA     BYTE      AUXR
      000000AFH   SFRSYM    DATA     BYTE      IE2
      00000088H   SFRSYM    DATA     BYTE      TCON
      00000089H   SFRSYM    DATA     BYTE      TMOD
      00000098H   SFRSYM    DATA     BYTE      SCON
      000000F1H   SFRSYM    DATA     BYTE      CANICR
L251 LINKER/LOCATER V4.66.93.0                                                        03/29/2026  20:20:13  PAGE 70


      00000087H   SFRSYM    DATA     BYTE      PCON
      000000BCH   SFRSYM    DATA     BYTE      ADC_CONTR
      000000E7H   SFRSYM    DATA     BYTE      CMPCR2
      000000E6H   SFRSYM    DATA     BYTE      CMPCR1
      000000DEH   SFRSYM    DATA     BYTE      ADCCFG
      000000B8H   SFRSYM    DATA     BYTE      IP
      0000008FH   SFRSYM    DATA     BYTE      INTCLKO
      000000EEH   SFRSYM    DATA     BYTE      IP3H
      000000B6H   SFRSYM    DATA     BYTE      IP2H
      000000A8H   SFRSYM    DATA     BYTE      IE
      000000BBH   SFRSYM    DATA     BYTE      P_SW3
      000000BAH   SFRSYM    DATA     BYTE      P_SW2
      000000A2H   SFRSYM    DATA     BYTE      P_SW1
      000000CEH   SFRSYM    DATA     BYTE      SPCTL
      000000F8H   SFRSYM    DATA     BYTE      P7
      000000E8H   SFRSYM    DATA     BYTE      P6
      000000C8H   SFRSYM    DATA     BYTE      P5
      000000C0H   SFRSYM    DATA     BYTE      P4
      000000B0H   SFRSYM    DATA     BYTE      P3
      000000A0H   SFRSYM    DATA     BYTE      P2
      00000090H   SFRSYM    DATA     BYTE      P1
      00000080H   SFRSYM    DATA     BYTE      P0

      00FF9019H   BLOCK     CODE     ---       LVL=0
      00011C4DH   SYMBOL    XDATA    DWORD     delay
      00FF9023H   BLOCK     CODE     NEAR LAB  LVL=1
      00011C51H   SYMBOL    XDATA    DWORD     count
      ---         BLOCKEND  ---      ---       LVL=1
      00FF9019H   LINE      CODE     ---       #53
      00FF9023H   LINE      CODE     ---       #54
      00FF9023H   LINE      CODE     ---       #55
      00FF9037H   LINE      CODE     ---       #56
      00FF9054H   LINE      CODE     ---       #57
      ---         BLOCKEND  ---      ---       LVL=0

      00FF8114H   BLOCK     CODE     ---       LVL=0
      00011EA7H   SYMBOL    XDATA    ---       soft_iic_obj
      00FF8114H   LINE      CODE     ---       #67
      00FF811EH   LINE      CODE     ---       #69
      00FF8140H   LINE      CODE     ---       #70
      00FF8152H   LINE      CODE     ---       #71
      00FF8166H   LINE      CODE     ---       #73
      00FF817EH   LINE      CODE     ---       #74
      00FF8191H   LINE      CODE     ---       #75
      00FF81A9H   LINE      CODE     ---       #76
      00FF81BAH   LINE      CODE     ---       #77
      ---         BLOCKEND  ---      ---       LVL=0

      00FF7EFEH   BLOCK     CODE     ---       LVL=0
      00011EABH   SYMBOL    XDATA    ---       soft_iic_obj
      00FF7EFEH   LINE      CODE     ---       #86
      00FF7F08H   LINE      CODE     ---       #88
      00FF7F2AH   LINE      CODE     ---       #89
      00FF7F3DH   LINE      CODE     ---       #90
      00FF7F4EH   LINE      CODE     ---       #92
      00FF7F66H   LINE      CODE     ---       #93
      00FF7F78H   LINE      CODE     ---       #94
      00FF7F90H   LINE      CODE     ---       #95
      00FF7FA4H   LINE      CODE     ---       #96
      00FF7FBCH   LINE      CODE     ---       #97
      ---         BLOCKEND  ---      ---       LVL=0

      00FF7C9DH   BLOCK     CODE     ---       LVL=0
      00011E1FH   SYMBOL    XDATA    ---       soft_iic_obj
      00011E23H   SYMBOL    XDATA    BYTE      ack
L251 LINKER/LOCATER V4.66.93.0                                                        03/29/2026  20:20:13  PAGE 71


      00FF7C9DH   LINE      CODE     ---       #107
      00FF7CABH   LINE      CODE     ---       #109
      00FF7CCDH   LINE      CODE     ---       #110
      00FF7CDEH   LINE      CODE     ---       #112
      00FF7CE7H   LINE      CODE     ---       #114
      00FF7CFBH   LINE      CODE     ---       #115
      00FF7CFDH   LINE      CODE     ---       #118
      00FF7D10H   LINE      CODE     ---       #119
      00FF7D10H   LINE      CODE     ---       #121
      00FF7D28H   LINE      CODE     ---       #122
      00FF7D3AH   LINE      CODE     ---       #123
      00FF7D52H   LINE      CODE     ---       #124
      00FF7D63H   LINE      CODE     ---       #125
      00FF7D77H   LINE      CODE     ---       #126
      ---         BLOCKEND  ---      ---       LVL=0

      00FF7BBAH   BLOCK     CODE     ---       LVL=0
      00011E24H   SYMBOL    XDATA    ---       soft_iic_obj
      00FF7BC4H   BLOCK     CODE     NEAR LAB  LVL=1
      00011E28H   SYMBOL    XDATA    BYTE      temp
      ---         BLOCKEND  ---      ---       LVL=1
      00FF7BBAH   LINE      CODE     ---       #135
      00FF7BC4H   LINE      CODE     ---       #136
      00FF7BC4H   LINE      CODE     ---       #137
      00FF7BC9H   LINE      CODE     ---       #138
      00FF7BEBH   LINE      CODE     ---       #140
      00FF7BFCH   LINE      CODE     ---       #141
      00FF7C10H   LINE      CODE     ---       #145
      00FF7C28H   LINE      CODE     ---       #147
      00FF7C3AH   LINE      CODE     ---       #148
      00FF7C52H   LINE      CODE     ---       #150
      00FF7C69H   LINE      CODE     ---       #152
      00FF7C6FH   LINE      CODE     ---       #153
      00FF7C6FH   LINE      CODE     ---       #154
      00FF7C80H   LINE      CODE     ---       #158
      00FF7C98H   LINE      CODE     ---       #160
      00FF7C9CH   LINE      CODE     ---       #161
      ---         BLOCKEND  ---      ---       LVL=0

      00FF00A6H   BLOCK     CODE     ---       LVL=0
      00011D57H   SYMBOL    XDATA    ---       soft_iic_obj
      00011D5BH   SYMBOL    XDATA    BYTE      dat
      00FF00B4H   BLOCK     CODE     NEAR LAB  LVL=1
      00011D5CH   SYMBOL    XDATA    BYTE      temp
      ---         BLOCKEND  ---      ---       LVL=1
      00FF00A6H   LINE      CODE     ---       #170
      00FF00B4H   LINE      CODE     ---       #171
      00FF00B4H   LINE      CODE     ---       #172
      00FF00BAH   LINE      CODE     ---       #174
      00FF00DCH   LINE      CODE     ---       #176
      00FF00DFH   LINE      CODE     ---       #179
      00FF011CH   LINE      CODE     ---       #180
      00FF0123H   LINE      CODE     ---       #182
      00FF013BH   LINE      CODE     ---       #183
      00FF014DH   LINE      CODE     ---       #184
      00FF0165H   LINE      CODE     ---       #185
      00FF0176H   LINE      CODE     ---       #186
      00FF0182H   LINE      CODE     ---       #187
      00FF0199H   LINE      CODE     ---       #188
      ---         BLOCKEND  ---      ---       LVL=0

      00FF7561H   BLOCK     CODE     ---       LVL=0
      00011D1CH   SYMBOL    XDATA    ---       soft_iic_obj
      00011D20H   SYMBOL    XDATA    BYTE      ack
      00FF756FH   BLOCK     CODE     NEAR LAB  LVL=1
L251 LINKER/LOCATER V4.66.93.0                                                        03/29/2026  20:20:13  PAGE 72


      00011D21H   SYMBOL    XDATA    BYTE      dat
      00011D22H   SYMBOL    XDATA    BYTE      temp
      ---         BLOCKEND  ---      ---       LVL=1
      00FF7561H   LINE      CODE     ---       #197
      00FF756FH   LINE      CODE     ---       #198
      00FF756FH   LINE      CODE     ---       #199
      00FF7574H   LINE      CODE     ---       #200
      00FF757AH   LINE      CODE     ---       #201
      00FF759CH   LINE      CODE     ---       #202
      00FF75ADH   LINE      CODE     ---       #203
      00FF75C5H   LINE      CODE     ---       #204
      00FF75D9H   LINE      CODE     ---       #209
      00FF75DBH   LINE      CODE     ---       #211
      00FF75ECH   LINE      CODE     ---       #212
      00FF7604H   LINE      CODE     ---       #213
      00FF7616H   LINE      CODE     ---       #214
      00FF762EH   LINE      CODE     ---       #215
      00FF764EH   LINE      CODE     ---       #216
      00FF7664H   LINE      CODE     ---       #217
      00FF7675H   LINE      CODE     ---       #221
      00FF768DH   LINE      CODE     ---       #222
      00FF769EH   LINE      CODE     ---       #223
      00FF76A2H   LINE      CODE     ---       #224
      ---         BLOCKEND  ---      ---       LVL=0
      00011E29H   SYMBOL    XDATA    ---       soft_iic_obj
      00011E2DH   SYMBOL    XDATA    BYTE      dat
      000118BBH   SYMBOL    XDATA    ---       soft_iic_obj
      000118BFH   SYMBOL    XDATA    ---       dat
      000118C3H   SYMBOL    XDATA    DWORD     len
      00011D5DH   SYMBOL    XDATA    ---       soft_iic_obj
      00011D61H   SYMBOL    XDATA    WORD      dat
      000118C7H   SYMBOL    XDATA    ---       soft_iic_obj
      000118CBH   SYMBOL    XDATA    ---       dat
      000118CFH   SYMBOL    XDATA    DWORD     len
      00011D63H   SYMBOL    XDATA    ---       soft_iic_obj
      00011D67H   SYMBOL    XDATA    BYTE      register_name
      00011D68H   SYMBOL    XDATA    BYTE      dat
      00011812H   SYMBOL    XDATA    ---       soft_iic_obj
      00011816H   SYMBOL    XDATA    BYTE      register_name
      00011817H   SYMBOL    XDATA    ---       dat
      0001181BH   SYMBOL    XDATA    DWORD     len
      00011C55H   SYMBOL    XDATA    ---       soft_iic_obj
      00011C59H   SYMBOL    XDATA    WORD      register_name
      00011C5BH   SYMBOL    XDATA    WORD      dat
      0001176BH   SYMBOL    XDATA    ---       soft_iic_obj
      0001176FH   SYMBOL    XDATA    WORD      register_name
      00011771H   SYMBOL    XDATA    ---       dat
      00011775H   SYMBOL    XDATA    DWORD     len
      00011E2EH   SYMBOL    XDATA    ---       soft_iic_obj
      00011E32H   SYMBOL    XDATA    BYTE      temp
      000118D3H   SYMBOL    XDATA    ---       soft_iic_obj
      000118D7H   SYMBOL    XDATA    ---       dat
      000118DBH   SYMBOL    XDATA    DWORD     len
      00011D69H   SYMBOL    XDATA    ---       soft_iic_obj
      00011D6DH   SYMBOL    XDATA    WORD      temp
      000118DFH   SYMBOL    XDATA    ---       soft_iic_obj
      000118E3H   SYMBOL    XDATA    ---       dat
      000118E7H   SYMBOL    XDATA    DWORD     len
      00011D6FH   SYMBOL    XDATA    ---       soft_iic_obj
      00011D73H   SYMBOL    XDATA    BYTE      register_name
      00011D74H   SYMBOL    XDATA    BYTE      temp
      0001181FH   SYMBOL    XDATA    ---       soft_iic_obj
      00011823H   SYMBOL    XDATA    BYTE      register_name
      00011824H   SYMBOL    XDATA    ---       dat
      00011828H   SYMBOL    XDATA    DWORD     len
L251 LINKER/LOCATER V4.66.93.0                                                        03/29/2026  20:20:13  PAGE 73


      00011C5DH   SYMBOL    XDATA    ---       soft_iic_obj
      00011C61H   SYMBOL    XDATA    WORD      register_name
      00011C63H   SYMBOL    XDATA    WORD      temp
      00011779H   SYMBOL    XDATA    ---       soft_iic_obj
      0001177DH   SYMBOL    XDATA    WORD      register_name
      0001177FH   SYMBOL    XDATA    ---       dat
      00011783H   SYMBOL    XDATA    DWORD     len
      000114D3H   SYMBOL    XDATA    ---       soft_iic_obj
      000114D7H   SYMBOL    XDATA    ---       write_data
      000114DBH   SYMBOL    XDATA    DWORD     write_len
      000114DFH   SYMBOL    XDATA    ---       read_data
      000114E3H   SYMBOL    XDATA    DWORD     read_len
      000114E7H   SYMBOL    XDATA    ---       soft_iic_obj
      000114EBH   SYMBOL    XDATA    ---       write_data
      000114EFH   SYMBOL    XDATA    DWORD     write_len
      000114F3H   SYMBOL    XDATA    ---       read_data
      000114F7H   SYMBOL    XDATA    DWORD     read_len
      00011D75H   SYMBOL    XDATA    ---       soft_iic_obj
      00011D79H   SYMBOL    XDATA    BYTE      register_name
      00011D7AH   SYMBOL    XDATA    BYTE      dat
      00011D7BH   SYMBOL    XDATA    ---       soft_iic_obj
      00011D7FH   SYMBOL    XDATA    BYTE      register_name
      00011D80H   SYMBOL    XDATA    BYTE      temp
      0001182CH   SYMBOL    XDATA    ---       soft_iic_obj
      00011830H   SYMBOL    XDATA    BYTE      addr
      00011831H   SYMBOL    XDATA    DWORD     delay
      00011835H   SYMBOL    XDATA    INT       scl_pin
      00011837H   SYMBOL    XDATA    INT       sda_pin

      ---         MODULE    ---      ---       zf_driver_soft_spi
      000118EBH   PUBLIC    XDATA    BYTE      ?soft_spi_write_8bit_array?BYTE
      000118F7H   PUBLIC    XDATA    BYTE      ?soft_spi_write_16bit_array?BYTE
      00011839H   PUBLIC    XDATA    BYTE      ?soft_spi_write_8bit_registers?BYTE
      00011787H   PUBLIC    XDATA    BYTE      ?soft_spi_write_16bit_registers?BYTE
      00011903H   PUBLIC    XDATA    BYTE      ?soft_spi_read_8bit_array?BYTE
      0001190FH   PUBLIC    XDATA    BYTE      ?soft_spi_read_16bit_array?BYTE
      00011846H   PUBLIC    XDATA    BYTE      ?soft_spi_read_8bit_registers?BYTE
      00011795H   PUBLIC    XDATA    BYTE      ?soft_spi_read_16bit_registers?BYTE
      00011688H   PUBLIC    XDATA    BYTE      ?soft_spi_transfer_8bit?BYTE
      00011698H   PUBLIC    XDATA    BYTE      ?soft_spi_transfer_16bit?BYTE
      0001146DH   PUBLIC    XDATA    BYTE      ?soft_spi_init?BYTE
      000000D0H   SFRSYM    DATA     BYTE      PSW
      0000009DH   SFRSYM    DATA     BYTE      IRCBAND
      00000097H   SFRSYM    DATA     BYTE      AUXR2
      000000EFH   SFRSYM    DATA     BYTE      AUXINTIF
      000000FDH   SFRSYM    DATA     BYTE      S4CON
      000000ACH   SFRSYM    DATA     BYTE      S3CON
      0000009AH   SFRSYM    DATA     BYTE      S2CON
      000000B7H   SFRSYM    DATA     BYTE      IPH
      000000CDH   SFRSYM    DATA     BYTE      SPSTAT
      000000DDH   SFRSYM    DATA     BYTE      T4T3M
      000000C1H   SFRSYM    DATA     BYTE      WDT_CONTR
      000000DFH   SFRSYM    DATA     BYTE      IP3
      000000F4H   SFRSYM    DATA     BYTE      USBCON
      000000B5H   SFRSYM    DATA     BYTE      IP2
      000000FFH   SFRSYM    DATA     BYTE      RSTCFG
      000000C7H   SFRSYM    DATA     BYTE      IAP_CONTR
      000000F9H   SFRSYM    DATA     BYTE      LINICR
      0000008EH   SFRSYM    DATA     BYTE      AUXR
      000000AFH   SFRSYM    DATA     BYTE      IE2
      00000088H   SFRSYM    DATA     BYTE      TCON
      00000089H   SFRSYM    DATA     BYTE      TMOD
      00000098H   SFRSYM    DATA     BYTE      SCON
      000000F1H   SFRSYM    DATA     BYTE      CANICR
      00000087H   SFRSYM    DATA     BYTE      PCON
L251 LINKER/LOCATER V4.66.93.0                                                        03/29/2026  20:20:13  PAGE 74


      000000BCH   SFRSYM    DATA     BYTE      ADC_CONTR
      000000E7H   SFRSYM    DATA     BYTE      CMPCR2
      000000E6H   SFRSYM    DATA     BYTE      CMPCR1
      000000DEH   SFRSYM    DATA     BYTE      ADCCFG
      000000B8H   SFRSYM    DATA     BYTE      IP
      0000008FH   SFRSYM    DATA     BYTE      INTCLKO
      000000EEH   SFRSYM    DATA     BYTE      IP3H
      000000B6H   SFRSYM    DATA     BYTE      IP2H
      000000A8H   SFRSYM    DATA     BYTE      IE
      000000BBH   SFRSYM    DATA     BYTE      P_SW3
      000000BAH   SFRSYM    DATA     BYTE      P_SW2
      000000A2H   SFRSYM    DATA     BYTE      P_SW1
      000000CEH   SFRSYM    DATA     BYTE      SPCTL
      000000F8H   SFRSYM    DATA     BYTE      P7
      000000E8H   SFRSYM    DATA     BYTE      P6
      000000C8H   SFRSYM    DATA     BYTE      P5
      000000C0H   SFRSYM    DATA     BYTE      P4
      000000B0H   SFRSYM    DATA     BYTE      P3
      000000A0H   SFRSYM    DATA     BYTE      P2
      00000090H   SFRSYM    DATA     BYTE      P1
      00000080H   SFRSYM    DATA     BYTE      P0
      00011C65H   SYMBOL    XDATA    DWORD     x
      00011C69H   SYMBOL    XDATA    DWORD     i
      00011C6DH   SYMBOL    XDATA    ---       soft_spi_obj
      00011C71H   SYMBOL    XDATA    BYTE      dat
      00011C72H   SYMBOL    XDATA    BYTE      temp
      00011C73H   SYMBOL    XDATA    BYTE      write_data
      00011C74H   SYMBOL    XDATA    BYTE      read_data
      00011A5DH   SYMBOL    XDATA    ---       soft_spi_obj
      00011A61H   SYMBOL    XDATA    WORD      dat
      00011A63H   SYMBOL    XDATA    BYTE      temp
      00011A64H   SYMBOL    XDATA    WORD      write_data
      00011A66H   SYMBOL    XDATA    WORD      read_data
      00011E33H   SYMBOL    XDATA    ---       soft_spi_obj
      00011E37H   SYMBOL    XDATA    BYTE      dat
      000118EBH   SYMBOL    XDATA    ---       soft_spi_obj
      000118EFH   SYMBOL    XDATA    ---       dat
      000118F3H   SYMBOL    XDATA    DWORD     len
      00011D81H   SYMBOL    XDATA    ---       soft_spi_obj
      00011D85H   SYMBOL    XDATA    WORD      dat
      000118F7H   SYMBOL    XDATA    ---       soft_spi_obj
      000118FBH   SYMBOL    XDATA    ---       dat
      000118FFH   SYMBOL    XDATA    DWORD     len
      00011D87H   SYMBOL    XDATA    ---       soft_spi_obj
      00011D8BH   SYMBOL    XDATA    BYTE      register_name
      00011D8CH   SYMBOL    XDATA    BYTE      dat
      00011839H   SYMBOL    XDATA    ---       soft_spi_obj
      0001183DH   SYMBOL    XDATA    BYTE      register_name
      0001183EH   SYMBOL    XDATA    ---       dat
      00011842H   SYMBOL    XDATA    DWORD     len
      00011C75H   SYMBOL    XDATA    ---       soft_spi_obj
      00011C79H   SYMBOL    XDATA    WORD      register_name
      00011C7BH   SYMBOL    XDATA    WORD      dat
      00011787H   SYMBOL    XDATA    ---       soft_spi_obj
      0001178BH   SYMBOL    XDATA    WORD      register_name
      0001178DH   SYMBOL    XDATA    ---       dat
      00011791H   SYMBOL    XDATA    DWORD     len
      00011E38H   SYMBOL    XDATA    ---       soft_spi_obj
      00011E3CH   SYMBOL    XDATA    BYTE      dat
      00011903H   SYMBOL    XDATA    ---       soft_spi_obj
      00011907H   SYMBOL    XDATA    ---       dat
      0001190BH   SYMBOL    XDATA    DWORD     len
      00011E3DH   SYMBOL    XDATA    ---       soft_spi_obj
      00011E41H   SYMBOL    XDATA    BYTE      dat
      0001190FH   SYMBOL    XDATA    ---       soft_spi_obj
L251 LINKER/LOCATER V4.66.93.0                                                        03/29/2026  20:20:13  PAGE 75


      00011913H   SYMBOL    XDATA    ---       dat
      00011917H   SYMBOL    XDATA    DWORD     len
      00011D8DH   SYMBOL    XDATA    ---       soft_spi_obj
      00011D91H   SYMBOL    XDATA    BYTE      register_name
      00011D92H   SYMBOL    XDATA    BYTE      dat
      00011846H   SYMBOL    XDATA    ---       soft_spi_obj
      0001184AH   SYMBOL    XDATA    BYTE      register_name
      0001184BH   SYMBOL    XDATA    ---       dat
      0001184FH   SYMBOL    XDATA    DWORD     len
      00011C7DH   SYMBOL    XDATA    ---       soft_spi_obj
      00011C81H   SYMBOL    XDATA    WORD      register_name
      00011C83H   SYMBOL    XDATA    WORD      dat
      00011795H   SYMBOL    XDATA    ---       soft_spi_obj
      00011799H   SYMBOL    XDATA    WORD      register_name
      0001179BH   SYMBOL    XDATA    ---       dat
      0001179FH   SYMBOL    XDATA    DWORD     len
      00011688H   SYMBOL    XDATA    ---       soft_spi_obj
      0001168CH   SYMBOL    XDATA    ---       write_buffer
      00011690H   SYMBOL    XDATA    ---       read_buffer
      00011694H   SYMBOL    XDATA    DWORD     len
      00011698H   SYMBOL    XDATA    ---       soft_spi_obj
      0001169CH   SYMBOL    XDATA    ---       write_buffer
      000116A0H   SYMBOL    XDATA    ---       read_buffer
      000116A4H   SYMBOL    XDATA    DWORD     len
      0001146DH   SYMBOL    XDATA    ---       soft_spi_obj
      00011471H   SYMBOL    XDATA    BYTE      mode
      00011472H   SYMBOL    XDATA    DWORD     delay
      00011476H   SYMBOL    XDATA    INT       sck_pin
      00011478H   SYMBOL    XDATA    INT       mosi_pin
      0001147AH   SYMBOL    XDATA    DWORD     miso_pin
      0001147EH   SYMBOL    XDATA    DWORD     cs_pin

      ---         MODULE    ---      ---       zf_driver_spi
      00FF0026H   PUBLIC    CODE     ---       spi_write_8bit
      00FF505DH   PUBLIC    CODE     ---       spi_init
      00FF9055H   PUBLIC    CODE     ---       spi_write_16bit
      00FF8A00H   PUBLIC    CODE     ---       spi_read_dat
      00FF8B4EH   PUBLIC    CODE     ---       spi_write_dat
      00011ABDH   PUBLIC    XDATA    BYTE      ?spi_write_8bit_array?BYTE
      00011AC7H   PUBLIC    XDATA    BYTE      ?spi_write_16bit_array?BYTE
      00011A68H   PUBLIC    XDATA    BYTE      ?spi_write_8bit_registers?BYTE
      0001191BH   PUBLIC    XDATA    BYTE      ?spi_write_16bit_registers?BYTE
      00011AD1H   PUBLIC    XDATA    BYTE      ?spi_read_8bit_array?BYTE
      00011ADBH   PUBLIC    XDATA    BYTE      ?spi_read_16bit_array?BYTE
      00011A73H   PUBLIC    XDATA    BYTE      ?spi_read_8bit_registers?BYTE
      00011927H   PUBLIC    XDATA    BYTE      ?spi_read_16bit_registers?BYTE
      000117A3H   PUBLIC    XDATA    BYTE      ?spi_transfer_8bit?BYTE
      000117B1H   PUBLIC    XDATA    BYTE      ?spi_transfer_16bit?BYTE
      000114FBH   PUBLIC    XDATA    BYTE      ?spi_init?BYTE
      000000CFH   SFRSYM    DATA     BYTE      SPDAT
      000000D0H   SFRSYM    DATA     BYTE      PSW
      0000009DH   SFRSYM    DATA     BYTE      IRCBAND
      00000097H   SFRSYM    DATA     BYTE      AUXR2
      000000EFH   SFRSYM    DATA     BYTE      AUXINTIF
      000000FDH   SFRSYM    DATA     BYTE      S4CON
      000000ACH   SFRSYM    DATA     BYTE      S3CON
      0000009AH   SFRSYM    DATA     BYTE      S2CON
      0000009BH   SFRSYM    DATA     BYTE      S2BUF
      000000B7H   SFRSYM    DATA     BYTE      IPH
      000000CDH   SFRSYM    DATA     BYTE      SPSTAT
      000000DDH   SFRSYM    DATA     BYTE      T4T3M
      000000C1H   SFRSYM    DATA     BYTE      WDT_CONTR
      000000DFH   SFRSYM    DATA     BYTE      IP3
      000000F4H   SFRSYM    DATA     BYTE      USBCON
      000000B5H   SFRSYM    DATA     BYTE      IP2
L251 LINKER/LOCATER V4.66.93.0                                                        03/29/2026  20:20:13  PAGE 76


      000000FFH   SFRSYM    DATA     BYTE      RSTCFG
      000000C7H   SFRSYM    DATA     BYTE      IAP_CONTR
      000000F9H   SFRSYM    DATA     BYTE      LINICR
      0000008EH   SFRSYM    DATA     BYTE      AUXR
      000000AFH   SFRSYM    DATA     BYTE      IE2
      00000088H   SFRSYM    DATA     BYTE      TCON
      00000089H   SFRSYM    DATA     BYTE      TMOD
      00000098H   SFRSYM    DATA     BYTE      SCON
      000000F1H   SFRSYM    DATA     BYTE      CANICR
      00000087H   SFRSYM    DATA     BYTE      PCON
      00000099H   SFRSYM    DATA     BYTE      SBUF
      000000BCH   SFRSYM    DATA     BYTE      ADC_CONTR
      000000E7H   SFRSYM    DATA     BYTE      CMPCR2
      000000E6H   SFRSYM    DATA     BYTE      CMPCR1
      0000009AH.1 SFRSYM    DATA     BIT       S2TI
      00000098H.1 SFRSYM    DATA     BIT       TI
      000000DEH   SFRSYM    DATA     BYTE      ADCCFG
      000000B8H   SFRSYM    DATA     BYTE      IP
      0000008FH   SFRSYM    DATA     BYTE      INTCLKO
      000000EEH   SFRSYM    DATA     BYTE      IP3H
      000000B6H   SFRSYM    DATA     BYTE      IP2H
      000000A8H   SFRSYM    DATA     BYTE      IE
      000000BBH   SFRSYM    DATA     BYTE      P_SW3
      000000BAH   SFRSYM    DATA     BYTE      P_SW2
      000000A2H   SFRSYM    DATA     BYTE      P_SW1
      000000CEH   SFRSYM    DATA     BYTE      SPCTL
      000000F8H   SFRSYM    DATA     BYTE      P7
      000000E8H   SFRSYM    DATA     BYTE      P6
      000000C8H   SFRSYM    DATA     BYTE      P5
      000000C0H   SFRSYM    DATA     BYTE      P4
      000000B0H   SFRSYM    DATA     BYTE      P3
      000000A0H   SFRSYM    DATA     BYTE      P2
      00000090H   SFRSYM    DATA     BYTE      P1
      00000080H   SFRSYM    DATA     BYTE      P0

      00FF8B4EH   BLOCK     CODE     ---       LVL=0
      00011F0EH   SYMBOL    XDATA    INT       spi_n
      00011F10H   SYMBOL    XDATA    BYTE      dat
      00FF8B4EH   LINE      CODE     ---       #81
      00FF8B58H   LINE      CODE     ---       #83
      00FF8B6AH   LINE      CODE     ---       #85
      00FF8B6AH   LINE      CODE     ---       #86
      00FF8B6EH   LINE      CODE     ---       #87
      00FF8B74H   LINE      CODE     ---       #88
      00FF8B79H   LINE      CODE     ---       #89
      00FF8B7BH   LINE      CODE     ---       #90
      00FF8B7BH   LINE      CODE     ---       #91
      00FF8B7EH   LINE      CODE     ---       #92
      00FF8B84H   LINE      CODE     ---       #93
      00FF8B87H   LINE      CODE     ---       #94
      00FF8B89H   LINE      CODE     ---       #95
      00FF8B89H   LINE      CODE     ---       #96
      00FF8B8DH   LINE      CODE     ---       #97
      00FF8B93H   LINE      CODE     ---       #98
      00FF8B97H   LINE      CODE     ---       #99
      00FF8B99H   LINE      CODE     ---       #100
      00FF8B99H   LINE      CODE     ---       #101
      00FF8BA9H   LINE      CODE     ---       #102
      00FF8BA9H   LINE      CODE     ---       #103
      00FF8BA9H   LINE      CODE     ---       #104
      ---         BLOCKEND  ---      ---       LVL=0

      00FF8A00H   BLOCK     CODE     ---       LVL=0
      00011EAFH   SYMBOL    XDATA    INT       spi_n
      00011EB1H   SYMBOL    XDATA    BYTE      dat
L251 LINKER/LOCATER V4.66.93.0                                                        03/29/2026  20:20:13  PAGE 77


      00FF8A0AH   BLOCK     CODE     NEAR LAB  LVL=1
      00011EB2H   SYMBOL    XDATA    BYTE      ret
      ---         BLOCKEND  ---      ---       LVL=1
      00FF8A00H   LINE      CODE     ---       #107
      00FF8A0AH   LINE      CODE     ---       #108
      00FF8A0AH   LINE      CODE     ---       #109
      00FF8A10H   LINE      CODE     ---       #110
      00FF8A22H   LINE      CODE     ---       #112
      00FF8A22H   LINE      CODE     ---       #113
      00FF8A26H   LINE      CODE     ---       #114
      00FF8A2CH   LINE      CODE     ---       #115
      00FF8A31H   LINE      CODE     ---       #116
      00FF8A37H   LINE      CODE     ---       #117
      00FF8A39H   LINE      CODE     ---       #118
      00FF8A39H   LINE      CODE     ---       #119
      00FF8A3CH   LINE      CODE     ---       #120
      00FF8A42H   LINE      CODE     ---       #121
      00FF8A45H   LINE      CODE     ---       #122
      00FF8A4BH   LINE      CODE     ---       #123
      00FF8A4DH   LINE      CODE     ---       #124
      00FF8A4DH   LINE      CODE     ---       #125
      00FF8A51H   LINE      CODE     ---       #126
      00FF8A57H   LINE      CODE     ---       #127
      00FF8A5BH   LINE      CODE     ---       #128
      00FF8A61H   LINE      CODE     ---       #129
      00FF8A63H   LINE      CODE     ---       #130
      00FF8A63H   LINE      CODE     ---       #131
      00FF8A73H   LINE      CODE     ---       #132
      00FF8A73H   LINE      CODE     ---       #133
      00FF8A73H   LINE      CODE     ---       #135
      00FF8A77H   LINE      CODE     ---       #136
      ---         BLOCKEND  ---      ---       LVL=0

      00FF0026H   BLOCK     CODE     ---       LVL=0
      00011F11H   SYMBOL    XDATA    INT       spi_n
      00011F13H   SYMBOL    XDATA    BYTE      dat
      00FF0026H   LINE      CODE     ---       #147
      00FF0030H   LINE      CODE     ---       #149
      00FF003DH   LINE      CODE     ---       #150
      ---         BLOCKEND  ---      ---       LVL=0
      00011ABDH   SYMBOL    XDATA    INT       spi_n
      00011ABFH   SYMBOL    XDATA    ---       dat
      00011AC3H   SYMBOL    XDATA    DWORD     len

      00FF9055H   BLOCK     CODE     ---       LVL=0
      00011EB3H   SYMBOL    XDATA    INT       spi_n
      00011EB5H   SYMBOL    XDATA    WORD      dat
      00FF9055H   LINE      CODE     ---       #175
      00FF9061H   LINE      CODE     ---       #177
      00FF907AH   LINE      CODE     ---       #178
      00FF908FH   LINE      CODE     ---       #179
      ---         BLOCKEND  ---      ---       LVL=0
      00011AC7H   SYMBOL    XDATA    INT       spi_n
      00011AC9H   SYMBOL    XDATA    ---       dat
      00011ACDH   SYMBOL    XDATA    DWORD     len
      00011EB7H   SYMBOL    XDATA    INT       spi_n
      00011EB9H   SYMBOL    XDATA    BYTE      register_name
      00011EBAH   SYMBOL    XDATA    BYTE      dat
      00011A68H   SYMBOL    XDATA    INT       spi_n
      00011A6AH   SYMBOL    XDATA    BYTE      register_name
      00011A6BH   SYMBOL    XDATA    ---       dat
      00011A6FH   SYMBOL    XDATA    DWORD     len
      00011D93H   SYMBOL    XDATA    INT       spi_n
      00011D95H   SYMBOL    XDATA    WORD      register_name
      00011D97H   SYMBOL    XDATA    WORD      dat
L251 LINKER/LOCATER V4.66.93.0                                                        03/29/2026  20:20:13  PAGE 78


      0001191BH   SYMBOL    XDATA    INT       spi_n
      0001191DH   SYMBOL    XDATA    WORD      register_name
      0001191FH   SYMBOL    XDATA    ---       dat
      00011F40H   SYMBOL    XDATA    INT       spi_n
      00011AD1H   SYMBOL    XDATA    INT       spi_n
      00011AD3H   SYMBOL    XDATA    ---       dat
      00011AD7H   SYMBOL    XDATA    DWORD     len
      00011EBBH   SYMBOL    XDATA    INT       spi_n
      00011EBDH   SYMBOL    XDATA    WORD      dat
      00011ADBH   SYMBOL    XDATA    INT       spi_n
      00011ADDH   SYMBOL    XDATA    ---       dat
      00011AE1H   SYMBOL    XDATA    DWORD     len
      00011F14H   SYMBOL    XDATA    INT       spi_n
      00011F16H   SYMBOL    XDATA    BYTE      register_name
      00011A73H   SYMBOL    XDATA    INT       spi_n
      00011A75H   SYMBOL    XDATA    BYTE      register_name
      00011A76H   SYMBOL    XDATA    ---       dat
      00011A7AH   SYMBOL    XDATA    DWORD     len
      00011D99H   SYMBOL    XDATA    INT       spi_n
      00011D9BH   SYMBOL    XDATA    WORD      register_name
      00011D9DH   SYMBOL    XDATA    WORD      dat
      00011927H   SYMBOL    XDATA    INT       spi_n
      00011929H   SYMBOL    XDATA    WORD      register_name
      0001192BH   SYMBOL    XDATA    ---       dat
      0001192FH   SYMBOL    XDATA    DWORD     len
      000117A3H   SYMBOL    XDATA    INT       spi_n
      000117A5H   SYMBOL    XDATA    ---       write_buffer
      000117A9H   SYMBOL    XDATA    ---       read_buffer
      000117ADH   SYMBOL    XDATA    DWORD     len
      000117B1H   SYMBOL    XDATA    INT       spi_n
      000117B3H   SYMBOL    XDATA    ---       write_buffer
      000117B7H   SYMBOL    XDATA    ---       read_buffer
      000117BBH   SYMBOL    XDATA    DWORD     len

      00FF505DH   BLOCK     CODE     ---       LVL=0
      000114FBH   SYMBOL    XDATA    INT       spi_n
      000114FDH   SYMBOL    XDATA    INT       mode
      000114FFH   SYMBOL    XDATA    DWORD     baud
      00011503H   SYMBOL    XDATA    INT       sck_pin
      00011505H   SYMBOL    XDATA    INT       mosi_pin
      00011507H   SYMBOL    XDATA    INT       miso_pin
      00011509H   SYMBOL    XDATA    INT       cs_pin
      00FF5073H   BLOCK     CODE     NEAR LAB  LVL=1
      0001150BH   SYMBOL    XDATA    DWORD     spi_psc
      ---         BLOCKEND  ---      ---       LVL=1
      00FF505DH   LINE      CODE     ---       #465
      00FF5073H   LINE      CODE     ---       #466
      00FF5073H   LINE      CODE     ---       #468
      00FF507FH   LINE      CODE     ---       #470
      00FF509BH   LINE      CODE     ---       #472
      00FF50ABH   LINE      CODE     ---       #474
      00FF50ABH   LINE      CODE     ---       #476
      00FF50C4H   LINE      CODE     ---       #477
      00FF50DDH   LINE      CODE     ---       #479
      00FF50EBH   LINE      CODE     ---       #481
      00FF5100H   LINE      CODE     ---       #482
      00FF5100H   LINE      CODE     ---       #484
      00FF510EH   LINE      CODE     ---       #486
      00FF5126H   LINE      CODE     ---       #487
      00FF5126H   LINE      CODE     ---       #490
      00FF5136H   LINE      CODE     ---       #492
      00FF5147H   LINE      CODE     ---       #493
      00FF5158H   LINE      CODE     ---       #494
      00FF5166H   LINE      CODE     ---       #496
      00FF5177H   LINE      CODE     ---       #497
L251 LINKER/LOCATER V4.66.93.0                                                        03/29/2026  20:20:13  PAGE 79


      00FF5177H   LINE      CODE     ---       #498
      00FF5185H   LINE      CODE     ---       #500
      00FF5196H   LINE      CODE     ---       #501
      00FF5196H   LINE      CODE     ---       #504
      00FF51A5H   LINE      CODE     ---       #506
      00FF51A8H   LINE      CODE     ---       #508
      00FF51CAH   LINE      CODE     ---       #510
      00FF51CAH   LINE      CODE     ---       #511
      00FF51CEH   LINE      CODE     ---       #512
      00FF51D0H   LINE      CODE     ---       #514
      00FF51D0H   LINE      CODE     ---       #515
      00FF51D3H   LINE      CODE     ---       #516
      00FF51D5H   LINE      CODE     ---       #518
      00FF51D5H   LINE      CODE     ---       #519
      00FF51D8H   LINE      CODE     ---       #520
      00FF51DAH   LINE      CODE     ---       #522
      00FF51DAH   LINE      CODE     ---       #523
      00FF51DDH   LINE      CODE     ---       #524
      00FF51DDH   LINE      CODE     ---       #525
      00FF51DDH   LINE      CODE     ---       #527
      00FF51E0H   LINE      CODE     ---       #528
      00FF51E3H   LINE      CODE     ---       #529
      00FF51E6H   LINE      CODE     ---       #532
      00FF5207H   LINE      CODE     ---       #534
      00FF520AH   LINE      CODE     ---       #536
      00FF521AH   LINE      CODE     ---       #538
      00FF521DH   LINE      CODE     ---       #539
      00FF521FH   LINE      CODE     ---       #540
      00FF522FH   LINE      CODE     ---       #542
      00FF5232H   LINE      CODE     ---       #543
      00FF5234H   LINE      CODE     ---       #544
      00FF5244H   LINE      CODE     ---       #546
      00FF5248H   LINE      CODE     ---       #547
      00FF524AH   LINE      CODE     ---       #550
      00FF524DH   LINE      CODE     ---       #551
      00FF524DH   LINE      CODE     ---       #554
      00FF5261H   LINE      CODE     ---       #556
      00FF5261H   LINE      CODE     ---       #557
      00FF5263H   LINE      CODE     ---       #559
      00FF5263H   LINE      CODE     ---       #560
      00FF5266H   LINE      CODE     ---       #561
      00FF5268H   LINE      CODE     ---       #563
      00FF5268H   LINE      CODE     ---       #564
      00FF526BH   LINE      CODE     ---       #565
      00FF526DH   LINE      CODE     ---       #567
      00FF526DH   LINE      CODE     ---       #568
      00FF5270H   LINE      CODE     ---       #569
      00FF5270H   LINE      CODE     ---       #570
      00FF5270H   LINE      CODE     ---       #572
      00FF5273H   LINE      CODE     ---       #573
      00FF5276H   LINE      CODE     ---       #574
      00FF5287H   LINE      CODE     ---       #583
      00FF529FH   LINE      CODE     ---       #586
      00FF52A2H   LINE      CODE     ---       #588
      00FF52C4H   LINE      CODE     ---       #590
      00FF52C4H   LINE      CODE     ---       #591
      00FF52C8H   LINE      CODE     ---       #592
      00FF52CAH   LINE      CODE     ---       #594
      00FF52CAH   LINE      CODE     ---       #595
      00FF52CDH   LINE      CODE     ---       #596
      00FF52CFH   LINE      CODE     ---       #598
      00FF52CFH   LINE      CODE     ---       #599
      00FF52D2H   LINE      CODE     ---       #600
      00FF52D4H   LINE      CODE     ---       #602
      00FF52D4H   LINE      CODE     ---       #603
L251 LINKER/LOCATER V4.66.93.0                                                        03/29/2026  20:20:13  PAGE 80


      00FF52D7H   LINE      CODE     ---       #604
      00FF52D7H   LINE      CODE     ---       #605
      00FF52D7H   LINE      CODE     ---       #607
      00FF52DBH   LINE      CODE     ---       #608
      00FF52E8H   LINE      CODE     ---       #612
      00FF5309H   LINE      CODE     ---       #616
      00FF5319H   LINE      CODE     ---       #618
      00FF532BH   LINE      CODE     ---       #619
      00FF532DH   LINE      CODE     ---       #620
      00FF533DH   LINE      CODE     ---       #622
      00FF534FH   LINE      CODE     ---       #623
      00FF5351H   LINE      CODE     ---       #626
      00FF535FH   LINE      CODE     ---       #627
      00FF535FH   LINE      CODE     ---       #635
      00FF5377H   LINE      CODE     ---       #637
      00FF5377H   LINE      CODE     ---       #638
      00FF5385H   LINE      CODE     ---       #639
      00FF5387H   LINE      CODE     ---       #641
      00FF5387H   LINE      CODE     ---       #642
      00FF5399H   LINE      CODE     ---       #643
      00FF539BH   LINE      CODE     ---       #645
      00FF539BH   LINE      CODE     ---       #646
      00FF53ADH   LINE      CODE     ---       #647
      00FF53AFH   LINE      CODE     ---       #649
      00FF53AFH   LINE      CODE     ---       #650
      00FF53C1H   LINE      CODE     ---       #651
      00FF53C1H   LINE      CODE     ---       #652
      00FF53C1H   LINE      CODE     ---       #654
      00FF53D3H   LINE      CODE     ---       #655
      00FF53D6H   LINE      CODE     ---       #656
      00FF53E7H   LINE      CODE     ---       #665
      00FF5401H   LINE      CODE     ---       #667
      00FF5404H   LINE      CODE     ---       #669
      00FF5426H   LINE      CODE     ---       #671
      00FF5426H   LINE      CODE     ---       #672
      00FF542AH   LINE      CODE     ---       #673
      00FF542CH   LINE      CODE     ---       #675
      00FF542CH   LINE      CODE     ---       #676
      00FF542FH   LINE      CODE     ---       #677
      00FF5431H   LINE      CODE     ---       #679
      00FF5431H   LINE      CODE     ---       #680
      00FF5434H   LINE      CODE     ---       #681
      00FF5436H   LINE      CODE     ---       #683
      00FF5436H   LINE      CODE     ---       #684
      00FF5439H   LINE      CODE     ---       #685
      00FF5439H   LINE      CODE     ---       #686
      00FF5439H   LINE      CODE     ---       #688
      00FF543DH   LINE      CODE     ---       #689
      00FF544AH   LINE      CODE     ---       #693
      00FF546BH   LINE      CODE     ---       #695
      00FF547BH   LINE      CODE     ---       #697
      00FF548DH   LINE      CODE     ---       #698
      00FF548FH   LINE      CODE     ---       #699
      00FF549FH   LINE      CODE     ---       #701
      00FF54B1H   LINE      CODE     ---       #702
      00FF54B3H   LINE      CODE     ---       #705
      00FF54C1H   LINE      CODE     ---       #706
      00FF54C1H   LINE      CODE     ---       #714
      00FF54D9H   LINE      CODE     ---       #716
      00FF54D9H   LINE      CODE     ---       #717
      00FF54E7H   LINE      CODE     ---       #718
      00FF54E9H   LINE      CODE     ---       #720
      00FF54E9H   LINE      CODE     ---       #721
      00FF54FBH   LINE      CODE     ---       #722
      00FF54FDH   LINE      CODE     ---       #724
L251 LINKER/LOCATER V4.66.93.0                                                        03/29/2026  20:20:13  PAGE 81


      00FF54FDH   LINE      CODE     ---       #725
      00FF550FH   LINE      CODE     ---       #726
      00FF5511H   LINE      CODE     ---       #728
      00FF5511H   LINE      CODE     ---       #729
      00FF5523H   LINE      CODE     ---       #730
      00FF5523H   LINE      CODE     ---       #731
      00FF5523H   LINE      CODE     ---       #733
      00FF5535H   LINE      CODE     ---       #734
      ---         BLOCKEND  ---      ---       LVL=0

      ---         MODULE    ---      ---       zf_driver_timer
      00FF8804H   PUBLIC    CODE     ---       timer_funciton_check
      000000D0H   SFRSYM    DATA     BYTE      PSW
      0000009DH   SFRSYM    DATA     BYTE      IRCBAND
      00000097H   SFRSYM    DATA     BYTE      AUXR2
      000000EFH   SFRSYM    DATA     BYTE      AUXINTIF
      000000FDH   SFRSYM    DATA     BYTE      S4CON
      000000ACH   SFRSYM    DATA     BYTE      S3CON
      0000009AH   SFRSYM    DATA     BYTE      S2CON
      000000B7H   SFRSYM    DATA     BYTE      IPH
      000000CDH   SFRSYM    DATA     BYTE      SPSTAT
      000000DDH   SFRSYM    DATA     BYTE      T4T3M
      000000C1H   SFRSYM    DATA     BYTE      WDT_CONTR
      000000DFH   SFRSYM    DATA     BYTE      IP3
      000000F4H   SFRSYM    DATA     BYTE      USBCON
      000000B5H   SFRSYM    DATA     BYTE      IP2
      000000FFH   SFRSYM    DATA     BYTE      RSTCFG
      000000C7H   SFRSYM    DATA     BYTE      IAP_CONTR
      000000F9H   SFRSYM    DATA     BYTE      LINICR
      0000008EH   SFRSYM    DATA     BYTE      AUXR
      000000AFH   SFRSYM    DATA     BYTE      IE2
      00000088H   SFRSYM    DATA     BYTE      TCON
      00000089H   SFRSYM    DATA     BYTE      TMOD
      00000098H   SFRSYM    DATA     BYTE      SCON
      000000F1H   SFRSYM    DATA     BYTE      CANICR
      00000087H   SFRSYM    DATA     BYTE      PCON
      000000BCH   SFRSYM    DATA     BYTE      ADC_CONTR
      000000E7H   SFRSYM    DATA     BYTE      CMPCR2
      000000E6H   SFRSYM    DATA     BYTE      CMPCR1
      000000DEH   SFRSYM    DATA     BYTE      ADCCFG
      000000B8H   SFRSYM    DATA     BYTE      IP
      0000008FH   SFRSYM    DATA     BYTE      INTCLKO
      000000EEH   SFRSYM    DATA     BYTE      IP3H
      000000B6H   SFRSYM    DATA     BYTE      IP2H
      000000A8H   SFRSYM    DATA     BYTE      IE
      000000BBH   SFRSYM    DATA     BYTE      P_SW3
      000000BAH   SFRSYM    DATA     BYTE      P_SW2
      000000A2H   SFRSYM    DATA     BYTE      P_SW1
      000000CEH   SFRSYM    DATA     BYTE      SPCTL
      000000F8H   SFRSYM    DATA     BYTE      P7
      000000E8H   SFRSYM    DATA     BYTE      P6
      000000C8H   SFRSYM    DATA     BYTE      P5
      000000C0H   SFRSYM    DATA     BYTE      P4
      000000B0H   SFRSYM    DATA     BYTE      P3
      000000A0H   SFRSYM    DATA     BYTE      P2
      00000090H   SFRSYM    DATA     BYTE      P1
      00000080H   SFRSYM    DATA     BYTE      P0
      00011933H   SYMBOL    XDATA    ---       timer_function_state

      00FF8804H   BLOCK     CODE     ---       LVL=0
      00011E42H   SYMBOL    XDATA    INT       index
      00011E44H   SYMBOL    XDATA    INT       mode
      00FF8810H   BLOCK     CODE     NEAR LAB  LVL=1
      00011E46H   SYMBOL    XDATA    BYTE      return_state
      ---         BLOCKEND  ---      ---       LVL=1
L251 LINKER/LOCATER V4.66.93.0                                                        03/29/2026  20:20:13  PAGE 82


      00FF8804H   LINE      CODE     ---       #58
      00FF8810H   LINE      CODE     ---       #59
      00FF8810H   LINE      CODE     ---       #60
      00FF8816H   LINE      CODE     ---       #61
      00FF8833H   LINE      CODE     ---       #63
      00FF8850H   LINE      CODE     ---       #64
      00FF8852H   LINE      CODE     ---       #65
      00FF8873H   LINE      CODE     ---       #67
      00FF8879H   LINE      CODE     ---       #68
      00FF887BH   LINE      CODE     ---       #71
      00FF8880H   LINE      CODE     ---       #72
      00FF8880H   LINE      CODE     ---       #73
      00FF8884H   LINE      CODE     ---       #74
      ---         BLOCKEND  ---      ---       LVL=0

      ---         MODULE    ---      ---       zf_driver_uart
      00FF7E3CH   PUBLIC    CODE     ---       uart_rx_start_buff
      00FF6BECH   PUBLIC    CODE     ---       uart_write_buffer
      00FF5849H   PUBLIC    CODE     ---       uart_init
      00FF8AE8H   PUBLIC    CODE     ---       uart_rx_interrupt
      00FF91DCH   PUBLIC    CODE     ---       uart_write_byte
      00FF6F74H   PUBLIC    CODE     ---       uart_dma_init
      00FF8885H   PUBLIC    CODE     ---       uart_funciton_check
      00FF82FBH   PUBLIC    CODE     ---       uart_query_byte
      00011947H   PUBLIC    XDATA    ---       uart_rx_buff
      0001194BH   PUBLIC    XDATA    BYTE      ?uart_init?BYTE
      000000D0H   SFRSYM    DATA     BYTE      PSW
      0000009DH   SFRSYM    DATA     BYTE      IRCBAND
      00000097H   SFRSYM    DATA     BYTE      AUXR2
      000000EFH   SFRSYM    DATA     BYTE      AUXINTIF
      000000FDH   SFRSYM    DATA     BYTE      S4CON
      000000ACH   SFRSYM    DATA     BYTE      S3CON
      0000009AH   SFRSYM    DATA     BYTE      S2CON
      000000B7H   SFRSYM    DATA     BYTE      IPH
      000000CDH   SFRSYM    DATA     BYTE      SPSTAT
      000000DDH   SFRSYM    DATA     BYTE      T4T3M
      000000C1H   SFRSYM    DATA     BYTE      WDT_CONTR
      00000088H.6 SFRSYM    DATA     BIT       TR1
      000000D7H   SFRSYM    DATA     BYTE      T2L
      000000D6H   SFRSYM    DATA     BYTE      T2H
      000000DFH   SFRSYM    DATA     BYTE      IP3
      000000F4H   SFRSYM    DATA     BYTE      USBCON
      000000B5H   SFRSYM    DATA     BYTE      IP2
      000000FFH   SFRSYM    DATA     BYTE      RSTCFG
      000000C7H   SFRSYM    DATA     BYTE      IAP_CONTR
      000000F9H   SFRSYM    DATA     BYTE      LINICR
      0000008EH   SFRSYM    DATA     BYTE      AUXR
      000000AFH   SFRSYM    DATA     BYTE      IE2
      00000088H   SFRSYM    DATA     BYTE      TCON
      00000089H   SFRSYM    DATA     BYTE      TMOD
      00000098H   SFRSYM    DATA     BYTE      SCON
      000000F1H   SFRSYM    DATA     BYTE      CANICR
      00000087H   SFRSYM    DATA     BYTE      PCON
      000000BCH   SFRSYM    DATA     BYTE      ADC_CONTR
      000000E7H   SFRSYM    DATA     BYTE      CMPCR2
      000000E6H   SFRSYM    DATA     BYTE      CMPCR1
      000000DEH   SFRSYM    DATA     BYTE      ADCCFG
      000000B8H   SFRSYM    DATA     BYTE      IP
      0000008FH   SFRSYM    DATA     BYTE      INTCLKO
      000000EEH   SFRSYM    DATA     BYTE      IP3H
      000000B6H   SFRSYM    DATA     BYTE      IP2H
      000000A8H   SFRSYM    DATA     BYTE      IE
      000000BBH   SFRSYM    DATA     BYTE      P_SW3
      000000BAH   SFRSYM    DATA     BYTE      P_SW2
      000000A2H   SFRSYM    DATA     BYTE      P_SW1
L251 LINKER/LOCATER V4.66.93.0                                                        03/29/2026  20:20:13  PAGE 83


      000000CEH   SFRSYM    DATA     BYTE      SPCTL
      000000F8H   SFRSYM    DATA     BYTE      P7
      000000E8H   SFRSYM    DATA     BYTE      P6
      000000C8H   SFRSYM    DATA     BYTE      P5
      000000C0H   SFRSYM    DATA     BYTE      P4
      000000B0H   SFRSYM    DATA     BYTE      P3
      000000A0H   SFRSYM    DATA     BYTE      P2
      00000090H   SFRSYM    DATA     BYTE      P1
      00000080H   SFRSYM    DATA     BYTE      P0
      00FF9F0DH   SYMBOL    HCONST   ---       ?tpl?0001
      0001193FH   SYMBOL    XDATA    ---       uart_function_state

      00FF8885H   BLOCK     CODE     ---       LVL=0
      00011E47H   SYMBOL    XDATA    INT       index
      00011E49H   SYMBOL    XDATA    INT       mode
      00FF8891H   BLOCK     CODE     NEAR LAB  LVL=1
      00011E4BH   SYMBOL    XDATA    BYTE      return_state
      ---         BLOCKEND  ---      ---       LVL=1
      00FF8885H   LINE      CODE     ---       #86
      00FF8891H   LINE      CODE     ---       #87
      00FF8891H   LINE      CODE     ---       #88
      00FF8897H   LINE      CODE     ---       #89
      00FF88B4H   LINE      CODE     ---       #91
      00FF88D1H   LINE      CODE     ---       #92
      00FF88D3H   LINE      CODE     ---       #93
      00FF88F4H   LINE      CODE     ---       #95
      00FF88FAH   LINE      CODE     ---       #96
      00FF88FCH   LINE      CODE     ---       #99
      00FF8901H   LINE      CODE     ---       #100
      00FF8901H   LINE      CODE     ---       #101
      00FF8905H   LINE      CODE     ---       #102
      ---         BLOCKEND  ---      ---       LVL=0

      00FF6BECH   BLOCK     CODE     ---       LVL=0
      00010E3CH   SYMBOL    XDATA    INT       uart_n
      00010E3EH   SYMBOL    XDATA    ---       buff
      00010E42H   SYMBOL    XDATA    WORD      len
      00FF6C02H   BLOCK     CODE     NEAR LAB  LVL=1
      00010E44H   SYMBOL    XDATA    ---       tmp_buff
      00010E84H   SYMBOL    XDATA    WORD      tmp_len
      ---         BLOCKEND  ---      ---       LVL=1
      00FF6BECH   LINE      CODE     ---       #111
      00FF6C02H   LINE      CODE     ---       #112
      00FF6C02H   LINE      CODE     ---       #116
      00FF6C17H   LINE      CODE     ---       #117
      00FF6C1FH   LINE      CODE     ---       #118
      00FF6C22H   LINE      CODE     ---       #120
      00FF6C42H   LINE      CODE     ---       #121
      00FF6C61H   LINE      CODE     ---       #122
      00FF6C72H   LINE      CODE     ---       #123
      00FF6C8BH   LINE      CODE     ---       #126
      00FF6CABH   LINE      CODE     ---       #128
      00FF6CD7H   LINE      CODE     ---       #129
      00FF6D04H   LINE      CODE     ---       #130
      00FF6D2CH   LINE      CODE     ---       #131
      00FF6D50H   LINE      CODE     ---       #132
      00FF6D71H   LINE      CODE     ---       #134
      00FF6D92H   LINE      CODE     ---       #136
      00FF6DB2H   LINE      CODE     ---       #137
      00FF6DC1H   LINE      CODE     ---       #138
      ---         BLOCKEND  ---      ---       LVL=0
      00011C85H   SYMBOL    XDATA    INT       uart_n
      00011C87H   SYMBOL    XDATA    ---       str
      00011C8BH   SYMBOL    XDATA    WORD      len

L251 LINKER/LOCATER V4.66.93.0                                                        03/29/2026  20:20:13  PAGE 84


      00FF91DCH   BLOCK     CODE     ---       LVL=0
      00011F17H   SYMBOL    XDATA    INT       uart_n
      00011F19H   SYMBOL    XDATA    BYTE      dat
      00FF91DCH   LINE      CODE     ---       #159
      00FF91E6H   LINE      CODE     ---       #161
      00FF91FBH   LINE      CODE     ---       #162
      ---         BLOCKEND  ---      ---       LVL=0

      00FF7E3CH   BLOCK     CODE     ---       LVL=0
      00011F42H   SYMBOL    XDATA    INT       uart_n
      00FF7E3CH   LINE      CODE     ---       #170
      00FF7E42H   LINE      CODE     ---       #172
      00FF7E62H   LINE      CODE     ---       #173
      00FF7E80H   LINE      CODE     ---       #174
      00FF7EACH   LINE      CODE     ---       #175
      00FF7EDCH   LINE      CODE     ---       #176
      00FF7EFDH   LINE      CODE     ---       #177
      ---         BLOCKEND  ---      ---       LVL=0

      00FF8AE8H   BLOCK     CODE     ---       LVL=0
      00011F1AH   SYMBOL    XDATA    INT       uart_n
      00011F1CH   SYMBOL    XDATA    BYTE      status
      00FF8AE8H   LINE      CODE     ---       #186
      00FF8AF2H   LINE      CODE     ---       #188
      00FF8AFBH   LINE      CODE     ---       #190
      00FF8B23H   LINE      CODE     ---       #191
      00FF8B25H   LINE      CODE     ---       #194
      00FF8B4DH   LINE      CODE     ---       #195
      00FF8B4DH   LINE      CODE     ---       #196
      ---         BLOCKEND  ---      ---       LVL=0
      00011F1DH   SYMBOL    XDATA    INT       uart_n
      00011F1FH   SYMBOL    XDATA    BYTE      dat

      00FF82FBH   BLOCK     CODE     ---       LVL=0
      00011D23H   SYMBOL    XDATA    INT       uart_n
      00011D25H   SYMBOL    XDATA    ---       dat
      00FF830BH   BLOCK     CODE     NEAR LAB  LVL=1
      00011D29H   SYMBOL    XDATA    BYTE      ret
      ---         BLOCKEND  ---      ---       LVL=1
      00FF82FBH   LINE      CODE     ---       #230
      00FF830BH   LINE      CODE     ---       #231
      00FF830BH   LINE      CODE     ---       #232
      00FF8310H   LINE      CODE     ---       #235
      00FF8330H   LINE      CODE     ---       #237
      00FF8357H   LINE      CODE     ---       #239
      00FF835DH   LINE      CODE     ---       #241
      00FF8385H   LINE      CODE     ---       #242
      00FF8387H   LINE      CODE     ---       #245
      00FF838CH   LINE      CODE     ---       #246
      00FF838CH   LINE      CODE     ---       #249
      00FF8395H   LINE      CODE     ---       #251
      00FF8399H   LINE      CODE     ---       #252
      ---         BLOCKEND  ---      ---       LVL=0

      00FF6F74H   BLOCK     CODE     ---       LVL=0
      00011F44H   SYMBOL    XDATA    INT       uart_n
      00FF6F74H   LINE      CODE     ---       #260
      00FF6F7AH   LINE      CODE     ---       #262
      00FF6F9AH   LINE      CODE     ---       #263
      00FF6FBAH   LINE      CODE     ---       #264
      00FF6FDAH   LINE      CODE     ---       #266
      00FF6FFAH   LINE      CODE     ---       #267
      00FF701AH   LINE      CODE     ---       #268
      00FF703AH   LINE      CODE     ---       #270
      00FF705AH   LINE      CODE     ---       #271
L251 LINKER/LOCATER V4.66.93.0                                                        03/29/2026  20:20:13  PAGE 85


      00FF7078H   LINE      CODE     ---       #272
      00FF70A4H   LINE      CODE     ---       #273
      00FF70D4H   LINE      CODE     ---       #274
      00FF70F5H   LINE      CODE     ---       #275
      00FF7116H   LINE      CODE     ---       #277
      ---         BLOCKEND  ---      ---       LVL=0

      00FF5849H   BLOCK     CODE     ---       LVL=0
      0001194BH   SYMBOL    XDATA    INT       uart_n
      0001194DH   SYMBOL    XDATA    DWORD     baud
      00011951H   SYMBOL    XDATA    INT       tx_pin
      00011953H   SYMBOL    XDATA    INT       rx_pin
      00FF585FH   BLOCK     CODE     NEAR LAB  LVL=1
      00011955H   SYMBOL    XDATA    WORD      brt
      ---         BLOCKEND  ---      ---       LVL=1
      00FF5849H   LINE      CODE     ---       #289
      00FF585FH   LINE      CODE     ---       #290
      00FF585FH   LINE      CODE     ---       #299
      00FF587BH   LINE      CODE     ---       #306
      00FF5895H   LINE      CODE     ---       #311
      00FF58CBH   LINE      CODE     ---       #314
      00FF58E4H   LINE      CODE     ---       #315
      00FF58FBH   LINE      CODE     ---       #317
      00FF5936H   LINE      CODE     ---       #319
      00FF595AH   LINE      CODE     ---       #321
      00FF595AH   LINE      CODE     ---       #335
      00FF595DH   LINE      CODE     ---       #336
      00FF5965H   LINE      CODE     ---       #337
      00FF5971H   LINE      CODE     ---       #338
      00FF5974H   LINE      CODE     ---       #339
      00FF5977H   LINE      CODE     ---       #342
      00FF597AH   LINE      CODE     ---       #344
      00FF5996H   LINE      CODE     ---       #346
      00FF599AH   LINE      CODE     ---       #347
      00FF599DH   LINE      CODE     ---       #348
      00FF59B9H   LINE      CODE     ---       #350
      00FF59BCH   LINE      CODE     ---       #351
      00FF59BFH   LINE      CODE     ---       #352
      00FF59DBH   LINE      CODE     ---       #354
      00FF59DEH   LINE      CODE     ---       #355
      00FF59E1H   LINE      CODE     ---       #356
      00FF5A03H   LINE      CODE     ---       #358
      00FF5A06H   LINE      CODE     ---       #359
      00FF5A06H   LINE      CODE     ---       #362
      00FF5A09H   LINE      CODE     ---       #365
      00FF5A09H   LINE      CODE     ---       #369
      00FF5A0CH   LINE      CODE     ---       #370
      00FF5A14H   LINE      CODE     ---       #371
      00FF5A20H   LINE      CODE     ---       #372
      00FF5A23H   LINE      CODE     ---       #375
      00FF5A26H   LINE      CODE     ---       #377
      00FF5A42H   LINE      CODE     ---       #379
      00FF5A46H   LINE      CODE     ---       #380
      00FF5A49H   LINE      CODE     ---       #381
      00FF5A6BH   LINE      CODE     ---       #383
      00FF5A6EH   LINE      CODE     ---       #384
      00FF5A6EH   LINE      CODE     ---       #388
      00FF5A71H   LINE      CODE     ---       #391
      00FF5A71H   LINE      CODE     ---       #395
      00FF5A74H   LINE      CODE     ---       #396
      00FF5A7CH   LINE      CODE     ---       #397
      00FF5A88H   LINE      CODE     ---       #398
      00FF5A8BH   LINE      CODE     ---       #408
      00FF5A8EH   LINE      CODE     ---       #410
      00FF5AAAH   LINE      CODE     ---       #412
L251 LINKER/LOCATER V4.66.93.0                                                        03/29/2026  20:20:13  PAGE 86


      00FF5AAEH   LINE      CODE     ---       #413
      00FF5AB1H   LINE      CODE     ---       #414
      00FF5ACDH   LINE      CODE     ---       #416
      00FF5AD0H   LINE      CODE     ---       #417
      00FF5AD0H   LINE      CODE     ---       #421
      00FF5AD2H   LINE      CODE     ---       #424
      00FF5AD2H   LINE      CODE     ---       #428
      00FF5AD5H   LINE      CODE     ---       #429
      00FF5ADDH   LINE      CODE     ---       #430
      00FF5AE9H   LINE      CODE     ---       #431
      00FF5AECH   LINE      CODE     ---       #441
      00FF5AEFH   LINE      CODE     ---       #443
      00FF5B0BH   LINE      CODE     ---       #445
      00FF5B0FH   LINE      CODE     ---       #446
      00FF5B11H   LINE      CODE     ---       #447
      00FF5B2DH   LINE      CODE     ---       #451
      00FF5B30H   LINE      CODE     ---       #452
      00FF5B30H   LINE      CODE     ---       #456
      00FF5B30H   LINE      CODE     ---       #459
      00FF5B30H   LINE      CODE     ---       #462
      00FF5B39H   LINE      CODE     ---       #464
      ---         BLOCKEND  ---      ---       LVL=0

      ---         MODULE    ---      ---       eeprom
      00011F46H   PUBLIC    XDATA    ---       init_buff
      00011AE5H   PUBLIC    XDATA    BYTE      ?eeprom_read?BYTE
      000000D0H   SFRSYM    DATA     BYTE      PSW
      0000009DH   SFRSYM    DATA     BYTE      IRCBAND
      00000097H   SFRSYM    DATA     BYTE      AUXR2
      000000EFH   SFRSYM    DATA     BYTE      AUXINTIF
      000000FDH   SFRSYM    DATA     BYTE      S4CON
      000000ACH   SFRSYM    DATA     BYTE      S3CON
      0000009AH   SFRSYM    DATA     BYTE      S2CON
      000000B7H   SFRSYM    DATA     BYTE      IPH
      000000CDH   SFRSYM    DATA     BYTE      SPSTAT
      000000DDH   SFRSYM    DATA     BYTE      T4T3M
      000000C1H   SFRSYM    DATA     BYTE      WDT_CONTR
      000000DFH   SFRSYM    DATA     BYTE      IP3
      000000F4H   SFRSYM    DATA     BYTE      USBCON
      000000B5H   SFRSYM    DATA     BYTE      IP2
      000000FFH   SFRSYM    DATA     BYTE      RSTCFG
      000000C7H   SFRSYM    DATA     BYTE      IAP_CONTR
      000000F9H   SFRSYM    DATA     BYTE      LINICR
      0000008EH   SFRSYM    DATA     BYTE      AUXR
      000000AFH   SFRSYM    DATA     BYTE      IE2
      00000088H   SFRSYM    DATA     BYTE      TCON
      00000089H   SFRSYM    DATA     BYTE      TMOD
      00000098H   SFRSYM    DATA     BYTE      SCON
      000000F1H   SFRSYM    DATA     BYTE      CANICR
      00000087H   SFRSYM    DATA     BYTE      PCON
      000000BCH   SFRSYM    DATA     BYTE      ADC_CONTR
      000000E7H   SFRSYM    DATA     BYTE      CMPCR2
      000000E6H   SFRSYM    DATA     BYTE      CMPCR1
      000000DEH   SFRSYM    DATA     BYTE      ADCCFG
      000000B8H   SFRSYM    DATA     BYTE      IP
      0000008FH   SFRSYM    DATA     BYTE      INTCLKO
      000000EEH   SFRSYM    DATA     BYTE      IP3H
      000000B6H   SFRSYM    DATA     BYTE      IP2H
      000000A8H   SFRSYM    DATA     BYTE      IE
      000000BBH   SFRSYM    DATA     BYTE      P_SW3
      000000BAH   SFRSYM    DATA     BYTE      P_SW2
      000000A2H   SFRSYM    DATA     BYTE      P_SW1
      000000CEH   SFRSYM    DATA     BYTE      SPCTL
      000000F8H   SFRSYM    DATA     BYTE      P7
      000000E8H   SFRSYM    DATA     BYTE      P6
L251 LINKER/LOCATER V4.66.93.0                                                        03/29/2026  20:20:13  PAGE 87


      000000C8H   SFRSYM    DATA     BYTE      P5
      000000C0H   SFRSYM    DATA     BYTE      P4
      000000B0H   SFRSYM    DATA     BYTE      P3
      000000A0H   SFRSYM    DATA     BYTE      P2
      00000090H   SFRSYM    DATA     BYTE      P1
      00000080H   SFRSYM    DATA     BYTE      P0
      00011AE5H   SYMBOL    XDATA    DWORD     addr
      00011AE9H   SYMBOL    XDATA    ---       buf
      00011AEDH   SYMBOL    XDATA    WORD      len
      00011C8DH   SYMBOL    XDATA    DWORD     addr
      00011C91H   SYMBOL    XDATA    WORD      max
      00011C93H   SYMBOL    XDATA    WORD      min
      00011957H   SYMBOL    XDATA    DWORD     addr
      0001195BH   SYMBOL    XDATA    ---       buff
      0001195FH   SYMBOL    XDATA    ---       buf

      ---         MODULE    ---      ---       voltage_warning
      000000D0H   SFRSYM    DATA     BYTE      PSW
      0000009DH   SFRSYM    DATA     BYTE      IRCBAND
      00000097H   SFRSYM    DATA     BYTE      AUXR2
      000000EFH   SFRSYM    DATA     BYTE      AUXINTIF
      000000FDH   SFRSYM    DATA     BYTE      S4CON
      000000ACH   SFRSYM    DATA     BYTE      S3CON
      0000009AH   SFRSYM    DATA     BYTE      S2CON
      000000B7H   SFRSYM    DATA     BYTE      IPH
      000000CDH   SFRSYM    DATA     BYTE      SPSTAT
      000000DDH   SFRSYM    DATA     BYTE      T4T3M
      000000C1H   SFRSYM    DATA     BYTE      WDT_CONTR
      000000DFH   SFRSYM    DATA     BYTE      IP3
      000000F4H   SFRSYM    DATA     BYTE      USBCON
      000000B5H   SFRSYM    DATA     BYTE      IP2
      000000FFH   SFRSYM    DATA     BYTE      RSTCFG
      000000C7H   SFRSYM    DATA     BYTE      IAP_CONTR
      000000F9H   SFRSYM    DATA     BYTE      LINICR
      0000008EH   SFRSYM    DATA     BYTE      AUXR
      000000AFH   SFRSYM    DATA     BYTE      IE2
      00000088H   SFRSYM    DATA     BYTE      TCON
      00000089H   SFRSYM    DATA     BYTE      TMOD
      00000098H   SFRSYM    DATA     BYTE      SCON
      000000F1H   SFRSYM    DATA     BYTE      CANICR
      00000087H   SFRSYM    DATA     BYTE      PCON
      000000BCH   SFRSYM    DATA     BYTE      ADC_CONTR
      000000E7H   SFRSYM    DATA     BYTE      CMPCR2
      000000E6H   SFRSYM    DATA     BYTE      CMPCR1
      000000DEH   SFRSYM    DATA     BYTE      ADCCFG
      000000B8H   SFRSYM    DATA     BYTE      IP
      0000008FH   SFRSYM    DATA     BYTE      INTCLKO
      000000EEH   SFRSYM    DATA     BYTE      IP3H
      000000B6H   SFRSYM    DATA     BYTE      IP2H
      000000A8H   SFRSYM    DATA     BYTE      IE
      000000BBH   SFRSYM    DATA     BYTE      P_SW3
      000000BAH   SFRSYM    DATA     BYTE      P_SW2
      000000A2H   SFRSYM    DATA     BYTE      P_SW1
      000000CEH   SFRSYM    DATA     BYTE      SPCTL
      000000F8H   SFRSYM    DATA     BYTE      P7
      000000E8H   SFRSYM    DATA     BYTE      P6
      000000C8H   SFRSYM    DATA     BYTE      P5
      000000C0H   SFRSYM    DATA     BYTE      P4
      000000B0H   SFRSYM    DATA     BYTE      P3
      000000A0H   SFRSYM    DATA     BYTE      P2
      00000090H   SFRSYM    DATA     BYTE      P1
      00000080H   SFRSYM    DATA     BYTE      P0
      00011EBFH   SYMBOL    XDATA    INT       channel
      00011EC1H   SYMBOL    XDATA    WORD      value

L251 LINKER/LOCATER V4.66.93.0                                                        03/29/2026  20:20:13  PAGE 88


      ---         MODULE    ---      ---       zf_device_ble6a20
      000000D0H   SFRSYM    DATA     BYTE      PSW
      0000009DH   SFRSYM    DATA     BYTE      IRCBAND
      00000097H   SFRSYM    DATA     BYTE      AUXR2
      000000EFH   SFRSYM    DATA     BYTE      AUXINTIF
      000000FDH   SFRSYM    DATA     BYTE      S4CON
      000000ACH   SFRSYM    DATA     BYTE      S3CON
      0000009AH   SFRSYM    DATA     BYTE      S2CON
      000000B7H   SFRSYM    DATA     BYTE      IPH
      000000CDH   SFRSYM    DATA     BYTE      SPSTAT
      000000DDH   SFRSYM    DATA     BYTE      T4T3M
      000000C1H   SFRSYM    DATA     BYTE      WDT_CONTR
      000000DFH   SFRSYM    DATA     BYTE      IP3
      000000F4H   SFRSYM    DATA     BYTE      USBCON
      000000B5H   SFRSYM    DATA     BYTE      IP2
      000000FFH   SFRSYM    DATA     BYTE      RSTCFG
      000000C7H   SFRSYM    DATA     BYTE      IAP_CONTR
      000000F9H   SFRSYM    DATA     BYTE      LINICR
      0000008EH   SFRSYM    DATA     BYTE      AUXR
      000000AFH   SFRSYM    DATA     BYTE      IE2
      00000088H   SFRSYM    DATA     BYTE      TCON
      00000089H   SFRSYM    DATA     BYTE      TMOD
      00000098H   SFRSYM    DATA     BYTE      SCON
      000000F1H   SFRSYM    DATA     BYTE      CANICR
      00000087H   SFRSYM    DATA     BYTE      PCON
      000000BCH   SFRSYM    DATA     BYTE      ADC_CONTR
      000000E7H   SFRSYM    DATA     BYTE      CMPCR2
      000000E6H   SFRSYM    DATA     BYTE      CMPCR1
      000000DEH   SFRSYM    DATA     BYTE      ADCCFG
      000000B8H   SFRSYM    DATA     BYTE      IP
      0000008FH   SFRSYM    DATA     BYTE      INTCLKO
      000000EEH   SFRSYM    DATA     BYTE      IP3H
      000000B6H   SFRSYM    DATA     BYTE      IP2H
      000000A8H   SFRSYM    DATA     BYTE      IE
      000000BBH   SFRSYM    DATA     BYTE      P_SW3
      000000BAH   SFRSYM    DATA     BYTE      P_SW2
      000000A2H   SFRSYM    DATA     BYTE      P_SW1
      000000CEH   SFRSYM    DATA     BYTE      SPCTL
      000000F8H   SFRSYM    DATA     BYTE      P7
      000000E8H   SFRSYM    DATA     BYTE      P6
      000000C8H   SFRSYM    DATA     BYTE      P5
      000000C0H   SFRSYM    DATA     BYTE      P4
      000000B0H   SFRSYM    DATA     BYTE      P3
      000000A0H   SFRSYM    DATA     BYTE      P2
      00000090H   SFRSYM    DATA     BYTE      P1
      00000080H   SFRSYM    DATA     BYTE      P0
      00010CA2H   SYMBOL    XDATA    ---       ble6a20_buffer
      00010CE2H   SYMBOL    XDATA    ---       ble6a20_fifo
      00011F20H   SYMBOL    XDATA    BYTE      dat
      00011F21H   SYMBOL    XDATA    WORD      time_cnt
      00011963H   SYMBOL    XDATA    ---       buff
      00011967H   SYMBOL    XDATA    DWORD     len
      0001196BH   SYMBOL    XDATA    WORD      time_cnt
      0001196DH   SYMBOL    XDATA    WORD      send_len
      00011C95H   SYMBOL    XDATA    ---       str
      00011C99H   SYMBOL    XDATA    DWORD     len
      0001196FH   SYMBOL    XDATA    ---       buff
      00011973H   SYMBOL    XDATA    DWORD     len
      00011977H   SYMBOL    XDATA    DWORD     data_len
      00011F7EH   SYMBOL    XDATA    BYTE      uart_dat
      00011F7FH   SYMBOL    XDATA    BYTE      return_state

      ---         MODULE    ---      ---       zf_device_config
      00FF01CEH   PUBLIC    CODE     ---       imu660ra_config_file

L251 LINKER/LOCATER V4.66.93.0                                                        03/29/2026  20:20:13  PAGE 89


      ---         MODULE    ---      ---       zf_device_dl1a
      0001185CH   PUBLIC    XDATA    WORD      dl1a_distance_mm
      0001185EH   PUBLIC    XDATA    BYTE      dl1a_finsh_flag
      000000D0H   SFRSYM    DATA     BYTE      PSW
      0000009DH   SFRSYM    DATA     BYTE      IRCBAND
      00000097H   SFRSYM    DATA     BYTE      AUXR2
      000000EFH   SFRSYM    DATA     BYTE      AUXINTIF
      000000FDH   SFRSYM    DATA     BYTE      S4CON
      000000ACH   SFRSYM    DATA     BYTE      S3CON
      0000009AH   SFRSYM    DATA     BYTE      S2CON
      000000B7H   SFRSYM    DATA     BYTE      IPH
      000000CDH   SFRSYM    DATA     BYTE      SPSTAT
      000000DDH   SFRSYM    DATA     BYTE      T4T3M
      000000C1H   SFRSYM    DATA     BYTE      WDT_CONTR
      000000DFH   SFRSYM    DATA     BYTE      IP3
      000000F4H   SFRSYM    DATA     BYTE      USBCON
      000000B5H   SFRSYM    DATA     BYTE      IP2
      000000FFH   SFRSYM    DATA     BYTE      RSTCFG
      000000C7H   SFRSYM    DATA     BYTE      IAP_CONTR
      000000F9H   SFRSYM    DATA     BYTE      LINICR
      0000008EH   SFRSYM    DATA     BYTE      AUXR
      000000AFH   SFRSYM    DATA     BYTE      IE2
      00000088H   SFRSYM    DATA     BYTE      TCON
      00000089H   SFRSYM    DATA     BYTE      TMOD
      00000098H   SFRSYM    DATA     BYTE      SCON
      000000F1H   SFRSYM    DATA     BYTE      CANICR
      00000087H   SFRSYM    DATA     BYTE      PCON
      000000BCH   SFRSYM    DATA     BYTE      ADC_CONTR
      000000E7H   SFRSYM    DATA     BYTE      CMPCR2
      000000E6H   SFRSYM    DATA     BYTE      CMPCR1
      000000DEH   SFRSYM    DATA     BYTE      ADCCFG
      000000B8H   SFRSYM    DATA     BYTE      IP
      0000008FH   SFRSYM    DATA     BYTE      INTCLKO
      000000EEH   SFRSYM    DATA     BYTE      IP3H
      000000B6H   SFRSYM    DATA     BYTE      IP2H
      000000A8H   SFRSYM    DATA     BYTE      IE
      000000BBH   SFRSYM    DATA     BYTE      P_SW3
      000000BAH   SFRSYM    DATA     BYTE      P_SW2
      000000A2H   SFRSYM    DATA     BYTE      P_SW1
      000000CEH   SFRSYM    DATA     BYTE      SPCTL
      000000F8H   SFRSYM    DATA     BYTE      P7
      000000E8H   SFRSYM    DATA     BYTE      P6
      000000C8H   SFRSYM    DATA     BYTE      P5
      000000C0H   SFRSYM    DATA     BYTE      P4
      000000B0H   SFRSYM    DATA     BYTE      P3
      000000A0H   SFRSYM    DATA     BYTE      P2
      00000090H   SFRSYM    DATA     BYTE      P1
      00000080H   SFRSYM    DATA     BYTE      P0
      00FF99B3H   SYMBOL    HCONST   ---       ?tpl?0001
      00FF99BBH   SYMBOL    HCONST   ---       ?tpl?0002
      00FF99C1H   SYMBOL    HCONST   ---       ?tpl?0003
      00FF99CBH   SYMBOL    HCONST   ---       ?tpl?0004
      00011853H   SYMBOL    XDATA    ---       dl1a_iic_struct
      0001185FH   SYMBOL    XDATA    BYTE      dl1a_init_flag
      0001197BH   SYMBOL    XDATA    ---       index
      0001197FH   SYMBOL    XDATA    ---       type_is_aperture
      00011983H   SYMBOL    XDATA    BYTE      tmp
      00011984H   SYMBOL    XDATA    BYTE      return_state
      00011985H   SYMBOL    XDATA    WORD      loop_count
      00011D2AH   SYMBOL    XDATA    WORD      timeout_period_mclks
      00011D2CH   SYMBOL    XDATA    BYTE      vcsel_period_pclks
      00011D2DH   SYMBOL    XDATA    DWORD     macro_period_ns
      00011B2AH   SYMBOL    XDATA    DWORD     timeout_period_us
      00011B2EH   SYMBOL    XDATA    BYTE      vcsel_period_pclks
      00011B2FH   SYMBOL    XDATA    DWORD     macro_period_ns
L251 LINKER/LOCATER V4.66.93.0                                                        03/29/2026  20:20:13  PAGE 90


      00011F48H   SYMBOL    XDATA    WORD      reg_val
      00011F4AH   SYMBOL    XDATA    WORD      timeout_mclks
      00000008H   SYMBOL    EDATA    DWORD     ls_byte
      0000000CH   SYMBOL    EDATA    WORD      ms_byte
      0000000EH   SYMBOL    EDATA    WORD      return_data
      00011E4CH   SYMBOL    XDATA    ---       enables
      00011E50H   SYMBOL    XDATA    BYTE      sequence_config
      00011F23H   SYMBOL    XDATA    INT       type
      00011F25H   SYMBOL    XDATA    BYTE      data_buffer
      00011987H   SYMBOL    XDATA    ---       enables
      0001198BH   SYMBOL    XDATA    ---       timeouts
      0001198FH   SYMBOL    XDATA    ---       reg_buffer
      00011991H   SYMBOL    XDATA    WORD      reg16_buffer
      00011E51H   SYMBOL    XDATA    BYTE      vhv_init_byte
      00011E52H   SYMBOL    XDATA    BYTE      return_state
      00011E53H   SYMBOL    XDATA    BYTE      data_buffer
      00011E54H   SYMBOL    XDATA    WORD      loop_count
      00011043H   SYMBOL    XDATA    DWORD     budget_us
      00011047H   SYMBOL    XDATA    BYTE      return_state
      00011048H   SYMBOL    XDATA    ---       data_buffer
      0001104BH   SYMBOL    XDATA    WORD      dat
      0001104DH   SYMBOL    XDATA    DWORD     final_range_timeout_us
      00011051H   SYMBOL    XDATA    WORD      final_range_timeout_mclks
      00011053H   SYMBOL    XDATA    ---       enables
      00011058H   SYMBOL    XDATA    ---       timeouts
      0001106EH   SYMBOL    XDATA    DWORD     used_budget_us
      0001126CH   SYMBOL    XDATA    ---       enables
      00011271H   SYMBOL    XDATA    ---       timeouts
      00011287H   SYMBOL    XDATA    DWORD     budget_us
      00011B33H   SYMBOL    XDATA    FLOAT     limit_mcps
      00011B37H   SYMBOL    XDATA    ---       data_buffer
      00011B3AH   SYMBOL    XDATA    WORD      limit_mcps_16bit
      00011F26H   SYMBOL    XDATA    ---       reg_databuffer
      00010830H   SYMBOL    XDATA    DWORD     measurement_timing_budget_us
      00010834H   SYMBOL    XDATA    BYTE      stop_variable
      00010835H   SYMBOL    XDATA    BYTE      return_state
      00010836H   SYMBOL    XDATA    BYTE      reg_data_buffer
      00010837H   SYMBOL    XDATA    ---       ref_spad_map
      0001083DH   SYMBOL    XDATA    ---       data_buffer
      00010844H   SYMBOL    XDATA    WORD      i
      00010846H   SYMBOL    XDATA    ---       temp_buff1
      0001084EH   SYMBOL    XDATA    ---       temp_buff2
      00010854H   SYMBOL    XDATA    ---       temp_buff3
      0001085EH   SYMBOL    XDATA    ---       temp_buff4

      ---         MODULE    ---      ---       zf_device_dl1b
      00011869H   PUBLIC    XDATA    WORD      dl1b_distance_mm
      0001186BH   PUBLIC    XDATA    BYTE      dl1b_finsh_flag
      000000D0H   SFRSYM    DATA     BYTE      PSW
      0000009DH   SFRSYM    DATA     BYTE      IRCBAND
      00000097H   SFRSYM    DATA     BYTE      AUXR2
      000000EFH   SFRSYM    DATA     BYTE      AUXINTIF
      000000FDH   SFRSYM    DATA     BYTE      S4CON
      000000ACH   SFRSYM    DATA     BYTE      S3CON
      0000009AH   SFRSYM    DATA     BYTE      S2CON
      000000B7H   SFRSYM    DATA     BYTE      IPH
      000000CDH   SFRSYM    DATA     BYTE      SPSTAT
      000000DDH   SFRSYM    DATA     BYTE      T4T3M
      000000C1H   SFRSYM    DATA     BYTE      WDT_CONTR
      000000DFH   SFRSYM    DATA     BYTE      IP3
      000000F4H   SFRSYM    DATA     BYTE      USBCON
      000000B5H   SFRSYM    DATA     BYTE      IP2
      000000FFH   SFRSYM    DATA     BYTE      RSTCFG
      000000C7H   SFRSYM    DATA     BYTE      IAP_CONTR
      000000F9H   SFRSYM    DATA     BYTE      LINICR
L251 LINKER/LOCATER V4.66.93.0                                                        03/29/2026  20:20:13  PAGE 91


      0000008EH   SFRSYM    DATA     BYTE      AUXR
      000000AFH   SFRSYM    DATA     BYTE      IE2
      00000088H   SFRSYM    DATA     BYTE      TCON
      00000089H   SFRSYM    DATA     BYTE      TMOD
      00000098H   SFRSYM    DATA     BYTE      SCON
      000000F1H   SFRSYM    DATA     BYTE      CANICR
      00000087H   SFRSYM    DATA     BYTE      PCON
      000000BCH   SFRSYM    DATA     BYTE      ADC_CONTR
      000000E7H   SFRSYM    DATA     BYTE      CMPCR2
      000000E6H   SFRSYM    DATA     BYTE      CMPCR1
      000000DEH   SFRSYM    DATA     BYTE      ADCCFG
      000000B8H   SFRSYM    DATA     BYTE      IP
      0000008FH   SFRSYM    DATA     BYTE      INTCLKO
      000000EEH   SFRSYM    DATA     BYTE      IP3H
      000000B6H   SFRSYM    DATA     BYTE      IP2H
      000000A8H   SFRSYM    DATA     BYTE      IE
      000000BBH   SFRSYM    DATA     BYTE      P_SW3
      000000BAH   SFRSYM    DATA     BYTE      P_SW2
      000000A2H   SFRSYM    DATA     BYTE      P_SW1
      000000CEH   SFRSYM    DATA     BYTE      SPCTL
      000000F8H   SFRSYM    DATA     BYTE      P7
      000000E8H   SFRSYM    DATA     BYTE      P6
      000000C8H   SFRSYM    DATA     BYTE      P5
      000000C0H   SFRSYM    DATA     BYTE      P4
      000000B0H   SFRSYM    DATA     BYTE      P3
      000000A0H   SFRSYM    DATA     BYTE      P2
      00000090H   SFRSYM    DATA     BYTE      P1
      00000080H   SFRSYM    DATA     BYTE      P0
      00011860H   SYMBOL    XDATA    ---       dl1b_iic_struct
      0001186CH   SYMBOL    XDATA    BYTE      dl1b_init_flag
      00011E56H   SYMBOL    XDATA    ---       data_buffer
      00011E59H   SYMBOL    XDATA    INT       dl1b_distance_temp
      00011F80H   SYMBOL    XDATA    BYTE      return_state

      ---         MODULE    ---      ---       zf_device_gps_tau1201
      00010423H   PUBLIC    XDATA    BYTE      gps_tau1201_flag
      000104A4H   PUBLIC    XDATA    ---       gps_tau1201
      000105D0H   PUBLIC    XDATA    INT       gps_gga_state
      000105D2H   PUBLIC    XDATA    INT       gps_rmc_state
      00010F83H   PUBLIC    XDATA    BYTE      ?get_two_points_distance?BYTE
      00011322H   PUBLIC    XDATA    BYTE      ?get_two_points_azimuth?BYTE
      000000D0H   SFRSYM    DATA     BYTE      PSW
      0000009DH   SFRSYM    DATA     BYTE      IRCBAND
      00000097H   SFRSYM    DATA     BYTE      AUXR2
      000000EFH   SFRSYM    DATA     BYTE      AUXINTIF
      000000FDH   SFRSYM    DATA     BYTE      S4CON
      000000ACH   SFRSYM    DATA     BYTE      S3CON
      0000009AH   SFRSYM    DATA     BYTE      S2CON
      000000B7H   SFRSYM    DATA     BYTE      IPH
      000000CDH   SFRSYM    DATA     BYTE      SPSTAT
      000000DDH   SFRSYM    DATA     BYTE      T4T3M
      000000C1H   SFRSYM    DATA     BYTE      WDT_CONTR
      000000DFH   SFRSYM    DATA     BYTE      IP3
      000000F4H   SFRSYM    DATA     BYTE      USBCON
      000000B5H   SFRSYM    DATA     BYTE      IP2
      000000FFH   SFRSYM    DATA     BYTE      RSTCFG
      000000C7H   SFRSYM    DATA     BYTE      IAP_CONTR
      000000F9H   SFRSYM    DATA     BYTE      LINICR
      0000008EH   SFRSYM    DATA     BYTE      AUXR
      000000AFH   SFRSYM    DATA     BYTE      IE2
      00000088H   SFRSYM    DATA     BYTE      TCON
      00000089H   SFRSYM    DATA     BYTE      TMOD
      00000098H   SFRSYM    DATA     BYTE      SCON
      000000F1H   SFRSYM    DATA     BYTE      CANICR
      00000087H   SFRSYM    DATA     BYTE      PCON
L251 LINKER/LOCATER V4.66.93.0                                                        03/29/2026  20:20:13  PAGE 92


      000000BCH   SFRSYM    DATA     BYTE      ADC_CONTR
      000000E7H   SFRSYM    DATA     BYTE      CMPCR2
      000000E6H   SFRSYM    DATA     BYTE      CMPCR1
      000000DEH   SFRSYM    DATA     BYTE      ADCCFG
      000000B8H   SFRSYM    DATA     BYTE      IP
      0000008FH   SFRSYM    DATA     BYTE      INTCLKO
      000000EEH   SFRSYM    DATA     BYTE      IP3H
      000000B6H   SFRSYM    DATA     BYTE      IP2H
      000000A8H   SFRSYM    DATA     BYTE      IE
      000000BBH   SFRSYM    DATA     BYTE      P_SW3
      000000BAH   SFRSYM    DATA     BYTE      P_SW2
      000000A2H   SFRSYM    DATA     BYTE      P_SW1
      000000CEH   SFRSYM    DATA     BYTE      SPCTL
      000000F8H   SFRSYM    DATA     BYTE      P7
      000000E8H   SFRSYM    DATA     BYTE      P6
      000000C8H   SFRSYM    DATA     BYTE      P5
      000000C0H   SFRSYM    DATA     BYTE      P4
      000000B0H   SFRSYM    DATA     BYTE      P3
      000000A0H   SFRSYM    DATA     BYTE      P2
      00000090H   SFRSYM    DATA     BYTE      P1
      00000080H   SFRSYM    DATA     BYTE      P0
      00FF9D36H   SYMBOL    HCONST   ---       ?tpl?0001
      00FF9D3BH   SYMBOL    HCONST   ---       ?tpl?0002
      00FF9D57H   SYMBOL    HCONST   ---       ?tpl?0003
      00FF9D62H   SYMBOL    HCONST   ---       ?tpl?0004
      00FF9D6DH   SYMBOL    HCONST   ---       ?tpl?0005
      00FF9D78H   SYMBOL    HCONST   ---       ?tpl?0006
      00FF9D83H   SYMBOL    HCONST   ---       ?tpl?0007
      00FF9D8EH   SYMBOL    HCONST   ---       ?tpl?0008
      00FF9D99H   SYMBOL    HCONST   ---       ?tpl?0009
      00FF9DA4H   SYMBOL    HCONST   ---       ?tpl?000A
      00FF9DAFH   SYMBOL    HCONST   ---       ?tpl?000B
      00FF9DBAH   SYMBOL    HCONST   ---       ?tpl?000C
      00FF9DC5H   SYMBOL    HCONST   ---       ?tpl?000D
      0001040CH   SYMBOL    XDATA    ---       gps_tau1201_receiver_fifo
      00010424H   SYMBOL    XDATA    ---       gps_gga_buffer
      000104CFH   SYMBOL    XDATA    BYTE      gps_tau1201_state
      000104D0H   SYMBOL    XDATA    ---       gps_rmc_buffer
      00010550H   SYMBOL    XDATA    ---       gps_tau1201_receiver_buffer
      0001186DH   SYMBOL    XDATA    BYTE      num
      0001186EH   SYMBOL    XDATA    ---       str
      00011872H   SYMBOL    XDATA    BYTE      i
      00011873H   SYMBOL    XDATA    BYTE      j
      00011874H   SYMBOL    XDATA    ---       temp
      00011878H   SYMBOL    XDATA    BYTE      len
      00011879H   SYMBOL    XDATA    BYTE      len1
      00011600H   SYMBOL    XDATA    ---       s
      00011604H   SYMBOL    XDATA    ---       buf
      0001160EH   SYMBOL    XDATA    BYTE      i
      0001160FH   SYMBOL    XDATA    INT       return_value
      00011425H   SYMBOL    XDATA    ---       s
      00011429H   SYMBOL    XDATA    BYTE      i
      0001142AH   SYMBOL    XDATA    ---       buf
      00011439H   SYMBOL    XDATA    FLOAT     return_value
      0001143DH   SYMBOL    XDATA    ---       s
      00011441H   SYMBOL    XDATA    BYTE      i
      00011442H   SYMBOL    XDATA    ---       buf
      00011451H   SYMBOL    XDATA    FLOAT     return_value
      00011E5BH   SYMBOL    XDATA    ---       time
      00011E5FH   SYMBOL    XDATA    BYTE      day_num
      000110F6H   SYMBOL    XDATA    ---       line
      000110FAH   SYMBOL    XDATA    ---       gps
      000110FEH   SYMBOL    XDATA    BYTE      state
      000110FFH   SYMBOL    XDATA    BYTE      temp
      00011100H   SYMBOL    XDATA    FLOAT     latitude
L251 LINKER/LOCATER V4.66.93.0                                                        03/29/2026  20:20:13  PAGE 93


      00011104H   SYMBOL    XDATA    FLOAT     longitude
      00011108H   SYMBOL    XDATA    FLOAT     lati_cent_tmp
      0001110CH   SYMBOL    XDATA    FLOAT     lati_second_tmp
      00011110H   SYMBOL    XDATA    FLOAT     long_cent_tmp
      00011114H   SYMBOL    XDATA    FLOAT     long_second_tmp
      00011118H   SYMBOL    XDATA    FLOAT     speed_tmp
      0001111CH   SYMBOL    XDATA    ---       buf
      00011120H   SYMBOL    XDATA    BYTE      return_state
      000117BFH   SYMBOL    XDATA    ---       line
      000117C3H   SYMBOL    XDATA    ---       gps
      000117C7H   SYMBOL    XDATA    BYTE      state
      000117C8H   SYMBOL    XDATA    ---       buf
      000117CCH   SYMBOL    XDATA    BYTE      return_state
      00010F83H   SYMBOL    XDATA    FLOAT     latitude1
      00010F87H   SYMBOL    XDATA    FLOAT     longitude1
      00010F8BH   SYMBOL    XDATA    FLOAT     latitude2
      00010F8FH   SYMBOL    XDATA    FLOAT     longitude2
      00010F93H   SYMBOL    XDATA    FLOAT     EARTH_RADIUS
      00010F97H   SYMBOL    XDATA    FLOAT     rad_latitude1
      00010F9BH   SYMBOL    XDATA    FLOAT     rad_latitude2
      00010F9FH   SYMBOL    XDATA    FLOAT     rad_longitude1
      00010FA3H   SYMBOL    XDATA    FLOAT     rad_longitude2
      00010FA7H   SYMBOL    XDATA    FLOAT     distance
      00010FABH   SYMBOL    XDATA    FLOAT     a
      00010FAFH   SYMBOL    XDATA    FLOAT     b
      00011322H   SYMBOL    XDATA    FLOAT     latitude1
      00011326H   SYMBOL    XDATA    FLOAT     longitude1
      0001132AH   SYMBOL    XDATA    FLOAT     latitude2
      0001132EH   SYMBOL    XDATA    FLOAT     longitude2
      00011332H   SYMBOL    XDATA    FLOAT     x
      00011336H   SYMBOL    XDATA    FLOAT     y
      0001133AH   SYMBOL    XDATA    FLOAT     angle
      00011993H   SYMBOL    XDATA    BYTE      return_state
      00011994H   SYMBOL    XDATA    ---       check_buffer
      00011999H   SYMBOL    XDATA    BYTE      bbc_xor_origin
      0001199AH   SYMBOL    XDATA    BYTE      bbc_xor_calculation
      0001199BH   SYMBOL    XDATA    DWORD     data_len
      00011A7EH   SYMBOL    XDATA    BYTE      uart_dat
      00011A7FH   SYMBOL    XDATA    ---       temp_gps
      00011A85H   SYMBOL    XDATA    DWORD     temp_length
      00010A42H   SYMBOL    XDATA    ---       set_rate
      00010A5EH   SYMBOL    XDATA    ---       open_gga
      00010A69H   SYMBOL    XDATA    ---       open_rmc
      00010A74H   SYMBOL    XDATA    ---       close_gll
      00010A7FH   SYMBOL    XDATA    ---       close_gsa
      00010A8AH   SYMBOL    XDATA    ---       close_grs
      00010A95H   SYMBOL    XDATA    ---       close_gsv
      00010AA0H   SYMBOL    XDATA    ---       close_vtg
      00010AABH   SYMBOL    XDATA    ---       close_zda
      00010AB6H   SYMBOL    XDATA    ---       close_gst
      00010AC1H   SYMBOL    XDATA    ---       close_txt
      00010ACCH   SYMBOL    XDATA    ---       close_txt_ant

      ---         MODULE    ---      ---       zf_device_icm20602
      0001150FH   PUBLIC    XDATA    INT       icm20602_acc_x
      00011511H   PUBLIC    XDATA    INT       icm20602_acc_y
      00011513H   PUBLIC    XDATA    INT       icm20602_acc_z
      00011515H   PUBLIC    XDATA    INT       icm20602_gyro_x
      00011517H   PUBLIC    XDATA    INT       icm20602_gyro_y
      00011519H   PUBLIC    XDATA    INT       icm20602_gyro_z
      0001151BH   PUBLIC    XDATA    ---       icm20602_transition_factor
      000000D0H   SFRSYM    DATA     BYTE      PSW
      0000009DH   SFRSYM    DATA     BYTE      IRCBAND
      00000097H   SFRSYM    DATA     BYTE      AUXR2
      000000EFH   SFRSYM    DATA     BYTE      AUXINTIF
L251 LINKER/LOCATER V4.66.93.0                                                        03/29/2026  20:20:13  PAGE 94


      000000FDH   SFRSYM    DATA     BYTE      S4CON
      000000ACH   SFRSYM    DATA     BYTE      S3CON
      0000009AH   SFRSYM    DATA     BYTE      S2CON
      000000B7H   SFRSYM    DATA     BYTE      IPH
      000000CDH   SFRSYM    DATA     BYTE      SPSTAT
      000000DDH   SFRSYM    DATA     BYTE      T4T3M
      000000C1H   SFRSYM    DATA     BYTE      WDT_CONTR
      000000DFH   SFRSYM    DATA     BYTE      IP3
      000000F4H   SFRSYM    DATA     BYTE      USBCON
      000000B5H   SFRSYM    DATA     BYTE      IP2
      000000FFH   SFRSYM    DATA     BYTE      RSTCFG
      000000C7H   SFRSYM    DATA     BYTE      IAP_CONTR
      000000F9H   SFRSYM    DATA     BYTE      LINICR
      0000008EH   SFRSYM    DATA     BYTE      AUXR
      000000AFH   SFRSYM    DATA     BYTE      IE2
      000000C0H.3 SFRSYM    DATA     BIT       P43
      000000C0H.2 SFRSYM    DATA     BIT       P42
      00000088H   SFRSYM    DATA     BYTE      TCON
      00000089H   SFRSYM    DATA     BYTE      TMOD
      000000C0H.1 SFRSYM    DATA     BIT       P41
      00000098H   SFRSYM    DATA     BYTE      SCON
      000000C0H.0 SFRSYM    DATA     BIT       P40
      000000F1H   SFRSYM    DATA     BYTE      CANICR
      00000087H   SFRSYM    DATA     BYTE      PCON
      000000BCH   SFRSYM    DATA     BYTE      ADC_CONTR
      000000E7H   SFRSYM    DATA     BYTE      CMPCR2
      000000E6H   SFRSYM    DATA     BYTE      CMPCR1
      000000DEH   SFRSYM    DATA     BYTE      ADCCFG
      000000B8H   SFRSYM    DATA     BYTE      IP
      0000008FH   SFRSYM    DATA     BYTE      INTCLKO
      000000EEH   SFRSYM    DATA     BYTE      IP3H
      000000B6H   SFRSYM    DATA     BYTE      IP2H
      000000A8H   SFRSYM    DATA     BYTE      IE
      000000BBH   SFRSYM    DATA     BYTE      P_SW3
      000000BAH   SFRSYM    DATA     BYTE      P_SW2
      000000A2H   SFRSYM    DATA     BYTE      P_SW1
      000000CEH   SFRSYM    DATA     BYTE      SPCTL
      000000F8H   SFRSYM    DATA     BYTE      P7
      000000E8H   SFRSYM    DATA     BYTE      P6
      000000C8H   SFRSYM    DATA     BYTE      P5
      000000C0H   SFRSYM    DATA     BYTE      P4
      000000B0H   SFRSYM    DATA     BYTE      P3
      000000A0H   SFRSYM    DATA     BYTE      P2
      00000090H   SFRSYM    DATA     BYTE      P1
      00000080H   SFRSYM    DATA     BYTE      P0
      00011F4CH   SYMBOL    XDATA    BYTE      byte
      00011F4DH   SYMBOL    XDATA    BYTE      i
      00011F4EH   SYMBOL    XDATA    BYTE      cmd
      00011F4FH   SYMBOL    XDATA    BYTE      val
      00011E60H   SYMBOL    XDATA    BYTE      cmd
      00011E61H   SYMBOL    XDATA    ---       val
      00011B3CH   SYMBOL    XDATA    BYTE      cmd
      00011B3DH   SYMBOL    XDATA    ---       val
      00011B41H   SYMBOL    XDATA    DWORD     num
      00000010H   SYMBOL    EDATA    DWORD     i
      00011F50H   SYMBOL    XDATA    BYTE      reg
      00011F51H   SYMBOL    XDATA    BYTE      dat
      00011F52H   SYMBOL    XDATA    BYTE      reg
      00011F53H   SYMBOL    XDATA    BYTE      dat
      00011B45H   SYMBOL    XDATA    BYTE      reg
      00011B46H   SYMBOL    XDATA    ---       dat
      00011B4AH   SYMBOL    XDATA    DWORD     len
      00011EC3H   SYMBOL    XDATA    BYTE      dat
      00011EC4H   SYMBOL    XDATA    BYTE      return_state
      00011EC5H   SYMBOL    XDATA    WORD      timeout_count
L251 LINKER/LOCATER V4.66.93.0                                                        03/29/2026  20:20:13  PAGE 95


      00011D9FH   SYMBOL    XDATA    ---       dat
      00011DA5H   SYMBOL    XDATA    ---       dat
      00011EC7H   SYMBOL    XDATA    BYTE      val
      00011EC8H   SYMBOL    XDATA    BYTE      return_state
      00011EC9H   SYMBOL    XDATA    WORD      timeout_count

      ---         MODULE    ---      ---       zf_device_imu660ra
      00011523H   PUBLIC    XDATA    INT       imu660ra_acc_x
      00011525H   PUBLIC    XDATA    INT       imu660ra_acc_y
      00011527H   PUBLIC    XDATA    INT       imu660ra_acc_z
      00011529H   PUBLIC    XDATA    INT       imu660ra_gyro_x
      0001152BH   PUBLIC    XDATA    INT       imu660ra_gyro_y
      0001152DH   PUBLIC    XDATA    INT       imu660ra_gyro_z
      0001152FH   PUBLIC    XDATA    ---       imu660ra_transition_factor
      000000D0H   SFRSYM    DATA     BYTE      PSW
      0000009DH   SFRSYM    DATA     BYTE      IRCBAND
      00000097H   SFRSYM    DATA     BYTE      AUXR2
      000000EFH   SFRSYM    DATA     BYTE      AUXINTIF
      000000FDH   SFRSYM    DATA     BYTE      S4CON
      000000ACH   SFRSYM    DATA     BYTE      S3CON
      0000009AH   SFRSYM    DATA     BYTE      S2CON
      000000B7H   SFRSYM    DATA     BYTE      IPH
      000000CDH   SFRSYM    DATA     BYTE      SPSTAT
      000000DDH   SFRSYM    DATA     BYTE      T4T3M
      000000C1H   SFRSYM    DATA     BYTE      WDT_CONTR
      000000DFH   SFRSYM    DATA     BYTE      IP3
      000000F4H   SFRSYM    DATA     BYTE      USBCON
      000000B5H   SFRSYM    DATA     BYTE      IP2
      000000FFH   SFRSYM    DATA     BYTE      RSTCFG
      000000C7H   SFRSYM    DATA     BYTE      IAP_CONTR
      000000F9H   SFRSYM    DATA     BYTE      LINICR
      0000008EH   SFRSYM    DATA     BYTE      AUXR
      000000AFH   SFRSYM    DATA     BYTE      IE2
      000000C0H.3 SFRSYM    DATA     BIT       P43
      000000C0H.2 SFRSYM    DATA     BIT       P42
      00000088H   SFRSYM    DATA     BYTE      TCON
      00000089H   SFRSYM    DATA     BYTE      TMOD
      000000C0H.1 SFRSYM    DATA     BIT       P41
      00000098H   SFRSYM    DATA     BYTE      SCON
      000000C0H.0 SFRSYM    DATA     BIT       P40
      000000F1H   SFRSYM    DATA     BYTE      CANICR
      00000087H   SFRSYM    DATA     BYTE      PCON
      000000BCH   SFRSYM    DATA     BYTE      ADC_CONTR
      000000E7H   SFRSYM    DATA     BYTE      CMPCR2
      000000E6H   SFRSYM    DATA     BYTE      CMPCR1
      000000DEH   SFRSYM    DATA     BYTE      ADCCFG
      000000B8H   SFRSYM    DATA     BYTE      IP
      0000008FH   SFRSYM    DATA     BYTE      INTCLKO
      000000EEH   SFRSYM    DATA     BYTE      IP3H
      000000B6H   SFRSYM    DATA     BYTE      IP2H
      000000A8H   SFRSYM    DATA     BYTE      IE
      000000BBH   SFRSYM    DATA     BYTE      P_SW3
      000000BAH   SFRSYM    DATA     BYTE      P_SW2
      000000A2H   SFRSYM    DATA     BYTE      P_SW1
      000000CEH   SFRSYM    DATA     BYTE      SPCTL
      000000F8H   SFRSYM    DATA     BYTE      P7
      000000E8H   SFRSYM    DATA     BYTE      P6
      000000C8H   SFRSYM    DATA     BYTE      P5
      000000C0H   SFRSYM    DATA     BYTE      P4
      000000B0H   SFRSYM    DATA     BYTE      P3
      000000A0H   SFRSYM    DATA     BYTE      P2
      00000090H   SFRSYM    DATA     BYTE      P1
      00000080H   SFRSYM    DATA     BYTE      P0
      00FF8D0AH   SYMBOL    CODE     ---       imu660ra_simspi_wr_byte
      00FF8A78H   SYMBOL    CODE     ---       imu660ra_simspi_r_reg_bytes
L251 LINKER/LOCATER V4.66.93.0                                                        03/29/2026  20:20:13  PAGE 96



      00FF8D0AH   BLOCK     CODE     ---       LVL=0
      00011F54H   SYMBOL    XDATA    BYTE      byte
      00FF8D0EH   BLOCK     CODE     NEAR LAB  LVL=1
      00011F55H   SYMBOL    XDATA    BYTE      i
      ---         BLOCKEND  ---      ---       LVL=1
      00FF8D0AH   LINE      CODE     ---       #160
      00FF8D0EH   LINE      CODE     ---       #161
      00FF8D0EH   LINE      CODE     ---       #163
      00FF8D15H   LINE      CODE     ---       #165
      00FF8D18H   LINE      CODE     ---       #166
      00FF8D27H   LINE      CODE     ---       #167
      00FF8D2EH   LINE      CODE     ---       #168
      00FF8D31H   LINE      CODE     ---       #169
      00FF8D3EH   LINE      CODE     ---       #170
      00FF8D55H   LINE      CODE     ---       #171
      00FF8D58H   LINE      CODE     ---       #172
      00FF8D5CH   LINE      CODE     ---       #173
      ---         BLOCKEND  ---      ---       LVL=0
      00011F56H   SYMBOL    XDATA    BYTE      cmd
      00011F57H   SYMBOL    XDATA    BYTE      val
      00011B4EH   SYMBOL    XDATA    BYTE      cmd
      00011B4FH   SYMBOL    XDATA    ---       dat_addr
      00011B53H   SYMBOL    XDATA    DWORD     len

      00FF8A78H   BLOCK     CODE     ---       LVL=0
      00011B57H   SYMBOL    XDATA    BYTE      cmd
      00011B58H   SYMBOL    XDATA    ---       val
      00011B5CH   SYMBOL    XDATA    DWORD     num
      00FF8A78H   LINE      CODE     ---       #215
      00FF8A90H   LINE      CODE     ---       #217
      00FF8A9AH   LINE      CODE     ---       #218
      00FF8AA1H   LINE      CODE     ---       #219
      00FF8AA3H   LINE      CODE     ---       #221
      00FF8ACAH   LINE      CODE     ---       #222
      00FF8AE7H   LINE      CODE     ---       #223
      ---         BLOCKEND  ---      ---       LVL=0
      00011F58H   SYMBOL    XDATA    BYTE      reg
      00011F59H   SYMBOL    XDATA    BYTE      dat
      00011B60H   SYMBOL    XDATA    BYTE      reg
      00011B61H   SYMBOL    XDATA    ---       dat
      00011B65H   SYMBOL    XDATA    DWORD     len
      00011F29H   SYMBOL    XDATA    BYTE      reg
      00011F2AH   SYMBOL    XDATA    ---       dat
      00011537H   SYMBOL    XDATA    BYTE      reg
      00011538H   SYMBOL    XDATA    ---       dat
      0001153CH   SYMBOL    XDATA    DWORD     len
      00011540H   SYMBOL    XDATA    WORD      i
      00011542H   SYMBOL    XDATA    ---       temp_data
      00011ECBH   SYMBOL    XDATA    BYTE      dat
      00011ECCH   SYMBOL    XDATA    BYTE      return_state
      00011ECDH   SYMBOL    XDATA    WORD      timeout_count
      00011DABH   SYMBOL    XDATA    ---       dat
      00011DB1H   SYMBOL    XDATA    ---       dat
      00011F81H   SYMBOL    XDATA    BYTE      return_state

      ---         MODULE    ---      ---       zf_device_imu660rb
      0001199FH   PUBLIC    XDATA    INT       imu660rb_acc_x
      000119A1H   PUBLIC    XDATA    INT       imu660rb_acc_y
      000119A3H   PUBLIC    XDATA    INT       imu660rb_acc_z
      000119A5H   PUBLIC    XDATA    INT       imu660rb_gyro_x
      000119A7H   PUBLIC    XDATA    INT       imu660rb_gyro_y
      000119A9H   PUBLIC    XDATA    INT       imu660rb_gyro_z
      000000D0H   SFRSYM    DATA     BYTE      PSW
      0000009DH   SFRSYM    DATA     BYTE      IRCBAND
L251 LINKER/LOCATER V4.66.93.0                                                        03/29/2026  20:20:13  PAGE 97


      00000097H   SFRSYM    DATA     BYTE      AUXR2
      000000EFH   SFRSYM    DATA     BYTE      AUXINTIF
      000000FDH   SFRSYM    DATA     BYTE      S4CON
      000000ACH   SFRSYM    DATA     BYTE      S3CON
      0000009AH   SFRSYM    DATA     BYTE      S2CON
      000000B7H   SFRSYM    DATA     BYTE      IPH
      000000CDH   SFRSYM    DATA     BYTE      SPSTAT
      000000DDH   SFRSYM    DATA     BYTE      T4T3M
      000000C1H   SFRSYM    DATA     BYTE      WDT_CONTR
      000000DFH   SFRSYM    DATA     BYTE      IP3
      000000F4H   SFRSYM    DATA     BYTE      USBCON
      000000B5H   SFRSYM    DATA     BYTE      IP2
      000000FFH   SFRSYM    DATA     BYTE      RSTCFG
      000000C7H   SFRSYM    DATA     BYTE      IAP_CONTR
      000000F9H   SFRSYM    DATA     BYTE      LINICR
      0000008EH   SFRSYM    DATA     BYTE      AUXR
      000000AFH   SFRSYM    DATA     BYTE      IE2
      000000C0H.3 SFRSYM    DATA     BIT       P43
      000000C0H.2 SFRSYM    DATA     BIT       P42
      00000088H   SFRSYM    DATA     BYTE      TCON
      00000089H   SFRSYM    DATA     BYTE      TMOD
      000000C0H.1 SFRSYM    DATA     BIT       P41
      00000098H   SFRSYM    DATA     BYTE      SCON
      000000C0H.0 SFRSYM    DATA     BIT       P40
      000000F1H   SFRSYM    DATA     BYTE      CANICR
      00000087H   SFRSYM    DATA     BYTE      PCON
      000000BCH   SFRSYM    DATA     BYTE      ADC_CONTR
      000000E7H   SFRSYM    DATA     BYTE      CMPCR2
      000000E6H   SFRSYM    DATA     BYTE      CMPCR1
      000000DEH   SFRSYM    DATA     BYTE      ADCCFG
      000000B8H   SFRSYM    DATA     BYTE      IP
      0000008FH   SFRSYM    DATA     BYTE      INTCLKO
      000000EEH   SFRSYM    DATA     BYTE      IP3H
      000000B6H   SFRSYM    DATA     BYTE      IP2H
      000000A8H   SFRSYM    DATA     BYTE      IE
      000000BBH   SFRSYM    DATA     BYTE      P_SW3
      000000BAH   SFRSYM    DATA     BYTE      P_SW2
      000000A2H   SFRSYM    DATA     BYTE      P_SW1
      000000CEH   SFRSYM    DATA     BYTE      SPCTL
      000000F8H   SFRSYM    DATA     BYTE      P7
      000000E8H   SFRSYM    DATA     BYTE      P6
      000000C8H   SFRSYM    DATA     BYTE      P5
      000000C0H   SFRSYM    DATA     BYTE      P4
      000000B0H   SFRSYM    DATA     BYTE      P3
      000000A0H   SFRSYM    DATA     BYTE      P2
      00000090H   SFRSYM    DATA     BYTE      P1
      00000080H   SFRSYM    DATA     BYTE      P0
      00011F5AH   SYMBOL    XDATA    BYTE      byte
      00011F5BH   SYMBOL    XDATA    BYTE      i
      00011F5CH   SYMBOL    XDATA    BYTE      cmd
      00011F5DH   SYMBOL    XDATA    BYTE      val
      00011E65H   SYMBOL    XDATA    BYTE      cmd
      00011E66H   SYMBOL    XDATA    ---       val
      00011B69H   SYMBOL    XDATA    BYTE      cmd
      00011B6AH   SYMBOL    XDATA    ---       val
      00011B6EH   SYMBOL    XDATA    DWORD     num
      00011F5EH   SYMBOL    XDATA    BYTE      reg
      00011F5FH   SYMBOL    XDATA    BYTE      dat
      00011F60H   SYMBOL    XDATA    BYTE      reg
      00011F61H   SYMBOL    XDATA    BYTE      dat
      00011B72H   SYMBOL    XDATA    BYTE      reg
      00011B73H   SYMBOL    XDATA    ---       dat
      00011B77H   SYMBOL    XDATA    DWORD     len
      00011ECFH   SYMBOL    XDATA    BYTE      dat
      00011ED0H   SYMBOL    XDATA    BYTE      return_state
L251 LINKER/LOCATER V4.66.93.0                                                        03/29/2026  20:20:13  PAGE 98


      00011ED1H   SYMBOL    XDATA    WORD      timeout_count
      00011DB7H   SYMBOL    XDATA    ---       dat
      00011DBDH   SYMBOL    XDATA    ---       dat
      00011DC3H   SYMBOL    XDATA    INT       acc_value
      00011DC5H   SYMBOL    XDATA    FLOAT     acc_data
      00011DC9H   SYMBOL    XDATA    INT       gyro_value
      00011DCBH   SYMBOL    XDATA    FLOAT     gyro_data
      00011F82H   SYMBOL    XDATA    BYTE      return_state

      ---         MODULE    ---      ---       zf_device_imu963ra
      000112E7H   PUBLIC    XDATA    INT       imu963ra_acc_x
      000112E9H   PUBLIC    XDATA    INT       imu963ra_acc_y
      000112EBH   PUBLIC    XDATA    INT       imu963ra_acc_z
      000112EDH   PUBLIC    XDATA    INT       imu963ra_mag_x
      000112EFH   PUBLIC    XDATA    INT       imu963ra_mag_y
      000112F1H   PUBLIC    XDATA    INT       imu963ra_mag_z
      000112F3H   PUBLIC    XDATA    INT       imu963ra_gyro_x
      000112F5H   PUBLIC    XDATA    INT       imu963ra_gyro_y
      000112F7H   PUBLIC    XDATA    INT       imu963ra_gyro_z
      000112F9H   PUBLIC    XDATA    ---       imu963ra_transition_factor
      000000D0H   SFRSYM    DATA     BYTE      PSW
      0000009DH   SFRSYM    DATA     BYTE      IRCBAND
      00000097H   SFRSYM    DATA     BYTE      AUXR2
      000000EFH   SFRSYM    DATA     BYTE      AUXINTIF
      000000FDH   SFRSYM    DATA     BYTE      S4CON
      000000ACH   SFRSYM    DATA     BYTE      S3CON
      0000009AH   SFRSYM    DATA     BYTE      S2CON
      000000B7H   SFRSYM    DATA     BYTE      IPH
      000000CDH   SFRSYM    DATA     BYTE      SPSTAT
      000000DDH   SFRSYM    DATA     BYTE      T4T3M
      000000C1H   SFRSYM    DATA     BYTE      WDT_CONTR
      000000DFH   SFRSYM    DATA     BYTE      IP3
      000000F4H   SFRSYM    DATA     BYTE      USBCON
      000000B5H   SFRSYM    DATA     BYTE      IP2
      000000FFH   SFRSYM    DATA     BYTE      RSTCFG
      000000C7H   SFRSYM    DATA     BYTE      IAP_CONTR
      000000F9H   SFRSYM    DATA     BYTE      LINICR
      0000008EH   SFRSYM    DATA     BYTE      AUXR
      000000AFH   SFRSYM    DATA     BYTE      IE2
      000000C0H.2 SFRSYM    DATA     BIT       P42
      00000088H   SFRSYM    DATA     BYTE      TCON
      00000089H   SFRSYM    DATA     BYTE      TMOD
      00000098H   SFRSYM    DATA     BYTE      SCON
      000000F1H   SFRSYM    DATA     BYTE      CANICR
      00000087H   SFRSYM    DATA     BYTE      PCON
      000000BCH   SFRSYM    DATA     BYTE      ADC_CONTR
      000000E7H   SFRSYM    DATA     BYTE      CMPCR2
      000000E6H   SFRSYM    DATA     BYTE      CMPCR1
      000000DEH   SFRSYM    DATA     BYTE      ADCCFG
      000000B8H   SFRSYM    DATA     BYTE      IP
      0000008FH   SFRSYM    DATA     BYTE      INTCLKO
      000000EEH   SFRSYM    DATA     BYTE      IP3H
      000000B6H   SFRSYM    DATA     BYTE      IP2H
      000000A8H   SFRSYM    DATA     BYTE      IE
      000000BBH   SFRSYM    DATA     BYTE      P_SW3
      000000BAH   SFRSYM    DATA     BYTE      P_SW2
      000000A2H   SFRSYM    DATA     BYTE      P_SW1
      000000CEH   SFRSYM    DATA     BYTE      SPCTL
      000000F8H   SFRSYM    DATA     BYTE      P7
      000000E8H   SFRSYM    DATA     BYTE      P6
      000000C8H   SFRSYM    DATA     BYTE      P5
      000000C0H   SFRSYM    DATA     BYTE      P4
      000000B0H   SFRSYM    DATA     BYTE      P3
      000000A0H   SFRSYM    DATA     BYTE      P2
      00000090H   SFRSYM    DATA     BYTE      P1
L251 LINKER/LOCATER V4.66.93.0                                                        03/29/2026  20:20:13  PAGE 99


      00000080H   SFRSYM    DATA     BYTE      P0
      00011F62H   SYMBOL    XDATA    BYTE      reg
      00011F63H   SYMBOL    XDATA    BYTE      dat
      00011F64H   SYMBOL    XDATA    BYTE      reg
      00011F65H   SYMBOL    XDATA    BYTE      dat
      00011B7BH   SYMBOL    XDATA    BYTE      reg
      00011B7CH   SYMBOL    XDATA    ---       dat
      00011B80H   SYMBOL    XDATA    DWORD     len
      00011DCFH   SYMBOL    XDATA    BYTE      addr
      00011DD0H   SYMBOL    XDATA    BYTE      reg
      00011DD1H   SYMBOL    XDATA    BYTE      dat
      00011DD2H   SYMBOL    XDATA    BYTE      return_state
      00011DD3H   SYMBOL    XDATA    WORD      timeout_count
      00011ED3H   SYMBOL    XDATA    BYTE      addr
      00011ED4H   SYMBOL    XDATA    BYTE      reg
      00011ED5H   SYMBOL    XDATA    WORD      timeout_count
      00011F66H   SYMBOL    XDATA    BYTE      addr
      00011F67H   SYMBOL    XDATA    BYTE      reg
      00011ED7H   SYMBOL    XDATA    BYTE      return_state
      00011ED8H   SYMBOL    XDATA    BYTE      dat
      00011ED9H   SYMBOL    XDATA    WORD      timeout_count
      00011EDBH   SYMBOL    XDATA    BYTE      return_state
      00011EDCH   SYMBOL    XDATA    BYTE      dat
      00011EDDH   SYMBOL    XDATA    WORD      timeout_count
      00011DD5H   SYMBOL    XDATA    ---       dat
      00011DDBH   SYMBOL    XDATA    ---       dat
      00011D31H   SYMBOL    XDATA    BYTE      temp_status
      00011D32H   SYMBOL    XDATA    ---       dat
      00011F83H   SYMBOL    XDATA    BYTE      return_state

      ---         MODULE    ---      ---       zf_device_ips114
      00FF6A01H   PUBLIC    CODE     ---       ips114_show_float
      00FF7D78H   PUBLIC    CODE     ---       ips114_show_string
      00FF76A3H   PUBLIC    CODE     ---       ips114_show_char
      00FF9170H   PUBLIC    CODE     ---       ips114_set_color
      00FF9090H   PUBLIC    CODE     ---       ips114_set_dir
      00FF867AH   PUBLIC    CODE     ---       ips114_clear
      00FF5E22H   PUBLIC    CODE     ---       ips114_init
      00011C9DH   PUBLIC    XDATA    WORD      ips114_pencolor
      00011C9FH   PUBLIC    XDATA    WORD      ips114_bgcolor
      00011CA1H   PUBLIC    XDATA    INT       ips114_display_dir
      00011CA3H   PUBLIC    XDATA    BYTE      ips114_x_max
      00011CA4H   PUBLIC    XDATA    BYTE      ips114_y_max
      00010FB3H   PUBLIC    XDATA    BYTE      ?ips114_show_float?BYTE
      0001120CH   PUBLIC    XDATA    BYTE      ?ips114_show_wave?BYTE
      000113C2H   PUBLIC    XDATA    BYTE      ?ips114_show_chinese?BYTE
      000000D0H   SFRSYM    DATA     BYTE      PSW
      0000009DH   SFRSYM    DATA     BYTE      IRCBAND
      00000097H   SFRSYM    DATA     BYTE      AUXR2
      000000EFH   SFRSYM    DATA     BYTE      AUXINTIF
      000000FDH   SFRSYM    DATA     BYTE      S4CON
      000000ACH   SFRSYM    DATA     BYTE      S3CON
      0000009AH   SFRSYM    DATA     BYTE      S2CON
      000000B7H   SFRSYM    DATA     BYTE      IPH
      000000CDH   SFRSYM    DATA     BYTE      SPSTAT
      000000DDH   SFRSYM    DATA     BYTE      T4T3M
      000000C1H   SFRSYM    DATA     BYTE      WDT_CONTR
      000000DFH   SFRSYM    DATA     BYTE      IP3
      000000F4H   SFRSYM    DATA     BYTE      USBCON
      000000B5H   SFRSYM    DATA     BYTE      IP2
      000000FFH   SFRSYM    DATA     BYTE      RSTCFG
      000000C7H   SFRSYM    DATA     BYTE      IAP_CONTR
      000000F9H   SFRSYM    DATA     BYTE      LINICR
      0000008EH   SFRSYM    DATA     BYTE      AUXR
      000000AFH   SFRSYM    DATA     BYTE      IE2
L251 LINKER/LOCATER V4.66.93.0                                                        03/29/2026  20:20:13  PAGE 100


      00000088H   SFRSYM    DATA     BYTE      TCON
      00000089H   SFRSYM    DATA     BYTE      TMOD
      00000098H   SFRSYM    DATA     BYTE      SCON
      000000A0H.2 SFRSYM    DATA     BIT       P22
      000000A0H.1 SFRSYM    DATA     BIT       P21
      000000A0H.0 SFRSYM    DATA     BIT       P20
      000000F1H   SFRSYM    DATA     BYTE      CANICR
      00000087H   SFRSYM    DATA     BYTE      PCON
      000000BCH   SFRSYM    DATA     BYTE      ADC_CONTR
      000000E7H   SFRSYM    DATA     BYTE      CMPCR2
      000000E6H   SFRSYM    DATA     BYTE      CMPCR1
      000000DEH   SFRSYM    DATA     BYTE      ADCCFG
      000000B8H   SFRSYM    DATA     BYTE      IP
      0000008FH   SFRSYM    DATA     BYTE      INTCLKO
      000000EEH   SFRSYM    DATA     BYTE      IP3H
      000000B6H   SFRSYM    DATA     BYTE      IP2H
      000000A8H   SFRSYM    DATA     BYTE      IE
      000000BBH   SFRSYM    DATA     BYTE      P_SW3
      000000BAH   SFRSYM    DATA     BYTE      P_SW2
      000000A2H   SFRSYM    DATA     BYTE      P_SW1
      000000CEH   SFRSYM    DATA     BYTE      SPCTL
      000000F8H   SFRSYM    DATA     BYTE      P7
      000000E8H   SFRSYM    DATA     BYTE      P6
      000000C8H   SFRSYM    DATA     BYTE      P5
      000000C0H   SFRSYM    DATA     BYTE      P4
      000000B0H   SFRSYM    DATA     BYTE      P3
      000000A0H   SFRSYM    DATA     BYTE      P2
      00000090H   SFRSYM    DATA     BYTE      P1
      00000080H   SFRSYM    DATA     BYTE      P0
      00FF91BAH   SYMBOL    CODE     ---       ips114_write_index
      00FF6396H   SYMBOL    CODE     ---       ips114_set_region

      00FF91BAH   BLOCK     CODE     ---       LVL=0
      00011F84H   SYMBOL    XDATA    BYTE      dat
      00FF91BAH   LINE      CODE     ---       #83
      00FF91BEH   LINE      CODE     ---       #85
      00FF91C1H   LINE      CODE     ---       #86
      00FF91C4H   LINE      CODE     ---       #87
      00FF91C7H   LINE      CODE     ---       #88
      00FF91D2H   LINE      CODE     ---       #89
      00FF91D5H   LINE      CODE     ---       #90
      00FF91D8H   LINE      CODE     ---       #91
      00FF91DBH   LINE      CODE     ---       #92
      ---         BLOCKEND  ---      ---       LVL=0

      00FF6396H   BLOCK     CODE     ---       LVL=0
      00011CA5H   SYMBOL    XDATA    WORD      x1
      00011CA7H   SYMBOL    XDATA    WORD      y1
      00011CA9H   SYMBOL    XDATA    WORD      x2
      00011CABH   SYMBOL    XDATA    WORD      y2
      00FF6396H   LINE      CODE     ---       #103
      00FF63AEH   LINE      CODE     ---       #105
      00FF63D2H   LINE      CODE     ---       #106
      00FF63F6H   LINE      CODE     ---       #107
      00FF641AH   LINE      CODE     ---       #108
      00FF643EH   LINE      CODE     ---       #110
      00FF644AH   LINE      CODE     ---       #112
      00FF644FH   LINE      CODE     ---       #113
      00FF6462H   LINE      CODE     ---       #114
      00FF6475H   LINE      CODE     ---       #115
      00FF647AH   LINE      CODE     ---       #116
      00FF648DH   LINE      CODE     ---       #117
      00FF64A0H   LINE      CODE     ---       #118
      00FF64A5H   LINE      CODE     ---       #119
      00FF64A8H   LINE      CODE     ---       #120
L251 LINKER/LOCATER V4.66.93.0                                                        03/29/2026  20:20:13  PAGE 101


      00FF64B6H   LINE      CODE     ---       #122
      00FF64BBH   LINE      CODE     ---       #123
      00FF64CEH   LINE      CODE     ---       #124
      00FF64E1H   LINE      CODE     ---       #125
      00FF64E6H   LINE      CODE     ---       #126
      00FF64F9H   LINE      CODE     ---       #127
      00FF650CH   LINE      CODE     ---       #128
      00FF6511H   LINE      CODE     ---       #129
      00FF6514H   LINE      CODE     ---       #130
      00FF6522H   LINE      CODE     ---       #132
      00FF6527H   LINE      CODE     ---       #133
      00FF653AH   LINE      CODE     ---       #134
      00FF654DH   LINE      CODE     ---       #135
      00FF6552H   LINE      CODE     ---       #136
      00FF6565H   LINE      CODE     ---       #137
      00FF6578H   LINE      CODE     ---       #138
      00FF657DH   LINE      CODE     ---       #139
      00FF657FH   LINE      CODE     ---       #142
      00FF6584H   LINE      CODE     ---       #143
      00FF6597H   LINE      CODE     ---       #144
      00FF65AAH   LINE      CODE     ---       #145
      00FF65AFH   LINE      CODE     ---       #146
      00FF65C2H   LINE      CODE     ---       #147
      00FF65D5H   LINE      CODE     ---       #148
      00FF65DAH   LINE      CODE     ---       #149
      00FF65DAH   LINE      CODE     ---       #150
      ---         BLOCKEND  ---      ---       LVL=0

      00FF867AH   BLOCK     CODE     ---       LVL=0
      00011DE1H   SYMBOL    XDATA    WORD      color
      00FF8680H   BLOCK     CODE     NEAR LAB  LVL=1
      00011DE3H   SYMBOL    XDATA    WORD      i
      00011DE5H   SYMBOL    XDATA    WORD      j
      ---         BLOCKEND  ---      ---       LVL=1
      00FF867AH   LINE      CODE     ---       #158
      00FF8680H   LINE      CODE     ---       #159
      00FF8680H   LINE      CODE     ---       #161
      00FF869FH   LINE      CODE     ---       #163
      00FF86A9H   LINE      CODE     ---       #165
      00FF86B3H   LINE      CODE     ---       #167
      00FF86C0H   LINE      CODE     ---       #168
      00FF86DFH   LINE      CODE     ---       #169
      00FF86FEH   LINE      CODE     ---       #170
      ---         BLOCKEND  ---      ---       LVL=0

      00FF9090H   BLOCK     CODE     ---       LVL=0
      00011F68H   SYMBOL    XDATA    INT       dir
      00FF9090H   LINE      CODE     ---       #178
      00FF9096H   LINE      CODE     ---       #180
      00FF90A2H   LINE      CODE     ---       #181
      00FF90B0H   LINE      CODE     ---       #183
      00FF90B6H   LINE      CODE     ---       #184
      00FF90BCH   LINE      CODE     ---       #185
      00FF90BEH   LINE      CODE     ---       #188
      00FF90C4H   LINE      CODE     ---       #189
      00FF90CAH   LINE      CODE     ---       #190
      00FF90CAH   LINE      CODE     ---       #191
      ---         BLOCKEND  ---      ---       LVL=0

      00FF9170H   BLOCK     CODE     ---       LVL=0
      00011EDFH   SYMBOL    XDATA    WORD      pen
      00011EE1H   SYMBOL    XDATA    WORD      bgcolor
      00FF9170H   LINE      CODE     ---       #200
      00FF917CH   LINE      CODE     ---       #202
      00FF9188H   LINE      CODE     ---       #203
L251 LINKER/LOCATER V4.66.93.0                                                        03/29/2026  20:20:13  PAGE 102


      00FF9194H   LINE      CODE     ---       #204
      ---         BLOCKEND  ---      ---       LVL=0
      00011DE7H   SYMBOL    XDATA    WORD      x
      00011DE9H   SYMBOL    XDATA    WORD      y
      00011DEBH   SYMBOL    XDATA    WORD      color

      00FF76A3H   BLOCK     CODE     ---       LVL=0
      00011CADH   SYMBOL    XDATA    WORD      x
      00011CAFH   SYMBOL    XDATA    WORD      y
      00011CB1H   SYMBOL    XDATA    CHAR      dat
      00FF76B3H   BLOCK     CODE     NEAR LAB  LVL=1
      00011CB2H   SYMBOL    XDATA    BYTE      i
      00011CB3H   SYMBOL    XDATA    BYTE      j
      00011CB4H   SYMBOL    XDATA    BYTE      temp
      ---         BLOCKEND  ---      ---       LVL=1
      00FF76A3H   LINE      CODE     ---       #231
      00FF76B3H   LINE      CODE     ---       #232
      00FF76B3H   LINE      CODE     ---       #236
      00FF76D7H   LINE      CODE     ---       #237
      00FF76FBH   LINE      CODE     ---       #239
      00FF7703H   LINE      CODE     ---       #241
      00FF7734H   LINE      CODE     ---       #242
      00FF775CH   LINE      CODE     ---       #243
      00FF7763H   LINE      CODE     ---       #245
      00FF776AH   LINE      CODE     ---       #246
      00FF7779H   LINE      CODE     ---       #248
      00FF7786H   LINE      CODE     ---       #249
      00FF778DH   LINE      CODE     ---       #250
      00FF77A4H   LINE      CODE     ---       #251
      00FF77BEH   LINE      CODE     ---       #252
      ---         BLOCKEND  ---      ---       LVL=0

      00FF7D78H   BLOCK     CODE     ---       LVL=0
      00011AEFH   SYMBOL    XDATA    WORD      x
      00011AF1H   SYMBOL    XDATA    WORD      y
      00011AF3H   SYMBOL    XDATA    ---       dat
      00FF7D8EH   BLOCK     CODE     NEAR LAB  LVL=1
      00011AF7H   SYMBOL    XDATA    WORD      j
      ---         BLOCKEND  ---      ---       LVL=1
      00FF7D78H   LINE      CODE     ---       #262
      00FF7D8EH   LINE      CODE     ---       #263
      00FF7D8EH   LINE      CODE     ---       #264
      00FF7D96H   LINE      CODE     ---       #266
      00FF7DBAH   LINE      CODE     ---       #267
      00FF7DDEH   LINE      CODE     ---       #269
      00FF7DE0H   LINE      CODE     ---       #271
      00FF7E12H   LINE      CODE     ---       #272
      00FF7E21H   LINE      CODE     ---       #273
      00FF7E3BH   LINE      CODE     ---       #274
      ---         BLOCKEND  ---      ---       LVL=0
      00011B84H   SYMBOL    XDATA    WORD      x
      00011B86H   SYMBOL    XDATA    WORD      y
      00011B88H   SYMBOL    XDATA    CHAR      dat
      00011B89H   SYMBOL    XDATA    ---       a
      00011B8CH   SYMBOL    XDATA    BYTE      i
      00011B8DH   SYMBOL    XDATA    WORD      x
      00011B8FH   SYMBOL    XDATA    WORD      y
      00011B91H   SYMBOL    XDATA    BYTE      dat
      00011B92H   SYMBOL    XDATA    ---       a
      00011B95H   SYMBOL    XDATA    BYTE      i
      000119ABH   SYMBOL    XDATA    WORD      x
      000119ADH   SYMBOL    XDATA    WORD      y
      000119AFH   SYMBOL    XDATA    INT       dat
      000119B1H   SYMBOL    XDATA    ---       a
      000119B6H   SYMBOL    XDATA    BYTE      i
L251 LINKER/LOCATER V4.66.93.0                                                        03/29/2026  20:20:13  PAGE 103


      000119B7H   SYMBOL    XDATA    WORD      x
      000119B9H   SYMBOL    XDATA    WORD      y
      000119BBH   SYMBOL    XDATA    WORD      dat
      000119BDH   SYMBOL    XDATA    ---       a
      000119C2H   SYMBOL    XDATA    BYTE      i
      00011072H   SYMBOL    XDATA    WORD      x
      00011074H   SYMBOL    XDATA    WORD      y
      00011076H   SYMBOL    XDATA    LONG      dat
      0001107AH   SYMBOL    XDATA    BYTE      num
      0001107BH   SYMBOL    XDATA    ---       buff
      0001109DH   SYMBOL    XDATA    BYTE      length

      00FF6A01H   BLOCK     CODE     ---       LVL=0
      00010FB3H   SYMBOL    XDATA    WORD      x
      00010FB5H   SYMBOL    XDATA    WORD      y
      00010FB7H   SYMBOL    XDATA    FLOAT     dat
      00010FBBH   SYMBOL    XDATA    BYTE      num
      00010FBCH   SYMBOL    XDATA    BYTE      pointnum
      00FF6A1BH   BLOCK     CODE     NEAR LAB  LVL=1
      00010FBDH   SYMBOL    XDATA    BYTE      length
      00010FBEH   SYMBOL    XDATA    ---       buff
      00010FE0H   SYMBOL    XDATA    CHAR      start
      00010FE1H   SYMBOL    XDATA    CHAR      end
      00010FE2H   SYMBOL    XDATA    CHAR      point
      ---         BLOCKEND  ---      ---       LVL=1
      00FF6A01H   LINE      CODE     ---       #459
      00FF6A1BH   LINE      CODE     ---       #460
      00FF6A1BH   LINE      CODE     ---       #465
      00FF6A3FH   LINE      CODE     ---       #466
      00FF6A63H   LINE      CODE     ---       #468
      00FF6A75H   LINE      CODE     ---       #469
      00FF6A87H   LINE      CODE     ---       #471
      00FF6AC7H   LINE      CODE     ---       #474
      00FF6AF4H   LINE      CODE     ---       #475
      00FF6AFFH   LINE      CODE     ---       #476
      00FF6AFFH   LINE      CODE     ---       #477
      00FF6B0FH   LINE      CODE     ---       #478
      00FF6B27H   LINE      CODE     ---       #479
      00FF6B3FH   LINE      CODE     ---       #480
      00FF6B41H   LINE      CODE     ---       #482
      00FF6B59H   LINE      CODE     ---       #483
      00FF6B64H   LINE      CODE     ---       #484
      00FF6B6FH   LINE      CODE     ---       #485
      00FF6B7AH   LINE      CODE     ---       #487
      00FF6BA5H   LINE      CODE     ---       #488
      00FF6BBDH   LINE      CODE     ---       #490
      00FF6BD4H   LINE      CODE     ---       #492
      00FF6BEBH   LINE      CODE     ---       #493
      ---         BLOCKEND  ---      ---       LVL=0
      0001120CH   SYMBOL    XDATA    WORD      x
      0001120EH   SYMBOL    XDATA    WORD      y
      00011210H   SYMBOL    XDATA    ---       p
      00011214H   SYMBOL    XDATA    WORD      width
      00011216H   SYMBOL    XDATA    WORD      value_max
      00011218H   SYMBOL    XDATA    WORD      dis_width
      0001121AH   SYMBOL    XDATA    WORD      dis_value_max
      0001121CH   SYMBOL    XDATA    DWORD     i
      00011220H   SYMBOL    XDATA    DWORD     j
      00011224H   SYMBOL    XDATA    DWORD     width_index
      00011228H   SYMBOL    XDATA    DWORD     value_max_index
      000113C2H   SYMBOL    XDATA    WORD      x
      000113C4H   SYMBOL    XDATA    WORD      y
      000113C6H   SYMBOL    XDATA    BYTE      siz
      000113C7H   SYMBOL    XDATA    ---       p
      000113CBH   SYMBOL    XDATA    BYTE      number
L251 LINKER/LOCATER V4.66.93.0                                                        03/29/2026  20:20:13  PAGE 104


      000113CCH   SYMBOL    XDATA    WORD      color
      000113CEH   SYMBOL    XDATA    INT       i
      000113D0H   SYMBOL    XDATA    INT       j
      000113D2H   SYMBOL    XDATA    INT       k
      000113D4H   SYMBOL    XDATA    BYTE      temp
      000113D5H   SYMBOL    XDATA    BYTE      temp1
      000113D6H   SYMBOL    XDATA    BYTE      temp2
      000113D7H   SYMBOL    XDATA    ---       p_data

      00FF5E22H   BLOCK     CODE     ---       LVL=0
      00FF5E22H   LINE      CODE     ---       #585
      00FF5E22H   LINE      CODE     ---       #590
      00FF5E33H   LINE      CODE     ---       #591
      00FF5E44H   LINE      CODE     ---       #592
      00FF5E7DH   LINE      CODE     ---       #600
      00FF5E86H   LINE      CODE     ---       #601
      00FF5E95H   LINE      CODE     ---       #603
      00FF5E98H   LINE      CODE     ---       #604
      00FF5E9FH   LINE      CODE     ---       #606
      00FF5EA2H   LINE      CODE     ---       #607
      00FF5EA9H   LINE      CODE     ---       #609
      00FF5EAEH   LINE      CODE     ---       #610
      00FF5EB5H   LINE      CODE     ---       #611
      00FF5ECBH   LINE      CODE     ---       #612
      00FF5EE4H   LINE      CODE     ---       #613
      00FF5EFDH   LINE      CODE     ---       #614
      00FF5F06H   LINE      CODE     ---       #616
      00FF5F0BH   LINE      CODE     ---       #617
      00FF5F14H   LINE      CODE     ---       #619
      00FF5F19H   LINE      CODE     ---       #620
      00FF5F22H   LINE      CODE     ---       #621
      00FF5F2BH   LINE      CODE     ---       #622
      00FF5F33H   LINE      CODE     ---       #623
      00FF5F3CH   LINE      CODE     ---       #624
      00FF5F45H   LINE      CODE     ---       #626
      00FF5F4AH   LINE      CODE     ---       #627
      00FF5F53H   LINE      CODE     ---       #629
      00FF5F58H   LINE      CODE     ---       #630
      00FF5F61H   LINE      CODE     ---       #632
      00FF5F66H   LINE      CODE     ---       #633
      00FF5F6FH   LINE      CODE     ---       #635
      00FF5F74H   LINE      CODE     ---       #636
      00FF5F7DH   LINE      CODE     ---       #638
      00FF5F82H   LINE      CODE     ---       #639
      00FF5F8BH   LINE      CODE     ---       #641
      00FF5F90H   LINE      CODE     ---       #642
      00FF5F99H   LINE      CODE     ---       #644
      00FF5F9EH   LINE      CODE     ---       #645
      00FF5FA7H   LINE      CODE     ---       #647
      00FF5FACH   LINE      CODE     ---       #648
      00FF5FB5H   LINE      CODE     ---       #649
      00FF5FBEH   LINE      CODE     ---       #651
      00FF5FC3H   LINE      CODE     ---       #652
      00FF5FCCH   LINE      CODE     ---       #653
      00FF5FD5H   LINE      CODE     ---       #654
      00FF5FDEH   LINE      CODE     ---       #655
      00FF5FE7H   LINE      CODE     ---       #656
      00FF5FF0H   LINE      CODE     ---       #657
      00FF5FF9H   LINE      CODE     ---       #658
      00FF6002H   LINE      CODE     ---       #659
      00FF600BH   LINE      CODE     ---       #660
      00FF6014H   LINE      CODE     ---       #661
      00FF601DH   LINE      CODE     ---       #662
      00FF6026H   LINE      CODE     ---       #663
      00FF602FH   LINE      CODE     ---       #664
L251 LINKER/LOCATER V4.66.93.0                                                        03/29/2026  20:20:13  PAGE 105


      00FF6038H   LINE      CODE     ---       #665
      00FF6041H   LINE      CODE     ---       #667
      00FF6046H   LINE      CODE     ---       #668
      00FF604FH   LINE      CODE     ---       #669
      00FF6058H   LINE      CODE     ---       #670
      00FF6061H   LINE      CODE     ---       #671
      00FF606AH   LINE      CODE     ---       #672
      00FF6073H   LINE      CODE     ---       #673
      00FF607CH   LINE      CODE     ---       #674
      00FF6085H   LINE      CODE     ---       #675
      00FF608EH   LINE      CODE     ---       #676
      00FF6097H   LINE      CODE     ---       #677
      00FF60A0H   LINE      CODE     ---       #678
      00FF60A9H   LINE      CODE     ---       #679
      00FF60B2H   LINE      CODE     ---       #680
      00FF60BBH   LINE      CODE     ---       #681
      00FF60C4H   LINE      CODE     ---       #683
      00FF60C9H   LINE      CODE     ---       #685
      00FF60CEH   LINE      CODE     ---       #686
      00FF60D5H   LINE      CODE     ---       #688
      00FF60DAH   LINE      CODE     ---       #690
      00FF60E3H   LINE      CODE     ---       #691
      ---         BLOCKEND  ---      ---       LVL=0

      ---         MODULE    ---      ---       zf_device_ips200
      00011AF9H   PUBLIC    XDATA    WORD      ips200_pencolor
      00011AFBH   PUBLIC    XDATA    WORD      ips200_bgcolor
      00011AFDH   PUBLIC    XDATA    INT       ips200_display_dir
      00011AFFH   PUBLIC    XDATA    WORD      ips200_x_max
      00011B01H   PUBLIC    XDATA    WORD      ips200_y_max
      00010FE3H   PUBLIC    XDATA    BYTE      ?ips200_show_float?BYTE
      0001122CH   PUBLIC    XDATA    BYTE      ?ips200_show_wave?BYTE
      000113DBH   PUBLIC    XDATA    BYTE      ?ips200_show_chinese?BYTE
      000000D0H   SFRSYM    DATA     BYTE      PSW
      0000009DH   SFRSYM    DATA     BYTE      IRCBAND
      00000097H   SFRSYM    DATA     BYTE      AUXR2
      000000EFH   SFRSYM    DATA     BYTE      AUXINTIF
      000000FDH   SFRSYM    DATA     BYTE      S4CON
      000000ACH   SFRSYM    DATA     BYTE      S3CON
      0000009AH   SFRSYM    DATA     BYTE      S2CON
      000000B7H   SFRSYM    DATA     BYTE      IPH
      000000CDH   SFRSYM    DATA     BYTE      SPSTAT
      000000DDH   SFRSYM    DATA     BYTE      T4T3M
      000000C1H   SFRSYM    DATA     BYTE      WDT_CONTR
      000000DFH   SFRSYM    DATA     BYTE      IP3
      000000F4H   SFRSYM    DATA     BYTE      USBCON
      000000B5H   SFRSYM    DATA     BYTE      IP2
      000000FFH   SFRSYM    DATA     BYTE      RSTCFG
      000000C7H   SFRSYM    DATA     BYTE      IAP_CONTR
      000000F9H   SFRSYM    DATA     BYTE      LINICR
      0000008EH   SFRSYM    DATA     BYTE      AUXR
      000000AFH   SFRSYM    DATA     BYTE      IE2
      00000088H   SFRSYM    DATA     BYTE      TCON
      00000089H   SFRSYM    DATA     BYTE      TMOD
      00000098H   SFRSYM    DATA     BYTE      SCON
      000000A0H.2 SFRSYM    DATA     BIT       P22
      000000A0H.1 SFRSYM    DATA     BIT       P21
      000000A0H.0 SFRSYM    DATA     BIT       P20
      000000F1H   SFRSYM    DATA     BYTE      CANICR
      00000087H   SFRSYM    DATA     BYTE      PCON
      000000BCH   SFRSYM    DATA     BYTE      ADC_CONTR
      000000E7H   SFRSYM    DATA     BYTE      CMPCR2
      000000E6H   SFRSYM    DATA     BYTE      CMPCR1
      000000DEH   SFRSYM    DATA     BYTE      ADCCFG
      000000B8H   SFRSYM    DATA     BYTE      IP
L251 LINKER/LOCATER V4.66.93.0                                                        03/29/2026  20:20:13  PAGE 106


      0000008FH   SFRSYM    DATA     BYTE      INTCLKO
      000000EEH   SFRSYM    DATA     BYTE      IP3H
      000000B6H   SFRSYM    DATA     BYTE      IP2H
      000000A8H   SFRSYM    DATA     BYTE      IE
      000000BBH   SFRSYM    DATA     BYTE      P_SW3
      000000BAH   SFRSYM    DATA     BYTE      P_SW2
      000000A2H   SFRSYM    DATA     BYTE      P_SW1
      000000CEH   SFRSYM    DATA     BYTE      SPCTL
      000000F8H   SFRSYM    DATA     BYTE      P7
      000000E8H   SFRSYM    DATA     BYTE      P6
      000000C8H   SFRSYM    DATA     BYTE      P5
      000000C0H   SFRSYM    DATA     BYTE      P4
      000000B0H   SFRSYM    DATA     BYTE      P3
      000000A0H   SFRSYM    DATA     BYTE      P2
      00000090H   SFRSYM    DATA     BYTE      P1
      00000080H   SFRSYM    DATA     BYTE      P0
      00011F85H   SYMBOL    XDATA    BYTE      dat
      00011CB5H   SYMBOL    XDATA    WORD      x1
      00011CB7H   SYMBOL    XDATA    WORD      y1
      00011CB9H   SYMBOL    XDATA    WORD      x2
      00011CBBH   SYMBOL    XDATA    WORD      y2
      00011DEDH   SYMBOL    XDATA    WORD      color
      00011DEFH   SYMBOL    XDATA    WORD      i
      00011DF1H   SYMBOL    XDATA    WORD      j
      00011F6AH   SYMBOL    XDATA    INT       dir
      00011EE3H   SYMBOL    XDATA    WORD      pen
      00011EE5H   SYMBOL    XDATA    WORD      bgcolor
      00011DF3H   SYMBOL    XDATA    WORD      x
      00011DF5H   SYMBOL    XDATA    WORD      y
      00011DF7H   SYMBOL    XDATA    WORD      color
      00011CBDH   SYMBOL    XDATA    WORD      x
      00011CBFH   SYMBOL    XDATA    WORD      y
      00011CC1H   SYMBOL    XDATA    CHAR      dat
      00011CC2H   SYMBOL    XDATA    BYTE      i
      00011CC3H   SYMBOL    XDATA    BYTE      j
      00011CC4H   SYMBOL    XDATA    BYTE      temp
      00011B03H   SYMBOL    XDATA    WORD      x
      00011B05H   SYMBOL    XDATA    WORD      y
      00011B07H   SYMBOL    XDATA    ---       dat
      00011B0BH   SYMBOL    XDATA    WORD      j
      00011B96H   SYMBOL    XDATA    WORD      x
      00011B98H   SYMBOL    XDATA    WORD      y
      00011B9AH   SYMBOL    XDATA    CHAR      dat
      00011B9BH   SYMBOL    XDATA    ---       a
      00011B9EH   SYMBOL    XDATA    BYTE      i
      00011B9FH   SYMBOL    XDATA    WORD      x
      00011BA1H   SYMBOL    XDATA    WORD      y
      00011BA3H   SYMBOL    XDATA    BYTE      dat
      00011BA4H   SYMBOL    XDATA    ---       a
      00011BA7H   SYMBOL    XDATA    BYTE      i
      000119C3H   SYMBOL    XDATA    WORD      x
      000119C5H   SYMBOL    XDATA    WORD      y
      000119C7H   SYMBOL    XDATA    INT       dat
      000119C9H   SYMBOL    XDATA    ---       a
      000119CEH   SYMBOL    XDATA    BYTE      i
      000119CFH   SYMBOL    XDATA    WORD      x
      000119D1H   SYMBOL    XDATA    WORD      y
      000119D3H   SYMBOL    XDATA    WORD      dat
      000119D5H   SYMBOL    XDATA    ---       a
      000119DAH   SYMBOL    XDATA    BYTE      i
      0001109EH   SYMBOL    XDATA    WORD      x
      000110A0H   SYMBOL    XDATA    WORD      y
      000110A2H   SYMBOL    XDATA    LONG      dat
      000110A6H   SYMBOL    XDATA    BYTE      num
      000110A7H   SYMBOL    XDATA    ---       buff
L251 LINKER/LOCATER V4.66.93.0                                                        03/29/2026  20:20:13  PAGE 107


      000110C9H   SYMBOL    XDATA    BYTE      length
      00010FE3H   SYMBOL    XDATA    WORD      x
      00010FE5H   SYMBOL    XDATA    WORD      y
      00010FE7H   SYMBOL    XDATA    FLOAT     dat
      00010FEBH   SYMBOL    XDATA    BYTE      num
      00010FECH   SYMBOL    XDATA    BYTE      pointnum
      00010FEDH   SYMBOL    XDATA    BYTE      length
      00010FEEH   SYMBOL    XDATA    ---       buff
      00011010H   SYMBOL    XDATA    CHAR      start
      00011011H   SYMBOL    XDATA    CHAR      end
      00011012H   SYMBOL    XDATA    CHAR      point
      0001122CH   SYMBOL    XDATA    WORD      x
      0001122EH   SYMBOL    XDATA    WORD      y
      00011230H   SYMBOL    XDATA    ---       p
      00011234H   SYMBOL    XDATA    WORD      width
      00011236H   SYMBOL    XDATA    WORD      value_max
      00011238H   SYMBOL    XDATA    WORD      dis_width
      0001123AH   SYMBOL    XDATA    WORD      dis_value_max
      0001123CH   SYMBOL    XDATA    DWORD     i
      00011240H   SYMBOL    XDATA    DWORD     j
      00011244H   SYMBOL    XDATA    DWORD     width_index
      00011248H   SYMBOL    XDATA    DWORD     value_max_index
      000113DBH   SYMBOL    XDATA    WORD      x
      000113DDH   SYMBOL    XDATA    WORD      y
      000113DFH   SYMBOL    XDATA    BYTE      siz
      000113E0H   SYMBOL    XDATA    ---       p
      000113E4H   SYMBOL    XDATA    BYTE      number
      000113E5H   SYMBOL    XDATA    WORD      color
      000113E7H   SYMBOL    XDATA    INT       i
      000113E9H   SYMBOL    XDATA    INT       j
      000113EBH   SYMBOL    XDATA    INT       k
      000113EDH   SYMBOL    XDATA    BYTE      temp
      000113EEH   SYMBOL    XDATA    BYTE      temp1
      000113EFH   SYMBOL    XDATA    BYTE      temp2
      000113F0H   SYMBOL    XDATA    ---       p_data

      ---         MODULE    ---      ---       zf_device_ips200pro
      00010DD6H   PUBLIC    XDATA    ---       ips200pro_information
      00010DDFH   PUBLIC    XDATA    ---       ips200pro_time
      000117CDH   PUBLIC    XDATA    BYTE      ?ips200pro_send_buffer?BYTE
      0001187AH   PUBLIC    XDATA    BYTE      ?ips200pro_receive_buffer?BYTE
      0001128BH   PUBLIC    XDATA    BYTE      ?ips200pro_write_packet?BYTE
      0001135AH   PUBLIC    XDATA    BYTE      ?ips200pro_create_widgets?BYTE
      00010F34H   PUBLIC    XDATA    BYTE      ?ips200pro_label_printf?BYTE
      00010EAEH   PUBLIC    XDATA    BYTE      ?ips200pro_table_cell_printf?BYTE
      00011375H   PUBLIC    XDATA    BYTE      ?ips200pro_waveform_add_value?BYTE
      00011175H   PUBLIC    XDATA    BYTE      ?ips200pro_image_display?BYTE
      0001138FH   PUBLIC    XDATA    BYTE      ?ips200pro_image_draw_line?BYTE
      000111EAH   PUBLIC    XDATA    BYTE      ?ips200pro_image_draw_rectangle?BYTE
      000000D0H   SFRSYM    DATA     BYTE      PSW
      0000009DH   SFRSYM    DATA     BYTE      IRCBAND
      00000097H   SFRSYM    DATA     BYTE      AUXR2
      000000EFH   SFRSYM    DATA     BYTE      AUXINTIF
      000000FDH   SFRSYM    DATA     BYTE      S4CON
      000000ACH   SFRSYM    DATA     BYTE      S3CON
      0000009AH   SFRSYM    DATA     BYTE      S2CON
      000000B7H   SFRSYM    DATA     BYTE      IPH
      000000CDH   SFRSYM    DATA     BYTE      SPSTAT
      000000DDH   SFRSYM    DATA     BYTE      T4T3M
      000000C1H   SFRSYM    DATA     BYTE      WDT_CONTR
      000000DFH   SFRSYM    DATA     BYTE      IP3
      000000F4H   SFRSYM    DATA     BYTE      USBCON
      000000B5H   SFRSYM    DATA     BYTE      IP2
      000000FFH   SFRSYM    DATA     BYTE      RSTCFG
      000000C7H   SFRSYM    DATA     BYTE      IAP_CONTR
L251 LINKER/LOCATER V4.66.93.0                                                        03/29/2026  20:20:13  PAGE 108


      000000F9H   SFRSYM    DATA     BYTE      LINICR
      0000008EH   SFRSYM    DATA     BYTE      AUXR
      000000AFH   SFRSYM    DATA     BYTE      IE2
      00000088H   SFRSYM    DATA     BYTE      TCON
      00000089H   SFRSYM    DATA     BYTE      TMOD
      00000098H   SFRSYM    DATA     BYTE      SCON
      000000A0H.2 SFRSYM    DATA     BIT       P22
      000000A0H.1 SFRSYM    DATA     BIT       P21
      000000F1H   SFRSYM    DATA     BYTE      CANICR
      00000087H   SFRSYM    DATA     BYTE      PCON
      000000BCH   SFRSYM    DATA     BYTE      ADC_CONTR
      000000E7H   SFRSYM    DATA     BYTE      CMPCR2
      000000E6H   SFRSYM    DATA     BYTE      CMPCR1
      000000DEH   SFRSYM    DATA     BYTE      ADCCFG
      000000B8H   SFRSYM    DATA     BYTE      IP
      0000008FH   SFRSYM    DATA     BYTE      INTCLKO
      000000EEH   SFRSYM    DATA     BYTE      IP3H
      000000B6H   SFRSYM    DATA     BYTE      IP2H
      000000A8H   SFRSYM    DATA     BYTE      IE
      000000BBH   SFRSYM    DATA     BYTE      P_SW3
      000000BAH   SFRSYM    DATA     BYTE      P_SW2
      000000A2H   SFRSYM    DATA     BYTE      P_SW1
      000000CEH   SFRSYM    DATA     BYTE      SPCTL
      000000F8H   SFRSYM    DATA     BYTE      P7
      000000E8H   SFRSYM    DATA     BYTE      P6
      000000C8H   SFRSYM    DATA     BYTE      P5
      000000C0H   SFRSYM    DATA     BYTE      P4
      000000B0H   SFRSYM    DATA     BYTE      P3
      000000A0H   SFRSYM    DATA     BYTE      P2
      00000090H   SFRSYM    DATA     BYTE      P1
      00000080H   SFRSYM    DATA     BYTE      P0
      00010DA3H   SYMBOL    XDATA    ---       ips200pro_printf_buffer
      00010DE7H   SYMBOL    XDATA    BYTE      ips200pro_page_num
      00011EE7H   SYMBOL    XDATA    DWORD     wait_time
      000117CDH   SYMBOL    XDATA    ---       buffer
      000117D1H   SYMBOL    XDATA    DWORD     length
      000117D5H   SYMBOL    XDATA    DWORD     time_out
      000117D9H   SYMBOL    XDATA    BYTE      end_flag
      000117DAH   SYMBOL    XDATA    BYTE      return_state
      0001187AH   SYMBOL    XDATA    ---       buffer
      0001187EH   SYMBOL    XDATA    DWORD     length
      00011882H   SYMBOL    XDATA    DWORD     time_out
      00011886H   SYMBOL    XDATA    BYTE      return_state
      0001128BH   SYMBOL    XDATA    INT       command1
      0001128DH   SYMBOL    XDATA    INT       command2
      0001128FH   SYMBOL    XDATA    BYTE      widgets_id
      00011290H   SYMBOL    XDATA    ---       temp
      00011294H   SYMBOL    XDATA    DWORD     length
      00011298H   SYMBOL    XDATA    ---       buffer
      0001129CH   SYMBOL    XDATA    DWORD     buffer_length
      000112A0H   SYMBOL    XDATA    BYTE      return_state
      000112A1H   SYMBOL    XDATA    ---       p
      000112A5H   SYMBOL    XDATA    BYTE      tmp
      000112A6H   SYMBOL    XDATA    WORD      i
      000112A8H   SYMBOL    XDATA    WORD      struct_len
      00011CC5H   SYMBOL    XDATA    INT       command2
      00011CC7H   SYMBOL    XDATA    ---       temp
      00011CCBH   SYMBOL    XDATA    BYTE      length
      00011CCCH   SYMBOL    XDATA    BYTE      return_state
      00011611H   SYMBOL    XDATA    WORD      year
      00011613H   SYMBOL    XDATA    BYTE      month
      00011614H   SYMBOL    XDATA    BYTE      day
      00011615H   SYMBOL    XDATA    BYTE      return_state
      00011616H   SYMBOL    XDATA    ---       temp
      000116A8H   SYMBOL    XDATA    BYTE      hour
L251 LINKER/LOCATER V4.66.93.0                                                        03/29/2026  20:20:13  PAGE 109


      000116A9H   SYMBOL    XDATA    BYTE      minute
      000116AAH   SYMBOL    XDATA    BYTE      second
      000116ABH   SYMBOL    XDATA    BYTE      return_state
      000116ACH   SYMBOL    XDATA    ---       temp
      00011622H   SYMBOL    XDATA    WORD      child_id
      00011624H   SYMBOL    XDATA    WORD      parent_id
      00011626H   SYMBOL    XDATA    BYTE      return_state
      00011627H   SYMBOL    XDATA    ---       temp
      00011887H   SYMBOL    XDATA    INT       format
      00011889H   SYMBOL    XDATA    BYTE      return_state
      0001188AH   SYMBOL    XDATA    ---       temp
      000119DBH   SYMBOL    XDATA    BYTE      backlight
      000119DCH   SYMBOL    XDATA    BYTE      return_state
      000119DDH   SYMBOL    XDATA    ---       temp
      00011894H   SYMBOL    XDATA    INT       dir
      00011896H   SYMBOL    XDATA    BYTE      return_state
      00011897H   SYMBOL    XDATA    ---       temp
      000119E7H   SYMBOL    XDATA    BYTE      crc_state
      000119E8H   SYMBOL    XDATA    BYTE      return_state
      000119E9H   SYMBOL    XDATA    ---       temp
      000118A1H   SYMBOL    XDATA    INT       font
      000118A3H   SYMBOL    XDATA    BYTE      return_state
      000118A4H   SYMBOL    XDATA    ---       temp
      000119F3H   SYMBOL    XDATA    BYTE      state
      000119F4H   SYMBOL    XDATA    BYTE      return_state
      000119F5H   SYMBOL    XDATA    ---       temp
      00011633H   SYMBOL    XDATA    ---       time
      00011637H   SYMBOL    XDATA    BYTE      return_state
      00011638H   SYMBOL    XDATA    ---       temp
      00011644H   SYMBOL    XDATA    ---       time
      00011648H   SYMBOL    XDATA    BYTE      return_state
      00011649H   SYMBOL    XDATA    ---       temp
      00011482H   SYMBOL    XDATA    ---       information
      00011486H   SYMBOL    XDATA    BYTE      return_state
      00011487H   SYMBOL    XDATA    ---       temp
      00011655H   SYMBOL    XDATA    ---       stack_size
      00011659H   SYMBOL    XDATA    BYTE      return_state
      0001165AH   SYMBOL    XDATA    ---       temp
      0001135AH   SYMBOL    XDATA    WORD      widgets_id
      0001135CH   SYMBOL    XDATA    INT       x
      0001135EH   SYMBOL    XDATA    INT       y
      00011360H   SYMBOL    XDATA    WORD      width
      00011362H   SYMBOL    XDATA    WORD      height
      00011364H   SYMBOL    XDATA    BYTE      return_state
      00011365H   SYMBOL    XDATA    ---       temp
      00011A89H   SYMBOL    XDATA    WORD      widgets_id
      00011A8BH   SYMBOL    XDATA    BYTE      return_state
      00011A8CH   SYMBOL    XDATA    ---       temp
      000116D8H   SYMBOL    XDATA    WORD      widgets_id
      000116DAH   SYMBOL    XDATA    INT       font_size
      000116DCH   SYMBOL    XDATA    BYTE      return_state
      000116DDH   SYMBOL    XDATA    ---       temp
      0001154AH   SYMBOL    XDATA    WORD      widgets_id
      0001154CH   SYMBOL    XDATA    INT       color_type
      0001154EH   SYMBOL    XDATA    WORD      color
      00011550H   SYMBOL    XDATA    BYTE      return_state
      00011551H   SYMBOL    XDATA    ---       temp
      0001155DH   SYMBOL    XDATA    WORD      widgets_id
      0001155FH   SYMBOL    XDATA    INT       x
      00011561H   SYMBOL    XDATA    INT       y
      00011563H   SYMBOL    XDATA    BYTE      return_state
      00011564H   SYMBOL    XDATA    ---       temp
      000117DBH   SYMBOL    XDATA    WORD      widgets_id
      000117DDH   SYMBOL    XDATA    BYTE      state
      000117DEH   SYMBOL    XDATA    BYTE      return_state
L251 LINKER/LOCATER V4.66.93.0                                                        03/29/2026  20:20:13  PAGE 110


      000117DFH   SYMBOL    XDATA    ---       temp
      00011E6AH   SYMBOL    XDATA    ---       str
      00011E6EH   SYMBOL    XDATA    BYTE      return_state
      000116E7H   SYMBOL    XDATA    WORD      page_id
      000116E9H   SYMBOL    XDATA    INT       anim_en
      000116EBH   SYMBOL    XDATA    BYTE      return_state
      000116ECH   SYMBOL    XDATA    ---       temp
      00011EEBH   SYMBOL    XDATA    WORD      page_id
      00011EEDH   SYMBOL    XDATA    BYTE      state
      00011EEEH   SYMBOL    XDATA    BYTE      return_state
      000116F6H   SYMBOL    XDATA    WORD      page_id
      000116F8H   SYMBOL    XDATA    ---       str
      000116FCH   SYMBOL    XDATA    BYTE      return_state
      000116FDH   SYMBOL    XDATA    ---       temp
      000116B8H   SYMBOL    XDATA    INT       title_position
      000116BAH   SYMBOL    XDATA    BYTE      title_width
      000116BBH   SYMBOL    XDATA    BYTE      return_state
      000116BCH   SYMBOL    XDATA    ---       temp
      00011BA8H   SYMBOL    XDATA    INT       x
      00011BAAH   SYMBOL    XDATA    INT       y
      00011BACH   SYMBOL    XDATA    WORD      width
      00011BAEH   SYMBOL    XDATA    WORD      height
      00011BB0H   SYMBOL    XDATA    BYTE      return_state
      00010DE8H   SYMBOL    XDATA    BYTE      lebel_num
      00010F34H   SYMBOL    XDATA    WORD      label_id
      00010F36H   SYMBOL    XDATA    ---       format
      00010F3AH   SYMBOL    XDATA    LONG      str_length
      00010F3EH   SYMBOL    XDATA    BYTE      return_state
      00010F3FH   SYMBOL    XDATA    ---       temp
      00010F47H   SYMBOL    XDATA    ---       arg
      00011705H   SYMBOL    XDATA    WORD      label_id
      00011707H   SYMBOL    XDATA    ---       str
      0001170BH   SYMBOL    XDATA    BYTE      return_state
      0001170CH   SYMBOL    XDATA    ---       temp
      00011714H   SYMBOL    XDATA    WORD      label_id
      00011716H   SYMBOL    XDATA    INT       mode
      00011718H   SYMBOL    XDATA    BYTE      return_state
      00011719H   SYMBOL    XDATA    ---       temp
      00011BB1H   SYMBOL    XDATA    INT       x
      00011BB3H   SYMBOL    XDATA    INT       y
      00011BB5H   SYMBOL    XDATA    WORD      row_num
      00011BB7H   SYMBOL    XDATA    WORD      col_num
      00011BB9H   SYMBOL    XDATA    BYTE      return_state
      00010DE9H   SYMBOL    XDATA    BYTE      table_num
      00010EAEH   SYMBOL    XDATA    WORD      table_id
      00010EB0H   SYMBOL    XDATA    BYTE      row
      00010EB1H   SYMBOL    XDATA    BYTE      col
      00010EB2H   SYMBOL    XDATA    ---       format
      00010EB6H   SYMBOL    XDATA    LONG      str_length
      00010EBAH   SYMBOL    XDATA    BYTE      return_state
      00010EBBH   SYMBOL    XDATA    ---       arg
      00010EBFH   SYMBOL    XDATA    ---       temp
      000115BAH   SYMBOL    XDATA    WORD      table_id
      000115BCH   SYMBOL    XDATA    BYTE      col
      000115BDH   SYMBOL    XDATA    WORD      width
      000115BFH   SYMBOL    XDATA    BYTE      return_state
      000115C0H   SYMBOL    XDATA    ---       temp
      00011666H   SYMBOL    XDATA    WORD      table_id
      00011668H   SYMBOL    XDATA    BYTE      row
      00011669H   SYMBOL    XDATA    BYTE      col
      0001166AH   SYMBOL    XDATA    BYTE      return_state
      0001166BH   SYMBOL    XDATA    ---       temp
      00011BBAH   SYMBOL    XDATA    INT       x
      00011BBCH   SYMBOL    XDATA    INT       y
      00011BBEH   SYMBOL    XDATA    WORD      siz
L251 LINKER/LOCATER V4.66.93.0                                                        03/29/2026  20:20:13  PAGE 111


      00011BC0H   SYMBOL    XDATA    INT       style
      00011BC2H   SYMBOL    XDATA    BYTE      return_state
      00010DEAH   SYMBOL    XDATA    BYTE      meter_num
      00011723H   SYMBOL    XDATA    WORD      meter_id
      00011725H   SYMBOL    XDATA    INT       value
      00011727H   SYMBOL    XDATA    BYTE      return_state
      00011728H   SYMBOL    XDATA    ---       temp
      00011BC3H   SYMBOL    XDATA    INT       x
      00011BC5H   SYMBOL    XDATA    INT       y
      00011BC7H   SYMBOL    XDATA    WORD      clock_size
      00011BC9H   SYMBOL    XDATA    INT       clock_type
      00011BCBH   SYMBOL    XDATA    BYTE      return_state
      00010DEBH   SYMBOL    XDATA    BYTE      clock_num
      00011BCCH   SYMBOL    XDATA    INT       x
      00011BCEH   SYMBOL    XDATA    INT       y
      00011BD0H   SYMBOL    XDATA    WORD      width
      00011BD2H   SYMBOL    XDATA    WORD      height
      00011BD4H   SYMBOL    XDATA    BYTE      return_state
      00010DECH   SYMBOL    XDATA    BYTE      progress_bar_num
      00011677H   SYMBOL    XDATA    WORD      progress_bar_id
      00011679H   SYMBOL    XDATA    BYTE      start_value
      0001167AH   SYMBOL    XDATA    BYTE      end_value
      0001167BH   SYMBOL    XDATA    BYTE      return_state
      0001167CH   SYMBOL    XDATA    ---       temp
      00011BD5H   SYMBOL    XDATA    INT       x
      00011BD7H   SYMBOL    XDATA    INT       y
      00011BD9H   SYMBOL    XDATA    WORD      width
      00011BDBH   SYMBOL    XDATA    WORD      height
      00011BDDH   SYMBOL    XDATA    BYTE      return_state
      000115CCH   SYMBOL    XDATA    WORD      year
      000115CEH   SYMBOL    XDATA    BYTE      month
      000115CFH   SYMBOL    XDATA    INT       mode
      000115D1H   SYMBOL    XDATA    BYTE      return_state
      000115D2H   SYMBOL    XDATA    ---       temp
      00011BDEH   SYMBOL    XDATA    INT       x
      00011BE0H   SYMBOL    XDATA    INT       y
      00011BE2H   SYMBOL    XDATA    WORD      width
      00011BE4H   SYMBOL    XDATA    WORD      height
      00011BE6H   SYMBOL    XDATA    BYTE      return_state
      00010DEDH   SYMBOL    XDATA    BYTE      waveform_num
      00011375H   SYMBOL    XDATA    WORD      waveform_id
      00011377H   SYMBOL    XDATA    BYTE      line_id
      00011378H   SYMBOL    XDATA    ---       dat
      0001137CH   SYMBOL    XDATA    WORD      length
      0001137EH   SYMBOL    XDATA    WORD      color
      00011380H   SYMBOL    XDATA    BYTE      return_state
      00011381H   SYMBOL    XDATA    WORD      i
      00011383H   SYMBOL    XDATA    ---       temp
      00011570H   SYMBOL    XDATA    WORD      waveform_id
      00011572H   SYMBOL    XDATA    WORD      line_id
      00011574H   SYMBOL    XDATA    WORD      line_state
      00011576H   SYMBOL    XDATA    BYTE      return_state
      00011577H   SYMBOL    XDATA    ---       temp
      000117E9H   SYMBOL    XDATA    WORD      waveform_id
      000117EBH   SYMBOL    XDATA    BYTE      line_type
      000117ECH   SYMBOL    XDATA    BYTE      return_state
      000117EDH   SYMBOL    XDATA    ---       temp
      00011A94H   SYMBOL    XDATA    WORD      waveform_id
      00011A96H   SYMBOL    XDATA    BYTE      return_state
      00011A97H   SYMBOL    XDATA    ---       temp
      00011BE7H   SYMBOL    XDATA    INT       x
      00011BE9H   SYMBOL    XDATA    INT       y
      00011BEBH   SYMBOL    XDATA    WORD      width
      00011BEDH   SYMBOL    XDATA    WORD      height
      00011BEFH   SYMBOL    XDATA    BYTE      return_state
L251 LINKER/LOCATER V4.66.93.0                                                        03/29/2026  20:20:13  PAGE 112


      00010DEEH   SYMBOL    XDATA    BYTE      image_num
      00011175H   SYMBOL    XDATA    WORD      image_id
      00011177H   SYMBOL    XDATA    ---       image
      0001117BH   SYMBOL    XDATA    WORD      width
      0001117DH   SYMBOL    XDATA    WORD      height
      0001117FH   SYMBOL    XDATA    INT       image_type
      00011181H   SYMBOL    XDATA    BYTE      threshold
      00011182H   SYMBOL    XDATA    BYTE      return_state
      00011183H   SYMBOL    XDATA    WORD      send_length
      00011185H   SYMBOL    XDATA    DWORD     image_size
      00011189H   SYMBOL    XDATA    ---       image_data
      0001118DH   SYMBOL    XDATA    ---       temp
      0001138FH   SYMBOL    XDATA    WORD      image_id
      00011391H   SYMBOL    XDATA    BYTE      line_id
      00011392H   SYMBOL    XDATA    ---       line_data
      00011396H   SYMBOL    XDATA    WORD      line_length
      00011398H   SYMBOL    XDATA    INT       data_type
      0001139AH   SYMBOL    XDATA    WORD      color
      0001139CH   SYMBOL    XDATA    BYTE      return_state
      0001139DH   SYMBOL    XDATA    ---       temp
      000111EAH   SYMBOL    XDATA    WORD      image_id
      000111ECH   SYMBOL    XDATA    BYTE      rectangle_id
      000111EDH   SYMBOL    XDATA    INT       x
      000111EFH   SYMBOL    XDATA    INT       y
      000111F1H   SYMBOL    XDATA    WORD      rectangle_width
      000111F3H   SYMBOL    XDATA    WORD      rectangle_height
      000111F5H   SYMBOL    XDATA    WORD      color
      000111F7H   SYMBOL    XDATA    BYTE      return_state
      000111F8H   SYMBOL    XDATA    ---       temp
      00011BF0H   SYMBOL    XDATA    INT       x
      00011BF2H   SYMBOL    XDATA    INT       y
      00011BF4H   SYMBOL    XDATA    WORD      width
      00011BF6H   SYMBOL    XDATA    WORD      height
      00011BF8H   SYMBOL    XDATA    BYTE      return_state
      00010DEFH   SYMBOL    XDATA    BYTE      container_num
      00011583H   SYMBOL    XDATA    WORD      container_id
      00011585H   SYMBOL    XDATA    WORD      border_width
      00011587H   SYMBOL    XDATA    WORD      radius
      00011589H   SYMBOL    XDATA    BYTE      return_state
      0001158AH   SYMBOL    XDATA    ---       temp
      00011BF9H   SYMBOL    XDATA    ---       str
      00011BFDH   SYMBOL    XDATA    INT       title_position
      00011BFFH   SYMBOL    XDATA    BYTE      title_size
      00011C00H   SYMBOL    XDATA    WORD      page_id

      ---         MODULE    ---      ---       zf_device_tft180
      00011CCDH   PUBLIC    XDATA    WORD      tft180_pencolor
      00011CCFH   PUBLIC    XDATA    WORD      tft180_bgcolor
      00011CD1H   PUBLIC    XDATA    INT       tft180_display_dir
      00011CD3H   PUBLIC    XDATA    BYTE      tft180_x_max
      00011CD4H   PUBLIC    XDATA    BYTE      tft180_y_max
      00011013H   PUBLIC    XDATA    BYTE      ?tft180_show_float?BYTE
      0001124CH   PUBLIC    XDATA    BYTE      ?tft180_show_wave?BYTE
      000000D0H   SFRSYM    DATA     BYTE      PSW
      0000009DH   SFRSYM    DATA     BYTE      IRCBAND
      00000097H   SFRSYM    DATA     BYTE      AUXR2
      000000EFH   SFRSYM    DATA     BYTE      AUXINTIF
      000000FDH   SFRSYM    DATA     BYTE      S4CON
      000000ACH   SFRSYM    DATA     BYTE      S3CON
      0000009AH   SFRSYM    DATA     BYTE      S2CON
      000000B7H   SFRSYM    DATA     BYTE      IPH
      000000CDH   SFRSYM    DATA     BYTE      SPSTAT
      000000DDH   SFRSYM    DATA     BYTE      T4T3M
      000000C1H   SFRSYM    DATA     BYTE      WDT_CONTR
      000000DFH   SFRSYM    DATA     BYTE      IP3
L251 LINKER/LOCATER V4.66.93.0                                                        03/29/2026  20:20:13  PAGE 113


      000000F4H   SFRSYM    DATA     BYTE      USBCON
      000000B5H   SFRSYM    DATA     BYTE      IP2
      000000FFH   SFRSYM    DATA     BYTE      RSTCFG
      000000C7H   SFRSYM    DATA     BYTE      IAP_CONTR
      000000F9H   SFRSYM    DATA     BYTE      LINICR
      0000008EH   SFRSYM    DATA     BYTE      AUXR
      000000AFH   SFRSYM    DATA     BYTE      IE2
      00000088H   SFRSYM    DATA     BYTE      TCON
      00000089H   SFRSYM    DATA     BYTE      TMOD
      00000098H   SFRSYM    DATA     BYTE      SCON
      000000A0H.2 SFRSYM    DATA     BIT       P22
      000000A0H.1 SFRSYM    DATA     BIT       P21
      000000A0H.0 SFRSYM    DATA     BIT       P20
      000000F1H   SFRSYM    DATA     BYTE      CANICR
      00000087H   SFRSYM    DATA     BYTE      PCON
      000000BCH   SFRSYM    DATA     BYTE      ADC_CONTR
      000000E7H   SFRSYM    DATA     BYTE      CMPCR2
      000000E6H   SFRSYM    DATA     BYTE      CMPCR1
      000000DEH   SFRSYM    DATA     BYTE      ADCCFG
      000000B8H   SFRSYM    DATA     BYTE      IP
      0000008FH   SFRSYM    DATA     BYTE      INTCLKO
      000000EEH   SFRSYM    DATA     BYTE      IP3H
      000000B6H   SFRSYM    DATA     BYTE      IP2H
      000000A8H   SFRSYM    DATA     BYTE      IE
      000000BBH   SFRSYM    DATA     BYTE      P_SW3
      000000BAH   SFRSYM    DATA     BYTE      P_SW2
      000000A2H   SFRSYM    DATA     BYTE      P_SW1
      000000CEH   SFRSYM    DATA     BYTE      SPCTL
      000000F8H   SFRSYM    DATA     BYTE      P7
      000000E8H   SFRSYM    DATA     BYTE      P6
      000000C8H   SFRSYM    DATA     BYTE      P5
      000000C0H   SFRSYM    DATA     BYTE      P4
      000000B0H   SFRSYM    DATA     BYTE      P3
      000000A0H   SFRSYM    DATA     BYTE      P2
      00000090H   SFRSYM    DATA     BYTE      P1
      00000080H   SFRSYM    DATA     BYTE      P0
      00011F86H   SYMBOL    XDATA    BYTE      dat
      00011CD5H   SYMBOL    XDATA    WORD      x1
      00011CD7H   SYMBOL    XDATA    WORD      y1
      00011CD9H   SYMBOL    XDATA    WORD      x2
      00011CDBH   SYMBOL    XDATA    WORD      y2
      00011DF9H   SYMBOL    XDATA    WORD      color
      00011DFBH   SYMBOL    XDATA    DWORD     i
      00011F6CH   SYMBOL    XDATA    INT       dir
      00011EEFH   SYMBOL    XDATA    WORD      pen
      00011EF1H   SYMBOL    XDATA    WORD      bgcolor
      00011DFFH   SYMBOL    XDATA    WORD      x
      00011E01H   SYMBOL    XDATA    WORD      y
      00011E03H   SYMBOL    XDATA    WORD      color
      00011CDDH   SYMBOL    XDATA    WORD      x
      00011CDFH   SYMBOL    XDATA    WORD      y
      00011CE1H   SYMBOL    XDATA    CHAR      dat
      00011CE2H   SYMBOL    XDATA    BYTE      i
      00011CE3H   SYMBOL    XDATA    BYTE      j
      00011CE4H   SYMBOL    XDATA    BYTE      temp
      00011B0DH   SYMBOL    XDATA    WORD      x
      00011B0FH   SYMBOL    XDATA    WORD      y
      00011B11H   SYMBOL    XDATA    ---       dat
      00011B15H   SYMBOL    XDATA    WORD      j
      00011C02H   SYMBOL    XDATA    WORD      x
      00011C04H   SYMBOL    XDATA    WORD      y
      00011C06H   SYMBOL    XDATA    CHAR      dat
      00011C07H   SYMBOL    XDATA    ---       a
      00011C0AH   SYMBOL    XDATA    BYTE      i
      00011C0BH   SYMBOL    XDATA    WORD      x
L251 LINKER/LOCATER V4.66.93.0                                                        03/29/2026  20:20:13  PAGE 114


      00011C0DH   SYMBOL    XDATA    WORD      y
      00011C0FH   SYMBOL    XDATA    BYTE      dat
      00011C10H   SYMBOL    XDATA    ---       a
      00011C13H   SYMBOL    XDATA    BYTE      i
      000119FFH   SYMBOL    XDATA    WORD      x
      00011A01H   SYMBOL    XDATA    WORD      y
      00011A03H   SYMBOL    XDATA    INT       dat
      00011A05H   SYMBOL    XDATA    ---       a
      00011A0AH   SYMBOL    XDATA    BYTE      i
      00011A0BH   SYMBOL    XDATA    WORD      x
      00011A0DH   SYMBOL    XDATA    WORD      y
      00011A0FH   SYMBOL    XDATA    WORD      dat
      00011A11H   SYMBOL    XDATA    ---       a
      00011A16H   SYMBOL    XDATA    BYTE      i
      000110CAH   SYMBOL    XDATA    WORD      x
      000110CCH   SYMBOL    XDATA    WORD      y
      000110CEH   SYMBOL    XDATA    LONG      dat
      000110D2H   SYMBOL    XDATA    BYTE      num
      000110D3H   SYMBOL    XDATA    ---       buff
      000110F5H   SYMBOL    XDATA    BYTE      length
      00011013H   SYMBOL    XDATA    WORD      x
      00011015H   SYMBOL    XDATA    WORD      y
      00011017H   SYMBOL    XDATA    FLOAT     dat
      0001101BH   SYMBOL    XDATA    BYTE      num
      0001101CH   SYMBOL    XDATA    BYTE      pointnum
      0001101DH   SYMBOL    XDATA    BYTE      length
      0001101EH   SYMBOL    XDATA    ---       buff
      00011040H   SYMBOL    XDATA    CHAR      start
      00011041H   SYMBOL    XDATA    CHAR      end
      00011042H   SYMBOL    XDATA    CHAR      point
      0001124CH   SYMBOL    XDATA    WORD      x
      0001124EH   SYMBOL    XDATA    WORD      y
      00011250H   SYMBOL    XDATA    ---       p
      00011254H   SYMBOL    XDATA    WORD      width
      00011256H   SYMBOL    XDATA    WORD      value_max
      00011258H   SYMBOL    XDATA    WORD      dis_width
      0001125AH   SYMBOL    XDATA    WORD      dis_value_max
      0001125CH   SYMBOL    XDATA    DWORD     i
      00011260H   SYMBOL    XDATA    DWORD     j
      00011264H   SYMBOL    XDATA    DWORD     width_index
      00011268H   SYMBOL    XDATA    DWORD     value_max_index

      ---         MODULE    ---      ---       zf_device_tsl1401
      0001020AH   PUBLIC    XDATA    BYTE      tsl1401_finish_flag
      0001020BH   PUBLIC    XDATA    ---       tsl1401_data
      000000D0H   SFRSYM    DATA     BYTE      PSW
      0000009DH   SFRSYM    DATA     BYTE      IRCBAND
      00000097H   SFRSYM    DATA     BYTE      AUXR2
      000000EFH   SFRSYM    DATA     BYTE      AUXINTIF
      000000FDH   SFRSYM    DATA     BYTE      S4CON
      000000ACH   SFRSYM    DATA     BYTE      S3CON
      0000009AH   SFRSYM    DATA     BYTE      S2CON
      000000B7H   SFRSYM    DATA     BYTE      IPH
      000000CDH   SFRSYM    DATA     BYTE      SPSTAT
      000000DDH   SFRSYM    DATA     BYTE      T4T3M
      000000C1H   SFRSYM    DATA     BYTE      WDT_CONTR
      000000DFH   SFRSYM    DATA     BYTE      IP3
      000000F4H   SFRSYM    DATA     BYTE      USBCON
      000000B5H   SFRSYM    DATA     BYTE      IP2
      000000FFH   SFRSYM    DATA     BYTE      RSTCFG
      000000C7H   SFRSYM    DATA     BYTE      IAP_CONTR
      000000F9H   SFRSYM    DATA     BYTE      LINICR
      0000008EH   SFRSYM    DATA     BYTE      AUXR
      000000AFH   SFRSYM    DATA     BYTE      IE2
      00000088H   SFRSYM    DATA     BYTE      TCON
L251 LINKER/LOCATER V4.66.93.0                                                        03/29/2026  20:20:13  PAGE 115


      00000089H   SFRSYM    DATA     BYTE      TMOD
      00000098H   SFRSYM    DATA     BYTE      SCON
      000000F1H   SFRSYM    DATA     BYTE      CANICR
      00000087H   SFRSYM    DATA     BYTE      PCON
      000000BCH   SFRSYM    DATA     BYTE      ADC_CONTR
      000000E7H   SFRSYM    DATA     BYTE      CMPCR2
      000000E6H   SFRSYM    DATA     BYTE      CMPCR1
      000000DEH   SFRSYM    DATA     BYTE      ADCCFG
      000000B8H   SFRSYM    DATA     BYTE      IP
      0000008FH   SFRSYM    DATA     BYTE      INTCLKO
      000000EEH   SFRSYM    DATA     BYTE      IP3H
      000000B6H   SFRSYM    DATA     BYTE      IP2H
      000000A8H   SFRSYM    DATA     BYTE      IE
      000000BBH   SFRSYM    DATA     BYTE      P_SW3
      000000BAH   SFRSYM    DATA     BYTE      P_SW2
      000000A2H   SFRSYM    DATA     BYTE      P_SW1
      000000CEH   SFRSYM    DATA     BYTE      SPCTL
      000000F8H   SFRSYM    DATA     BYTE      P7
      000000E8H   SFRSYM    DATA     BYTE      P6
      000000C8H   SFRSYM    DATA     BYTE      P5
      000000C0H   SFRSYM    DATA     BYTE      P4
      000000B0H   SFRSYM    DATA     BYTE      P3
      000000A0H   SFRSYM    DATA     BYTE      P2
      00000090H   SFRSYM    DATA     BYTE      P1
      00000080H   SFRSYM    DATA     BYTE      P0
      0001040BH   SYMBOL    XDATA    BYTE      tsl1401_init_state
      00011F87H   SYMBOL    XDATA    BYTE      i
      00011EF3H   SYMBOL    XDATA    INT       uart_n
      00011EF5H   SYMBOL    XDATA    BYTE      index
      00011EF6H   SYMBOL    XDATA    BYTE      i

      ---         MODULE    ---      ---       zf_device_type
      00FF839AH   PUBLIC    CODE     ---       set_wireless_type
      00011CE5H   PUBLIC    XDATA    ---       tof_module_exti_handler
      00011CE7H   PUBLIC    XDATA    INT       wireless_type
      00011CE9H   PUBLIC    XDATA    INT       tof_type
      00011CEBH   PUBLIC    XDATA    INT       gps_type
      000000D0H   SFRSYM    DATA     BYTE      PSW
      0000009DH   SFRSYM    DATA     BYTE      IRCBAND
      00000097H   SFRSYM    DATA     BYTE      AUXR2
      000000EFH   SFRSYM    DATA     BYTE      AUXINTIF
      000000FDH   SFRSYM    DATA     BYTE      S4CON
      000000ACH   SFRSYM    DATA     BYTE      S3CON
      0000009AH   SFRSYM    DATA     BYTE      S2CON
      000000B7H   SFRSYM    DATA     BYTE      IPH
      000000CDH   SFRSYM    DATA     BYTE      SPSTAT
      000000DDH   SFRSYM    DATA     BYTE      T4T3M
      000000C1H   SFRSYM    DATA     BYTE      WDT_CONTR
      000000DFH   SFRSYM    DATA     BYTE      IP3
      000000F4H   SFRSYM    DATA     BYTE      USBCON
      000000B5H   SFRSYM    DATA     BYTE      IP2
      000000FFH   SFRSYM    DATA     BYTE      RSTCFG
      000000C7H   SFRSYM    DATA     BYTE      IAP_CONTR
      000000F9H   SFRSYM    DATA     BYTE      LINICR
      0000008EH   SFRSYM    DATA     BYTE      AUXR
      000000AFH   SFRSYM    DATA     BYTE      IE2
      00000088H   SFRSYM    DATA     BYTE      TCON
      00000089H   SFRSYM    DATA     BYTE      TMOD
      00000098H   SFRSYM    DATA     BYTE      SCON
      000000F1H   SFRSYM    DATA     BYTE      CANICR
      00000087H   SFRSYM    DATA     BYTE      PCON
      000000BCH   SFRSYM    DATA     BYTE      ADC_CONTR
      000000E7H   SFRSYM    DATA     BYTE      CMPCR2
      000000E6H   SFRSYM    DATA     BYTE      CMPCR1
      000000DEH   SFRSYM    DATA     BYTE      ADCCFG
L251 LINKER/LOCATER V4.66.93.0                                                        03/29/2026  20:20:13  PAGE 116


      000000B8H   SFRSYM    DATA     BYTE      IP
      0000008FH   SFRSYM    DATA     BYTE      INTCLKO
      000000EEH   SFRSYM    DATA     BYTE      IP3H
      000000B6H   SFRSYM    DATA     BYTE      IP2H
      000000A8H   SFRSYM    DATA     BYTE      IE
      000000BBH   SFRSYM    DATA     BYTE      P_SW3
      000000BAH   SFRSYM    DATA     BYTE      P_SW2
      000000A2H   SFRSYM    DATA     BYTE      P_SW1
      000000CEH   SFRSYM    DATA     BYTE      SPCTL
      000000F8H   SFRSYM    DATA     BYTE      P7
      000000E8H   SFRSYM    DATA     BYTE      P6
      000000C8H   SFRSYM    DATA     BYTE      P5
      000000C0H   SFRSYM    DATA     BYTE      P4
      000000B0H   SFRSYM    DATA     BYTE      P3
      000000A0H   SFRSYM    DATA     BYTE      P2
      00000090H   SFRSYM    DATA     BYTE      P1
      00000080H   SFRSYM    DATA     BYTE      P0

      00FF839AH   BLOCK     CODE     ---       LVL=0
      00011CEDH   SYMBOL    XDATA    INT       type_set
      00011CEFH   SYMBOL    XDATA    INT       uartx
      00011CF1H   SYMBOL    XDATA    ---       uart_callback
      00FF839AH   LINE      CODE     ---       #52
      00FF83B0H   LINE      CODE     ---       #54
      00FF83BCH   LINE      CODE     ---       #56
      00FF83C8H   LINE      CODE     ---       #58
      00FF83D8H   LINE      CODE     ---       #59
      00FF83DAH   LINE      CODE     ---       #60
      00FF83E8H   LINE      CODE     ---       #62
      00FF83F8H   LINE      CODE     ---       #63
      00FF83FAH   LINE      CODE     ---       #64
      00FF8408H   LINE      CODE     ---       #66
      00FF8418H   LINE      CODE     ---       #67
      00FF841AH   LINE      CODE     ---       #68
      00FF8428H   LINE      CODE     ---       #70
      00FF8438H   LINE      CODE     ---       #71
      ---         BLOCKEND  ---      ---       LVL=0
      00011E05H   SYMBOL    XDATA    INT       type_set
      00011E07H   SYMBOL    XDATA    ---       exti_callback
      00011CF5H   SYMBOL    XDATA    INT       type_set
      00011CF7H   SYMBOL    XDATA    INT       uartx
      00011CF9H   SYMBOL    XDATA    ---       uart_callback

      ---         MODULE    ---      ---       zf_device_wireless_uart
      00FF77BFH   PUBLIC    CODE     ---       wireless_uart_send_buffer
      00FF9125H   PUBLIC    CODE     ---       wireless_uart_callback
      00FF8906H   PUBLIC    CODE     ---       wireless_uart_init
      00FF86FFH   PUBLIC    CODE     ---       wireless_uart_read_buffer
      000000D0H   SFRSYM    DATA     BYTE      PSW
      0000009DH   SFRSYM    DATA     BYTE      IRCBAND
      00000097H   SFRSYM    DATA     BYTE      AUXR2
      000000EFH   SFRSYM    DATA     BYTE      AUXINTIF
      000000FDH   SFRSYM    DATA     BYTE      S4CON
      000000ACH   SFRSYM    DATA     BYTE      S3CON
      0000009AH   SFRSYM    DATA     BYTE      S2CON
      000000B7H   SFRSYM    DATA     BYTE      IPH
      000000CDH   SFRSYM    DATA     BYTE      SPSTAT
      000000DDH   SFRSYM    DATA     BYTE      T4T3M
      000000C1H   SFRSYM    DATA     BYTE      WDT_CONTR
      000000DFH   SFRSYM    DATA     BYTE      IP3
      000000F4H   SFRSYM    DATA     BYTE      USBCON
      000000B5H   SFRSYM    DATA     BYTE      IP2
      000000FFH   SFRSYM    DATA     BYTE      RSTCFG
      000000C7H   SFRSYM    DATA     BYTE      IAP_CONTR
      000000F9H   SFRSYM    DATA     BYTE      LINICR
L251 LINKER/LOCATER V4.66.93.0                                                        03/29/2026  20:20:13  PAGE 117


      0000008EH   SFRSYM    DATA     BYTE      AUXR
      000000AFH   SFRSYM    DATA     BYTE      IE2
      00000088H   SFRSYM    DATA     BYTE      TCON
      00000089H   SFRSYM    DATA     BYTE      TMOD
      00000098H   SFRSYM    DATA     BYTE      SCON
      000000F1H   SFRSYM    DATA     BYTE      CANICR
      00000087H   SFRSYM    DATA     BYTE      PCON
      000000BCH   SFRSYM    DATA     BYTE      ADC_CONTR
      000000E7H   SFRSYM    DATA     BYTE      CMPCR2
      000000E6H   SFRSYM    DATA     BYTE      CMPCR1
      000000DEH   SFRSYM    DATA     BYTE      ADCCFG
      000000B8H   SFRSYM    DATA     BYTE      IP
      0000008FH   SFRSYM    DATA     BYTE      INTCLKO
      000000EEH   SFRSYM    DATA     BYTE      IP3H
      000000B6H   SFRSYM    DATA     BYTE      IP2H
      000000A8H   SFRSYM    DATA     BYTE      IE
      000000BBH   SFRSYM    DATA     BYTE      P_SW3
      000000BAH   SFRSYM    DATA     BYTE      P_SW2
      000000A2H   SFRSYM    DATA     BYTE      P_SW1
      000000CEH   SFRSYM    DATA     BYTE      SPCTL
      000000F8H   SFRSYM    DATA     BYTE      P7
      000000E8H   SFRSYM    DATA     BYTE      P6
      000000C8H   SFRSYM    DATA     BYTE      P5
      000000C0H   SFRSYM    DATA     BYTE      P4
      000000B0H   SFRSYM    DATA     BYTE      P3
      000000A0H   SFRSYM    DATA     BYTE      P2
      00000090H   SFRSYM    DATA     BYTE      P1
      00000080H   SFRSYM    DATA     BYTE      P0
      00010CF9H   SYMBOL    XDATA    ---       wireless_uart_fifo
      00010D10H   SYMBOL    XDATA    ---       wireless_uart_buffer
      00011F2CH   SYMBOL    XDATA    BYTE      dat
      00011F2DH   SYMBOL    XDATA    WORD      time_cnt

      00FF77BFH   BLOCK     CODE     ---       LVL=0
      00011A17H   SYMBOL    XDATA    ---       buff
      00011A1BH   SYMBOL    XDATA    DWORD     len
      00FF77D3H   BLOCK     CODE     NEAR LAB  LVL=1
      00011A1FH   SYMBOL    XDATA    WORD      time_cnt
      00011A21H   SYMBOL    XDATA    WORD      send_len
      ---         BLOCKEND  ---      ---       LVL=1
      00FF77BFH   LINE      CODE     ---       #103
      00FF77D3H   LINE      CODE     ---       #104
      00FF77D3H   LINE      CODE     ---       #108
      00FF77DBH   LINE      CODE     ---       #109
      00FF77E3H   LINE      CODE     ---       #110
      00FF7805H   LINE      CODE     ---       #112
      00FF7808H   LINE      CODE     ---       #114
      00FF7814H   LINE      CODE     ---       #116
      00FF783AH   LINE      CODE     ---       #117
      00FF7851H   LINE      CODE     ---       #118
      00FF786AH   LINE      CODE     ---       #119
      00FF7885H   LINE      CODE     ---       #120
      00FF788DH   LINE      CODE     ---       #121
      00FF788FH   LINE      CODE     ---       #124
      00FF7896H   LINE      CODE     ---       #125
      00FF78A5H   LINE      CODE     ---       #126
      00FF78A5H   LINE      CODE     ---       #127
      00FF78C4H   LINE      CODE     ---       #129
      00FF78CEH   LINE      CODE     ---       #130
      ---         BLOCKEND  ---      ---       LVL=0
      00011CFDH   SYMBOL    XDATA    ---       str
      00011D01H   SYMBOL    XDATA    DWORD     len

      00FF86FFH   BLOCK     CODE     ---       LVL=0
      00011A23H   SYMBOL    XDATA    ---       buff
L251 LINKER/LOCATER V4.66.93.0                                                        03/29/2026  20:20:13  PAGE 118


      00011A27H   SYMBOL    XDATA    DWORD     len
      00FF8713H   BLOCK     CODE     NEAR LAB  LVL=1
      00011A2BH   SYMBOL    XDATA    DWORD     data_len
      ---         BLOCKEND  ---      ---       LVL=1
      00FF86FFH   LINE      CODE     ---       #156
      00FF8713H   LINE      CODE     ---       #157
      00FF8713H   LINE      CODE     ---       #158
      00FF8727H   LINE      CODE     ---       #159
      00FF8749H   LINE      CODE     ---       #160
      00FF8778H   LINE      CODE     ---       #161
      00FF8782H   LINE      CODE     ---       #162
      ---         BLOCKEND  ---      ---       LVL=0

      00FF9125H   BLOCK     CODE     ---       LVL=0
      00011F88H   SYMBOL    XDATA    BYTE      uart_dat
      00FF9125H   LINE      CODE     ---       #173
      00FF9129H   LINE      CODE     ---       #176
      00FF914AH   LINE      CODE     ---       #187
      ---         BLOCKEND  ---      ---       LVL=0

      00FF8906H   BLOCK     CODE     ---       LVL=0
      00011F89H   SYMBOL    XDATA    BYTE      return_state
      00FF8906H   LINE      CODE     ---       #196
      00FF8906H   LINE      CODE     ---       #197
      00FF8906H   LINE      CODE     ---       #198
      00FF890BH   LINE      CODE     ---       #199
      00FF891EH   LINE      CODE     ---       #201
      00FF894BH   LINE      CODE     ---       #202
      00FF895CH   LINE      CODE     ---       #205
      00FF8979H   LINE      CODE     ---       #206
      00FF8982H   LINE      CODE     ---       #259
      00FF8986H   LINE      CODE     ---       #260
      ---         BLOCKEND  ---      ---       LVL=0

      ---         MODULE    ---      ---       imu
      00010711H   PUBLIC    XDATA    FLOAT     Pitch_Min
      00010715H   PUBLIC    XDATA    FLOAT     Pitch_Max
      00010719H   PUBLIC    XDATA    ---       Kalman1
      00010749H   PUBLIC    XDATA    ---       Kalman2
      00010779H   PUBLIC    XDATA    CHAR      Round
      0001077AH   PUBLIC    XDATA    FLOAT     gyro_Offset_flag
      0001077EH   PUBLIC    XDATA    FLOAT     pitch
      00010782H   PUBLIC    XDATA    FLOAT     Roll_Min
      00010786H   PUBLIC    XDATA    ---       Zero
      000107B6H   PUBLIC    XDATA    FLOAT     Roll_Max
      000107BAH   PUBLIC    XDATA    FLOAT     roll
      000107BEH   PUBLIC    XDATA    FLOAT     gyrox
      000107C2H   PUBLIC    XDATA    FLOAT     gyroy
      000107C6H   PUBLIC    XDATA    FLOAT     gyroz
      000107CAH   PUBLIC    XDATA    ---       first_complement
      000107DEH   PUBLIC    XDATA    ---       IMU_Data
      000107F6H   PUBLIC    XDATA    FLOAT     Daty_X
      000107FAH   PUBLIC    XDATA    FLOAT     Daty_Y
      000107FEH   PUBLIC    XDATA    FLOAT     Daty_Z
      00010802H   PUBLIC    XDATA    FLOAT     yaw_limit_360
      00010806H   PUBLIC    XDATA    FLOAT     Max_Delta_Pitch
      0001080AH   PUBLIC    XDATA    FLOAT     yaw
      0001080EH   PUBLIC    XDATA    FLOAT     yaw_total
      00010812H   PUBLIC    XDATA    ---       Gyro_Offset
      0001081EH   PUBLIC    XDATA    FLOAT     Max_Delta_Roll
      00011A2FH   PUBLIC    XDATA    BYTE      ?KalmanCreate?BYTE
      000000D0H   SFRSYM    DATA     BYTE      PSW
      0000009DH   SFRSYM    DATA     BYTE      IRCBAND
      00000097H   SFRSYM    DATA     BYTE      AUXR2
      000000EFH   SFRSYM    DATA     BYTE      AUXINTIF
L251 LINKER/LOCATER V4.66.93.0                                                        03/29/2026  20:20:13  PAGE 119


      000000FDH   SFRSYM    DATA     BYTE      S4CON
      000000ACH   SFRSYM    DATA     BYTE      S3CON
      0000009AH   SFRSYM    DATA     BYTE      S2CON
      000000B7H   SFRSYM    DATA     BYTE      IPH
      000000CDH   SFRSYM    DATA     BYTE      SPSTAT
      000000DDH   SFRSYM    DATA     BYTE      T4T3M
      000000C1H   SFRSYM    DATA     BYTE      WDT_CONTR
      000000DFH   SFRSYM    DATA     BYTE      IP3
      000000F4H   SFRSYM    DATA     BYTE      USBCON
      000000B5H   SFRSYM    DATA     BYTE      IP2
      000000FFH   SFRSYM    DATA     BYTE      RSTCFG
      000000C7H   SFRSYM    DATA     BYTE      IAP_CONTR
      000000F9H   SFRSYM    DATA     BYTE      LINICR
      0000008EH   SFRSYM    DATA     BYTE      AUXR
      000000AFH   SFRSYM    DATA     BYTE      IE2
      00000088H   SFRSYM    DATA     BYTE      TCON
      00000089H   SFRSYM    DATA     BYTE      TMOD
      00000098H   SFRSYM    DATA     BYTE      SCON
      000000F1H   SFRSYM    DATA     BYTE      CANICR
      00000087H   SFRSYM    DATA     BYTE      PCON
      000000BCH   SFRSYM    DATA     BYTE      ADC_CONTR
      000000E7H   SFRSYM    DATA     BYTE      CMPCR2
      000000E6H   SFRSYM    DATA     BYTE      CMPCR1
      000000DEH   SFRSYM    DATA     BYTE      ADCCFG
      000000B8H   SFRSYM    DATA     BYTE      IP
      0000008FH   SFRSYM    DATA     BYTE      INTCLKO
      000000EEH   SFRSYM    DATA     BYTE      IP3H
      000000B6H   SFRSYM    DATA     BYTE      IP2H
      000000A8H   SFRSYM    DATA     BYTE      IE
      000000BBH   SFRSYM    DATA     BYTE      P_SW3
      000000BAH   SFRSYM    DATA     BYTE      P_SW2
      000000A2H   SFRSYM    DATA     BYTE      P_SW1
      000000CEH   SFRSYM    DATA     BYTE      SPCTL
      000000F8H   SFRSYM    DATA     BYTE      P7
      000000E8H   SFRSYM    DATA     BYTE      P6
      000000C8H   SFRSYM    DATA     BYTE      P5
      000000C0H   SFRSYM    DATA     BYTE      P4
      000000B0H   SFRSYM    DATA     BYTE      P3
      000000A0H   SFRSYM    DATA     BYTE      P2
      00000090H   SFRSYM    DATA     BYTE      P1
      00000080H   SFRSYM    DATA     BYTE      P0
      00011EF7H   SYMBOL    XDATA    FLOAT     k
      00010822H   SYMBOL    XDATA    FLOAT     Pitch_Temp
      00010826H   SYMBOL    XDATA    FLOAT     Roll_Temp
      0001082AH   SYMBOL    XDATA    FLOAT     Delta_Roll
      0001082EH   SYMBOL    XDATA    CHAR      Pitch_Flag
      0001082FH   SYMBOL    XDATA    CHAR      Roll_Flag
      00011F6EH   SYMBOL    XDATA    WORD      i
      000116C8H   SYMBOL    XDATA    FLOAT     num
      000116CCH   SYMBOL    XDATA    FLOAT     halfx
      000116D0H   SYMBOL    XDATA    FLOAT     y
      000116D4H   SYMBOL    XDATA    LONG      i
      00011EFBH   SYMBOL    XDATA    FLOAT     x
      00011A2FH   SYMBOL    XDATA    ---       p
      00011A33H   SYMBOL    XDATA    FLOAT     T_Q
      00011A37H   SYMBOL    XDATA    FLOAT     T_R
      00011D05H   SYMBOL    XDATA    ---       p
      00011D09H   SYMBOL    XDATA    FLOAT     dat

      ---         MODULE    ---      ---       seekfree_assistant
      00FF90CBH   PUBLIC    CODE     ---       seekfree_assistant_init
      00FF60E4H   PUBLIC    CODE     ---       seekfree_assistant_data_analysis
      000105DCH   PUBLIC    XDATA    ---       seekfree_assistant_oscilloscope_data
      00010617H   PUBLIC    XDATA    ---       seekfree_assistant_parameter_update_flag
      0001061FH   PUBLIC    XDATA    ---       seekfree_assistant_parameter
L251 LINKER/LOCATER V4.66.93.0                                                        03/29/2026  20:20:13  PAGE 120


      00011732H   PUBLIC    XDATA    BYTE      ?seekfree_assistant_camera_data_send?BYTE
      00011B17H   PUBLIC    XDATA    BYTE      ?seekfree_assistant_camera_information_config?BYTE
      000112AAH   PUBLIC    XDATA    BYTE      ?seekfree_assistant_camera_boundary_config?BYTE
      000000D0H   SFRSYM    DATA     BYTE      PSW
      0000009DH   SFRSYM    DATA     BYTE      IRCBAND
      00000097H   SFRSYM    DATA     BYTE      AUXR2
      000000EFH   SFRSYM    DATA     BYTE      AUXINTIF
      000000FDH   SFRSYM    DATA     BYTE      S4CON
      000000ACH   SFRSYM    DATA     BYTE      S3CON
      0000009AH   SFRSYM    DATA     BYTE      S2CON
      000000B7H   SFRSYM    DATA     BYTE      IPH
      000000CDH   SFRSYM    DATA     BYTE      SPSTAT
      000000DDH   SFRSYM    DATA     BYTE      T4T3M
      000000C1H   SFRSYM    DATA     BYTE      WDT_CONTR
      000000DFH   SFRSYM    DATA     BYTE      IP3
      000000F4H   SFRSYM    DATA     BYTE      USBCON
      000000B5H   SFRSYM    DATA     BYTE      IP2
      000000FFH   SFRSYM    DATA     BYTE      RSTCFG
      000000C7H   SFRSYM    DATA     BYTE      IAP_CONTR
      000000F9H   SFRSYM    DATA     BYTE      LINICR
      0000008EH   SFRSYM    DATA     BYTE      AUXR
      000000AFH   SFRSYM    DATA     BYTE      IE2
      00000088H   SFRSYM    DATA     BYTE      TCON
      00000089H   SFRSYM    DATA     BYTE      TMOD
      00000098H   SFRSYM    DATA     BYTE      SCON
      000000F1H   SFRSYM    DATA     BYTE      CANICR
      00000087H   SFRSYM    DATA     BYTE      PCON
      000000BCH   SFRSYM    DATA     BYTE      ADC_CONTR
      000000E7H   SFRSYM    DATA     BYTE      CMPCR2
      000000E6H   SFRSYM    DATA     BYTE      CMPCR1
      000000DEH   SFRSYM    DATA     BYTE      ADCCFG
      000000B8H   SFRSYM    DATA     BYTE      IP
      0000008FH   SFRSYM    DATA     BYTE      INTCLKO
      000000EEH   SFRSYM    DATA     BYTE      IP3H
      000000B6H   SFRSYM    DATA     BYTE      IP2H
      000000A8H   SFRSYM    DATA     BYTE      IE
      000000BBH   SFRSYM    DATA     BYTE      P_SW3
      000000BAH   SFRSYM    DATA     BYTE      P_SW2
      000000A2H   SFRSYM    DATA     BYTE      P_SW1
      000000CEH   SFRSYM    DATA     BYTE      SPCTL
      000000F8H   SFRSYM    DATA     BYTE      P7
      000000A8H.7 SFRSYM    DATA     BIT       EA
      000000E8H   SFRSYM    DATA     BYTE      P6
      000000C8H   SFRSYM    DATA     BYTE      P5
      000000C0H   SFRSYM    DATA     BYTE      P4
      000000B0H   SFRSYM    DATA     BYTE      P3
      000000A0H   SFRSYM    DATA     BYTE      P2
      00000090H   SFRSYM    DATA     BYTE      P1
      00000080H   SFRSYM    DATA     BYTE      P0
      00FF8BAAH   SYMBOL    CODE     ---       seekfree_assistant_sum
      000105D4H   SYMBOL    XDATA    ---       seekfree_assistant_camera_dot_data
      00010600H   SYMBOL    XDATA    ---       seekfree_assistant_fifo
      0001063FH   SYMBOL    XDATA    ---       seekfree_assistant_camera_buffer
      00010689H   SYMBOL    XDATA    ---       seekfree_assistant_camera_data
      00010691H   SYMBOL    XDATA    ---       seekfree_assistant_buffer
      00FF9C8AH   SYMBOL    HCONST   ---       ?tpl?0001
      00FF9CAEH   SYMBOL    HCONST   ---       ?tpl?0002

      00FF8BAAH   BLOCK     CODE     ---       LVL=0
      00011C14H   SYMBOL    XDATA    ---       buffer
      00011C18H   SYMBOL    XDATA    DWORD     length
      00FF8BBEH   BLOCK     CODE     NEAR LAB  LVL=1
      00011C1CH   SYMBOL    XDATA    BYTE      temp_sum
      ---         BLOCKEND  ---      ---       LVL=1
      00FF8BAAH   LINE      CODE     ---       #57
L251 LINKER/LOCATER V4.66.93.0                                                        03/29/2026  20:20:13  PAGE 121


      00FF8BBEH   LINE      CODE     ---       #58
      00FF8BBEH   LINE      CODE     ---       #59
      00FF8BC3H   LINE      CODE     ---       #61
      00FF8BC5H   LINE      CODE     ---       #63
      00FF8BE2H   LINE      CODE     ---       #64
      00FF8BFFH   LINE      CODE     ---       #66
      00FF8C03H   LINE      CODE     ---       #67
      ---         BLOCKEND  ---      ---       LVL=0
      00011732H   SYMBOL    XDATA    INT       camera_type
      00011734H   SYMBOL    XDATA    ---       image_addr
      00011738H   SYMBOL    XDATA    BYTE      boundary_num
      00011739H   SYMBOL    XDATA    WORD      width
      0001173BH   SYMBOL    XDATA    WORD      height
      0001173DH   SYMBOL    XDATA    DWORD     image_size
      00011B17H   SYMBOL    XDATA    INT       camera_type
      00011B19H   SYMBOL    XDATA    ---       image_addr
      00011B1DH   SYMBOL    XDATA    WORD      width
      00011B1FH   SYMBOL    XDATA    WORD      height
      0001114BH   SYMBOL    XDATA    ---       seekfree_assistant_oscilloscope
      0001114FH   SYMBOL    XDATA    BYTE      packet_size
      00011150H   SYMBOL    XDATA    BYTE      i
      00011151H   SYMBOL    XDATA    ---       temp_oscilloscope
      00011D38H   SYMBOL    XDATA    ---       buffer
      00011D3CH   SYMBOL    XDATA    BYTE      i
      00011D3DH   SYMBOL    XDATA    WORD      dot_bytes
      000112AAH   SYMBOL    XDATA    INT       boundary_type
      000112ACH   SYMBOL    XDATA    WORD      dot_num
      000112AEH   SYMBOL    XDATA    ---       dot_x1
      000112B2H   SYMBOL    XDATA    ---       dot_x2
      000112B6H   SYMBOL    XDATA    ---       dot_x3
      000112BAH   SYMBOL    XDATA    ---       dot_y1
      000112BEH   SYMBOL    XDATA    ---       dot_y2
      000112C2H   SYMBOL    XDATA    ---       dot_y3
      000112C6H   SYMBOL    XDATA    BYTE      i
      000112C7H   SYMBOL    XDATA    BYTE      boundary_num
      000112C8H   SYMBOL    XDATA    BYTE      boundary_data_type

      00FF60E4H   BLOCK     CODE     ---       LVL=0
      00010AD7H   SYMBOL    XDATA    BYTE      temp_sum
      00010AD8H   SYMBOL    XDATA    DWORD     read_length
      00010ADCH   SYMBOL    XDATA    WORD      struct_len
      00010ADEH   SYMBOL    XDATA    ---       receive_packet
      00010AE2H   SYMBOL    XDATA    ---       temp_buffer
      00010B62H   SYMBOL    XDATA    DWORD     i
      00000020H.3 SYMBOL    BIT      BIT       flag
      00FF60E4H   LINE      CODE     ---       #345
      00FF60E4H   LINE      CODE     ---       #346
      00FF60E4H   LINE      CODE     ---       #348
      00FF60E9H   LINE      CODE     ---       #349
      00FF60F5H   LINE      CODE     ---       #350
      00FF60FFH   LINE      CODE     ---       #354
      00FF6114H   LINE      CODE     ---       #356
      00FF6120H   LINE      CODE     ---       #358
      00FF6123H   LINE      CODE     ---       #359
      00FF6127H   LINE      CODE     ---       #361
      00FF612AH   LINE      CODE     ---       #364
      00FF6148H   LINE      CODE     ---       #366
      00FF6156H   LINE      CODE     ---       #369
      00FF617DH   LINE      CODE     ---       #370
      00FF617DH   LINE      CODE     ---       #372
      00FF6180H   LINE      CODE     ---       #375
      00FF618EH   LINE      CODE     ---       #376
      00FF61BDH   LINE      CODE     ---       #377
      00FF61CDH   LINE      CODE     ---       #380
      00FF61DBH   LINE      CODE     ---       #381
L251 LINKER/LOCATER V4.66.93.0                                                        03/29/2026  20:20:13  PAGE 122


      00FF61DEH   LINE      CODE     ---       #386
      00FF61F0H   LINE      CODE     ---       #387
      00FF6205H   LINE      CODE     ---       #388
      00FF6217H   LINE      CODE     ---       #390
      00FF6233H   LINE      CODE     ---       #395
      00FF626EH   LINE      CODE     ---       #396
      00FF62A9H   LINE      CODE     ---       #397
      00FF62E4H   LINE      CODE     ---       #398
      00FF6318H   LINE      CODE     ---       #399
      00FF6338H   LINE      CODE     ---       #400
      00FF633AH   LINE      CODE     ---       #403
      00FF6348H   LINE      CODE     ---       #404
      00FF6348H   LINE      CODE     ---       #405
      00FF6348H   LINE      CODE     ---       #408
      00FF6375H   LINE      CODE     ---       #409
      00FF6391H   LINE      CODE     ---       #410
      00FF6395H   LINE      CODE     ---       #411
      ---         BLOCKEND  ---      ---       LVL=0

      00FF90CBH   BLOCK     CODE     ---       LVL=0
      00FF90CBH   LINE      CODE     ---       #436
      00FF90CBH   LINE      CODE     ---       #438
      00FF90F8H   LINE      CODE     ---       #439
      ---         BLOCKEND  ---      ---       LVL=0

      ---         MODULE    ---      ---       seekfree_assistant_interface
      00011EFFH   PUBLIC    XDATA    ---       seekfree_assistant_receive_callback
      00011F01H   PUBLIC    XDATA    ---       seekfree_assistant_transfer_callback
      000000D0H   SFRSYM    DATA     BYTE      PSW
      0000009DH   SFRSYM    DATA     BYTE      IRCBAND
      00000097H   SFRSYM    DATA     BYTE      AUXR2
      000000EFH   SFRSYM    DATA     BYTE      AUXINTIF
      000000FDH   SFRSYM    DATA     BYTE      S4CON
      000000ACH   SFRSYM    DATA     BYTE      S3CON
      0000009AH   SFRSYM    DATA     BYTE      S2CON
      000000B7H   SFRSYM    DATA     BYTE      IPH
      000000CDH   SFRSYM    DATA     BYTE      SPSTAT
      000000DDH   SFRSYM    DATA     BYTE      T4T3M
      000000C1H   SFRSYM    DATA     BYTE      WDT_CONTR
      000000DFH   SFRSYM    DATA     BYTE      IP3
      000000F4H   SFRSYM    DATA     BYTE      USBCON
      000000B5H   SFRSYM    DATA     BYTE      IP2
      000000FFH   SFRSYM    DATA     BYTE      RSTCFG
      000000C7H   SFRSYM    DATA     BYTE      IAP_CONTR
      000000F9H   SFRSYM    DATA     BYTE      LINICR
      0000008EH   SFRSYM    DATA     BYTE      AUXR
      000000AFH   SFRSYM    DATA     BYTE      IE2
      00000088H   SFRSYM    DATA     BYTE      TCON
      00000089H   SFRSYM    DATA     BYTE      TMOD
      00000098H   SFRSYM    DATA     BYTE      SCON
      000000F1H   SFRSYM    DATA     BYTE      CANICR
      00000087H   SFRSYM    DATA     BYTE      PCON
      000000BCH   SFRSYM    DATA     BYTE      ADC_CONTR
      000000E7H   SFRSYM    DATA     BYTE      CMPCR2
      000000E6H   SFRSYM    DATA     BYTE      CMPCR1
      000000DEH   SFRSYM    DATA     BYTE      ADCCFG
      000000B8H   SFRSYM    DATA     BYTE      IP
      0000008FH   SFRSYM    DATA     BYTE      INTCLKO
      000000EEH   SFRSYM    DATA     BYTE      IP3H
      000000B6H   SFRSYM    DATA     BYTE      IP2H
      000000A8H   SFRSYM    DATA     BYTE      IE
      000000BBH   SFRSYM    DATA     BYTE      P_SW3
      000000BAH   SFRSYM    DATA     BYTE      P_SW2
      000000A2H   SFRSYM    DATA     BYTE      P_SW1
      000000CEH   SFRSYM    DATA     BYTE      SPCTL
L251 LINKER/LOCATER V4.66.93.0                                                        03/29/2026  20:20:13  PAGE 123


      000000F8H   SFRSYM    DATA     BYTE      P7
      000000E8H   SFRSYM    DATA     BYTE      P6
      000000C8H   SFRSYM    DATA     BYTE      P5
      000000C0H   SFRSYM    DATA     BYTE      P4
      000000B0H   SFRSYM    DATA     BYTE      P3
      000000A0H   SFRSYM    DATA     BYTE      P2
      00000090H   SFRSYM    DATA     BYTE      P1
      00000080H   SFRSYM    DATA     BYTE      P0
      00011F70H   SYMBOL    XDATA    INT       transfer_device

      ---         MODULE    ---      ---       main
      00FF90F9H   PUBLIC    CODE     ---       main
      00FF8439H   PUBLIC    CODE     ---       _m
      00010E30H   PUBLIC    XDATA    FLOAT     kd
      00010E34H   PUBLIC    XDATA    FLOAT     ki
      00010E38H   PUBLIC    XDATA    FLOAT     kp
      000000D0H   SFRSYM    DATA     BYTE      PSW
      0000009DH   SFRSYM    DATA     BYTE      IRCBAND
      00000097H   SFRSYM    DATA     BYTE      AUXR2
      000000EFH   SFRSYM    DATA     BYTE      AUXINTIF
      000000FDH   SFRSYM    DATA     BYTE      S4CON
      000000ACH   SFRSYM    DATA     BYTE      S3CON
      0000009AH   SFRSYM    DATA     BYTE      S2CON
      000000B7H   SFRSYM    DATA     BYTE      IPH
      000000CDH   SFRSYM    DATA     BYTE      SPSTAT
      000000DDH   SFRSYM    DATA     BYTE      T4T3M
      000000C1H   SFRSYM    DATA     BYTE      WDT_CONTR
      000000DFH   SFRSYM    DATA     BYTE      IP3
      000000F4H   SFRSYM    DATA     BYTE      USBCON
      000000B5H   SFRSYM    DATA     BYTE      IP2
      000000FFH   SFRSYM    DATA     BYTE      RSTCFG
      000000C7H   SFRSYM    DATA     BYTE      IAP_CONTR
      000000F9H   SFRSYM    DATA     BYTE      LINICR
      0000008EH   SFRSYM    DATA     BYTE      AUXR
      000000AFH   SFRSYM    DATA     BYTE      IE2
      00000088H   SFRSYM    DATA     BYTE      TCON
      00000089H   SFRSYM    DATA     BYTE      TMOD
      00000098H   SFRSYM    DATA     BYTE      SCON
      000000F1H   SFRSYM    DATA     BYTE      CANICR
      00000087H   SFRSYM    DATA     BYTE      PCON
      000000BCH   SFRSYM    DATA     BYTE      ADC_CONTR
      000000E7H   SFRSYM    DATA     BYTE      CMPCR2
      000000E6H   SFRSYM    DATA     BYTE      CMPCR1
      000000DEH   SFRSYM    DATA     BYTE      ADCCFG
      000000B8H   SFRSYM    DATA     BYTE      IP
      0000008FH   SFRSYM    DATA     BYTE      INTCLKO
      000000EEH   SFRSYM    DATA     BYTE      IP3H
      000000B6H   SFRSYM    DATA     BYTE      IP2H
      000000A8H   SFRSYM    DATA     BYTE      IE
      000000BBH   SFRSYM    DATA     BYTE      P_SW3
      000000BAH   SFRSYM    DATA     BYTE      P_SW2
      000000A2H   SFRSYM    DATA     BYTE      P_SW1
      000000CEH   SFRSYM    DATA     BYTE      SPCTL
      000000F8H   SFRSYM    DATA     BYTE      P7
      000000E8H   SFRSYM    DATA     BYTE      P6
      000000C8H   SFRSYM    DATA     BYTE      P5
      000000C0H   SFRSYM    DATA     BYTE      P4
      000000B0H   SFRSYM    DATA     BYTE      P3
      000000A0H   SFRSYM    DATA     BYTE      P2
      00000090H   SFRSYM    DATA     BYTE      P1
      00000080H   SFRSYM    DATA     BYTE      P0
      00010DF0H   SYMBOL    XDATA    ---       temp_uart_buffer

      00FF90F9H   BLOCK     CODE     ---       LVL=0
      00FF90F9H   LINE      CODE     ---       #8
L251 LINKER/LOCATER V4.66.93.0                                                        03/29/2026  20:20:13  PAGE 124


      ---         BLOCKEND  ---      ---       LVL=0

      00FF8439H   BLOCK     CODE     ---       LVL=0
      00FF8439H   LINE      CODE     ---       #8
      00FF8439H   LINE      CODE     ---       #10
      00FF8444H   LINE      CODE     ---       #11
      00FF8447H   LINE      CODE     ---       #12
      00FF844AH   LINE      CODE     ---       #16
      00FF844DH   LINE      CODE     ---       #17
      00FF8450H   LINE      CODE     ---       #20
      00FF8450H   LINE      CODE     ---       #22
      00FF8475H   LINE      CODE     ---       #23
      00FF8490H   LINE      CODE     ---       #24
      00FF84ADH   LINE      CODE     ---       #25
      00FF84CAH   LINE      CODE     ---       #26
      00FF84CCH   LINE      CODE     ---       #27
      ---         BLOCKEND  ---      ---       LVL=0

      ---         MODULE    ---      ---       isr
      00FF8D5DH   PUBLIC    CODE     ---       INT0_IRQHandler
      00FF8D9DH   PUBLIC    CODE     ---       INT1_IRQHandler
      00FF8DDDH   PUBLIC    CODE     ---       INT2_IRQHandler
      00FF8E1DH   PUBLIC    CODE     ---       INT3_IRQHandler
      00FF8E5DH   PUBLIC    CODE     ---       INT4_IRQHandler
      00FF7FBDH   PUBLIC    CODE     ---       DMA_UART1_IRQHandler
      00FF84CDH   PUBLIC    CODE     ---       DMA_UART2_IRQHandler
      00FF855CH   PUBLIC    CODE     ---       DMA_UART3_IRQHandler
      00FF85EBH   PUBLIC    CODE     ---       DMA_UART4_IRQHandler
      00FF8E9DH   PUBLIC    CODE     ---       TM0_IRQHandler
      00FF8EDDH   PUBLIC    CODE     ---       TM1_IRQHandler
      00FF8F1DH   PUBLIC    CODE     ---       TM2_IRQHandler
      00FF8F5DH   PUBLIC    CODE     ---       TM3_IRQHandler
      00FF8F9DH   PUBLIC    CODE     ---       TM4_IRQHandler
      000000D0H   SFRSYM    DATA     BYTE      PSW
      0000009DH   SFRSYM    DATA     BYTE      IRCBAND
      00000097H   SFRSYM    DATA     BYTE      AUXR2
      000000EFH   SFRSYM    DATA     BYTE      AUXINTIF
      000000FDH   SFRSYM    DATA     BYTE      S4CON
      000000ACH   SFRSYM    DATA     BYTE      S3CON
      0000009AH   SFRSYM    DATA     BYTE      S2CON
      000000B7H   SFRSYM    DATA     BYTE      IPH
      000000CDH   SFRSYM    DATA     BYTE      SPSTAT
      000000DDH   SFRSYM    DATA     BYTE      T4T3M
      000000C1H   SFRSYM    DATA     BYTE      WDT_CONTR
      000000DFH   SFRSYM    DATA     BYTE      IP3
      000000F4H   SFRSYM    DATA     BYTE      USBCON
      000000B5H   SFRSYM    DATA     BYTE      IP2
      000000FFH   SFRSYM    DATA     BYTE      RSTCFG
      000000C7H   SFRSYM    DATA     BYTE      IAP_CONTR
      000000F9H   SFRSYM    DATA     BYTE      LINICR
      0000008EH   SFRSYM    DATA     BYTE      AUXR
      000000AFH   SFRSYM    DATA     BYTE      IE2
      00000088H   SFRSYM    DATA     BYTE      TCON
      00000089H   SFRSYM    DATA     BYTE      TMOD
      00000098H   SFRSYM    DATA     BYTE      SCON
      000000F1H   SFRSYM    DATA     BYTE      CANICR
      00000087H   SFRSYM    DATA     BYTE      PCON
      000000BCH   SFRSYM    DATA     BYTE      ADC_CONTR
      000000E7H   SFRSYM    DATA     BYTE      CMPCR2
      000000E6H   SFRSYM    DATA     BYTE      CMPCR1
      000000DEH   SFRSYM    DATA     BYTE      ADCCFG
      000000B8H   SFRSYM    DATA     BYTE      IP
      0000008FH   SFRSYM    DATA     BYTE      INTCLKO
      000000EEH   SFRSYM    DATA     BYTE      IP3H
      000000B6H   SFRSYM    DATA     BYTE      IP2H
L251 LINKER/LOCATER V4.66.93.0                                                        03/29/2026  20:20:13  PAGE 125


      000000A8H   SFRSYM    DATA     BYTE      IE
      000000BBH   SFRSYM    DATA     BYTE      P_SW3
      000000BAH   SFRSYM    DATA     BYTE      P_SW2
      000000A2H   SFRSYM    DATA     BYTE      P_SW1
      000000CEH   SFRSYM    DATA     BYTE      SPCTL
      000000F8H   SFRSYM    DATA     BYTE      P7
      000000E8H   SFRSYM    DATA     BYTE      P6
      000000C8H   SFRSYM    DATA     BYTE      P5
      000000C0H   SFRSYM    DATA     BYTE      P4
      000000B0H   SFRSYM    DATA     BYTE      P3
      000000A0H   SFRSYM    DATA     BYTE      P2
      00000090H   SFRSYM    DATA     BYTE      P1
      00000080H   SFRSYM    DATA     BYTE      P0

      00FF8D5DH   BLOCK     CODE     ---       LVL=0
      00FF8D5DH   LINE      CODE     ---       #39
      00FF8D71H   LINE      CODE     ---       #41
      00FF8D74H   LINE      CODE     ---       #42
      00FF8D80H   LINE      CODE     ---       #44
      00FF8D88H   LINE      CODE     ---       #45
      ---         BLOCKEND  ---      ---       LVL=0

      00FF8D9DH   BLOCK     CODE     ---       LVL=0
      00FF8D9DH   LINE      CODE     ---       #49
      00FF8DB1H   LINE      CODE     ---       #51
      00FF8DB4H   LINE      CODE     ---       #52
      00FF8DC0H   LINE      CODE     ---       #54
      00FF8DC8H   LINE      CODE     ---       #55
      ---         BLOCKEND  ---      ---       LVL=0

      00FF8DDDH   BLOCK     CODE     ---       LVL=0
      00FF8DDDH   LINE      CODE     ---       #58
      00FF8DF1H   LINE      CODE     ---       #60
      00FF8DF4H   LINE      CODE     ---       #61
      00FF8E00H   LINE      CODE     ---       #63
      00FF8E08H   LINE      CODE     ---       #64
      ---         BLOCKEND  ---      ---       LVL=0

      00FF8E1DH   BLOCK     CODE     ---       LVL=0
      00FF8E1DH   LINE      CODE     ---       #66
      00FF8E31H   LINE      CODE     ---       #68
      00FF8E34H   LINE      CODE     ---       #69
      00FF8E40H   LINE      CODE     ---       #71
      00FF8E48H   LINE      CODE     ---       #72
      ---         BLOCKEND  ---      ---       LVL=0

      00FF8E5DH   BLOCK     CODE     ---       LVL=0
      00FF8E5DH   LINE      CODE     ---       #75
      00FF8E71H   LINE      CODE     ---       #77
      00FF8E74H   LINE      CODE     ---       #78
      00FF8E80H   LINE      CODE     ---       #80
      00FF8E88H   LINE      CODE     ---       #81
      ---         BLOCKEND  ---      ---       LVL=0

      00FF7FBDH   BLOCK     CODE     ---       LVL=0
      00FF7FD1H   BLOCK     CODE     NEAR LAB  LVL=1
      00011F8AH   SYMBOL    XDATA    BYTE      dwon_count
      ---         BLOCKEND  ---      ---       LVL=1
      00FF7FBDH   LINE      CODE     ---       #85
      00FF7FD1H   LINE      CODE     ---       #86
      00FF7FD1H   LINE      CODE     ---       #89
      00FF7FDFH   LINE      CODE     ---       #91
      00FF7FF1H   LINE      CODE     ---       #92
      00FF7FF6H   LINE      CODE     ---       #95
      00FF7FFFH   LINE      CODE     ---       #97
L251 LINKER/LOCATER V4.66.93.0                                                        03/29/2026  20:20:13  PAGE 126


      00FF8010H   LINE      CODE     ---       #99
      00FF8014H   LINE      CODE     ---       #100
      00FF8016H   LINE      CODE     ---       #104
      00FF801BH   LINE      CODE     ---       #105
      00FF801BH   LINE      CODE     ---       #107
      00FF8027H   LINE      CODE     ---       #109
      00FF8033H   LINE      CODE     ---       #110
      00FF8033H   LINE      CODE     ---       #113
      00FF8041H   LINE      CODE     ---       #115
      00FF8053H   LINE      CODE     ---       #116
      00FF8058H   LINE      CODE     ---       #120
      ---         BLOCKEND  ---      ---       LVL=0

      00FF84CDH   BLOCK     CODE     ---       LVL=0
      00FF84CDH   LINE      CODE     ---       #123
      00FF84E1H   LINE      CODE     ---       #125
      00FF84EFH   LINE      CODE     ---       #127
      00FF8501H   LINE      CODE     ---       #128
      00FF8508H   LINE      CODE     ---       #130
      00FF8514H   LINE      CODE     ---       #132
      00FF8520H   LINE      CODE     ---       #133
      00FF8520H   LINE      CODE     ---       #136
      00FF852EH   LINE      CODE     ---       #138
      00FF8540H   LINE      CODE     ---       #139
      00FF8547H   LINE      CODE     ---       #143
      ---         BLOCKEND  ---      ---       LVL=0

      00FF855CH   BLOCK     CODE     ---       LVL=0
      00FF855CH   LINE      CODE     ---       #146
      00FF8570H   LINE      CODE     ---       #148
      00FF857EH   LINE      CODE     ---       #150
      00FF8590H   LINE      CODE     ---       #151
      00FF8597H   LINE      CODE     ---       #153
      00FF85A3H   LINE      CODE     ---       #155
      00FF85AFH   LINE      CODE     ---       #156
      00FF85AFH   LINE      CODE     ---       #159
      00FF85BDH   LINE      CODE     ---       #161
      00FF85CFH   LINE      CODE     ---       #162
      00FF85D6H   LINE      CODE     ---       #166
      ---         BLOCKEND  ---      ---       LVL=0

      00FF85EBH   BLOCK     CODE     ---       LVL=0
      00FF85EBH   LINE      CODE     ---       #169
      00FF85FFH   LINE      CODE     ---       #171
      00FF860DH   LINE      CODE     ---       #173
      00FF861FH   LINE      CODE     ---       #174
      00FF8626H   LINE      CODE     ---       #176
      00FF8632H   LINE      CODE     ---       #178
      00FF863EH   LINE      CODE     ---       #179
      00FF863EH   LINE      CODE     ---       #182
      00FF864CH   LINE      CODE     ---       #184
      00FF865EH   LINE      CODE     ---       #185
      00FF8665H   LINE      CODE     ---       #189
      ---         BLOCKEND  ---      ---       LVL=0

      00FF8E9DH   BLOCK     CODE     ---       LVL=0
      00FF8E9DH   LINE      CODE     ---       #192
      00FF8EB1H   LINE      CODE     ---       #194
      00FF8EB4H   LINE      CODE     ---       #196
      00FF8EC0H   LINE      CODE     ---       #198
      00FF8EC8H   LINE      CODE     ---       #199
      ---         BLOCKEND  ---      ---       LVL=0

      00FF8EDDH   BLOCK     CODE     ---       LVL=0
      00FF8EDDH   LINE      CODE     ---       #202
L251 LINKER/LOCATER V4.66.93.0                                                        03/29/2026  20:20:13  PAGE 127


      00FF8EF1H   LINE      CODE     ---       #204
      00FF8EF4H   LINE      CODE     ---       #206
      00FF8F00H   LINE      CODE     ---       #208
      00FF8F08H   LINE      CODE     ---       #209
      ---         BLOCKEND  ---      ---       LVL=0

      00FF8F1DH   BLOCK     CODE     ---       LVL=0
      00FF8F1DH   LINE      CODE     ---       #212
      00FF8F31H   LINE      CODE     ---       #214
      00FF8F34H   LINE      CODE     ---       #216
      00FF8F40H   LINE      CODE     ---       #218
      00FF8F48H   LINE      CODE     ---       #219
      ---         BLOCKEND  ---      ---       LVL=0

      00FF8F5DH   BLOCK     CODE     ---       LVL=0
      00FF8F5DH   LINE      CODE     ---       #222
      00FF8F71H   LINE      CODE     ---       #224
      00FF8F74H   LINE      CODE     ---       #226
      00FF8F80H   LINE      CODE     ---       #228
      00FF8F88H   LINE      CODE     ---       #229
      ---         BLOCKEND  ---      ---       LVL=0

      00FF8F9DH   BLOCK     CODE     ---       LVL=0
      00FF8F9DH   LINE      CODE     ---       #232
      00FF8FB1H   LINE      CODE     ---       #234
      00FF8FB4H   LINE      CODE     ---       #236
      00FF8FC0H   LINE      CODE     ---       #238
      00FF8FC8H   LINE      CODE     ---       #239
      ---         BLOCKEND  ---      ---       LVL=0

      ---         MODULE    ---      ---       all_init
      000000D0H   SFRSYM    DATA     BYTE      PSW
      0000009DH   SFRSYM    DATA     BYTE      IRCBAND
      00000097H   SFRSYM    DATA     BYTE      AUXR2
      000000EFH   SFRSYM    DATA     BYTE      AUXINTIF
      000000FDH   SFRSYM    DATA     BYTE      S4CON
      000000ACH   SFRSYM    DATA     BYTE      S3CON
      0000009AH   SFRSYM    DATA     BYTE      S2CON
      000000B7H   SFRSYM    DATA     BYTE      IPH
      000000CDH   SFRSYM    DATA     BYTE      SPSTAT
      000000DDH   SFRSYM    DATA     BYTE      T4T3M
      000000C1H   SFRSYM    DATA     BYTE      WDT_CONTR
      000000DFH   SFRSYM    DATA     BYTE      IP3
      000000F4H   SFRSYM    DATA     BYTE      USBCON
      000000B5H   SFRSYM    DATA     BYTE      IP2
      000000FFH   SFRSYM    DATA     BYTE      RSTCFG
      000000C7H   SFRSYM    DATA     BYTE      IAP_CONTR
      000000F9H   SFRSYM    DATA     BYTE      LINICR
      0000008EH   SFRSYM    DATA     BYTE      AUXR
      000000AFH   SFRSYM    DATA     BYTE      IE2
      00000088H   SFRSYM    DATA     BYTE      TCON
      00000089H   SFRSYM    DATA     BYTE      TMOD
      00000098H   SFRSYM    DATA     BYTE      SCON
      000000F1H   SFRSYM    DATA     BYTE      CANICR
      00000087H   SFRSYM    DATA     BYTE      PCON
      000000BCH   SFRSYM    DATA     BYTE      ADC_CONTR
      000000E7H   SFRSYM    DATA     BYTE      CMPCR2
      000000E6H   SFRSYM    DATA     BYTE      CMPCR1
      000000DEH   SFRSYM    DATA     BYTE      ADCCFG
      000000B8H   SFRSYM    DATA     BYTE      IP
      0000008FH   SFRSYM    DATA     BYTE      INTCLKO
      000000EEH   SFRSYM    DATA     BYTE      IP3H
      000000B6H   SFRSYM    DATA     BYTE      IP2H
      000000A8H   SFRSYM    DATA     BYTE      IE
      000000BBH   SFRSYM    DATA     BYTE      P_SW3
L251 LINKER/LOCATER V4.66.93.0                                                        03/29/2026  20:20:13  PAGE 128


      000000BAH   SFRSYM    DATA     BYTE      P_SW2
      000000A2H   SFRSYM    DATA     BYTE      P_SW1
      000000CEH   SFRSYM    DATA     BYTE      SPCTL
      000000F8H   SFRSYM    DATA     BYTE      P7
      000000E8H   SFRSYM    DATA     BYTE      P6
      000000C8H   SFRSYM    DATA     BYTE      P5
      000000C0H   SFRSYM    DATA     BYTE      P4
      000000B0H   SFRSYM    DATA     BYTE      P3
      000000A0H   SFRSYM    DATA     BYTE      P2
      00000090H   SFRSYM    DATA     BYTE      P1
      00000080H   SFRSYM    DATA     BYTE      P0

      ---         MODULE    ---      ---       encoder
      000000D0H   SFRSYM    DATA     BYTE      PSW
      0000009DH   SFRSYM    DATA     BYTE      IRCBAND
      00000097H   SFRSYM    DATA     BYTE      AUXR2
      000000EFH   SFRSYM    DATA     BYTE      AUXINTIF
      000000FDH   SFRSYM    DATA     BYTE      S4CON
      000000ACH   SFRSYM    DATA     BYTE      S3CON
      0000009AH   SFRSYM    DATA     BYTE      S2CON
      000000B7H   SFRSYM    DATA     BYTE      IPH
      000000CDH   SFRSYM    DATA     BYTE      SPSTAT
      000000DDH   SFRSYM    DATA     BYTE      T4T3M
      000000C1H   SFRSYM    DATA     BYTE      WDT_CONTR
      000000DFH   SFRSYM    DATA     BYTE      IP3
      000000F4H   SFRSYM    DATA     BYTE      USBCON
      000000B5H   SFRSYM    DATA     BYTE      IP2
      000000FFH   SFRSYM    DATA     BYTE      RSTCFG
      000000C7H   SFRSYM    DATA     BYTE      IAP_CONTR
      000000F9H   SFRSYM    DATA     BYTE      LINICR
      0000008EH   SFRSYM    DATA     BYTE      AUXR
      000000AFH   SFRSYM    DATA     BYTE      IE2
      00000088H   SFRSYM    DATA     BYTE      TCON
      00000089H   SFRSYM    DATA     BYTE      TMOD
      00000098H   SFRSYM    DATA     BYTE      SCON
      000000F1H   SFRSYM    DATA     BYTE      CANICR
      00000087H   SFRSYM    DATA     BYTE      PCON
      000000BCH   SFRSYM    DATA     BYTE      ADC_CONTR
      000000E7H   SFRSYM    DATA     BYTE      CMPCR2
      000000E6H   SFRSYM    DATA     BYTE      CMPCR1
      000000DEH   SFRSYM    DATA     BYTE      ADCCFG
      000000B8H   SFRSYM    DATA     BYTE      IP
      0000008FH   SFRSYM    DATA     BYTE      INTCLKO
      000000EEH   SFRSYM    DATA     BYTE      IP3H
      000000B6H   SFRSYM    DATA     BYTE      IP2H
      000000A8H   SFRSYM    DATA     BYTE      IE
      000000BBH   SFRSYM    DATA     BYTE      P_SW3
      000000BAH   SFRSYM    DATA     BYTE      P_SW2
      000000A2H   SFRSYM    DATA     BYTE      P_SW1
      000000CEH   SFRSYM    DATA     BYTE      SPCTL
      000000F8H   SFRSYM    DATA     BYTE      P7
      000000E8H   SFRSYM    DATA     BYTE      P6
      000000C8H   SFRSYM    DATA     BYTE      P5
      000000C0H   SFRSYM    DATA     BYTE      P4
      000000B0H   SFRSYM    DATA     BYTE      P3
      000000A0H   SFRSYM    DATA     BYTE      P2
      00000090H   SFRSYM    DATA     BYTE      P1
      00000080H   SFRSYM    DATA     BYTE      P0

      ---         MODULE    ---      ---       moto
      000000D0H   SFRSYM    DATA     BYTE      PSW
      0000009DH   SFRSYM    DATA     BYTE      IRCBAND
      00000097H   SFRSYM    DATA     BYTE      AUXR2
      000000EFH   SFRSYM    DATA     BYTE      AUXINTIF
      000000FDH   SFRSYM    DATA     BYTE      S4CON
L251 LINKER/LOCATER V4.66.93.0                                                        03/29/2026  20:20:13  PAGE 129


      000000ACH   SFRSYM    DATA     BYTE      S3CON
      0000009AH   SFRSYM    DATA     BYTE      S2CON
      000000B7H   SFRSYM    DATA     BYTE      IPH
      000000CDH   SFRSYM    DATA     BYTE      SPSTAT
      000000DDH   SFRSYM    DATA     BYTE      T4T3M
      000000C1H   SFRSYM    DATA     BYTE      WDT_CONTR
      000000DFH   SFRSYM    DATA     BYTE      IP3
      000000F4H   SFRSYM    DATA     BYTE      USBCON
      000000B5H   SFRSYM    DATA     BYTE      IP2
      000000FFH   SFRSYM    DATA     BYTE      RSTCFG
      000000C7H   SFRSYM    DATA     BYTE      IAP_CONTR
      000000F9H   SFRSYM    DATA     BYTE      LINICR
      0000008EH   SFRSYM    DATA     BYTE      AUXR
      000000AFH   SFRSYM    DATA     BYTE      IE2
      00000088H   SFRSYM    DATA     BYTE      TCON
      00000089H   SFRSYM    DATA     BYTE      TMOD
      00000098H   SFRSYM    DATA     BYTE      SCON
      000000F1H   SFRSYM    DATA     BYTE      CANICR
      00000087H   SFRSYM    DATA     BYTE      PCON
      000000BCH   SFRSYM    DATA     BYTE      ADC_CONTR
      000000E7H   SFRSYM    DATA     BYTE      CMPCR2
      000000E6H   SFRSYM    DATA     BYTE      CMPCR1
      000000DEH   SFRSYM    DATA     BYTE      ADCCFG
      000000B8H   SFRSYM    DATA     BYTE      IP
      0000008FH   SFRSYM    DATA     BYTE      INTCLKO
      000000EEH   SFRSYM    DATA     BYTE      IP3H
      000000B6H   SFRSYM    DATA     BYTE      IP2H
      000000A8H   SFRSYM    DATA     BYTE      IE
      000000BBH   SFRSYM    DATA     BYTE      P_SW3
      000000BAH   SFRSYM    DATA     BYTE      P_SW2
      000000A2H   SFRSYM    DATA     BYTE      P_SW1
      000000CEH   SFRSYM    DATA     BYTE      SPCTL
      000000F8H   SFRSYM    DATA     BYTE      P7
      000000E8H   SFRSYM    DATA     BYTE      P6
      000000C8H   SFRSYM    DATA     BYTE      P5
      000000C0H   SFRSYM    DATA     BYTE      P4
      000000B0H   SFRSYM    DATA     BYTE      P3
      000000A0H   SFRSYM    DATA     BYTE      P2
      00000090H   SFRSYM    DATA     BYTE      P1
      00000080H   SFRSYM    DATA     BYTE      P0
      00011F72H   SYMBOL    XDATA    INT       P
      00011F03H   SYMBOL    XDATA    INT       speed_left
      00011F05H   SYMBOL    XDATA    INT       speed_right

      ---         MODULE    ---      ---       led
      000000D0H   SFRSYM    DATA     BYTE      PSW
      0000009DH   SFRSYM    DATA     BYTE      IRCBAND
      00000097H   SFRSYM    DATA     BYTE      AUXR2
      000000EFH   SFRSYM    DATA     BYTE      AUXINTIF
      000000FDH   SFRSYM    DATA     BYTE      S4CON
      000000ACH   SFRSYM    DATA     BYTE      S3CON
      0000009AH   SFRSYM    DATA     BYTE      S2CON
      000000B7H   SFRSYM    DATA     BYTE      IPH
      000000CDH   SFRSYM    DATA     BYTE      SPSTAT
      000000DDH   SFRSYM    DATA     BYTE      T4T3M
      000000C1H   SFRSYM    DATA     BYTE      WDT_CONTR
      000000DFH   SFRSYM    DATA     BYTE      IP3
      000000F4H   SFRSYM    DATA     BYTE      USBCON
      000000B5H   SFRSYM    DATA     BYTE      IP2
      000000FFH   SFRSYM    DATA     BYTE      RSTCFG
      000000C7H   SFRSYM    DATA     BYTE      IAP_CONTR
      000000F9H   SFRSYM    DATA     BYTE      LINICR
      0000008EH   SFRSYM    DATA     BYTE      AUXR
      000000AFH   SFRSYM    DATA     BYTE      IE2
      00000088H   SFRSYM    DATA     BYTE      TCON
L251 LINKER/LOCATER V4.66.93.0                                                        03/29/2026  20:20:13  PAGE 130


      00000089H   SFRSYM    DATA     BYTE      TMOD
      00000098H   SFRSYM    DATA     BYTE      SCON
      000000F1H   SFRSYM    DATA     BYTE      CANICR
      00000087H   SFRSYM    DATA     BYTE      PCON
      000000BCH   SFRSYM    DATA     BYTE      ADC_CONTR
      000000E7H   SFRSYM    DATA     BYTE      CMPCR2
      000000E6H   SFRSYM    DATA     BYTE      CMPCR1
      000000DEH   SFRSYM    DATA     BYTE      ADCCFG
      000000B8H   SFRSYM    DATA     BYTE      IP
      0000008FH   SFRSYM    DATA     BYTE      INTCLKO
      000000EEH   SFRSYM    DATA     BYTE      IP3H
      000000B6H   SFRSYM    DATA     BYTE      IP2H
      000000A8H   SFRSYM    DATA     BYTE      IE
      000000BBH   SFRSYM    DATA     BYTE      P_SW3
      000000BAH   SFRSYM    DATA     BYTE      P_SW2
      000000A2H   SFRSYM    DATA     BYTE      P_SW1
      000000CEH   SFRSYM    DATA     BYTE      SPCTL
      000000F8H   SFRSYM    DATA     BYTE      P7
      000000E8H   SFRSYM    DATA     BYTE      P6
      000000C8H   SFRSYM    DATA     BYTE      P5
      000000C0H   SFRSYM    DATA     BYTE      P4
      000000B0H   SFRSYM    DATA     BYTE      P3
      000000A0H   SFRSYM    DATA     BYTE      P2
      00000090H   SFRSYM    DATA     BYTE      P1
      00000080H   SFRSYM    DATA     BYTE      P0
      00011F74H   SYMBOL    XDATA    INT       pin
      00011F76H   SYMBOL    XDATA    INT       pin
      00011F78H   SYMBOL    XDATA    INT       pin

      ---         MODULE    ---      ---       trank
      000108FEH   PUBLIC    XDATA    INT       speed_right
      00010900H   PUBLIC    XDATA    INT       speed_left
      00010902H   PUBLIC    XDATA    INT       real_right
      00010904H   PUBLIC    XDATA    INT       real_left
      00010906H   PUBLIC    XDATA    ---       right_spid
      0001093AH   PUBLIC    XDATA    ---       left_spid
      0001096EH   PUBLIC    XDATA    ---       pos_pid
      00011455H   PUBLIC    XDATA    BYTE      ?PID_Init?BYTE
      00011A3BH   PUBLIC    XDATA    BYTE      ?PID_Calc?BYTE
      000000D0H   SFRSYM    DATA     BYTE      PSW
      0000009DH   SFRSYM    DATA     BYTE      IRCBAND
      00000097H   SFRSYM    DATA     BYTE      AUXR2
      000000EFH   SFRSYM    DATA     BYTE      AUXINTIF
      000000FDH   SFRSYM    DATA     BYTE      S4CON
      000000ACH   SFRSYM    DATA     BYTE      S3CON
      0000009AH   SFRSYM    DATA     BYTE      S2CON
      000000B7H   SFRSYM    DATA     BYTE      IPH
      000000CDH   SFRSYM    DATA     BYTE      SPSTAT
      000000DDH   SFRSYM    DATA     BYTE      T4T3M
      000000C1H   SFRSYM    DATA     BYTE      WDT_CONTR
      000000DFH   SFRSYM    DATA     BYTE      IP3
      000000F4H   SFRSYM    DATA     BYTE      USBCON
      000000B5H   SFRSYM    DATA     BYTE      IP2
      000000FFH   SFRSYM    DATA     BYTE      RSTCFG
      000000C7H   SFRSYM    DATA     BYTE      IAP_CONTR
      000000F9H   SFRSYM    DATA     BYTE      LINICR
      0000008EH   SFRSYM    DATA     BYTE      AUXR
      000000AFH   SFRSYM    DATA     BYTE      IE2
      00000088H   SFRSYM    DATA     BYTE      TCON
      00000089H   SFRSYM    DATA     BYTE      TMOD
      00000098H   SFRSYM    DATA     BYTE      SCON
      000000F1H   SFRSYM    DATA     BYTE      CANICR
      00000087H   SFRSYM    DATA     BYTE      PCON
      000000BCH   SFRSYM    DATA     BYTE      ADC_CONTR
      000000E7H   SFRSYM    DATA     BYTE      CMPCR2
L251 LINKER/LOCATER V4.66.93.0                                                        03/29/2026  20:20:13  PAGE 131


      000000E6H   SFRSYM    DATA     BYTE      CMPCR1
      000000DEH   SFRSYM    DATA     BYTE      ADCCFG
      000000B8H   SFRSYM    DATA     BYTE      IP
      0000008FH   SFRSYM    DATA     BYTE      INTCLKO
      000000EEH   SFRSYM    DATA     BYTE      IP3H
      000000B6H   SFRSYM    DATA     BYTE      IP2H
      000000A8H   SFRSYM    DATA     BYTE      IE
      000000BBH   SFRSYM    DATA     BYTE      P_SW3
      000000BAH   SFRSYM    DATA     BYTE      P_SW2
      000000A2H   SFRSYM    DATA     BYTE      P_SW1
      000000CEH   SFRSYM    DATA     BYTE      SPCTL
      000000F8H   SFRSYM    DATA     BYTE      P7
      000000E8H   SFRSYM    DATA     BYTE      P6
      000000C8H   SFRSYM    DATA     BYTE      P5
      000000C0H   SFRSYM    DATA     BYTE      P4
      000000B0H   SFRSYM    DATA     BYTE      P3
      000000A0H   SFRSYM    DATA     BYTE      P2
      00000090H   SFRSYM    DATA     BYTE      P1
      00000080H   SFRSYM    DATA     BYTE      P0
      00011455H   SYMBOL    XDATA    ---       pid
      00011459H   SYMBOL    XDATA    FLOAT     kp
      0001145DH   SYMBOL    XDATA    FLOAT     ki
      00011461H   SYMBOL    XDATA    FLOAT     kd
      00011465H   SYMBOL    XDATA    FLOAT     max_out
      00011469H   SYMBOL    XDATA    FLOAT     max_i
      00011A3BH   SYMBOL    XDATA    ---       pid
      00011A3FH   SYMBOL    XDATA    FLOAT     target
      00011A43H   SYMBOL    XDATA    FLOAT     measure
      0001133EH   SYMBOL    XDATA    INT       inductance_err
      00011340H   SYMBOL    XDATA    FLOAT     pos_out
      00011344H   SYMBOL    XDATA    FLOAT     left_target
      00011348H   SYMBOL    XDATA    FLOAT     right_target
      0001134CH   SYMBOL    XDATA    INT       left_pwm
      0001134EH   SYMBOL    XDATA    INT       right_pwm
      00011350H   SYMBOL    XDATA    ---       adc

      ---         MODULE    ---      ---       inductance
      000000D0H   SFRSYM    DATA     BYTE      PSW
      0000009DH   SFRSYM    DATA     BYTE      IRCBAND
      00000097H   SFRSYM    DATA     BYTE      AUXR2
      000000EFH   SFRSYM    DATA     BYTE      AUXINTIF
      000000FDH   SFRSYM    DATA     BYTE      S4CON
      000000ACH   SFRSYM    DATA     BYTE      S3CON
      0000009AH   SFRSYM    DATA     BYTE      S2CON
      000000B7H   SFRSYM    DATA     BYTE      IPH
      000000CDH   SFRSYM    DATA     BYTE      SPSTAT
      000000DDH   SFRSYM    DATA     BYTE      T4T3M
      000000C1H   SFRSYM    DATA     BYTE      WDT_CONTR
      000000DFH   SFRSYM    DATA     BYTE      IP3
      000000F4H   SFRSYM    DATA     BYTE      USBCON
      000000B5H   SFRSYM    DATA     BYTE      IP2
      000000FFH   SFRSYM    DATA     BYTE      RSTCFG
      000000C7H   SFRSYM    DATA     BYTE      IAP_CONTR
      000000F9H   SFRSYM    DATA     BYTE      LINICR
      0000008EH   SFRSYM    DATA     BYTE      AUXR
      000000AFH   SFRSYM    DATA     BYTE      IE2
      00000088H   SFRSYM    DATA     BYTE      TCON
      00000089H   SFRSYM    DATA     BYTE      TMOD
      00000098H   SFRSYM    DATA     BYTE      SCON
      000000F1H   SFRSYM    DATA     BYTE      CANICR
      00000087H   SFRSYM    DATA     BYTE      PCON
      000000BCH   SFRSYM    DATA     BYTE      ADC_CONTR
      000000E7H   SFRSYM    DATA     BYTE      CMPCR2
      000000E6H   SFRSYM    DATA     BYTE      CMPCR1
      000000DEH   SFRSYM    DATA     BYTE      ADCCFG
L251 LINKER/LOCATER V4.66.93.0                                                        03/29/2026  20:20:13  PAGE 132


      000000B8H   SFRSYM    DATA     BYTE      IP
      0000008FH   SFRSYM    DATA     BYTE      INTCLKO
      000000EEH   SFRSYM    DATA     BYTE      IP3H
      000000B6H   SFRSYM    DATA     BYTE      IP2H
      000000A8H   SFRSYM    DATA     BYTE      IE
      000000BBH   SFRSYM    DATA     BYTE      P_SW3
      000000BAH   SFRSYM    DATA     BYTE      P_SW2
      000000A2H   SFRSYM    DATA     BYTE      P_SW1
      000000CEH   SFRSYM    DATA     BYTE      SPCTL
      000000F8H   SFRSYM    DATA     BYTE      P7
      000000E8H   SFRSYM    DATA     BYTE      P6
      000000C8H   SFRSYM    DATA     BYTE      P5
      000000C0H   SFRSYM    DATA     BYTE      P4
      000000B0H   SFRSYM    DATA     BYTE      P3
      000000A0H   SFRSYM    DATA     BYTE      P2
      00000090H   SFRSYM    DATA     BYTE      P1
      00000080H   SFRSYM    DATA     BYTE      P0
      00011F2FH   SYMBOL    XDATA    CHAR      value
      00011F30H   SYMBOL    XDATA    CHAR      min_value
      00011F31H   SYMBOL    XDATA    CHAR      max_value
      000117F7H   SYMBOL    XDATA    ---       arr
      000117FBH   SYMBOL    XDATA    INT       times
      000117FDH   SYMBOL    XDATA    INT       min
      000117FFH   SYMBOL    XDATA    INT       max
      00011801H   SYMBOL    XDATA    INT       sum
      00011803H   SYMBOL    XDATA    INT       i
      00011D0DH   SYMBOL    XDATA    WORD      adc_val
      00011D0FH   SYMBOL    XDATA    WORD      adc_max
      00011D11H   SYMBOL    XDATA    WORD      adc_min
      00011D13H   SYMBOL    XDATA    WORD      temp
      000113F4H   SYMBOL    XDATA    WORD      L
      000113F6H   SYMBOL    XDATA    WORD      LM
      000113F8H   SYMBOL    XDATA    WORD      RM
      000113FAH   SYMBOL    XDATA    WORD      R
      000113FCH   SYMBOL    XDATA    CHAR      scaled_err
      000113FDH   SYMBOL    XDATA    FLOAT     sqrt_a
      00011401H   SYMBOL    XDATA    FLOAT     sqrt_b
      00011405H   SYMBOL    XDATA    FLOAT     numerator
      00011409H   SYMBOL    XDATA    FLOAT     denominator
      00010ECBH   SYMBOL    XDATA    ---       inductance_norm_data
      00010ECFH   SYMBOL    XDATA    BYTE      i
      00010ED0H   SYMBOL    XDATA    ---       inductance_init_data
      00010F02H   SYMBOL    XDATA    ---       inductance_filter_data

      ---         MODULE    ---      ---       menu
      00FF921AH   PUBLIC    CODE     ---       Parameter_Debug_Init
      00FF72AEH   PUBLIC    CODE     ---       Parameter_Debug
      000109A2H   PUBLIC    XDATA    ---       gyro_buffer
      00010A02H   PUBLIC    XDATA    ---       send_str
      00010A22H   PUBLIC    XDATA    ---       data_buffer
      000118AEH   PUBLIC    XDATA    BYTE      ?Parameter_Debug?BYTE
      000000D0H   SFRSYM    DATA     BYTE      PSW
      0000009DH   SFRSYM    DATA     BYTE      IRCBAND
      00000097H   SFRSYM    DATA     BYTE      AUXR2
      000000EFH   SFRSYM    DATA     BYTE      AUXINTIF
      000000FDH   SFRSYM    DATA     BYTE      S4CON
      000000ACH   SFRSYM    DATA     BYTE      S3CON
      0000009AH   SFRSYM    DATA     BYTE      S2CON
      000000B7H   SFRSYM    DATA     BYTE      IPH
      000000CDH   SFRSYM    DATA     BYTE      SPSTAT
      000000DDH   SFRSYM    DATA     BYTE      T4T3M
      000000C1H   SFRSYM    DATA     BYTE      WDT_CONTR
      000000DFH   SFRSYM    DATA     BYTE      IP3
      000000F4H   SFRSYM    DATA     BYTE      USBCON
      000000B5H   SFRSYM    DATA     BYTE      IP2
L251 LINKER/LOCATER V4.66.93.0                                                        03/29/2026  20:20:13  PAGE 133


      000000FFH   SFRSYM    DATA     BYTE      RSTCFG
      000000C7H   SFRSYM    DATA     BYTE      IAP_CONTR
      000000F9H   SFRSYM    DATA     BYTE      LINICR
      0000008EH   SFRSYM    DATA     BYTE      AUXR
      000000AFH   SFRSYM    DATA     BYTE      IE2
      00000088H   SFRSYM    DATA     BYTE      TCON
      00000089H   SFRSYM    DATA     BYTE      TMOD
      00000098H   SFRSYM    DATA     BYTE      SCON
      000000F1H   SFRSYM    DATA     BYTE      CANICR
      00000087H   SFRSYM    DATA     BYTE      PCON
      000000BCH   SFRSYM    DATA     BYTE      ADC_CONTR
      000000E7H   SFRSYM    DATA     BYTE      CMPCR2
      000000E6H   SFRSYM    DATA     BYTE      CMPCR1
      000000DEH   SFRSYM    DATA     BYTE      ADCCFG
      000000B8H   SFRSYM    DATA     BYTE      IP
      0000008FH   SFRSYM    DATA     BYTE      INTCLKO
      000000EEH   SFRSYM    DATA     BYTE      IP3H
      000000B6H   SFRSYM    DATA     BYTE      IP2H
      000000A8H   SFRSYM    DATA     BYTE      IE
      000000BBH   SFRSYM    DATA     BYTE      P_SW3
      000000BAH   SFRSYM    DATA     BYTE      P_SW2
      000000A2H   SFRSYM    DATA     BYTE      P_SW1
      000000CEH   SFRSYM    DATA     BYTE      SPCTL
      000000F8H   SFRSYM    DATA     BYTE      P7
      000000E8H   SFRSYM    DATA     BYTE      P6
      000000C8H   SFRSYM    DATA     BYTE      P5
      000000C0H   SFRSYM    DATA     BYTE      P4
      000000B0H   SFRSYM    DATA     BYTE      P3
      000000A0H   SFRSYM    DATA     BYTE      P2
      00000090H   SFRSYM    DATA     BYTE      P1
      00000080H   SFRSYM    DATA     BYTE      P0
      000109C2H   SYMBOL    XDATA    ---       temp_uart_buffer
      00011F07H   SYMBOL    XDATA    ---       inductance_data
      00010B66H   SYMBOL    XDATA    ---       inductance_data
      00010B6AH   SYMBOL    XDATA    ---       send_buf

      00FF921AH   BLOCK     CODE     ---       LVL=0
      00FF921AH   LINE      CODE     ---       #87
      00FF921AH   LINE      CODE     ---       #89
      00FF9224H   LINE      CODE     ---       #90
      00FF9227H   LINE      CODE     ---       #91
      ---         BLOCKEND  ---      ---       LVL=0

      00FF72AEH   BLOCK     CODE     ---       LVL=0
      000118AEH   SYMBOL    XDATA    ---       param1
      000118B2H   SYMBOL    XDATA    ---       param2
      000118B6H   SYMBOL    XDATA    ---       param3
      00FF72C2H   BLOCK     CODE     NEAR LAB  LVL=1
      000118BAH   SYMBOL    XDATA    BYTE      i
      ---         BLOCKEND  ---      ---       LVL=1
      00FF72AEH   LINE      CODE     ---       #93
      00FF72C2H   LINE      CODE     ---       #94
      00FF72C2H   LINE      CODE     ---       #96
      00FF72C5H   LINE      CODE     ---       #98
      00FF72CDH   LINE      CODE     ---       #100
      00FF72E8H   LINE      CODE     ---       #102
      00FF72FFH   LINE      CODE     ---       #103
      00FF731EH   LINE      CODE     ---       #104
      00FF7336H   LINE      CODE     ---       #105
      00FF7370H   LINE      CODE     ---       #106
      00FF7388H   LINE      CODE     ---       #107
      00FF73B0H   LINE      CODE     ---       #108
      00FF73D8H   LINE      CODE     ---       #109
      00FF7400H   LINE      CODE     ---       #110
      00FF741AH   LINE      CODE     ---       #112
L251 LINKER/LOCATER V4.66.93.0                                                        03/29/2026  20:20:13  PAGE 134


      ---         BLOCKEND  ---      ---       LVL=0

      ---         MODULE    ---      ---       ?C?FPADD
      00FF21D4H   PUBLIC    CODE     ---       ?C?FPADD
      00FF21D1H   PUBLIC    CODE     ---       ?C?FPSUB

      ---         MODULE    ---      ---       ?C?FPMUL
      00FF228CH   PUBLIC    CODE     ---       ?C?FPMUL

      ---         MODULE    ---      ---       ?C?FPDIV
      00FF232CH   PUBLIC    CODE     ---       ?C?FPDIV

      ---         MODULE    ---      ---       ?C?FPCMP
      00FF23AFH   PUBLIC    CODE     ---       ?C?FPCMP
      00FF23ADH   PUBLIC    CODE     ---       ?C?FPCMP3

      ---         MODULE    ---      ---       ?C?FPNEG
      00FF23F3H   PUBLIC    CODE     ---       ?C?FPNEG

      ---         MODULE    ---      ---       ?C?FCAST
      00FF240BH   PUBLIC    CODE     NEAR LAB  ?C?FCASTC
      00FF2406H   PUBLIC    CODE     NEAR LAB  ?C?FCASTI
      00FF2401H   PUBLIC    CODE     NEAR LAB  ?C?FCASTL

      ---         MODULE    ---      ---       ?C?CASTF
      00FF243EH   PUBLIC    CODE     NEAR LAB  ?C?CASTF

      ---         MODULE    ---      ---       PRINTF
      000111C5H   PUBLIC    XDATA    ---       ?PRINTF?BYTE
      00FF247BH   PUBLIC    CODE     NEAR LAB  PRINTF

      ---         MODULE    ---      ---       SPRINTF
      000111C5H   PUBLIC    XDATA    ---       ?SPRINTF?BYTE
      00FF24A7H   PUBLIC    CODE     NEAR LAB  SPRINTF

      ---         MODULE    ---      ---       SQRT?_
      00FF24C7H   PUBLIC    CODE     ---       SQRT?_

      ---         MODULE    ---      ---       pow

      ---         MODULE    ---      ---       SIN?_
      00FF259FH   PUBLIC    CODE     ---       COS?_
      00FF25BCH   PUBLIC    CODE     ---       SIN?_
      00FF25E9H   PUBLIC    CODE     ---       TAN?_

      ---         MODULE    ---      ---       ATAN?_
      00FF26AFH   PUBLIC    CODE     ---       ATAN?_

      ---         MODULE    ---      ---       ASIN?_
      00FF2781H   PUBLIC    CODE     ---       ASIN?_

      ---         MODULE    ---      ---       ?C?FPGETOPN
      00FF27A1H   PUBLIC    CODE     ---       ?C?FPGETOPN2
      00FF27DEH   PUBLIC    CODE     ---       ?C?FPNANRESULT
      00FF27E6H   PUBLIC    CODE     ---       ?C?FPOVERFLOW
      00FF27BAH   PUBLIC    CODE     ---       ?C?FPRESULT
      00FF27D0H   PUBLIC    CODE     ---       ?C?FPRESULT2
      00FF27E3H   PUBLIC    CODE     ---       ?C?FPUNDERFLOW

      ---         MODULE    ---      ---       _CHKFLOAT_?_
      00FF27F2H   PUBLIC    CODE     ---       _CHKFLOAT_?_

      ---         MODULE    ---      ---       ?C?PRNFMT
      00FF283CH   PUBLIC    CODE     ---       ?C?PRNFMT

L251 LINKER/LOCATER V4.66.93.0                                                        03/29/2026  20:20:13  PAGE 135


      ---         MODULE    ---      ---       ?C?FPSERIES
      00FF2C4BH   PUBLIC    CODE     ---       ?C?FP2SERIES
      00FF2C54H   PUBLIC    CODE     ---       ?C?FPSERIES

      ---         MODULE    ---      ---       EXP?_
      00FF2CB1H   PUBLIC    CODE     ---       EXP?_

      ---         MODULE    ---      ---       LOG?_
      00FF2D40H   PUBLIC    CODE     NEAR LAB  LOG?_

      ---         MODULE    ---      ---       ?C?FPCONVERT
      00FF2E13H   PUBLIC    CODE     ---       ?C?FPCONVERT
      00FF2ECBH   PUBLIC    CODE     ---       ?C?FPROUND

      ---         MODULE    ---      ---       ?C?FTNPWR
      00FF2F3EH   PUBLIC    CODE     ---       ?C?FTNPWR

      ---         MODULE    ---      ---       ?C?INITHDATA
      00FF8CD6H   PUBLIC    CODE     ---       ?C?INITHDATA

      ---         MODULE    ---      ---       ?C?SIDIV
      00FF2F75H   PUBLIC    CODE     ---       ?C?SIDIV

      ---         MODULE    ---      ---       ?C?LMUL
      00FF2FA7H   PUBLIC    CODE     ---       ?C?LMUL

      ---         MODULE    ---      ---       ?C?LIMUL
      00FF2FB8H   PUBLIC    CODE     ---       ?C?LIMUL

      ---         MODULE    ---      ---       ?C?ULDIV
      00FF2FC3H   PUBLIC    CODE     NEAR LAB  ?C?ULDIV
      00FF2FC1H   PUBLIC    CODE     NEAR LAB  ?C?ULIDIV

      ---         MODULE    ---      ---       ?C?SLDIV
      00FF3014H   PUBLIC    CODE     NEAR LAB  ?C?SLDIV

      ---         MODULE    ---      ---       ?C?BMOVEPP
      00FF304AH   PUBLIC    CODE     ---       ?C?BMOVEPP
      00FF3048H   PUBLIC    CODE     ---       ?C?BMOVEPP8

      ---         MODULE    ---      ---       STRNCMP

      ---         MODULE    ---      ---       STRNCPY

      ---         MODULE    ---      ---       STRLEN
      00FF9228H   PUBLIC    CODE     ---       strlen?_

      ---         MODULE    ---      ---       STRCHR

      ---         MODULE    ---      ---       memcpy
      00FF9195H   PUBLIC    CODE     ---       memcpy?_

      ---         MODULE    ---      ---       memset

      ---         MODULE    ---      ---       ?C?INITHDATA_END
      00FF973AH   PUBLIC    HCONST   WORD      ?C?INITHDATA_END

Program Size: data=8.4 edata+hdata=2060 xdata=8075 const=4069 code=37315
L251 RUN COMPLETE.  0 WARNING(S),  0 ERROR(S)
